	.text
	.intel_syntax noprefix
	.file	"/mnt/c/Users/Adam/Developer/CryptoFunctionDetection/crypto_implementations/botan/src/lib/block/aes/aes.cpp"
	.globl	_ZNK5Botan7AES_1288providerB5cxx11Ev 
	.p2align	4, 0x90
	.type	_ZNK5Botan7AES_1288providerB5cxx11Ev,@function
_ZNK5Botan7AES_1288providerB5cxx11Ev:   
.Lfunc_begin0:
	.cfi_startproc
	.cfi_personality 3, __gxx_personality_v0
	.cfi_lsda 3, .Lexception0

	push	rbp
.Lcfi0:
	.cfi_def_cfa_offset 16
.Lcfi1:
	.cfi_offset rbp, -16
	mov	rbp, rsp
.Lcfi2:
	.cfi_def_cfa_register rbp
	sub	rsp, 64
	mov	rax, rdi
	mov	qword ptr [rbp - 8], rsi
	mov	qword ptr [rbp - 40], rax 
	mov	qword ptr [rbp - 48], rdi 
	call	_ZN5Botan12_GLOBAL__N_112aes_providerEv
	lea	rsi, [rbp - 16]
	mov	rdi, rsi
	mov	qword ptr [rbp - 56], rax 
	mov	qword ptr [rbp - 64], rsi 
	call	_ZNSaIcEC1Ev
.Ltmp0:
	mov	rdi, qword ptr [rbp - 48] 
	mov	rsi, qword ptr [rbp - 56] 
	mov	rdx, qword ptr [rbp - 64] 
	call	_ZNSt7__cxx1112basic_stringIcSt11char_traitsIcESaIcEEC2EPKcRKS3_
.Ltmp1:
	jmp	.LBB0_1
.LBB0_1:
	lea	rdi, [rbp - 16]
	call	_ZNSaIcED1Ev
	mov	rax, qword ptr [rbp - 40] 
	add	rsp, 64
	pop	rbp
	ret
.LBB0_2:
.Ltmp2:
	lea	rdi, [rbp - 16]
	mov	ecx, edx
	mov	qword ptr [rbp - 24], rax
	mov	dword ptr [rbp - 28], ecx
	call	_ZNSaIcED1Ev

	mov	rdi, qword ptr [rbp - 24]
	call	_Unwind_Resume
.Lfunc_end0:
	.size	_ZNK5Botan7AES_1288providerB5cxx11Ev, .Lfunc_end0-_ZNK5Botan7AES_1288providerB5cxx11Ev
	.cfi_endproc
	.section	.gcc_except_table,"a",@progbits
	.p2align	2
GCC_except_table0:
.Lexception0:
	.byte	255                     
	.byte	3                       
	.byte	41                      
	.byte	3                       
	.byte	39                      
	.long	.Lfunc_begin0-.Lfunc_begin0 
	.long	.Ltmp0-.Lfunc_begin0    
	.long	0                       
	.byte	0                       
	.long	.Ltmp0-.Lfunc_begin0    
	.long	.Ltmp1-.Ltmp0           
	.long	.Ltmp2-.Lfunc_begin0    
	.byte	0                       
	.long	.Ltmp1-.Lfunc_begin0    
	.long	.Lfunc_end0-.Ltmp1      
	.long	0                       
	.byte	0                       
	.p2align	2

	.text
	.p2align	4, 0x90         
	.type	_ZN5Botan12_GLOBAL__N_112aes_providerEv,@function
_ZN5Botan12_GLOBAL__N_112aes_providerEv: 
	.cfi_startproc

	push	rbp
.Lcfi3:
	.cfi_def_cfa_offset 16
.Lcfi4:
	.cfi_offset rbp, -16
	mov	rbp, rsp
.Lcfi5:
	.cfi_def_cfa_register rbp
	sub	rsp, 48
	mov	dword ptr [rbp - 12], 1633022667
.LBB1_1:                                
	mov	eax, dword ptr [rbp - 12]
	mov	ecx, eax
	sub	ecx, 442076005
	mov	dword ptr [rbp - 16], eax 
	mov	dword ptr [rbp - 20], ecx 
	je	.LBB1_6
	jmp	.LBB1_10
.LBB1_10:                               
	mov	eax, dword ptr [rbp - 16] 
	sub	eax, 1460968158
	mov	dword ptr [rbp - 24], eax 
	je	.LBB1_8
	jmp	.LBB1_11
.LBB1_11:                               
	mov	eax, dword ptr [rbp - 16] 
	sub	eax, 1633022667
	mov	dword ptr [rbp - 28], eax 
	je	.LBB1_3
	jmp	.LBB1_12
.LBB1_12:                               
	mov	eax, dword ptr [rbp - 16] 
	sub	eax, 1742905134
	mov	dword ptr [rbp - 32], eax 
	je	.LBB1_7
	jmp	.LBB1_13
.LBB1_13:                               
	mov	eax, dword ptr [rbp - 16] 
	sub	eax, 1995084089
	mov	dword ptr [rbp - 36], eax 
	je	.LBB1_5
	jmp	.LBB1_14
.LBB1_14:                               
	mov	eax, dword ptr [rbp - 16] 
	sub	eax, 1995629611
	mov	dword ptr [rbp - 40], eax 
	je	.LBB1_4
	jmp	.LBB1_2
.LBB1_2:                                
	jmp	.LBB1_9
.LBB1_3:                                
	call	_ZN5Botan5CPUID10has_hw_aesEv
	mov	ecx, 1995084089
	mov	edx, 1995629611
	test	al, 1
	cmovne	ecx, edx
	mov	dword ptr [rbp - 12], ecx
	jmp	.LBB1_9
.LBB1_4:                                
	movabs	rax, .L.str
	mov	qword ptr [rbp - 8], rax
	mov	dword ptr [rbp - 12], 1460968158
	jmp	.LBB1_9
.LBB1_5:                                
	call	_ZN5Botan5CPUID9has_vpermEv
	mov	ecx, 1742905134
	mov	edx, 442076005
	test	al, 1
	cmovne	ecx, edx
	mov	dword ptr [rbp - 12], ecx
	jmp	.LBB1_9
.LBB1_6:                                
	movabs	rax, .L.str.1
	mov	qword ptr [rbp - 8], rax
	mov	dword ptr [rbp - 12], 1460968158
	jmp	.LBB1_9
.LBB1_7:                                
	movabs	rax, .L.str.2
	mov	qword ptr [rbp - 8], rax
	mov	dword ptr [rbp - 12], 1460968158
	jmp	.LBB1_9
.LBB1_8:
	mov	rax, qword ptr [rbp - 8]
	add	rsp, 48
	pop	rbp
	ret
.LBB1_9:                                
	jmp	.LBB1_1
.Lfunc_end1:
	.size	_ZN5Botan12_GLOBAL__N_112aes_providerEv, .Lfunc_end1-_ZN5Botan12_GLOBAL__N_112aes_providerEv
	.cfi_endproc

	.section	.text._ZNSt7__cxx1112basic_stringIcSt11char_traitsIcESaIcEEC2EPKcRKS3_,"axG",@progbits,_ZNSt7__cxx1112basic_stringIcSt11char_traitsIcESaIcEEC2EPKcRKS3_,comdat
	.weak	_ZNSt7__cxx1112basic_stringIcSt11char_traitsIcESaIcEEC2EPKcRKS3_ 
	.p2align	4, 0x90
	.type	_ZNSt7__cxx1112basic_stringIcSt11char_traitsIcESaIcEEC2EPKcRKS3_,@function
_ZNSt7__cxx1112basic_stringIcSt11char_traitsIcESaIcEEC2EPKcRKS3_: 
.Lfunc_begin1:
	.cfi_startproc
	.cfi_personality 3, __gxx_personality_v0
	.cfi_lsda 3, .Lexception1

	push	rbp
.Lcfi6:
	.cfi_def_cfa_offset 16
.Lcfi7:
	.cfi_offset rbp, -16
	mov	rbp, rsp
.Lcfi8:
	.cfi_def_cfa_register rbp
	sub	rsp, 80
	mov	qword ptr [rbp - 8], rdi
	mov	qword ptr [rbp - 16], rsi
	mov	qword ptr [rbp - 24], rdx
	mov	rdx, qword ptr [rbp - 8]
	mov	rdi, rdx
	mov	qword ptr [rbp - 48], rdx 
	call	_ZNSt7__cxx1112basic_stringIcSt11char_traitsIcESaIcEE13_M_local_dataEv
	mov	rdx, qword ptr [rbp - 24]
	mov	rdi, qword ptr [rbp - 48] 
	mov	rsi, rax
	call	_ZNSt7__cxx1112basic_stringIcSt11char_traitsIcESaIcEE12_Alloc_hiderC2EPcRKS3_
	mov	rsi, qword ptr [rbp - 16]
	cmp	qword ptr [rbp - 16], 0
	mov	qword ptr [rbp - 56], rsi 
	je	.LBB2_3

	mov	rax, qword ptr [rbp - 16]
.Ltmp3:
	mov	rdi, rax
	mov	qword ptr [rbp - 64], rax 
	call	_ZNSt11char_traitsIcE6lengthEPKc
.Ltmp4:
	mov	qword ptr [rbp - 72], rax 
	jmp	.LBB2_2
.LBB2_2:
	mov	rax, qword ptr [rbp - 64] 
	mov	rcx, qword ptr [rbp - 72] 
	add	rax, rcx
	mov	qword ptr [rbp - 80], rax 
	jmp	.LBB2_4
.LBB2_3:
	mov	rax, qword ptr [rbp - 16]
	add	rax, -1
	mov	qword ptr [rbp - 80], rax 
.LBB2_4:
.Ltmp5:
	mov	rax, qword ptr [rbp - 80] 
	mov	rdi, qword ptr [rbp - 48] 
	mov	rsi, qword ptr [rbp - 56] 
	mov	rdx, rax
	call	_ZNSt7__cxx1112basic_stringIcSt11char_traitsIcESaIcEE12_M_constructIPKcEEvT_S8_
.Ltmp6:
	jmp	.LBB2_5
.LBB2_5:
	add	rsp, 80
	pop	rbp
	ret
.LBB2_6:
.Ltmp7:
	mov	ecx, edx
	mov	qword ptr [rbp - 32], rax
	mov	dword ptr [rbp - 36], ecx
	mov	rdi, qword ptr [rbp - 48] 
	call	_ZNSt7__cxx1112basic_stringIcSt11char_traitsIcESaIcEE12_Alloc_hiderD2Ev

	mov	rdi, qword ptr [rbp - 32]
	call	_Unwind_Resume
.Lfunc_end2:
	.size	_ZNSt7__cxx1112basic_stringIcSt11char_traitsIcESaIcEEC2EPKcRKS3_, .Lfunc_end2-_ZNSt7__cxx1112basic_stringIcSt11char_traitsIcESaIcEEC2EPKcRKS3_
	.cfi_endproc
	.section	.gcc_except_table,"a",@progbits
	.p2align	2
GCC_except_table2:
.Lexception1:
	.byte	255                     
	.byte	3                       
	.asciz	"\234"                  
	.byte	3                       
	.byte	26                      
	.long	.Ltmp3-.Lfunc_begin1    
	.long	.Ltmp6-.Ltmp3           
	.long	.Ltmp7-.Lfunc_begin1    
	.byte	0                       
	.long	.Ltmp6-.Lfunc_begin1    
	.long	.Lfunc_end2-.Ltmp6      
	.long	0                       
	.byte	0                       
	.p2align	2

	.text
	.globl	_ZNK5Botan7AES_1928providerB5cxx11Ev 
	.p2align	4, 0x90
	.type	_ZNK5Botan7AES_1928providerB5cxx11Ev,@function
_ZNK5Botan7AES_1928providerB5cxx11Ev:   
.Lfunc_begin2:
	.cfi_startproc
	.cfi_personality 3, __gxx_personality_v0
	.cfi_lsda 3, .Lexception2

	push	rbp
.Lcfi9:
	.cfi_def_cfa_offset 16
.Lcfi10:
	.cfi_offset rbp, -16
	mov	rbp, rsp
.Lcfi11:
	.cfi_def_cfa_register rbp
	sub	rsp, 64
	mov	rax, rdi
	mov	qword ptr [rbp - 8], rsi
	mov	qword ptr [rbp - 40], rax 
	mov	qword ptr [rbp - 48], rdi 
	call	_ZN5Botan12_GLOBAL__N_112aes_providerEv
	lea	rsi, [rbp - 16]
	mov	rdi, rsi
	mov	qword ptr [rbp - 56], rax 
	mov	qword ptr [rbp - 64], rsi 
	call	_ZNSaIcEC1Ev
.Ltmp8:
	mov	rdi, qword ptr [rbp - 48] 
	mov	rsi, qword ptr [rbp - 56] 
	mov	rdx, qword ptr [rbp - 64] 
	call	_ZNSt7__cxx1112basic_stringIcSt11char_traitsIcESaIcEEC2EPKcRKS3_
.Ltmp9:
	jmp	.LBB3_1
.LBB3_1:
	lea	rdi, [rbp - 16]
	call	_ZNSaIcED1Ev
	mov	rax, qword ptr [rbp - 40] 
	add	rsp, 64
	pop	rbp
	ret
.LBB3_2:
.Ltmp10:
	lea	rdi, [rbp - 16]
	mov	ecx, edx
	mov	qword ptr [rbp - 24], rax
	mov	dword ptr [rbp - 28], ecx
	call	_ZNSaIcED1Ev

	mov	rdi, qword ptr [rbp - 24]
	call	_Unwind_Resume
.Lfunc_end3:
	.size	_ZNK5Botan7AES_1928providerB5cxx11Ev, .Lfunc_end3-_ZNK5Botan7AES_1928providerB5cxx11Ev
	.cfi_endproc
	.section	.gcc_except_table,"a",@progbits
	.p2align	2
GCC_except_table3:
.Lexception2:
	.byte	255                     
	.byte	3                       
	.byte	41                      
	.byte	3                       
	.byte	39                      
	.long	.Lfunc_begin2-.Lfunc_begin2 
	.long	.Ltmp8-.Lfunc_begin2    
	.long	0                       
	.byte	0                       
	.long	.Ltmp8-.Lfunc_begin2    
	.long	.Ltmp9-.Ltmp8           
	.long	.Ltmp10-.Lfunc_begin2   
	.byte	0                       
	.long	.Ltmp9-.Lfunc_begin2    
	.long	.Lfunc_end3-.Ltmp9      
	.long	0                       
	.byte	0                       
	.p2align	2

	.text
	.globl	_ZNK5Botan7AES_2568providerB5cxx11Ev 
	.p2align	4, 0x90
	.type	_ZNK5Botan7AES_2568providerB5cxx11Ev,@function
_ZNK5Botan7AES_2568providerB5cxx11Ev:   
.Lfunc_begin3:
	.cfi_startproc
	.cfi_personality 3, __gxx_personality_v0
	.cfi_lsda 3, .Lexception3

	push	rbp
.Lcfi12:
	.cfi_def_cfa_offset 16
.Lcfi13:
	.cfi_offset rbp, -16
	mov	rbp, rsp
.Lcfi14:
	.cfi_def_cfa_register rbp
	sub	rsp, 64
	mov	rax, rdi
	mov	qword ptr [rbp - 8], rsi
	mov	qword ptr [rbp - 40], rax 
	mov	qword ptr [rbp - 48], rdi 
	call	_ZN5Botan12_GLOBAL__N_112aes_providerEv
	lea	rsi, [rbp - 16]
	mov	rdi, rsi
	mov	qword ptr [rbp - 56], rax 
	mov	qword ptr [rbp - 64], rsi 
	call	_ZNSaIcEC1Ev
.Ltmp11:
	mov	rdi, qword ptr [rbp - 48] 
	mov	rsi, qword ptr [rbp - 56] 
	mov	rdx, qword ptr [rbp - 64] 
	call	_ZNSt7__cxx1112basic_stringIcSt11char_traitsIcESaIcEEC2EPKcRKS3_
.Ltmp12:
	jmp	.LBB4_1
.LBB4_1:
	lea	rdi, [rbp - 16]
	call	_ZNSaIcED1Ev
	mov	rax, qword ptr [rbp - 40] 
	add	rsp, 64
	pop	rbp
	ret
.LBB4_2:
.Ltmp13:
	lea	rdi, [rbp - 16]
	mov	ecx, edx
	mov	qword ptr [rbp - 24], rax
	mov	dword ptr [rbp - 28], ecx
	call	_ZNSaIcED1Ev

	mov	rdi, qword ptr [rbp - 24]
	call	_Unwind_Resume
.Lfunc_end4:
	.size	_ZNK5Botan7AES_2568providerB5cxx11Ev, .Lfunc_end4-_ZNK5Botan7AES_2568providerB5cxx11Ev
	.cfi_endproc
	.section	.gcc_except_table,"a",@progbits
	.p2align	2
GCC_except_table4:
.Lexception3:
	.byte	255                     
	.byte	3                       
	.byte	41                      
	.byte	3                       
	.byte	39                      
	.long	.Lfunc_begin3-.Lfunc_begin3 
	.long	.Ltmp11-.Lfunc_begin3   
	.long	0                       
	.byte	0                       
	.long	.Ltmp11-.Lfunc_begin3   
	.long	.Ltmp12-.Ltmp11         
	.long	.Ltmp13-.Lfunc_begin3   
	.byte	0                       
	.long	.Ltmp12-.Lfunc_begin3   
	.long	.Lfunc_end4-.Ltmp12     
	.long	0                       
	.byte	0                       
	.p2align	2

	.text
	.globl	_ZNK5Botan7AES_12811parallelismEv 
	.p2align	4, 0x90
	.type	_ZNK5Botan7AES_12811parallelismEv,@function
_ZNK5Botan7AES_12811parallelismEv:      
	.cfi_startproc

	push	rbp
.Lcfi15:
	.cfi_def_cfa_offset 16
.Lcfi16:
	.cfi_offset rbp, -16
	mov	rbp, rsp
.Lcfi17:
	.cfi_def_cfa_register rbp
	sub	rsp, 16
	mov	qword ptr [rbp - 8], rdi
	call	_ZN5Botan12_GLOBAL__N_115aes_parallelismEv
	add	rsp, 16
	pop	rbp
	ret
.Lfunc_end5:
	.size	_ZNK5Botan7AES_12811parallelismEv, .Lfunc_end5-_ZNK5Botan7AES_12811parallelismEv
	.cfi_endproc

	.p2align	4, 0x90         
	.type	_ZN5Botan12_GLOBAL__N_115aes_parallelismEv,@function
_ZN5Botan12_GLOBAL__N_115aes_parallelismEv: 
	.cfi_startproc

	push	rbp
.Lcfi18:
	.cfi_def_cfa_offset 16
.Lcfi19:
	.cfi_offset rbp, -16
	mov	rbp, rsp
.Lcfi20:
	.cfi_def_cfa_register rbp
	push	r15
	push	r14
	push	r12
	push	rbx
	sub	rsp, 112
.Lcfi21:
	.cfi_offset rbx, -48
.Lcfi22:
	.cfi_offset r12, -40
.Lcfi23:
	.cfi_offset r14, -32
.Lcfi24:
	.cfi_offset r15, -24
	mov	dword ptr [rbp - 60], -148876283
.LBB6_1:                                
	mov	eax, dword ptr [rbp - 60]
	mov	ecx, eax
	sub	ecx, -2057156275
	mov	dword ptr [rbp - 64], eax 
	mov	dword ptr [rbp - 68], ecx 
	je	.LBB6_18
	jmp	.LBB6_22
.LBB6_22:                               
	mov	eax, dword ptr [rbp - 64] 
	sub	eax, -2051441115
	mov	dword ptr [rbp - 72], eax 
	je	.LBB6_17
	jmp	.LBB6_23
.LBB6_23:                               
	mov	eax, dword ptr [rbp - 64] 
	sub	eax, -1875721760
	mov	dword ptr [rbp - 76], eax 
	je	.LBB6_4
	jmp	.LBB6_24
.LBB6_24:                               
	mov	eax, dword ptr [rbp - 64] 
	sub	eax, -1800938311
	mov	dword ptr [rbp - 80], eax 
	je	.LBB6_8
	jmp	.LBB6_25
.LBB6_25:                               
	mov	eax, dword ptr [rbp - 64] 
	sub	eax, -1767115185
	mov	dword ptr [rbp - 84], eax 
	je	.LBB6_11
	jmp	.LBB6_26
.LBB6_26:                               
	mov	eax, dword ptr [rbp - 64] 
	sub	eax, -1654094191
	mov	dword ptr [rbp - 88], eax 
	je	.LBB6_20
	jmp	.LBB6_27
.LBB6_27:                               
	mov	eax, dword ptr [rbp - 64] 
	sub	eax, -942519792
	mov	dword ptr [rbp - 92], eax 
	je	.LBB6_9
	jmp	.LBB6_28
.LBB6_28:                               
	mov	eax, dword ptr [rbp - 64] 
	sub	eax, -902954192
	mov	dword ptr [rbp - 96], eax 
	je	.LBB6_10
	jmp	.LBB6_29
.LBB6_29:                               
	mov	eax, dword ptr [rbp - 64] 
	sub	eax, -817130531
	mov	dword ptr [rbp - 100], eax 
	je	.LBB6_15
	jmp	.LBB6_30
.LBB6_30:                               
	mov	eax, dword ptr [rbp - 64] 
	sub	eax, -765391498
	mov	dword ptr [rbp - 104], eax 
	je	.LBB6_14
	jmp	.LBB6_31
.LBB6_31:                               
	mov	eax, dword ptr [rbp - 64] 
	sub	eax, -148876283
	mov	dword ptr [rbp - 108], eax 
	je	.LBB6_3
	jmp	.LBB6_32
.LBB6_32:                               
	mov	eax, dword ptr [rbp - 64] 
	sub	eax, 234692174
	mov	dword ptr [rbp - 112], eax 
	je	.LBB6_13
	jmp	.LBB6_33
.LBB6_33:                               
	mov	eax, dword ptr [rbp - 64] 
	sub	eax, 626022188
	mov	dword ptr [rbp - 116], eax 
	je	.LBB6_7
	jmp	.LBB6_34
.LBB6_34:                               
	mov	eax, dword ptr [rbp - 64] 
	sub	eax, 632273937
	mov	dword ptr [rbp - 120], eax 
	je	.LBB6_19
	jmp	.LBB6_35
.LBB6_35:                               
	mov	eax, dword ptr [rbp - 64] 
	sub	eax, 780649420
	mov	dword ptr [rbp - 124], eax 
	je	.LBB6_12
	jmp	.LBB6_36
.LBB6_36:                               
	mov	eax, dword ptr [rbp - 64] 
	sub	eax, 1691518496
	mov	dword ptr [rbp - 128], eax 
	je	.LBB6_5
	jmp	.LBB6_37
.LBB6_37:                               
	mov	eax, dword ptr [rbp - 64] 
	sub	eax, 1808839051
	mov	dword ptr [rbp - 132], eax 
	je	.LBB6_16
	jmp	.LBB6_38
.LBB6_38:                               
	mov	eax, dword ptr [rbp - 64] 
	sub	eax, 2044099470
	mov	dword ptr [rbp - 136], eax 
	je	.LBB6_6
	jmp	.LBB6_2
.LBB6_2:                                
	jmp	.LBB6_21
.LBB6_3:                                
	call	_ZN5Botan5CPUID10has_hw_aesEv
	mov	ecx, 626022188
	mov	edx, 2419245536
	test	al, 1
	cmovne	ecx, edx
	mov	dword ptr [rbp - 60], ecx
	jmp	.LBB6_21
.LBB6_4:                                
	mov	eax, 2243526181
	mov	ecx, 1691518496
	xor	edx, edx
	mov	esi, dword ptr [x.18]
	mov	edi, dword ptr [y.19]
	sub	edx, 1
	mov	r8d, esi
	add	r8d, edx
	imul	esi, r8d
	and	esi, 1
	cmp	esi, 0
	sete	r9b
	cmp	edi, 10
	setl	r10b
	mov	r11b, r9b
	and	r11b, r10b
	xor	r9b, r10b
	or	r11b, r9b
	test	r11b, 1
	cmovne	eax, ecx
	mov	dword ptr [rbp - 60], eax
	jmp	.LBB6_21
.LBB6_5:                                
	mov	eax, 2243526181
	mov	ecx, 2044099470
	mov	dl, 1
	mov	qword ptr [rbp - 56], 4
	mov	esi, dword ptr [x.18]
	mov	edi, dword ptr [y.19]
	mov	r8d, esi
	sub	r8d, -1977246058
	sub	r8d, 1
	add	r8d, -1977246058
	imul	esi, r8d
	and	esi, 1
	cmp	esi, 0
	sete	r9b
	cmp	edi, 10
	setl	r10b
	mov	r11b, r9b
	xor	r11b, -1
	mov	bl, r10b
	xor	bl, -1
	xor	dl, 0
	mov	r14b, r11b
	and	r14b, 0
	and	r9b, dl
	mov	r15b, bl
	and	r15b, 0
	and	r10b, dl
	or	r14b, r9b
	or	r15b, r10b
	xor	r14b, r15b
	or	r11b, bl
	xor	r11b, -1
	or	dl, 0
	and	r11b, dl
	or	r14b, r11b
	test	r14b, 1
	cmovne	eax, ecx
	mov	dword ptr [rbp - 60], eax
	jmp	.LBB6_21
.LBB6_6:                                
	mov	dword ptr [rbp - 60], -765391498
	jmp	.LBB6_21
.LBB6_7:                                
	mov	eax, 2237811021
	mov	ecx, 2494028985
	mov	dl, 1
	xor	esi, esi
	mov	edi, dword ptr [x.18]
	mov	r8d, dword ptr [y.19]
	sub	esi, 1
	mov	r9d, edi
	add	r9d, esi
	imul	edi, r9d
	and	edi, 1
	cmp	edi, 0
	sete	r10b
	cmp	r8d, 10
	setl	r11b
	mov	bl, r10b
	xor	bl, -1
	mov	r14b, r11b
	xor	r14b, -1
	xor	dl, 0
	mov	r15b, bl
	and	r15b, 0
	and	r10b, dl
	mov	r12b, r14b
	and	r12b, 0
	and	r11b, dl
	or	r15b, r10b
	or	r12b, r11b
	xor	r15b, r12b
	or	bl, r14b
	xor	bl, -1
	or	dl, 0
	and	bl, dl
	or	r15b, bl
	test	r15b, 1
	cmovne	eax, ecx
	mov	dword ptr [rbp - 60], eax
	jmp	.LBB6_21
.LBB6_8:                                
	call	_ZN5Botan5CPUID9has_vpermEv
	mov	ecx, 2237811021
	mov	edx, 3352447504
	xor	esi, esi
	and	al, 1
	mov	byte ptr [rbp - 41], al
	mov	edi, dword ptr [x.18]
	mov	r8d, dword ptr [y.19]
	sub	esi, 1
	mov	r9d, edi
	add	r9d, esi
	imul	edi, r9d
	and	edi, 1
	cmp	edi, 0
	sete	al
	cmp	r8d, 10
	setl	r10b
	mov	r11b, al
	and	r11b, r10b
	xor	al, r10b
	or	r11b, al
	test	r11b, 1
	cmovne	ecx, edx
	mov	dword ptr [rbp - 60], ecx
	jmp	.LBB6_21
.LBB6_9:                                
	mov	eax, 234692174
	mov	ecx, 3392013104
	mov	dl, byte ptr [rbp - 41]
	test	dl, 1
	cmovne	eax, ecx
	mov	dword ptr [rbp - 60], eax
	jmp	.LBB6_21
.LBB6_10:                               
	mov	eax, 632273937
	mov	ecx, 2527852111
	mov	edx, dword ptr [x.18]
	mov	esi, dword ptr [y.19]
	mov	edi, edx
	sub	edi, 1886412726
	sub	edi, 1
	add	edi, 1886412726
	imul	edx, edi
	and	edx, 1
	cmp	edx, 0
	sete	r8b
	cmp	esi, 10
	setl	r9b
	mov	r10b, r8b
	and	r10b, r9b
	xor	r8b, r9b
	or	r10b, r8b
	test	r10b, 1
	cmovne	eax, ecx
	mov	dword ptr [rbp - 60], eax
	jmp	.LBB6_21
.LBB6_11:                               
	mov	eax, 632273937
	mov	ecx, 780649420
	mov	dl, 1
	mov	qword ptr [rbp - 56], 2
	mov	esi, dword ptr [x.18]
	mov	edi, dword ptr [y.19]
	mov	r8d, esi
	sub	r8d, 706383270
	sub	r8d, 1
	add	r8d, 706383270
	imul	esi, r8d
	and	esi, 1
	cmp	esi, 0
	sete	r9b
	cmp	edi, 10
	setl	r10b
	mov	r11b, r9b
	xor	r11b, -1
	mov	bl, r10b
	xor	bl, -1
	xor	dl, 0
	mov	r14b, r11b
	and	r14b, 0
	and	r9b, dl
	mov	r15b, bl
	and	r15b, 0
	and	r10b, dl
	or	r14b, r9b
	or	r15b, r10b
	xor	r14b, r15b
	or	r11b, bl
	xor	r11b, -1
	or	dl, 0
	and	r11b, dl
	or	r14b, r11b
	test	r14b, 1
	cmovne	eax, ecx
	mov	dword ptr [rbp - 60], eax
	jmp	.LBB6_21
.LBB6_12:                               
	mov	dword ptr [rbp - 60], -765391498
	jmp	.LBB6_21
.LBB6_13:                               
	mov	qword ptr [rbp - 56], 2
	mov	dword ptr [rbp - 60], -765391498
	jmp	.LBB6_21
.LBB6_14:                               
	mov	eax, 2640873105
	mov	ecx, 3477836765
	mov	dl, 1
	mov	esi, dword ptr [x.18]
	mov	edi, dword ptr [y.19]
	mov	r8d, esi
	add	r8d, -1113874837
	sub	r8d, 1
	sub	r8d, -1113874837
	imul	esi, r8d
	and	esi, 1
	cmp	esi, 0
	sete	r9b
	cmp	edi, 10
	setl	r10b
	mov	r11b, r9b
	xor	r11b, -1
	mov	bl, r10b
	xor	bl, -1
	xor	dl, 0
	mov	r14b, r11b
	and	r14b, 0
	and	r9b, dl
	mov	r15b, bl
	and	r15b, 0
	and	r10b, dl
	or	r14b, r9b
	or	r15b, r10b
	xor	r14b, r15b
	or	r11b, bl
	xor	r11b, -1
	or	dl, 0
	and	r11b, dl
	or	r14b, r11b
	test	r14b, 1
	cmovne	eax, ecx
	mov	dword ptr [rbp - 60], eax
	jmp	.LBB6_21
.LBB6_15:                               
	mov	eax, 2640873105
	mov	ecx, 1808839051
	mov	dl, 1
	mov	rsi, qword ptr [rbp - 56]
	mov	qword ptr [rbp - 40], rsi
	mov	edi, dword ptr [x.18]
	mov	r8d, dword ptr [y.19]
	mov	r9d, edi
	sub	r9d, -827339064
	sub	r9d, 1
	add	r9d, -827339064
	imul	edi, r9d
	and	edi, 1
	cmp	edi, 0
	sete	r10b
	cmp	r8d, 10
	setl	r11b
	mov	bl, r10b
	xor	bl, -1
	mov	r14b, r11b
	xor	r14b, -1
	xor	dl, 0
	mov	r15b, bl
	and	r15b, 0
	and	r10b, dl
	mov	r12b, r14b
	and	r12b, 0
	and	r11b, dl
	or	r15b, r10b
	or	r12b, r11b
	xor	r15b, r12b
	or	bl, r14b
	xor	bl, -1
	or	dl, 0
	and	bl, dl
	or	r15b, bl
	test	r15b, 1
	cmovne	eax, ecx
	mov	dword ptr [rbp - 60], eax
	jmp	.LBB6_21
.LBB6_16:
	mov	rax, qword ptr [rbp - 40]
	add	rsp, 112
	pop	rbx
	pop	r12
	pop	r14
	pop	r15
	pop	rbp
	ret
.LBB6_17:                               
	mov	qword ptr [rbp - 56], 4
	mov	dword ptr [rbp - 60], 1691518496
	jmp	.LBB6_21
.LBB6_18:                               
	call	_ZN5Botan5CPUID9has_vpermEv
	mov	dword ptr [rbp - 60], -1800938311
	mov	byte ptr [rbp - 137], al 
	jmp	.LBB6_21
.LBB6_19:                               
	mov	qword ptr [rbp - 56], 2
	mov	dword ptr [rbp - 60], -1767115185
	jmp	.LBB6_21
.LBB6_20:                               
	mov	dword ptr [rbp - 60], -817130531
.LBB6_21:                               
	jmp	.LBB6_1
.Lfunc_end6:
	.size	_ZN5Botan12_GLOBAL__N_115aes_parallelismEv, .Lfunc_end6-_ZN5Botan12_GLOBAL__N_115aes_parallelismEv
	.cfi_endproc

	.globl	_ZNK5Botan7AES_19211parallelismEv 
	.p2align	4, 0x90
	.type	_ZNK5Botan7AES_19211parallelismEv,@function
_ZNK5Botan7AES_19211parallelismEv:      
	.cfi_startproc

	push	rbp
.Lcfi25:
	.cfi_def_cfa_offset 16
.Lcfi26:
	.cfi_offset rbp, -16
	mov	rbp, rsp
.Lcfi27:
	.cfi_def_cfa_register rbp
	sub	rsp, 16
	mov	qword ptr [rbp - 8], rdi
	call	_ZN5Botan12_GLOBAL__N_115aes_parallelismEv
	add	rsp, 16
	pop	rbp
	ret
.Lfunc_end7:
	.size	_ZNK5Botan7AES_19211parallelismEv, .Lfunc_end7-_ZNK5Botan7AES_19211parallelismEv
	.cfi_endproc

	.globl	_ZNK5Botan7AES_25611parallelismEv 
	.p2align	4, 0x90
	.type	_ZNK5Botan7AES_25611parallelismEv,@function
_ZNK5Botan7AES_25611parallelismEv:      
	.cfi_startproc

	push	rbp
.Lcfi28:
	.cfi_def_cfa_offset 16
.Lcfi29:
	.cfi_offset rbp, -16
	mov	rbp, rsp
.Lcfi30:
	.cfi_def_cfa_register rbp
	push	r15
	push	r14
	push	r13
	push	r12
	push	rbx
	sub	rsp, 56
.Lcfi31:
	.cfi_offset rbx, -56
.Lcfi32:
	.cfi_offset r12, -48
.Lcfi33:
	.cfi_offset r13, -40
.Lcfi34:
	.cfi_offset r14, -32
.Lcfi35:
	.cfi_offset r15, -24
	mov	eax, dword ptr [x.22]
	mov	ecx, dword ptr [y.23]
	mov	edx, eax
	sub	edx, -850501900
	sub	edx, 1
	add	edx, -850501900
	imul	eax, edx
	and	eax, 1
	cmp	eax, 0
	sete	sil
	and	sil, 1
	mov	byte ptr [rbp - 50], sil
	cmp	ecx, 10
	setl	sil
	and	sil, 1
	mov	byte ptr [rbp - 49], sil
	mov	dword ptr [rbp - 56], -1979891093
	mov	qword ptr [rbp - 64], rdi 
.LBB8_1:                                
	mov	eax, dword ptr [rbp - 56]
	mov	ecx, eax
	sub	ecx, -1979891093
	mov	dword ptr [rbp - 68], eax 
	mov	dword ptr [rbp - 72], ecx 
	je	.LBB8_3
	jmp	.LBB8_8
.LBB8_8:                                
	mov	eax, dword ptr [rbp - 68] 
	sub	eax, -1632409920
	mov	dword ptr [rbp - 76], eax 
	je	.LBB8_4
	jmp	.LBB8_9
.LBB8_9:                                
	mov	eax, dword ptr [rbp - 68] 
	sub	eax, -767945491
	mov	dword ptr [rbp - 80], eax 
	je	.LBB8_6
	jmp	.LBB8_10
.LBB8_10:                               
	mov	eax, dword ptr [rbp - 68] 
	sub	eax, 1607819670
	mov	dword ptr [rbp - 84], eax 
	je	.LBB8_5
	jmp	.LBB8_2
.LBB8_2:                                
	jmp	.LBB8_7
.LBB8_3:                                
	mov	eax, 3527021805
	mov	ecx, 2662557376
	mov	dl, 1
	mov	sil, byte ptr [rbp - 50]
	mov	dil, byte ptr [rbp - 49]
	mov	r8b, sil
	xor	r8b, -1
	mov	r9b, dil
	xor	r9b, -1
	xor	dl, 0
	mov	r10b, r8b
	and	r10b, 0
	and	sil, dl
	mov	r11b, r9b
	and	r11b, 0
	and	dil, dl
	or	r10b, sil
	or	r11b, dil
	xor	r10b, r11b
	or	r8b, r9b
	xor	r8b, -1
	or	dl, 0
	and	r8b, dl
	or	r10b, r8b
	test	r10b, 1
	cmovne	eax, ecx
	mov	dword ptr [rbp - 56], eax
	jmp	.LBB8_7
.LBB8_4:                                
	mov	rax, rsp
	add	rax, -16
	mov	rsp, rax
	mov	rcx, qword ptr [rbp - 64] 
	mov	qword ptr [rax], rcx
	call	_ZN5Botan12_GLOBAL__N_115aes_parallelismEv
	mov	edx, 3527021805
	mov	esi, 1607819670
	mov	dil, 1
	xor	r8d, r8d
	mov	qword ptr [rbp - 48], rax
	mov	r9d, dword ptr [x.22]
	mov	r10d, dword ptr [y.23]
	sub	r8d, 1
	mov	r11d, r9d
	add	r11d, r8d
	imul	r9d, r11d
	and	r9d, 1
	cmp	r9d, 0
	sete	bl
	cmp	r10d, 10
	setl	r14b
	mov	r15b, bl
	xor	r15b, -1
	mov	r12b, r14b
	xor	r12b, -1
	xor	dil, 0
	mov	r13b, r15b
	and	r13b, 0
	and	bl, dil
	mov	al, r12b
	and	al, 0
	and	r14b, dil
	or	r13b, bl
	or	al, r14b
	xor	r13b, al
	or	r15b, r12b
	xor	r15b, -1
	or	dil, 0
	and	r15b, dil
	or	r13b, r15b
	test	r13b, 1
	cmovne	edx, esi
	mov	dword ptr [rbp - 56], edx
	jmp	.LBB8_7
.LBB8_5:
	mov	rax, qword ptr [rbp - 48]
	lea	rsp, [rbp - 40]
	pop	rbx
	pop	r12
	pop	r13
	pop	r14
	pop	r15
	pop	rbp
	ret
.LBB8_6:                                
	mov	rax, rsp
	add	rax, -16
	mov	rsp, rax
	mov	rcx, qword ptr [rbp - 64] 
	mov	qword ptr [rax], rcx
	call	_ZN5Botan12_GLOBAL__N_115aes_parallelismEv
	mov	dword ptr [rbp - 56], -1632409920
	mov	qword ptr [rbp - 96], rax 
.LBB8_7:                                
	jmp	.LBB8_1
.Lfunc_end8:
	.size	_ZNK5Botan7AES_25611parallelismEv, .Lfunc_end8-_ZNK5Botan7AES_25611parallelismEv
	.cfi_endproc

	.globl	_ZNK5Botan7AES_1289encrypt_nEPKhPhm 
	.p2align	4, 0x90
	.type	_ZNK5Botan7AES_1289encrypt_nEPKhPhm,@function
_ZNK5Botan7AES_1289encrypt_nEPKhPhm:    
	.cfi_startproc

	push	rbp
.Lcfi36:
	.cfi_def_cfa_offset 16
.Lcfi37:
	.cfi_offset rbp, -16
	mov	rbp, rsp
.Lcfi38:
	.cfi_def_cfa_register rbp
	push	r15
	push	r14
	push	r13
	push	r12
	push	rbx
	sub	rsp, 168
.Lcfi39:
	.cfi_offset rbx, -56
.Lcfi40:
	.cfi_offset r12, -48
.Lcfi41:
	.cfi_offset r13, -40
.Lcfi42:
	.cfi_offset r14, -32
.Lcfi43:
	.cfi_offset r15, -24
	mov	eax, dword ptr [x.24]
	mov	r8d, dword ptr [y.25]
	mov	r9d, eax
	sub	r9d, -287959659
	sub	r9d, 1
	add	r9d, -287959659
	imul	eax, r9d
	and	eax, 1
	cmp	eax, 0
	sete	r10b
	and	r10b, 1
	mov	byte ptr [rbp - 82], r10b
	cmp	r8d, 10
	setl	r10b
	and	r10b, 1
	mov	byte ptr [rbp - 81], r10b
	mov	dword ptr [rbp - 88], -1638082029
	mov	qword ptr [rbp - 96], rdx 
	mov	qword ptr [rbp - 104], rsi 
	mov	qword ptr [rbp - 112], rdi 
	mov	qword ptr [rbp - 120], rcx 
.LBB9_1:                                
	mov	eax, dword ptr [rbp - 88]
	mov	ecx, eax
	sub	ecx, -2025961568
	mov	dword ptr [rbp - 124], eax 
	mov	dword ptr [rbp - 128], ecx 
	je	.LBB9_5
	jmp	.LBB9_19
.LBB9_19:                               
	mov	eax, dword ptr [rbp - 124] 
	sub	eax, -1942264903
	mov	dword ptr [rbp - 132], eax 
	je	.LBB9_7
	jmp	.LBB9_20
.LBB9_20:                               
	mov	eax, dword ptr [rbp - 124] 
	sub	eax, -1922570533
	mov	dword ptr [rbp - 136], eax 
	je	.LBB9_10
	jmp	.LBB9_21
.LBB9_21:                               
	mov	eax, dword ptr [rbp - 124] 
	sub	eax, -1638082029
	mov	dword ptr [rbp - 140], eax 
	je	.LBB9_3
	jmp	.LBB9_22
.LBB9_22:                               
	mov	eax, dword ptr [rbp - 124] 
	sub	eax, -1190524858
	mov	dword ptr [rbp - 144], eax 
	je	.LBB9_9
	jmp	.LBB9_23
.LBB9_23:                               
	mov	eax, dword ptr [rbp - 124] 
	sub	eax, -1172677050
	mov	dword ptr [rbp - 148], eax 
	je	.LBB9_15
	jmp	.LBB9_24
.LBB9_24:                               
	mov	eax, dword ptr [rbp - 124] 
	sub	eax, -769299307
	mov	dword ptr [rbp - 152], eax 
	je	.LBB9_12
	jmp	.LBB9_25
.LBB9_25:                               
	mov	eax, dword ptr [rbp - 124] 
	sub	eax, -316429305
	mov	dword ptr [rbp - 156], eax 
	je	.LBB9_17
	jmp	.LBB9_26
.LBB9_26:                               
	mov	eax, dword ptr [rbp - 124] 
	sub	eax, -301677243
	mov	dword ptr [rbp - 160], eax 
	je	.LBB9_16
	jmp	.LBB9_27
.LBB9_27:                               
	mov	eax, dword ptr [rbp - 124] 
	sub	eax, 251616792
	mov	dword ptr [rbp - 164], eax 
	je	.LBB9_4
	jmp	.LBB9_28
.LBB9_28:                               
	mov	eax, dword ptr [rbp - 124] 
	sub	eax, 314430097
	mov	dword ptr [rbp - 168], eax 
	je	.LBB9_14
	jmp	.LBB9_29
.LBB9_29:                               
	mov	eax, dword ptr [rbp - 124] 
	sub	eax, 594228196
	mov	dword ptr [rbp - 172], eax 
	je	.LBB9_11
	jmp	.LBB9_30
.LBB9_30:                               
	mov	eax, dword ptr [rbp - 124] 
	sub	eax, 658484679
	mov	dword ptr [rbp - 176], eax 
	je	.LBB9_13
	jmp	.LBB9_31
.LBB9_31:                               
	mov	eax, dword ptr [rbp - 124] 
	sub	eax, 1061534350
	mov	dword ptr [rbp - 180], eax 
	je	.LBB9_6
	jmp	.LBB9_32
.LBB9_32:                               
	mov	eax, dword ptr [rbp - 124] 
	sub	eax, 1657010568
	mov	dword ptr [rbp - 184], eax 
	je	.LBB9_8
	jmp	.LBB9_2
.LBB9_2:                                
	jmp	.LBB9_18
.LBB9_3:                                
	mov	eax, 3122290246
	mov	ecx, 251616792
	mov	dl, 1
	mov	sil, byte ptr [rbp - 82]
	mov	dil, byte ptr [rbp - 81]
	mov	r8b, sil
	xor	r8b, -1
	mov	r9b, dil
	xor	r9b, -1
	xor	dl, 1
	mov	r10b, r8b
	and	r10b, -1
	and	sil, dl
	mov	r11b, r9b
	and	r11b, -1
	and	dil, dl
	or	r10b, sil
	or	r11b, dil
	xor	r10b, r11b
	or	r8b, r9b
	xor	r8b, -1
	or	dl, 1
	and	r8b, dl
	or	r10b, r8b
	test	r10b, 1
	cmovne	eax, ecx
	mov	dword ptr [rbp - 88], eax
	jmp	.LBB9_18
.LBB9_4:                                
	mov	rax, rsp
	add	rax, -16
	mov	rsp, rax
	mov	rcx, rsp
	add	rcx, -16
	mov	rsp, rcx
	mov	qword ptr [rbp - 80], rcx
	mov	rcx, rsp
	add	rcx, -16
	mov	rsp, rcx
	mov	qword ptr [rbp - 72], rcx
	mov	rcx, rsp
	add	rcx, -16
	mov	rsp, rcx
	mov	qword ptr [rbp - 64], rcx
	mov	rcx, qword ptr [rbp - 112] 
	mov	qword ptr [rax], rcx
	mov	rdx, qword ptr [rbp - 80]
	mov	rsi, qword ptr [rbp - 104] 
	mov	qword ptr [rdx], rsi
	mov	rdx, qword ptr [rbp - 72]
	mov	rdi, qword ptr [rbp - 96] 
	mov	qword ptr [rdx], rdi
	mov	rdx, qword ptr [rbp - 64]
	mov	r8, qword ptr [rbp - 120] 
	mov	qword ptr [rdx], r8
	mov	rax, qword ptr [rax]
	mov	qword ptr [rbp - 56], rax
	mov	rax, qword ptr [rbp - 56]
	mov	rdx, qword ptr [rbp - 56]
	add	rdx, 8
	mov	rdi, rdx
	mov	qword ptr [rbp - 192], rax 
	call	_ZNKSt6vectorIjN5Botan16secure_allocatorIjEEE5emptyEv
	and	al, 1
	movzx	r9d, al
	cmp	r9d, 0
	sete	al
	and	al, 1
	movzx	esi, al
	mov	rdi, qword ptr [rbp - 192] 
	call	_ZNK5Botan18SymmetricAlgorithm14verify_key_setEb
	call	_ZN5Botan5CPUID10has_hw_aesEv
	mov	esi, 3122290246
	mov	r9d, 2269005728
	mov	r10b, 1
	and	al, 1
	mov	byte ptr [rbp - 41], al
	mov	r11d, dword ptr [x.24]
	mov	ebx, dword ptr [y.25]
	mov	r14d, r11d
	add	r14d, 1850443770
	sub	r14d, 1
	sub	r14d, 1850443770
	imul	r11d, r14d
	and	r11d, 1
	cmp	r11d, 0
	sete	al
	cmp	ebx, 10
	setl	r15b
	mov	r12b, al
	xor	r12b, -1
	mov	r13b, r15b
	xor	r13b, -1
	xor	r10b, 1
	mov	cl, r12b
	and	cl, -1
	and	al, r10b
	mov	dl, r13b
	and	dl, -1
	and	r15b, r10b
	or	cl, al
	or	dl, r15b
	xor	cl, dl
	or	r12b, r13b
	xor	r12b, -1
	or	r10b, 1
	and	r12b, r10b
	or	cl, r12b
	test	cl, 1
	cmovne	esi, r9d
	mov	dword ptr [rbp - 88], esi
	jmp	.LBB9_18
.LBB9_5:                                
	mov	eax, 2352702393
	mov	ecx, 1061534350
	mov	dl, byte ptr [rbp - 41]
	test	dl, 1
	cmovne	eax, ecx
	mov	dword ptr [rbp - 88], eax
	jmp	.LBB9_18
.LBB9_6:                                
	mov	rax, qword ptr [rbp - 80]
	mov	rsi, qword ptr [rax]
	mov	rax, qword ptr [rbp - 72]
	mov	rdx, qword ptr [rax]
	mov	rax, qword ptr [rbp - 64]
	mov	rcx, qword ptr [rax]
	mov	rdi, qword ptr [rbp - 56]
	call	_ZNK5Botan7AES_12816hw_aes_encrypt_nEPKhPhm
	mov	dword ptr [rbp - 88], 314430097
	jmp	.LBB9_18
.LBB9_7:                                
	call	_ZN5Botan5CPUID9has_vpermEv
	mov	ecx, 594228196
	mov	edx, 1657010568
	test	al, 1
	cmovne	ecx, edx
	mov	dword ptr [rbp - 88], ecx
	jmp	.LBB9_18
.LBB9_8:                                
	mov	eax, 3993290053
	mov	ecx, 3104442438
	mov	dl, 1
	xor	esi, esi
	mov	edi, dword ptr [x.24]
	mov	r8d, dword ptr [y.25]
	sub	esi, 1
	mov	r9d, edi
	add	r9d, esi
	imul	edi, r9d
	and	edi, 1
	cmp	edi, 0
	sete	r10b
	cmp	r8d, 10
	setl	r11b
	mov	bl, r10b
	xor	bl, -1
	mov	r14b, r11b
	xor	r14b, -1
	xor	dl, 1
	mov	r15b, bl
	and	r15b, -1
	and	r10b, dl
	mov	r12b, r14b
	and	r12b, -1
	and	r11b, dl
	or	r15b, r10b
	or	r12b, r11b
	xor	r15b, r12b
	or	bl, r14b
	xor	bl, -1
	or	dl, 1
	and	bl, dl
	or	r15b, bl
	test	r15b, 1
	cmovne	eax, ecx
	mov	dword ptr [rbp - 88], eax
	jmp	.LBB9_18
.LBB9_9:                                
	mov	rax, qword ptr [rbp - 80]
	mov	rsi, qword ptr [rax]
	mov	rax, qword ptr [rbp - 72]
	mov	rdx, qword ptr [rax]
	mov	rax, qword ptr [rbp - 64]
	mov	rcx, qword ptr [rax]
	mov	rdi, qword ptr [rbp - 56]
	call	_ZNK5Botan7AES_12815vperm_encrypt_nEPKhPhm
	mov	r8d, 3993290053
	mov	r9d, 2372396763
	xor	r10d, r10d
	mov	r11d, dword ptr [x.24]
	mov	ebx, dword ptr [y.25]
	sub	r10d, 1
	mov	r14d, r11d
	add	r14d, r10d
	imul	r11d, r14d
	and	r11d, 1
	cmp	r11d, 0
	sete	r15b
	cmp	ebx, 10
	setl	r12b
	mov	r13b, r15b
	and	r13b, r12b
	xor	r15b, r12b
	or	r13b, r15b
	test	r13b, 1
	cmovne	r8d, r9d
	mov	dword ptr [rbp - 88], r8d
	jmp	.LBB9_18
.LBB9_10:                               
	mov	dword ptr [rbp - 88], 314430097
	jmp	.LBB9_18
.LBB9_11:                               
	mov	eax, 3978537991
	mov	ecx, 3525667989
	mov	edx, dword ptr [x.24]
	mov	esi, dword ptr [y.25]
	mov	edi, edx
	add	edi, 1570687978
	sub	edi, 1
	sub	edi, 1570687978
	imul	edx, edi
	and	edx, 1
	cmp	edx, 0
	sete	r8b
	cmp	esi, 10
	setl	r9b
	mov	r10b, r8b
	and	r10b, r9b
	xor	r8b, r9b
	or	r10b, r8b
	test	r10b, 1
	cmovne	eax, ecx
	mov	dword ptr [rbp - 88], eax
	jmp	.LBB9_18
.LBB9_12:                               
	mov	rax, qword ptr [rbp - 80]
	mov	rdi, qword ptr [rax]
	mov	rax, qword ptr [rbp - 72]
	mov	rsi, qword ptr [rax]
	mov	rax, qword ptr [rbp - 64]
	mov	rdx, qword ptr [rax]
	mov	rax, qword ptr [rbp - 56]
	add	rax, 8
	mov	rcx, rax
	call	_ZN5Botan12_GLOBAL__N_113aes_encrypt_nEPKhPhmRKSt6vectorIjNS_16secure_allocatorIjEEE
	mov	r8d, 3978537991
	mov	r9d, 658484679
	mov	r10d, dword ptr [x.24]
	mov	r11d, dword ptr [y.25]
	mov	ebx, r10d
	add	ebx, -70636913
	sub	ebx, 1
	sub	ebx, -70636913
	imul	r10d, ebx
	and	r10d, 1
	cmp	r10d, 0
	sete	r14b
	cmp	r11d, 10
	setl	r15b
	mov	r12b, r14b
	and	r12b, r15b
	xor	r14b, r15b
	or	r12b, r14b
	test	r12b, 1
	cmovne	r8d, r9d
	mov	dword ptr [rbp - 88], r8d
	jmp	.LBB9_18
.LBB9_13:                               
	mov	dword ptr [rbp - 88], 314430097
	jmp	.LBB9_18
.LBB9_14:
	lea	rsp, [rbp - 40]
	pop	rbx
	pop	r12
	pop	r13
	pop	r14
	pop	r15
	pop	rbp
	ret
.LBB9_15:                               
	mov	rax, rsp
	add	rax, -16
	mov	rsp, rax
	mov	rcx, rsp
	add	rcx, -16
	mov	rsp, rcx
	mov	rdx, rsp
	add	rdx, -16
	mov	rsp, rdx
	mov	rsi, rsp
	add	rsi, -16
	mov	rsp, rsi
	mov	rdi, qword ptr [rbp - 112] 
	mov	qword ptr [rax], rdi
	mov	r8, qword ptr [rbp - 104] 
	mov	qword ptr [rcx], r8
	mov	rcx, qword ptr [rbp - 96] 
	mov	qword ptr [rdx], rcx
	mov	rdx, qword ptr [rbp - 120] 
	mov	qword ptr [rsi], rdx
	mov	rax, qword ptr [rax]
	mov	rsi, rax
	add	rax, 8
	mov	rdi, rax
	mov	qword ptr [rbp - 200], rsi 
	call	_ZNKSt6vectorIjN5Botan16secure_allocatorIjEEE5emptyEv
	and	al, 1
	movzx	r9d, al
	cmp	r9d, 0
	sete	al
	and	al, 1
	movzx	esi, al
	mov	rdi, qword ptr [rbp - 200] 
	call	_ZNK5Botan18SymmetricAlgorithm14verify_key_setEb
	call	_ZN5Botan5CPUID10has_hw_aesEv
	mov	dword ptr [rbp - 88], 251616792
	mov	byte ptr [rbp - 201], al 
	jmp	.LBB9_18
.LBB9_16:                               
	mov	rax, qword ptr [rbp - 80]
	mov	rsi, qword ptr [rax]
	mov	rax, qword ptr [rbp - 72]
	mov	rdx, qword ptr [rax]
	mov	rax, qword ptr [rbp - 64]
	mov	rcx, qword ptr [rax]
	mov	rdi, qword ptr [rbp - 56]
	call	_ZNK5Botan7AES_12815vperm_encrypt_nEPKhPhm
	mov	dword ptr [rbp - 88], -1190524858
	jmp	.LBB9_18
.LBB9_17:                               
	mov	rax, qword ptr [rbp - 80]
	mov	rdi, qword ptr [rax]
	mov	rax, qword ptr [rbp - 72]
	mov	rsi, qword ptr [rax]
	mov	rax, qword ptr [rbp - 64]
	mov	rdx, qword ptr [rax]
	mov	rax, qword ptr [rbp - 56]
	add	rax, 8
	mov	rcx, rax
	call	_ZN5Botan12_GLOBAL__N_113aes_encrypt_nEPKhPhmRKSt6vectorIjNS_16secure_allocatorIjEEE
	mov	dword ptr [rbp - 88], -769299307
.LBB9_18:                               
	jmp	.LBB9_1
.Lfunc_end9:
	.size	_ZNK5Botan7AES_1289encrypt_nEPKhPhm, .Lfunc_end9-_ZNK5Botan7AES_1289encrypt_nEPKhPhm
	.cfi_endproc

	.section	.text._ZNK5Botan18SymmetricAlgorithm14verify_key_setEb,"axG",@progbits,_ZNK5Botan18SymmetricAlgorithm14verify_key_setEb,comdat
	.weak	_ZNK5Botan18SymmetricAlgorithm14verify_key_setEb 
	.p2align	4, 0x90
	.type	_ZNK5Botan18SymmetricAlgorithm14verify_key_setEb,@function
_ZNK5Botan18SymmetricAlgorithm14verify_key_setEb: 
	.cfi_startproc

	push	rbp
.Lcfi44:
	.cfi_def_cfa_offset 16
.Lcfi45:
	.cfi_offset rbp, -16
	mov	rbp, rsp
.Lcfi46:
	.cfi_def_cfa_register rbp
	sub	rsp, 48
	mov	al, sil
	mov	qword ptr [rbp - 24], rdi
	and	al, 1
	mov	byte ptr [rbp - 25], al
	mov	rdi, qword ptr [rbp - 24]
	mov	qword ptr [rbp - 16], rdi
	mov	al, byte ptr [rbp - 25]
	and	al, 1
	movzx	esi, al
	mov	dword ptr [rbp - 4], esi
	mov	dword ptr [rbp - 32], -1030386112
.LBB10_1:                               
	mov	eax, dword ptr [rbp - 32]
	mov	ecx, eax
	sub	ecx, -1608174542
	mov	dword ptr [rbp - 36], eax 
	mov	dword ptr [rbp - 40], ecx 
	je	.LBB10_4
	jmp	.LBB10_7
.LBB10_7:                               
	mov	eax, dword ptr [rbp - 36] 
	sub	eax, -1030386112
	mov	dword ptr [rbp - 44], eax 
	je	.LBB10_3
	jmp	.LBB10_8
.LBB10_8:                               
	mov	eax, dword ptr [rbp - 36] 
	sub	eax, 1599777019
	mov	dword ptr [rbp - 48], eax 
	je	.LBB10_5
	jmp	.LBB10_2
.LBB10_2:                               
	jmp	.LBB10_6
.LBB10_3:                               
	mov	eax, 1599777019
	mov	ecx, 2686792754
	mov	edx, dword ptr [rbp - 4]
	cmp	edx, 0
	cmove	eax, ecx
	mov	dword ptr [rbp - 32], eax
	jmp	.LBB10_6
.LBB10_4:                               
	mov	rdi, qword ptr [rbp - 16]
	call	_ZNK5Botan18SymmetricAlgorithm23throw_key_not_set_errorEv
	mov	dword ptr [rbp - 32], 1599777019
	jmp	.LBB10_6
.LBB10_5:
	add	rsp, 48
	pop	rbp
	ret
.LBB10_6:                               
	jmp	.LBB10_1
.Lfunc_end10:
	.size	_ZNK5Botan18SymmetricAlgorithm14verify_key_setEb, .Lfunc_end10-_ZNK5Botan18SymmetricAlgorithm14verify_key_setEb
	.cfi_endproc

	.section	.text._ZNKSt6vectorIjN5Botan16secure_allocatorIjEEE5emptyEv,"axG",@progbits,_ZNKSt6vectorIjN5Botan16secure_allocatorIjEEE5emptyEv,comdat
	.weak	_ZNKSt6vectorIjN5Botan16secure_allocatorIjEEE5emptyEv 
	.p2align	4, 0x90
	.type	_ZNKSt6vectorIjN5Botan16secure_allocatorIjEEE5emptyEv,@function
_ZNKSt6vectorIjN5Botan16secure_allocatorIjEEE5emptyEv: 

	push	rbp
	mov	rbp, rsp
	sub	rsp, 32
	mov	qword ptr [rbp - 8], rdi
	mov	rdi, qword ptr [rbp - 8]
	mov	qword ptr [rbp - 32], rdi 
	call	_ZNKSt6vectorIjN5Botan16secure_allocatorIjEEE5beginEv
	mov	qword ptr [rbp - 16], rax
	mov	rdi, qword ptr [rbp - 32] 
	call	_ZNKSt6vectorIjN5Botan16secure_allocatorIjEEE3endEv
	lea	rdi, [rbp - 16]
	lea	rsi, [rbp - 24]
	mov	qword ptr [rbp - 24], rax
	call	_ZN9__gnu_cxxeqIPKjSt6vectorIjN5Botan16secure_allocatorIjEEEEEbRKNS_17__normal_iteratorIT_T0_EESD_
	and	al, 1
	movzx	eax, al
	add	rsp, 32
	pop	rbp
	ret
.Lfunc_end11:
	.size	_ZNKSt6vectorIjN5Botan16secure_allocatorIjEEE5emptyEv, .Lfunc_end11-_ZNKSt6vectorIjN5Botan16secure_allocatorIjEEE5emptyEv

	.section	.text._ZN5Botan5CPUID10has_hw_aesEv,"axG",@progbits,_ZN5Botan5CPUID10has_hw_aesEv,comdat
	.weak	_ZN5Botan5CPUID10has_hw_aesEv 
	.p2align	4, 0x90
	.type	_ZN5Botan5CPUID10has_hw_aesEv,@function
_ZN5Botan5CPUID10has_hw_aesEv:          
	.cfi_startproc

	push	rbp
.Lcfi47:
	.cfi_def_cfa_offset 16
.Lcfi48:
	.cfi_offset rbp, -16
	mov	rbp, rsp
.Lcfi49:
	.cfi_def_cfa_register rbp
	call	_ZN5Botan5CPUID10has_aes_niEv
	and	al, 1
	movzx	eax, al
	pop	rbp
	ret
.Lfunc_end12:
	.size	_ZN5Botan5CPUID10has_hw_aesEv, .Lfunc_end12-_ZN5Botan5CPUID10has_hw_aesEv
	.cfi_endproc

	.section	.text._ZN5Botan5CPUID9has_vpermEv,"axG",@progbits,_ZN5Botan5CPUID9has_vpermEv,comdat
	.weak	_ZN5Botan5CPUID9has_vpermEv 
	.p2align	4, 0x90
	.type	_ZN5Botan5CPUID9has_vpermEv,@function
_ZN5Botan5CPUID9has_vpermEv:            
	.cfi_startproc

	push	rbp
.Lcfi50:
	.cfi_def_cfa_offset 16
.Lcfi51:
	.cfi_offset rbp, -16
	mov	rbp, rsp
.Lcfi52:
	.cfi_def_cfa_register rbp
	push	r15
	push	r14
	push	rbx
	sub	rsp, 40
.Lcfi53:
	.cfi_offset rbx, -40
.Lcfi54:
	.cfi_offset r14, -32
.Lcfi55:
	.cfi_offset r15, -24
	mov	eax, dword ptr [x.32]
	mov	ecx, dword ptr [y.33]
	mov	edx, eax
	sub	edx, -1938442201
	sub	edx, 1
	add	edx, -1938442201
	imul	eax, edx
	and	eax, 1
	cmp	eax, 0
	sete	sil
	and	sil, 1
	mov	byte ptr [rbp - 27], sil
	cmp	ecx, 10
	setl	sil
	and	sil, 1
	mov	byte ptr [rbp - 26], sil
	mov	dword ptr [rbp - 32], -913289796
.LBB13_1:                               
	mov	eax, dword ptr [rbp - 32]
	mov	ecx, eax
	sub	ecx, -926937455
	mov	dword ptr [rbp - 36], eax 
	mov	dword ptr [rbp - 40], ecx 
	je	.LBB13_4
	jmp	.LBB13_8
.LBB13_8:                               
	mov	eax, dword ptr [rbp - 36] 
	sub	eax, -913289796
	mov	dword ptr [rbp - 44], eax 
	je	.LBB13_3
	jmp	.LBB13_9
.LBB13_9:                               
	mov	eax, dword ptr [rbp - 36] 
	sub	eax, 1254770592
	mov	dword ptr [rbp - 48], eax 
	je	.LBB13_6
	jmp	.LBB13_10
.LBB13_10:                              
	mov	eax, dword ptr [rbp - 36] 
	sub	eax, 2029430093
	mov	dword ptr [rbp - 52], eax 
	je	.LBB13_5
	jmp	.LBB13_2
.LBB13_2:                               
	jmp	.LBB13_7
.LBB13_3:                               
	mov	eax, 1254770592
	mov	ecx, 3368029841
	mov	dl, 1
	mov	sil, byte ptr [rbp - 27]
	mov	dil, byte ptr [rbp - 26]
	mov	r8b, sil
	xor	r8b, -1
	mov	r9b, dil
	xor	r9b, -1
	xor	dl, 0
	mov	r10b, r8b
	and	r10b, 0
	and	sil, dl
	mov	r11b, r9b
	and	r11b, 0
	and	dil, dl
	or	r10b, sil
	or	r11b, dil
	xor	r10b, r11b
	or	r8b, r9b
	xor	r8b, -1
	or	dl, 0
	and	r8b, dl
	or	r10b, r8b
	test	r10b, 1
	cmovne	eax, ecx
	mov	dword ptr [rbp - 32], eax
	jmp	.LBB13_7
.LBB13_4:                               
	call	_ZN5Botan5CPUID9has_ssse3Ev
	mov	ecx, 1254770592
	mov	edx, 2029430093
	mov	sil, 1
	and	al, 1
	mov	byte ptr [rbp - 25], al
	mov	edi, dword ptr [x.32]
	mov	r8d, dword ptr [y.33]
	mov	r9d, edi
	sub	r9d, 158881420
	sub	r9d, 1
	add	r9d, 158881420
	imul	edi, r9d
	and	edi, 1
	cmp	edi, 0
	sete	al
	cmp	r8d, 10
	setl	r10b
	mov	r11b, al
	xor	r11b, -1
	mov	bl, r10b
	xor	bl, -1
	xor	sil, 1
	mov	r14b, r11b
	and	r14b, -1
	and	al, sil
	mov	r15b, bl
	and	r15b, -1
	and	r10b, sil
	or	r14b, al
	or	r15b, r10b
	xor	r14b, r15b
	or	r11b, bl
	xor	r11b, -1
	or	sil, 1
	and	r11b, sil
	or	r14b, r11b
	test	r14b, 1
	cmovne	ecx, edx
	mov	dword ptr [rbp - 32], ecx
	jmp	.LBB13_7
.LBB13_5:
	mov	al, byte ptr [rbp - 25]
	and	al, 1
	movzx	eax, al
	add	rsp, 40
	pop	rbx
	pop	r14
	pop	r15
	pop	rbp
	ret
.LBB13_6:                               
	call	_ZN5Botan5CPUID9has_ssse3Ev
	mov	dword ptr [rbp - 32], -926937455
	mov	byte ptr [rbp - 53], al 
.LBB13_7:                               
	jmp	.LBB13_1
.Lfunc_end13:
	.size	_ZN5Botan5CPUID9has_vpermEv, .Lfunc_end13-_ZN5Botan5CPUID9has_vpermEv
	.cfi_endproc

	.text
	.p2align	4, 0x90         
	.type	_ZN5Botan12_GLOBAL__N_113aes_encrypt_nEPKhPhmRKSt6vectorIjNS_16secure_allocatorIjEEE,@function
_ZN5Botan12_GLOBAL__N_113aes_encrypt_nEPKhPhmRKSt6vectorIjNS_16secure_allocatorIjEEE: 
	.cfi_startproc

	push	rbp
.Lcfi56:
	.cfi_def_cfa_offset 16
.Lcfi57:
	.cfi_offset rbp, -16
	mov	rbp, rsp
.Lcfi58:
	.cfi_def_cfa_register rbp
	push	r15
	push	r14
	push	r13
	push	r12
	push	rbx
	sub	rsp, 856
.Lcfi59:
	.cfi_offset rbx, -56
.Lcfi60:
	.cfi_offset r12, -48
.Lcfi61:
	.cfi_offset r13, -40
.Lcfi62:
	.cfi_offset r14, -32
.Lcfi63:
	.cfi_offset r15, -24
	mov	qword ptr [rbp - 56], rdi
	mov	qword ptr [rbp - 64], rsi
	mov	qword ptr [rbp - 72], rdx
	mov	qword ptr [rbp - 80], rcx
	mov	dword ptr [rbp - 612], -1340502237
.LBB14_1:                               
	mov	eax, dword ptr [rbp - 612]
	mov	ecx, eax
	sub	ecx, -2138985245
	mov	dword ptr [rbp - 616], eax 
	mov	dword ptr [rbp - 620], ecx 
	je	.LBB14_7
	jmp	.LBB14_63
.LBB14_63:                              
	mov	eax, dword ptr [rbp - 616] 
	sub	eax, -1937739808
	mov	dword ptr [rbp - 624], eax 
	je	.LBB14_52
	jmp	.LBB14_64
.LBB14_64:                              
	mov	eax, dword ptr [rbp - 616] 
	sub	eax, -1937347704
	mov	dword ptr [rbp - 628], eax 
	je	.LBB14_26
	jmp	.LBB14_65
.LBB14_65:                              
	mov	eax, dword ptr [rbp - 616] 
	sub	eax, -1878067363
	mov	dword ptr [rbp - 632], eax 
	je	.LBB14_46
	jmp	.LBB14_66
.LBB14_66:                              
	mov	eax, dword ptr [rbp - 616] 
	sub	eax, -1833012544
	mov	dword ptr [rbp - 636], eax 
	je	.LBB14_45
	jmp	.LBB14_67
.LBB14_67:                              
	mov	eax, dword ptr [rbp - 616] 
	sub	eax, -1374629661
	mov	dword ptr [rbp - 640], eax 
	je	.LBB14_38
	jmp	.LBB14_68
.LBB14_68:                              
	mov	eax, dword ptr [rbp - 616] 
	sub	eax, -1369985643
	mov	dword ptr [rbp - 644], eax 
	je	.LBB14_39
	jmp	.LBB14_69
.LBB14_69:                              
	mov	eax, dword ptr [rbp - 616] 
	sub	eax, -1361201275
	mov	dword ptr [rbp - 648], eax 
	je	.LBB14_19
	jmp	.LBB14_70
.LBB14_70:                              
	mov	eax, dword ptr [rbp - 616] 
	sub	eax, -1340502237
	mov	dword ptr [rbp - 652], eax 
	je	.LBB14_3
	jmp	.LBB14_71
.LBB14_71:                              
	mov	eax, dword ptr [rbp - 616] 
	sub	eax, -1283402474
	mov	dword ptr [rbp - 656], eax 
	je	.LBB14_5
	jmp	.LBB14_72
.LBB14_72:                              
	mov	eax, dword ptr [rbp - 616] 
	sub	eax, -1156839408
	mov	dword ptr [rbp - 660], eax 
	je	.LBB14_57
	jmp	.LBB14_73
.LBB14_73:                              
	mov	eax, dword ptr [rbp - 616] 
	sub	eax, -1091762470
	mov	dword ptr [rbp - 664], eax 
	je	.LBB14_10
	jmp	.LBB14_74
.LBB14_74:                              
	mov	eax, dword ptr [rbp - 616] 
	sub	eax, -975828677
	mov	dword ptr [rbp - 668], eax 
	je	.LBB14_8
	jmp	.LBB14_75
.LBB14_75:                              
	mov	eax, dword ptr [rbp - 616] 
	sub	eax, -907827335
	mov	dword ptr [rbp - 672], eax 
	je	.LBB14_9
	jmp	.LBB14_76
.LBB14_76:                              
	mov	eax, dword ptr [rbp - 616] 
	sub	eax, -863343852
	mov	dword ptr [rbp - 676], eax 
	je	.LBB14_25
	jmp	.LBB14_77
.LBB14_77:                              
	mov	eax, dword ptr [rbp - 616] 
	sub	eax, -820208027
	mov	dword ptr [rbp - 680], eax 
	je	.LBB14_35
	jmp	.LBB14_78
.LBB14_78:                              
	mov	eax, dword ptr [rbp - 616] 
	sub	eax, -777956685
	mov	dword ptr [rbp - 684], eax 
	je	.LBB14_28
	jmp	.LBB14_79
.LBB14_79:                              
	mov	eax, dword ptr [rbp - 616] 
	sub	eax, -698149631
	mov	dword ptr [rbp - 688], eax 
	je	.LBB14_17
	jmp	.LBB14_80
.LBB14_80:                              
	mov	eax, dword ptr [rbp - 616] 
	sub	eax, -665713814
	mov	dword ptr [rbp - 692], eax 
	je	.LBB14_6
	jmp	.LBB14_81
.LBB14_81:                              
	mov	eax, dword ptr [rbp - 616] 
	sub	eax, -653678543
	mov	dword ptr [rbp - 696], eax 
	je	.LBB14_12
	jmp	.LBB14_82
.LBB14_82:                              
	mov	eax, dword ptr [rbp - 616] 
	sub	eax, -567457505
	mov	dword ptr [rbp - 700], eax 
	je	.LBB14_29
	jmp	.LBB14_83
.LBB14_83:                              
	mov	eax, dword ptr [rbp - 616] 
	sub	eax, -525737859
	mov	dword ptr [rbp - 704], eax 
	je	.LBB14_16
	jmp	.LBB14_84
.LBB14_84:                              
	mov	eax, dword ptr [rbp - 616] 
	sub	eax, -479722702
	mov	dword ptr [rbp - 708], eax 
	je	.LBB14_59
	jmp	.LBB14_85
.LBB14_85:                              
	mov	eax, dword ptr [rbp - 616] 
	sub	eax, -443164326
	mov	dword ptr [rbp - 712], eax 
	je	.LBB14_33
	jmp	.LBB14_86
.LBB14_86:                              
	mov	eax, dword ptr [rbp - 616] 
	sub	eax, -383708598
	mov	dword ptr [rbp - 716], eax 
	je	.LBB14_4
	jmp	.LBB14_87
.LBB14_87:                              
	mov	eax, dword ptr [rbp - 616] 
	sub	eax, -241344621
	mov	dword ptr [rbp - 720], eax 
	je	.LBB14_60
	jmp	.LBB14_88
.LBB14_88:                              
	mov	eax, dword ptr [rbp - 616] 
	sub	eax, -160125354
	mov	dword ptr [rbp - 724], eax 
	je	.LBB14_53
	jmp	.LBB14_89
.LBB14_89:                              
	mov	eax, dword ptr [rbp - 616] 
	sub	eax, -128919285
	mov	dword ptr [rbp - 728], eax 
	je	.LBB14_11
	jmp	.LBB14_90
.LBB14_90:                              
	mov	eax, dword ptr [rbp - 616] 
	sub	eax, -108786707
	mov	dword ptr [rbp - 732], eax 
	je	.LBB14_58
	jmp	.LBB14_91
.LBB14_91:                              
	mov	eax, dword ptr [rbp - 616] 
	sub	eax, -82230070
	mov	dword ptr [rbp - 736], eax 
	je	.LBB14_37
	jmp	.LBB14_92
.LBB14_92:                              
	mov	eax, dword ptr [rbp - 616] 
	sub	eax, 90300682
	mov	dword ptr [rbp - 740], eax 
	je	.LBB14_44
	jmp	.LBB14_93
.LBB14_93:                              
	mov	eax, dword ptr [rbp - 616] 
	sub	eax, 237353308
	mov	dword ptr [rbp - 744], eax 
	je	.LBB14_51
	jmp	.LBB14_94
.LBB14_94:                              
	mov	eax, dword ptr [rbp - 616] 
	sub	eax, 283528709
	mov	dword ptr [rbp - 748], eax 
	je	.LBB14_23
	jmp	.LBB14_95
.LBB14_95:                              
	mov	eax, dword ptr [rbp - 616] 
	sub	eax, 303262834
	mov	dword ptr [rbp - 752], eax 
	je	.LBB14_21
	jmp	.LBB14_96
.LBB14_96:                              
	mov	eax, dword ptr [rbp - 616] 
	sub	eax, 378207674
	mov	dword ptr [rbp - 756], eax 
	je	.LBB14_22
	jmp	.LBB14_97
.LBB14_97:                              
	mov	eax, dword ptr [rbp - 616] 
	sub	eax, 419791829
	mov	dword ptr [rbp - 760], eax 
	je	.LBB14_48
	jmp	.LBB14_98
.LBB14_98:                              
	mov	eax, dword ptr [rbp - 616] 
	sub	eax, 495424114
	mov	dword ptr [rbp - 764], eax 
	je	.LBB14_40
	jmp	.LBB14_99
.LBB14_99:                              
	mov	eax, dword ptr [rbp - 616] 
	sub	eax, 636342971
	mov	dword ptr [rbp - 768], eax 
	je	.LBB14_61
	jmp	.LBB14_100
.LBB14_100:                             
	mov	eax, dword ptr [rbp - 616] 
	sub	eax, 898358935
	mov	dword ptr [rbp - 772], eax 
	je	.LBB14_32
	jmp	.LBB14_101
.LBB14_101:                             
	mov	eax, dword ptr [rbp - 616] 
	sub	eax, 930969786
	mov	dword ptr [rbp - 776], eax 
	je	.LBB14_43
	jmp	.LBB14_102
.LBB14_102:                             
	mov	eax, dword ptr [rbp - 616] 
	sub	eax, 1103510585
	mov	dword ptr [rbp - 780], eax 
	je	.LBB14_20
	jmp	.LBB14_103
.LBB14_103:                             
	mov	eax, dword ptr [rbp - 616] 
	sub	eax, 1213874859
	mov	dword ptr [rbp - 784], eax 
	je	.LBB14_30
	jmp	.LBB14_104
.LBB14_104:                             
	mov	eax, dword ptr [rbp - 616] 
	sub	eax, 1306343746
	mov	dword ptr [rbp - 788], eax 
	je	.LBB14_42
	jmp	.LBB14_105
.LBB14_105:                             
	mov	eax, dword ptr [rbp - 616] 
	sub	eax, 1320089013
	mov	dword ptr [rbp - 792], eax 
	je	.LBB14_50
	jmp	.LBB14_106
.LBB14_106:                             
	mov	eax, dword ptr [rbp - 616] 
	sub	eax, 1377570255
	mov	dword ptr [rbp - 796], eax 
	je	.LBB14_13
	jmp	.LBB14_107
.LBB14_107:                             
	mov	eax, dword ptr [rbp - 616] 
	sub	eax, 1473846584
	mov	dword ptr [rbp - 800], eax 
	je	.LBB14_31
	jmp	.LBB14_108
.LBB14_108:                             
	mov	eax, dword ptr [rbp - 616] 
	sub	eax, 1476691067
	mov	dword ptr [rbp - 804], eax 
	je	.LBB14_34
	jmp	.LBB14_109
.LBB14_109:                             
	mov	eax, dword ptr [rbp - 616] 
	sub	eax, 1555161604
	mov	dword ptr [rbp - 808], eax 
	je	.LBB14_36
	jmp	.LBB14_110
.LBB14_110:                             
	mov	eax, dword ptr [rbp - 616] 
	sub	eax, 1570583184
	mov	dword ptr [rbp - 812], eax 
	je	.LBB14_41
	jmp	.LBB14_111
.LBB14_111:                             
	mov	eax, dword ptr [rbp - 616] 
	sub	eax, 1578142008
	mov	dword ptr [rbp - 816], eax 
	je	.LBB14_56
	jmp	.LBB14_112
.LBB14_112:                             
	mov	eax, dword ptr [rbp - 616] 
	sub	eax, 1659718487
	mov	dword ptr [rbp - 820], eax 
	je	.LBB14_27
	jmp	.LBB14_113
.LBB14_113:                             
	mov	eax, dword ptr [rbp - 616] 
	sub	eax, 1754476665
	mov	dword ptr [rbp - 824], eax 
	je	.LBB14_55
	jmp	.LBB14_114
.LBB14_114:                             
	mov	eax, dword ptr [rbp - 616] 
	sub	eax, 1801008013
	mov	dword ptr [rbp - 828], eax 
	je	.LBB14_14
	jmp	.LBB14_115
.LBB14_115:                             
	mov	eax, dword ptr [rbp - 616] 
	sub	eax, 1838360561
	mov	dword ptr [rbp - 832], eax 
	je	.LBB14_18
	jmp	.LBB14_116
.LBB14_116:                             
	mov	eax, dword ptr [rbp - 616] 
	sub	eax, 1937042986
	mov	dword ptr [rbp - 836], eax 
	je	.LBB14_54
	jmp	.LBB14_117
.LBB14_117:                             
	mov	eax, dword ptr [rbp - 616] 
	sub	eax, 1938294587
	mov	dword ptr [rbp - 840], eax 
	je	.LBB14_15
	jmp	.LBB14_118
.LBB14_118:                             
	mov	eax, dword ptr [rbp - 616] 
	sub	eax, 1973214674
	mov	dword ptr [rbp - 844], eax 
	je	.LBB14_49
	jmp	.LBB14_119
.LBB14_119:                             
	mov	eax, dword ptr [rbp - 616] 
	sub	eax, 2095357098
	mov	dword ptr [rbp - 848], eax 
	je	.LBB14_47
	jmp	.LBB14_120
.LBB14_120:                             
	mov	eax, dword ptr [rbp - 616] 
	sub	eax, 2111823873
	mov	dword ptr [rbp - 852], eax 
	je	.LBB14_24
	jmp	.LBB14_2
.LBB14_2:                               
	jmp	.LBB14_62
.LBB14_3:                               
	mov	rdi, qword ptr [rbp - 80]
	call	_ZNKSt6vectorIjN5Botan16secure_allocatorIjEEE4sizeEv
	mov	ecx, 3911258698
	mov	edx, 2155982051
	cmp	rax, 44
	cmove	ecx, edx
	mov	dword ptr [rbp - 612], ecx
	jmp	.LBB14_62
.LBB14_4:                               
	mov	rdi, qword ptr [rbp - 80]
	call	_ZNKSt6vectorIjN5Botan16secure_allocatorIjEEE4sizeEv
	mov	ecx, 3011564822
	mov	edx, 2155982051
	cmp	rax, 52
	cmove	ecx, edx
	mov	dword ptr [rbp - 612], ecx
	jmp	.LBB14_62
.LBB14_5:                               
	mov	rdi, qword ptr [rbp - 80]
	call	_ZNKSt6vectorIjN5Botan16secure_allocatorIjEEE4sizeEv
	mov	ecx, 3629253482
	mov	edx, 2155982051
	cmp	rax, 60
	cmove	ecx, edx
	mov	dword ptr [rbp - 612], ecx
	jmp	.LBB14_62
.LBB14_6:
	movabs	rdi, .L.str.3
	movabs	rsi, .L.str.4
	movabs	rdx, .L__func__._ZN5Botan12_GLOBAL__N_113aes_encrypt_nEPKhPhmRKSt6vectorIjNS_16secure_allocatorIjEEE
	movabs	rcx, .L.str.5
	mov	r8d, 520
	call	_ZN5Botan17assertion_failureEPKcS1_S1_S1_i
.LBB14_7:                               
	mov	eax, 2357227488
	mov	ecx, 3319138619
	mov	edx, dword ptr [x.34]
	mov	esi, dword ptr [y.35]
	mov	edi, edx
	sub	edi, -999915034
	sub	edi, 1
	add	edi, -999915034
	imul	edx, edi
	and	edx, 1
	cmp	edx, 0
	sete	r8b
	cmp	esi, 10
	setl	r9b
	mov	r10b, r8b
	and	r10b, r9b
	xor	r8b, r9b
	or	r10b, r8b
	test	r10b, 1
	cmovne	eax, ecx
	mov	dword ptr [rbp - 612], eax
	jmp	.LBB14_62
.LBB14_8:                               
	mov	eax, 2357227488
	mov	ecx, 3387139961
	mov	dl, 1
	mov	esi, dword ptr [x.34]
	mov	edi, dword ptr [y.35]
	mov	r8d, esi
	sub	r8d, 2094251642
	sub	r8d, 1
	add	r8d, 2094251642
	imul	esi, r8d
	and	esi, 1
	cmp	esi, 0
	sete	r9b
	cmp	edi, 10
	setl	r10b
	mov	r11b, r9b
	xor	r11b, -1
	mov	bl, r10b
	xor	bl, -1
	xor	dl, 0
	mov	r14b, r11b
	and	r14b, 0
	and	r9b, dl
	mov	r15b, bl
	and	r15b, 0
	and	r10b, dl
	or	r14b, r9b
	or	r15b, r10b
	xor	r14b, r15b
	or	r11b, bl
	xor	r11b, -1
	or	dl, 0
	and	r11b, dl
	or	r14b, r11b
	test	r14b, 1
	cmovne	eax, ecx
	mov	dword ptr [rbp - 612], eax
	jmp	.LBB14_62
.LBB14_9:                               
	mov	dword ptr [rbp - 612], -1091762470
	jmp	.LBB14_62
.LBB14_10:                              
	mov	eax, 4134841942
	mov	ecx, 4166048011
	xor	edx, edx
	mov	esi, dword ptr [x.34]
	mov	edi, dword ptr [y.35]
	sub	edx, 1
	mov	r8d, esi
	add	r8d, edx
	imul	esi, r8d
	and	esi, 1
	cmp	esi, 0
	sete	r9b
	cmp	edi, 10
	setl	r10b
	mov	r11b, r9b
	and	r11b, r10b
	xor	r9b, r10b
	or	r11b, r9b
	test	r11b, 1
	cmovne	eax, ecx
	mov	dword ptr [rbp - 612], eax
	jmp	.LBB14_62
.LBB14_11:                              
	mov	rdi, qword ptr [rbp - 80]
	call	_ZNKSt6vectorIjN5Botan16secure_allocatorIjEEE4sizeEv
	mov	ecx, 4134841942
	mov	edx, 3641288753
	mov	sil, 1
	xor	r8d, r8d
	mov	r9d, 416
	mov	edi, r9d
	lea	r10, [rbp - 512]
	xor	r9d, r9d
	mov	r11d, r9d
	sub	r11, 4
	add	rax, r11
	shr	rax, 2
	mov	qword ptr [rbp - 88], rax
	mov	qword ptr [rbp - 864], rdi 
	mov	rdi, r10
	mov	byte ptr [rbp - 865], sil 
	mov	esi, r8d
	mov	rax, qword ptr [rbp - 864] 
	mov	dword ptr [rbp - 872], edx 
	mov	rdx, rax
	mov	dword ptr [rbp - 876], r8d 
	mov	dword ptr [rbp - 880], ecx 
	call	memset
	mov	qword ptr [rbp - 520], 0
	mov	ecx, dword ptr [x.34]
	mov	esi, dword ptr [y.35]
	mov	r8d, dword ptr [rbp - 876] 
	sub	r8d, 1
	mov	r9d, ecx
	add	r9d, r8d
	imul	ecx, r9d
	and	ecx, 1
	cmp	ecx, 0
	sete	bl
	cmp	esi, 10
	setl	r14b
	mov	r15b, bl
	xor	r15b, -1
	mov	r12b, r14b
	xor	r12b, -1
	mov	r13b, byte ptr [rbp - 865] 
	xor	r13b, 0
	mov	al, r15b
	and	al, 0
	and	bl, r13b
	mov	cl, r12b
	and	cl, 0
	and	r14b, r13b
	or	al, bl
	or	cl, r14b
	xor	al, cl
	or	r15b, r12b
	xor	r15b, -1
	or	r13b, 0
	and	r15b, r13b
	or	al, r15b
	test	al, 1
	mov	esi, dword ptr [rbp - 880] 
	mov	r8d, dword ptr [rbp - 872] 
	cmovne	esi, r8d
	mov	dword ptr [rbp - 612], esi
	jmp	.LBB14_62
.LBB14_12:                              
	mov	dword ptr [rbp - 612], 1377570255
	jmp	.LBB14_62
.LBB14_13:                              
	mov	eax, 1937042986
	mov	ecx, 1801008013
	mov	dl, 1
	xor	esi, esi
	mov	edi, dword ptr [x.34]
	mov	r8d, dword ptr [y.35]
	sub	esi, 1
	mov	r9d, edi
	add	r9d, esi
	imul	edi, r9d
	and	edi, 1
	cmp	edi, 0
	sete	r10b
	cmp	r8d, 10
	setl	r11b
	mov	bl, r10b
	xor	bl, -1
	mov	r14b, r11b
	xor	r14b, -1
	xor	dl, 1
	mov	r15b, bl
	and	r15b, -1
	and	r10b, dl
	mov	r12b, r14b
	and	r12b, -1
	and	r11b, dl
	or	r15b, r10b
	or	r12b, r11b
	xor	r15b, r12b
	or	bl, r14b
	xor	bl, -1
	or	dl, 1
	and	bl, dl
	or	r15b, bl
	test	r15b, 1
	cmovne	eax, ecx
	mov	dword ptr [rbp - 612], eax
	jmp	.LBB14_62
.LBB14_14:                              
	mov	eax, 1937042986
	mov	ecx, 1938294587
	mov	dl, 1
	movabs	rsi, 7515784427065269634
	mov	rdi, qword ptr [rbp - 520]
	mov	r8, qword ptr [rbp - 88]
	sub	r8, rsi
	sub	r8, 1
	add	r8, rsi
	cmp	rdi, r8
	setb	r9b
	and	r9b, 1
	mov	byte ptr [rbp - 42], r9b
	mov	r10d, dword ptr [x.34]
	mov	r11d, dword ptr [y.35]
	mov	ebx, r10d
	sub	ebx, -1384927984
	sub	ebx, 1
	add	ebx, -1384927984
	imul	r10d, ebx
	and	r10d, 1
	cmp	r10d, 0
	sete	r9b
	cmp	r11d, 10
	setl	r14b
	mov	r15b, r9b
	xor	r15b, -1
	mov	r12b, r14b
	xor	r12b, -1
	xor	dl, 0
	mov	r13b, r15b
	and	r13b, 0
	and	r9b, dl
	mov	sil, r12b
	and	sil, 0
	and	r14b, dl
	or	r13b, r9b
	or	sil, r14b
	xor	r13b, sil
	or	r15b, r12b
	xor	r15b, -1
	or	dl, 0
	and	r15b, dl
	or	r13b, r15b
	test	r13b, 1
	cmovne	eax, ecx
	mov	dword ptr [rbp - 612], eax
	jmp	.LBB14_62
.LBB14_15:                              
	mov	eax, 1103510585
	mov	ecx, 3769229437
	mov	dl, byte ptr [rbp - 42]
	test	dl, 1
	cmovne	eax, ecx
	mov	dword ptr [rbp - 612], eax
	jmp	.LBB14_62
.LBB14_16:                              
	lea	rax, [rbp - 512]
	mov	rcx, qword ptr [rbp - 520]
	shl	rcx, 3
	shl	rcx, 2
	add	rax, rcx
	mov	rdi, qword ptr [rbp - 80]
	mov	qword ptr [rbp - 888], rax 
	call	_ZNKSt6vectorIjN5Botan16secure_allocatorIjEEE4dataEv
	xor	edx, edx
	mov	ecx, edx
	mov	rdi, qword ptr [rbp - 520]
	shl	rdi, 2
	mov	rsi, rcx
	sub	rsi, rdi
	mov	rdi, rcx
	sub	rdi, 4
	add	rsi, rdi
	sub	rcx, rsi
	mov	rdi, qword ptr [rbp - 888] 
	mov	rsi, rax
	mov	rdx, rcx
	call	_ZN5Botan12_GLOBAL__N_19ks_expandEPjPKjm
	mov	dword ptr [rbp - 612], -698149631
	jmp	.LBB14_62
.LBB14_17:                              
	mov	eax, 1754476665
	mov	ecx, 1838360561
	mov	dl, 1
	mov	esi, dword ptr [x.34]
	mov	edi, dword ptr [y.35]
	mov	r8d, esi
	add	r8d, 876185719
	sub	r8d, 1
	sub	r8d, 876185719
	imul	esi, r8d
	and	esi, 1
	cmp	esi, 0
	sete	r9b
	cmp	edi, 10
	setl	r10b
	mov	r11b, r9b
	xor	r11b, -1
	mov	bl, r10b
	xor	bl, -1
	xor	dl, 1
	mov	r14b, r11b
	and	r14b, -1
	and	r9b, dl
	mov	r15b, bl
	and	r15b, -1
	and	r10b, dl
	or	r14b, r9b
	or	r15b, r10b
	xor	r14b, r15b
	or	r11b, bl
	xor	r11b, -1
	or	dl, 1
	and	r11b, dl
	or	r14b, r11b
	test	r14b, 1
	cmovne	eax, ecx
	mov	dword ptr [rbp - 612], eax
	jmp	.LBB14_62
.LBB14_18:                              
	mov	eax, 1754476665
	mov	ecx, 2933766021
	mov	dl, 1
	xor	esi, esi
	movabs	rdi, -7228355715173453122
	mov	r8, qword ptr [rbp - 520]
	sub	r8, rdi
	add	r8, 1
	add	r8, rdi
	mov	qword ptr [rbp - 520], r8
	mov	r9d, dword ptr [x.34]
	mov	r10d, dword ptr [y.35]
	sub	esi, 1
	mov	r11d, r9d
	add	r11d, esi
	imul	r9d, r11d
	and	r9d, 1
	cmp	r9d, 0
	sete	bl
	cmp	r10d, 10
	setl	r14b
	mov	r15b, bl
	xor	r15b, -1
	mov	r12b, r14b
	xor	r12b, -1
	xor	dl, 1
	mov	r13b, r15b
	and	r13b, -1
	and	bl, dl
	mov	sil, r12b
	and	sil, -1
	and	r14b, dl
	or	r13b, bl
	or	sil, r14b
	xor	r13b, sil
	or	r15b, r12b
	xor	r15b, -1
	or	dl, 1
	and	r15b, dl
	or	r13b, r15b
	test	r13b, 1
	cmovne	eax, ecx
	mov	dword ptr [rbp - 612], eax
	jmp	.LBB14_62
.LBB14_19:                              
	mov	dword ptr [rbp - 612], 1377570255
	jmp	.LBB14_62
.LBB14_20:                              
	mov	qword ptr [rbp - 528], 16
	mov	qword ptr [rbp - 536], 2
	mov	dword ptr [rbp - 612], 303262834
	jmp	.LBB14_62
.LBB14_21:                              
	mov	eax, 1973214674
	mov	ecx, 378207674
	cmp	qword ptr [rbp - 72], 0
	cmova	eax, ecx
	mov	dword ptr [rbp - 612], eax
	jmp	.LBB14_62
.LBB14_22:                              
	lea	rdi, [rbp - 72]
	lea	rsi, [rbp - 536]
	call	_ZSt3minImERKT_S2_S2_
	lea	rsi, [rbp - 576]
	xor	ecx, ecx
	mov	edx, 32

	mov	rax, qword ptr [rax]
	mov	qword ptr [rbp - 544], rax
	mov	rax, rsi
	mov	rdi, rax
	mov	qword ptr [rbp - 896], rsi 
	mov	esi, ecx
	call	memset
	mov	rsi, qword ptr [rbp - 56]
	mov	rax, qword ptr [rbp - 544]
	shl	rax, 2
	mov	rdi, qword ptr [rbp - 896] 
	mov	rdx, rax
	call	_ZN5Botan7load_beIjEEvPT_PKhm
	mov	ecx, 8
	mov	esi, ecx
	lea	rdi, [rbp - 576]
	call	_ZN5Botan2CT6poisonIjEEvPKT_m
	mov	qword ptr [rbp - 584], 0
	mov	dword ptr [rbp - 612], 283528709
	jmp	.LBB14_62
.LBB14_23:                              
	mov	eax, 1578142008
	mov	ecx, 2111823873
	mov	dl, 1
	mov	esi, dword ptr [x.34]
	mov	edi, dword ptr [y.35]
	mov	r8d, esi
	add	r8d, 1297548866
	sub	r8d, 1
	sub	r8d, 1297548866
	imul	esi, r8d
	and	esi, 1
	cmp	esi, 0
	sete	r9b
	cmp	edi, 10
	setl	r10b
	mov	r11b, r9b
	xor	r11b, -1
	mov	bl, r10b
	xor	bl, -1
	xor	dl, 1
	mov	r14b, r11b
	and	r14b, -1
	and	r9b, dl
	mov	r15b, bl
	and	r15b, -1
	and	r10b, dl
	or	r14b, r9b
	or	r15b, r10b
	xor	r14b, r15b
	or	r11b, bl
	xor	r11b, -1
	or	dl, 1
	and	r11b, dl
	or	r14b, r11b
	test	r14b, 1
	cmovne	eax, ecx
	mov	dword ptr [rbp - 612], eax
	jmp	.LBB14_62
.LBB14_24:                              
	mov	eax, 1578142008
	mov	ecx, 3431623444
	mov	dl, 1
	cmp	qword ptr [rbp - 584], 8
	setne	sil
	and	sil, 1
	mov	byte ptr [rbp - 41], sil
	mov	edi, dword ptr [x.34]
	mov	r8d, dword ptr [y.35]
	mov	r9d, edi
	add	r9d, 1335062706
	sub	r9d, 1
	sub	r9d, 1335062706
	imul	edi, r9d
	and	edi, 1
	cmp	edi, 0
	sete	sil
	cmp	r8d, 10
	setl	r10b
	mov	r11b, sil
	xor	r11b, -1
	mov	bl, r10b
	xor	bl, -1
	xor	dl, 0
	mov	r14b, r11b
	and	r14b, 0
	and	sil, dl
	mov	r15b, bl
	and	r15b, 0
	and	r10b, dl
	or	r14b, sil
	or	r15b, r10b
	xor	r14b, r15b
	or	r11b, bl
	xor	r11b, -1
	or	dl, 0
	and	r11b, dl
	or	r14b, r11b
	test	r14b, 1
	cmovne	eax, ecx
	mov	dword ptr [rbp - 612], eax
	jmp	.LBB14_62
.LBB14_25:                              
	mov	eax, 3517010611
	mov	ecx, 2357619592
	mov	dl, byte ptr [rbp - 41]
	test	dl, 1
	cmovne	eax, ecx
	mov	dword ptr [rbp - 612], eax
	jmp	.LBB14_62
.LBB14_26:                              
	mov	rdi, qword ptr [rbp - 80]
	mov	rax, qword ptr [rbp - 584]
	and	rax, 3
	mov	rsi, rax
	call	_ZNKSt6vectorIjN5Botan16secure_allocatorIjEEEixEm
	mov	ecx, 4294967295
	mov	edx, dword ptr [rax]
	mov	rax, qword ptr [rbp - 584]
	mov	r8d, dword ptr [rbp + 4*rax - 576]
	mov	r9d, r8d
	xor	r9d, -1
	and	r9d, 635704602
	xor	ecx, 635704602
	and	r8d, ecx
	mov	r10d, edx
	xor	r10d, -1
	and	r10d, 635704602
	and	edx, ecx
	or	r9d, r8d
	or	r10d, edx
	xor	r9d, r10d
	mov	dword ptr [rbp + 4*rax - 576], r9d
	mov	dword ptr [rbp - 612], 1659718487
	jmp	.LBB14_62
.LBB14_27:                              
	xor	eax, eax
	mov	ecx, eax
	mov	rdx, qword ptr [rbp - 584]
	mov	rsi, rcx
	sub	rsi, rdx
	mov	rdx, rcx
	sub	rdx, 1
	add	rsi, rdx
	sub	rcx, rsi
	mov	qword ptr [rbp - 584], rcx
	mov	dword ptr [rbp - 612], 283528709
	jmp	.LBB14_62
.LBB14_28:                              
	lea	rdi, [rbp - 576]
	call	_ZN5Botan12_GLOBAL__N_113bit_transposeEPj
	mov	qword ptr [rbp - 592], 0
	mov	dword ptr [rbp - 612], -567457505
	jmp	.LBB14_62
.LBB14_29:                              
	mov	eax, 2920337635
	mov	ecx, 1213874859
	movabs	rdx, 8787467007018712757
	mov	rsi, qword ptr [rbp - 592]
	mov	rdi, qword ptr [rbp - 88]
	add	rdi, rdx
	sub	rdi, 1
	sub	rdi, rdx
	cmp	rsi, rdi
	cmovne	eax, ecx
	mov	dword ptr [rbp - 612], eax
	jmp	.LBB14_62
.LBB14_30:                              
	lea	rdi, [rbp - 576]
	call	_ZN5Botan12_GLOBAL__N_18AES_SBOXEPj
	lea	rdi, [rbp - 576]
	call	_ZN5Botan12_GLOBAL__N_110shift_rowsEPj
	lea	rdi, [rbp - 576]
	call	_ZN5Botan12_GLOBAL__N_111mix_columnsEPj
	mov	qword ptr [rbp - 600], 0
	mov	dword ptr [rbp - 612], 1473846584
	jmp	.LBB14_62
.LBB14_31:                              
	mov	eax, 1555161604
	mov	ecx, 898358935
	cmp	qword ptr [rbp - 600], 8
	cmovne	eax, ecx
	mov	dword ptr [rbp - 612], eax
	jmp	.LBB14_62
.LBB14_32:                              
	mov	eax, 3138127888
	mov	ecx, 3851802970
	mov	dl, 1
	mov	esi, dword ptr [x.34]
	mov	edi, dword ptr [y.35]
	mov	r8d, esi
	add	r8d, -1192449952
	sub	r8d, 1
	sub	r8d, -1192449952
	imul	esi, r8d
	and	esi, 1
	cmp	esi, 0
	sete	r9b
	cmp	edi, 10
	setl	r10b
	mov	r11b, r9b
	xor	r11b, -1
	mov	bl, r10b
	xor	bl, -1
	xor	dl, 1
	mov	r14b, r11b
	and	r14b, -1
	and	r9b, dl
	mov	r15b, bl
	and	r15b, -1
	and	r10b, dl
	or	r14b, r9b
	or	r15b, r10b
	xor	r14b, r15b
	or	r11b, bl
	xor	r11b, -1
	or	dl, 1
	and	r11b, dl
	or	r14b, r11b
	test	r14b, 1
	cmovne	eax, ecx
	mov	dword ptr [rbp - 612], eax
	jmp	.LBB14_62
.LBB14_33:                              
	mov	eax, 3138127888
	mov	ecx, 1476691067
	mov	dl, 1
	xor	esi, esi
	xor	edi, edi
	mov	r8d, edi
	mov	r9, qword ptr [rbp - 592]
	shl	r9, 3
	mov	r10, qword ptr [rbp - 600]
	mov	r11, r8
	sub	r11, r9
	mov	r9, r8
	sub	r9, r10
	add	r11, r9
	sub	r8, r11
	mov	edi, dword ptr [rbp + 4*r8 - 512]
	mov	r8, qword ptr [rbp - 600]
	mov	ebx, dword ptr [rbp + 4*r8 - 576]
	mov	r14d, ebx
	xor	r14d, -1
	mov	r15d, edi
	and	r15d, r14d
	xor	edi, -1
	and	ebx, edi
	or	r15d, ebx
	mov	dword ptr [rbp + 4*r8 - 576], r15d
	mov	edi, dword ptr [x.34]
	mov	ebx, dword ptr [y.35]
	sub	esi, 1
	mov	r14d, edi
	add	r14d, esi
	imul	edi, r14d
	and	edi, 1
	cmp	edi, 0
	sete	r12b
	cmp	ebx, 10
	setl	r13b
	mov	sil, r12b
	xor	sil, -1
	mov	dil, r13b
	xor	dil, -1
	xor	dl, 0
	mov	r8b, sil
	and	r8b, 0
	and	r12b, dl
	mov	r9b, dil
	and	r9b, 0
	and	r13b, dl
	or	r8b, r12b
	or	r9b, r13b
	xor	r8b, r9b
	or	sil, dil
	xor	sil, -1
	or	dl, 0
	and	sil, dl
	or	r8b, sil
	test	r8b, 1
	cmovne	eax, ecx
	mov	dword ptr [rbp - 612], eax
	jmp	.LBB14_62
.LBB14_34:                              
	mov	dword ptr [rbp - 612], -820208027
	jmp	.LBB14_62
.LBB14_35:                              
	movabs	rax, -2842436856871515507
	mov	rcx, qword ptr [rbp - 600]
	add	rcx, rax
	add	rcx, 1
	sub	rcx, rax
	mov	qword ptr [rbp - 600], rcx
	mov	dword ptr [rbp - 612], 1473846584
	jmp	.LBB14_62
.LBB14_36:                              
	mov	dword ptr [rbp - 612], -82230070
	jmp	.LBB14_62
.LBB14_37:                              
	movabs	rax, 2425189079109331810
	mov	rcx, qword ptr [rbp - 592]
	add	rcx, rax
	add	rcx, 1
	sub	rcx, rax
	mov	qword ptr [rbp - 592], rcx
	mov	dword ptr [rbp - 612], -567457505
	jmp	.LBB14_62
.LBB14_38:                              
	mov	eax, 4186180589
	mov	ecx, 2924981653
	xor	edx, edx
	mov	esi, dword ptr [x.34]
	mov	edi, dword ptr [y.35]
	sub	edx, 1
	mov	r8d, esi
	add	r8d, edx
	imul	esi, r8d
	and	esi, 1
	cmp	esi, 0
	sete	r9b
	cmp	edi, 10
	setl	r10b
	mov	r11b, r9b
	and	r11b, r10b
	xor	r9b, r10b
	or	r11b, r9b
	test	r11b, 1
	cmovne	eax, ecx
	mov	dword ptr [rbp - 612], eax
	jmp	.LBB14_62
.LBB14_39:                              
	lea	rdi, [rbp - 576]
	call	_ZN5Botan12_GLOBAL__N_18AES_SBOXEPj
	lea	rdi, [rbp - 576]
	call	_ZN5Botan12_GLOBAL__N_110shift_rowsEPj
	lea	rdi, [rbp - 576]
	call	_ZN5Botan12_GLOBAL__N_113bit_transposeEPj
	mov	eax, 4186180589
	mov	ecx, 495424114
	mov	qword ptr [rbp - 608], 0
	mov	edx, dword ptr [x.34]
	mov	esi, dword ptr [y.35]
	mov	r8d, edx
	add	r8d, -1721814985
	sub	r8d, 1
	sub	r8d, -1721814985
	imul	edx, r8d
	and	edx, 1
	cmp	edx, 0
	sete	r9b
	cmp	esi, 10
	setl	r10b
	mov	r11b, r9b
	and	r11b, r10b
	xor	r9b, r10b
	or	r11b, r9b
	test	r11b, 1
	cmovne	eax, ecx
	mov	dword ptr [rbp - 612], eax
	jmp	.LBB14_62
.LBB14_40:                              
	mov	dword ptr [rbp - 612], 1570583184
	jmp	.LBB14_62
.LBB14_41:                              
	mov	eax, 419791829
	mov	ecx, 1306343746
	cmp	qword ptr [rbp - 608], 8
	cmovne	eax, ecx
	mov	dword ptr [rbp - 612], eax
	jmp	.LBB14_62
.LBB14_42:                              
	mov	eax, 3815244594
	mov	ecx, 930969786
	mov	dl, 1
	xor	esi, esi
	mov	edi, dword ptr [x.34]
	mov	r8d, dword ptr [y.35]
	sub	esi, 1
	mov	r9d, edi
	add	r9d, esi
	imul	edi, r9d
	and	edi, 1
	cmp	edi, 0
	sete	r10b
	cmp	r8d, 10
	setl	r11b
	mov	bl, r10b
	xor	bl, -1
	mov	r14b, r11b
	xor	r14b, -1
	xor	dl, 1
	mov	r15b, bl
	and	r15b, -1
	and	r10b, dl
	mov	r12b, r14b
	and	r12b, -1
	and	r11b, dl
	or	r15b, r10b
	or	r12b, r11b
	xor	r15b, r12b
	or	bl, r14b
	xor	bl, -1
	or	dl, 1
	and	bl, dl
	or	r15b, bl
	test	r15b, 1
	cmovne	eax, ecx
	mov	dword ptr [rbp - 612], eax
	jmp	.LBB14_62
.LBB14_43:                              
	movabs	rax, 50856054382891175
	mov	rdi, qword ptr [rbp - 80]
	mov	rcx, qword ptr [rbp - 88]
	shl	rcx, 2
	mov	rdx, qword ptr [rbp - 608]
	and	rdx, 3
	add	rcx, rax
	add	rcx, rdx
	sub	rcx, rax
	mov	rsi, rcx
	call	_ZNKSt6vectorIjN5Botan16secure_allocatorIjEEEixEm
	mov	r8d, 3815244594
	mov	r9d, 90300682
	mov	r10b, 1
	mov	r11d, dword ptr [rax]
	mov	rax, qword ptr [rbp - 608]
	mov	ebx, dword ptr [rbp + 4*rax - 576]
	mov	r14d, ebx
	xor	r14d, -1
	mov	r15d, r11d
	and	r15d, r14d
	xor	r11d, -1
	and	ebx, r11d
	or	r15d, ebx
	mov	dword ptr [rbp + 4*rax - 576], r15d
	mov	r11d, dword ptr [x.34]
	mov	ebx, dword ptr [y.35]
	mov	r14d, r11d
	sub	r14d, -1676845529
	sub	r14d, 1
	add	r14d, -1676845529
	imul	r11d, r14d
	and	r11d, 1
	cmp	r11d, 0
	sete	r12b
	cmp	ebx, 10
	setl	r13b
	mov	al, r12b
	xor	al, -1
	mov	cl, r13b
	xor	cl, -1
	xor	r10b, 1
	mov	dl, al
	and	dl, -1
	and	r12b, r10b
	mov	sil, cl
	and	sil, -1
	and	r13b, r10b
	or	dl, r12b
	or	sil, r13b
	xor	dl, sil
	or	al, cl
	xor	al, -1
	or	r10b, 1
	and	al, r10b
	or	dl, al
	test	dl, 1
	cmovne	r8d, r9d
	mov	dword ptr [rbp - 612], r8d
	jmp	.LBB14_62
.LBB14_44:                              
	mov	dword ptr [rbp - 612], -1833012544
	jmp	.LBB14_62
.LBB14_45:                              
	mov	eax, 4053622675
	mov	ecx, 2416899933
	xor	edx, edx
	mov	esi, dword ptr [x.34]
	mov	edi, dword ptr [y.35]
	sub	edx, 1
	mov	r8d, esi
	add	r8d, edx
	imul	esi, r8d
	and	esi, 1
	cmp	esi, 0
	sete	r9b
	cmp	edi, 10
	setl	r10b
	mov	r11b, r9b
	and	r11b, r10b
	xor	r9b, r10b
	or	r11b, r9b
	test	r11b, 1
	cmovne	eax, ecx
	mov	dword ptr [rbp - 612], eax
	jmp	.LBB14_62
.LBB14_46:                              
	mov	eax, 4053622675
	mov	ecx, 2095357098
	xor	edx, edx
	mov	esi, edx
	mov	rdi, qword ptr [rbp - 608]
	mov	r8, rsi
	sub	r8, rdi
	mov	rdi, rsi
	sub	rdi, 1
	add	r8, rdi
	sub	rsi, r8
	mov	qword ptr [rbp - 608], rsi
	mov	edx, dword ptr [x.34]
	mov	r9d, dword ptr [y.35]
	mov	r10d, edx
	add	r10d, 1880178063
	sub	r10d, 1
	sub	r10d, 1880178063
	imul	edx, r10d
	and	edx, 1
	cmp	edx, 0
	sete	r11b
	cmp	r9d, 10
	setl	bl
	mov	r14b, r11b
	and	r14b, bl
	xor	r11b, bl
	or	r14b, r11b
	test	r14b, 1
	cmovne	eax, ecx
	mov	dword ptr [rbp - 612], eax
	jmp	.LBB14_62
.LBB14_47:                              
	mov	dword ptr [rbp - 612], 1570583184
	jmp	.LBB14_62
.LBB14_48:                              
	mov	eax, 8
	mov	esi, eax
	lea	rdi, [rbp - 576]
	call	_ZN5Botan2CT8unpoisonIjEEvPKT_m
	lea	rdx, [rbp - 576]
	mov	rdi, qword ptr [rbp - 64]
	mov	rsi, qword ptr [rbp - 544]
	shl	rsi, 2
	shl	rsi, 2
	call	_ZN5Botan11copy_out_beIjEEvPhmPKT_
	xor	eax, eax
	mov	edx, eax
	mov	rsi, qword ptr [rbp - 544]
	shl	rsi, 4
	add	rsi, qword ptr [rbp - 56]
	mov	qword ptr [rbp - 56], rsi
	mov	rsi, qword ptr [rbp - 544]
	shl	rsi, 4
	add	rsi, qword ptr [rbp - 64]
	mov	qword ptr [rbp - 64], rsi
	mov	rsi, qword ptr [rbp - 544]
	mov	rdi, qword ptr [rbp - 72]
	sub	rdx, rsi
	add	rdi, rdx
	mov	qword ptr [rbp - 72], rdi
	mov	dword ptr [rbp - 612], 303262834
	jmp	.LBB14_62
.LBB14_49:                              
	mov	eax, 636342971
	mov	ecx, 1320089013
	mov	dl, 1
	mov	esi, dword ptr [x.34]
	mov	edi, dword ptr [y.35]
	mov	r8d, esi
	add	r8d, -275344369
	sub	r8d, 1
	sub	r8d, -275344369
	imul	esi, r8d
	and	esi, 1
	cmp	esi, 0
	sete	r9b
	cmp	edi, 10
	setl	r10b
	mov	r11b, r9b
	xor	r11b, -1
	mov	bl, r10b
	xor	bl, -1
	xor	dl, 1
	mov	r14b, r11b
	and	r14b, -1
	and	r9b, dl
	mov	r15b, bl
	and	r15b, -1
	and	r10b, dl
	or	r14b, r9b
	or	r15b, r10b
	xor	r14b, r15b
	or	r11b, bl
	xor	r11b, -1
	or	dl, 1
	and	r11b, dl
	or	r14b, r11b
	test	r14b, 1
	cmovne	eax, ecx
	mov	dword ptr [rbp - 612], eax
	jmp	.LBB14_62
.LBB14_50:                              
	mov	eax, 636342971
	mov	ecx, 237353308
	mov	dl, 1
	xor	esi, esi
	mov	edi, dword ptr [x.34]
	mov	r8d, dword ptr [y.35]
	sub	esi, 1
	mov	r9d, edi
	add	r9d, esi
	imul	edi, r9d
	and	edi, 1
	cmp	edi, 0
	sete	r10b
	cmp	r8d, 10
	setl	r11b
	mov	bl, r10b
	xor	bl, -1
	mov	r14b, r11b
	xor	r14b, -1
	xor	dl, 0
	mov	r15b, bl
	and	r15b, 0
	and	r10b, dl
	mov	r12b, r14b
	and	r12b, 0
	and	r11b, dl
	or	r15b, r10b
	or	r12b, r11b
	xor	r15b, r12b
	or	bl, r14b
	xor	bl, -1
	or	dl, 0
	and	bl, dl
	or	r15b, bl
	test	r15b, 1
	cmovne	eax, ecx
	mov	dword ptr [rbp - 612], eax
	jmp	.LBB14_62
.LBB14_51:
	add	rsp, 856
	pop	rbx
	pop	r12
	pop	r13
	pop	r14
	pop	r15
	pop	rbp
	ret
.LBB14_52:                              
	mov	dword ptr [rbp - 612], -975828677
	jmp	.LBB14_62
.LBB14_53:                              
	mov	rdi, qword ptr [rbp - 80]
	call	_ZNKSt6vectorIjN5Botan16secure_allocatorIjEEE4sizeEv
	xor	esi, esi
	mov	ecx, 416
	mov	edx, ecx
	lea	rdi, [rbp - 512]
	movabs	r8, 3038018370485434173
	sub	rax, r8
	sub	rax, 4
	add	rax, r8
	shr	rax, 2
	mov	qword ptr [rbp - 88], rax
	call	memset
	mov	qword ptr [rbp - 520], 0
	mov	dword ptr [rbp - 612], -128919285
	jmp	.LBB14_62
.LBB14_54:                              
	mov	dword ptr [rbp - 612], 1801008013
	jmp	.LBB14_62
.LBB14_55:                              
	xor	eax, eax
	mov	ecx, eax
	mov	rdx, qword ptr [rbp - 520]
	sub	rcx, 1
	sub	rdx, rcx
	mov	qword ptr [rbp - 520], rdx
	mov	dword ptr [rbp - 612], 1838360561
	jmp	.LBB14_62
.LBB14_56:                              
	mov	dword ptr [rbp - 612], 2111823873
	jmp	.LBB14_62
.LBB14_57:                              
	movabs	rax, 6284970990057796547
	mov	rcx, qword ptr [rbp - 592]
	shl	rcx, 3
	mov	rdx, qword ptr [rbp - 600]
	add	rcx, rax
	add	rcx, rdx
	sub	rcx, rax
	mov	esi, dword ptr [rbp + 4*rcx - 512]
	mov	rax, qword ptr [rbp - 600]
	mov	edi, dword ptr [rbp + 4*rax - 576]
	mov	r8d, edi
	xor	r8d, -1
	mov	r9d, esi
	and	r9d, r8d
	xor	esi, -1
	and	edi, esi
	or	r9d, edi
	mov	dword ptr [rbp + 4*rax - 576], r9d
	mov	dword ptr [rbp - 612], -443164326
	jmp	.LBB14_62
.LBB14_58:                              
	lea	rdi, [rbp - 576]
	call	_ZN5Botan12_GLOBAL__N_18AES_SBOXEPj
	lea	rdi, [rbp - 576]
	call	_ZN5Botan12_GLOBAL__N_110shift_rowsEPj
	lea	rdi, [rbp - 576]
	call	_ZN5Botan12_GLOBAL__N_113bit_transposeEPj
	mov	qword ptr [rbp - 608], 0
	mov	dword ptr [rbp - 612], -1369985643
	jmp	.LBB14_62
.LBB14_59:                              
	movabs	rax, 8023560149496215557
	mov	rdi, qword ptr [rbp - 80]
	mov	rcx, qword ptr [rbp - 88]
	shl	rcx, 2
	mov	rdx, qword ptr [rbp - 608]
	and	rdx, 3
	sub	rcx, rax
	add	rcx, rdx
	add	rcx, rax
	mov	rsi, rcx
	call	_ZNKSt6vectorIjN5Botan16secure_allocatorIjEEEixEm
	mov	r8d, 4294967295
	mov	r9d, dword ptr [rax]
	mov	rax, qword ptr [rbp - 608]
	mov	r10d, dword ptr [rbp + 4*rax - 576]
	mov	r11d, r10d
	xor	r11d, -1
	and	r11d, 3321659836
	xor	r8d, 3321659836
	and	r10d, r8d
	mov	ebx, r9d
	xor	ebx, -1
	and	ebx, -973307460
	and	r9d, r8d
	or	r11d, r10d
	or	ebx, r9d
	xor	r11d, ebx
	mov	dword ptr [rbp + 4*rax - 576], r11d
	mov	dword ptr [rbp - 612], 930969786
	jmp	.LBB14_62
.LBB14_60:                              
	xor	eax, eax
	mov	ecx, eax
	mov	rdx, qword ptr [rbp - 608]
	mov	rsi, rcx
	sub	rsi, rdx
	mov	rdx, rcx
	sub	rdx, 1
	add	rsi, rdx
	sub	rcx, rsi
	mov	qword ptr [rbp - 608], rcx
	mov	dword ptr [rbp - 612], -1878067363
	jmp	.LBB14_62
.LBB14_61:                              
	mov	dword ptr [rbp - 612], 1320089013
.LBB14_62:                              
	jmp	.LBB14_1
.Lfunc_end14:
	.size	_ZN5Botan12_GLOBAL__N_113aes_encrypt_nEPKhPhmRKSt6vectorIjNS_16secure_allocatorIjEEE, .Lfunc_end14-_ZN5Botan12_GLOBAL__N_113aes_encrypt_nEPKhPhmRKSt6vectorIjNS_16secure_allocatorIjEEE
	.cfi_endproc

	.globl	_ZNK5Botan7AES_1289decrypt_nEPKhPhm 
	.p2align	4, 0x90
	.type	_ZNK5Botan7AES_1289decrypt_nEPKhPhm,@function
_ZNK5Botan7AES_1289decrypt_nEPKhPhm:    
	.cfi_startproc

	push	rbp
.Lcfi64:
	.cfi_def_cfa_offset 16
.Lcfi65:
	.cfi_offset rbp, -16
	mov	rbp, rsp
.Lcfi66:
	.cfi_def_cfa_register rbp
	push	r15
	push	r14
	push	r13
	push	r12
	push	rbx
	sub	rsp, 152
.Lcfi67:
	.cfi_offset rbx, -56
.Lcfi68:
	.cfi_offset r12, -48
.Lcfi69:
	.cfi_offset r13, -40
.Lcfi70:
	.cfi_offset r14, -32
.Lcfi71:
	.cfi_offset r15, -24
	xor	eax, eax
	mov	r8d, dword ptr [x.36]
	mov	r9d, dword ptr [y.37]
	sub	eax, 1
	mov	r10d, r8d
	add	r10d, eax
	imul	r8d, r10d
	and	r8d, 1
	cmp	r8d, 0
	sete	r11b
	and	r11b, 1
	mov	byte ptr [rbp - 82], r11b
	cmp	r9d, 10
	setl	r11b
	and	r11b, 1
	mov	byte ptr [rbp - 81], r11b
	mov	dword ptr [rbp - 88], -132872983
	mov	qword ptr [rbp - 96], rdx 
	mov	qword ptr [rbp - 104], rsi 
	mov	qword ptr [rbp - 112], rdi 
	mov	qword ptr [rbp - 120], rcx 
.LBB15_1:                               
	mov	eax, dword ptr [rbp - 88]
	mov	ecx, eax
	sub	ecx, -1732814634
	mov	dword ptr [rbp - 124], eax 
	mov	dword ptr [rbp - 128], ecx 
	je	.LBB15_5
	jmp	.LBB15_13
.LBB15_13:                              
	mov	eax, dword ptr [rbp - 124] 
	sub	eax, -1617682524
	mov	dword ptr [rbp - 132], eax 
	je	.LBB15_10
	jmp	.LBB15_14
.LBB15_14:                              
	mov	eax, dword ptr [rbp - 124] 
	sub	eax, -150250676
	mov	dword ptr [rbp - 136], eax 
	je	.LBB15_4
	jmp	.LBB15_15
.LBB15_15:                              
	mov	eax, dword ptr [rbp - 124] 
	sub	eax, -132872983
	mov	dword ptr [rbp - 140], eax 
	je	.LBB15_3
	jmp	.LBB15_16
.LBB15_16:                              
	mov	eax, dword ptr [rbp - 124] 
	sub	eax, 505227202
	mov	dword ptr [rbp - 144], eax 
	je	.LBB15_6
	jmp	.LBB15_17
.LBB15_17:                              
	mov	eax, dword ptr [rbp - 124] 
	sub	eax, 1257092181
	mov	dword ptr [rbp - 148], eax 
	je	.LBB15_7
	jmp	.LBB15_18
.LBB15_18:                              
	mov	eax, dword ptr [rbp - 124] 
	sub	eax, 1480180874
	mov	dword ptr [rbp - 152], eax 
	je	.LBB15_11
	jmp	.LBB15_19
.LBB15_19:                              
	mov	eax, dword ptr [rbp - 124] 
	sub	eax, 2000030065
	mov	dword ptr [rbp - 156], eax 
	je	.LBB15_9
	jmp	.LBB15_20
.LBB15_20:                              
	mov	eax, dword ptr [rbp - 124] 
	sub	eax, 2008817503
	mov	dword ptr [rbp - 160], eax 
	je	.LBB15_8
	jmp	.LBB15_2
.LBB15_2:                               
	jmp	.LBB15_12
.LBB15_3:                               
	mov	eax, 1480180874
	mov	ecx, 4144716620
	mov	dl, byte ptr [rbp - 82]
	mov	sil, byte ptr [rbp - 81]
	mov	dil, dl
	and	dil, sil
	xor	dl, sil
	or	dil, dl
	test	dil, 1
	cmovne	eax, ecx
	mov	dword ptr [rbp - 88], eax
	jmp	.LBB15_12
.LBB15_4:                               
	mov	rax, rsp
	add	rax, -16
	mov	rsp, rax
	mov	rcx, rsp
	add	rcx, -16
	mov	rsp, rcx
	mov	qword ptr [rbp - 80], rcx
	mov	rcx, rsp
	add	rcx, -16
	mov	rsp, rcx
	mov	qword ptr [rbp - 72], rcx
	mov	rcx, rsp
	add	rcx, -16
	mov	rsp, rcx
	mov	qword ptr [rbp - 64], rcx
	mov	rcx, qword ptr [rbp - 112] 
	mov	qword ptr [rax], rcx
	mov	rdx, qword ptr [rbp - 80]
	mov	rsi, qword ptr [rbp - 104] 
	mov	qword ptr [rdx], rsi
	mov	rdx, qword ptr [rbp - 72]
	mov	rdi, qword ptr [rbp - 96] 
	mov	qword ptr [rdx], rdi
	mov	rdx, qword ptr [rbp - 64]
	mov	r8, qword ptr [rbp - 120] 
	mov	qword ptr [rdx], r8
	mov	rax, qword ptr [rax]
	mov	qword ptr [rbp - 56], rax
	mov	rax, qword ptr [rbp - 56]
	mov	rdx, qword ptr [rbp - 56]
	add	rdx, 32
	mov	rdi, rdx
	mov	qword ptr [rbp - 168], rax 
	call	_ZNKSt6vectorIjN5Botan16secure_allocatorIjEEE5emptyEv
	and	al, 1
	movzx	r9d, al
	cmp	r9d, 0
	sete	al
	and	al, 1
	movzx	esi, al
	mov	rdi, qword ptr [rbp - 168] 
	call	_ZNK5Botan18SymmetricAlgorithm14verify_key_setEb
	call	_ZN5Botan5CPUID10has_hw_aesEv
	mov	esi, 1480180874
	mov	r9d, 2562152662
	mov	r10b, 1
	and	al, 1
	mov	byte ptr [rbp - 41], al
	mov	r11d, dword ptr [x.36]
	mov	ebx, dword ptr [y.37]
	mov	r14d, r11d
	sub	r14d, -870415115
	sub	r14d, 1
	add	r14d, -870415115
	imul	r11d, r14d
	and	r11d, 1
	cmp	r11d, 0
	sete	al
	cmp	ebx, 10
	setl	r15b
	mov	r12b, al
	xor	r12b, -1
	mov	r13b, r15b
	xor	r13b, -1
	xor	r10b, 1
	mov	cl, r12b
	and	cl, -1
	and	al, r10b
	mov	dl, r13b
	and	dl, -1
	and	r15b, r10b
	or	cl, al
	or	dl, r15b
	xor	cl, dl
	or	r12b, r13b
	xor	r12b, -1
	or	r10b, 1
	and	r12b, r10b
	or	cl, r12b
	test	cl, 1
	cmovne	esi, r9d
	mov	dword ptr [rbp - 88], esi
	jmp	.LBB15_12
.LBB15_5:                               
	mov	eax, 1257092181
	mov	ecx, 505227202
	mov	dl, byte ptr [rbp - 41]
	test	dl, 1
	cmovne	eax, ecx
	mov	dword ptr [rbp - 88], eax
	jmp	.LBB15_12
.LBB15_6:                               
	mov	rax, qword ptr [rbp - 80]
	mov	rsi, qword ptr [rax]
	mov	rax, qword ptr [rbp - 72]
	mov	rdx, qword ptr [rax]
	mov	rax, qword ptr [rbp - 64]
	mov	rcx, qword ptr [rax]
	mov	rdi, qword ptr [rbp - 56]
	call	_ZNK5Botan7AES_12816hw_aes_decrypt_nEPKhPhm
	mov	dword ptr [rbp - 88], -1617682524
	jmp	.LBB15_12
.LBB15_7:                               
	call	_ZN5Botan5CPUID9has_vpermEv
	mov	ecx, 2000030065
	mov	edx, 2008817503
	test	al, 1
	cmovne	ecx, edx
	mov	dword ptr [rbp - 88], ecx
	jmp	.LBB15_12
.LBB15_8:                               
	mov	rax, qword ptr [rbp - 80]
	mov	rsi, qword ptr [rax]
	mov	rax, qword ptr [rbp - 72]
	mov	rdx, qword ptr [rax]
	mov	rax, qword ptr [rbp - 64]
	mov	rcx, qword ptr [rax]
	mov	rdi, qword ptr [rbp - 56]
	call	_ZNK5Botan7AES_12815vperm_decrypt_nEPKhPhm
	mov	dword ptr [rbp - 88], -1617682524
	jmp	.LBB15_12
.LBB15_9:                               
	mov	rax, qword ptr [rbp - 80]
	mov	rdi, qword ptr [rax]
	mov	rax, qword ptr [rbp - 72]
	mov	rsi, qword ptr [rax]
	mov	rax, qword ptr [rbp - 64]
	mov	rdx, qword ptr [rax]
	mov	rax, qword ptr [rbp - 56]
	add	rax, 32
	mov	rcx, rax
	call	_ZN5Botan12_GLOBAL__N_113aes_decrypt_nEPKhPhmRKSt6vectorIjNS_16secure_allocatorIjEEE
	mov	dword ptr [rbp - 88], -1617682524
	jmp	.LBB15_12
.LBB15_10:
	lea	rsp, [rbp - 40]
	pop	rbx
	pop	r12
	pop	r13
	pop	r14
	pop	r15
	pop	rbp
	ret
.LBB15_11:                              
	mov	rax, rsp
	add	rax, -16
	mov	rsp, rax
	mov	rcx, rsp
	add	rcx, -16
	mov	rsp, rcx
	mov	rdx, rsp
	add	rdx, -16
	mov	rsp, rdx
	mov	rsi, rsp
	add	rsi, -16
	mov	rsp, rsi
	mov	rdi, qword ptr [rbp - 112] 
	mov	qword ptr [rax], rdi
	mov	r8, qword ptr [rbp - 104] 
	mov	qword ptr [rcx], r8
	mov	rcx, qword ptr [rbp - 96] 
	mov	qword ptr [rdx], rcx
	mov	rdx, qword ptr [rbp - 120] 
	mov	qword ptr [rsi], rdx
	mov	rax, qword ptr [rax]
	mov	rsi, rax
	add	rax, 32
	mov	rdi, rax
	mov	qword ptr [rbp - 176], rsi 
	call	_ZNKSt6vectorIjN5Botan16secure_allocatorIjEEE5emptyEv
	and	al, 1
	movzx	r9d, al
	cmp	r9d, 0
	sete	al
	and	al, 1
	movzx	esi, al
	mov	rdi, qword ptr [rbp - 176] 
	call	_ZNK5Botan18SymmetricAlgorithm14verify_key_setEb
	call	_ZN5Botan5CPUID10has_hw_aesEv
	mov	dword ptr [rbp - 88], -150250676
	mov	byte ptr [rbp - 177], al 
.LBB15_12:                              
	jmp	.LBB15_1
.Lfunc_end15:
	.size	_ZNK5Botan7AES_1289decrypt_nEPKhPhm, .Lfunc_end15-_ZNK5Botan7AES_1289decrypt_nEPKhPhm
	.cfi_endproc

	.p2align	4, 0x90         
	.type	_ZN5Botan12_GLOBAL__N_113aes_decrypt_nEPKhPhmRKSt6vectorIjNS_16secure_allocatorIjEEE,@function
_ZN5Botan12_GLOBAL__N_113aes_decrypt_nEPKhPhmRKSt6vectorIjNS_16secure_allocatorIjEEE: 
	.cfi_startproc

	push	rbp
.Lcfi72:
	.cfi_def_cfa_offset 16
.Lcfi73:
	.cfi_offset rbp, -16
	mov	rbp, rsp
.Lcfi74:
	.cfi_def_cfa_register rbp
	push	r15
	push	r14
	push	r12
	push	rbx
	sub	rsp, 800
.Lcfi75:
	.cfi_offset rbx, -48
.Lcfi76:
	.cfi_offset r12, -40
.Lcfi77:
	.cfi_offset r14, -32
.Lcfi78:
	.cfi_offset r15, -24
	mov	qword ptr [rbp - 48], rdi
	mov	qword ptr [rbp - 56], rsi
	mov	qword ptr [rbp - 64], rdx
	mov	qword ptr [rbp - 72], rcx
	mov	dword ptr [rbp - 596], -320110854
.LBB16_1:                               
	mov	eax, dword ptr [rbp - 596]
	mov	ecx, eax
	sub	ecx, -1882270560
	mov	dword ptr [rbp - 600], eax 
	mov	dword ptr [rbp - 604], ecx 
	je	.LBB16_6
	jmp	.LBB16_48
.LBB16_48:                              
	mov	eax, dword ptr [rbp - 600] 
	sub	eax, -1862150016
	mov	dword ptr [rbp - 608], eax 
	je	.LBB16_45
	jmp	.LBB16_49
.LBB16_49:                              
	mov	eax, dword ptr [rbp - 600] 
	sub	eax, -1584592363
	mov	dword ptr [rbp - 612], eax 
	je	.LBB16_43
	jmp	.LBB16_50
.LBB16_50:                              
	mov	eax, dword ptr [rbp - 600] 
	sub	eax, -1510311482
	mov	dword ptr [rbp - 616], eax 
	je	.LBB16_21
	jmp	.LBB16_51
.LBB16_51:                              
	mov	eax, dword ptr [rbp - 600] 
	sub	eax, -1458963224
	mov	dword ptr [rbp - 620], eax 
	je	.LBB16_37
	jmp	.LBB16_52
.LBB16_52:                              
	mov	eax, dword ptr [rbp - 600] 
	sub	eax, -1260771176
	mov	dword ptr [rbp - 624], eax 
	je	.LBB16_31
	jmp	.LBB16_53
.LBB16_53:                              
	mov	eax, dword ptr [rbp - 600] 
	sub	eax, -1205864233
	mov	dword ptr [rbp - 628], eax 
	je	.LBB16_35
	jmp	.LBB16_54
.LBB16_54:                              
	mov	eax, dword ptr [rbp - 600] 
	sub	eax, -1202463047
	mov	dword ptr [rbp - 632], eax 
	je	.LBB16_23
	jmp	.LBB16_55
.LBB16_55:                              
	mov	eax, dword ptr [rbp - 600] 
	sub	eax, -1052866697
	mov	dword ptr [rbp - 636], eax 
	je	.LBB16_11
	jmp	.LBB16_56
.LBB16_56:                              
	mov	eax, dword ptr [rbp - 600] 
	sub	eax, -1022338624
	mov	dword ptr [rbp - 640], eax 
	je	.LBB16_20
	jmp	.LBB16_57
.LBB16_57:                              
	mov	eax, dword ptr [rbp - 600] 
	sub	eax, -991161257
	mov	dword ptr [rbp - 644], eax 
	je	.LBB16_28
	jmp	.LBB16_58
.LBB16_58:                              
	mov	eax, dword ptr [rbp - 600] 
	sub	eax, -872826912
	mov	dword ptr [rbp - 648], eax 
	je	.LBB16_16
	jmp	.LBB16_59
.LBB16_59:                              
	mov	eax, dword ptr [rbp - 600] 
	sub	eax, -722820185
	mov	dword ptr [rbp - 652], eax 
	je	.LBB16_13
	jmp	.LBB16_60
.LBB16_60:                              
	mov	eax, dword ptr [rbp - 600] 
	sub	eax, -552178352
	mov	dword ptr [rbp - 656], eax 
	je	.LBB16_10
	jmp	.LBB16_61
.LBB16_61:                              
	mov	eax, dword ptr [rbp - 600] 
	sub	eax, -504338636
	mov	dword ptr [rbp - 660], eax 
	je	.LBB16_40
	jmp	.LBB16_62
.LBB16_62:                              
	mov	eax, dword ptr [rbp - 600] 
	sub	eax, -447697922
	mov	dword ptr [rbp - 664], eax 
	je	.LBB16_22
	jmp	.LBB16_63
.LBB16_63:                              
	mov	eax, dword ptr [rbp - 600] 
	sub	eax, -320110854
	mov	dword ptr [rbp - 668], eax 
	je	.LBB16_3
	jmp	.LBB16_64
.LBB16_64:                              
	mov	eax, dword ptr [rbp - 600] 
	sub	eax, -202741463
	mov	dword ptr [rbp - 672], eax 
	je	.LBB16_18
	jmp	.LBB16_65
.LBB16_65:                              
	mov	eax, dword ptr [rbp - 600] 
	sub	eax, -69815529
	mov	dword ptr [rbp - 676], eax 
	je	.LBB16_19
	jmp	.LBB16_66
.LBB16_66:                              
	mov	eax, dword ptr [rbp - 600] 
	sub	eax, 41594680
	mov	dword ptr [rbp - 680], eax 
	je	.LBB16_33
	jmp	.LBB16_67
.LBB16_67:                              
	mov	eax, dword ptr [rbp - 600] 
	sub	eax, 72387109
	mov	dword ptr [rbp - 684], eax 
	je	.LBB16_39
	jmp	.LBB16_68
.LBB16_68:                              
	mov	eax, dword ptr [rbp - 600] 
	sub	eax, 380814908
	mov	dword ptr [rbp - 688], eax 
	je	.LBB16_27
	jmp	.LBB16_69
.LBB16_69:                              
	mov	eax, dword ptr [rbp - 600] 
	sub	eax, 393155042
	mov	dword ptr [rbp - 692], eax 
	je	.LBB16_14
	jmp	.LBB16_70
.LBB16_70:                              
	mov	eax, dword ptr [rbp - 600] 
	sub	eax, 564415698
	mov	dword ptr [rbp - 696], eax 
	je	.LBB16_15
	jmp	.LBB16_71
.LBB16_71:                              
	mov	eax, dword ptr [rbp - 600] 
	sub	eax, 591387879
	mov	dword ptr [rbp - 700], eax 
	je	.LBB16_12
	jmp	.LBB16_72
.LBB16_72:                              
	mov	eax, dword ptr [rbp - 600] 
	sub	eax, 672364364
	mov	dword ptr [rbp - 704], eax 
	je	.LBB16_32
	jmp	.LBB16_73
.LBB16_73:                              
	mov	eax, dword ptr [rbp - 600] 
	sub	eax, 712626673
	mov	dword ptr [rbp - 708], eax 
	je	.LBB16_34
	jmp	.LBB16_74
.LBB16_74:                              
	mov	eax, dword ptr [rbp - 600] 
	sub	eax, 915694915
	mov	dword ptr [rbp - 712], eax 
	je	.LBB16_36
	jmp	.LBB16_75
.LBB16_75:                              
	mov	eax, dword ptr [rbp - 600] 
	sub	eax, 1036554213
	mov	dword ptr [rbp - 716], eax 
	je	.LBB16_9
	jmp	.LBB16_76
.LBB16_76:                              
	mov	eax, dword ptr [rbp - 600] 
	sub	eax, 1091077169
	mov	dword ptr [rbp - 720], eax 
	je	.LBB16_8
	jmp	.LBB16_77
.LBB16_77:                              
	mov	eax, dword ptr [rbp - 600] 
	sub	eax, 1217127061
	mov	dword ptr [rbp - 724], eax 
	je	.LBB16_42
	jmp	.LBB16_78
.LBB16_78:                              
	mov	eax, dword ptr [rbp - 600] 
	sub	eax, 1281216001
	mov	dword ptr [rbp - 728], eax 
	je	.LBB16_44
	jmp	.LBB16_79
.LBB16_79:                              
	mov	eax, dword ptr [rbp - 600] 
	sub	eax, 1287066974
	mov	dword ptr [rbp - 732], eax 
	je	.LBB16_5
	jmp	.LBB16_80
.LBB16_80:                              
	mov	eax, dword ptr [rbp - 600] 
	sub	eax, 1328386280
	mov	dword ptr [rbp - 736], eax 
	je	.LBB16_46
	jmp	.LBB16_81
.LBB16_81:                              
	mov	eax, dword ptr [rbp - 600] 
	sub	eax, 1380206634
	mov	dword ptr [rbp - 740], eax 
	je	.LBB16_24
	jmp	.LBB16_82
.LBB16_82:                              
	mov	eax, dword ptr [rbp - 600] 
	sub	eax, 1485033329
	mov	dword ptr [rbp - 744], eax 
	je	.LBB16_38
	jmp	.LBB16_83
.LBB16_83:                              
	mov	eax, dword ptr [rbp - 600] 
	sub	eax, 1581611527
	mov	dword ptr [rbp - 748], eax 
	je	.LBB16_30
	jmp	.LBB16_84
.LBB16_84:                              
	mov	eax, dword ptr [rbp - 600] 
	sub	eax, 1667427019
	mov	dword ptr [rbp - 752], eax 
	je	.LBB16_26
	jmp	.LBB16_85
.LBB16_85:                              
	mov	eax, dword ptr [rbp - 600] 
	sub	eax, 1734420682
	mov	dword ptr [rbp - 756], eax 
	je	.LBB16_25
	jmp	.LBB16_86
.LBB16_86:                              
	mov	eax, dword ptr [rbp - 600] 
	sub	eax, 1741718379
	mov	dword ptr [rbp - 760], eax 
	je	.LBB16_41
	jmp	.LBB16_87
.LBB16_87:                              
	mov	eax, dword ptr [rbp - 600] 
	sub	eax, 1911761291
	mov	dword ptr [rbp - 764], eax 
	je	.LBB16_29
	jmp	.LBB16_88
.LBB16_88:                              
	mov	eax, dword ptr [rbp - 600] 
	sub	eax, 1984831080
	mov	dword ptr [rbp - 768], eax 
	je	.LBB16_7
	jmp	.LBB16_89
.LBB16_89:                              
	mov	eax, dword ptr [rbp - 600] 
	sub	eax, 2121883825
	mov	dword ptr [rbp - 772], eax 
	je	.LBB16_4
	jmp	.LBB16_90
.LBB16_90:                              
	mov	eax, dword ptr [rbp - 600] 
	sub	eax, 2124947038
	mov	dword ptr [rbp - 776], eax 
	je	.LBB16_17
	jmp	.LBB16_2
.LBB16_2:                               
	jmp	.LBB16_47
.LBB16_3:                               
	mov	eax, 1217127061
	mov	ecx, 2121883825
	mov	dl, 1
	xor	esi, esi
	mov	edi, dword ptr [x.38]
	mov	r8d, dword ptr [y.39]
	sub	esi, 1
	mov	r9d, edi
	add	r9d, esi
	imul	edi, r9d
	and	edi, 1
	cmp	edi, 0
	sete	r10b
	cmp	r8d, 10
	setl	r11b
	mov	bl, r10b
	xor	bl, -1
	mov	r14b, r11b
	xor	r14b, -1
	xor	dl, 0
	mov	r15b, bl
	and	r15b, 0
	and	r10b, dl
	mov	r12b, r14b
	and	r12b, 0
	and	r11b, dl
	or	r15b, r10b
	or	r12b, r11b
	xor	r15b, r12b
	or	bl, r14b
	xor	bl, -1
	or	dl, 0
	and	bl, dl
	or	r15b, bl
	test	r15b, 1
	cmovne	eax, ecx
	mov	dword ptr [rbp - 596], eax
	jmp	.LBB16_47
.LBB16_4:                               
	mov	rdi, qword ptr [rbp - 72]
	call	_ZNKSt6vectorIjN5Botan16secure_allocatorIjEEE4sizeEv
	mov	ecx, 1217127061
	mov	edx, 1287066974
	xor	esi, esi
	cmp	rax, 44
	sete	r8b
	and	r8b, 1
	mov	byte ptr [rbp - 35], r8b
	mov	r9d, dword ptr [x.38]
	mov	r10d, dword ptr [y.39]
	sub	esi, 1
	mov	r11d, r9d
	add	r11d, esi
	imul	r9d, r11d
	and	r9d, 1
	cmp	r9d, 0
	sete	r8b
	cmp	r10d, 10
	setl	bl
	mov	r14b, r8b
	and	r14b, bl
	xor	r8b, bl
	or	r14b, r8b
	test	r14b, 1
	cmovne	ecx, edx
	mov	dword ptr [rbp - 596], ecx
	jmp	.LBB16_47
.LBB16_5:                               
	mov	eax, 2412696736
	mov	ecx, 3242100599
	mov	dl, byte ptr [rbp - 35]
	test	dl, 1
	cmovne	eax, ecx
	mov	dword ptr [rbp - 596], eax
	jmp	.LBB16_47
.LBB16_6:                               
	mov	rdi, qword ptr [rbp - 72]
	call	_ZNKSt6vectorIjN5Botan16secure_allocatorIjEEE4sizeEv
	mov	ecx, 1984831080
	mov	edx, 3242100599
	cmp	rax, 52
	cmove	ecx, edx
	mov	dword ptr [rbp - 596], ecx
	jmp	.LBB16_47
.LBB16_7:                               
	mov	eax, 2710374933
	mov	ecx, 1091077169
	mov	dl, 1
	mov	esi, dword ptr [x.38]
	mov	edi, dword ptr [y.39]
	mov	r8d, esi
	sub	r8d, 474676428
	sub	r8d, 1
	add	r8d, 474676428
	imul	esi, r8d
	and	esi, 1
	cmp	esi, 0
	sete	r9b
	cmp	edi, 10
	setl	r10b
	mov	r11b, r9b
	xor	r11b, -1
	mov	bl, r10b
	xor	bl, -1
	xor	dl, 0
	mov	r14b, r11b
	and	r14b, 0
	and	r9b, dl
	mov	r15b, bl
	and	r15b, 0
	and	r10b, dl
	or	r14b, r9b
	or	r15b, r10b
	xor	r14b, r15b
	or	r11b, bl
	xor	r11b, -1
	or	dl, 0
	and	r11b, dl
	or	r14b, r11b
	test	r14b, 1
	cmovne	eax, ecx
	mov	dword ptr [rbp - 596], eax
	jmp	.LBB16_47
.LBB16_8:                               
	mov	rdi, qword ptr [rbp - 72]
	call	_ZNKSt6vectorIjN5Botan16secure_allocatorIjEEE4sizeEv
	mov	ecx, 2710374933
	mov	edx, 1036554213
	cmp	rax, 60
	sete	sil
	and	sil, 1
	mov	byte ptr [rbp - 34], sil
	mov	r8d, dword ptr [x.38]
	mov	r9d, dword ptr [y.39]
	mov	r10d, r8d
	add	r10d, 1334083807
	sub	r10d, 1
	sub	r10d, 1334083807
	imul	r8d, r10d
	and	r8d, 1
	cmp	r8d, 0
	sete	sil
	cmp	r9d, 10
	setl	r11b
	mov	bl, sil
	and	bl, r11b
	xor	sil, r11b
	or	bl, sil
	test	bl, 1
	cmovne	ecx, edx
	mov	dword ptr [rbp - 596], ecx
	jmp	.LBB16_47
.LBB16_9:                               
	mov	eax, 3742788944
	mov	ecx, 3242100599
	mov	dl, byte ptr [rbp - 34]
	test	dl, 1
	cmovne	eax, ecx
	mov	dword ptr [rbp - 596], eax
	jmp	.LBB16_47
.LBB16_10:
	movabs	rdi, .L.str.6
	movabs	rsi, .L.str.4
	movabs	rdx, .L__func__._ZN5Botan12_GLOBAL__N_113aes_decrypt_nEPKhPhmRKSt6vectorIjNS_16secure_allocatorIjEEE
	movabs	rcx, .L.str.5
	mov	r8d, 582
	call	_ZN5Botan17assertion_failureEPKcS1_S1_S1_i
.LBB16_11:                              
	mov	eax, 1281216001
	mov	ecx, 591387879
	mov	edx, dword ptr [x.38]
	mov	esi, dword ptr [y.39]
	mov	edi, edx
	add	edi, -948031397
	sub	edi, 1
	sub	edi, -948031397
	imul	edx, edi
	and	edx, 1
	cmp	edx, 0
	sete	r8b
	cmp	esi, 10
	setl	r9b
	mov	r10b, r8b
	and	r10b, r9b
	xor	r8b, r9b
	or	r10b, r8b
	test	r10b, 1
	cmovne	eax, ecx
	mov	dword ptr [rbp - 596], eax
	jmp	.LBB16_47
.LBB16_12:                              
	mov	eax, 1281216001
	mov	ecx, 3572147111
	xor	edx, edx
	mov	esi, dword ptr [x.38]
	mov	edi, dword ptr [y.39]
	sub	edx, 1
	mov	r8d, esi
	add	r8d, edx
	imul	esi, r8d
	and	esi, 1
	cmp	esi, 0
	sete	r9b
	cmp	edi, 10
	setl	r10b
	mov	r11b, r9b
	and	r11b, r10b
	xor	r9b, r10b
	or	r11b, r9b
	test	r11b, 1
	cmovne	eax, ecx
	mov	dword ptr [rbp - 596], eax
	jmp	.LBB16_47
.LBB16_13:                              
	mov	dword ptr [rbp - 596], 393155042
	jmp	.LBB16_47
.LBB16_14:                              
	mov	rdi, qword ptr [rbp - 72]
	call	_ZNKSt6vectorIjN5Botan16secure_allocatorIjEEE4sizeEv
	xor	esi, esi
	mov	ecx, 416
	mov	edx, ecx
	lea	rdi, [rbp - 496]
	movabs	r8, 1533643255755489012
	add	rax, r8
	sub	rax, 4
	sub	rax, r8
	shr	rax, 2
	mov	qword ptr [rbp - 80], rax
	call	memset
	mov	qword ptr [rbp - 504], 0
	mov	dword ptr [rbp - 596], 564415698
	jmp	.LBB16_47
.LBB16_15:                              
	mov	eax, 4092225833
	mov	ecx, 3422140384
	movabs	rdx, 2488989850658402117
	mov	rsi, qword ptr [rbp - 504]
	mov	rdi, qword ptr [rbp - 80]
	sub	rdi, rdx
	sub	rdi, 1
	add	rdi, rdx
	cmp	rsi, rdi
	cmovb	eax, ecx
	mov	dword ptr [rbp - 596], eax
	jmp	.LBB16_47
.LBB16_16:                              
	lea	rax, [rbp - 496]
	mov	rcx, qword ptr [rbp - 504]
	shl	rcx, 3
	shl	rcx, 2
	add	rax, rcx
	mov	rdi, qword ptr [rbp - 72]
	mov	qword ptr [rbp - 784], rax 
	call	_ZNKSt6vectorIjN5Botan16secure_allocatorIjEEE4dataEv
	xor	edx, edx
	mov	ecx, edx
	mov	rdi, qword ptr [rbp - 504]
	shl	rdi, 2
	sub	rcx, 4
	sub	rdi, rcx
	mov	rcx, qword ptr [rbp - 784] 
	mov	qword ptr [rbp - 792], rdi 
	mov	rdi, rcx
	mov	rsi, rax
	mov	rdx, qword ptr [rbp - 792] 
	call	_ZN5Botan12_GLOBAL__N_19ks_expandEPjPKjm
	mov	dword ptr [rbp - 596], 2124947038
	jmp	.LBB16_47
.LBB16_17:                              
	movabs	rax, -9215536274446376184
	mov	rcx, qword ptr [rbp - 504]
	sub	rcx, rax
	add	rcx, 1
	add	rcx, rax
	mov	qword ptr [rbp - 504], rcx
	mov	dword ptr [rbp - 596], 564415698
	jmp	.LBB16_47
.LBB16_18:                              
	mov	qword ptr [rbp - 512], 16
	mov	qword ptr [rbp - 520], 2
	mov	dword ptr [rbp - 596], -69815529
	jmp	.LBB16_47
.LBB16_19:                              
	mov	eax, 1741718379
	mov	ecx, 3272628672
	cmp	qword ptr [rbp - 64], 0
	cmova	eax, ecx
	mov	dword ptr [rbp - 596], eax
	jmp	.LBB16_47
.LBB16_20:                              
	lea	rdi, [rbp - 64]
	lea	rsi, [rbp - 520]
	call	_ZSt3minImERKT_S2_S2_
	mov	ecx, 8
	mov	esi, ecx
	lea	rdi, [rbp - 560]
	xor	ecx, ecx
	mov	edx, 32

	mov	rax, qword ptr [rax]
	mov	qword ptr [rbp - 528], rax
	mov	rax, rdi
	mov	qword ptr [rbp - 800], rdi 
	mov	rdi, rax
	mov	qword ptr [rbp - 808], rsi 
	mov	esi, ecx
	call	memset
	mov	rdi, qword ptr [rbp - 800] 
	mov	rsi, qword ptr [rbp - 808] 
	call	_ZN5Botan2CT6poisonIjEEvPKT_m
	lea	rdi, [rbp - 560]
	mov	rsi, qword ptr [rbp - 48]
	mov	rax, qword ptr [rbp - 528]
	shl	rax, 2
	mov	rdx, rax
	call	_ZN5Botan7load_beIjEEvPT_PKhm
	mov	qword ptr [rbp - 568], 0
	mov	dword ptr [rbp - 596], -1510311482
	jmp	.LBB16_47
.LBB16_21:                              
	mov	eax, 2432817280
	mov	ecx, 3847269374
	mov	edx, dword ptr [x.38]
	mov	esi, dword ptr [y.39]
	mov	edi, edx
	add	edi, -1486149553
	sub	edi, 1
	sub	edi, -1486149553
	imul	edx, edi
	and	edx, 1
	cmp	edx, 0
	sete	r8b
	cmp	esi, 10
	setl	r9b
	mov	r10b, r8b
	and	r10b, r9b
	xor	r8b, r9b
	or	r10b, r8b
	test	r10b, 1
	cmovne	eax, ecx
	mov	dword ptr [rbp - 596], eax
	jmp	.LBB16_47
.LBB16_22:                              
	mov	eax, 2432817280
	mov	ecx, 3092504249
	mov	dl, 1
	cmp	qword ptr [rbp - 568], 8
	setne	sil
	and	sil, 1
	mov	byte ptr [rbp - 33], sil
	mov	edi, dword ptr [x.38]
	mov	r8d, dword ptr [y.39]
	mov	r9d, edi
	sub	r9d, -2006140525
	sub	r9d, 1
	add	r9d, -2006140525
	imul	edi, r9d
	and	edi, 1
	cmp	edi, 0
	sete	sil
	cmp	r8d, 10
	setl	r10b
	mov	r11b, sil
	xor	r11b, -1
	mov	bl, r10b
	xor	bl, -1
	xor	dl, 1
	mov	r14b, r11b
	and	r14b, -1
	and	sil, dl
	mov	r15b, bl
	and	r15b, -1
	and	r10b, dl
	or	r14b, sil
	or	r15b, r10b
	xor	r14b, r15b
	or	r11b, bl
	xor	r11b, -1
	or	dl, 1
	and	r11b, dl
	or	r14b, r11b
	test	r14b, 1
	cmovne	eax, ecx
	mov	dword ptr [rbp - 596], eax
	jmp	.LBB16_47
.LBB16_23:                              
	mov	eax, 3303806039
	mov	ecx, 1380206634
	mov	dl, byte ptr [rbp - 33]
	test	dl, 1
	cmovne	eax, ecx
	mov	dword ptr [rbp - 596], eax
	jmp	.LBB16_47
.LBB16_24:                              
	mov	rdi, qword ptr [rbp - 72]
	mov	rax, qword ptr [rbp - 568]
	and	rax, 3
	mov	rsi, rax
	call	_ZNKSt6vectorIjN5Botan16secure_allocatorIjEEEixEm
	mov	ecx, dword ptr [rax]
	mov	rax, qword ptr [rbp - 568]
	mov	edx, dword ptr [rbp + 4*rax - 560]
	mov	r8d, edx
	xor	r8d, -1
	mov	r9d, ecx
	and	r9d, r8d
	xor	ecx, -1
	and	edx, ecx
	or	r9d, edx
	mov	dword ptr [rbp + 4*rax - 560], r9d
	mov	dword ptr [rbp - 596], 1734420682
	jmp	.LBB16_47
.LBB16_25:                              
	mov	eax, 1328386280
	mov	ecx, 1667427019
	mov	dl, 1
	mov	esi, dword ptr [x.38]
	mov	edi, dword ptr [y.39]
	mov	r8d, esi
	add	r8d, -469120464
	sub	r8d, 1
	sub	r8d, -469120464
	imul	esi, r8d
	and	esi, 1
	cmp	esi, 0
	sete	r9b
	cmp	edi, 10
	setl	r10b
	mov	r11b, r9b
	xor	r11b, -1
	mov	bl, r10b
	xor	bl, -1
	xor	dl, 1
	mov	r14b, r11b
	and	r14b, -1
	and	r9b, dl
	mov	r15b, bl
	and	r15b, -1
	and	r10b, dl
	or	r14b, r9b
	or	r15b, r10b
	xor	r14b, r15b
	or	r11b, bl
	xor	r11b, -1
	or	dl, 1
	and	r11b, dl
	or	r14b, r11b
	test	r14b, 1
	cmovne	eax, ecx
	mov	dword ptr [rbp - 596], eax
	jmp	.LBB16_47
.LBB16_26:                              
	mov	eax, 1328386280
	mov	ecx, 380814908
	xor	edx, edx
	xor	esi, esi
	mov	edi, esi
	mov	r8, qword ptr [rbp - 568]
	sub	rdi, 1
	sub	r8, rdi
	mov	qword ptr [rbp - 568], r8
	mov	esi, dword ptr [x.38]
	mov	r9d, dword ptr [y.39]
	sub	edx, 1
	mov	r10d, esi
	add	r10d, edx
	imul	esi, r10d
	and	esi, 1
	cmp	esi, 0
	sete	r11b
	cmp	r9d, 10
	setl	bl
	mov	r14b, r11b
	and	r14b, bl
	xor	r11b, bl
	or	r14b, r11b
	test	r14b, 1
	cmovne	eax, ecx
	mov	dword ptr [rbp - 596], eax
	jmp	.LBB16_47
.LBB16_27:                              
	mov	dword ptr [rbp - 596], -1510311482
	jmp	.LBB16_47
.LBB16_28:                              
	lea	rdi, [rbp - 560]
	call	_ZN5Botan12_GLOBAL__N_113bit_transposeEPj
	mov	qword ptr [rbp - 576], 0
	mov	dword ptr [rbp - 596], 1911761291
	jmp	.LBB16_47
.LBB16_29:                              
	mov	eax, 915694915
	mov	ecx, 1581611527
	xor	edx, edx
	mov	esi, edx
	mov	rdi, qword ptr [rbp - 576]
	mov	r8, qword ptr [rbp - 80]
	sub	rsi, 1
	add	r8, rsi
	cmp	rdi, r8
	cmovne	eax, ecx
	mov	dword ptr [rbp - 596], eax
	jmp	.LBB16_47
.LBB16_30:                              
	lea	rdi, [rbp - 560]
	call	_ZN5Botan12_GLOBAL__N_112AES_INV_SBOXEPj
	lea	rdi, [rbp - 560]
	call	_ZN5Botan12_GLOBAL__N_114inv_shift_rowsEPj
	lea	rdi, [rbp - 560]
	call	_ZN5Botan12_GLOBAL__N_115inv_mix_columnsEPj
	mov	qword ptr [rbp - 584], 0
	mov	dword ptr [rbp - 596], -1260771176
	jmp	.LBB16_47
.LBB16_31:                              
	mov	eax, 712626673
	mov	ecx, 672364364
	cmp	qword ptr [rbp - 584], 8
	cmovne	eax, ecx
	mov	dword ptr [rbp - 596], eax
	jmp	.LBB16_47
.LBB16_32:                              
	movabs	rax, -8681724485456248185
	mov	rcx, qword ptr [rbp - 576]
	shl	rcx, 3
	mov	rdx, qword ptr [rbp - 584]
	add	rcx, rax
	add	rcx, rdx
	sub	rcx, rax
	mov	esi, dword ptr [rbp + 4*rcx - 496]
	mov	rax, qword ptr [rbp - 584]
	mov	edi, dword ptr [rbp + 4*rax - 560]
	mov	r8d, edi
	xor	r8d, -1
	mov	r9d, esi
	and	r9d, r8d
	xor	esi, -1
	and	edi, esi
	or	r9d, edi
	mov	dword ptr [rbp + 4*rax - 560], r9d
	mov	dword ptr [rbp - 596], 41594680
	jmp	.LBB16_47
.LBB16_33:                              
	xor	eax, eax
	mov	ecx, eax
	mov	rdx, qword ptr [rbp - 584]
	mov	rsi, rcx
	sub	rsi, rdx
	mov	rdx, rcx
	sub	rdx, 1
	add	rsi, rdx
	sub	rcx, rsi
	mov	qword ptr [rbp - 584], rcx
	mov	dword ptr [rbp - 596], -1260771176
	jmp	.LBB16_47
.LBB16_34:                              
	mov	dword ptr [rbp - 596], -1205864233
	jmp	.LBB16_47
.LBB16_35:                              
	xor	eax, eax
	mov	ecx, eax
	mov	rdx, qword ptr [rbp - 576]
	sub	rcx, 1
	sub	rdx, rcx
	mov	qword ptr [rbp - 576], rdx
	mov	dword ptr [rbp - 596], 1911761291
	jmp	.LBB16_47
.LBB16_36:                              
	lea	rdi, [rbp - 560]
	call	_ZN5Botan12_GLOBAL__N_112AES_INV_SBOXEPj
	lea	rdi, [rbp - 560]
	call	_ZN5Botan12_GLOBAL__N_114inv_shift_rowsEPj
	lea	rdi, [rbp - 560]
	call	_ZN5Botan12_GLOBAL__N_113bit_transposeEPj
	mov	qword ptr [rbp - 592], 0
	mov	dword ptr [rbp - 596], -1458963224
	jmp	.LBB16_47
.LBB16_37:                              
	mov	eax, 3790628660
	mov	ecx, 1485033329
	cmp	qword ptr [rbp - 592], 8
	cmovne	eax, ecx
	mov	dword ptr [rbp - 596], eax
	jmp	.LBB16_47
.LBB16_38:                              
	movabs	rax, 2541977267176387648
	mov	rdi, qword ptr [rbp - 72]
	mov	rcx, qword ptr [rbp - 80]
	shl	rcx, 2
	mov	rdx, qword ptr [rbp - 592]
	and	rdx, 3
	sub	rcx, rax
	add	rcx, rdx
	add	rcx, rax
	mov	rsi, rcx
	call	_ZNKSt6vectorIjN5Botan16secure_allocatorIjEEEixEm
	mov	r8d, dword ptr [rax]
	mov	rax, qword ptr [rbp - 592]
	mov	r9d, dword ptr [rbp + 4*rax - 560]
	mov	r10d, r9d
	xor	r10d, -1
	mov	r11d, r8d
	and	r11d, r10d
	xor	r8d, -1
	and	r9d, r8d
	or	r11d, r9d
	mov	dword ptr [rbp + 4*rax - 560], r11d
	mov	dword ptr [rbp - 596], 72387109
	jmp	.LBB16_47
.LBB16_39:                              
	xor	eax, eax
	mov	ecx, eax
	mov	rdx, qword ptr [rbp - 592]
	sub	rcx, 1
	sub	rdx, rcx
	mov	qword ptr [rbp - 592], rdx
	mov	dword ptr [rbp - 596], -1458963224
	jmp	.LBB16_47
.LBB16_40:                              
	mov	eax, 8
	mov	esi, eax
	lea	rdi, [rbp - 560]
	call	_ZN5Botan2CT8unpoisonIjEEvPKT_m
	lea	rdx, [rbp - 560]
	mov	rdi, qword ptr [rbp - 56]
	mov	rsi, qword ptr [rbp - 528]
	shl	rsi, 2
	shl	rsi, 2
	call	_ZN5Botan11copy_out_beIjEEvPhmPKT_
	xor	eax, eax
	mov	edx, eax
	mov	rsi, qword ptr [rbp - 528]
	shl	rsi, 4
	add	rsi, qword ptr [rbp - 48]
	mov	qword ptr [rbp - 48], rsi
	mov	rsi, qword ptr [rbp - 528]
	shl	rsi, 4
	add	rsi, qword ptr [rbp - 56]
	mov	qword ptr [rbp - 56], rsi
	mov	rsi, qword ptr [rbp - 528]
	mov	rdi, qword ptr [rbp - 64]
	sub	rdx, rsi
	add	rdi, rdx
	mov	qword ptr [rbp - 64], rdi
	mov	dword ptr [rbp - 596], -69815529
	jmp	.LBB16_47
.LBB16_41:
	add	rsp, 800
	pop	rbx
	pop	r12
	pop	r14
	pop	r15
	pop	rbp
	ret
.LBB16_42:                              
	mov	rdi, qword ptr [rbp - 72]
	call	_ZNKSt6vectorIjN5Botan16secure_allocatorIjEEE4sizeEv
	mov	dword ptr [rbp - 596], 2121883825
	mov	qword ptr [rbp - 816], rax 
	jmp	.LBB16_47
.LBB16_43:                              
	mov	rdi, qword ptr [rbp - 72]
	call	_ZNKSt6vectorIjN5Botan16secure_allocatorIjEEE4sizeEv
	mov	dword ptr [rbp - 596], 1091077169
	mov	qword ptr [rbp - 824], rax 
	jmp	.LBB16_47
.LBB16_44:                              
	mov	dword ptr [rbp - 596], 591387879
	jmp	.LBB16_47
.LBB16_45:                              
	mov	dword ptr [rbp - 596], -447697922
	jmp	.LBB16_47
.LBB16_46:                              
	movabs	rax, 9042161367763873218
	mov	rcx, qword ptr [rbp - 568]
	sub	rcx, rax
	add	rcx, 1
	add	rcx, rax
	mov	qword ptr [rbp - 568], rcx
	mov	dword ptr [rbp - 596], 1667427019
.LBB16_47:                              
	jmp	.LBB16_1
.Lfunc_end16:
	.size	_ZN5Botan12_GLOBAL__N_113aes_decrypt_nEPKhPhmRKSt6vectorIjNS_16secure_allocatorIjEEE, .Lfunc_end16-_ZN5Botan12_GLOBAL__N_113aes_decrypt_nEPKhPhmRKSt6vectorIjNS_16secure_allocatorIjEEE
	.cfi_endproc

	.globl	_ZN5Botan7AES_12812key_scheduleEPKhm 
	.p2align	4, 0x90
	.type	_ZN5Botan7AES_12812key_scheduleEPKhm,@function
_ZN5Botan7AES_12812key_scheduleEPKhm:   
	.cfi_startproc

	push	rbp
.Lcfi79:
	.cfi_def_cfa_offset 16
.Lcfi80:
	.cfi_offset rbp, -16
	mov	rbp, rsp
.Lcfi81:
	.cfi_def_cfa_register rbp
	push	r15
	push	r14
	push	r13
	push	r12
	push	rbx
	sub	rsp, 248
.Lcfi82:
	.cfi_offset rbx, -56
.Lcfi83:
	.cfi_offset r12, -48
.Lcfi84:
	.cfi_offset r13, -40
.Lcfi85:
	.cfi_offset r14, -32
.Lcfi86:
	.cfi_offset r15, -24
	mov	eax, dword ptr [x.40]
	mov	ecx, dword ptr [y.41]
	mov	r8d, eax
	sub	r8d, -881584729
	sub	r8d, 1
	add	r8d, -881584729
	imul	eax, r8d
	and	eax, 1
	cmp	eax, 0
	sete	r9b
	and	r9b, 1
	mov	byte ptr [rbp - 74], r9b
	cmp	ecx, 10
	setl	r9b
	and	r9b, 1
	mov	byte ptr [rbp - 73], r9b
	mov	dword ptr [rbp - 80], -1467610696
	mov	qword ptr [rbp - 88], rsi 
	mov	qword ptr [rbp - 96], rdi 
	mov	qword ptr [rbp - 104], rdx 
.LBB17_1:                               
	mov	eax, dword ptr [rbp - 80]
	mov	ecx, eax
	sub	ecx, -1787929613
	mov	dword ptr [rbp - 108], eax 
	mov	dword ptr [rbp - 112], ecx 
	je	.LBB17_6
	jmp	.LBB17_27
.LBB17_27:                              
	mov	eax, dword ptr [rbp - 108] 
	sub	eax, -1579634061
	mov	dword ptr [rbp - 116], eax 
	je	.LBB17_20
	jmp	.LBB17_28
.LBB17_28:                              
	mov	eax, dword ptr [rbp - 108] 
	sub	eax, -1506517712
	mov	dword ptr [rbp - 120], eax 
	je	.LBB17_9
	jmp	.LBB17_29
.LBB17_29:                              
	mov	eax, dword ptr [rbp - 108] 
	sub	eax, -1475221856
	mov	dword ptr [rbp - 124], eax 
	je	.LBB17_10
	jmp	.LBB17_30
.LBB17_30:                              
	mov	eax, dword ptr [rbp - 108] 
	sub	eax, -1467610696
	mov	dword ptr [rbp - 128], eax 
	je	.LBB17_3
	jmp	.LBB17_31
.LBB17_31:                              
	mov	eax, dword ptr [rbp - 108] 
	sub	eax, -1170936974
	mov	dword ptr [rbp - 132], eax 
	je	.LBB17_14
	jmp	.LBB17_32
.LBB17_32:                              
	mov	eax, dword ptr [rbp - 108] 
	sub	eax, -890390349
	mov	dword ptr [rbp - 136], eax 
	je	.LBB17_11
	jmp	.LBB17_33
.LBB17_33:                              
	mov	eax, dword ptr [rbp - 108] 
	sub	eax, -612289811
	mov	dword ptr [rbp - 140], eax 
	je	.LBB17_16
	jmp	.LBB17_34
.LBB17_34:                              
	mov	eax, dword ptr [rbp - 108] 
	sub	eax, -537707443
	mov	dword ptr [rbp - 144], eax 
	je	.LBB17_22
	jmp	.LBB17_35
.LBB17_35:                              
	mov	eax, dword ptr [rbp - 108] 
	sub	eax, -506484629
	mov	dword ptr [rbp - 148], eax 
	je	.LBB17_8
	jmp	.LBB17_36
.LBB17_36:                              
	mov	eax, dword ptr [rbp - 108] 
	sub	eax, -497853698
	mov	dword ptr [rbp - 152], eax 
	je	.LBB17_13
	jmp	.LBB17_37
.LBB17_37:                              
	mov	eax, dword ptr [rbp - 108] 
	sub	eax, 6771
	mov	dword ptr [rbp - 156], eax 
	je	.LBB17_12
	jmp	.LBB17_38
.LBB17_38:                              
	mov	eax, dword ptr [rbp - 108] 
	sub	eax, 72103240
	mov	dword ptr [rbp - 160], eax 
	je	.LBB17_15
	jmp	.LBB17_39
.LBB17_39:                              
	mov	eax, dword ptr [rbp - 108] 
	sub	eax, 138582109
	mov	dword ptr [rbp - 164], eax 
	je	.LBB17_18
	jmp	.LBB17_40
.LBB17_40:                              
	mov	eax, dword ptr [rbp - 108] 
	sub	eax, 143968618
	mov	dword ptr [rbp - 168], eax 
	je	.LBB17_5
	jmp	.LBB17_41
.LBB17_41:                              
	mov	eax, dword ptr [rbp - 108] 
	sub	eax, 311207646
	mov	dword ptr [rbp - 172], eax 
	je	.LBB17_24
	jmp	.LBB17_42
.LBB17_42:                              
	mov	eax, dword ptr [rbp - 108] 
	sub	eax, 414071215
	mov	dword ptr [rbp - 176], eax 
	je	.LBB17_7
	jmp	.LBB17_43
.LBB17_43:                              
	mov	eax, dword ptr [rbp - 108] 
	sub	eax, 1013442026
	mov	dword ptr [rbp - 180], eax 
	je	.LBB17_21
	jmp	.LBB17_44
.LBB17_44:                              
	mov	eax, dword ptr [rbp - 108] 
	sub	eax, 1079055295
	mov	dword ptr [rbp - 184], eax 
	je	.LBB17_25
	jmp	.LBB17_45
.LBB17_45:                              
	mov	eax, dword ptr [rbp - 108] 
	sub	eax, 1454909696
	mov	dword ptr [rbp - 188], eax 
	je	.LBB17_4
	jmp	.LBB17_46
.LBB17_46:                              
	mov	eax, dword ptr [rbp - 108] 
	sub	eax, 1714992484
	mov	dword ptr [rbp - 192], eax 
	je	.LBB17_19
	jmp	.LBB17_47
.LBB17_47:                              
	mov	eax, dword ptr [rbp - 108] 
	sub	eax, 1839446850
	mov	dword ptr [rbp - 196], eax 
	je	.LBB17_23
	jmp	.LBB17_48
.LBB17_48:                              
	mov	eax, dword ptr [rbp - 108] 
	sub	eax, 2091256237
	mov	dword ptr [rbp - 200], eax 
	je	.LBB17_17
	jmp	.LBB17_2
.LBB17_2:                               
	jmp	.LBB17_26
.LBB17_3:                               
	mov	eax, 1013442026
	mov	ecx, 1454909696
	mov	dl, 1
	mov	sil, byte ptr [rbp - 74]
	mov	dil, byte ptr [rbp - 73]
	mov	r8b, sil
	xor	r8b, -1
	mov	r9b, dil
	xor	r9b, -1
	xor	dl, 1
	mov	r10b, r8b
	and	r10b, -1
	and	sil, dl
	mov	r11b, r9b
	and	r11b, -1
	and	dil, dl
	or	r10b, sil
	or	r11b, dil
	xor	r10b, r11b
	or	r8b, r9b
	xor	r8b, -1
	or	dl, 1
	and	r8b, dl
	or	r10b, r8b
	test	r10b, 1
	cmovne	eax, ecx
	mov	dword ptr [rbp - 80], eax
	jmp	.LBB17_26
.LBB17_4:                               
	mov	rax, rsp
	add	rax, -16
	mov	rsp, rax
	mov	rcx, rsp
	add	rcx, -16
	mov	rsp, rcx
	mov	qword ptr [rbp - 72], rcx
	mov	rcx, rsp
	add	rcx, -16
	mov	rsp, rcx
	mov	qword ptr [rbp - 64], rcx
	mov	rcx, qword ptr [rbp - 96] 
	mov	qword ptr [rax], rcx
	mov	rdx, qword ptr [rbp - 72]
	mov	rsi, qword ptr [rbp - 88] 
	mov	qword ptr [rdx], rsi
	mov	rdx, qword ptr [rbp - 64]
	mov	rdi, qword ptr [rbp - 104] 
	mov	qword ptr [rdx], rdi
	mov	rax, qword ptr [rax]
	mov	qword ptr [rbp - 56], rax
	call	_ZN5Botan5CPUID10has_aes_niEv
	mov	r8d, 1013442026
	mov	r9d, 143968618
	and	al, 1
	mov	byte ptr [rbp - 42], al
	mov	r10d, dword ptr [x.40]
	mov	r11d, dword ptr [y.41]
	mov	ebx, r10d
	sub	ebx, 1214687070
	sub	ebx, 1
	add	ebx, 1214687070
	imul	r10d, ebx
	and	r10d, 1
	cmp	r10d, 0
	sete	al
	cmp	r11d, 10
	setl	r14b
	mov	r15b, al
	and	r15b, r14b
	xor	al, r14b
	or	r15b, al
	test	r15b, 1
	cmovne	r8d, r9d
	mov	dword ptr [rbp - 80], r8d
	jmp	.LBB17_26
.LBB17_5:                               
	mov	eax, 414071215
	mov	ecx, 2507037683
	mov	dl, byte ptr [rbp - 42]
	test	dl, 1
	cmovne	eax, ecx
	mov	dword ptr [rbp - 80], eax
	jmp	.LBB17_26
.LBB17_6:                               
	mov	rax, qword ptr [rbp - 72]
	mov	rsi, qword ptr [rax]
	mov	rax, qword ptr [rbp - 64]
	mov	rdx, qword ptr [rax]
	mov	rdi, qword ptr [rbp - 56]
	call	_ZN5Botan7AES_12818aesni_key_scheduleEPKhm
	mov	dword ptr [rbp - 80], 138582109
	jmp	.LBB17_26
.LBB17_7:                               
	call	_ZN5Botan5CPUID10has_hw_aesEv
	mov	ecx, 3404576947
	mov	edx, 3788482667
	test	al, 1
	cmovne	ecx, edx
	mov	dword ptr [rbp - 80], ecx
	jmp	.LBB17_26
.LBB17_8:                               
	mov	eax, 3757259853
	mov	ecx, 2788449584
	mov	dl, 1
	mov	esi, dword ptr [x.40]
	mov	edi, dword ptr [y.41]
	mov	r8d, esi
	add	r8d, -2121646202
	sub	r8d, 1
	sub	r8d, -2121646202
	imul	esi, r8d
	and	esi, 1
	cmp	esi, 0
	sete	r9b
	cmp	edi, 10
	setl	r10b
	mov	r11b, r9b
	xor	r11b, -1
	mov	bl, r10b
	xor	bl, -1
	xor	dl, 1
	mov	r14b, r11b
	and	r14b, -1
	and	r9b, dl
	mov	r15b, bl
	and	r15b, -1
	and	r10b, dl
	or	r14b, r9b
	or	r15b, r10b
	xor	r14b, r15b
	or	r11b, bl
	xor	r11b, -1
	or	dl, 1
	and	r11b, dl
	or	r14b, r11b
	test	r14b, 1
	cmovne	eax, ecx
	mov	dword ptr [rbp - 80], eax
	jmp	.LBB17_26
.LBB17_9:                               
	mov	rax, qword ptr [rbp - 72]
	mov	rdi, qword ptr [rax]
	mov	rax, qword ptr [rbp - 64]
	mov	rsi, qword ptr [rax]
	mov	rax, qword ptr [rbp - 56]
	add	rax, 8
	mov	rcx, qword ptr [rbp - 56]
	add	rcx, 32
	mov	qword ptr [rbp - 208], rdi 
	mov	qword ptr [rbp - 216], rsi 
	mov	qword ptr [rbp - 224], rax 
	mov	qword ptr [rbp - 232], rcx 
	call	_ZN5Botan5CPUID16is_little_endianEv
	and	al, 1
	movzx	r8d, al
	mov	rdi, qword ptr [rbp - 208] 
	mov	rsi, qword ptr [rbp - 216] 
	mov	rdx, qword ptr [rbp - 224] 
	mov	rcx, qword ptr [rbp - 232] 
	call	_ZN5Botan12_GLOBAL__N_116aes_key_scheduleEPKhmRSt6vectorIjNS_16secure_allocatorIjEEES7_b
	mov	r8d, 3757259853
	mov	r9d, 2819745440
	mov	r10d, dword ptr [x.40]
	mov	r11d, dword ptr [y.41]
	mov	ebx, r10d
	sub	ebx, -629698824
	sub	ebx, 1
	add	ebx, -629698824
	imul	r10d, ebx
	and	r10d, 1
	cmp	r10d, 0
	sete	al
	cmp	r11d, 10
	setl	r14b
	mov	r15b, al
	and	r15b, r14b
	xor	al, r14b
	or	r15b, al
	test	r15b, 1
	cmovne	r8d, r9d
	mov	dword ptr [rbp - 80], r8d
	jmp	.LBB17_26
.LBB17_10:                              
	mov	dword ptr [rbp - 80], 138582109
	jmp	.LBB17_26
.LBB17_11:                              
	mov	eax, 1839446850
	mov	ecx, 6771
	mov	dl, 1
	xor	esi, esi
	mov	edi, dword ptr [x.40]
	mov	r8d, dword ptr [y.41]
	sub	esi, 1
	mov	r9d, edi
	add	r9d, esi
	imul	edi, r9d
	and	edi, 1
	cmp	edi, 0
	sete	r10b
	cmp	r8d, 10
	setl	r11b
	mov	bl, r10b
	xor	bl, -1
	mov	r14b, r11b
	xor	r14b, -1
	xor	dl, 1
	mov	r15b, bl
	and	r15b, -1
	and	r10b, dl
	mov	r12b, r14b
	and	r12b, -1
	and	r11b, dl
	or	r15b, r10b
	or	r12b, r11b
	xor	r15b, r12b
	or	bl, r14b
	xor	bl, -1
	or	dl, 1
	and	bl, dl
	or	r15b, bl
	test	r15b, 1
	cmovne	eax, ecx
	mov	dword ptr [rbp - 80], eax
	jmp	.LBB17_26
.LBB17_12:                              
	call	_ZN5Botan5CPUID9has_vpermEv
	mov	ecx, 1839446850
	mov	edx, 3797113598
	mov	sil, 1
	and	al, 1
	mov	byte ptr [rbp - 41], al
	mov	edi, dword ptr [x.40]
	mov	r8d, dword ptr [y.41]
	mov	r9d, edi
	sub	r9d, -903547325
	sub	r9d, 1
	add	r9d, -903547325
	imul	edi, r9d
	and	edi, 1
	cmp	edi, 0
	sete	al
	cmp	r8d, 10
	setl	r10b
	mov	r11b, al
	xor	r11b, -1
	mov	bl, r10b
	xor	bl, -1
	xor	sil, 0
	mov	r14b, r11b
	and	r14b, 0
	and	al, sil
	mov	r15b, bl
	and	r15b, 0
	and	r10b, sil
	or	r14b, al
	or	r15b, r10b
	xor	r14b, r15b
	or	r11b, bl
	xor	r11b, -1
	or	sil, 0
	and	r11b, sil
	or	r14b, r11b
	test	r14b, 1
	cmovne	ecx, edx
	mov	dword ptr [rbp - 80], ecx
	jmp	.LBB17_26
.LBB17_13:                              
	mov	eax, 72103240
	mov	ecx, 3124030322
	mov	dl, byte ptr [rbp - 41]
	test	dl, 1
	cmovne	eax, ecx
	mov	dword ptr [rbp - 80], eax
	jmp	.LBB17_26
.LBB17_14:                              
	mov	rax, qword ptr [rbp - 72]
	mov	rsi, qword ptr [rax]
	mov	rax, qword ptr [rbp - 64]
	mov	rdx, qword ptr [rax]
	mov	rdi, qword ptr [rbp - 56]
	call	_ZN5Botan7AES_12818vperm_key_scheduleEPKhm
	mov	dword ptr [rbp - 80], 138582109
	jmp	.LBB17_26
.LBB17_15:                              
	mov	eax, 311207646
	mov	ecx, 3682677485
	mov	dl, 1
	mov	esi, dword ptr [x.40]
	mov	edi, dword ptr [y.41]
	mov	r8d, esi
	add	r8d, -1769084267
	sub	r8d, 1
	sub	r8d, -1769084267
	imul	esi, r8d
	and	esi, 1
	cmp	esi, 0
	sete	r9b
	cmp	edi, 10
	setl	r10b
	mov	r11b, r9b
	xor	r11b, -1
	mov	bl, r10b
	xor	bl, -1
	xor	dl, 0
	mov	r14b, r11b
	and	r14b, 0
	and	r9b, dl
	mov	r15b, bl
	and	r15b, 0
	and	r10b, dl
	or	r14b, r9b
	or	r15b, r10b
	xor	r14b, r15b
	or	r11b, bl
	xor	r11b, -1
	or	dl, 0
	and	r11b, dl
	or	r14b, r11b
	test	r14b, 1
	cmovne	eax, ecx
	mov	dword ptr [rbp - 80], eax
	jmp	.LBB17_26
.LBB17_16:                              
	xor	r8d, r8d
	mov	rax, qword ptr [rbp - 72]
	mov	rdi, qword ptr [rax]
	mov	rax, qword ptr [rbp - 64]
	mov	rsi, qword ptr [rax]
	mov	rax, qword ptr [rbp - 56]
	add	rax, 8
	mov	rcx, qword ptr [rbp - 56]
	add	rcx, 32
	mov	rdx, rax
	call	_ZN5Botan12_GLOBAL__N_116aes_key_scheduleEPKhmRSt6vectorIjNS_16secure_allocatorIjEEES7_b
	mov	r8d, 311207646
	mov	r9d, 2091256237
	xor	r10d, r10d
	mov	r11d, dword ptr [x.40]
	mov	ebx, dword ptr [y.41]
	sub	r10d, 1
	mov	r14d, r11d
	add	r14d, r10d
	imul	r11d, r14d
	and	r11d, 1
	cmp	r11d, 0
	sete	r15b
	cmp	ebx, 10
	setl	r12b
	mov	r13b, r15b
	and	r13b, r12b
	xor	r15b, r12b
	or	r13b, r15b
	test	r13b, 1
	cmovne	r8d, r9d
	mov	dword ptr [rbp - 80], r8d
	jmp	.LBB17_26
.LBB17_17:                              
	mov	dword ptr [rbp - 80], 138582109
	jmp	.LBB17_26
.LBB17_18:                              
	mov	eax, 1079055295
	mov	ecx, 1714992484
	mov	dl, 1
	xor	esi, esi
	mov	edi, dword ptr [x.40]
	mov	r8d, dword ptr [y.41]
	sub	esi, 1
	mov	r9d, edi
	add	r9d, esi
	imul	edi, r9d
	and	edi, 1
	cmp	edi, 0
	sete	r10b
	cmp	r8d, 10
	setl	r11b
	mov	bl, r10b
	xor	bl, -1
	mov	r14b, r11b
	xor	r14b, -1
	xor	dl, 0
	mov	r15b, bl
	and	r15b, 0
	and	r10b, dl
	mov	r12b, r14b
	and	r12b, 0
	and	r11b, dl
	or	r15b, r10b
	or	r12b, r11b
	xor	r15b, r12b
	or	bl, r14b
	xor	bl, -1
	or	dl, 0
	and	bl, dl
	or	r15b, bl
	test	r15b, 1
	cmovne	eax, ecx
	mov	dword ptr [rbp - 80], eax
	jmp	.LBB17_26
.LBB17_19:                              
	mov	eax, 1079055295
	mov	ecx, 2715333235
	xor	edx, edx
	mov	esi, dword ptr [x.40]
	mov	edi, dword ptr [y.41]
	sub	edx, 1
	mov	r8d, esi
	add	r8d, edx
	imul	esi, r8d
	and	esi, 1
	cmp	esi, 0
	sete	r9b
	cmp	edi, 10
	setl	r10b
	mov	r11b, r9b
	and	r11b, r10b
	xor	r9b, r10b
	or	r11b, r9b
	test	r11b, 1
	cmovne	eax, ecx
	mov	dword ptr [rbp - 80], eax
	jmp	.LBB17_26
.LBB17_20:
	lea	rsp, [rbp - 40]
	pop	rbx
	pop	r12
	pop	r13
	pop	r14
	pop	r15
	pop	rbp
	ret
.LBB17_21:                              
	mov	rax, rsp
	add	rax, -16
	mov	rsp, rax
	mov	rcx, rsp
	add	rcx, -16
	mov	rsp, rcx
	mov	rdx, rsp
	add	rdx, -16
	mov	rsp, rdx
	mov	rsi, qword ptr [rbp - 96] 
	mov	qword ptr [rax], rsi
	mov	rax, qword ptr [rbp - 88] 
	mov	qword ptr [rcx], rax
	mov	rcx, qword ptr [rbp - 104] 
	mov	qword ptr [rdx], rcx
	call	_ZN5Botan5CPUID10has_aes_niEv
	mov	dword ptr [rbp - 80], 1454909696
	mov	byte ptr [rbp - 233], al 
	jmp	.LBB17_26
.LBB17_22:                              
	mov	rax, qword ptr [rbp - 72]
	mov	rdi, qword ptr [rax]
	mov	rax, qword ptr [rbp - 64]
	mov	rsi, qword ptr [rax]
	mov	rax, qword ptr [rbp - 56]
	add	rax, 8
	mov	rcx, qword ptr [rbp - 56]
	add	rcx, 32
	mov	qword ptr [rbp - 248], rdi 
	mov	qword ptr [rbp - 256], rsi 
	mov	qword ptr [rbp - 264], rax 
	mov	qword ptr [rbp - 272], rcx 
	call	_ZN5Botan5CPUID16is_little_endianEv
	and	al, 1
	movzx	r8d, al
	mov	rdi, qword ptr [rbp - 248] 
	mov	rsi, qword ptr [rbp - 256] 
	mov	rdx, qword ptr [rbp - 264] 
	mov	rcx, qword ptr [rbp - 272] 
	call	_ZN5Botan12_GLOBAL__N_116aes_key_scheduleEPKhmRSt6vectorIjNS_16secure_allocatorIjEEES7_b
	mov	dword ptr [rbp - 80], -1506517712
	jmp	.LBB17_26
.LBB17_23:                              
	call	_ZN5Botan5CPUID9has_vpermEv
	mov	dword ptr [rbp - 80], 6771
	mov	byte ptr [rbp - 273], al 
	jmp	.LBB17_26
.LBB17_24:                              
	xor	r8d, r8d
	mov	rax, qword ptr [rbp - 72]
	mov	rdi, qword ptr [rax]
	mov	rax, qword ptr [rbp - 64]
	mov	rsi, qword ptr [rax]
	mov	rax, qword ptr [rbp - 56]
	add	rax, 8
	mov	rcx, qword ptr [rbp - 56]
	add	rcx, 32
	mov	rdx, rax
	call	_ZN5Botan12_GLOBAL__N_116aes_key_scheduleEPKhmRSt6vectorIjNS_16secure_allocatorIjEEES7_b
	mov	dword ptr [rbp - 80], -612289811
	jmp	.LBB17_26
.LBB17_25:                              
	mov	dword ptr [rbp - 80], 1714992484
.LBB17_26:                              
	jmp	.LBB17_1
.Lfunc_end17:
	.size	_ZN5Botan7AES_12812key_scheduleEPKhm, .Lfunc_end17-_ZN5Botan7AES_12812key_scheduleEPKhm
	.cfi_endproc

	.section	.text._ZN5Botan5CPUID10has_aes_niEv,"axG",@progbits,_ZN5Botan5CPUID10has_aes_niEv,comdat
	.weak	_ZN5Botan5CPUID10has_aes_niEv 
	.p2align	4, 0x90
	.type	_ZN5Botan5CPUID10has_aes_niEv,@function
_ZN5Botan5CPUID10has_aes_niEv:          
	.cfi_startproc

	push	rbp
.Lcfi87:
	.cfi_def_cfa_offset 16
.Lcfi88:
	.cfi_offset rbp, -16
	mov	rbp, rsp
.Lcfi89:
	.cfi_def_cfa_register rbp
	mov	eax, 65536
	mov	edi, eax
	call	_ZN5Botan5CPUID13has_cpuid_bitENS0_10CPUID_bitsE
	and	al, 1
	movzx	eax, al
	pop	rbp
	ret
.Lfunc_end18:
	.size	_ZN5Botan5CPUID10has_aes_niEv, .Lfunc_end18-_ZN5Botan5CPUID10has_aes_niEv
	.cfi_endproc

	.text
	.p2align	4, 0x90         
	.type	_ZN5Botan12_GLOBAL__N_116aes_key_scheduleEPKhmRSt6vectorIjNS_16secure_allocatorIjEEES7_b,@function
_ZN5Botan12_GLOBAL__N_116aes_key_scheduleEPKhmRSt6vectorIjNS_16secure_allocatorIjEEES7_b: 
	.cfi_startproc

	push	rbp
.Lcfi90:
	.cfi_def_cfa_offset 16
.Lcfi91:
	.cfi_offset rbp, -16
	mov	rbp, rsp
.Lcfi92:
	.cfi_def_cfa_register rbp
	push	r15
	push	r14
	push	r13
	push	r12
	push	rbx
	sub	rsp, 664
.Lcfi93:
	.cfi_offset rbx, -56
.Lcfi94:
	.cfi_offset r12, -48
.Lcfi95:
	.cfi_offset r13, -40
.Lcfi96:
	.cfi_offset r14, -32
.Lcfi97:
	.cfi_offset r15, -24
	mov	al, r8b
	mov	qword ptr [rbp - 56], rdi
	mov	qword ptr [rbp - 64], rsi
	mov	qword ptr [rbp - 72], rdx
	mov	qword ptr [rbp - 80], rcx
	and	al, 1
	mov	byte ptr [rbp - 81], al
	mov	rcx, qword ptr [rbp - 64]
	shr	rcx, 2
	mov	qword ptr [rbp - 96], rcx
	mov	dword ptr [rbp - 164], -456866577
.LBB19_1:                               
	mov	eax, dword ptr [rbp - 164]
	mov	ecx, eax
	sub	ecx, -2042430534
	mov	dword ptr [rbp - 172], eax 
	mov	dword ptr [rbp - 176], ecx 
	je	.LBB19_76
	jmp	.LBB19_97
.LBB19_97:                              
	mov	eax, dword ptr [rbp - 172] 
	sub	eax, -1946553675
	mov	dword ptr [rbp - 180], eax 
	je	.LBB19_59
	jmp	.LBB19_98
.LBB19_98:                              
	mov	eax, dword ptr [rbp - 172] 
	sub	eax, -1921823899
	mov	dword ptr [rbp - 184], eax 
	je	.LBB19_78
	jmp	.LBB19_99
.LBB19_99:                              
	mov	eax, dword ptr [rbp - 172] 
	sub	eax, -1897937551
	mov	dword ptr [rbp - 188], eax 
	je	.LBB19_91
	jmp	.LBB19_100
.LBB19_100:                             
	mov	eax, dword ptr [rbp - 172] 
	sub	eax, -1781882145
	mov	dword ptr [rbp - 192], eax 
	je	.LBB19_27
	jmp	.LBB19_101
.LBB19_101:                             
	mov	eax, dword ptr [rbp - 172] 
	sub	eax, -1771301201
	mov	dword ptr [rbp - 196], eax 
	je	.LBB19_93
	jmp	.LBB19_102
.LBB19_102:                             
	mov	eax, dword ptr [rbp - 172] 
	sub	eax, -1702311905
	mov	dword ptr [rbp - 200], eax 
	je	.LBB19_61
	jmp	.LBB19_103
.LBB19_103:                             
	mov	eax, dword ptr [rbp - 172] 
	sub	eax, -1691372991
	mov	dword ptr [rbp - 204], eax 
	je	.LBB19_43
	jmp	.LBB19_104
.LBB19_104:                             
	mov	eax, dword ptr [rbp - 172] 
	sub	eax, -1686162254
	mov	dword ptr [rbp - 208], eax 
	je	.LBB19_29
	jmp	.LBB19_105
.LBB19_105:                             
	mov	eax, dword ptr [rbp - 172] 
	sub	eax, -1600127348
	mov	dword ptr [rbp - 212], eax 
	je	.LBB19_22
	jmp	.LBB19_106
.LBB19_106:                             
	mov	eax, dword ptr [rbp - 172] 
	sub	eax, -1543182194
	mov	dword ptr [rbp - 216], eax 
	je	.LBB19_6
	jmp	.LBB19_107
.LBB19_107:                             
	mov	eax, dword ptr [rbp - 172] 
	sub	eax, -1511197023
	mov	dword ptr [rbp - 220], eax 
	je	.LBB19_55
	jmp	.LBB19_108
.LBB19_108:                             
	mov	eax, dword ptr [rbp - 172] 
	sub	eax, -1460684094
	mov	dword ptr [rbp - 224], eax 
	je	.LBB19_92
	jmp	.LBB19_109
.LBB19_109:                             
	mov	eax, dword ptr [rbp - 172] 
	sub	eax, -1443002953
	mov	dword ptr [rbp - 228], eax 
	je	.LBB19_56
	jmp	.LBB19_110
.LBB19_110:                             
	mov	eax, dword ptr [rbp - 172] 
	sub	eax, -1409327954
	mov	dword ptr [rbp - 232], eax 
	je	.LBB19_40
	jmp	.LBB19_111
.LBB19_111:                             
	mov	eax, dword ptr [rbp - 172] 
	sub	eax, -1387342828
	mov	dword ptr [rbp - 236], eax 
	je	.LBB19_87
	jmp	.LBB19_112
.LBB19_112:                             
	mov	eax, dword ptr [rbp - 172] 
	sub	eax, -1240778076
	mov	dword ptr [rbp - 240], eax 
	je	.LBB19_51
	jmp	.LBB19_113
.LBB19_113:                             
	mov	eax, dword ptr [rbp - 172] 
	sub	eax, -1158320137
	mov	dword ptr [rbp - 244], eax 
	je	.LBB19_53
	jmp	.LBB19_114
.LBB19_114:                             
	mov	eax, dword ptr [rbp - 172] 
	sub	eax, -1097887644
	mov	dword ptr [rbp - 248], eax 
	je	.LBB19_65
	jmp	.LBB19_115
.LBB19_115:                             
	mov	eax, dword ptr [rbp - 172] 
	sub	eax, -1064654964
	mov	dword ptr [rbp - 252], eax 
	je	.LBB19_16
	jmp	.LBB19_116
.LBB19_116:                             
	mov	eax, dword ptr [rbp - 172] 
	sub	eax, -1052697001
	mov	dword ptr [rbp - 256], eax 
	je	.LBB19_83
	jmp	.LBB19_117
.LBB19_117:                             
	mov	eax, dword ptr [rbp - 172] 
	sub	eax, -1048857382
	mov	dword ptr [rbp - 260], eax 
	je	.LBB19_82
	jmp	.LBB19_118
.LBB19_118:                             
	mov	eax, dword ptr [rbp - 172] 
	sub	eax, -1010486115
	mov	dword ptr [rbp - 264], eax 
	je	.LBB19_79
	jmp	.LBB19_119
.LBB19_119:                             
	mov	eax, dword ptr [rbp - 172] 
	sub	eax, -830259828
	mov	dword ptr [rbp - 268], eax 
	je	.LBB19_4
	jmp	.LBB19_120
.LBB19_120:                             
	mov	eax, dword ptr [rbp - 172] 
	sub	eax, -789350396
	mov	dword ptr [rbp - 272], eax 
	je	.LBB19_24
	jmp	.LBB19_121
.LBB19_121:                             
	mov	eax, dword ptr [rbp - 172] 
	sub	eax, -781534067
	mov	dword ptr [rbp - 276], eax 
	je	.LBB19_88
	jmp	.LBB19_122
.LBB19_122:                             
	mov	eax, dword ptr [rbp - 172] 
	sub	eax, -633614564
	mov	dword ptr [rbp - 280], eax 
	je	.LBB19_9
	jmp	.LBB19_123
.LBB19_123:                             
	mov	eax, dword ptr [rbp - 172] 
	sub	eax, -626463405
	mov	dword ptr [rbp - 284], eax 
	je	.LBB19_73
	jmp	.LBB19_124
.LBB19_124:                             
	mov	eax, dword ptr [rbp - 172] 
	sub	eax, -498985682
	mov	dword ptr [rbp - 288], eax 
	je	.LBB19_86
	jmp	.LBB19_125
.LBB19_125:                             
	mov	eax, dword ptr [rbp - 172] 
	sub	eax, -498941521
	mov	dword ptr [rbp - 292], eax 
	je	.LBB19_21
	jmp	.LBB19_126
.LBB19_126:                             
	mov	eax, dword ptr [rbp - 172] 
	sub	eax, -486290946
	mov	dword ptr [rbp - 296], eax 
	je	.LBB19_84
	jmp	.LBB19_127
.LBB19_127:                             
	mov	eax, dword ptr [rbp - 172] 
	sub	eax, -485632498
	mov	dword ptr [rbp - 300], eax 
	je	.LBB19_85
	jmp	.LBB19_128
.LBB19_128:                             
	mov	eax, dword ptr [rbp - 172] 
	sub	eax, -456866577
	mov	dword ptr [rbp - 304], eax 
	je	.LBB19_3
	jmp	.LBB19_129
.LBB19_129:                             
	mov	eax, dword ptr [rbp - 172] 
	sub	eax, -377794592
	mov	dword ptr [rbp - 308], eax 
	je	.LBB19_28
	jmp	.LBB19_130
.LBB19_130:                             
	mov	eax, dword ptr [rbp - 172] 
	sub	eax, -275684018
	mov	dword ptr [rbp - 312], eax 
	je	.LBB19_94
	jmp	.LBB19_131
.LBB19_131:                             
	mov	eax, dword ptr [rbp - 172] 
	sub	eax, -264253738
	mov	dword ptr [rbp - 316], eax 
	je	.LBB19_80
	jmp	.LBB19_132
.LBB19_132:                             
	mov	eax, dword ptr [rbp - 172] 
	sub	eax, -233085337
	mov	dword ptr [rbp - 320], eax 
	je	.LBB19_81
	jmp	.LBB19_133
.LBB19_133:                             
	mov	eax, dword ptr [rbp - 172] 
	sub	eax, -215852950
	mov	dword ptr [rbp - 324], eax 
	je	.LBB19_12
	jmp	.LBB19_134
.LBB19_134:                             
	mov	eax, dword ptr [rbp - 172] 
	sub	eax, -190751069
	mov	dword ptr [rbp - 328], eax 
	je	.LBB19_44
	jmp	.LBB19_135
.LBB19_135:                             
	mov	eax, dword ptr [rbp - 172] 
	sub	eax, -85423721
	mov	dword ptr [rbp - 332], eax 
	je	.LBB19_33
	jmp	.LBB19_136
.LBB19_136:                             
	mov	eax, dword ptr [rbp - 172] 
	sub	eax, -61006978
	mov	dword ptr [rbp - 336], eax 
	je	.LBB19_60
	jmp	.LBB19_137
.LBB19_137:                             
	mov	eax, dword ptr [rbp - 172] 
	sub	eax, 97298314
	mov	dword ptr [rbp - 340], eax 
	je	.LBB19_70
	jmp	.LBB19_138
.LBB19_138:                             
	mov	eax, dword ptr [rbp - 172] 
	sub	eax, 105635659
	mov	dword ptr [rbp - 344], eax 
	je	.LBB19_37
	jmp	.LBB19_139
.LBB19_139:                             
	mov	eax, dword ptr [rbp - 172] 
	sub	eax, 187322967
	mov	dword ptr [rbp - 348], eax 
	je	.LBB19_11
	jmp	.LBB19_140
.LBB19_140:                             
	mov	eax, dword ptr [rbp - 172] 
	sub	eax, 252598360
	mov	dword ptr [rbp - 352], eax 
	je	.LBB19_89
	jmp	.LBB19_141
.LBB19_141:                             
	mov	eax, dword ptr [rbp - 172] 
	sub	eax, 276470455
	mov	dword ptr [rbp - 356], eax 
	je	.LBB19_95
	jmp	.LBB19_142
.LBB19_142:                             
	mov	eax, dword ptr [rbp - 172] 
	sub	eax, 279323268
	mov	dword ptr [rbp - 360], eax 
	je	.LBB19_32
	jmp	.LBB19_143
.LBB19_143:                             
	mov	eax, dword ptr [rbp - 172] 
	sub	eax, 285078958
	mov	dword ptr [rbp - 364], eax 
	je	.LBB19_77
	jmp	.LBB19_144
.LBB19_144:                             
	mov	eax, dword ptr [rbp - 172] 
	sub	eax, 357659618
	mov	dword ptr [rbp - 368], eax 
	je	.LBB19_63
	jmp	.LBB19_145
.LBB19_145:                             
	mov	eax, dword ptr [rbp - 172] 
	sub	eax, 460997238
	mov	dword ptr [rbp - 372], eax 
	je	.LBB19_45
	jmp	.LBB19_146
.LBB19_146:                             
	mov	eax, dword ptr [rbp - 172] 
	sub	eax, 532882150
	mov	dword ptr [rbp - 376], eax 
	je	.LBB19_26
	jmp	.LBB19_147
.LBB19_147:                             
	mov	eax, dword ptr [rbp - 172] 
	sub	eax, 559957362
	mov	dword ptr [rbp - 380], eax 
	je	.LBB19_52
	jmp	.LBB19_148
.LBB19_148:                             
	mov	eax, dword ptr [rbp - 172] 
	sub	eax, 612680287
	mov	dword ptr [rbp - 384], eax 
	je	.LBB19_74
	jmp	.LBB19_149
.LBB19_149:                             
	mov	eax, dword ptr [rbp - 172] 
	sub	eax, 658680477
	mov	dword ptr [rbp - 388], eax 
	je	.LBB19_38
	jmp	.LBB19_150
.LBB19_150:                             
	mov	eax, dword ptr [rbp - 172] 
	sub	eax, 721591668
	mov	dword ptr [rbp - 392], eax 
	je	.LBB19_19
	jmp	.LBB19_151
.LBB19_151:                             
	mov	eax, dword ptr [rbp - 172] 
	sub	eax, 842270729
	mov	dword ptr [rbp - 396], eax 
	je	.LBB19_57
	jmp	.LBB19_152
.LBB19_152:                             
	mov	eax, dword ptr [rbp - 172] 
	sub	eax, 867525122
	mov	dword ptr [rbp - 400], eax 
	je	.LBB19_30
	jmp	.LBB19_153
.LBB19_153:                             
	mov	eax, dword ptr [rbp - 172] 
	sub	eax, 934515191
	mov	dword ptr [rbp - 404], eax 
	je	.LBB19_14
	jmp	.LBB19_154
.LBB19_154:                             
	mov	eax, dword ptr [rbp - 172] 
	sub	eax, 958215301
	mov	dword ptr [rbp - 408], eax 
	je	.LBB19_68
	jmp	.LBB19_155
.LBB19_155:                             
	mov	eax, dword ptr [rbp - 172] 
	sub	eax, 1016954974
	mov	dword ptr [rbp - 412], eax 
	je	.LBB19_23
	jmp	.LBB19_156
.LBB19_156:                             
	mov	eax, dword ptr [rbp - 172] 
	sub	eax, 1071614247
	mov	dword ptr [rbp - 416], eax 
	je	.LBB19_90
	jmp	.LBB19_157
.LBB19_157:                             
	mov	eax, dword ptr [rbp - 172] 
	sub	eax, 1098504109
	mov	dword ptr [rbp - 420], eax 
	je	.LBB19_42
	jmp	.LBB19_158
.LBB19_158:                             
	mov	eax, dword ptr [rbp - 172] 
	sub	eax, 1116419444
	mov	dword ptr [rbp - 424], eax 
	je	.LBB19_25
	jmp	.LBB19_159
.LBB19_159:                             
	mov	eax, dword ptr [rbp - 172] 
	sub	eax, 1211159099
	mov	dword ptr [rbp - 428], eax 
	je	.LBB19_62
	jmp	.LBB19_160
.LBB19_160:                             
	mov	eax, dword ptr [rbp - 172] 
	sub	eax, 1333959585
	mov	dword ptr [rbp - 432], eax 
	je	.LBB19_72
	jmp	.LBB19_161
.LBB19_161:                             
	mov	eax, dword ptr [rbp - 172] 
	sub	eax, 1342065954
	mov	dword ptr [rbp - 436], eax 
	je	.LBB19_36
	jmp	.LBB19_162
.LBB19_162:                             
	mov	eax, dword ptr [rbp - 172] 
	sub	eax, 1386401605
	mov	dword ptr [rbp - 440], eax 
	je	.LBB19_46
	jmp	.LBB19_163
.LBB19_163:                             
	mov	eax, dword ptr [rbp - 172] 
	sub	eax, 1397280645
	mov	dword ptr [rbp - 444], eax 
	je	.LBB19_35
	jmp	.LBB19_164
.LBB19_164:                             
	mov	eax, dword ptr [rbp - 172] 
	sub	eax, 1439536683
	mov	dword ptr [rbp - 448], eax 
	je	.LBB19_48
	jmp	.LBB19_165
.LBB19_165:                             
	mov	eax, dword ptr [rbp - 172] 
	sub	eax, 1451755790
	mov	dword ptr [rbp - 452], eax 
	je	.LBB19_49
	jmp	.LBB19_166
.LBB19_166:                             
	mov	eax, dword ptr [rbp - 172] 
	sub	eax, 1507046101
	mov	dword ptr [rbp - 456], eax 
	je	.LBB19_18
	jmp	.LBB19_167
.LBB19_167:                             
	mov	eax, dword ptr [rbp - 172] 
	sub	eax, 1517399448
	mov	dword ptr [rbp - 460], eax 
	je	.LBB19_64
	jmp	.LBB19_168
.LBB19_168:                             
	mov	eax, dword ptr [rbp - 172] 
	sub	eax, 1533549840
	mov	dword ptr [rbp - 464], eax 
	je	.LBB19_7
	jmp	.LBB19_169
.LBB19_169:                             
	mov	eax, dword ptr [rbp - 172] 
	sub	eax, 1556508693
	mov	dword ptr [rbp - 468], eax 
	je	.LBB19_20
	jmp	.LBB19_170
.LBB19_170:                             
	mov	eax, dword ptr [rbp - 172] 
	sub	eax, 1571766198
	mov	dword ptr [rbp - 472], eax 
	je	.LBB19_69
	jmp	.LBB19_171
.LBB19_171:                             
	mov	eax, dword ptr [rbp - 172] 
	sub	eax, 1572708053
	mov	dword ptr [rbp - 476], eax 
	je	.LBB19_15
	jmp	.LBB19_172
.LBB19_172:                             
	mov	eax, dword ptr [rbp - 172] 
	sub	eax, 1599090611
	mov	dword ptr [rbp - 480], eax 
	je	.LBB19_71
	jmp	.LBB19_173
.LBB19_173:                             
	mov	eax, dword ptr [rbp - 172] 
	sub	eax, 1654646390
	mov	dword ptr [rbp - 484], eax 
	je	.LBB19_34
	jmp	.LBB19_174
.LBB19_174:                             
	mov	eax, dword ptr [rbp - 172] 
	sub	eax, 1664387167
	mov	dword ptr [rbp - 488], eax 
	je	.LBB19_10
	jmp	.LBB19_175
.LBB19_175:                             
	mov	eax, dword ptr [rbp - 172] 
	sub	eax, 1683834110
	mov	dword ptr [rbp - 492], eax 
	je	.LBB19_58
	jmp	.LBB19_176
.LBB19_176:                             
	mov	eax, dword ptr [rbp - 172] 
	sub	eax, 1686299669
	mov	dword ptr [rbp - 496], eax 
	je	.LBB19_75
	jmp	.LBB19_177
.LBB19_177:                             
	mov	eax, dword ptr [rbp - 172] 
	sub	eax, 1705790914
	mov	dword ptr [rbp - 500], eax 
	je	.LBB19_17
	jmp	.LBB19_178
.LBB19_178:                             
	mov	eax, dword ptr [rbp - 172] 
	sub	eax, 1718998226
	mov	dword ptr [rbp - 504], eax 
	je	.LBB19_39
	jmp	.LBB19_179
.LBB19_179:                             
	mov	eax, dword ptr [rbp - 172] 
	sub	eax, 1735871419
	mov	dword ptr [rbp - 508], eax 
	je	.LBB19_47
	jmp	.LBB19_180
.LBB19_180:                             
	mov	eax, dword ptr [rbp - 172] 
	sub	eax, 1780047045
	mov	dword ptr [rbp - 512], eax 
	je	.LBB19_66
	jmp	.LBB19_181
.LBB19_181:                             
	mov	eax, dword ptr [rbp - 172] 
	sub	eax, 1786856472
	mov	dword ptr [rbp - 516], eax 
	je	.LBB19_31
	jmp	.LBB19_182
.LBB19_182:                             
	mov	eax, dword ptr [rbp - 172] 
	sub	eax, 1854602217
	mov	dword ptr [rbp - 520], eax 
	je	.LBB19_8
	jmp	.LBB19_183
.LBB19_183:                             
	mov	eax, dword ptr [rbp - 172] 
	sub	eax, 1898763270
	mov	dword ptr [rbp - 524], eax 
	je	.LBB19_67
	jmp	.LBB19_184
.LBB19_184:                             
	mov	eax, dword ptr [rbp - 172] 
	sub	eax, 1945691002
	mov	dword ptr [rbp - 528], eax 
	je	.LBB19_41
	jmp	.LBB19_185
.LBB19_185:                             
	mov	eax, dword ptr [rbp - 172] 
	sub	eax, 1994986441
	mov	dword ptr [rbp - 532], eax 
	je	.LBB19_50
	jmp	.LBB19_186
.LBB19_186:                             
	mov	eax, dword ptr [rbp - 172] 
	sub	eax, 1999468470
	mov	dword ptr [rbp - 536], eax 
	je	.LBB19_5
	jmp	.LBB19_187
.LBB19_187:                             
	mov	eax, dword ptr [rbp - 172] 
	sub	eax, 2037451394
	mov	dword ptr [rbp - 540], eax 
	je	.LBB19_54
	jmp	.LBB19_188
.LBB19_188:                             
	mov	eax, dword ptr [rbp - 172] 
	sub	eax, 2112226033
	mov	dword ptr [rbp - 544], eax 
	je	.LBB19_13
	jmp	.LBB19_2
.LBB19_2:                               
	jmp	.LBB19_96
.LBB19_3:                               
	mov	eax, 3464707468
	mov	ecx, 187322967
	cmp	qword ptr [rbp - 96], 4
	cmove	eax, ecx
	mov	dword ptr [rbp - 164], eax
	jmp	.LBB19_96
.LBB19_4:                               
	mov	eax, 4061881959
	mov	ecx, 1999468470
	mov	dl, 1
	mov	esi, dword ptr [x.44]
	mov	edi, dword ptr [y.45]
	mov	r8d, esi
	sub	r8d, 1429819268
	sub	r8d, 1
	add	r8d, 1429819268
	imul	esi, r8d
	and	esi, 1
	cmp	esi, 0
	sete	r9b
	cmp	edi, 10
	setl	r10b
	mov	r11b, r9b
	xor	r11b, -1
	mov	bl, r10b
	xor	bl, -1
	xor	dl, 0
	mov	r14b, r11b
	and	r14b, 0
	and	r9b, dl
	mov	r15b, bl
	and	r15b, 0
	and	r10b, dl
	or	r14b, r9b
	or	r15b, r10b
	xor	r14b, r15b
	or	r11b, bl
	xor	r11b, -1
	or	dl, 0
	and	r11b, dl
	or	r14b, r11b
	test	r14b, 1
	cmovne	eax, ecx
	mov	dword ptr [rbp - 164], eax
	jmp	.LBB19_96
.LBB19_5:                               
	mov	eax, 4061881959
	mov	ecx, 2751785102
	mov	dl, 1
	cmp	qword ptr [rbp - 96], 6
	sete	sil
	and	sil, 1
	mov	byte ptr [rbp - 46], sil
	mov	edi, dword ptr [x.44]
	mov	r8d, dword ptr [y.45]
	mov	r9d, edi
	add	r9d, -638128465
	sub	r9d, 1
	sub	r9d, -638128465
	imul	edi, r9d
	and	edi, 1
	cmp	edi, 0
	sete	sil
	cmp	r8d, 10
	setl	r10b
	mov	r11b, sil
	xor	r11b, -1
	mov	bl, r10b
	xor	bl, -1
	xor	dl, 0
	mov	r14b, r11b
	and	r14b, 0
	and	sil, dl
	mov	r15b, bl
	and	r15b, 0
	and	r10b, dl
	or	r14b, sil
	or	r15b, r10b
	xor	r14b, r15b
	or	r11b, bl
	xor	r11b, -1
	or	dl, 0
	and	r11b, dl
	or	r14b, r11b
	test	r14b, 1
	cmovne	eax, ecx
	mov	dword ptr [rbp - 164], eax
	jmp	.LBB19_96
.LBB19_6:                               
	mov	eax, 1533549840
	mov	ecx, 187322967
	mov	dl, byte ptr [rbp - 46]
	test	dl, 1
	cmovne	eax, ecx
	mov	dword ptr [rbp - 164], eax
	jmp	.LBB19_96
.LBB19_7:                               
	mov	eax, 1854602217
	mov	ecx, 187322967
	cmp	qword ptr [rbp - 96], 8
	cmove	eax, ecx
	mov	dword ptr [rbp - 164], eax
	jmp	.LBB19_96
.LBB19_8:                               
	mov	eax, 3246109914
	mov	ecx, 3661352732
	mov	dl, 1
	mov	esi, dword ptr [x.44]
	mov	edi, dword ptr [y.45]
	mov	r8d, esi
	sub	r8d, 392554318
	sub	r8d, 1
	add	r8d, 392554318
	imul	esi, r8d
	and	esi, 1
	cmp	esi, 0
	sete	r9b
	cmp	edi, 10
	setl	r10b
	mov	r11b, r9b
	xor	r11b, -1
	mov	bl, r10b
	xor	bl, -1
	xor	dl, 0
	mov	r14b, r11b
	and	r14b, 0
	and	r9b, dl
	mov	r15b, bl
	and	r15b, 0
	and	r10b, dl
	or	r14b, r9b
	or	r15b, r10b
	xor	r14b, r15b
	or	r11b, bl
	xor	r11b, -1
	or	dl, 0
	and	r11b, dl
	or	r14b, r11b
	test	r14b, 1
	cmovne	eax, ecx
	mov	dword ptr [rbp - 164], eax
	jmp	.LBB19_96
.LBB19_9:                               
	movabs	rdi, .L.str.7
	movabs	rsi, .L.str.8
	movabs	rdx, .L__func__._ZN5Botan12_GLOBAL__N_116aes_key_scheduleEPKhmRSt6vectorIjNS_16secure_allocatorIjEEES7_b
	movabs	rcx, .L.str.5
	mov	r8d, 697
	call	_ZN5Botan17assertion_failureEPKcS1_S1_S1_i
	mov	r8d, 3246109914
	mov	eax, 1664387167
	mov	r9d, dword ptr [x.44]
	mov	r10d, dword ptr [y.45]
	mov	r11d, r9d
	sub	r11d, 1513441307
	sub	r11d, 1
	add	r11d, 1513441307
	imul	r9d, r11d
	and	r9d, 1
	cmp	r9d, 0
	sete	bl
	cmp	r10d, 10
	setl	r14b
	mov	r15b, bl
	and	r15b, r14b
	xor	bl, r14b
	or	r15b, bl
	test	r15b, 1
	cmovne	r8d, eax
	mov	dword ptr [rbp - 164], r8d
	jmp	.LBB19_96
.LBB19_10:
.LBB19_11:                              
	mov	dword ptr [rbp - 164], -215852950
	jmp	.LBB19_96
.LBB19_12:                              
	movabs	rax, -3031053719773437898
	mov	rcx, qword ptr [rbp - 64]
	shr	rcx, 2
	add	rcx, rax
	add	rcx, 6
	sub	rcx, rax
	mov	qword ptr [rbp - 104], rcx
	mov	dword ptr [rbp - 164], 2112226033
	jmp	.LBB19_96
.LBB19_13:                              
	mov	eax, 934515191
	mov	ecx, 721591668
	cmp	qword ptr [rbp - 104], 10
	cmove	eax, ecx
	mov	dword ptr [rbp - 164], eax
	jmp	.LBB19_96
.LBB19_14:                              
	mov	eax, 3242270295
	mov	ecx, 1572708053
	mov	dl, 1
	xor	esi, esi
	mov	edi, dword ptr [x.44]
	mov	r8d, dword ptr [y.45]
	sub	esi, 1
	mov	r9d, edi
	add	r9d, esi
	imul	edi, r9d
	and	edi, 1
	cmp	edi, 0
	sete	r10b
	cmp	r8d, 10
	setl	r11b
	mov	bl, r10b
	xor	bl, -1
	mov	r14b, r11b
	xor	r14b, -1
	xor	dl, 1
	mov	r15b, bl
	and	r15b, -1
	and	r10b, dl
	mov	r12b, r14b
	and	r12b, -1
	and	r11b, dl
	or	r15b, r10b
	or	r12b, r11b
	xor	r15b, r12b
	or	bl, r14b
	xor	bl, -1
	or	dl, 1
	and	bl, dl
	or	r15b, bl
	test	r15b, 1
	cmovne	eax, ecx
	mov	dword ptr [rbp - 164], eax
	jmp	.LBB19_96
.LBB19_15:                              
	mov	eax, 3242270295
	mov	ecx, 3230312332
	mov	dl, 1
	xor	esi, esi
	cmp	qword ptr [rbp - 104], 12
	sete	dil
	and	dil, 1
	mov	byte ptr [rbp - 45], dil
	mov	r8d, dword ptr [x.44]
	mov	r9d, dword ptr [y.45]
	sub	esi, 1
	mov	r10d, r8d
	add	r10d, esi
	imul	r8d, r10d
	and	r8d, 1
	cmp	r8d, 0
	sete	dil
	cmp	r9d, 10
	setl	r11b
	mov	bl, dil
	xor	bl, -1
	mov	r14b, r11b
	xor	r14b, -1
	xor	dl, 0
	mov	r15b, bl
	and	r15b, 0
	and	dil, dl
	mov	r12b, r14b
	and	r12b, 0
	and	r11b, dl
	or	r15b, dil
	or	r12b, r11b
	xor	r15b, r12b
	or	bl, r14b
	xor	bl, -1
	or	dl, 0
	and	bl, dl
	or	r15b, bl
	test	r15b, 1
	cmovne	eax, ecx
	mov	dword ptr [rbp - 164], eax
	jmp	.LBB19_96
.LBB19_16:                              
	mov	eax, 1705790914
	mov	ecx, 721591668
	mov	dl, byte ptr [rbp - 45]
	test	dl, 1
	cmovne	eax, ecx
	mov	dword ptr [rbp - 164], eax
	jmp	.LBB19_96
.LBB19_17:                              
	mov	eax, 1507046101
	mov	ecx, 721591668
	cmp	qword ptr [rbp - 104], 14
	cmove	eax, ecx
	mov	dword ptr [rbp - 164], eax
	jmp	.LBB19_96
.LBB19_18:
	movabs	rdi, .L.str.9
	movabs	rsi, .L.str.8
	movabs	rdx, .L__func__._ZN5Botan12_GLOBAL__N_116aes_key_scheduleEPKhmRSt6vectorIjNS_16secure_allocatorIjEEES7_b
	movabs	rcx, .L.str.5
	mov	r8d, 702
	call	_ZN5Botan17assertion_failureEPKcS1_S1_S1_i
.LBB19_19:                              
	mov	eax, 3808676350
	mov	ecx, 1556508693
	mov	edx, dword ptr [x.44]
	mov	esi, dword ptr [y.45]
	mov	edi, edx
	add	edi, -280074372
	sub	edi, 1
	sub	edi, -280074372
	imul	edx, edi
	and	edx, 1
	cmp	edx, 0
	sete	r8b
	cmp	esi, 10
	setl	r9b
	mov	r10b, r8b
	and	r10b, r9b
	xor	r8b, r9b
	or	r10b, r8b
	test	r10b, 1
	cmovne	eax, ecx
	mov	dword ptr [rbp - 164], eax
	jmp	.LBB19_96
.LBB19_20:                              
	mov	eax, 3808676350
	mov	ecx, 3796025775
	mov	dl, 1
	mov	esi, dword ptr [x.44]
	mov	edi, dword ptr [y.45]
	mov	r8d, esi
	add	r8d, -1935935089
	sub	r8d, 1
	sub	r8d, -1935935089
	imul	esi, r8d
	and	esi, 1
	cmp	esi, 0
	sete	r9b
	cmp	edi, 10
	setl	r10b
	mov	r11b, r9b
	xor	r11b, -1
	mov	bl, r10b
	xor	bl, -1
	xor	dl, 0
	mov	r14b, r11b
	and	r14b, 0
	and	r9b, dl
	mov	r15b, bl
	and	r15b, 0
	and	r10b, dl
	or	r14b, r9b
	or	r15b, r10b
	xor	r14b, r15b
	or	r11b, bl
	xor	r11b, -1
	or	dl, 0
	and	r11b, dl
	or	r14b, r11b
	test	r14b, 1
	cmovne	eax, ecx
	mov	dword ptr [rbp - 164], eax
	jmp	.LBB19_96
.LBB19_21:                              
	mov	dword ptr [rbp - 164], -1600127348
	jmp	.LBB19_96
.LBB19_22:                              
	mov	rdi, qword ptr [rbp - 56]
	mov	rsi, qword ptr [rbp - 64]
	call	_ZN5Botan2CT6poisonIhEEvPKT_m
	xor	eax, eax
	mov	esi, eax
	mov	rdi, qword ptr [rbp - 72]
	mov	rcx, qword ptr [rbp - 64]
	sub	rsi, 28
	sub	rcx, rsi
	mov	rsi, rcx
	call	_ZNSt6vectorIjN5Botan16secure_allocatorIjEEE6resizeEm
	movabs	rcx, -3463197061611077807
	mov	rdi, qword ptr [rbp - 80]
	mov	rsi, qword ptr [rbp - 64]
	add	rsi, rcx
	add	rsi, 28
	sub	rsi, rcx
	call	_ZNSt6vectorIjN5Botan16secure_allocatorIjEEE6resizeEm
	mov	qword ptr [rbp - 112], 0
	mov	dword ptr [rbp - 164], 1016954974
	jmp	.LBB19_96
.LBB19_23:                              
	mov	eax, 3917172704
	mov	ecx, 3505616900
	mov	rdx, qword ptr [rbp - 112]
	cmp	rdx, qword ptr [rbp - 96]
	cmovne	eax, ecx
	mov	dword ptr [rbp - 164], eax
	jmp	.LBB19_96
.LBB19_24:                              
	mov	eax, 3809334798
	mov	ecx, 1116419444
	mov	edx, dword ptr [x.44]
	mov	esi, dword ptr [y.45]
	mov	edi, edx
	sub	edi, 452151949
	sub	edi, 1
	add	edi, 452151949
	imul	edx, edi
	and	edx, 1
	cmp	edx, 0
	sete	r8b
	cmp	esi, 10
	setl	r9b
	mov	r10b, r8b
	and	r10b, r9b
	xor	r8b, r9b
	or	r10b, r8b
	test	r10b, 1
	cmovne	eax, ecx
	mov	dword ptr [rbp - 164], eax
	jmp	.LBB19_96
.LBB19_25:                              
	mov	rdi, qword ptr [rbp - 56]
	mov	rsi, qword ptr [rbp - 112]
	call	_ZN5Botan7load_beIjEET_PKhm
	mov	rdi, qword ptr [rbp - 72]
	mov	rsi, qword ptr [rbp - 112]
	mov	dword ptr [rbp - 548], eax 
	call	_ZNSt6vectorIjN5Botan16secure_allocatorIjEEEixEm
	mov	ecx, 3809334798
	mov	edx, 532882150
	mov	r8b, 1
	mov	r9d, dword ptr [rbp - 548] 
	mov	dword ptr [rax], r9d
	mov	r9d, dword ptr [x.44]
	mov	r10d, dword ptr [y.45]
	mov	r11d, r9d
	sub	r11d, -442393084
	sub	r11d, 1
	add	r11d, -442393084
	imul	r9d, r11d
	and	r9d, 1
	cmp	r9d, 0
	sete	bl
	cmp	r10d, 10
	setl	r14b
	mov	r15b, bl
	xor	r15b, -1
	mov	r12b, r14b
	xor	r12b, -1
	xor	r8b, 0
	mov	r13b, r15b
	and	r13b, 0
	and	bl, r8b
	mov	al, r12b
	and	al, 0
	and	r14b, r8b
	or	r13b, bl
	or	al, r14b
	xor	r13b, al
	or	r15b, r12b
	xor	r15b, -1
	or	r8b, 0
	and	r15b, r8b
	or	r13b, r15b
	test	r13b, 1
	cmovne	ecx, edx
	mov	dword ptr [rbp - 164], ecx
	jmp	.LBB19_96
.LBB19_26:                              
	mov	dword ptr [rbp - 164], -1781882145
	jmp	.LBB19_96
.LBB19_27:                              
	movabs	rax, -9120797722431565364
	mov	rcx, qword ptr [rbp - 112]
	sub	rcx, rax
	add	rcx, 1
	add	rcx, rax
	mov	qword ptr [rbp - 112], rcx
	mov	dword ptr [rbp - 164], 1016954974
	jmp	.LBB19_96
.LBB19_28:                              
	mov	rax, qword ptr [rbp - 96]
	mov	qword ptr [rbp - 120], rax
	mov	dword ptr [rbp - 164], -1686162254
	jmp	.LBB19_96
.LBB19_29:                              
	mov	eax, 559957362
	mov	ecx, 867525122
	movabs	rdx, 9007492172748927304
	mov	rsi, qword ptr [rbp - 120]
	mov	rdi, qword ptr [rbp - 104]
	sub	rdi, rdx
	add	rdi, 1
	add	rdi, rdx
	shl	rdi, 2
	cmp	rsi, rdi
	cmovb	eax, ecx
	mov	dword ptr [rbp - 164], eax
	jmp	.LBB19_96
.LBB19_30:                              
	mov	eax, 3795981614
	mov	ecx, 1786856472
	mov	edx, dword ptr [x.44]
	mov	esi, dword ptr [y.45]
	mov	edi, edx
	sub	edi, 1101577614
	sub	edi, 1
	add	edi, 1101577614
	imul	edx, edi
	and	edx, 1
	cmp	edx, 0
	sete	r8b
	cmp	esi, 10
	setl	r9b
	mov	r10b, r8b
	and	r10b, r9b
	xor	r8b, r9b
	or	r10b, r8b
	test	r10b, 1
	cmovne	eax, ecx
	mov	dword ptr [rbp - 164], eax
	jmp	.LBB19_96
.LBB19_31:                              
	movabs	rax, -5449025837849814898
	mov	rdi, qword ptr [rbp - 72]
	mov	rcx, qword ptr [rbp - 120]
	mov	rdx, qword ptr [rbp - 96]
	add	rcx, rax
	sub	rcx, rdx
	sub	rcx, rax
	mov	rsi, rcx
	call	_ZNSt6vectorIjN5Botan16secure_allocatorIjEEEixEm
	xor	r8d, r8d
	mov	ecx, r8d
	mov	r8d, dword ptr [rax]
	mov	rax, qword ptr [rbp - 120]
	mov	rdx, qword ptr [rbp - 96]
	mov	rsi, rcx
	sub	rsi, rdx
	add	rax, rsi
	xor	r9d, r9d
	mov	edx, r9d
	div	qword ptr [rbp - 96]
	mov	r9d, dword ptr [4*rax + _ZZN5Botan12_GLOBAL__N_116aes_key_scheduleEPKhmRSt6vectorIjNS_16secure_allocatorIjEEES7_bE2RC]
	mov	r10d, r8d
	xor	r10d, -1
	mov	r11d, r9d
	and	r11d, r10d
	xor	r9d, -1
	and	r8d, r9d
	or	r11d, r8d
	mov	rdi, qword ptr [rbp - 72]
	mov	rax, qword ptr [rbp - 120]
	sub	rcx, 1
	add	rax, rcx
	mov	rsi, rax
	mov	dword ptr [rbp - 552], r11d 
	call	_ZNSt6vectorIjN5Botan16secure_allocatorIjEEEixEm
	mov	edi, dword ptr [rax]
	call	_ZN5Botan12_GLOBAL__N_17SE_wordEj
	mov	edi, eax
	call	_ZN5Botan4rotlILm8EjEET0_S1_
	mov	edi, dword ptr [rbp - 552] 
	xor	edi, -1
	mov	r8d, eax
	and	r8d, edi
	xor	eax, -1
	mov	edi, dword ptr [rbp - 552] 
	and	edi, eax
	or	r8d, edi
	mov	rdi, qword ptr [rbp - 72]
	mov	rsi, qword ptr [rbp - 120]
	mov	dword ptr [rbp - 556], r8d 
	call	_ZNSt6vectorIjN5Botan16secure_allocatorIjEEEixEm
	mov	r8d, 3795981614
	mov	r9d, 279323268
	mov	r10d, dword ptr [rbp - 556] 
	mov	dword ptr [rax], r10d
	mov	qword ptr [rbp - 128], 1
	mov	r10d, dword ptr [x.44]
	mov	r11d, dword ptr [y.45]
	mov	ebx, r10d
	add	ebx, 1633813828
	sub	ebx, 1
	sub	ebx, 1633813828
	imul	r10d, ebx
	and	r10d, 1
	cmp	r10d, 0
	sete	r14b
	cmp	r11d, 10
	setl	r15b
	mov	r12b, r14b
	and	r12b, r15b
	xor	r14b, r15b
	or	r12b, r14b
	test	r12b, 1
	cmovne	r8d, r9d
	mov	dword ptr [rbp - 164], r8d
	jmp	.LBB19_96
.LBB19_32:                              
	mov	dword ptr [rbp - 164], -85423721
	jmp	.LBB19_96
.LBB19_33:                              
	mov	eax, 105635659
	mov	ecx, 1654646390
	mov	rdx, qword ptr [rbp - 128]
	cmp	rdx, qword ptr [rbp - 96]
	cmovne	eax, ecx
	mov	dword ptr [rbp - 164], eax
	mov	byte ptr [rbp - 165], 0
	jmp	.LBB19_96
.LBB19_34:                              
	mov	eax, 2907624468
	mov	ecx, 1397280645
	xor	edx, edx
	mov	esi, dword ptr [x.44]
	mov	edi, dword ptr [y.45]
	sub	edx, 1
	mov	r8d, esi
	add	r8d, edx
	imul	esi, r8d
	and	esi, 1
	cmp	esi, 0
	sete	r9b
	cmp	edi, 10
	setl	r10b
	mov	r11b, r9b
	and	r11b, r10b
	xor	r9b, r10b
	or	r11b, r9b
	test	r11b, 1
	cmovne	eax, ecx
	mov	dword ptr [rbp - 164], eax
	jmp	.LBB19_96
.LBB19_35:                              
	xor	eax, eax
	mov	ecx, eax
	mov	rdx, qword ptr [rbp - 120]
	mov	rsi, qword ptr [rbp - 128]
	sub	rcx, rsi
	sub	rdx, rcx
	mov	rdi, qword ptr [rbp - 72]
	mov	qword ptr [rbp - 568], rdx 
	call	_ZNKSt6vectorIjN5Botan16secure_allocatorIjEEE4sizeEv
	mov	r8d, 2907624468
	mov	r9d, 1342065954
	mov	r10b, 1
	mov	rcx, qword ptr [rbp - 568] 
	cmp	rcx, rax
	setb	r11b
	and	r11b, 1
	mov	byte ptr [rbp - 44], r11b
	mov	ebx, dword ptr [x.44]
	mov	r14d, dword ptr [y.45]
	mov	r15d, ebx
	add	r15d, 707549184
	sub	r15d, 1
	sub	r15d, 707549184
	imul	ebx, r15d
	and	ebx, 1
	cmp	ebx, 0
	sete	r11b
	cmp	r14d, 10
	setl	r12b
	mov	r13b, r11b
	xor	r13b, -1
	mov	al, r12b
	xor	al, -1
	xor	r10b, 0
	mov	cl, r13b
	and	cl, 0
	and	r11b, r10b
	mov	dl, al
	and	dl, 0
	and	r12b, r10b
	or	cl, r11b
	or	dl, r12b
	xor	cl, dl
	or	r13b, al
	xor	r13b, -1
	or	r10b, 0
	and	r13b, r10b
	or	cl, r13b
	test	cl, 1
	cmovne	r8d, r9d
	mov	dword ptr [rbp - 164], r8d
	jmp	.LBB19_96
.LBB19_36:                              
	mov	dword ptr [rbp - 164], 105635659
	mov	al, byte ptr [rbp - 44]
	and	al, 1
	mov	byte ptr [rbp - 165], al
	jmp	.LBB19_96
.LBB19_37:                              
	mov	eax, 1386401605
	mov	ecx, 658680477
	test	byte ptr [rbp - 165], 1
	cmovne	eax, ecx
	mov	dword ptr [rbp - 164], eax
	jmp	.LBB19_96
.LBB19_38:                              
	mov	eax, 3513433229
	mov	ecx, 1718998226
	mov	dl, 1
	xor	esi, esi
	mov	edi, dword ptr [x.44]
	mov	r8d, dword ptr [y.45]
	sub	esi, 1
	mov	r9d, edi
	add	r9d, esi
	imul	edi, r9d
	and	edi, 1
	cmp	edi, 0
	sete	r10b
	cmp	r8d, 10
	setl	r11b
	mov	bl, r10b
	xor	bl, -1
	mov	r14b, r11b
	xor	r14b, -1
	xor	dl, 0
	mov	r15b, bl
	and	r15b, 0
	and	r10b, dl
	mov	r12b, r14b
	and	r12b, 0
	and	r11b, dl
	or	r15b, r10b
	or	r12b, r11b
	xor	r15b, r12b
	or	bl, r14b
	xor	bl, -1
	or	dl, 0
	and	bl, dl
	or	r15b, bl
	test	r15b, 1
	cmovne	eax, ecx
	mov	dword ptr [rbp - 164], eax
	jmp	.LBB19_96
.LBB19_39:                              
	movabs	rax, 5745932498941050211
	movabs	rcx, -1505887902328421386
	mov	rdi, qword ptr [rbp - 72]
	mov	rdx, qword ptr [rbp - 120]
	mov	rsi, qword ptr [rbp - 128]
	add	rdx, rcx
	add	rdx, rsi
	sub	rdx, rcx
	mov	rcx, qword ptr [rbp - 96]
	sub	rdx, rax
	sub	rdx, rcx
	add	rdx, rax
	mov	rsi, rdx
	call	_ZNSt6vectorIjN5Botan16secure_allocatorIjEEEixEm
	xor	r8d, r8d
	mov	ecx, r8d
	mov	r8d, dword ptr [rax]
	mov	rdi, qword ptr [rbp - 72]
	mov	rax, qword ptr [rbp - 120]
	mov	rdx, qword ptr [rbp - 128]
	mov	rsi, rcx
	sub	rsi, rax
	mov	rax, rcx
	sub	rax, rdx
	add	rsi, rax
	sub	rcx, rsi
	mov	rsi, rcx
	mov	dword ptr [rbp - 572], r8d 
	call	_ZNSt6vectorIjN5Botan16secure_allocatorIjEEEixEm
	mov	r8d, 3513433229
	mov	r9d, 2885639342
	mov	r10b, 1
	mov	r11d, dword ptr [rbp - 572] 
	mov	dword ptr [rax], r11d
	cmp	qword ptr [rbp - 96], 8
	sete	bl
	and	bl, 1
	mov	byte ptr [rbp - 43], bl
	mov	r11d, dword ptr [x.44]
	mov	r14d, dword ptr [y.45]
	mov	r15d, r11d
	sub	r15d, -1424674552
	sub	r15d, 1
	add	r15d, -1424674552
	imul	r11d, r15d
	and	r11d, 1
	cmp	r11d, 0
	sete	bl
	cmp	r14d, 10
	setl	r12b
	mov	r13b, bl
	xor	r13b, -1
	mov	al, r12b
	xor	al, -1
	xor	r10b, 1
	mov	cl, r13b
	and	cl, -1
	and	bl, r10b
	mov	dl, al
	and	dl, -1
	and	r12b, r10b
	or	cl, bl
	or	dl, r12b
	xor	cl, dl
	or	r13b, al
	xor	r13b, -1
	or	r10b, 1
	and	r13b, r10b
	or	cl, r13b
	test	cl, 1
	cmovne	r8d, r9d
	mov	dword ptr [rbp - 164], r8d
	jmp	.LBB19_96
.LBB19_40:                              
	mov	eax, 2603594305
	mov	ecx, 1945691002
	mov	dl, byte ptr [rbp - 43]
	test	dl, 1
	cmovne	eax, ecx
	mov	dword ptr [rbp - 164], eax
	jmp	.LBB19_96
.LBB19_41:                              
	mov	eax, 2603594305
	mov	ecx, 1098504109
	cmp	qword ptr [rbp - 128], 4
	cmove	eax, ecx
	mov	dword ptr [rbp - 164], eax
	jmp	.LBB19_96
.LBB19_42:                              
	movabs	rax, -2623404640814368119
	xor	ecx, ecx
	mov	edx, ecx
	mov	rdi, qword ptr [rbp - 72]
	mov	rsi, qword ptr [rbp - 120]
	mov	r8, qword ptr [rbp - 128]
	sub	rdx, r8
	sub	rsi, rdx
	add	rsi, rax
	sub	rsi, 1
	sub	rsi, rax
	call	_ZNSt6vectorIjN5Botan16secure_allocatorIjEEEixEm
	mov	edi, dword ptr [rax]
	call	_ZN5Botan12_GLOBAL__N_17SE_wordEj
	movabs	rdx, -5466237424300604308
	mov	rdi, qword ptr [rbp - 72]
	mov	rsi, qword ptr [rbp - 120]
	mov	r8, qword ptr [rbp - 128]
	sub	rsi, rdx
	add	rsi, r8
	add	rsi, rdx
	mov	dword ptr [rbp - 576], eax 
	call	_ZNSt6vectorIjN5Botan16secure_allocatorIjEEEixEm
	mov	ecx, dword ptr [rax]
	mov	r9d, ecx
	xor	r9d, -1
	mov	r10d, dword ptr [rbp - 576] 
	and	r10d, r9d
	mov	r9d, dword ptr [rbp - 576] 
	xor	r9d, -1
	and	ecx, r9d
	or	r10d, ecx
	mov	dword ptr [rax], r10d
	mov	dword ptr [rbp - 164], -190751069
	jmp	.LBB19_96
.LBB19_43:                              
	xor	eax, eax
	mov	ecx, eax
	movabs	rdx, 5487128073387203756
	mov	rdi, qword ptr [rbp - 72]
	mov	rsi, qword ptr [rbp - 120]
	mov	r8, qword ptr [rbp - 128]
	add	rsi, rdx
	add	rsi, r8
	sub	rsi, rdx
	sub	rcx, 1
	add	rsi, rcx
	call	_ZNSt6vectorIjN5Botan16secure_allocatorIjEEEixEm
	movabs	rcx, 1560986708455637312
	mov	r9d, dword ptr [rax]
	mov	rdi, qword ptr [rbp - 72]
	mov	rax, qword ptr [rbp - 120]
	mov	rdx, qword ptr [rbp - 128]
	add	rax, rcx
	add	rax, rdx
	sub	rax, rcx
	mov	rsi, rax
	mov	dword ptr [rbp - 580], r9d 
	call	_ZNSt6vectorIjN5Botan16secure_allocatorIjEEEixEm
	mov	r9d, dword ptr [rax]
	mov	r10d, r9d
	xor	r10d, -1
	mov	r11d, dword ptr [rbp - 580] 
	and	r11d, r10d
	mov	r10d, dword ptr [rbp - 580] 
	xor	r10d, -1
	and	r9d, r10d
	or	r11d, r9d
	mov	dword ptr [rax], r11d
	mov	dword ptr [rbp - 164], -190751069
	jmp	.LBB19_96
.LBB19_44:                              
	mov	dword ptr [rbp - 164], 460997238
	jmp	.LBB19_96
.LBB19_45:                              
	movabs	rax, -6968461478656730820
	mov	rcx, qword ptr [rbp - 128]
	add	rcx, rax
	add	rcx, 1
	sub	rcx, rax
	mov	qword ptr [rbp - 128], rcx
	mov	dword ptr [rbp - 164], -85423721
	jmp	.LBB19_96
.LBB19_46:                              
	mov	eax, 252598360
	mov	ecx, 1735871419
	mov	dl, 1
	mov	esi, dword ptr [x.44]
	mov	edi, dword ptr [y.45]
	mov	r8d, esi
	sub	r8d, -585114838
	sub	r8d, 1
	add	r8d, -585114838
	imul	esi, r8d
	and	esi, 1
	cmp	esi, 0
	sete	r9b
	cmp	edi, 10
	setl	r10b
	mov	r11b, r9b
	xor	r11b, -1
	mov	bl, r10b
	xor	bl, -1
	xor	dl, 1
	mov	r14b, r11b
	and	r14b, -1
	and	r9b, dl
	mov	r15b, bl
	and	r15b, -1
	and	r10b, dl
	or	r14b, r9b
	or	r15b, r10b
	xor	r14b, r15b
	or	r11b, bl
	xor	r11b, -1
	or	dl, 1
	and	r11b, dl
	or	r14b, r11b
	test	r14b, 1
	cmovne	eax, ecx
	mov	dword ptr [rbp - 164], eax
	jmp	.LBB19_96
.LBB19_47:                              
	mov	eax, 252598360
	mov	ecx, 1439536683
	mov	dl, 1
	mov	esi, dword ptr [x.44]
	mov	edi, dword ptr [y.45]
	mov	r8d, esi
	sub	r8d, -1826947815
	sub	r8d, 1
	add	r8d, -1826947815
	imul	esi, r8d
	and	esi, 1
	cmp	esi, 0
	sete	r9b
	cmp	edi, 10
	setl	r10b
	mov	r11b, r9b
	xor	r11b, -1
	mov	bl, r10b
	xor	bl, -1
	xor	dl, 0
	mov	r14b, r11b
	and	r14b, 0
	and	r9b, dl
	mov	r15b, bl
	and	r15b, 0
	and	r10b, dl
	or	r14b, r9b
	or	r15b, r10b
	xor	r14b, r15b
	or	r11b, bl
	xor	r11b, -1
	or	dl, 0
	and	r11b, dl
	or	r14b, r11b
	test	r14b, 1
	cmovne	eax, ecx
	mov	dword ptr [rbp - 164], eax
	jmp	.LBB19_96
.LBB19_48:                              
	mov	dword ptr [rbp - 164], 1451755790
	jmp	.LBB19_96
.LBB19_49:                              
	mov	eax, 1071614247
	mov	ecx, 1994986441
	mov	edx, dword ptr [x.44]
	mov	esi, dword ptr [y.45]
	mov	edi, edx
	sub	edi, -342186537
	sub	edi, 1
	add	edi, -342186537
	imul	edx, edi
	and	edx, 1
	cmp	edx, 0
	sete	r8b
	cmp	esi, 10
	setl	r9b
	mov	r10b, r8b
	and	r10b, r9b
	xor	r8b, r9b
	or	r10b, r8b
	test	r10b, 1
	cmovne	eax, ecx
	mov	dword ptr [rbp - 164], eax
	jmp	.LBB19_96
.LBB19_50:                              
	mov	eax, 1071614247
	mov	ecx, 3054189220
	xor	edx, edx
	movabs	rsi, -6179237285666551974
	mov	rdi, qword ptr [rbp - 96]
	mov	r8, qword ptr [rbp - 120]
	add	r8, rsi
	add	r8, rdi
	sub	r8, rsi
	mov	qword ptr [rbp - 120], r8
	mov	r9d, dword ptr [x.44]
	mov	r10d, dword ptr [y.45]
	sub	edx, 1
	mov	r11d, r9d
	add	r11d, edx
	imul	r9d, r11d
	and	r9d, 1
	cmp	r9d, 0
	sete	bl
	cmp	r10d, 10
	setl	r14b
	mov	r15b, bl
	and	r15b, r14b
	xor	bl, r14b
	or	r15b, bl
	test	r15b, 1
	cmovne	eax, ecx
	mov	dword ptr [rbp - 164], eax
	jmp	.LBB19_96
.LBB19_51:                              
	mov	dword ptr [rbp - 164], -1686162254
	jmp	.LBB19_96
.LBB19_52:                              
	mov	qword ptr [rbp - 136], 0
	mov	dword ptr [rbp - 164], -1158320137
	jmp	.LBB19_96
.LBB19_53:                              
	mov	eax, 2851964343
	mov	ecx, 2037451394
	xor	edx, edx
	mov	esi, edx
	mov	rdi, qword ptr [rbp - 136]
	mov	r8, qword ptr [rbp - 104]
	mov	r9, rsi
	sub	r9, r8
	mov	r8, rsi
	sub	r8, 1
	add	r9, r8
	sub	rsi, r9
	shl	rsi, 2
	cmp	rdi, rsi
	cmovne	eax, ecx
	mov	dword ptr [rbp - 164], eax
	jmp	.LBB19_96
.LBB19_54:                              
	movabs	rax, -1041927722550845027
	mov	rdi, qword ptr [rbp - 72]
	mov	rcx, qword ptr [rbp - 104]
	shl	rcx, 2
	mov	rdx, qword ptr [rbp - 136]
	add	rcx, rax
	sub	rcx, rdx
	sub	rcx, rax
	mov	rsi, rcx
	call	_ZNSt6vectorIjN5Botan16secure_allocatorIjEEEixEm
	mov	r8d, dword ptr [rax]
	mov	rdi, qword ptr [rbp - 80]
	mov	rsi, qword ptr [rbp - 136]
	mov	dword ptr [rbp - 584], r8d 
	call	_ZNSt6vectorIjN5Botan16secure_allocatorIjEEEixEm
	movabs	rcx, 3342154971957962927
	movabs	rdx, 8172054584257940194
	mov	r8d, dword ptr [rbp - 584] 
	mov	dword ptr [rax], r8d
	mov	rdi, qword ptr [rbp - 72]
	mov	rax, qword ptr [rbp - 104]
	shl	rax, 2
	mov	rsi, qword ptr [rbp - 136]
	sub	rax, rdx
	sub	rax, rsi
	add	rax, rdx
	add	rax, rcx
	add	rax, 1
	sub	rax, rcx
	mov	rsi, rax
	call	_ZNSt6vectorIjN5Botan16secure_allocatorIjEEEixEm
	xor	r8d, r8d
	mov	ecx, r8d
	mov	r8d, dword ptr [rax]
	mov	rdi, qword ptr [rbp - 80]
	mov	rax, qword ptr [rbp - 136]
	sub	rcx, 1
	sub	rax, rcx
	mov	rsi, rax
	mov	dword ptr [rbp - 588], r8d 
	call	_ZNSt6vectorIjN5Botan16secure_allocatorIjEEEixEm
	movabs	rcx, 6149148027826786491
	movabs	rdx, -3016099398971256457
	mov	r8d, dword ptr [rbp - 588] 
	mov	dword ptr [rax], r8d
	mov	rdi, qword ptr [rbp - 72]
	mov	rax, qword ptr [rbp - 104]
	shl	rax, 2
	mov	rsi, qword ptr [rbp - 136]
	add	rax, rdx
	sub	rax, rsi
	sub	rax, rdx
	sub	rax, rcx
	add	rax, 2
	add	rax, rcx
	mov	rsi, rax
	call	_ZNSt6vectorIjN5Botan16secure_allocatorIjEEEixEm
	xor	r8d, r8d
	mov	ecx, r8d
	mov	r8d, dword ptr [rax]
	mov	rdi, qword ptr [rbp - 80]
	mov	rax, qword ptr [rbp - 136]
	sub	rcx, 2
	sub	rax, rcx
	mov	rsi, rax
	mov	dword ptr [rbp - 592], r8d 
	call	_ZNSt6vectorIjN5Botan16secure_allocatorIjEEEixEm
	movabs	rcx, -3246673416664983992
	movabs	rdx, -8403020090540564597
	mov	r8d, dword ptr [rbp - 592] 
	mov	dword ptr [rax], r8d
	mov	rdi, qword ptr [rbp - 72]
	mov	rax, qword ptr [rbp - 104]
	shl	rax, 2
	mov	rsi, qword ptr [rbp - 136]
	sub	rax, rdx
	sub	rax, rsi
	add	rax, rdx
	sub	rax, rcx
	add	rax, 3
	add	rax, rcx
	mov	rsi, rax
	call	_ZNSt6vectorIjN5Botan16secure_allocatorIjEEEixEm
	xor	r8d, r8d
	mov	ecx, r8d
	mov	r8d, dword ptr [rax]
	mov	rdi, qword ptr [rbp - 80]
	mov	rax, qword ptr [rbp - 136]
	sub	rcx, 3
	sub	rax, rcx
	mov	rsi, rax
	mov	dword ptr [rbp - 596], r8d 
	call	_ZNSt6vectorIjN5Botan16secure_allocatorIjEEEixEm
	mov	r8d, dword ptr [rbp - 596] 
	mov	dword ptr [rax], r8d
	mov	dword ptr [rbp - 164], -1511197023
	jmp	.LBB19_96
.LBB19_55:                              
	xor	eax, eax
	mov	ecx, eax
	mov	rdx, qword ptr [rbp - 136]
	sub	rcx, 4
	sub	rdx, rcx
	mov	qword ptr [rbp - 136], rdx
	mov	dword ptr [rbp - 164], -1158320137
	jmp	.LBB19_96
.LBB19_56:                              
	mov	qword ptr [rbp - 144], 4
	mov	dword ptr [rbp - 164], 842270729
	jmp	.LBB19_96
.LBB19_57:                              
	mov	eax, 2397029745
	mov	ecx, 1683834110
	mov	edx, dword ptr [x.44]
	mov	esi, dword ptr [y.45]
	mov	edi, edx
	add	edi, -182531480
	sub	edi, 1
	sub	edi, -182531480
	imul	edx, edi
	and	edx, 1
	cmp	edx, 0
	sete	r8b
	cmp	esi, 10
	setl	r9b
	mov	r10b, r8b
	and	r10b, r9b
	xor	r8b, r9b
	or	r10b, r8b
	test	r10b, 1
	cmovne	eax, ecx
	mov	dword ptr [rbp - 164], eax
	jmp	.LBB19_96
.LBB19_58:                              
	mov	eax, 2397029745
	mov	ecx, 2348413621
	mov	dl, 1
	xor	esi, esi
	mov	rdi, qword ptr [rbp - 144]
	mov	r8, qword ptr [rbp - 104]
	shl	r8, 2
	cmp	rdi, r8
	setne	r9b
	and	r9b, 1
	mov	byte ptr [rbp - 42], r9b
	mov	r10d, dword ptr [x.44]
	mov	r11d, dword ptr [y.45]
	sub	esi, 1
	mov	ebx, r10d
	add	ebx, esi
	imul	r10d, ebx
	and	r10d, 1
	cmp	r10d, 0
	sete	r9b
	cmp	r11d, 10
	setl	r14b
	mov	r15b, r9b
	xor	r15b, -1
	mov	r12b, r14b
	xor	r12b, -1
	xor	dl, 1
	mov	r13b, r15b
	and	r13b, -1
	and	r9b, dl
	mov	sil, r12b
	and	sil, -1
	and	r14b, dl
	or	r13b, r9b
	or	sil, r14b
	xor	r13b, sil
	or	r15b, r12b
	xor	r15b, -1
	or	dl, 1
	and	r15b, dl
	or	r13b, r15b
	test	r13b, 1
	cmovne	eax, ecx
	mov	dword ptr [rbp - 164], eax
	jmp	.LBB19_96
.LBB19_59:                              
	mov	eax, 1211159099
	mov	ecx, 4233960318
	mov	dl, byte ptr [rbp - 42]
	test	dl, 1
	cmovne	eax, ecx
	mov	dword ptr [rbp - 164], eax
	jmp	.LBB19_96
.LBB19_60:                              
	mov	rdi, qword ptr [rbp - 80]
	mov	rsi, qword ptr [rbp - 144]
	call	_ZNSt6vectorIjN5Botan16secure_allocatorIjEEEixEm
	mov	rdi, rax
	call	_ZN5Botan12_GLOBAL__N_115InvMixColumn_x4EPj
	mov	dword ptr [rbp - 164], -1702311905
	jmp	.LBB19_96
.LBB19_61:                              
	xor	eax, eax
	mov	ecx, eax
	mov	rdx, qword ptr [rbp - 144]
	mov	rsi, rcx
	sub	rsi, rdx
	mov	rdx, rcx
	sub	rdx, 4
	add	rsi, rdx
	sub	rcx, rsi
	mov	qword ptr [rbp - 144], rcx
	mov	dword ptr [rbp - 164], 842270729
	jmp	.LBB19_96
.LBB19_62:                              
	mov	eax, 2834283202
	mov	ecx, 357659618
	mov	dl, 1
	mov	esi, dword ptr [x.44]
	mov	edi, dword ptr [y.45]
	mov	r8d, esi
	sub	r8d, -1945140845
	sub	r8d, 1
	add	r8d, -1945140845
	imul	esi, r8d
	and	esi, 1
	cmp	esi, 0
	sete	r9b
	cmp	edi, 10
	setl	r10b
	mov	r11b, r9b
	xor	r11b, -1
	mov	bl, r10b
	xor	bl, -1
	xor	dl, 1
	mov	r14b, r11b
	and	r14b, -1
	and	r9b, dl
	mov	r15b, bl
	and	r15b, -1
	and	r10b, dl
	or	r14b, r9b
	or	r15b, r10b
	xor	r14b, r15b
	or	r11b, bl
	xor	r11b, -1
	or	dl, 1
	and	r11b, dl
	or	r14b, r11b
	test	r14b, 1
	cmovne	eax, ecx
	mov	dword ptr [rbp - 164], eax
	jmp	.LBB19_96
.LBB19_63:                              
	mov	eax, 2834283202
	mov	ecx, 1517399448
	xor	edx, edx
	mov	sil, byte ptr [rbp - 81]
	and	sil, 1
	mov	byte ptr [rbp - 41], sil
	mov	edi, dword ptr [x.44]
	mov	r8d, dword ptr [y.45]
	sub	edx, 1
	mov	r9d, edi
	add	r9d, edx
	imul	edi, r9d
	and	edi, 1
	cmp	edi, 0
	sete	sil
	cmp	r8d, 10
	setl	r10b
	mov	r11b, sil
	and	r11b, r10b
	xor	sil, r10b
	or	r11b, sil
	test	r11b, 1
	cmovne	eax, ecx
	mov	dword ptr [rbp - 164], eax
	jmp	.LBB19_96
.LBB19_64:                              
	mov	eax, 4030713558
	mov	ecx, 3197079652
	mov	dl, byte ptr [rbp - 41]
	test	dl, 1
	cmovne	eax, ecx
	mov	dword ptr [rbp - 164], eax
	jmp	.LBB19_96
.LBB19_65:                              
	mov	qword ptr [rbp - 152], 0
	mov	dword ptr [rbp - 164], 1780047045
	jmp	.LBB19_96
.LBB19_66:                              
	mov	rax, qword ptr [rbp - 152]
	mov	rdi, qword ptr [rbp - 72]
	mov	qword ptr [rbp - 608], rax 
	call	_ZNKSt6vectorIjN5Botan16secure_allocatorIjEEE4sizeEv
	mov	ecx, 1599090611
	mov	edx, 1898763270
	mov	rdi, qword ptr [rbp - 608] 
	cmp	rdi, rax
	cmovne	ecx, edx
	mov	dword ptr [rbp - 164], ecx
	jmp	.LBB19_96
.LBB19_67:                              
	mov	eax, 2523666095
	mov	ecx, 958215301
	mov	edx, dword ptr [x.44]
	mov	esi, dword ptr [y.45]
	mov	edi, edx
	add	edi, -1816369040
	sub	edi, 1
	sub	edi, -1816369040
	imul	edx, edi
	and	edx, 1
	cmp	edx, 0
	sete	r8b
	cmp	esi, 10
	setl	r9b
	mov	r10b, r8b
	and	r10b, r9b
	xor	r8b, r9b
	or	r10b, r8b
	test	r10b, 1
	cmovne	eax, ecx
	mov	dword ptr [rbp - 164], eax
	jmp	.LBB19_96
.LBB19_68:                              
	mov	rdi, qword ptr [rbp - 72]
	mov	rsi, qword ptr [rbp - 152]
	call	_ZNSt6vectorIjN5Botan16secure_allocatorIjEEEixEm
	mov	edi, dword ptr [rax]
	call	_ZN5Botan13reverse_bytesEj
	mov	rdi, qword ptr [rbp - 72]
	mov	rsi, qword ptr [rbp - 152]
	mov	dword ptr [rbp - 612], eax 
	call	_ZNSt6vectorIjN5Botan16secure_allocatorIjEEEixEm
	mov	ecx, 2523666095
	mov	edx, 1571766198
	xor	r8d, r8d
	mov	r9d, dword ptr [rbp - 612] 
	mov	dword ptr [rax], r9d
	mov	r9d, dword ptr [x.44]
	mov	r10d, dword ptr [y.45]
	sub	r8d, 1
	mov	r11d, r9d
	add	r11d, r8d
	imul	r9d, r11d
	and	r9d, 1
	cmp	r9d, 0
	sete	bl
	cmp	r10d, 10
	setl	r14b
	mov	r15b, bl
	and	r15b, r14b
	xor	bl, r14b
	or	r15b, bl
	test	r15b, 1
	cmovne	ecx, edx
	mov	dword ptr [rbp - 164], ecx
	jmp	.LBB19_96
.LBB19_69:                              
	mov	dword ptr [rbp - 164], 97298314
	jmp	.LBB19_96
.LBB19_70:                              
	movabs	rax, -827221482250929646
	mov	rcx, qword ptr [rbp - 152]
	add	rcx, rax
	add	rcx, 1
	sub	rcx, rax
	mov	qword ptr [rbp - 152], rcx
	mov	dword ptr [rbp - 164], 1780047045
	jmp	.LBB19_96
.LBB19_71:                              
	mov	qword ptr [rbp - 160], 0
	mov	dword ptr [rbp - 164], 1333959585
	jmp	.LBB19_96
.LBB19_72:                              
	mov	rax, qword ptr [rbp - 160]
	mov	rdi, qword ptr [rbp - 80]
	mov	qword ptr [rbp - 624], rax 
	call	_ZNKSt6vectorIjN5Botan16secure_allocatorIjEEE4sizeEv
	mov	ecx, 3284481181
	mov	edx, 3668503891
	mov	rdi, qword ptr [rbp - 624] 
	cmp	rdi, rax
	cmovne	ecx, edx
	mov	dword ptr [rbp - 164], ecx
	jmp	.LBB19_96
.LBB19_73:                              
	mov	eax, 4019283278
	mov	ecx, 612680287
	mov	dl, 1
	xor	esi, esi
	mov	edi, dword ptr [x.44]
	mov	r8d, dword ptr [y.45]
	sub	esi, 1
	mov	r9d, edi
	add	r9d, esi
	imul	edi, r9d
	and	edi, 1
	cmp	edi, 0
	sete	r10b
	cmp	r8d, 10
	setl	r11b
	mov	bl, r10b
	xor	bl, -1
	mov	r14b, r11b
	xor	r14b, -1
	xor	dl, 0
	mov	r15b, bl
	and	r15b, 0
	and	r10b, dl
	mov	r12b, r14b
	and	r12b, 0
	and	r11b, dl
	or	r15b, r10b
	or	r12b, r11b
	xor	r15b, r12b
	or	bl, r14b
	xor	bl, -1
	or	dl, 0
	and	bl, dl
	or	r15b, bl
	test	r15b, 1
	cmovne	eax, ecx
	mov	dword ptr [rbp - 164], eax
	jmp	.LBB19_96
.LBB19_74:                              
	mov	rdi, qword ptr [rbp - 80]
	mov	rsi, qword ptr [rbp - 160]
	call	_ZNSt6vectorIjN5Botan16secure_allocatorIjEEEixEm
	mov	edi, dword ptr [rax]
	call	_ZN5Botan13reverse_bytesEj
	mov	rdi, qword ptr [rbp - 80]
	mov	rsi, qword ptr [rbp - 160]
	mov	dword ptr [rbp - 628], eax 
	call	_ZNSt6vectorIjN5Botan16secure_allocatorIjEEEixEm
	mov	ecx, 4019283278
	mov	edx, 1686299669
	mov	r8b, 1
	mov	r9d, dword ptr [rbp - 628] 
	mov	dword ptr [rax], r9d
	mov	r9d, dword ptr [x.44]
	mov	r10d, dword ptr [y.45]
	mov	r11d, r9d
	add	r11d, 991695810
	sub	r11d, 1
	sub	r11d, 991695810
	imul	r9d, r11d
	and	r9d, 1
	cmp	r9d, 0
	sete	bl
	cmp	r10d, 10
	setl	r14b
	mov	r15b, bl
	xor	r15b, -1
	mov	r12b, r14b
	xor	r12b, -1
	xor	r8b, 0
	mov	r13b, r15b
	and	r13b, 0
	and	bl, r8b
	mov	al, r12b
	and	al, 0
	and	r14b, r8b
	or	r13b, bl
	or	al, r14b
	xor	r13b, al
	or	r15b, r12b
	xor	r15b, -1
	or	r8b, 0
	and	r15b, r8b
	or	r13b, r15b
	test	r13b, 1
	cmovne	ecx, edx
	mov	dword ptr [rbp - 164], ecx
	jmp	.LBB19_96
.LBB19_75:                              
	mov	dword ptr [rbp - 164], -2042430534
	jmp	.LBB19_96
.LBB19_76:                              
	mov	eax, 276470455
	mov	ecx, 285078958
	mov	edx, dword ptr [x.44]
	mov	esi, dword ptr [y.45]
	mov	edi, edx
	sub	edi, 1892204435
	sub	edi, 1
	add	edi, 1892204435
	imul	edx, edi
	and	edx, 1
	cmp	edx, 0
	sete	r8b
	cmp	esi, 10
	setl	r9b
	mov	r10b, r8b
	and	r10b, r9b
	xor	r8b, r9b
	or	r10b, r8b
	test	r10b, 1
	cmovne	eax, ecx
	mov	dword ptr [rbp - 164], eax
	jmp	.LBB19_96
.LBB19_77:                              
	mov	eax, 276470455
	mov	ecx, 2373143397
	mov	dl, 1
	xor	esi, esi
	xor	edi, edi
	mov	r8d, edi
	mov	r9, qword ptr [rbp - 160]
	mov	r10, r8
	sub	r10, r9
	mov	r9, r8
	sub	r9, 1
	add	r10, r9
	sub	r8, r10
	mov	qword ptr [rbp - 160], r8
	mov	edi, dword ptr [x.44]
	mov	r11d, dword ptr [y.45]
	sub	esi, 1
	mov	ebx, edi
	add	ebx, esi
	imul	edi, ebx
	and	edi, 1
	cmp	edi, 0
	sete	r14b
	cmp	r11d, 10
	setl	r15b
	mov	r12b, r14b
	xor	r12b, -1
	mov	r13b, r15b
	xor	r13b, -1
	xor	dl, 1
	mov	sil, r12b
	and	sil, -1
	and	r14b, dl
	mov	dil, r13b
	and	dil, -1
	and	r15b, dl
	or	sil, r14b
	or	dil, r15b
	xor	sil, dil
	or	r12b, r13b
	xor	r12b, -1
	or	dl, 1
	and	r12b, dl
	or	sil, r12b
	test	sil, 1
	cmovne	eax, ecx
	mov	dword ptr [rbp - 164], eax
	jmp	.LBB19_96
.LBB19_78:                              
	mov	dword ptr [rbp - 164], 1333959585
	jmp	.LBB19_96
.LBB19_79:                              
	mov	dword ptr [rbp - 164], -264253738
	jmp	.LBB19_96
.LBB19_80:
	mov	rdi, qword ptr [rbp - 72]
	call	_ZNSt6vectorIjN5Botan16secure_allocatorIjEEE4dataEv
	mov	rdi, qword ptr [rbp - 72]
	mov	qword ptr [rbp - 640], rax 
	call	_ZNKSt6vectorIjN5Botan16secure_allocatorIjEEE4sizeEv
	mov	rdi, qword ptr [rbp - 640] 
	mov	rsi, rax
	call	_ZN5Botan2CT8unpoisonIjEEvPKT_m
	mov	rdi, qword ptr [rbp - 80]
	call	_ZNSt6vectorIjN5Botan16secure_allocatorIjEEE4dataEv
	mov	rdi, qword ptr [rbp - 80]
	mov	qword ptr [rbp - 648], rax 
	call	_ZNKSt6vectorIjN5Botan16secure_allocatorIjEEE4sizeEv
	mov	rdi, qword ptr [rbp - 648] 
	mov	rsi, rax
	call	_ZN5Botan2CT8unpoisonIjEEvPKT_m
	mov	rdi, qword ptr [rbp - 56]
	mov	rsi, qword ptr [rbp - 64]
	call	_ZN5Botan2CT8unpoisonIhEEvPKT_m
	add	rsp, 664
	pop	rbx
	pop	r12
	pop	r13
	pop	r14
	pop	r15
	pop	rbp
	ret
.LBB19_81:                              
	mov	dword ptr [rbp - 164], 1999468470
	jmp	.LBB19_96
.LBB19_82:                              
	movabs	rdi, .L.str.7
	movabs	rsi, .L.str.8
	movabs	rdx, .L__func__._ZN5Botan12_GLOBAL__N_116aes_key_scheduleEPKhmRSt6vectorIjNS_16secure_allocatorIjEEES7_b
	movabs	rcx, .L.str.5
	mov	r8d, 697
	call	_ZN5Botan17assertion_failureEPKcS1_S1_S1_i
	mov	dword ptr [rbp - 164], -633614564
	jmp	.LBB19_96
.LBB19_83:                              
	mov	dword ptr [rbp - 164], 1572708053
	jmp	.LBB19_96
.LBB19_84:                              
	mov	dword ptr [rbp - 164], 1556508693
	jmp	.LBB19_96
.LBB19_85:                              
	mov	rdi, qword ptr [rbp - 56]
	mov	rsi, qword ptr [rbp - 112]
	call	_ZN5Botan7load_beIjEET_PKhm
	mov	rdi, qword ptr [rbp - 72]
	mov	rsi, qword ptr [rbp - 112]
	mov	dword ptr [rbp - 652], eax 
	call	_ZNSt6vectorIjN5Botan16secure_allocatorIjEEEixEm
	mov	ecx, dword ptr [rbp - 652] 
	mov	dword ptr [rax], ecx
	mov	dword ptr [rbp - 164], 1116419444
	jmp	.LBB19_96
.LBB19_86:                              
	xor	eax, eax
	mov	ecx, eax
	mov	rdi, qword ptr [rbp - 72]
	mov	rdx, qword ptr [rbp - 120]
	mov	rsi, qword ptr [rbp - 96]
	sub	rcx, rsi
	add	rdx, rcx
	mov	rsi, rdx
	call	_ZNSt6vectorIjN5Botan16secure_allocatorIjEEEixEm
	xor	r8d, r8d
	mov	ecx, r8d
	mov	r8d, 4294967295
	movabs	rdx, 1056111590940079682
	mov	r9d, dword ptr [rax]
	mov	rax, qword ptr [rbp - 120]
	mov	rsi, qword ptr [rbp - 96]
	add	rax, rdx
	sub	rax, rsi
	sub	rax, rdx
	mov	rdx, qword ptr [rbp - 96]
	xor	r10d, r10d
	mov	qword ptr [rbp - 664], rdx 
	mov	edx, r10d
	mov	rsi, qword ptr [rbp - 664] 
	div	rsi
	mov	r10d, dword ptr [4*rax + _ZZN5Botan12_GLOBAL__N_116aes_key_scheduleEPKhmRSt6vectorIjNS_16secure_allocatorIjEEES7_bE2RC]
	mov	r11d, r9d
	xor	r11d, -1
	and	r11d, 2198401339
	xor	r8d, 2198401339
	and	r9d, r8d
	mov	ebx, r10d
	xor	ebx, -1
	and	ebx, -2096565957
	and	r10d, r8d
	or	r11d, r9d
	or	ebx, r10d
	xor	r11d, ebx
	mov	rdi, qword ptr [rbp - 72]
	mov	rax, qword ptr [rbp - 120]
	sub	rcx, 1
	add	rax, rcx
	mov	rsi, rax
	mov	dword ptr [rbp - 668], r11d 
	call	_ZNSt6vectorIjN5Botan16secure_allocatorIjEEEixEm
	mov	edi, dword ptr [rax]
	call	_ZN5Botan12_GLOBAL__N_17SE_wordEj
	mov	edi, eax
	call	_ZN5Botan4rotlILm8EjEET0_S1_
	mov	edi, 4294967295
	mov	r8d, dword ptr [rbp - 668] 
	xor	r8d, -1
	and	r8d, 803285299
	xor	edi, 803285299
	mov	r9d, dword ptr [rbp - 668] 
	and	r9d, edi
	mov	r10d, eax
	xor	r10d, -1
	and	r10d, 803285299
	and	eax, edi
	or	r8d, r9d
	or	r10d, eax
	xor	r8d, r10d
	mov	rdi, qword ptr [rbp - 72]
	mov	rsi, qword ptr [rbp - 120]
	mov	dword ptr [rbp - 672], r8d 
	call	_ZNSt6vectorIjN5Botan16secure_allocatorIjEEEixEm
	mov	r8d, dword ptr [rbp - 672] 
	mov	dword ptr [rax], r8d
	mov	qword ptr [rbp - 128], 1
	mov	dword ptr [rbp - 164], 1786856472
	jmp	.LBB19_96
.LBB19_87:                              
	mov	rdi, qword ptr [rbp - 72]
	call	_ZNKSt6vectorIjN5Botan16secure_allocatorIjEEE4sizeEv
	mov	dword ptr [rbp - 164], 1397280645
	mov	qword ptr [rbp - 680], rax 
	jmp	.LBB19_96
.LBB19_88:                              
	movabs	rax, 2825230465778254942
	xor	ecx, ecx
	mov	edx, ecx
	mov	rdi, qword ptr [rbp - 72]
	mov	rsi, qword ptr [rbp - 120]
	mov	r8, qword ptr [rbp - 128]
	sub	rdx, r8
	sub	rsi, rdx
	mov	rdx, qword ptr [rbp - 96]
	add	rsi, rax
	sub	rsi, rdx
	sub	rsi, rax
	call	_ZNSt6vectorIjN5Botan16secure_allocatorIjEEEixEm
	xor	ecx, ecx
	mov	edx, ecx
	mov	ecx, dword ptr [rax]
	mov	rdi, qword ptr [rbp - 72]
	mov	rax, qword ptr [rbp - 120]
	mov	rsi, qword ptr [rbp - 128]
	sub	rdx, rsi
	sub	rax, rdx
	mov	rsi, rax
	mov	dword ptr [rbp - 684], ecx 
	call	_ZNSt6vectorIjN5Botan16secure_allocatorIjEEEixEm
	mov	ecx, dword ptr [rbp - 684] 
	mov	dword ptr [rax], ecx
	mov	dword ptr [rbp - 164], 1718998226
	jmp	.LBB19_96
.LBB19_89:                              
	mov	dword ptr [rbp - 164], 1735871419
	jmp	.LBB19_96
.LBB19_90:                              
	movabs	rax, -7475846651247466733
	mov	rcx, qword ptr [rbp - 96]
	mov	rdx, qword ptr [rbp - 120]
	add	rdx, rax
	add	rdx, rcx
	sub	rdx, rax
	mov	qword ptr [rbp - 120], rdx
	mov	dword ptr [rbp - 164], 1994986441
	jmp	.LBB19_96
.LBB19_91:                              
	mov	dword ptr [rbp - 164], 1683834110
	jmp	.LBB19_96
.LBB19_92:                              
	mov	dword ptr [rbp - 164], 357659618
	jmp	.LBB19_96
.LBB19_93:                              
	mov	rdi, qword ptr [rbp - 72]
	mov	rsi, qword ptr [rbp - 152]
	call	_ZNSt6vectorIjN5Botan16secure_allocatorIjEEEixEm
	mov	edi, dword ptr [rax]
	call	_ZN5Botan13reverse_bytesEj
	mov	rdi, qword ptr [rbp - 72]
	mov	rsi, qword ptr [rbp - 152]
	mov	dword ptr [rbp - 688], eax 
	call	_ZNSt6vectorIjN5Botan16secure_allocatorIjEEEixEm
	mov	ecx, dword ptr [rbp - 688] 
	mov	dword ptr [rax], ecx
	mov	dword ptr [rbp - 164], 958215301
	jmp	.LBB19_96
.LBB19_94:                              
	mov	rdi, qword ptr [rbp - 80]
	mov	rsi, qword ptr [rbp - 160]
	call	_ZNSt6vectorIjN5Botan16secure_allocatorIjEEEixEm
	mov	edi, dword ptr [rax]
	call	_ZN5Botan13reverse_bytesEj
	mov	rdi, qword ptr [rbp - 80]
	mov	rsi, qword ptr [rbp - 160]
	mov	dword ptr [rbp - 692], eax 
	call	_ZNSt6vectorIjN5Botan16secure_allocatorIjEEEixEm
	mov	ecx, dword ptr [rbp - 692] 
	mov	dword ptr [rax], ecx
	mov	dword ptr [rbp - 164], 612680287
	jmp	.LBB19_96
.LBB19_95:                              
	movabs	rax, -5372906784892268556
	mov	rcx, qword ptr [rbp - 160]
	add	rcx, rax
	add	rcx, 1
	sub	rcx, rax
	mov	qword ptr [rbp - 160], rcx
	mov	dword ptr [rbp - 164], 285078958
.LBB19_96:                              
	jmp	.LBB19_1
.Lfunc_end19:
	.size	_ZN5Botan12_GLOBAL__N_116aes_key_scheduleEPKhmRSt6vectorIjNS_16secure_allocatorIjEEES7_b, .Lfunc_end19-_ZN5Botan12_GLOBAL__N_116aes_key_scheduleEPKhmRSt6vectorIjNS_16secure_allocatorIjEEES7_b
	.cfi_endproc

	.section	.text._ZN5Botan5CPUID16is_little_endianEv,"axG",@progbits,_ZN5Botan5CPUID16is_little_endianEv,comdat
	.weak	_ZN5Botan5CPUID16is_little_endianEv 
	.p2align	4, 0x90
	.type	_ZN5Botan5CPUID16is_little_endianEv,@function
_ZN5Botan5CPUID16is_little_endianEv:    

	push	rbp
	mov	rbp, rsp
	mov	al, 1
	and	al, 1
	movzx	eax, al
	pop	rbp
	ret
.Lfunc_end20:
	.size	_ZN5Botan5CPUID16is_little_endianEv, .Lfunc_end20-_ZN5Botan5CPUID16is_little_endianEv

	.text
	.globl	_ZN5Botan7AES_1285clearEv 
	.p2align	4, 0x90
	.type	_ZN5Botan7AES_1285clearEv,@function
_ZN5Botan7AES_1285clearEv:              
	.cfi_startproc

	push	rbp
.Lcfi98:
	.cfi_def_cfa_offset 16
.Lcfi99:
	.cfi_offset rbp, -16
	mov	rbp, rsp
.Lcfi100:
	.cfi_def_cfa_register rbp
	sub	rsp, 16
	mov	qword ptr [rbp - 8], rdi
	mov	rdi, qword ptr [rbp - 8]
	mov	rax, rdi
	add	rax, 8
	mov	qword ptr [rbp - 16], rdi 
	mov	rdi, rax
	call	_ZN5Botan3zapIjNS_16secure_allocatorIjEEEEvRSt6vectorIT_T0_E
	mov	rax, qword ptr [rbp - 16] 
	add	rax, 32
	mov	rdi, rax
	call	_ZN5Botan3zapIjNS_16secure_allocatorIjEEEEvRSt6vectorIT_T0_E
	add	rsp, 16
	pop	rbp
	ret
.Lfunc_end21:
	.size	_ZN5Botan7AES_1285clearEv, .Lfunc_end21-_ZN5Botan7AES_1285clearEv
	.cfi_endproc

	.section	.text._ZN5Botan3zapIjNS_16secure_allocatorIjEEEEvRSt6vectorIT_T0_E,"axG",@progbits,_ZN5Botan3zapIjNS_16secure_allocatorIjEEEEvRSt6vectorIT_T0_E,comdat
	.weak	_ZN5Botan3zapIjNS_16secure_allocatorIjEEEEvRSt6vectorIT_T0_E 
	.p2align	4, 0x90
	.type	_ZN5Botan3zapIjNS_16secure_allocatorIjEEEEvRSt6vectorIT_T0_E,@function
_ZN5Botan3zapIjNS_16secure_allocatorIjEEEEvRSt6vectorIT_T0_E: 
	.cfi_startproc

	push	rbp
.Lcfi101:
	.cfi_def_cfa_offset 16
.Lcfi102:
	.cfi_offset rbp, -16
	mov	rbp, rsp
.Lcfi103:
	.cfi_def_cfa_register rbp
	sub	rsp, 16
	mov	qword ptr [rbp - 8], rdi
	mov	rdi, qword ptr [rbp - 8]
	call	_ZN5Botan7zeroiseIjNS_16secure_allocatorIjEEEEvRSt6vectorIT_T0_E
	mov	rdi, qword ptr [rbp - 8]
	call	_ZNSt6vectorIjN5Botan16secure_allocatorIjEEE5clearEv
	mov	rdi, qword ptr [rbp - 8]
	call	_ZNSt6vectorIjN5Botan16secure_allocatorIjEEE13shrink_to_fitEv
	add	rsp, 16
	pop	rbp
	ret
.Lfunc_end22:
	.size	_ZN5Botan3zapIjNS_16secure_allocatorIjEEEEvRSt6vectorIT_T0_E, .Lfunc_end22-_ZN5Botan3zapIjNS_16secure_allocatorIjEEEEvRSt6vectorIT_T0_E
	.cfi_endproc

	.text
	.globl	_ZNK5Botan7AES_1929encrypt_nEPKhPhm 
	.p2align	4, 0x90
	.type	_ZNK5Botan7AES_1929encrypt_nEPKhPhm,@function
_ZNK5Botan7AES_1929encrypt_nEPKhPhm:    
	.cfi_startproc

	push	rbp
.Lcfi104:
	.cfi_def_cfa_offset 16
.Lcfi105:
	.cfi_offset rbp, -16
	mov	rbp, rsp
.Lcfi106:
	.cfi_def_cfa_register rbp
	push	r15
	push	r14
	push	r13
	push	r12
	push	rbx
	sub	rsp, 120
.Lcfi107:
	.cfi_offset rbx, -56
.Lcfi108:
	.cfi_offset r12, -48
.Lcfi109:
	.cfi_offset r13, -40
.Lcfi110:
	.cfi_offset r14, -32
.Lcfi111:
	.cfi_offset r15, -24
	mov	qword ptr [rbp - 64], rdi
	mov	qword ptr [rbp - 72], rsi
	mov	qword ptr [rbp - 80], rdx
	mov	qword ptr [rbp - 88], rcx
	mov	rcx, qword ptr [rbp - 64]
	mov	qword ptr [rbp - 56], rcx
	mov	rcx, qword ptr [rbp - 56]
	mov	rdx, qword ptr [rbp - 56]
	add	rdx, 8
	mov	rdi, rdx
	mov	qword ptr [rbp - 104], rcx 
	call	_ZNKSt6vectorIjN5Botan16secure_allocatorIjEEE5emptyEv
	and	al, 1
	movzx	r8d, al
	cmp	r8d, 0
	sete	al
	and	al, 1
	movzx	esi, al
	mov	rdi, qword ptr [rbp - 104] 
	call	_ZNK5Botan18SymmetricAlgorithm14verify_key_setEb
	mov	dword ptr [rbp - 92], 425115453
.LBB23_1:                               
	mov	eax, dword ptr [rbp - 92]
	mov	ecx, eax
	sub	ecx, -2125252109
	mov	dword ptr [rbp - 108], eax 
	mov	dword ptr [rbp - 112], ecx 
	je	.LBB23_4
	jmp	.LBB23_16
.LBB23_16:                              
	mov	eax, dword ptr [rbp - 108] 
	sub	eax, -1703915606
	mov	dword ptr [rbp - 116], eax 
	je	.LBB23_5
	jmp	.LBB23_17
.LBB23_17:                              
	mov	eax, dword ptr [rbp - 108] 
	sub	eax, -1439926449
	mov	dword ptr [rbp - 120], eax 
	je	.LBB23_11
	jmp	.LBB23_18
.LBB23_18:                              
	mov	eax, dword ptr [rbp - 108] 
	sub	eax, -819542735
	mov	dword ptr [rbp - 124], eax 
	je	.LBB23_13
	jmp	.LBB23_19
.LBB23_19:                              
	mov	eax, dword ptr [rbp - 108] 
	sub	eax, -806874675
	mov	dword ptr [rbp - 128], eax 
	je	.LBB23_7
	jmp	.LBB23_20
.LBB23_20:                              
	mov	eax, dword ptr [rbp - 108] 
	sub	eax, -501224715
	mov	dword ptr [rbp - 132], eax 
	je	.LBB23_12
	jmp	.LBB23_21
.LBB23_21:                              
	mov	eax, dword ptr [rbp - 108] 
	sub	eax, -76613713
	mov	dword ptr [rbp - 136], eax 
	je	.LBB23_6
	jmp	.LBB23_22
.LBB23_22:                              
	mov	eax, dword ptr [rbp - 108] 
	sub	eax, 425115453
	mov	dword ptr [rbp - 140], eax 
	je	.LBB23_3
	jmp	.LBB23_23
.LBB23_23:                              
	mov	eax, dword ptr [rbp - 108] 
	sub	eax, 1109513756
	mov	dword ptr [rbp - 144], eax 
	je	.LBB23_8
	jmp	.LBB23_24
.LBB23_24:                              
	mov	eax, dword ptr [rbp - 108] 
	sub	eax, 1166562766
	mov	dword ptr [rbp - 148], eax 
	je	.LBB23_9
	jmp	.LBB23_25
.LBB23_25:                              
	mov	eax, dword ptr [rbp - 108] 
	sub	eax, 1380536562
	mov	dword ptr [rbp - 152], eax 
	je	.LBB23_10
	jmp	.LBB23_26
.LBB23_26:                              
	mov	eax, dword ptr [rbp - 108] 
	sub	eax, 1696736396
	mov	dword ptr [rbp - 156], eax 
	je	.LBB23_14
	jmp	.LBB23_2
.LBB23_2:                               
	jmp	.LBB23_15
.LBB23_3:                               
	call	_ZN5Botan5CPUID10has_hw_aesEv
	mov	ecx, 2591051690
	mov	edx, 2169715187
	test	al, 1
	cmovne	ecx, edx
	mov	dword ptr [rbp - 92], ecx
	jmp	.LBB23_15
.LBB23_4:                               
	mov	rsi, qword ptr [rbp - 72]
	mov	rdx, qword ptr [rbp - 80]
	mov	rcx, qword ptr [rbp - 88]
	mov	rdi, qword ptr [rbp - 56]
	call	_ZNK5Botan7AES_19216hw_aes_encrypt_nEPKhPhm
	mov	dword ptr [rbp - 92], -501224715
	jmp	.LBB23_15
.LBB23_5:                               
	mov	eax, 3475424561
	mov	ecx, 4218353583
	mov	dl, 1
	mov	esi, dword ptr [x.52]
	mov	edi, dword ptr [y.53]
	mov	r8d, esi
	add	r8d, -1125593436
	sub	r8d, 1
	sub	r8d, -1125593436
	imul	esi, r8d
	and	esi, 1
	cmp	esi, 0
	sete	r9b
	cmp	edi, 10
	setl	r10b
	mov	r11b, r9b
	xor	r11b, -1
	mov	bl, r10b
	xor	bl, -1
	xor	dl, 1
	mov	r14b, r11b
	and	r14b, -1
	and	r9b, dl
	mov	r15b, bl
	and	r15b, -1
	and	r10b, dl
	or	r14b, r9b
	or	r15b, r10b
	xor	r14b, r15b
	or	r11b, bl
	xor	r11b, -1
	or	dl, 1
	and	r11b, dl
	or	r14b, r11b
	test	r14b, 1
	cmovne	eax, ecx
	mov	dword ptr [rbp - 92], eax
	jmp	.LBB23_15
.LBB23_6:                               
	call	_ZN5Botan5CPUID9has_vpermEv
	mov	ecx, 3475424561
	mov	edx, 3488092621
	mov	sil, 1
	and	al, 1
	mov	byte ptr [rbp - 41], al
	mov	edi, dword ptr [x.52]
	mov	r8d, dword ptr [y.53]
	mov	r9d, edi
	sub	r9d, -1526352224
	sub	r9d, 1
	add	r9d, -1526352224
	imul	edi, r9d
	and	edi, 1
	cmp	edi, 0
	sete	al
	cmp	r8d, 10
	setl	r10b
	mov	r11b, al
	xor	r11b, -1
	mov	bl, r10b
	xor	bl, -1
	xor	sil, 1
	mov	r14b, r11b
	and	r14b, -1
	and	al, sil
	mov	r15b, bl
	and	r15b, -1
	and	r10b, sil
	or	r14b, al
	or	r15b, r10b
	xor	r14b, r15b
	or	r11b, bl
	xor	r11b, -1
	or	sil, 1
	and	r11b, sil
	or	r14b, r11b
	test	r14b, 1
	cmovne	ecx, edx
	mov	dword ptr [rbp - 92], ecx
	jmp	.LBB23_15
.LBB23_7:                               
	mov	eax, 1166562766
	mov	ecx, 1109513756
	mov	dl, byte ptr [rbp - 41]
	test	dl, 1
	cmovne	eax, ecx
	mov	dword ptr [rbp - 92], eax
	jmp	.LBB23_15
.LBB23_8:                               
	mov	rsi, qword ptr [rbp - 72]
	mov	rdx, qword ptr [rbp - 80]
	mov	rcx, qword ptr [rbp - 88]
	mov	rdi, qword ptr [rbp - 56]
	call	_ZNK5Botan7AES_19215vperm_encrypt_nEPKhPhm
	mov	dword ptr [rbp - 92], -501224715
	jmp	.LBB23_15
.LBB23_9:                               
	mov	eax, 1696736396
	mov	ecx, 1380536562
	mov	dl, 1
	xor	esi, esi
	mov	edi, dword ptr [x.52]
	mov	r8d, dword ptr [y.53]
	sub	esi, 1
	mov	r9d, edi
	add	r9d, esi
	imul	edi, r9d
	and	edi, 1
	cmp	edi, 0
	sete	r10b
	cmp	r8d, 10
	setl	r11b
	mov	bl, r10b
	xor	bl, -1
	mov	r14b, r11b
	xor	r14b, -1
	xor	dl, 1
	mov	r15b, bl
	and	r15b, -1
	and	r10b, dl
	mov	r12b, r14b
	and	r12b, -1
	and	r11b, dl
	or	r15b, r10b
	or	r12b, r11b
	xor	r15b, r12b
	or	bl, r14b
	xor	bl, -1
	or	dl, 1
	and	bl, dl
	or	r15b, bl
	test	r15b, 1
	cmovne	eax, ecx
	mov	dword ptr [rbp - 92], eax
	jmp	.LBB23_15
.LBB23_10:                              
	mov	rdi, qword ptr [rbp - 72]
	mov	rsi, qword ptr [rbp - 80]
	mov	rdx, qword ptr [rbp - 88]
	mov	rax, qword ptr [rbp - 56]
	add	rax, 8
	mov	rcx, rax
	call	_ZN5Botan12_GLOBAL__N_113aes_encrypt_nEPKhPhmRKSt6vectorIjNS_16secure_allocatorIjEEE
	mov	r8d, 1696736396
	mov	r9d, 2855040847
	mov	r10b, 1
	xor	r11d, r11d
	mov	ebx, dword ptr [x.52]
	mov	r14d, dword ptr [y.53]
	sub	r11d, 1
	mov	r15d, ebx
	add	r15d, r11d
	imul	ebx, r15d
	and	ebx, 1
	cmp	ebx, 0
	sete	r12b
	cmp	r14d, 10
	setl	r13b
	mov	al, r12b
	xor	al, -1
	mov	cl, r13b
	xor	cl, -1
	xor	r10b, 1
	mov	dl, al
	and	dl, -1
	and	r12b, r10b
	mov	sil, cl
	and	sil, -1
	and	r13b, r10b
	or	dl, r12b
	or	sil, r13b
	xor	dl, sil
	or	al, cl
	xor	al, -1
	or	r10b, 1
	and	al, r10b
	or	dl, al
	test	dl, 1
	cmovne	r8d, r9d
	mov	dword ptr [rbp - 92], r8d
	jmp	.LBB23_15
.LBB23_11:                              
	mov	dword ptr [rbp - 92], -501224715
	jmp	.LBB23_15
.LBB23_12:
	add	rsp, 120
	pop	rbx
	pop	r12
	pop	r13
	pop	r14
	pop	r15
	pop	rbp
	ret
.LBB23_13:                              
	call	_ZN5Botan5CPUID9has_vpermEv
	mov	dword ptr [rbp - 92], -76613713
	mov	byte ptr [rbp - 157], al 
	jmp	.LBB23_15
.LBB23_14:                              
	mov	rdi, qword ptr [rbp - 72]
	mov	rsi, qword ptr [rbp - 80]
	mov	rdx, qword ptr [rbp - 88]
	mov	rax, qword ptr [rbp - 56]
	add	rax, 8
	mov	rcx, rax
	call	_ZN5Botan12_GLOBAL__N_113aes_encrypt_nEPKhPhmRKSt6vectorIjNS_16secure_allocatorIjEEE
	mov	dword ptr [rbp - 92], 1380536562
.LBB23_15:                              
	jmp	.LBB23_1
.Lfunc_end23:
	.size	_ZNK5Botan7AES_1929encrypt_nEPKhPhm, .Lfunc_end23-_ZNK5Botan7AES_1929encrypt_nEPKhPhm
	.cfi_endproc

	.globl	_ZNK5Botan7AES_1929decrypt_nEPKhPhm 
	.p2align	4, 0x90
	.type	_ZNK5Botan7AES_1929decrypt_nEPKhPhm,@function
_ZNK5Botan7AES_1929decrypt_nEPKhPhm:    
	.cfi_startproc

	push	rbp
.Lcfi112:
	.cfi_def_cfa_offset 16
.Lcfi113:
	.cfi_offset rbp, -16
	mov	rbp, rsp
.Lcfi114:
	.cfi_def_cfa_register rbp
	sub	rsp, 96
	mov	qword ptr [rbp - 16], rdi
	mov	qword ptr [rbp - 24], rsi
	mov	qword ptr [rbp - 32], rdx
	mov	qword ptr [rbp - 40], rcx
	mov	rcx, qword ptr [rbp - 16]
	mov	qword ptr [rbp - 8], rcx
	mov	rcx, qword ptr [rbp - 8]
	mov	rdx, qword ptr [rbp - 8]
	add	rdx, 32
	mov	rdi, rdx
	mov	qword ptr [rbp - 56], rcx 
	call	_ZNKSt6vectorIjN5Botan16secure_allocatorIjEEE5emptyEv
	and	al, 1
	movzx	r8d, al
	cmp	r8d, 0
	sete	al
	and	al, 1
	movzx	esi, al
	mov	rdi, qword ptr [rbp - 56] 
	call	_ZNK5Botan18SymmetricAlgorithm14verify_key_setEb
	mov	dword ptr [rbp - 44], 2001535909
.LBB24_1:                               
	mov	eax, dword ptr [rbp - 44]
	mov	ecx, eax
	sub	ecx, -1611681810
	mov	dword ptr [rbp - 60], eax 
	mov	dword ptr [rbp - 64], ecx 
	je	.LBB24_6
	jmp	.LBB24_10
.LBB24_10:                              
	mov	eax, dword ptr [rbp - 60] 
	sub	eax, -611951712
	mov	dword ptr [rbp - 68], eax 
	je	.LBB24_8
	jmp	.LBB24_11
.LBB24_11:                              
	mov	eax, dword ptr [rbp - 60] 
	sub	eax, 371748401
	mov	dword ptr [rbp - 72], eax 
	je	.LBB24_7
	jmp	.LBB24_12
.LBB24_12:                              
	mov	eax, dword ptr [rbp - 60] 
	sub	eax, 1331788993
	mov	dword ptr [rbp - 76], eax 
	je	.LBB24_4
	jmp	.LBB24_13
.LBB24_13:                              
	mov	eax, dword ptr [rbp - 60] 
	sub	eax, 1841013203
	mov	dword ptr [rbp - 80], eax 
	je	.LBB24_5
	jmp	.LBB24_14
.LBB24_14:                              
	mov	eax, dword ptr [rbp - 60] 
	sub	eax, 2001535909
	mov	dword ptr [rbp - 84], eax 
	je	.LBB24_3
	jmp	.LBB24_2
.LBB24_2:                               
	jmp	.LBB24_9
.LBB24_3:                               
	call	_ZN5Botan5CPUID10has_hw_aesEv
	mov	ecx, 1841013203
	mov	edx, 1331788993
	test	al, 1
	cmovne	ecx, edx
	mov	dword ptr [rbp - 44], ecx
	jmp	.LBB24_9
.LBB24_4:                               
	mov	rsi, qword ptr [rbp - 24]
	mov	rdx, qword ptr [rbp - 32]
	mov	rcx, qword ptr [rbp - 40]
	mov	rdi, qword ptr [rbp - 8]
	call	_ZNK5Botan7AES_19216hw_aes_decrypt_nEPKhPhm
	mov	dword ptr [rbp - 44], -611951712
	jmp	.LBB24_9
.LBB24_5:                               
	call	_ZN5Botan5CPUID9has_vpermEv
	mov	ecx, 371748401
	mov	edx, 2683285486
	test	al, 1
	cmovne	ecx, edx
	mov	dword ptr [rbp - 44], ecx
	jmp	.LBB24_9
.LBB24_6:                               
	mov	rsi, qword ptr [rbp - 24]
	mov	rdx, qword ptr [rbp - 32]
	mov	rcx, qword ptr [rbp - 40]
	mov	rdi, qword ptr [rbp - 8]
	call	_ZNK5Botan7AES_19215vperm_decrypt_nEPKhPhm
	mov	dword ptr [rbp - 44], -611951712
	jmp	.LBB24_9
.LBB24_7:                               
	mov	rdi, qword ptr [rbp - 24]
	mov	rsi, qword ptr [rbp - 32]
	mov	rdx, qword ptr [rbp - 40]
	mov	rax, qword ptr [rbp - 8]
	add	rax, 32
	mov	rcx, rax
	call	_ZN5Botan12_GLOBAL__N_113aes_decrypt_nEPKhPhmRKSt6vectorIjNS_16secure_allocatorIjEEE
	mov	dword ptr [rbp - 44], -611951712
	jmp	.LBB24_9
.LBB24_8:
	add	rsp, 96
	pop	rbp
	ret
.LBB24_9:                               
	jmp	.LBB24_1
.Lfunc_end24:
	.size	_ZNK5Botan7AES_1929decrypt_nEPKhPhm, .Lfunc_end24-_ZNK5Botan7AES_1929decrypt_nEPKhPhm
	.cfi_endproc

	.globl	_ZN5Botan7AES_19212key_scheduleEPKhm 
	.p2align	4, 0x90
	.type	_ZN5Botan7AES_19212key_scheduleEPKhm,@function
_ZN5Botan7AES_19212key_scheduleEPKhm:   
	.cfi_startproc

	push	rbp
.Lcfi115:
	.cfi_def_cfa_offset 16
.Lcfi116:
	.cfi_offset rbp, -16
	mov	rbp, rsp
.Lcfi117:
	.cfi_def_cfa_register rbp
	sub	rsp, 144
	mov	qword ptr [rbp - 24], rdi
	mov	qword ptr [rbp - 32], rsi
	mov	qword ptr [rbp - 40], rdx
	mov	rdx, qword ptr [rbp - 24]
	mov	qword ptr [rbp - 16], rdx
	mov	dword ptr [rbp - 44], -624185016
.LBB25_1:                               
	mov	eax, dword ptr [rbp - 44]
	mov	ecx, eax
	sub	ecx, -2136966696
	mov	dword ptr [rbp - 48], eax 
	mov	dword ptr [rbp - 52], ecx 
	je	.LBB25_13
	jmp	.LBB25_15
.LBB25_15:                              
	mov	eax, dword ptr [rbp - 48] 
	sub	eax, -877872424
	mov	dword ptr [rbp - 56], eax 
	je	.LBB25_8
	jmp	.LBB25_16
.LBB25_16:                              
	mov	eax, dword ptr [rbp - 48] 
	sub	eax, -624185016
	mov	dword ptr [rbp - 60], eax 
	je	.LBB25_3
	jmp	.LBB25_17
.LBB25_17:                              
	mov	eax, dword ptr [rbp - 48] 
	sub	eax, -439470677
	mov	dword ptr [rbp - 64], eax 
	je	.LBB25_6
	jmp	.LBB25_18
.LBB25_18:                              
	mov	eax, dword ptr [rbp - 48] 
	sub	eax, -289802932
	mov	dword ptr [rbp - 68], eax 
	je	.LBB25_12
	jmp	.LBB25_19
.LBB25_19:                              
	mov	eax, dword ptr [rbp - 48] 
	sub	eax, -131156378
	mov	dword ptr [rbp - 72], eax 
	je	.LBB25_5
	jmp	.LBB25_20
.LBB25_20:                              
	mov	eax, dword ptr [rbp - 48] 
	sub	eax, 377786113
	mov	dword ptr [rbp - 76], eax 
	je	.LBB25_7
	jmp	.LBB25_21
.LBB25_21:                              
	mov	eax, dword ptr [rbp - 48] 
	sub	eax, 652578998
	mov	dword ptr [rbp - 80], eax 
	je	.LBB25_4
	jmp	.LBB25_22
.LBB25_22:                              
	mov	eax, dword ptr [rbp - 48] 
	sub	eax, 1245323433
	mov	dword ptr [rbp - 84], eax 
	je	.LBB25_10
	jmp	.LBB25_23
.LBB25_23:                              
	mov	eax, dword ptr [rbp - 48] 
	sub	eax, 1360597778
	mov	dword ptr [rbp - 88], eax 
	je	.LBB25_11
	jmp	.LBB25_24
.LBB25_24:                              
	mov	eax, dword ptr [rbp - 48] 
	sub	eax, 1612469203
	mov	dword ptr [rbp - 92], eax 
	je	.LBB25_9
	jmp	.LBB25_2
.LBB25_2:                               
	jmp	.LBB25_14
.LBB25_3:                               
	call	_ZN5Botan5CPUID10has_aes_niEv
	mov	ecx, 4163810918
	mov	edx, 652578998
	test	al, 1
	cmovne	ecx, edx
	mov	dword ptr [rbp - 44], ecx
	jmp	.LBB25_14
.LBB25_4:                               
	mov	rsi, qword ptr [rbp - 32]
	mov	rdx, qword ptr [rbp - 40]
	mov	rdi, qword ptr [rbp - 16]
	call	_ZN5Botan7AES_19218aesni_key_scheduleEPKhm
	mov	dword ptr [rbp - 44], -289802932
	jmp	.LBB25_14
.LBB25_5:                               
	mov	eax, 2158000600
	mov	ecx, 3855496619
	mov	edx, dword ptr [x.56]
	mov	esi, dword ptr [y.57]
	mov	edi, edx
	add	edi, -1326161036
	sub	edi, 1
	sub	edi, -1326161036
	imul	edx, edi
	and	edx, 1
	cmp	edx, 0
	sete	r8b
	cmp	esi, 10
	setl	r9b
	mov	r10b, r8b
	and	r10b, r9b
	xor	r8b, r9b
	or	r10b, r8b
	test	r10b, 1
	cmovne	eax, ecx
	mov	dword ptr [rbp - 44], eax
	jmp	.LBB25_14
.LBB25_6:                               
	call	_ZN5Botan5CPUID10has_hw_aesEv
	mov	ecx, 2158000600
	mov	edx, 377786113
	xor	esi, esi
	and	al, 1
	mov	byte ptr [rbp - 1], al
	mov	edi, dword ptr [x.56]
	mov	r8d, dword ptr [y.57]
	sub	esi, 1
	mov	r9d, edi
	add	r9d, esi
	imul	edi, r9d
	and	edi, 1
	cmp	edi, 0
	sete	al
	cmp	r8d, 10
	setl	r10b
	mov	r11b, al
	and	r11b, r10b
	xor	al, r10b
	or	r11b, al
	test	r11b, 1
	cmovne	ecx, edx
	mov	dword ptr [rbp - 44], ecx
	jmp	.LBB25_14
.LBB25_7:                               
	mov	eax, 1612469203
	mov	ecx, 3417094872
	mov	dl, byte ptr [rbp - 1]
	test	dl, 1
	cmovne	eax, ecx
	mov	dword ptr [rbp - 44], eax
	jmp	.LBB25_14
.LBB25_8:                               
	mov	rdi, qword ptr [rbp - 32]
	mov	rsi, qword ptr [rbp - 40]
	mov	rax, qword ptr [rbp - 16]
	add	rax, 8
	mov	rcx, qword ptr [rbp - 16]
	add	rcx, 32
	mov	qword ptr [rbp - 104], rdi 
	mov	qword ptr [rbp - 112], rsi 
	mov	qword ptr [rbp - 120], rax 
	mov	qword ptr [rbp - 128], rcx 
	call	_ZN5Botan5CPUID16is_little_endianEv
	and	al, 1
	movzx	r8d, al
	mov	rdi, qword ptr [rbp - 104] 
	mov	rsi, qword ptr [rbp - 112] 
	mov	rdx, qword ptr [rbp - 120] 
	mov	rcx, qword ptr [rbp - 128] 
	call	_ZN5Botan12_GLOBAL__N_116aes_key_scheduleEPKhmRSt6vectorIjNS_16secure_allocatorIjEEES7_b
	mov	dword ptr [rbp - 44], -289802932
	jmp	.LBB25_14
.LBB25_9:                               
	call	_ZN5Botan5CPUID9has_vpermEv
	mov	ecx, 1360597778
	mov	edx, 1245323433
	test	al, 1
	cmovne	ecx, edx
	mov	dword ptr [rbp - 44], ecx
	jmp	.LBB25_14
.LBB25_10:                              
	mov	rsi, qword ptr [rbp - 32]
	mov	rdx, qword ptr [rbp - 40]
	mov	rdi, qword ptr [rbp - 16]
	call	_ZN5Botan7AES_19218vperm_key_scheduleEPKhm
	mov	dword ptr [rbp - 44], -289802932
	jmp	.LBB25_14
.LBB25_11:                              
	xor	r8d, r8d
	mov	rdi, qword ptr [rbp - 32]
	mov	rsi, qword ptr [rbp - 40]
	mov	rax, qword ptr [rbp - 16]
	add	rax, 8
	mov	rcx, qword ptr [rbp - 16]
	add	rcx, 32
	mov	rdx, rax
	call	_ZN5Botan12_GLOBAL__N_116aes_key_scheduleEPKhmRSt6vectorIjNS_16secure_allocatorIjEEES7_b
	mov	dword ptr [rbp - 44], -289802932
	jmp	.LBB25_14
.LBB25_12:
	add	rsp, 144
	pop	rbp
	ret
.LBB25_13:                              
	call	_ZN5Botan5CPUID10has_hw_aesEv
	mov	dword ptr [rbp - 44], -439470677
	mov	byte ptr [rbp - 129], al 
.LBB25_14:                              
	jmp	.LBB25_1
.Lfunc_end25:
	.size	_ZN5Botan7AES_19212key_scheduleEPKhm, .Lfunc_end25-_ZN5Botan7AES_19212key_scheduleEPKhm
	.cfi_endproc

	.globl	_ZN5Botan7AES_1925clearEv 
	.p2align	4, 0x90
	.type	_ZN5Botan7AES_1925clearEv,@function
_ZN5Botan7AES_1925clearEv:              
	.cfi_startproc

	push	rbp
.Lcfi118:
	.cfi_def_cfa_offset 16
.Lcfi119:
	.cfi_offset rbp, -16
	mov	rbp, rsp
.Lcfi120:
	.cfi_def_cfa_register rbp
	sub	rsp, 16
	mov	qword ptr [rbp - 8], rdi
	mov	rdi, qword ptr [rbp - 8]
	mov	rax, rdi
	add	rax, 8
	mov	qword ptr [rbp - 16], rdi 
	mov	rdi, rax
	call	_ZN5Botan3zapIjNS_16secure_allocatorIjEEEEvRSt6vectorIT_T0_E
	mov	rax, qword ptr [rbp - 16] 
	add	rax, 32
	mov	rdi, rax
	call	_ZN5Botan3zapIjNS_16secure_allocatorIjEEEEvRSt6vectorIT_T0_E
	add	rsp, 16
	pop	rbp
	ret
.Lfunc_end26:
	.size	_ZN5Botan7AES_1925clearEv, .Lfunc_end26-_ZN5Botan7AES_1925clearEv
	.cfi_endproc

	.globl	_ZNK5Botan7AES_2569encrypt_nEPKhPhm 
	.p2align	4, 0x90
	.type	_ZNK5Botan7AES_2569encrypt_nEPKhPhm,@function
_ZNK5Botan7AES_2569encrypt_nEPKhPhm:    
	.cfi_startproc

	push	rbp
.Lcfi121:
	.cfi_def_cfa_offset 16
.Lcfi122:
	.cfi_offset rbp, -16
	mov	rbp, rsp
.Lcfi123:
	.cfi_def_cfa_register rbp
	push	r15
	push	r14
	push	rbx
	sub	rsp, 152
.Lcfi124:
	.cfi_offset rbx, -40
.Lcfi125:
	.cfi_offset r14, -32
.Lcfi126:
	.cfi_offset r15, -24
	mov	eax, dword ptr [x.60]
	mov	r8d, dword ptr [y.61]
	mov	r9d, eax
	sub	r9d, 523571887
	sub	r9d, 1
	add	r9d, 523571887
	imul	eax, r9d
	and	eax, 1
	cmp	eax, 0
	sete	r10b
	and	r10b, 1
	mov	byte ptr [rbp - 66], r10b
	cmp	r8d, 10
	setl	r10b
	and	r10b, 1
	mov	byte ptr [rbp - 65], r10b
	mov	dword ptr [rbp - 72], -435899003
	mov	qword ptr [rbp - 80], rdx 
	mov	qword ptr [rbp - 88], rsi 
	mov	qword ptr [rbp - 96], rdi 
	mov	qword ptr [rbp - 104], rcx 
.LBB27_1:                               
	mov	eax, dword ptr [rbp - 72]
	mov	ecx, eax
	sub	ecx, -1538703082
	mov	dword ptr [rbp - 108], eax 
	mov	dword ptr [rbp - 112], ecx 
	je	.LBB27_10
	jmp	.LBB27_13
.LBB27_13:                              
	mov	eax, dword ptr [rbp - 108] 
	sub	eax, -1098888252
	mov	dword ptr [rbp - 116], eax 
	je	.LBB27_5
	jmp	.LBB27_14
.LBB27_14:                              
	mov	eax, dword ptr [rbp - 108] 
	sub	eax, -572071257
	mov	dword ptr [rbp - 120], eax 
	je	.LBB27_7
	jmp	.LBB27_15
.LBB27_15:                              
	mov	eax, dword ptr [rbp - 108] 
	sub	eax, -435899003
	mov	dword ptr [rbp - 124], eax 
	je	.LBB27_3
	jmp	.LBB27_16
.LBB27_16:                              
	mov	eax, dword ptr [rbp - 108] 
	sub	eax, 217464898
	mov	dword ptr [rbp - 128], eax 
	je	.LBB27_4
	jmp	.LBB27_17
.LBB27_17:                              
	mov	eax, dword ptr [rbp - 108] 
	sub	eax, 803569999
	mov	dword ptr [rbp - 132], eax 
	je	.LBB27_11
	jmp	.LBB27_18
.LBB27_18:                              
	mov	eax, dword ptr [rbp - 108] 
	sub	eax, 1224906403
	mov	dword ptr [rbp - 136], eax 
	je	.LBB27_6
	jmp	.LBB27_19
.LBB27_19:                              
	mov	eax, dword ptr [rbp - 108] 
	sub	eax, 1461977281
	mov	dword ptr [rbp - 140], eax 
	je	.LBB27_8
	jmp	.LBB27_20
.LBB27_20:                              
	mov	eax, dword ptr [rbp - 108] 
	sub	eax, 1488361536
	mov	dword ptr [rbp - 144], eax 
	je	.LBB27_9
	jmp	.LBB27_2
.LBB27_2:                               
	jmp	.LBB27_12
.LBB27_3:                               
	mov	eax, 803569999
	mov	ecx, 217464898
	mov	dl, byte ptr [rbp - 66]
	mov	sil, byte ptr [rbp - 65]
	mov	dil, dl
	and	dil, sil
	xor	dl, sil
	or	dil, dl
	test	dil, 1
	cmovne	eax, ecx
	mov	dword ptr [rbp - 72], eax
	jmp	.LBB27_12
.LBB27_4:                               
	mov	rax, rsp
	add	rax, -16
	mov	rsp, rax
	mov	rcx, rsp
	add	rcx, -16
	mov	rsp, rcx
	mov	qword ptr [rbp - 64], rcx
	mov	rcx, rsp
	add	rcx, -16
	mov	rsp, rcx
	mov	qword ptr [rbp - 56], rcx
	mov	rcx, rsp
	add	rcx, -16
	mov	rsp, rcx
	mov	qword ptr [rbp - 48], rcx
	mov	rcx, qword ptr [rbp - 96] 
	mov	qword ptr [rax], rcx
	mov	rdx, qword ptr [rbp - 64]
	mov	rsi, qword ptr [rbp - 88] 
	mov	qword ptr [rdx], rsi
	mov	rdx, qword ptr [rbp - 56]
	mov	rdi, qword ptr [rbp - 80] 
	mov	qword ptr [rdx], rdi
	mov	rdx, qword ptr [rbp - 48]
	mov	r8, qword ptr [rbp - 104] 
	mov	qword ptr [rdx], r8
	mov	rax, qword ptr [rax]
	mov	qword ptr [rbp - 40], rax
	mov	rax, qword ptr [rbp - 40]
	mov	rdx, qword ptr [rbp - 40]
	add	rdx, 8
	mov	rdi, rdx
	mov	qword ptr [rbp - 152], rax 
	call	_ZNKSt6vectorIjN5Botan16secure_allocatorIjEEE5emptyEv
	and	al, 1
	movzx	r9d, al
	cmp	r9d, 0
	sete	al
	and	al, 1
	movzx	esi, al
	mov	rdi, qword ptr [rbp - 152] 
	call	_ZNK5Botan18SymmetricAlgorithm14verify_key_setEb
	call	_ZN5Botan5CPUID10has_hw_aesEv
	mov	esi, 803569999
	mov	r9d, 3196079044
	and	al, 1
	mov	byte ptr [rbp - 25], al
	mov	r10d, dword ptr [x.60]
	mov	r11d, dword ptr [y.61]
	mov	ebx, r10d
	sub	ebx, 894696969
	sub	ebx, 1
	add	ebx, 894696969
	imul	r10d, ebx
	and	r10d, 1
	cmp	r10d, 0
	sete	al
	cmp	r11d, 10
	setl	r14b
	mov	r15b, al
	and	r15b, r14b
	xor	al, r14b
	or	r15b, al
	test	r15b, 1
	cmovne	esi, r9d
	mov	dword ptr [rbp - 72], esi
	jmp	.LBB27_12
.LBB27_5:                               
	mov	eax, 3722896039
	mov	ecx, 1224906403
	mov	dl, byte ptr [rbp - 25]
	test	dl, 1
	cmovne	eax, ecx
	mov	dword ptr [rbp - 72], eax
	jmp	.LBB27_12
.LBB27_6:                               
	mov	rax, qword ptr [rbp - 64]
	mov	rsi, qword ptr [rax]
	mov	rax, qword ptr [rbp - 56]
	mov	rdx, qword ptr [rax]
	mov	rax, qword ptr [rbp - 48]
	mov	rcx, qword ptr [rax]
	mov	rdi, qword ptr [rbp - 40]
	call	_ZNK5Botan7AES_25616hw_aes_encrypt_nEPKhPhm
	mov	dword ptr [rbp - 72], -1538703082
	jmp	.LBB27_12
.LBB27_7:                               
	call	_ZN5Botan5CPUID9has_vpermEv
	mov	ecx, 1488361536
	mov	edx, 1461977281
	test	al, 1
	cmovne	ecx, edx
	mov	dword ptr [rbp - 72], ecx
	jmp	.LBB27_12
.LBB27_8:                               
	mov	rax, qword ptr [rbp - 64]
	mov	rsi, qword ptr [rax]
	mov	rax, qword ptr [rbp - 56]
	mov	rdx, qword ptr [rax]
	mov	rax, qword ptr [rbp - 48]
	mov	rcx, qword ptr [rax]
	mov	rdi, qword ptr [rbp - 40]
	call	_ZNK5Botan7AES_25615vperm_encrypt_nEPKhPhm
	mov	dword ptr [rbp - 72], -1538703082
	jmp	.LBB27_12
.LBB27_9:                               
	mov	rax, qword ptr [rbp - 64]
	mov	rdi, qword ptr [rax]
	mov	rax, qword ptr [rbp - 56]
	mov	rsi, qword ptr [rax]
	mov	rax, qword ptr [rbp - 48]
	mov	rdx, qword ptr [rax]
	mov	rax, qword ptr [rbp - 40]
	add	rax, 8
	mov	rcx, rax
	call	_ZN5Botan12_GLOBAL__N_113aes_encrypt_nEPKhPhmRKSt6vectorIjNS_16secure_allocatorIjEEE
	mov	dword ptr [rbp - 72], -1538703082
	jmp	.LBB27_12
.LBB27_10:
	lea	rsp, [rbp - 24]
	pop	rbx
	pop	r14
	pop	r15
	pop	rbp
	ret
.LBB27_11:                              
	mov	rax, rsp
	add	rax, -16
	mov	rsp, rax
	mov	rcx, rsp
	add	rcx, -16
	mov	rsp, rcx
	mov	rdx, rsp
	add	rdx, -16
	mov	rsp, rdx
	mov	rsi, rsp
	add	rsi, -16
	mov	rsp, rsi
	mov	rdi, qword ptr [rbp - 96] 
	mov	qword ptr [rax], rdi
	mov	r8, qword ptr [rbp - 88] 
	mov	qword ptr [rcx], r8
	mov	rcx, qword ptr [rbp - 80] 
	mov	qword ptr [rdx], rcx
	mov	rdx, qword ptr [rbp - 104] 
	mov	qword ptr [rsi], rdx
	mov	rax, qword ptr [rax]
	mov	rsi, rax
	add	rax, 8
	mov	rdi, rax
	mov	qword ptr [rbp - 160], rsi 
	call	_ZNKSt6vectorIjN5Botan16secure_allocatorIjEEE5emptyEv
	and	al, 1
	movzx	r9d, al
	cmp	r9d, 0
	sete	al
	and	al, 1
	movzx	esi, al
	mov	rdi, qword ptr [rbp - 160] 
	call	_ZNK5Botan18SymmetricAlgorithm14verify_key_setEb
	call	_ZN5Botan5CPUID10has_hw_aesEv
	mov	dword ptr [rbp - 72], 217464898
	mov	byte ptr [rbp - 161], al 
.LBB27_12:                              
	jmp	.LBB27_1
.Lfunc_end27:
	.size	_ZNK5Botan7AES_2569encrypt_nEPKhPhm, .Lfunc_end27-_ZNK5Botan7AES_2569encrypt_nEPKhPhm
	.cfi_endproc

	.globl	_ZNK5Botan7AES_2569decrypt_nEPKhPhm 
	.p2align	4, 0x90
	.type	_ZNK5Botan7AES_2569decrypt_nEPKhPhm,@function
_ZNK5Botan7AES_2569decrypt_nEPKhPhm:    
	.cfi_startproc

	push	rbp
.Lcfi127:
	.cfi_def_cfa_offset 16
.Lcfi128:
	.cfi_offset rbp, -16
	mov	rbp, rsp
.Lcfi129:
	.cfi_def_cfa_register rbp
	push	r15
	push	r14
	push	r13
	push	r12
	push	rbx
	sub	rsp, 152
.Lcfi130:
	.cfi_offset rbx, -56
.Lcfi131:
	.cfi_offset r12, -48
.Lcfi132:
	.cfi_offset r13, -40
.Lcfi133:
	.cfi_offset r14, -32
.Lcfi134:
	.cfi_offset r15, -24
	mov	qword ptr [rbp - 64], rdi
	mov	qword ptr [rbp - 72], rsi
	mov	qword ptr [rbp - 80], rdx
	mov	qword ptr [rbp - 88], rcx
	mov	rcx, qword ptr [rbp - 64]
	mov	qword ptr [rbp - 56], rcx
	mov	rcx, qword ptr [rbp - 56]
	mov	rdx, qword ptr [rbp - 56]
	add	rdx, 32
	mov	rdi, rdx
	mov	qword ptr [rbp - 104], rcx 
	call	_ZNKSt6vectorIjN5Botan16secure_allocatorIjEEE5emptyEv
	and	al, 1
	movzx	r8d, al
	cmp	r8d, 0
	sete	al
	and	al, 1
	movzx	esi, al
	mov	rdi, qword ptr [rbp - 104] 
	call	_ZNK5Botan18SymmetricAlgorithm14verify_key_setEb
	mov	dword ptr [rbp - 92], 438871560
.LBB28_1:                               
	mov	eax, dword ptr [rbp - 92]
	mov	ecx, eax
	sub	ecx, -2126375458
	mov	dword ptr [rbp - 108], eax 
	mov	dword ptr [rbp - 112], ecx 
	je	.LBB28_5
	jmp	.LBB28_22
.LBB28_22:                              
	mov	eax, dword ptr [rbp - 108] 
	sub	eax, -2103341384
	mov	dword ptr [rbp - 116], eax 
	je	.LBB28_4
	jmp	.LBB28_23
.LBB28_23:                              
	mov	eax, dword ptr [rbp - 108] 
	sub	eax, -2074117685
	mov	dword ptr [rbp - 120], eax 
	je	.LBB28_19
	jmp	.LBB28_24
.LBB28_24:                              
	mov	eax, dword ptr [rbp - 108] 
	sub	eax, -1719980795
	mov	dword ptr [rbp - 124], eax 
	je	.LBB28_20
	jmp	.LBB28_25
.LBB28_25:                              
	mov	eax, dword ptr [rbp - 108] 
	sub	eax, -1483768400
	mov	dword ptr [rbp - 128], eax 
	je	.LBB28_10
	jmp	.LBB28_26
.LBB28_26:                              
	mov	eax, dword ptr [rbp - 108] 
	sub	eax, -1439535388
	mov	dword ptr [rbp - 132], eax 
	je	.LBB28_11
	jmp	.LBB28_27
.LBB28_27:                              
	mov	eax, dword ptr [rbp - 108] 
	sub	eax, -1343823064
	mov	dword ptr [rbp - 136], eax 
	je	.LBB28_18
	jmp	.LBB28_28
.LBB28_28:                              
	mov	eax, dword ptr [rbp - 108] 
	sub	eax, -929652751
	mov	dword ptr [rbp - 140], eax 
	je	.LBB28_12
	jmp	.LBB28_29
.LBB28_29:                              
	mov	eax, dword ptr [rbp - 108] 
	sub	eax, -883129761
	mov	dword ptr [rbp - 144], eax 
	je	.LBB28_8
	jmp	.LBB28_30
.LBB28_30:                              
	mov	eax, dword ptr [rbp - 108] 
	sub	eax, -811815617
	mov	dword ptr [rbp - 148], eax 
	je	.LBB28_9
	jmp	.LBB28_31
.LBB28_31:                              
	mov	eax, dword ptr [rbp - 108] 
	sub	eax, -778969833
	mov	dword ptr [rbp - 152], eax 
	je	.LBB28_13
	jmp	.LBB28_32
.LBB28_32:                              
	mov	eax, dword ptr [rbp - 108] 
	sub	eax, -729480406
	mov	dword ptr [rbp - 156], eax 
	je	.LBB28_15
	jmp	.LBB28_33
.LBB28_33:                              
	mov	eax, dword ptr [rbp - 108] 
	sub	eax, -701171562
	mov	dword ptr [rbp - 160], eax 
	je	.LBB28_14
	jmp	.LBB28_34
.LBB28_34:                              
	mov	eax, dword ptr [rbp - 108] 
	sub	eax, -26696402
	mov	dword ptr [rbp - 164], eax 
	je	.LBB28_7
	jmp	.LBB28_35
.LBB28_35:                              
	mov	eax, dword ptr [rbp - 108] 
	sub	eax, 333578724
	mov	dword ptr [rbp - 168], eax 
	je	.LBB28_6
	jmp	.LBB28_36
.LBB28_36:                              
	mov	eax, dword ptr [rbp - 108] 
	sub	eax, 438871560
	mov	dword ptr [rbp - 172], eax 
	je	.LBB28_3
	jmp	.LBB28_37
.LBB28_37:                              
	mov	eax, dword ptr [rbp - 108] 
	sub	eax, 618087002
	mov	dword ptr [rbp - 176], eax 
	je	.LBB28_17
	jmp	.LBB28_38
.LBB28_38:                              
	mov	eax, dword ptr [rbp - 108] 
	sub	eax, 929829200
	mov	dword ptr [rbp - 180], eax 
	je	.LBB28_16
	jmp	.LBB28_2
.LBB28_2:                               
	jmp	.LBB28_21
.LBB28_3:                               
	call	_ZN5Botan5CPUID10has_hw_aesEv
	mov	ecx, 2168591838
	mov	edx, 2191625912
	test	al, 1
	cmovne	ecx, edx
	mov	dword ptr [rbp - 92], ecx
	jmp	.LBB28_21
.LBB28_4:                               
	mov	rsi, qword ptr [rbp - 72]
	mov	rdx, qword ptr [rbp - 80]
	mov	rcx, qword ptr [rbp - 88]
	mov	rdi, qword ptr [rbp - 56]
	call	_ZNK5Botan7AES_25616hw_aes_decrypt_nEPKhPhm
	mov	dword ptr [rbp - 92], -701171562
	jmp	.LBB28_21
.LBB28_5:                               
	mov	eax, 618087002
	mov	ecx, 333578724
	mov	dl, 1
	mov	esi, dword ptr [x.62]
	mov	edi, dword ptr [y.63]
	mov	r8d, esi
	sub	r8d, 1335953551
	sub	r8d, 1
	add	r8d, 1335953551
	imul	esi, r8d
	and	esi, 1
	cmp	esi, 0
	sete	r9b
	cmp	edi, 10
	setl	r10b
	mov	r11b, r9b
	xor	r11b, -1
	mov	bl, r10b
	xor	bl, -1
	xor	dl, 0
	mov	r14b, r11b
	and	r14b, 0
	and	r9b, dl
	mov	r15b, bl
	and	r15b, 0
	and	r10b, dl
	or	r14b, r9b
	or	r15b, r10b
	xor	r14b, r15b
	or	r11b, bl
	xor	r11b, -1
	or	dl, 0
	and	r11b, dl
	or	r14b, r11b
	test	r14b, 1
	cmovne	eax, ecx
	mov	dword ptr [rbp - 92], eax
	jmp	.LBB28_21
.LBB28_6:                               
	call	_ZN5Botan5CPUID9has_vpermEv
	mov	ecx, 618087002
	mov	edx, 4268270894
	and	al, 1
	mov	byte ptr [rbp - 41], al
	mov	esi, dword ptr [x.62]
	mov	edi, dword ptr [y.63]
	mov	r8d, esi
	sub	r8d, -131404408
	sub	r8d, 1
	add	r8d, -131404408
	imul	esi, r8d
	and	esi, 1
	cmp	esi, 0
	sete	al
	cmp	edi, 10
	setl	r9b
	mov	r10b, al
	and	r10b, r9b
	xor	al, r9b
	or	r10b, al
	test	r10b, 1
	cmovne	ecx, edx
	mov	dword ptr [rbp - 92], ecx
	jmp	.LBB28_21
.LBB28_7:                               
	mov	eax, 2855431908
	mov	ecx, 3411837535
	mov	dl, byte ptr [rbp - 41]
	test	dl, 1
	cmovne	eax, ecx
	mov	dword ptr [rbp - 92], eax
	jmp	.LBB28_21
.LBB28_8:                               
	mov	eax, 2951144232
	mov	ecx, 3483151679
	mov	dl, 1
	mov	esi, dword ptr [x.62]
	mov	edi, dword ptr [y.63]
	mov	r8d, esi
	sub	r8d, -1229231123
	sub	r8d, 1
	add	r8d, -1229231123
	imul	esi, r8d
	and	esi, 1
	cmp	esi, 0
	sete	r9b
	cmp	edi, 10
	setl	r10b
	mov	r11b, r9b
	xor	r11b, -1
	mov	bl, r10b
	xor	bl, -1
	xor	dl, 0
	mov	r14b, r11b
	and	r14b, 0
	and	r9b, dl
	mov	r15b, bl
	and	r15b, 0
	and	r10b, dl
	or	r14b, r9b
	or	r15b, r10b
	xor	r14b, r15b
	or	r11b, bl
	xor	r11b, -1
	or	dl, 0
	and	r11b, dl
	or	r14b, r11b
	test	r14b, 1
	cmovne	eax, ecx
	mov	dword ptr [rbp - 92], eax
	jmp	.LBB28_21
.LBB28_9:                               
	mov	rsi, qword ptr [rbp - 72]
	mov	rdx, qword ptr [rbp - 80]
	mov	rcx, qword ptr [rbp - 88]
	mov	rdi, qword ptr [rbp - 56]
	call	_ZNK5Botan7AES_25615vperm_decrypt_nEPKhPhm
	mov	eax, 2951144232
	mov	r8d, 2811198896
	xor	r9d, r9d
	mov	r10d, dword ptr [x.62]
	mov	r11d, dword ptr [y.63]
	sub	r9d, 1
	mov	ebx, r10d
	add	ebx, r9d
	imul	r10d, ebx
	and	r10d, 1
	cmp	r10d, 0
	sete	r14b
	cmp	r11d, 10
	setl	r15b
	mov	r12b, r14b
	and	r12b, r15b
	xor	r14b, r15b
	or	r12b, r14b
	test	r12b, 1
	cmovne	eax, r8d
	mov	dword ptr [rbp - 92], eax
	jmp	.LBB28_21
.LBB28_10:                              
	mov	dword ptr [rbp - 92], -701171562
	jmp	.LBB28_21
.LBB28_11:                              
	mov	eax, 2220849611
	mov	ecx, 3365314545
	xor	edx, edx
	mov	esi, dword ptr [x.62]
	mov	edi, dword ptr [y.63]
	sub	edx, 1
	mov	r8d, esi
	add	r8d, edx
	imul	esi, r8d
	and	esi, 1
	cmp	esi, 0
	sete	r9b
	cmp	edi, 10
	setl	r10b
	mov	r11b, r9b
	and	r11b, r10b
	xor	r9b, r10b
	or	r11b, r9b
	test	r11b, 1
	cmovne	eax, ecx
	mov	dword ptr [rbp - 92], eax
	jmp	.LBB28_21
.LBB28_12:                              
	mov	rdi, qword ptr [rbp - 72]
	mov	rsi, qword ptr [rbp - 80]
	mov	rdx, qword ptr [rbp - 88]
	mov	rax, qword ptr [rbp - 56]
	add	rax, 32
	mov	rcx, rax
	call	_ZN5Botan12_GLOBAL__N_113aes_decrypt_nEPKhPhmRKSt6vectorIjNS_16secure_allocatorIjEEE
	mov	r8d, 2220849611
	mov	r9d, 3515997463
	xor	r10d, r10d
	mov	r11d, dword ptr [x.62]
	mov	ebx, dword ptr [y.63]
	sub	r10d, 1
	mov	r14d, r11d
	add	r14d, r10d
	imul	r11d, r14d
	and	r11d, 1
	cmp	r11d, 0
	sete	r15b
	cmp	ebx, 10
	setl	r12b
	mov	r13b, r15b
	and	r13b, r12b
	xor	r15b, r12b
	or	r13b, r15b
	test	r13b, 1
	cmovne	r8d, r9d
	mov	dword ptr [rbp - 92], r8d
	jmp	.LBB28_21
.LBB28_13:                              
	mov	dword ptr [rbp - 92], -701171562
	jmp	.LBB28_21
.LBB28_14:                              
	mov	eax, 2574986501
	mov	ecx, 3565486890
	mov	dl, 1
	mov	esi, dword ptr [x.62]
	mov	edi, dword ptr [y.63]
	mov	r8d, esi
	add	r8d, -1290041489
	sub	r8d, 1
	sub	r8d, -1290041489
	imul	esi, r8d
	and	esi, 1
	cmp	esi, 0
	sete	r9b
	cmp	edi, 10
	setl	r10b
	mov	r11b, r9b
	xor	r11b, -1
	mov	bl, r10b
	xor	bl, -1
	xor	dl, 0
	mov	r14b, r11b
	and	r14b, 0
	and	r9b, dl
	mov	r15b, bl
	and	r15b, 0
	and	r10b, dl
	or	r14b, r9b
	or	r15b, r10b
	xor	r14b, r15b
	or	r11b, bl
	xor	r11b, -1
	or	dl, 0
	and	r11b, dl
	or	r14b, r11b
	test	r14b, 1
	cmovne	eax, ecx
	mov	dword ptr [rbp - 92], eax
	jmp	.LBB28_21
.LBB28_15:                              
	mov	eax, 2574986501
	mov	ecx, 929829200
	mov	edx, dword ptr [x.62]
	mov	esi, dword ptr [y.63]
	mov	edi, edx
	add	edi, 1174423052
	sub	edi, 1
	sub	edi, 1174423052
	imul	edx, edi
	and	edx, 1
	cmp	edx, 0
	sete	r8b
	cmp	esi, 10
	setl	r9b
	mov	r10b, r8b
	and	r10b, r9b
	xor	r8b, r9b
	or	r10b, r8b
	test	r10b, 1
	cmovne	eax, ecx
	mov	dword ptr [rbp - 92], eax
	jmp	.LBB28_21
.LBB28_16:
	add	rsp, 152
	pop	rbx
	pop	r12
	pop	r13
	pop	r14
	pop	r15
	pop	rbp
	ret
.LBB28_17:                              
	call	_ZN5Botan5CPUID9has_vpermEv
	mov	dword ptr [rbp - 92], 333578724
	mov	byte ptr [rbp - 181], al 
	jmp	.LBB28_21
.LBB28_18:                              
	mov	rsi, qword ptr [rbp - 72]
	mov	rdx, qword ptr [rbp - 80]
	mov	rcx, qword ptr [rbp - 88]
	mov	rdi, qword ptr [rbp - 56]
	call	_ZNK5Botan7AES_25615vperm_decrypt_nEPKhPhm
	mov	dword ptr [rbp - 92], -811815617
	jmp	.LBB28_21
.LBB28_19:                              
	mov	rdi, qword ptr [rbp - 72]
	mov	rsi, qword ptr [rbp - 80]
	mov	rdx, qword ptr [rbp - 88]
	mov	rax, qword ptr [rbp - 56]
	add	rax, 32
	mov	rcx, rax
	call	_ZN5Botan12_GLOBAL__N_113aes_decrypt_nEPKhPhmRKSt6vectorIjNS_16secure_allocatorIjEEE
	mov	dword ptr [rbp - 92], -929652751
	jmp	.LBB28_21
.LBB28_20:                              
	mov	dword ptr [rbp - 92], -729480406
.LBB28_21:                              
	jmp	.LBB28_1
.Lfunc_end28:
	.size	_ZNK5Botan7AES_2569decrypt_nEPKhPhm, .Lfunc_end28-_ZNK5Botan7AES_2569decrypt_nEPKhPhm
	.cfi_endproc

	.globl	_ZN5Botan7AES_25612key_scheduleEPKhm 
	.p2align	4, 0x90
	.type	_ZN5Botan7AES_25612key_scheduleEPKhm,@function
_ZN5Botan7AES_25612key_scheduleEPKhm:   
	.cfi_startproc

	push	rbp
.Lcfi135:
	.cfi_def_cfa_offset 16
.Lcfi136:
	.cfi_offset rbp, -16
	mov	rbp, rsp
.Lcfi137:
	.cfi_def_cfa_register rbp
	push	r15
	push	r14
	push	rbx
	sub	rsp, 152
.Lcfi138:
	.cfi_offset rbx, -40
.Lcfi139:
	.cfi_offset r14, -32
.Lcfi140:
	.cfi_offset r15, -24
	mov	qword ptr [rbp - 48], rdi
	mov	qword ptr [rbp - 56], rsi
	mov	qword ptr [rbp - 64], rdx
	mov	rdx, qword ptr [rbp - 48]
	mov	qword ptr [rbp - 40], rdx
	mov	dword ptr [rbp - 68], -764725874
.LBB29_1:                               
	mov	eax, dword ptr [rbp - 68]
	mov	ecx, eax
	sub	ecx, -1943824047
	mov	dword ptr [rbp - 72], eax 
	mov	dword ptr [rbp - 76], ecx 
	je	.LBB29_12
	jmp	.LBB29_18
.LBB29_18:                              
	mov	eax, dword ptr [rbp - 72] 
	sub	eax, -1671651520
	mov	dword ptr [rbp - 80], eax 
	je	.LBB29_9
	jmp	.LBB29_19
.LBB29_19:                              
	mov	eax, dword ptr [rbp - 72] 
	sub	eax, -1176306524
	mov	dword ptr [rbp - 84], eax 
	je	.LBB29_5
	jmp	.LBB29_20
.LBB29_20:                              
	mov	eax, dword ptr [rbp - 72] 
	sub	eax, -1174755187
	mov	dword ptr [rbp - 88], eax 
	je	.LBB29_16
	jmp	.LBB29_21
.LBB29_21:                              
	mov	eax, dword ptr [rbp - 72] 
	sub	eax, -764725874
	mov	dword ptr [rbp - 92], eax 
	je	.LBB29_3
	jmp	.LBB29_22
.LBB29_22:                              
	mov	eax, dword ptr [rbp - 72] 
	sub	eax, -676855300
	mov	dword ptr [rbp - 96], eax 
	je	.LBB29_13
	jmp	.LBB29_23
.LBB29_23:                              
	mov	eax, dword ptr [rbp - 72] 
	sub	eax, -288483430
	mov	dword ptr [rbp - 100], eax 
	je	.LBB29_11
	jmp	.LBB29_24
.LBB29_24:                              
	mov	eax, dword ptr [rbp - 72] 
	sub	eax, -100903651
	mov	dword ptr [rbp - 104], eax 
	je	.LBB29_4
	jmp	.LBB29_25
.LBB29_25:                              
	mov	eax, dword ptr [rbp - 72] 
	sub	eax, 161635338
	mov	dword ptr [rbp - 108], eax 
	je	.LBB29_8
	jmp	.LBB29_26
.LBB29_26:                              
	mov	eax, dword ptr [rbp - 72] 
	sub	eax, 262285102
	mov	dword ptr [rbp - 112], eax 
	je	.LBB29_15
	jmp	.LBB29_27
.LBB29_27:                              
	mov	eax, dword ptr [rbp - 72] 
	sub	eax, 381693996
	mov	dword ptr [rbp - 116], eax 
	je	.LBB29_10
	jmp	.LBB29_28
.LBB29_28:                              
	mov	eax, dword ptr [rbp - 72] 
	sub	eax, 580682547
	mov	dword ptr [rbp - 120], eax 
	je	.LBB29_14
	jmp	.LBB29_29
.LBB29_29:                              
	mov	eax, dword ptr [rbp - 72] 
	sub	eax, 1041652418
	mov	dword ptr [rbp - 124], eax 
	je	.LBB29_6
	jmp	.LBB29_30
.LBB29_30:                              
	mov	eax, dword ptr [rbp - 72] 
	sub	eax, 1171993552
	mov	dword ptr [rbp - 128], eax 
	je	.LBB29_7
	jmp	.LBB29_2
.LBB29_2:                               
	jmp	.LBB29_17
.LBB29_3:                               
	call	_ZN5Botan5CPUID10has_aes_niEv
	mov	ecx, 1171993552
	mov	edx, 4194063645
	test	al, 1
	cmovne	ecx, edx
	mov	dword ptr [rbp - 68], ecx
	jmp	.LBB29_17
.LBB29_4:                               
	mov	eax, 262285102
	mov	ecx, 3118660772
	mov	dl, 1
	mov	esi, dword ptr [x.64]
	mov	edi, dword ptr [y.65]
	mov	r8d, esi
	sub	r8d, 1893023252
	sub	r8d, 1
	add	r8d, 1893023252
	imul	esi, r8d
	and	esi, 1
	cmp	esi, 0
	sete	r9b
	cmp	edi, 10
	setl	r10b
	mov	r11b, r9b
	xor	r11b, -1
	mov	bl, r10b
	xor	bl, -1
	xor	dl, 0
	mov	r14b, r11b
	and	r14b, 0
	and	r9b, dl
	mov	r15b, bl
	and	r15b, 0
	and	r10b, dl
	or	r14b, r9b
	or	r15b, r10b
	xor	r14b, r15b
	or	r11b, bl
	xor	r11b, -1
	or	dl, 0
	and	r11b, dl
	or	r14b, r11b
	test	r14b, 1
	cmovne	eax, ecx
	mov	dword ptr [rbp - 68], eax
	jmp	.LBB29_17
.LBB29_5:                               
	mov	rsi, qword ptr [rbp - 56]
	mov	rdx, qword ptr [rbp - 64]
	mov	rdi, qword ptr [rbp - 40]
	call	_ZN5Botan7AES_25618aesni_key_scheduleEPKhm
	mov	eax, 262285102
	mov	ecx, 1041652418
	xor	r8d, r8d
	mov	r9d, dword ptr [x.64]
	mov	r10d, dword ptr [y.65]
	sub	r8d, 1
	mov	r11d, r9d
	add	r11d, r8d
	imul	r9d, r11d
	and	r9d, 1
	cmp	r9d, 0
	sete	bl
	cmp	r10d, 10
	setl	r14b
	mov	r15b, bl
	and	r15b, r14b
	xor	bl, r14b
	or	r15b, bl
	test	r15b, 1
	cmovne	eax, ecx
	mov	dword ptr [rbp - 68], eax
	jmp	.LBB29_17
.LBB29_6:                               
	mov	dword ptr [rbp - 68], 580682547
	jmp	.LBB29_17
.LBB29_7:                               
	mov	eax, 3120212109
	mov	ecx, 161635338
	mov	dl, 1
	mov	esi, dword ptr [x.64]
	mov	edi, dword ptr [y.65]
	mov	r8d, esi
	sub	r8d, 973493805
	sub	r8d, 1
	add	r8d, 973493805
	imul	esi, r8d
	and	esi, 1
	cmp	esi, 0
	sete	r9b
	cmp	edi, 10
	setl	r10b
	mov	r11b, r9b
	xor	r11b, -1
	mov	bl, r10b
	xor	bl, -1
	xor	dl, 0
	mov	r14b, r11b
	and	r14b, 0
	and	r9b, dl
	mov	r15b, bl
	and	r15b, 0
	and	r10b, dl
	or	r14b, r9b
	or	r15b, r10b
	xor	r14b, r15b
	or	r11b, bl
	xor	r11b, -1
	or	dl, 0
	and	r11b, dl
	or	r14b, r11b
	test	r14b, 1
	cmovne	eax, ecx
	mov	dword ptr [rbp - 68], eax
	jmp	.LBB29_17
.LBB29_8:                               
	call	_ZN5Botan5CPUID10has_hw_aesEv
	mov	ecx, 3120212109
	mov	edx, 2623315776
	mov	sil, 1
	and	al, 1
	mov	byte ptr [rbp - 25], al
	mov	edi, dword ptr [x.64]
	mov	r8d, dword ptr [y.65]
	mov	r9d, edi
	sub	r9d, 289526742
	sub	r9d, 1
	add	r9d, 289526742
	imul	edi, r9d
	and	edi, 1
	cmp	edi, 0
	sete	al
	cmp	r8d, 10
	setl	r10b
	mov	r11b, al
	xor	r11b, -1
	mov	bl, r10b
	xor	bl, -1
	xor	sil, 1
	mov	r14b, r11b
	and	r14b, -1
	and	al, sil
	mov	r15b, bl
	and	r15b, -1
	and	r10b, sil
	or	r14b, al
	or	r15b, r10b
	xor	r14b, r15b
	or	r11b, bl
	xor	r11b, -1
	or	sil, 1
	and	r11b, sil
	or	r14b, r11b
	test	r14b, 1
	cmovne	ecx, edx
	mov	dword ptr [rbp - 68], ecx
	jmp	.LBB29_17
.LBB29_9:                               
	mov	eax, 4006483866
	mov	ecx, 381693996
	mov	dl, byte ptr [rbp - 25]
	test	dl, 1
	cmovne	eax, ecx
	mov	dword ptr [rbp - 68], eax
	jmp	.LBB29_17
.LBB29_10:                              
	mov	rdi, qword ptr [rbp - 56]
	mov	rsi, qword ptr [rbp - 64]
	mov	rax, qword ptr [rbp - 40]
	add	rax, 8
	mov	rcx, qword ptr [rbp - 40]
	add	rcx, 32
	mov	qword ptr [rbp - 136], rdi 
	mov	qword ptr [rbp - 144], rsi 
	mov	qword ptr [rbp - 152], rax 
	mov	qword ptr [rbp - 160], rcx 
	call	_ZN5Botan5CPUID16is_little_endianEv
	and	al, 1
	movzx	r8d, al
	mov	rdi, qword ptr [rbp - 136] 
	mov	rsi, qword ptr [rbp - 144] 
	mov	rdx, qword ptr [rbp - 152] 
	mov	rcx, qword ptr [rbp - 160] 
	call	_ZN5Botan12_GLOBAL__N_116aes_key_scheduleEPKhmRSt6vectorIjNS_16secure_allocatorIjEEES7_b
	mov	dword ptr [rbp - 68], 580682547
	jmp	.LBB29_17
.LBB29_11:                              
	call	_ZN5Botan5CPUID9has_vpermEv
	mov	ecx, 3618111996
	mov	edx, 2351143249
	test	al, 1
	cmovne	ecx, edx
	mov	dword ptr [rbp - 68], ecx
	jmp	.LBB29_17
.LBB29_12:                              
	mov	rsi, qword ptr [rbp - 56]
	mov	rdx, qword ptr [rbp - 64]
	mov	rdi, qword ptr [rbp - 40]
	call	_ZN5Botan7AES_25618vperm_key_scheduleEPKhm
	mov	dword ptr [rbp - 68], 580682547
	jmp	.LBB29_17
.LBB29_13:                              
	xor	r8d, r8d
	mov	rdi, qword ptr [rbp - 56]
	mov	rsi, qword ptr [rbp - 64]
	mov	rax, qword ptr [rbp - 40]
	add	rax, 8
	mov	rcx, qword ptr [rbp - 40]
	add	rcx, 32
	mov	rdx, rax
	call	_ZN5Botan12_GLOBAL__N_116aes_key_scheduleEPKhmRSt6vectorIjNS_16secure_allocatorIjEEES7_b
	mov	dword ptr [rbp - 68], 580682547
	jmp	.LBB29_17
.LBB29_14:
	add	rsp, 152
	pop	rbx
	pop	r14
	pop	r15
	pop	rbp
	ret
.LBB29_15:                              
	mov	rsi, qword ptr [rbp - 56]
	mov	rdx, qword ptr [rbp - 64]
	mov	rdi, qword ptr [rbp - 40]
	call	_ZN5Botan7AES_25618aesni_key_scheduleEPKhm
	mov	dword ptr [rbp - 68], -1176306524
	jmp	.LBB29_17
.LBB29_16:                              
	call	_ZN5Botan5CPUID10has_hw_aesEv
	mov	dword ptr [rbp - 68], 161635338
	mov	byte ptr [rbp - 161], al 
.LBB29_17:                              
	jmp	.LBB29_1
.Lfunc_end29:
	.size	_ZN5Botan7AES_25612key_scheduleEPKhm, .Lfunc_end29-_ZN5Botan7AES_25612key_scheduleEPKhm
	.cfi_endproc

	.globl	_ZN5Botan7AES_2565clearEv 
	.p2align	4, 0x90
	.type	_ZN5Botan7AES_2565clearEv,@function
_ZN5Botan7AES_2565clearEv:              
	.cfi_startproc

	push	rbp
.Lcfi141:
	.cfi_def_cfa_offset 16
.Lcfi142:
	.cfi_offset rbp, -16
	mov	rbp, rsp
.Lcfi143:
	.cfi_def_cfa_register rbp
	sub	rsp, 16
	mov	qword ptr [rbp - 8], rdi
	mov	rdi, qword ptr [rbp - 8]
	mov	rax, rdi
	add	rax, 8
	mov	qword ptr [rbp - 16], rdi 
	mov	rdi, rax
	call	_ZN5Botan3zapIjNS_16secure_allocatorIjEEEEvRSt6vectorIT_T0_E
	mov	rax, qword ptr [rbp - 16] 
	add	rax, 32
	mov	rdi, rax
	call	_ZN5Botan3zapIjNS_16secure_allocatorIjEEEEvRSt6vectorIT_T0_E
	add	rsp, 16
	pop	rbp
	ret
.Lfunc_end30:
	.size	_ZN5Botan7AES_2565clearEv, .Lfunc_end30-_ZN5Botan7AES_2565clearEv
	.cfi_endproc

	.section	.text._ZN5Botan7AES_128D2Ev,"axG",@progbits,_ZN5Botan7AES_128D2Ev,comdat
	.weak	_ZN5Botan7AES_128D2Ev   
	.p2align	4, 0x90
	.type	_ZN5Botan7AES_128D2Ev,@function
_ZN5Botan7AES_128D2Ev:                  

	push	rbp
	mov	rbp, rsp
	sub	rsp, 16
	movabs	rax, _ZTVN5Botan7AES_128E
	add	rax, 16
	mov	qword ptr [rbp - 8], rdi
	mov	rdi, qword ptr [rbp - 8]
	mov	qword ptr [rdi], rax
	mov	rax, rdi
	add	rax, 32
	mov	qword ptr [rbp - 16], rdi 
	mov	rdi, rax
	call	_ZNSt6vectorIjN5Botan16secure_allocatorIjEEED2Ev
	mov	rax, qword ptr [rbp - 16] 
	add	rax, 8
	mov	rdi, rax
	call	_ZNSt6vectorIjN5Botan16secure_allocatorIjEEED2Ev
	mov	rax, qword ptr [rbp - 16] 
	mov	rdi, rax
	call	_ZN5Botan25Block_Cipher_Fixed_ParamsILm16ELm16ELm0ELm1ENS_11BlockCipherEED2Ev
	add	rsp, 16
	pop	rbp
	ret
.Lfunc_end31:
	.size	_ZN5Botan7AES_128D2Ev, .Lfunc_end31-_ZN5Botan7AES_128D2Ev

	.section	.text._ZN5Botan7AES_128D0Ev,"axG",@progbits,_ZN5Botan7AES_128D0Ev,comdat
	.weak	_ZN5Botan7AES_128D0Ev   
	.p2align	4, 0x90
	.type	_ZN5Botan7AES_128D0Ev,@function
_ZN5Botan7AES_128D0Ev:                  

	push	rbp
	mov	rbp, rsp
	sub	rsp, 16
	mov	qword ptr [rbp - 8], rdi
	mov	rdi, qword ptr [rbp - 8]
	mov	qword ptr [rbp - 16], rdi 
	call	_ZN5Botan7AES_128D2Ev
	mov	rdi, qword ptr [rbp - 16] 
	call	_ZdlPv
	add	rsp, 16
	pop	rbp
	ret
.Lfunc_end32:
	.size	_ZN5Botan7AES_128D0Ev, .Lfunc_end32-_ZN5Botan7AES_128D0Ev

	.section	.text._ZNK5Botan25Block_Cipher_Fixed_ParamsILm16ELm16ELm0ELm1ENS_11BlockCipherEE8key_specEv,"axG",@progbits,_ZNK5Botan25Block_Cipher_Fixed_ParamsILm16ELm16ELm0ELm1ENS_11BlockCipherEE8key_specEv,comdat
	.weak	_ZNK5Botan25Block_Cipher_Fixed_ParamsILm16ELm16ELm0ELm1ENS_11BlockCipherEE8key_specEv 
	.p2align	4, 0x90
	.type	_ZNK5Botan25Block_Cipher_Fixed_ParamsILm16ELm16ELm0ELm1ENS_11BlockCipherEE8key_specEv,@function
_ZNK5Botan25Block_Cipher_Fixed_ParamsILm16ELm16ELm0ELm1ENS_11BlockCipherEE8key_specEv: 
	.cfi_startproc

	push	rbp
.Lcfi144:
	.cfi_def_cfa_offset 16
.Lcfi145:
	.cfi_offset rbp, -16
	mov	rbp, rsp
.Lcfi146:
	.cfi_def_cfa_register rbp
	sub	rsp, 16
	mov	rax, rdi
	mov	ecx, 16
	mov	edx, ecx
	xor	ecx, ecx
	mov	r8d, ecx
	mov	ecx, 1

	mov	qword ptr [rbp - 8], rsi
	mov	rsi, rdx
	mov	rdx, r8
	mov	qword ptr [rbp - 16], rax 
	call	_ZN5Botan24Key_Length_SpecificationC2Emmm
	mov	rax, qword ptr [rbp - 16] 
	add	rsp, 16
	pop	rbp
	ret
.Lfunc_end33:
	.size	_ZNK5Botan25Block_Cipher_Fixed_ParamsILm16ELm16ELm0ELm1ENS_11BlockCipherEE8key_specEv, .Lfunc_end33-_ZNK5Botan25Block_Cipher_Fixed_ParamsILm16ELm16ELm0ELm1ENS_11BlockCipherEE8key_specEv
	.cfi_endproc

	.section	.text._ZNK5Botan7AES_1284nameB5cxx11Ev,"axG",@progbits,_ZNK5Botan7AES_1284nameB5cxx11Ev,comdat
	.weak	_ZNK5Botan7AES_1284nameB5cxx11Ev 
	.p2align	4, 0x90
	.type	_ZNK5Botan7AES_1284nameB5cxx11Ev,@function
_ZNK5Botan7AES_1284nameB5cxx11Ev:       
.Lfunc_begin4:
	.cfi_startproc
	.cfi_personality 3, __gxx_personality_v0
	.cfi_lsda 3, .Lexception4

	push	rbp
.Lcfi147:
	.cfi_def_cfa_offset 16
.Lcfi148:
	.cfi_offset rbp, -16
	mov	rbp, rsp
.Lcfi149:
	.cfi_def_cfa_register rbp
	sub	rsp, 64
	mov	rax, rdi
	mov	qword ptr [rbp - 8], rsi
	lea	rsi, [rbp - 16]
	mov	qword ptr [rbp - 40], rdi 
	mov	rdi, rsi
	mov	qword ptr [rbp - 48], rax 
	mov	qword ptr [rbp - 56], rsi 
	call	_ZNSaIcEC1Ev
.Ltmp14:
	mov	ecx, .L.str.11
	mov	esi, ecx
	mov	rdi, qword ptr [rbp - 40] 
	mov	rdx, qword ptr [rbp - 56] 
	call	_ZNSt7__cxx1112basic_stringIcSt11char_traitsIcESaIcEEC2EPKcRKS3_
.Ltmp15:
	jmp	.LBB34_1
.LBB34_1:
	lea	rdi, [rbp - 16]
	call	_ZNSaIcED1Ev
	mov	rax, qword ptr [rbp - 48] 
	add	rsp, 64
	pop	rbp
	ret
.LBB34_2:
.Ltmp16:
	lea	rdi, [rbp - 16]
	mov	ecx, edx
	mov	qword ptr [rbp - 24], rax
	mov	dword ptr [rbp - 28], ecx
	call	_ZNSaIcED1Ev

	mov	rdi, qword ptr [rbp - 24]
	call	_Unwind_Resume
.Lfunc_end34:
	.size	_ZNK5Botan7AES_1284nameB5cxx11Ev, .Lfunc_end34-_ZNK5Botan7AES_1284nameB5cxx11Ev
	.cfi_endproc
	.section	.gcc_except_table,"a",@progbits
	.p2align	2
GCC_except_table34:
.Lexception4:
	.byte	255                     
	.byte	3                       
	.asciz	"\234"                  
	.byte	3                       
	.byte	26                      
	.long	.Ltmp14-.Lfunc_begin4   
	.long	.Ltmp15-.Ltmp14         
	.long	.Ltmp16-.Lfunc_begin4   
	.byte	0                       
	.long	.Ltmp15-.Lfunc_begin4   
	.long	.Lfunc_end34-.Ltmp15    
	.long	0                       
	.byte	0                       
	.p2align	2

	.section	.text._ZNK5Botan25Block_Cipher_Fixed_ParamsILm16ELm16ELm0ELm1ENS_11BlockCipherEE10block_sizeEv,"axG",@progbits,_ZNK5Botan25Block_Cipher_Fixed_ParamsILm16ELm16ELm0ELm1ENS_11BlockCipherEE10block_sizeEv,comdat
	.weak	_ZNK5Botan25Block_Cipher_Fixed_ParamsILm16ELm16ELm0ELm1ENS_11BlockCipherEE10block_sizeEv 
	.p2align	4, 0x90
	.type	_ZNK5Botan25Block_Cipher_Fixed_ParamsILm16ELm16ELm0ELm1ENS_11BlockCipherEE10block_sizeEv,@function
_ZNK5Botan25Block_Cipher_Fixed_ParamsILm16ELm16ELm0ELm1ENS_11BlockCipherEE10block_sizeEv: 

	push	rbp
	mov	rbp, rsp
	mov	eax, 16

	mov	qword ptr [rbp - 8], rdi
	pop	rbp
	ret
.Lfunc_end35:
	.size	_ZNK5Botan25Block_Cipher_Fixed_ParamsILm16ELm16ELm0ELm1ENS_11BlockCipherEE10block_sizeEv, .Lfunc_end35-_ZNK5Botan25Block_Cipher_Fixed_ParamsILm16ELm16ELm0ELm1ENS_11BlockCipherEE10block_sizeEv

	.section	.text._ZNK5Botan25Block_Cipher_Fixed_ParamsILm16ELm16ELm0ELm1ENS_11BlockCipherEE13encrypt_n_xexEPhPKhm,"axG",@progbits,_ZNK5Botan25Block_Cipher_Fixed_ParamsILm16ELm16ELm0ELm1ENS_11BlockCipherEE13encrypt_n_xexEPhPKhm,comdat
	.weak	_ZNK5Botan25Block_Cipher_Fixed_ParamsILm16ELm16ELm0ELm1ENS_11BlockCipherEE13encrypt_n_xexEPhPKhm 
	.p2align	4, 0x90
	.type	_ZNK5Botan25Block_Cipher_Fixed_ParamsILm16ELm16ELm0ELm1ENS_11BlockCipherEE13encrypt_n_xexEPhPKhm,@function
_ZNK5Botan25Block_Cipher_Fixed_ParamsILm16ELm16ELm0ELm1ENS_11BlockCipherEE13encrypt_n_xexEPhPKhm: 
	.cfi_startproc

	push	rbp
.Lcfi150:
	.cfi_def_cfa_offset 16
.Lcfi151:
	.cfi_offset rbp, -16
	mov	rbp, rsp
.Lcfi152:
	.cfi_def_cfa_register rbp
	sub	rsp, 64
	mov	qword ptr [rbp - 8], rdi
	mov	qword ptr [rbp - 16], rsi
	mov	qword ptr [rbp - 24], rdx
	mov	qword ptr [rbp - 32], rcx
	mov	rcx, qword ptr [rbp - 8]
	mov	rdi, qword ptr [rbp - 16]
	mov	rsi, qword ptr [rbp - 24]
	mov	rdx, qword ptr [rbp - 32]
	shl	rdx, 4
	mov	qword ptr [rbp - 40], rcx 
	call	_ZN5Botan7xor_bufEPhPKhm
	mov	rcx, qword ptr [rbp - 40] 
	mov	rdx, qword ptr [rbp - 40] 
	mov	rsi, qword ptr [rdx]
	mov	rsi, qword ptr [rsi + 72]
	mov	rdi, qword ptr [rbp - 16]
	mov	rdx, qword ptr [rbp - 16]
	mov	rax, qword ptr [rbp - 32]
	mov	qword ptr [rbp - 48], rdi 
	mov	rdi, rcx
	mov	rcx, qword ptr [rbp - 48] 
	mov	qword ptr [rbp - 56], rsi 
	mov	rsi, rcx
	mov	rcx, rax
	mov	rax, qword ptr [rbp - 56] 
	call	rax
	mov	rdi, qword ptr [rbp - 16]
	mov	rsi, qword ptr [rbp - 24]
	mov	rax, qword ptr [rbp - 32]
	shl	rax, 4
	mov	rdx, rax
	call	_ZN5Botan7xor_bufEPhPKhm
	add	rsp, 64
	pop	rbp
	ret
.Lfunc_end36:
	.size	_ZNK5Botan25Block_Cipher_Fixed_ParamsILm16ELm16ELm0ELm1ENS_11BlockCipherEE13encrypt_n_xexEPhPKhm, .Lfunc_end36-_ZNK5Botan25Block_Cipher_Fixed_ParamsILm16ELm16ELm0ELm1ENS_11BlockCipherEE13encrypt_n_xexEPhPKhm
	.cfi_endproc

	.section	.text._ZNK5Botan25Block_Cipher_Fixed_ParamsILm16ELm16ELm0ELm1ENS_11BlockCipherEE13decrypt_n_xexEPhPKhm,"axG",@progbits,_ZNK5Botan25Block_Cipher_Fixed_ParamsILm16ELm16ELm0ELm1ENS_11BlockCipherEE13decrypt_n_xexEPhPKhm,comdat
	.weak	_ZNK5Botan25Block_Cipher_Fixed_ParamsILm16ELm16ELm0ELm1ENS_11BlockCipherEE13decrypt_n_xexEPhPKhm 
	.p2align	4, 0x90
	.type	_ZNK5Botan25Block_Cipher_Fixed_ParamsILm16ELm16ELm0ELm1ENS_11BlockCipherEE13decrypt_n_xexEPhPKhm,@function
_ZNK5Botan25Block_Cipher_Fixed_ParamsILm16ELm16ELm0ELm1ENS_11BlockCipherEE13decrypt_n_xexEPhPKhm: 
	.cfi_startproc

	push	rbp
.Lcfi153:
	.cfi_def_cfa_offset 16
.Lcfi154:
	.cfi_offset rbp, -16
	mov	rbp, rsp
.Lcfi155:
	.cfi_def_cfa_register rbp
	sub	rsp, 64
	mov	qword ptr [rbp - 8], rdi
	mov	qword ptr [rbp - 16], rsi
	mov	qword ptr [rbp - 24], rdx
	mov	qword ptr [rbp - 32], rcx
	mov	rcx, qword ptr [rbp - 8]
	mov	rdi, qword ptr [rbp - 16]
	mov	rsi, qword ptr [rbp - 24]
	mov	rdx, qword ptr [rbp - 32]
	shl	rdx, 4
	mov	qword ptr [rbp - 40], rcx 
	call	_ZN5Botan7xor_bufEPhPKhm
	mov	rcx, qword ptr [rbp - 40] 
	mov	rdx, qword ptr [rbp - 40] 
	mov	rsi, qword ptr [rdx]
	mov	rsi, qword ptr [rsi + 80]
	mov	rdi, qword ptr [rbp - 16]
	mov	rdx, qword ptr [rbp - 16]
	mov	rax, qword ptr [rbp - 32]
	mov	qword ptr [rbp - 48], rdi 
	mov	rdi, rcx
	mov	rcx, qword ptr [rbp - 48] 
	mov	qword ptr [rbp - 56], rsi 
	mov	rsi, rcx
	mov	rcx, rax
	mov	rax, qword ptr [rbp - 56] 
	call	rax
	mov	rdi, qword ptr [rbp - 16]
	mov	rsi, qword ptr [rbp - 24]
	mov	rax, qword ptr [rbp - 32]
	shl	rax, 4
	mov	rdx, rax
	call	_ZN5Botan7xor_bufEPhPKhm
	add	rsp, 64
	pop	rbp
	ret
.Lfunc_end37:
	.size	_ZNK5Botan25Block_Cipher_Fixed_ParamsILm16ELm16ELm0ELm1ENS_11BlockCipherEE13decrypt_n_xexEPhPKhm, .Lfunc_end37-_ZNK5Botan25Block_Cipher_Fixed_ParamsILm16ELm16ELm0ELm1ENS_11BlockCipherEE13decrypt_n_xexEPhPKhm
	.cfi_endproc

	.section	.text._ZNK5Botan7AES_12810new_objectEv,"axG",@progbits,_ZNK5Botan7AES_12810new_objectEv,comdat
	.weak	_ZNK5Botan7AES_12810new_objectEv 
	.p2align	4, 0x90
	.type	_ZNK5Botan7AES_12810new_objectEv,@function
_ZNK5Botan7AES_12810new_objectEv:       
	.cfi_startproc

	push	rbp
.Lcfi156:
	.cfi_def_cfa_offset 16
.Lcfi157:
	.cfi_offset rbp, -16
	mov	rbp, rsp
.Lcfi158:
	.cfi_def_cfa_register rbp
	push	r15
	push	r14
	push	r12
	push	rbx
	sub	rsp, 80
.Lcfi159:
	.cfi_offset rbx, -48
.Lcfi160:
	.cfi_offset r12, -40
.Lcfi161:
	.cfi_offset r14, -32
.Lcfi162:
	.cfi_offset r15, -24
	mov	rax, rdi
	mov	ecx, dword ptr [x.80]
	mov	edx, dword ptr [y.81]
	mov	r8d, ecx
	add	r8d, 428740769
	sub	r8d, 1
	sub	r8d, 428740769
	imul	ecx, r8d
	and	ecx, 1
	cmp	ecx, 0
	sete	r9b
	and	r9b, 1
	mov	byte ptr [rbp - 34], r9b
	cmp	edx, 10
	setl	r9b
	and	r9b, 1
	mov	byte ptr [rbp - 33], r9b
	mov	dword ptr [rbp - 40], 291973832
	mov	qword ptr [rbp - 48], rax 
	mov	qword ptr [rbp - 56], rsi 
	mov	qword ptr [rbp - 64], rdi 
.LBB38_1:                               
	mov	eax, dword ptr [rbp - 40]
	mov	ecx, eax
	sub	ecx, -1942905523
	mov	dword ptr [rbp - 68], eax 
	mov	dword ptr [rbp - 72], ecx 
	je	.LBB38_5
	jmp	.LBB38_8
.LBB38_8:                               
	mov	eax, dword ptr [rbp - 68] 
	sub	eax, -1760079523
	mov	dword ptr [rbp - 76], eax 
	je	.LBB38_4
	jmp	.LBB38_9
.LBB38_9:                               
	mov	eax, dword ptr [rbp - 68] 
	sub	eax, -479762926
	mov	dword ptr [rbp - 80], eax 
	je	.LBB38_6
	jmp	.LBB38_10
.LBB38_10:                              
	mov	eax, dword ptr [rbp - 68] 
	sub	eax, 291973832
	mov	dword ptr [rbp - 84], eax 
	je	.LBB38_3
	jmp	.LBB38_2
.LBB38_2:                               
	jmp	.LBB38_7
.LBB38_3:                               
	mov	eax, 3815204370
	mov	ecx, 2534887773
	mov	dl, 1
	mov	sil, byte ptr [rbp - 34]
	mov	dil, byte ptr [rbp - 33]
	mov	r8b, sil
	xor	r8b, -1
	mov	r9b, dil
	xor	r9b, -1
	xor	dl, 1
	mov	r10b, r8b
	and	r10b, -1
	and	sil, dl
	mov	r11b, r9b
	and	r11b, -1
	and	dil, dl
	or	r10b, sil
	or	r11b, dil
	xor	r10b, r11b
	or	r8b, r9b
	xor	r8b, -1
	or	dl, 1
	and	r8b, dl
	or	r10b, r8b
	test	r10b, 1
	cmovne	eax, ecx
	mov	dword ptr [rbp - 40], eax
	jmp	.LBB38_7
.LBB38_4:                               
	mov	rax, rsp
	add	rax, -16
	mov	rsp, rax
	mov	rcx, rsp
	add	rcx, -16
	mov	rsp, rcx
	mov	rdx, qword ptr [rbp - 56] 
	mov	qword ptr [rax], rdx
	mov	rdi, rcx
	mov	qword ptr [rbp - 96], rcx 
	call	_ZSt11make_uniqueIN5Botan7AES_128EJEENSt9_MakeUniqIT_E15__single_objectEDpOT0_
	mov	rdi, qword ptr [rbp - 64] 
	mov	rsi, qword ptr [rbp - 96] 
	call	_ZNSt10unique_ptrIN5Botan11BlockCipherESt14default_deleteIS1_EEC2INS0_7AES_128ES2_IS6_EvEEOS_IT_T0_E
	mov	rdi, qword ptr [rbp - 96] 
	call	_ZNSt10unique_ptrIN5Botan7AES_128ESt14default_deleteIS1_EED2Ev
	mov	r8d, 3815204370
	mov	r9d, 2352061773
	mov	r10d, dword ptr [x.80]
	mov	r11d, dword ptr [y.81]
	mov	ebx, r10d
	sub	ebx, 837063951
	sub	ebx, 1
	add	ebx, 837063951
	imul	r10d, ebx
	and	r10d, 1
	cmp	r10d, 0
	sete	r14b
	cmp	r11d, 10
	setl	r15b
	mov	r12b, r14b
	and	r12b, r15b
	xor	r14b, r15b
	or	r12b, r14b
	test	r12b, 1
	cmovne	r8d, r9d
	mov	dword ptr [rbp - 40], r8d
	jmp	.LBB38_7
.LBB38_5:
	mov	rax, qword ptr [rbp - 48] 
	lea	rsp, [rbp - 32]
	pop	rbx
	pop	r12
	pop	r14
	pop	r15
	pop	rbp
	ret
.LBB38_6:                               
	mov	rax, rsp
	add	rax, -16
	mov	rsp, rax
	mov	rcx, rsp
	add	rcx, -16
	mov	rsp, rcx
	mov	rdx, qword ptr [rbp - 56] 
	mov	qword ptr [rax], rdx
	mov	rdi, rcx
	mov	qword ptr [rbp - 104], rcx 
	call	_ZSt11make_uniqueIN5Botan7AES_128EJEENSt9_MakeUniqIT_E15__single_objectEDpOT0_
	mov	rdi, qword ptr [rbp - 64] 
	mov	rsi, qword ptr [rbp - 104] 
	call	_ZNSt10unique_ptrIN5Botan11BlockCipherESt14default_deleteIS1_EEC2INS0_7AES_128ES2_IS6_EvEEOS_IT_T0_E
	mov	rdi, qword ptr [rbp - 104] 
	call	_ZNSt10unique_ptrIN5Botan7AES_128ESt14default_deleteIS1_EED2Ev
	mov	dword ptr [rbp - 40], -1760079523
.LBB38_7:                               
	jmp	.LBB38_1
.Lfunc_end38:
	.size	_ZNK5Botan7AES_12810new_objectEv, .Lfunc_end38-_ZNK5Botan7AES_12810new_objectEv
	.cfi_endproc

	.section	.text._ZN5Botan7AES_192D2Ev,"axG",@progbits,_ZN5Botan7AES_192D2Ev,comdat
	.weak	_ZN5Botan7AES_192D2Ev   
	.p2align	4, 0x90
	.type	_ZN5Botan7AES_192D2Ev,@function
_ZN5Botan7AES_192D2Ev:                  

	push	rbp
	mov	rbp, rsp
	sub	rsp, 16
	movabs	rax, _ZTVN5Botan7AES_192E
	add	rax, 16
	mov	qword ptr [rbp - 8], rdi
	mov	rdi, qword ptr [rbp - 8]
	mov	qword ptr [rdi], rax
	mov	rax, rdi
	add	rax, 32
	mov	qword ptr [rbp - 16], rdi 
	mov	rdi, rax
	call	_ZNSt6vectorIjN5Botan16secure_allocatorIjEEED2Ev
	mov	rax, qword ptr [rbp - 16] 
	add	rax, 8
	mov	rdi, rax
	call	_ZNSt6vectorIjN5Botan16secure_allocatorIjEEED2Ev
	mov	rax, qword ptr [rbp - 16] 
	mov	rdi, rax
	call	_ZN5Botan25Block_Cipher_Fixed_ParamsILm16ELm24ELm0ELm1ENS_11BlockCipherEED2Ev
	add	rsp, 16
	pop	rbp
	ret
.Lfunc_end39:
	.size	_ZN5Botan7AES_192D2Ev, .Lfunc_end39-_ZN5Botan7AES_192D2Ev

	.section	.text._ZN5Botan7AES_192D0Ev,"axG",@progbits,_ZN5Botan7AES_192D0Ev,comdat
	.weak	_ZN5Botan7AES_192D0Ev   
	.p2align	4, 0x90
	.type	_ZN5Botan7AES_192D0Ev,@function
_ZN5Botan7AES_192D0Ev:                  

	push	rbp
	mov	rbp, rsp
	sub	rsp, 16
	mov	qword ptr [rbp - 8], rdi
	mov	rdi, qword ptr [rbp - 8]
	mov	qword ptr [rbp - 16], rdi 
	call	_ZN5Botan7AES_192D2Ev
	mov	rdi, qword ptr [rbp - 16] 
	call	_ZdlPv
	add	rsp, 16
	pop	rbp
	ret
.Lfunc_end40:
	.size	_ZN5Botan7AES_192D0Ev, .Lfunc_end40-_ZN5Botan7AES_192D0Ev

	.section	.text._ZNK5Botan25Block_Cipher_Fixed_ParamsILm16ELm24ELm0ELm1ENS_11BlockCipherEE8key_specEv,"axG",@progbits,_ZNK5Botan25Block_Cipher_Fixed_ParamsILm16ELm24ELm0ELm1ENS_11BlockCipherEE8key_specEv,comdat
	.weak	_ZNK5Botan25Block_Cipher_Fixed_ParamsILm16ELm24ELm0ELm1ENS_11BlockCipherEE8key_specEv 
	.p2align	4, 0x90
	.type	_ZNK5Botan25Block_Cipher_Fixed_ParamsILm16ELm24ELm0ELm1ENS_11BlockCipherEE8key_specEv,@function
_ZNK5Botan25Block_Cipher_Fixed_ParamsILm16ELm24ELm0ELm1ENS_11BlockCipherEE8key_specEv: 
	.cfi_startproc

	push	rbp
.Lcfi163:
	.cfi_def_cfa_offset 16
.Lcfi164:
	.cfi_offset rbp, -16
	mov	rbp, rsp
.Lcfi165:
	.cfi_def_cfa_register rbp
	push	r15
	push	r14
	push	r13
	push	r12
	push	rbx
	sub	rsp, 56
.Lcfi166:
	.cfi_offset rbx, -56
.Lcfi167:
	.cfi_offset r12, -48
.Lcfi168:
	.cfi_offset r13, -40
.Lcfi169:
	.cfi_offset r14, -32
.Lcfi170:
	.cfi_offset r15, -24
	mov	rax, rdi
	mov	ecx, dword ptr [x.86]
	mov	edx, dword ptr [y.87]
	mov	r8d, ecx
	add	r8d, 985513930
	sub	r8d, 1
	sub	r8d, 985513930
	imul	ecx, r8d
	and	ecx, 1
	cmp	ecx, 0
	sete	r9b
	and	r9b, 1
	mov	byte ptr [rbp - 42], r9b
	cmp	edx, 10
	setl	r9b
	and	r9b, 1
	mov	byte ptr [rbp - 41], r9b
	mov	dword ptr [rbp - 48], -1254901573
	mov	qword ptr [rbp - 56], rax 
	mov	qword ptr [rbp - 64], rsi 
	mov	qword ptr [rbp - 72], rdi 
.LBB41_1:                               
	mov	eax, dword ptr [rbp - 48]
	mov	ecx, eax
	sub	ecx, -1254901573
	mov	dword ptr [rbp - 76], eax 
	mov	dword ptr [rbp - 80], ecx 
	je	.LBB41_3
	jmp	.LBB41_8
.LBB41_8:                               
	mov	eax, dword ptr [rbp - 76] 
	sub	eax, -508068448
	mov	dword ptr [rbp - 84], eax 
	je	.LBB41_5
	jmp	.LBB41_9
.LBB41_9:                               
	mov	eax, dword ptr [rbp - 76] 
	sub	eax, 1570048397
	mov	dword ptr [rbp - 88], eax 
	je	.LBB41_4
	jmp	.LBB41_10
.LBB41_10:                              
	mov	eax, dword ptr [rbp - 76] 
	sub	eax, 1774851201
	mov	dword ptr [rbp - 92], eax 
	je	.LBB41_6
	jmp	.LBB41_2
.LBB41_2:                               
	jmp	.LBB41_7
.LBB41_3:                               
	mov	eax, 1774851201
	mov	ecx, 1570048397
	mov	dl, 1
	mov	sil, byte ptr [rbp - 42]
	mov	dil, byte ptr [rbp - 41]
	mov	r8b, sil
	xor	r8b, -1
	mov	r9b, dil
	xor	r9b, -1
	xor	dl, 1
	mov	r10b, r8b
	and	r10b, -1
	and	sil, dl
	mov	r11b, r9b
	and	r11b, -1
	and	dil, dl
	or	r10b, sil
	or	r11b, dil
	xor	r10b, r11b
	or	r8b, r9b
	xor	r8b, -1
	or	dl, 1
	and	r8b, dl
	or	r10b, r8b
	test	r10b, 1
	cmovne	eax, ecx
	mov	dword ptr [rbp - 48], eax
	jmp	.LBB41_7
.LBB41_4:                               
	mov	eax, 24
	mov	esi, eax
	xor	eax, eax
	mov	edx, eax
	mov	eax, 1
	mov	ecx, eax
	mov	rdi, rsp
	add	rdi, -16
	mov	rsp, rdi
	mov	r8, qword ptr [rbp - 64] 
	mov	qword ptr [rdi], r8
	mov	rdi, qword ptr [rbp - 72] 
	call	_ZN5Botan24Key_Length_SpecificationC2Emmm
	mov	eax, 1774851201
	mov	r9d, 3786898848
	mov	r10b, 1
	mov	r11d, dword ptr [x.86]
	mov	ebx, dword ptr [y.87]
	mov	r14d, r11d
	sub	r14d, 1013812184
	sub	r14d, 1
	add	r14d, 1013812184
	imul	r11d, r14d
	and	r11d, 1
	cmp	r11d, 0
	sete	r15b
	cmp	ebx, 10
	setl	r12b
	mov	r13b, r15b
	xor	r13b, -1
	mov	cl, r12b
	xor	cl, -1
	xor	r10b, 1
	mov	dl, r13b
	and	dl, -1
	and	r15b, r10b
	mov	sil, cl
	and	sil, -1
	and	r12b, r10b
	or	dl, r15b
	or	sil, r12b
	xor	dl, sil
	or	r13b, cl
	xor	r13b, -1
	or	r10b, 1
	and	r13b, r10b
	or	dl, r13b
	test	dl, 1
	cmovne	eax, r9d
	mov	dword ptr [rbp - 48], eax
	jmp	.LBB41_7
.LBB41_5:
	mov	rax, qword ptr [rbp - 56] 
	lea	rsp, [rbp - 40]
	pop	rbx
	pop	r12
	pop	r13
	pop	r14
	pop	r15
	pop	rbp
	ret
.LBB41_6:                               
	mov	eax, 24
	mov	esi, eax
	xor	eax, eax
	mov	edx, eax
	mov	eax, 1
	mov	ecx, eax
	mov	rdi, rsp
	add	rdi, -16
	mov	rsp, rdi
	mov	r8, qword ptr [rbp - 64] 
	mov	qword ptr [rdi], r8
	mov	rdi, qword ptr [rbp - 72] 
	call	_ZN5Botan24Key_Length_SpecificationC2Emmm
	mov	dword ptr [rbp - 48], 1570048397
.LBB41_7:                               
	jmp	.LBB41_1
.Lfunc_end41:
	.size	_ZNK5Botan25Block_Cipher_Fixed_ParamsILm16ELm24ELm0ELm1ENS_11BlockCipherEE8key_specEv, .Lfunc_end41-_ZNK5Botan25Block_Cipher_Fixed_ParamsILm16ELm24ELm0ELm1ENS_11BlockCipherEE8key_specEv
	.cfi_endproc

	.section	.text._ZNK5Botan7AES_1924nameB5cxx11Ev,"axG",@progbits,_ZNK5Botan7AES_1924nameB5cxx11Ev,comdat
	.weak	_ZNK5Botan7AES_1924nameB5cxx11Ev 
	.p2align	4, 0x90
	.type	_ZNK5Botan7AES_1924nameB5cxx11Ev,@function
_ZNK5Botan7AES_1924nameB5cxx11Ev:       
.Lfunc_begin5:
	.cfi_startproc
	.cfi_personality 3, __gxx_personality_v0
	.cfi_lsda 3, .Lexception5

	push	rbp
.Lcfi171:
	.cfi_def_cfa_offset 16
.Lcfi172:
	.cfi_offset rbp, -16
	mov	rbp, rsp
.Lcfi173:
	.cfi_def_cfa_register rbp
	sub	rsp, 64
	mov	rax, rdi
	mov	qword ptr [rbp - 8], rsi
	lea	rsi, [rbp - 16]
	mov	qword ptr [rbp - 40], rdi 
	mov	rdi, rsi
	mov	qword ptr [rbp - 48], rax 
	mov	qword ptr [rbp - 56], rsi 
	call	_ZNSaIcEC1Ev
.Ltmp17:
	mov	ecx, .L.str.12
	mov	esi, ecx
	mov	rdi, qword ptr [rbp - 40] 
	mov	rdx, qword ptr [rbp - 56] 
	call	_ZNSt7__cxx1112basic_stringIcSt11char_traitsIcESaIcEEC2EPKcRKS3_
.Ltmp18:
	jmp	.LBB42_1
.LBB42_1:
	lea	rdi, [rbp - 16]
	call	_ZNSaIcED1Ev
	mov	rax, qword ptr [rbp - 48] 
	add	rsp, 64
	pop	rbp
	ret
.LBB42_2:
.Ltmp19:
	lea	rdi, [rbp - 16]
	mov	ecx, edx
	mov	qword ptr [rbp - 24], rax
	mov	dword ptr [rbp - 28], ecx
	call	_ZNSaIcED1Ev

	mov	rdi, qword ptr [rbp - 24]
	call	_Unwind_Resume
.Lfunc_end42:
	.size	_ZNK5Botan7AES_1924nameB5cxx11Ev, .Lfunc_end42-_ZNK5Botan7AES_1924nameB5cxx11Ev
	.cfi_endproc
	.section	.gcc_except_table,"a",@progbits
	.p2align	2
GCC_except_table42:
.Lexception5:
	.byte	255                     
	.byte	3                       
	.asciz	"\234"                  
	.byte	3                       
	.byte	26                      
	.long	.Ltmp17-.Lfunc_begin5   
	.long	.Ltmp18-.Ltmp17         
	.long	.Ltmp19-.Lfunc_begin5   
	.byte	0                       
	.long	.Ltmp18-.Lfunc_begin5   
	.long	.Lfunc_end42-.Ltmp18    
	.long	0                       
	.byte	0                       
	.p2align	2

	.section	.text._ZNK5Botan25Block_Cipher_Fixed_ParamsILm16ELm24ELm0ELm1ENS_11BlockCipherEE10block_sizeEv,"axG",@progbits,_ZNK5Botan25Block_Cipher_Fixed_ParamsILm16ELm24ELm0ELm1ENS_11BlockCipherEE10block_sizeEv,comdat
	.weak	_ZNK5Botan25Block_Cipher_Fixed_ParamsILm16ELm24ELm0ELm1ENS_11BlockCipherEE10block_sizeEv 
	.p2align	4, 0x90
	.type	_ZNK5Botan25Block_Cipher_Fixed_ParamsILm16ELm24ELm0ELm1ENS_11BlockCipherEE10block_sizeEv,@function
_ZNK5Botan25Block_Cipher_Fixed_ParamsILm16ELm24ELm0ELm1ENS_11BlockCipherEE10block_sizeEv: 

	push	rbp
	mov	rbp, rsp
	mov	eax, 16

	mov	qword ptr [rbp - 8], rdi
	pop	rbp
	ret
.Lfunc_end43:
	.size	_ZNK5Botan25Block_Cipher_Fixed_ParamsILm16ELm24ELm0ELm1ENS_11BlockCipherEE10block_sizeEv, .Lfunc_end43-_ZNK5Botan25Block_Cipher_Fixed_ParamsILm16ELm24ELm0ELm1ENS_11BlockCipherEE10block_sizeEv

	.section	.text._ZNK5Botan25Block_Cipher_Fixed_ParamsILm16ELm24ELm0ELm1ENS_11BlockCipherEE13encrypt_n_xexEPhPKhm,"axG",@progbits,_ZNK5Botan25Block_Cipher_Fixed_ParamsILm16ELm24ELm0ELm1ENS_11BlockCipherEE13encrypt_n_xexEPhPKhm,comdat
	.weak	_ZNK5Botan25Block_Cipher_Fixed_ParamsILm16ELm24ELm0ELm1ENS_11BlockCipherEE13encrypt_n_xexEPhPKhm 
	.p2align	4, 0x90
	.type	_ZNK5Botan25Block_Cipher_Fixed_ParamsILm16ELm24ELm0ELm1ENS_11BlockCipherEE13encrypt_n_xexEPhPKhm,@function
_ZNK5Botan25Block_Cipher_Fixed_ParamsILm16ELm24ELm0ELm1ENS_11BlockCipherEE13encrypt_n_xexEPhPKhm: 
	.cfi_startproc

	push	rbp
.Lcfi174:
	.cfi_def_cfa_offset 16
.Lcfi175:
	.cfi_offset rbp, -16
	mov	rbp, rsp
.Lcfi176:
	.cfi_def_cfa_register rbp
	sub	rsp, 64
	mov	qword ptr [rbp - 8], rdi
	mov	qword ptr [rbp - 16], rsi
	mov	qword ptr [rbp - 24], rdx
	mov	qword ptr [rbp - 32], rcx
	mov	rcx, qword ptr [rbp - 8]
	mov	rdi, qword ptr [rbp - 16]
	mov	rsi, qword ptr [rbp - 24]
	mov	rdx, qword ptr [rbp - 32]
	shl	rdx, 4
	mov	qword ptr [rbp - 40], rcx 
	call	_ZN5Botan7xor_bufEPhPKhm
	mov	rcx, qword ptr [rbp - 40] 
	mov	rdx, qword ptr [rbp - 40] 
	mov	rsi, qword ptr [rdx]
	mov	rsi, qword ptr [rsi + 72]
	mov	rdi, qword ptr [rbp - 16]
	mov	rdx, qword ptr [rbp - 16]
	mov	rax, qword ptr [rbp - 32]
	mov	qword ptr [rbp - 48], rdi 
	mov	rdi, rcx
	mov	rcx, qword ptr [rbp - 48] 
	mov	qword ptr [rbp - 56], rsi 
	mov	rsi, rcx
	mov	rcx, rax
	mov	rax, qword ptr [rbp - 56] 
	call	rax
	mov	rdi, qword ptr [rbp - 16]
	mov	rsi, qword ptr [rbp - 24]
	mov	rax, qword ptr [rbp - 32]
	shl	rax, 4
	mov	rdx, rax
	call	_ZN5Botan7xor_bufEPhPKhm
	add	rsp, 64
	pop	rbp
	ret
.Lfunc_end44:
	.size	_ZNK5Botan25Block_Cipher_Fixed_ParamsILm16ELm24ELm0ELm1ENS_11BlockCipherEE13encrypt_n_xexEPhPKhm, .Lfunc_end44-_ZNK5Botan25Block_Cipher_Fixed_ParamsILm16ELm24ELm0ELm1ENS_11BlockCipherEE13encrypt_n_xexEPhPKhm
	.cfi_endproc

	.section	.text._ZNK5Botan25Block_Cipher_Fixed_ParamsILm16ELm24ELm0ELm1ENS_11BlockCipherEE13decrypt_n_xexEPhPKhm,"axG",@progbits,_ZNK5Botan25Block_Cipher_Fixed_ParamsILm16ELm24ELm0ELm1ENS_11BlockCipherEE13decrypt_n_xexEPhPKhm,comdat
	.weak	_ZNK5Botan25Block_Cipher_Fixed_ParamsILm16ELm24ELm0ELm1ENS_11BlockCipherEE13decrypt_n_xexEPhPKhm 
	.p2align	4, 0x90
	.type	_ZNK5Botan25Block_Cipher_Fixed_ParamsILm16ELm24ELm0ELm1ENS_11BlockCipherEE13decrypt_n_xexEPhPKhm,@function
_ZNK5Botan25Block_Cipher_Fixed_ParamsILm16ELm24ELm0ELm1ENS_11BlockCipherEE13decrypt_n_xexEPhPKhm: 
	.cfi_startproc

	push	rbp
.Lcfi177:
	.cfi_def_cfa_offset 16
.Lcfi178:
	.cfi_offset rbp, -16
	mov	rbp, rsp
.Lcfi179:
	.cfi_def_cfa_register rbp
	sub	rsp, 64
	mov	qword ptr [rbp - 8], rdi
	mov	qword ptr [rbp - 16], rsi
	mov	qword ptr [rbp - 24], rdx
	mov	qword ptr [rbp - 32], rcx
	mov	rcx, qword ptr [rbp - 8]
	mov	rdi, qword ptr [rbp - 16]
	mov	rsi, qword ptr [rbp - 24]
	mov	rdx, qword ptr [rbp - 32]
	shl	rdx, 4
	mov	qword ptr [rbp - 40], rcx 
	call	_ZN5Botan7xor_bufEPhPKhm
	mov	rcx, qword ptr [rbp - 40] 
	mov	rdx, qword ptr [rbp - 40] 
	mov	rsi, qword ptr [rdx]
	mov	rsi, qword ptr [rsi + 80]
	mov	rdi, qword ptr [rbp - 16]
	mov	rdx, qword ptr [rbp - 16]
	mov	rax, qword ptr [rbp - 32]
	mov	qword ptr [rbp - 48], rdi 
	mov	rdi, rcx
	mov	rcx, qword ptr [rbp - 48] 
	mov	qword ptr [rbp - 56], rsi 
	mov	rsi, rcx
	mov	rcx, rax
	mov	rax, qword ptr [rbp - 56] 
	call	rax
	mov	rdi, qword ptr [rbp - 16]
	mov	rsi, qword ptr [rbp - 24]
	mov	rax, qword ptr [rbp - 32]
	shl	rax, 4
	mov	rdx, rax
	call	_ZN5Botan7xor_bufEPhPKhm
	add	rsp, 64
	pop	rbp
	ret
.Lfunc_end45:
	.size	_ZNK5Botan25Block_Cipher_Fixed_ParamsILm16ELm24ELm0ELm1ENS_11BlockCipherEE13decrypt_n_xexEPhPKhm, .Lfunc_end45-_ZNK5Botan25Block_Cipher_Fixed_ParamsILm16ELm24ELm0ELm1ENS_11BlockCipherEE13decrypt_n_xexEPhPKhm
	.cfi_endproc

	.section	.text._ZNK5Botan7AES_19210new_objectEv,"axG",@progbits,_ZNK5Botan7AES_19210new_objectEv,comdat
	.weak	_ZNK5Botan7AES_19210new_objectEv 
	.p2align	4, 0x90
	.type	_ZNK5Botan7AES_19210new_objectEv,@function
_ZNK5Botan7AES_19210new_objectEv:       
	.cfi_startproc

	push	rbp
.Lcfi180:
	.cfi_def_cfa_offset 16
.Lcfi181:
	.cfi_offset rbp, -16
	mov	rbp, rsp
.Lcfi182:
	.cfi_def_cfa_register rbp
	sub	rsp, 32
	mov	rax, rdi
	lea	rcx, [rbp - 16]
	mov	qword ptr [rbp - 8], rsi
	mov	qword ptr [rbp - 24], rdi 
	mov	rdi, rcx
	mov	qword ptr [rbp - 32], rax 
	call	_ZSt11make_uniqueIN5Botan7AES_192EJEENSt9_MakeUniqIT_E15__single_objectEDpOT0_
	lea	rsi, [rbp - 16]
	mov	rdi, qword ptr [rbp - 24] 
	call	_ZNSt10unique_ptrIN5Botan11BlockCipherESt14default_deleteIS1_EEC2INS0_7AES_192ES2_IS6_EvEEOS_IT_T0_E
	lea	rdi, [rbp - 16]
	call	_ZNSt10unique_ptrIN5Botan7AES_192ESt14default_deleteIS1_EED2Ev
	mov	rax, qword ptr [rbp - 32] 
	add	rsp, 32
	pop	rbp
	ret
.Lfunc_end46:
	.size	_ZNK5Botan7AES_19210new_objectEv, .Lfunc_end46-_ZNK5Botan7AES_19210new_objectEv
	.cfi_endproc

	.section	.text._ZN5Botan7AES_256D2Ev,"axG",@progbits,_ZN5Botan7AES_256D2Ev,comdat
	.weak	_ZN5Botan7AES_256D2Ev   
	.p2align	4, 0x90
	.type	_ZN5Botan7AES_256D2Ev,@function
_ZN5Botan7AES_256D2Ev:                  

	push	rbp
	mov	rbp, rsp
	sub	rsp, 16
	movabs	rax, _ZTVN5Botan7AES_256E
	add	rax, 16
	mov	qword ptr [rbp - 8], rdi
	mov	rdi, qword ptr [rbp - 8]
	mov	qword ptr [rdi], rax
	mov	rax, rdi
	add	rax, 32
	mov	qword ptr [rbp - 16], rdi 
	mov	rdi, rax
	call	_ZNSt6vectorIjN5Botan16secure_allocatorIjEEED2Ev
	mov	rax, qword ptr [rbp - 16] 
	add	rax, 8
	mov	rdi, rax
	call	_ZNSt6vectorIjN5Botan16secure_allocatorIjEEED2Ev
	mov	rax, qword ptr [rbp - 16] 
	mov	rdi, rax
	call	_ZN5Botan25Block_Cipher_Fixed_ParamsILm16ELm32ELm0ELm1ENS_11BlockCipherEED2Ev
	add	rsp, 16
	pop	rbp
	ret
.Lfunc_end47:
	.size	_ZN5Botan7AES_256D2Ev, .Lfunc_end47-_ZN5Botan7AES_256D2Ev

	.section	.text._ZN5Botan7AES_256D0Ev,"axG",@progbits,_ZN5Botan7AES_256D0Ev,comdat
	.weak	_ZN5Botan7AES_256D0Ev   
	.p2align	4, 0x90
	.type	_ZN5Botan7AES_256D0Ev,@function
_ZN5Botan7AES_256D0Ev:                  

	push	rbp
	mov	rbp, rsp
	push	r14
	push	rbx
	sub	rsp, 64
	mov	eax, dword ptr [x.98]
	mov	ecx, dword ptr [y.99]
	mov	edx, eax
	add	edx, -118021352
	sub	edx, 1
	sub	edx, -118021352
	imul	eax, edx
	and	eax, 1
	cmp	eax, 0
	sete	sil
	and	sil, 1
	mov	byte ptr [rbp - 18], sil
	cmp	ecx, 10
	setl	sil
	and	sil, 1
	mov	byte ptr [rbp - 17], sil
	mov	dword ptr [rbp - 24], -1686181352
	mov	qword ptr [rbp - 32], rdi 
.LBB48_1:                               
	mov	eax, dword ptr [rbp - 24]
	mov	ecx, eax
	sub	ecx, -1686181352
	mov	dword ptr [rbp - 36], eax 
	mov	dword ptr [rbp - 40], ecx 
	je	.LBB48_3
	jmp	.LBB48_8
.LBB48_8:                               
	mov	eax, dword ptr [rbp - 36] 
	sub	eax, -539291093
	mov	dword ptr [rbp - 44], eax 
	je	.LBB48_5
	jmp	.LBB48_9
.LBB48_9:                               
	mov	eax, dword ptr [rbp - 36] 
	sub	eax, 245935458
	mov	dword ptr [rbp - 48], eax 
	je	.LBB48_6
	jmp	.LBB48_10
.LBB48_10:                              
	mov	eax, dword ptr [rbp - 36] 
	sub	eax, 1481539506
