	.text
	.intel_syntax noprefix
	.file	"/mnt/c/Users/Adam/Developer/CryptoFunctionDetection/crypto_implementations/botan/src/lib/block/aes/aes.cpp"
	.globl	_ZNK5Botan7AES_1288providerB5cxx11Ev 
	.p2align	1, 0x90
	.type	_ZNK5Botan7AES_1288providerB5cxx11Ev,@function
_ZNK5Botan7AES_1288providerB5cxx11Ev:   
.Lfunc_begin0:
	.cfi_startproc
	.cfi_personality 3, __gxx_personality_v0
	.cfi_lsda 3, .Lexception0

	push	rbx
.Lcfi0:
	.cfi_def_cfa_offset 16
	sub	rsp, 16
.Lcfi1:
	.cfi_def_cfa_offset 32
.Lcfi2:
	.cfi_offset rbx, -16
	mov	rbx, rdi
	call	_ZN5Botan12_GLOBAL__N_112aes_providerEv
.Ltmp0:
	lea	rdx, [rsp + 8]
	mov	rdi, rbx
	mov	rsi, rax
	call	_ZNSt7__cxx1112basic_stringIcSt11char_traitsIcESaIcEEC2EPKcRKS3_
.Ltmp1:

	mov	rax, rbx
	add	rsp, 16
	pop	rbx
	ret
.LBB0_2:
.Ltmp2:
	mov	rdi, rax
	call	_Unwind_Resume
.Lfunc_end0:
	.size	_ZNK5Botan7AES_1288providerB5cxx11Ev, .Lfunc_end0-_ZNK5Botan7AES_1288providerB5cxx11Ev
	.cfi_endproc
	.section	.gcc_except_table,"a",@progbits
	.p2align	2
GCC_except_table0:
.Lexception0:
	.byte	255                     
	.byte	3                       
	.byte	41                      
	.byte	3                       
	.byte	39                      
	.long	.Lfunc_begin0-.Lfunc_begin0 
	.long	.Ltmp0-.Lfunc_begin0    
	.long	0                       
	.byte	0                       
	.long	.Ltmp0-.Lfunc_begin0    
	.long	.Ltmp1-.Ltmp0           
	.long	.Ltmp2-.Lfunc_begin0    
	.byte	0                       
	.long	.Ltmp1-.Lfunc_begin0    
	.long	.Lfunc_end0-.Ltmp1      
	.long	0                       
	.byte	0                       
	.p2align	2

	.text
	.type	_ZN5Botan12_GLOBAL__N_112aes_providerEv,@function 
_ZN5Botan12_GLOBAL__N_112aes_providerEv: 
	.cfi_startproc

	push	rbp
.Lcfi3:
	.cfi_def_cfa_offset 16
	push	r15
.Lcfi4:
	.cfi_def_cfa_offset 24
	push	r14
.Lcfi5:
	.cfi_def_cfa_offset 32
	push	rbx
.Lcfi6:
	.cfi_def_cfa_offset 40
	push	rax
.Lcfi7:
	.cfi_def_cfa_offset 48
.Lcfi8:
	.cfi_offset rbx, -40
.Lcfi9:
	.cfi_offset r14, -32
.Lcfi10:
	.cfi_offset r15, -24
.Lcfi11:
	.cfi_offset rbp, -16
	mov	eax, dword ptr [rip + x]
	mov	ecx, dword ptr [rip + y]
	lea	edx, [rax - 1]
	imul	edx, eax
	not	edx
	or	edx, -2
	mov	r15d, -1
	cmp	edx, r15d
	sete	byte ptr [rsp + 5]
	cmp	ecx, 10
	setl	byte ptr [rsp + 6]
	mov	eax, 2038101290
	mov	r14d, 1627823303

	jmp	.LBB1_1
.LBB1_22:                               
	call	_ZN5Botan5CPUID10has_hw_aesEv
	mov	byte ptr [rsp + 7], al
	mov	eax, dword ptr [rip + x]
	mov	ecx, dword ptr [rip + y]
	lea	edx, [rax - 1]
	imul	edx, eax
	not	edx
	or	edx, -2
	cmp	edx, r15d
	sete	bl
	mov	eax, -1718366037
	mov	edx, 1125079122
	mov	esi, -1718366037
	je	.LBB1_24

	mov	esi, 1125079122
.LBB1_24:                               
	cmp	ecx, 10
	setl	cl
	cmovl	edx, esi
	xor	cl, bl
	jne	.LBB1_1

	mov	eax, edx
	jmp	.LBB1_1
.LBB1_38:                               
	call	_ZN5Botan5CPUID10has_hw_aesEv
	mov	eax, 1093572321
	jmp	.LBB1_1
.LBB1_26:                               
	mov	al, byte ptr [rsp + 7]
	test	al, al
	mov	eax, 1530126345
	jne	.LBB1_1

	mov	eax, 237046980
	jmp	.LBB1_1
.LBB1_34:                               
	mov	eax, dword ptr [rip + x]
	mov	ecx, dword ptr [rip + y]
	mov	edx, eax
	neg	edx
	not	edx
	imul	edx, eax
	not	edx
	or	edx, -2
	cmp	edx, r15d
	sete	al
	cmp	ecx, 10
	setl	bl
	xor	bl, al
	mov	esi, 1209070284
	mov	eax, 1209070284
	jne	.LBB1_36

	mov	eax, -1858444932
.LBB1_36:                               
	cmp	edx, r15d
	jne	.LBB1_32
	jmp	.LBB1_33
.LBB1_28:                               
	mov	eax, -1890120467
	mov	ebp, .L.str
	jmp	.LBB1_1
.LBB1_29:                               
	mov	eax, dword ptr [rip + x]
	mov	ecx, dword ptr [rip + y]
	mov	esi, eax
	neg	esi
	not	esi
	imul	esi, eax
	mov	edx, esi
	xor	edx, -2
	and	edx, esi
	sete	al
	cmp	ecx, 10
	setl	bl
	xor	bl, al
	mov	esi, -883627104
	mov	eax, -883627104
	jne	.LBB1_31

	mov	eax, -1858444932
.LBB1_31:                               
	test	edx, edx
	je	.LBB1_33
.LBB1_32:                               
	mov	esi, eax
.LBB1_33:                               
	cmp	ecx, 10
	cmovl	eax, esi
	jmp	.LBB1_1
.LBB1_37:                               
	mov	eax, -1890120467
	mov	ebp, .L.str.2
	jmp	.LBB1_1
.LBB1_39:                               
	mov	eax, -883627104
.LBB1_1:                                
	cmp	eax, 1093572320
	jle	.LBB1_2

	cmp	eax, 1530126344
	jg	.LBB1_16

	cmp	eax, 1093572321
	je	.LBB1_22

	cmp	eax, 1125079122
	je	.LBB1_38

	cmp	eax, 1209070284
	jne	.LBB1_1

	mov	eax, -1890120467
	mov	ebp, .L.str.1
	jmp	.LBB1_1
.LBB1_2:                                
	cmp	eax, -1718366038
	jle	.LBB1_3

	cmp	eax, -1718366037
	je	.LBB1_26

	cmp	eax, -883627104
	je	.LBB1_34

	cmp	eax, 237046980
	jne	.LBB1_1

	mov	edi, 2
	call	_ZN5Botan5CPUID13has_cpuid_bitENS0_10CPUID_bitsE
	test	al, al
	mov	eax, -2076408044
	cmovne	eax, r14d
	jmp	.LBB1_1
.LBB1_16:                               
	cmp	eax, 1530126345
	je	.LBB1_28

	cmp	eax, 1627823303
	je	.LBB1_29

	cmp	eax, 2038101290
	jne	.LBB1_1

	mov	dl, byte ptr [rsp + 5]
	mov	al, byte ptr [rsp + 6]
	mov	ecx, edx
	xor	cl, al
	test	al, al
	mov	esi, 1093572321
	mov	eax, 1125079122
	mov	edi, 1093572321
	jne	.LBB1_21

	mov	edi, 1125079122
.LBB1_21:                               
	test	dl, dl
	cmovne	eax, edi
	test	cl, cl
	cmovne	eax, esi
	jmp	.LBB1_1
.LBB1_3:                                
	cmp	eax, -2076408044
	je	.LBB1_37

	cmp	eax, -1858444932
	je	.LBB1_39

	cmp	eax, -1890120467
	jne	.LBB1_1

	mov	rax, rbp
	add	rsp, 8
	pop	rbx
	pop	r14
	pop	r15
	pop	rbp
	ret
.Lfunc_end1:
	.size	_ZN5Botan12_GLOBAL__N_112aes_providerEv, .Lfunc_end1-_ZN5Botan12_GLOBAL__N_112aes_providerEv
	.cfi_endproc

	.section	.text._ZNSt7__cxx1112basic_stringIcSt11char_traitsIcESaIcEEC2EPKcRKS3_,"axG",@progbits,_ZNSt7__cxx1112basic_stringIcSt11char_traitsIcESaIcEEC2EPKcRKS3_,comdat
	.weak	_ZNSt7__cxx1112basic_stringIcSt11char_traitsIcESaIcEEC2EPKcRKS3_ 
	.p2align	1, 0x90
	.type	_ZNSt7__cxx1112basic_stringIcSt11char_traitsIcESaIcEEC2EPKcRKS3_,@function
_ZNSt7__cxx1112basic_stringIcSt11char_traitsIcESaIcEEC2EPKcRKS3_: 
	.cfi_startproc

	push	r15
.Lcfi12:
	.cfi_def_cfa_offset 16
	push	r14
.Lcfi13:
	.cfi_def_cfa_offset 24
	push	rbx
.Lcfi14:
	.cfi_def_cfa_offset 32
	sub	rsp, 16
.Lcfi15:
	.cfi_def_cfa_offset 48
.Lcfi16:
	.cfi_offset rbx, -32
.Lcfi17:
	.cfi_offset r14, -24
.Lcfi18:
	.cfi_offset r15, -16
	mov	r15, rsi
	mov	r14, rdi
	mov	eax, dword ptr [rip + x.528]
	mov	ecx, dword ptr [rip + y.529]
	lea	edx, [rax - 1]
	imul	edx, eax
	not	edx
	or	edx, -2
	mov	esi, -1
	cmp	edx, esi
	sete	al
	cmp	ecx, 10
	setl	bl
	setl	byte ptr [rsp + 7]
	xor	bl, al
	mov	eax, -711322175
	mov	edi, -1773153674
	cmovne	edi, eax
	cmp	edx, esi
	sete	byte ptr [rsp + 6]
	cmovne	eax, edi
	cmp	ecx, 10
	cmovge	eax, edi
	lea	r9, [r14 + 16]
	mov	esi, -1730294841
	mov	r8d, -1099751646
	jmp	.LBB2_1
.LBB2_10:                               
	mov	esi, -1099751646
	jmp	.LBB2_1
.LBB2_9:                                
	mov	qword ptr [rsp + 8], r9
	mov	esi, eax
.LBB2_1:                                
	mov	edi, esi
	and	edi, 2147483647
	cmp	edi, 1047732001
	jg	.LBB2_5

	cmp	edi, 374329974
	je	.LBB2_10

	cmp	edi, 417188807
	jne	.LBB2_1

	mov	cl, byte ptr [rsp + 6]
	mov	dl, byte ptr [rsp + 7]
	mov	ebx, ecx
	xor	bl, dl
	mov	edi, -1773153674
	cmovne	edi, r8d
	test	dl, dl
	mov	esi, edi
	cmovne	esi, r8d
	test	cl, cl
	cmove	esi, edi
	jmp	.LBB2_1
.LBB2_5:                                
	cmp	edi, 1047732002
	je	.LBB2_9

	cmp	edi, 1436161473
	jne	.LBB2_1

	mov	rax, qword ptr [rsp + 8]
	mov	qword ptr [r14], rax
	test	r15, r15
	je	.LBB2_8

	mov	rdi, r15
	call	_ZNSt11char_traitsIcE6lengthEPKc
	mov	rdx, rax
	jmp	.LBB2_12
.LBB2_8:
	mov	rdx, -1
.LBB2_12:
	add	rdx, r15
	mov	rdi, r14
	mov	rsi, r15
	add	rsp, 16
	pop	rbx
	pop	r14
	pop	r15
	jmp	_ZNSt7__cxx1112basic_stringIcSt11char_traitsIcESaIcEE12_M_constructIPKcEEvT_S8_ 
.Lfunc_end2:
	.size	_ZNSt7__cxx1112basic_stringIcSt11char_traitsIcESaIcEEC2EPKcRKS3_, .Lfunc_end2-_ZNSt7__cxx1112basic_stringIcSt11char_traitsIcESaIcEEC2EPKcRKS3_
	.cfi_endproc

	.text
	.globl	_ZNK5Botan7AES_1928providerB5cxx11Ev 
	.p2align	1, 0x90
	.type	_ZNK5Botan7AES_1928providerB5cxx11Ev,@function
_ZNK5Botan7AES_1928providerB5cxx11Ev:   
.Lfunc_begin1:
	.cfi_startproc
	.cfi_personality 3, __gxx_personality_v0
	.cfi_lsda 3, .Lexception1

	push	rbx
.Lcfi19:
	.cfi_def_cfa_offset 16
	sub	rsp, 16
.Lcfi20:
	.cfi_def_cfa_offset 32
.Lcfi21:
	.cfi_offset rbx, -16
	mov	rbx, rdi
	call	_ZN5Botan12_GLOBAL__N_112aes_providerEv
.Ltmp3:
	lea	rdx, [rsp + 8]
	mov	rdi, rbx
	mov	rsi, rax
	call	_ZNSt7__cxx1112basic_stringIcSt11char_traitsIcESaIcEEC2EPKcRKS3_
.Ltmp4:

	mov	rax, rbx
	add	rsp, 16
	pop	rbx
	ret
.LBB3_2:
.Ltmp5:
	mov	rdi, rax
	call	_Unwind_Resume
.Lfunc_end3:
	.size	_ZNK5Botan7AES_1928providerB5cxx11Ev, .Lfunc_end3-_ZNK5Botan7AES_1928providerB5cxx11Ev
	.cfi_endproc
	.section	.gcc_except_table,"a",@progbits
	.p2align	2
GCC_except_table3:
.Lexception1:
	.byte	255                     
	.byte	3                       
	.byte	41                      
	.byte	3                       
	.byte	39                      
	.long	.Lfunc_begin1-.Lfunc_begin1 
	.long	.Ltmp3-.Lfunc_begin1    
	.long	0                       
	.byte	0                       
	.long	.Ltmp3-.Lfunc_begin1    
	.long	.Ltmp4-.Ltmp3           
	.long	.Ltmp5-.Lfunc_begin1    
	.byte	0                       
	.long	.Ltmp4-.Lfunc_begin1    
	.long	.Lfunc_end3-.Ltmp4      
	.long	0                       
	.byte	0                       
	.p2align	2

	.text
	.globl	_ZNK5Botan7AES_2568providerB5cxx11Ev 
	.p2align	1, 0x90
	.type	_ZNK5Botan7AES_2568providerB5cxx11Ev,@function
_ZNK5Botan7AES_2568providerB5cxx11Ev:   
.Lfunc_begin2:
	.cfi_startproc
	.cfi_personality 3, __gxx_personality_v0
	.cfi_lsda 3, .Lexception2

	push	rbx
.Lcfi22:
	.cfi_def_cfa_offset 16
	sub	rsp, 16
.Lcfi23:
	.cfi_def_cfa_offset 32
.Lcfi24:
	.cfi_offset rbx, -16
	mov	rbx, rdi
	call	_ZN5Botan12_GLOBAL__N_112aes_providerEv
.Ltmp6:
	lea	rdx, [rsp + 8]
	mov	rdi, rbx
	mov	rsi, rax
	call	_ZNSt7__cxx1112basic_stringIcSt11char_traitsIcESaIcEEC2EPKcRKS3_
.Ltmp7:

	mov	rax, rbx
	add	rsp, 16
	pop	rbx
	ret
.LBB4_2:
.Ltmp8:
	mov	rdi, rax
	call	_Unwind_Resume
.Lfunc_end4:
	.size	_ZNK5Botan7AES_2568providerB5cxx11Ev, .Lfunc_end4-_ZNK5Botan7AES_2568providerB5cxx11Ev
	.cfi_endproc
	.section	.gcc_except_table,"a",@progbits
	.p2align	2
GCC_except_table4:
.Lexception2:
	.byte	255                     
	.byte	3                       
	.byte	41                      
	.byte	3                       
	.byte	39                      
	.long	.Lfunc_begin2-.Lfunc_begin2 
	.long	.Ltmp6-.Lfunc_begin2    
	.long	0                       
	.byte	0                       
	.long	.Ltmp6-.Lfunc_begin2    
	.long	.Ltmp7-.Ltmp6           
	.long	.Ltmp8-.Lfunc_begin2    
	.byte	0                       
	.long	.Ltmp7-.Lfunc_begin2    
	.long	.Lfunc_end4-.Ltmp7      
	.long	0                       
	.byte	0                       
	.p2align	2

	.text
	.globl	_ZNK5Botan7AES_12811parallelismEv 
	.p2align	1, 0x90
	.type	_ZNK5Botan7AES_12811parallelismEv,@function
_ZNK5Botan7AES_12811parallelismEv:      
	.cfi_startproc

	push	rbp
.Lcfi25:
	.cfi_def_cfa_offset 16
	push	r15
.Lcfi26:
	.cfi_def_cfa_offset 24
	push	r14
.Lcfi27:
	.cfi_def_cfa_offset 32
	push	rbx
.Lcfi28:
	.cfi_def_cfa_offset 40
	sub	rsp, 24
.Lcfi29:
	.cfi_def_cfa_offset 64
.Lcfi30:
	.cfi_offset rbx, -40
.Lcfi31:
	.cfi_offset r14, -32
.Lcfi32:
	.cfi_offset r15, -24
.Lcfi33:
	.cfi_offset rbp, -16
	mov	eax, dword ptr [rip + x.16]
	lea	ecx, [rax - 1]
	imul	ecx, eax
	not	ecx
	or	ecx, -2
	mov	r15d, -1
	cmp	ecx, r15d
	sete	byte ptr [rsp + 14]
	mov	eax, dword ptr [rip + y.17]
	cmp	eax, 10
	setl	byte ptr [rsp + 15]
	mov	eax, 1741557233
	mov	ebp, 38296860
	mov	r14d, -269854413
	mov	ebx, -2085101673
	jmp	.LBB5_1
.LBB5_6:                                
	cmp	eax, 1741557233
	jne	.LBB5_1

	mov	cl, byte ptr [rsp + 14]
	mov	al, byte ptr [rsp + 15]
	mov	edx, ecx
	xor	dl, al
	mov	edx, -269854413
	cmovne	edx, ebx
	test	al, al
	mov	eax, edx
	cmovne	eax, ebx
	test	cl, cl
	cmove	eax, edx
	jmp	.LBB5_1
.LBB5_8:                                
	call	_ZN5Botan12_GLOBAL__N_115aes_parallelismEv
	mov	qword ptr [rsp + 16], rax
	mov	eax, dword ptr [rip + x.16]
	mov	ecx, eax
	neg	ecx
	not	ecx
	imul	ecx, eax
	not	ecx
	or	ecx, -2
	cmp	ecx, r15d
	sete	cl
	mov	eax, -269854413
	cmove	eax, ebp
	cmp	dword ptr [rip + y.17], 10
	setl	dl
	cmovge	eax, r14d
	xor	dl, cl
	cmovne	eax, ebp
.LBB5_1:                                
	cmp	eax, 38296859
	jg	.LBB5_5

	cmp	eax, -2085101673
	je	.LBB5_8

	cmp	eax, -269854413
	jne	.LBB5_1

	call	_ZN5Botan12_GLOBAL__N_115aes_parallelismEv
	mov	eax, -2085101673
	jmp	.LBB5_1
.LBB5_5:                                
	cmp	eax, 38296860
	jne	.LBB5_6

	mov	rax, qword ptr [rsp + 16]
	add	rsp, 24
	pop	rbx
	pop	r14
	pop	r15
	pop	rbp
	ret
.Lfunc_end5:
	.size	_ZNK5Botan7AES_12811parallelismEv, .Lfunc_end5-_ZNK5Botan7AES_12811parallelismEv
	.cfi_endproc

	.type	_ZN5Botan12_GLOBAL__N_115aes_parallelismEv,@function 
_ZN5Botan12_GLOBAL__N_115aes_parallelismEv: 
	.cfi_startproc

	push	rbp
.Lcfi34:
	.cfi_def_cfa_offset 16
	push	r15
.Lcfi35:
	.cfi_def_cfa_offset 24
	push	r14
.Lcfi36:
	.cfi_def_cfa_offset 32
	push	rbx
.Lcfi37:
	.cfi_def_cfa_offset 40
	push	rax
.Lcfi38:
	.cfi_def_cfa_offset 48
.Lcfi39:
	.cfi_offset rbx, -40
.Lcfi40:
	.cfi_offset r14, -32
.Lcfi41:
	.cfi_offset r15, -24
.Lcfi42:
	.cfi_offset rbp, -16
	mov	eax, 114143283
	mov	r15d, -1
	mov	r14d, 248050822

	jmp	.LBB6_1
.LBB6_3:                                
	cmp	eax, -2001169882
	je	.LBB6_26

	cmp	eax, -1820361462
	jne	.LBB6_1

	mov	eax, dword ptr [rip + x.18]
	mov	ecx, dword ptr [rip + y.19]
	lea	edx, [rax - 1]
	imul	edx, eax
	not	edx
	or	edx, -2
	cmp	edx, r15d
	sete	al
	cmp	ecx, 10
	setl	bl
	xor	bl, al
	mov	eax, 1209018891
	mov	esi, 1209018891
	je	.LBB6_23
	jmp	.LBB6_24
.LBB6_14:                               
	cmp	eax, 248050822
	je	.LBB6_22

	cmp	eax, 311195924
	jne	.LBB6_1

	mov	eax, 2084658338
	mov	ebp, 2
	jmp	.LBB6_1
.LBB6_27:                               
	mov	eax, -1820361462
	jmp	.LBB6_1
.LBB6_21:                               
	call	_ZN5Botan5CPUID10has_hw_aesEv
	test	al, al
	mov	eax, -2001169882
	cmovne	eax, r14d
	jmp	.LBB6_1
.LBB6_25:                               
	mov	eax, 2084658338
	mov	ebp, 4
	jmp	.LBB6_1
.LBB6_28:                               
	mov	edi, 2
	call	_ZN5Botan5CPUID13has_cpuid_bitENS0_10CPUID_bitsE
	mov	eax, 148074048
	jmp	.LBB6_1
.LBB6_26:                               
	mov	eax, dword ptr [rip + x.18]
	mov	ecx, dword ptr [rip + y.19]
	mov	edx, eax
	neg	edx
	not	edx
	imul	edx, eax
	mov	eax, edx
	xor	eax, -2
	and	eax, edx
	sete	bl
	test	eax, eax
	mov	eax, 148074048
	mov	edx, 1586204327
	mov	esi, 148074048
	jne	.LBB6_10
	jmp	.LBB6_11
.LBB6_22:                               
	mov	eax, dword ptr [rip + x.18]
	mov	ecx, dword ptr [rip + y.19]
	lea	edx, [rax - 1]
	imul	edx, eax
	not	edx
	or	edx, -2
	cmp	edx, r15d
	sete	al
	cmp	ecx, 10
	setl	bl
	xor	bl, al
	mov	eax, -1820361462
	mov	esi, -1820361462
	jne	.LBB6_24
.LBB6_23:                               
	mov	esi, -70919781
.LBB6_24:                               
	cmp	edx, r15d
	cmovne	eax, esi
	cmp	ecx, 10
	cmovge	eax, esi
.LBB6_1:                                
	cmp	eax, 248050821
	jg	.LBB6_13

	cmp	eax, -70919782
	jle	.LBB6_3

	cmp	eax, -70919781
	je	.LBB6_27

	cmp	eax, 114143283
	je	.LBB6_21

	cmp	eax, 148074048
	jne	.LBB6_1

	mov	edi, 2
	call	_ZN5Botan5CPUID13has_cpuid_bitENS0_10CPUID_bitsE
	mov	eax, dword ptr [rip + x.18]
	mov	ecx, dword ptr [rip + y.19]
	lea	edx, [rax - 1]
	imul	edx, eax
	mov	eax, edx
	xor	eax, -2
	and	eax, edx
	sete	bl
	test	eax, eax
	mov	eax, 311195924
	mov	edx, 1586204327
	mov	esi, 311195924
	je	.LBB6_11
.LBB6_10:                               
	mov	esi, 1586204327
.LBB6_11:                               
	cmp	ecx, 10
	setl	cl
	cmovl	edx, esi
	xor	cl, bl
	jne	.LBB6_1

	mov	eax, edx
	jmp	.LBB6_1
.LBB6_13:                               
	cmp	eax, 1209018890
	jle	.LBB6_14

	cmp	eax, 1209018891
	je	.LBB6_25

	cmp	eax, 1586204327
	je	.LBB6_28

	cmp	eax, 2084658338
	jne	.LBB6_1

	mov	rax, rbp
	add	rsp, 8
	pop	rbx
	pop	r14
	pop	r15
	pop	rbp
	ret
.Lfunc_end6:
	.size	_ZN5Botan12_GLOBAL__N_115aes_parallelismEv, .Lfunc_end6-_ZN5Botan12_GLOBAL__N_115aes_parallelismEv
	.cfi_endproc

	.globl	_ZNK5Botan7AES_19211parallelismEv 
	.p2align	1, 0x90
	.type	_ZNK5Botan7AES_19211parallelismEv,@function
_ZNK5Botan7AES_19211parallelismEv:      
	.cfi_startproc

	push	rbp
.Lcfi43:
	.cfi_def_cfa_offset 16
	push	r14
.Lcfi44:
	.cfi_def_cfa_offset 24
	push	rbx
.Lcfi45:
	.cfi_def_cfa_offset 32
	sub	rsp, 16
.Lcfi46:
	.cfi_def_cfa_offset 48
.Lcfi47:
	.cfi_offset rbx, -32
.Lcfi48:
	.cfi_offset r14, -24
.Lcfi49:
	.cfi_offset rbp, -16
	mov	eax, dword ptr [rip + x.20]
	mov	ecx, eax
	neg	ecx
	not	ecx
	imul	ecx, eax
	not	ecx
	or	ecx, -2
	mov	eax, -1
	cmp	ecx, eax
	sete	byte ptr [rsp + 6]
	mov	eax, dword ptr [rip + y.21]
	cmp	eax, 10
	setl	byte ptr [rsp + 7]
	mov	ecx, -1302536623
	mov	r14d, -1024562854
	mov	ebp, -1020039658
	jmp	.LBB7_1
.LBB7_6:                                
	cmp	ecx, 1036399649
	jne	.LBB7_1

	call	_ZN5Botan12_GLOBAL__N_115aes_parallelismEv
	mov	ecx, -1024562854
	jmp	.LBB7_1
.LBB7_8:                                
	mov	al, byte ptr [rsp + 6]
	mov	cl, byte ptr [rsp + 7]
	mov	edx, eax
	xor	dl, cl
	mov	edx, 1036399649
	cmovne	edx, r14d
	test	cl, cl
	mov	ecx, edx
	cmovne	ecx, r14d
	test	al, al
	cmove	ecx, edx
.LBB7_1:                                
	cmp	ecx, -1020039659
	jg	.LBB7_5

	cmp	ecx, -1302536623
	je	.LBB7_8

	cmp	ecx, -1024562854
	jne	.LBB7_1

	call	_ZN5Botan12_GLOBAL__N_115aes_parallelismEv
	mov	ecx, dword ptr [rip + x.20]
	mov	edi, dword ptr [rip + y.21]
	lea	esi, [rcx - 1]
	imul	esi, ecx
	mov	ecx, esi
	xor	ecx, -2
	and	ecx, esi
	sete	bl
	cmp	edi, 10
	setl	dl
	xor	dl, bl
	mov	edx, 1036399649
	cmovne	edx, ebp
	test	ecx, ecx
	mov	ecx, edx
	cmove	ecx, ebp
	cmp	edi, 10
	mov	qword ptr [rsp + 8], rax
	cmovge	ecx, edx
	jmp	.LBB7_1
.LBB7_5:                                
	cmp	ecx, -1020039658
	jne	.LBB7_6

	mov	rax, qword ptr [rsp + 8]
	add	rsp, 16
	pop	rbx
	pop	r14
	pop	rbp
	ret
.Lfunc_end7:
	.size	_ZNK5Botan7AES_19211parallelismEv, .Lfunc_end7-_ZNK5Botan7AES_19211parallelismEv
	.cfi_endproc

	.globl	_ZNK5Botan7AES_25611parallelismEv 
	.p2align	1, 0x90
	.type	_ZNK5Botan7AES_25611parallelismEv,@function
_ZNK5Botan7AES_25611parallelismEv:      
	.cfi_startproc

	jmp	_ZN5Botan12_GLOBAL__N_115aes_parallelismEv 
.Lfunc_end8:
	.size	_ZNK5Botan7AES_25611parallelismEv, .Lfunc_end8-_ZNK5Botan7AES_25611parallelismEv
	.cfi_endproc

	.globl	_ZNK5Botan7AES_1289encrypt_nEPKhPhm 
	.p2align	1, 0x90
	.type	_ZNK5Botan7AES_1289encrypt_nEPKhPhm,@function
_ZNK5Botan7AES_1289encrypt_nEPKhPhm:    
	.cfi_startproc

	push	rbp
.Lcfi50:
	.cfi_def_cfa_offset 16
	push	r15
.Lcfi51:
	.cfi_def_cfa_offset 24
	push	r14
.Lcfi52:
	.cfi_def_cfa_offset 32
	push	r13
.Lcfi53:
	.cfi_def_cfa_offset 40
	push	r12
.Lcfi54:
	.cfi_def_cfa_offset 48
	push	rbx
.Lcfi55:
	.cfi_def_cfa_offset 56
	sub	rsp, 24
.Lcfi56:
	.cfi_def_cfa_offset 80
.Lcfi57:
	.cfi_offset rbx, -56
.Lcfi58:
	.cfi_offset r12, -48
.Lcfi59:
	.cfi_offset r13, -40
.Lcfi60:
	.cfi_offset r14, -32
.Lcfi61:
	.cfi_offset r15, -24
.Lcfi62:
	.cfi_offset rbp, -16
	mov	r14, rcx
	mov	r15, rdx
	mov	r12, rsi
	mov	r13, rdi
	mov	eax, dword ptr [rip + x.24]
	lea	ecx, [rax - 1]
	imul	ecx, eax
	mov	eax, ecx
	xor	eax, -2
	test	eax, ecx
	sete	byte ptr [rsp + 5]
	mov	eax, dword ptr [rip + y.25]
	cmp	eax, 10
	setl	byte ptr [rsp + 6]
	lea	rax, [r13 + 8]
	mov	qword ptr [rsp + 8], rax 
	mov	ecx, 1542032406
	mov	ebp, -1
	jmp	.LBB9_1
.LBB9_36:                               
	mov	rdi, r13
	mov	rsi, r12
	mov	rdx, r15
	mov	rcx, r14
	call	_ZNK5Botan7AES_12815vperm_encrypt_nEPKhPhm
	mov	ecx, -873848457
	jmp	.LBB9_1
.LBB9_35:                               
	mov	rdi, qword ptr [rsp + 8] 
	call	_ZNKSt6vectorIjN5Botan16secure_allocatorIjEEE5emptyEv
	xor	al, 1
	movzx	esi, al
	mov	rdi, r13
	call	_ZNK5Botan18SymmetricAlgorithm14verify_key_setEb
	call	_ZN5Botan5CPUID10has_hw_aesEv
	mov	ecx, 1676181973
	jmp	.LBB9_1
.LBB9_31:                               
	mov	rdi, r13
	mov	rsi, r12
	mov	rdx, r15
	mov	rcx, r14
	call	_ZNK5Botan7AES_12815vperm_encrypt_nEPKhPhm
	mov	ecx, dword ptr [rip + x.24]
	mov	eax, dword ptr [rip + y.25]
	lea	edx, [rcx - 1]
	imul	edx, ecx
	not	edx
	or	edx, -2
	cmp	edx, ebp
	sete	cl
	cmp	eax, 10
	setl	bl
	xor	bl, cl
	mov	ecx, 907176359
	mov	esi, 907176359
	je	.LBB9_11
	jmp	.LBB9_12
.LBB9_28:                               
	mov	al, byte ptr [rsp + 7]
	test	al, al
	mov	ecx, -2000386308
	jne	.LBB9_1

	mov	ecx, 2046042139
	jmp	.LBB9_1
.LBB9_30:                               
	mov	edi, 2
	call	_ZN5Botan5CPUID13has_cpuid_bitENS0_10CPUID_bitsE
	test	al, al
	mov	ecx, -2102766135
	mov	eax, -273631854
	cmovne	ecx, eax
	jmp	.LBB9_1
.LBB9_23:                               
	mov	rax, qword ptr [rsp + 8] 
	mov	qword ptr [rsp + 16], rax
	mov	rdi, qword ptr [rsp + 16]
	call	_ZNKSt6vectorIjN5Botan16secure_allocatorIjEEE5emptyEv
	xor	al, 1
	movzx	esi, al
	mov	rdi, r13
	call	_ZNK5Botan18SymmetricAlgorithm14verify_key_setEb
	call	_ZN5Botan5CPUID10has_hw_aesEv
	mov	ecx, dword ptr [rip + x.24]
	mov	edx, dword ptr [rip + y.25]
	mov	esi, ecx
	neg	esi
	not	esi
	imul	esi, ecx
	not	esi
	or	esi, -2
	cmp	esi, ebp
	sete	cl
	cmp	edx, 10
	setl	bl
	xor	bl, cl
	mov	edi, -568839633
	mov	ecx, -568839633
	jne	.LBB9_25

	mov	ecx, -116388044
.LBB9_25:                               
	cmp	esi, ebp
	je	.LBB9_27

	mov	edi, ecx
.LBB9_27:                               
	cmp	edx, 10
	mov	byte ptr [rsp + 7], al
	cmovl	ecx, edi
	jmp	.LBB9_1
.LBB9_34:                               
	mov	rcx, qword ptr [rsp + 16]
	mov	rdi, r12
	mov	rsi, r15
	mov	rdx, r14
	call	_ZN5Botan12_GLOBAL__N_113aes_encrypt_nEPKhPhmRKSt6vectorIjNS_16secure_allocatorIjEEE
	jmp	.LBB9_33
.LBB9_32:                               
	mov	rdi, r13
	mov	rsi, r12
	mov	rdx, r15
	mov	rcx, r14
	call	_ZNK5Botan7AES_12816hw_aes_encrypt_nEPKhPhm
.LBB9_33:                               
	mov	ecx, -1638121096
.LBB9_1:                                
	cmp	ecx, -247215206
	jle	.LBB9_2

	cmp	ecx, 1542032405
	jg	.LBB9_17

	cmp	ecx, -247215205
	je	.LBB9_36

	cmp	ecx, -116388044
	je	.LBB9_35

	cmp	ecx, 907176359
	jne	.LBB9_1
	jmp	.LBB9_33
.LBB9_2:                                
	cmp	ecx, -873848458
	jle	.LBB9_3

	cmp	ecx, -873848457
	je	.LBB9_31

	cmp	ecx, -568839633
	je	.LBB9_28

	cmp	ecx, -273631854
	jne	.LBB9_1

	mov	ecx, dword ptr [rip + x.24]
	mov	eax, dword ptr [rip + y.25]
	lea	edx, [rcx - 1]
	imul	edx, ecx
	not	edx
	or	edx, -2
	cmp	edx, ebp
	sete	cl
	cmp	eax, 10
	setl	bl
	xor	bl, cl
	mov	ecx, -873848457
	mov	esi, -873848457
	jne	.LBB9_12
.LBB9_11:                               
	mov	esi, -247215205
.LBB9_12:                               
	cmp	edx, ebp
	cmovne	ecx, esi
	cmp	eax, 10
	cmovge	ecx, esi
	jmp	.LBB9_1
.LBB9_17:                               
	cmp	ecx, 2046042139
	je	.LBB9_30

	cmp	ecx, 1676181973
	je	.LBB9_23

	cmp	ecx, 1542032406
	jne	.LBB9_1

	mov	al, byte ptr [rsp + 5]
	mov	dl, byte ptr [rsp + 6]
	mov	ecx, eax
	xor	cl, dl
	mov	ecx, 1676181973
	mov	esi, 1676181973
	jne	.LBB9_22

	mov	esi, -116388044
.LBB9_22:                               
	test	dl, dl
	cmove	ecx, esi
	test	al, al
	cmove	ecx, esi
	jmp	.LBB9_1
.LBB9_3:                                
	cmp	ecx, -2102766135
	je	.LBB9_34

	cmp	ecx, -2000386308
	je	.LBB9_32

	cmp	ecx, -1638121096
	jne	.LBB9_1

	add	rsp, 24
	pop	rbx
	pop	r12
	pop	r13
	pop	r14
	pop	r15
	pop	rbp
	ret
.Lfunc_end9:
	.size	_ZNK5Botan7AES_1289encrypt_nEPKhPhm, .Lfunc_end9-_ZNK5Botan7AES_1289encrypt_nEPKhPhm
	.cfi_endproc

	.section	.text._ZNK5Botan18SymmetricAlgorithm14verify_key_setEb,"axG",@progbits,_ZNK5Botan18SymmetricAlgorithm14verify_key_setEb,comdat
	.weak	_ZNK5Botan18SymmetricAlgorithm14verify_key_setEb 
	.p2align	1, 0x90
	.type	_ZNK5Botan18SymmetricAlgorithm14verify_key_setEb,@function
_ZNK5Botan18SymmetricAlgorithm14verify_key_setEb: 
	.cfi_startproc

	push	r14
.Lcfi63:
	.cfi_def_cfa_offset 16
	push	rbx
.Lcfi64:
	.cfi_def_cfa_offset 24
	push	rax
.Lcfi65:
	.cfi_def_cfa_offset 32
.Lcfi66:
	.cfi_offset rbx, -24
.Lcfi67:
	.cfi_offset r14, -16
	mov	r14, rdi
	movzx	eax, sil
	mov	dword ptr [rsp + 4], eax
	mov	eax, 1535281811
	jmp	.LBB10_1
.LBB10_9:                               
	cmp	eax, 1535281810
	jg	.LBB10_13

	cmp	eax, 1077522268
	je	.LBB10_17

	cmp	eax, 1201301414
	jne	.LBB10_1

	mov	eax, 1920463966
	jmp	.LBB10_1
.LBB10_3:                               
	cmp	eax, -2018017223
	je	.LBB10_28

	cmp	eax, -1279862658
	jne	.LBB10_1
	jmp	.LBB10_16
.LBB10_13:                              
	cmp	eax, 1920463966
	je	.LBB10_27

	cmp	eax, 1535281811
	jne	.LBB10_1

	cmp	dword ptr [rsp + 4], 0
	mov	eax, 1077522268
	je	.LBB10_1
.LBB10_16:                              
	mov	eax, 1075895210
	jmp	.LBB10_1
.LBB10_21:                              
	mov	rdi, r14
	call	_ZNK5Botan18SymmetricAlgorithm23throw_key_not_set_errorEv
	mov	eax, dword ptr [rip + x.26]
	mov	ecx, dword ptr [rip + y.27]
	lea	edx, [rax - 1]
	imul	edx, eax
	mov	eax, edx
	xor	eax, -2
	and	eax, edx
	sete	bl
	test	eax, eax
	mov	eax, -1279862658
	mov	edx, -2018017223
	mov	esi, -1279862658
	jne	.LBB10_18
	jmp	.LBB10_19
.LBB10_22:                              
	mov	eax, dword ptr [rip + x.26]
	mov	ecx, dword ptr [rip + y.27]
	mov	esi, eax
	neg	esi
	not	esi
	imul	esi, eax
	mov	edx, esi
	xor	edx, -2
	and	edx, esi
	sete	al
	cmp	ecx, 10
	setl	bl
	xor	bl, al
	mov	esi, 1920463966
	mov	eax, 1920463966
	jne	.LBB10_24
.LBB10_23:                              
	mov	eax, 1201301414
.LBB10_24:                              
	test	edx, edx
	je	.LBB10_26

	mov	esi, eax
.LBB10_26:                              
	cmp	ecx, 10
	cmovl	eax, esi
	jmp	.LBB10_1
.LBB10_17:                              
	mov	eax, dword ptr [rip + x.26]
	mov	ecx, dword ptr [rip + y.27]
	mov	edx, eax
	neg	edx
	not	edx
	imul	edx, eax
	mov	eax, edx
	xor	eax, -2
	and	eax, edx
	sete	bl
	test	eax, eax
	mov	eax, 171829925
	mov	edx, -2018017223
	mov	esi, 171829925
	je	.LBB10_19
.LBB10_18:                              
	mov	esi, -2018017223
.LBB10_19:                              
	cmp	ecx, 10
	setl	cl
	cmovl	edx, esi
	xor	cl, bl
	jne	.LBB10_1

	mov	eax, edx
	jmp	.LBB10_1
.LBB10_28:                              
	mov	rdi, r14
	call	_ZNK5Botan18SymmetricAlgorithm23throw_key_not_set_errorEv
	mov	eax, 171829925
	jmp	.LBB10_1
.LBB10_27:                              
	mov	eax, dword ptr [rip + x.26]
	mov	ecx, dword ptr [rip + y.27]
	lea	esi, [rax - 1]
	imul	esi, eax
	mov	edx, esi
	xor	edx, -2
	and	edx, esi
	sete	al
	cmp	ecx, 10
	setl	bl
	xor	bl, al
	mov	esi, -360800794
	mov	eax, -360800794
	je	.LBB10_23
	jmp	.LBB10_24
.LBB10_1:                               
	cmp	eax, 1077522267
	jg	.LBB10_9

	cmp	eax, -360800795
	jle	.LBB10_3

	cmp	eax, 171829925
	je	.LBB10_21

	cmp	eax, 1075895210
	je	.LBB10_22

	cmp	eax, -360800794
	jne	.LBB10_1

	add	rsp, 8
	pop	rbx
	pop	r14
	ret
.Lfunc_end10:
	.size	_ZNK5Botan18SymmetricAlgorithm14verify_key_setEb, .Lfunc_end10-_ZNK5Botan18SymmetricAlgorithm14verify_key_setEb
	.cfi_endproc

	.section	.text._ZNKSt6vectorIjN5Botan16secure_allocatorIjEEE5emptyEv,"axG",@progbits,_ZNKSt6vectorIjN5Botan16secure_allocatorIjEEE5emptyEv,comdat
	.weak	_ZNKSt6vectorIjN5Botan16secure_allocatorIjEEE5emptyEv 
	.p2align	1, 0x90
	.type	_ZNKSt6vectorIjN5Botan16secure_allocatorIjEEE5emptyEv,@function
_ZNKSt6vectorIjN5Botan16secure_allocatorIjEEE5emptyEv: 

	push	rbx
	sub	rsp, 16
	mov	rbx, rdi
	call	_ZNKSt6vectorIjN5Botan16secure_allocatorIjEEE5beginEv
	mov	r8, qword ptr [rbx + 8]
	mov	edx, dword ptr [rip + x.600]
	mov	esi, dword ptr [rip + y.601]
	mov	edi, edx
	neg	edi
	not	edi
	imul	edi, edx
	mov	edx, edi
	xor	edx, -2
	and	edx, edi
	sete	cl
	sete	byte ptr [rsp + 13]
	test	edx, edx
	mov	ebx, 1399901027
	mov	r9d, -52605620
	mov	edi, -52605620
	cmove	edi, ebx
	cmp	esi, 10
	setl	dl
	setl	byte ptr [rsp + 14]
	cmovge	edi, r9d
	xor	dl, cl
	cmovne	edi, ebx
	mov	esi, 1842426453
	mov	r10d, 1825752717
	jmp	.LBB11_1
.LBB11_5:                               
	cmp	esi, 1825752717
	je	.LBB11_8

	cmp	esi, 1842426453
	jne	.LBB11_1

	mov	bl, byte ptr [rsp + 13]
	mov	dl, byte ptr [rsp + 14]
	mov	ecx, ebx
	xor	cl, dl
	test	dl, dl
	mov	esi, -52605620
	cmovne	esi, r10d
	test	bl, bl
	cmove	esi, r9d
	test	cl, cl
	cmovne	esi, r10d
	jmp	.LBB11_1
.LBB11_9:                               
	mov	esi, 1825752717
	jmp	.LBB11_1
.LBB11_8:                               
	cmp	rax, r8
	sete	byte ptr [rsp + 15]
	mov	esi, edi
.LBB11_1:                               
	cmp	esi, 1825752716
	jg	.LBB11_5

	cmp	esi, -52605620
	je	.LBB11_9

	cmp	esi, 1399901027
	jne	.LBB11_1

	mov	al, byte ptr [rsp + 15]
	add	rsp, 16
	pop	rbx
	ret
.Lfunc_end11:
	.size	_ZNKSt6vectorIjN5Botan16secure_allocatorIjEEE5emptyEv, .Lfunc_end11-_ZNKSt6vectorIjN5Botan16secure_allocatorIjEEE5emptyEv

	.section	.text._ZN5Botan5CPUID10has_hw_aesEv,"axG",@progbits,_ZN5Botan5CPUID10has_hw_aesEv,comdat
	.weak	_ZN5Botan5CPUID10has_hw_aesEv 
	.p2align	1, 0x90
	.type	_ZN5Botan5CPUID10has_hw_aesEv,@function
_ZN5Botan5CPUID10has_hw_aesEv:          
	.cfi_startproc

	push	rbp
.Lcfi68:
	.cfi_def_cfa_offset 16
	push	r14
.Lcfi69:
	.cfi_def_cfa_offset 24
	push	rbx
.Lcfi70:
	.cfi_def_cfa_offset 32
	sub	rsp, 16
.Lcfi71:
	.cfi_def_cfa_offset 48
.Lcfi72:
	.cfi_offset rbx, -32
.Lcfi73:
	.cfi_offset r14, -24
.Lcfi74:
	.cfi_offset rbp, -16
	mov	eax, dword ptr [rip + x.30]
	mov	ecx, eax
	neg	ecx
	not	ecx
	imul	ecx, eax
	mov	eax, ecx
	xor	eax, -2
	test	eax, ecx
	sete	byte ptr [rsp + 13]
	mov	eax, dword ptr [rip + y.31]
	cmp	eax, 10
	setl	byte ptr [rsp + 14]
	mov	eax, -858632983
	mov	r14d, 935025466
	mov	ebp, 379829018
	mov	ebx, 587788964
	jmp	.LBB12_1
.LBB12_6:                               
	cmp	eax, 935025466
	jne	.LBB12_1

	call	_ZN5Botan5CPUID10has_aes_niEv
	mov	byte ptr [rsp + 15], al
	mov	eax, dword ptr [rip + x.30]
	lea	ecx, [rax - 1]
	imul	ecx, eax
	mov	eax, ecx
	xor	eax, -2
	and	eax, ecx
	sete	cl
	test	eax, eax
	mov	eax, 379829018
	cmove	eax, ebx
	cmp	dword ptr [rip + y.31], 10
	setl	dl
	cmovge	eax, ebp
	xor	dl, cl
	cmovne	eax, ebx
	jmp	.LBB12_1
.LBB12_9:                               
	mov	cl, byte ptr [rsp + 13]
	mov	al, byte ptr [rsp + 14]
	mov	edx, ecx
	xor	dl, al
	test	al, al
	mov	eax, 379829018
	cmovne	eax, r14d
	test	cl, cl
	cmove	eax, ebp
	test	dl, dl
	cmovne	eax, r14d
.LBB12_1:                               
	cmp	eax, 587788963
	jg	.LBB12_5

	cmp	eax, -858632983
	je	.LBB12_9

	cmp	eax, 379829018
	jne	.LBB12_1

	call	_ZN5Botan5CPUID10has_aes_niEv
	mov	eax, 935025466
	jmp	.LBB12_1
.LBB12_5:                               
	cmp	eax, 587788964
	jne	.LBB12_6

	mov	al, byte ptr [rsp + 15]
	add	rsp, 16
	pop	rbx
	pop	r14
	pop	rbp
	ret
.Lfunc_end12:
	.size	_ZN5Botan5CPUID10has_hw_aesEv, .Lfunc_end12-_ZN5Botan5CPUID10has_hw_aesEv
	.cfi_endproc

	.text
	.type	_ZN5Botan12_GLOBAL__N_113aes_encrypt_nEPKhPhmRKSt6vectorIjNS_16secure_allocatorIjEEE,@function 
_ZN5Botan12_GLOBAL__N_113aes_encrypt_nEPKhPhmRKSt6vectorIjNS_16secure_allocatorIjEEE: 
	.cfi_startproc

	push	rbp
.Lcfi75:
	.cfi_def_cfa_offset 16
	push	r15
.Lcfi76:
	.cfi_def_cfa_offset 24
	push	r14
.Lcfi77:
	.cfi_def_cfa_offset 32
	push	r13
.Lcfi78:
	.cfi_def_cfa_offset 40
	push	r12
.Lcfi79:
	.cfi_def_cfa_offset 48
	push	rbx
.Lcfi80:
	.cfi_def_cfa_offset 56
	sub	rsp, 696
.Lcfi81:
	.cfi_def_cfa_offset 752
.Lcfi82:
	.cfi_offset rbx, -56
.Lcfi83:
	.cfi_offset r12, -48
.Lcfi84:
	.cfi_offset r13, -40
.Lcfi85:
	.cfi_offset r14, -32
.Lcfi86:
	.cfi_offset r15, -24
.Lcfi87:
	.cfi_offset rbp, -16
	mov	r14, rcx
	mov	qword ptr [rsp + 248], rsi 
	mov	qword ptr [rsp + 240], rdi 
	lea	rax, [rsp + 56]
	mov	qword ptr [rax], rdx
	mov	rdi, r14
	call	_ZNKSt6vectorIjN5Botan16secure_allocatorIjEEE4sizeEv
	mov	qword ptr [rsp + 256], rax
	mov	eax, -428860352
	mov	r12d, -1












.LBB13_1:                               








	cmp	eax, 16154549
	jle	.LBB13_2

	cmp	eax, 892964415
	jg	.LBB13_56

	cmp	eax, 326319139
	jle	.LBB13_39

	cmp	eax, 513833806
	jle	.LBB13_48

	cmp	eax, 513833807
	je	.LBB13_89

	cmp	eax, 657886111
	je	.LBB13_124

	cmp	eax, 729198591
	jne	.LBB13_1

	mov	eax, dword ptr [rip + x.34]
	mov	ecx, dword ptr [rip + y.35]
	mov	edx, eax
	neg	edx
	not	edx
	imul	edx, eax
	mov	eax, edx
	xor	eax, -2
	and	eax, edx
	sete	dl
	cmp	ecx, 10
	setl	bl
	xor	bl, dl
	mov	edx, 78447386
	mov	esi, 182028798
	cmovne	edx, esi
	test	eax, eax
	mov	eax, edx
	cmove	eax, esi
	cmp	ecx, 10
	mov	rcx, qword ptr [rsp + 144] 
	mov	qword ptr [rsp + 192], rcx
	mov	rcx, qword ptr [rsp + 136] 
	mov	qword ptr [rsp + 200], rcx
	cmovge	eax, edx
	jmp	.LBB13_1
.LBB13_2:                               
	cmp	eax, -1014821755
	jg	.LBB13_20

	cmp	eax, -1576463526
	jg	.LBB13_12

	cmp	eax, -1762511514
	jle	.LBB13_5

	cmp	eax, -1762511513
	je	.LBB13_142

	cmp	eax, -1651862422
	je	.LBB13_125

	cmp	eax, -1636808324
	jne	.LBB13_1

	mov	rax, qword ptr [rsp + 64]
	and	eax, 3
	mov	rcx, qword ptr [r14]
	mov	eax, dword ptr [rcx + 4*rax]
	mov	rcx, qword ptr [rsp + 64]
	mov	edx, dword ptr [rsp + 4*rcx + 208]
	mov	esi, edx
	not	esi
	and	esi, -1486153061
	and	edx, 1486153060
	or	edx, esi
	mov	esi, eax
	not	esi
	and	esi, -1486153061
	and	eax, 1486153060
	or	eax, esi
	xor	eax, edx
	mov	dword ptr [rsp + 4*rcx + 208], eax
	mov	rax, qword ptr [rsp + 64]
	movabs	rcx, -5464113104479175582
	lea	r15, [rax + rcx + 1]
	sub	r15, rcx
	mov	eax, 2055030961
	jmp	.LBB13_1
.LBB13_56:                              
	cmp	eax, 1369937040
	jg	.LBB13_70

	cmp	eax, 1032338433
	jle	.LBB13_58

	cmp	eax, 1032338434
	je	.LBB13_82

	cmp	eax, 1260365200
	je	.LBB13_128

	cmp	eax, 1341593016
	jne	.LBB13_1

	mov	eax, dword ptr [rip + x.34]
	lea	ecx, [rax - 1]
	imul	ecx, eax
	mov	eax, ecx
	xor	eax, -2
	and	eax, ecx
	sete	cl
	test	eax, eax
	mov	eax, 1651681856
	mov	edi, -1576463525
	cmove	eax, edi
	cmp	dword ptr [rip + y.35], 10
	setl	dl
	mov	esi, 1651681856
	jmp	.LBB13_129
.LBB13_20:                              
	cmp	eax, -666012334
	jg	.LBB13_29

	cmp	eax, -707373487
	jle	.LBB13_22

	cmp	eax, -707373486
	je	.LBB13_80

	cmp	eax, -683711635
	je	.LBB13_133

	cmp	eax, -678774347
	jne	.LBB13_1

	mov	rax, qword ptr [rsp + 80]
	shl	rax, 5
	lea	rdi, [rsp + rax + 272]
	mov	rsi, qword ptr [r14]
	mov	rax, qword ptr [rsp + 80]
	shl	rax, 2
	movabs	rcx, 7404938610837256765
	sub	rax, rcx
	lea	rdx, [rax + rcx + 4]
	call	_ZN5Botan12_GLOBAL__N_19ks_expandEPjPKjm
	mov	rax, qword ptr [rsp + 80]
	xor	ecx, ecx
	sub	rcx, rax
	mov	eax, 1
	sub	rax, rcx
	mov	qword ptr [rsp + 128], rax 
	mov	eax, 1032338434
	jmp	.LBB13_1
.LBB13_39:                              
	cmp	eax, 129587939
	jle	.LBB13_40

	cmp	eax, 129587940
	je	.LBB13_127

	cmp	eax, 182028798
	je	.LBB13_87

	cmp	eax, 184413107
	jne	.LBB13_1

	mov	rdi, r14
	call	_ZNKSt6vectorIjN5Botan16secure_allocatorIjEEE4sizeEv
	cmp	rax, 60
	mov	eax, 343772508
	jmp	.LBB13_79
.LBB13_70:                              
	cmp	eax, 1714136853
	jle	.LBB13_71

	cmp	eax, 1714136854
	je	.LBB13_144

	cmp	eax, 1866821304
	je	.LBB13_141

	cmp	eax, 2055030961
	jne	.LBB13_1

	mov	qword ptr [rsp + 64], r15
	mov	eax, dword ptr [rip + x.34]
	lea	ecx, [rax - 1]
	imul	ecx, eax
	mov	eax, ecx
	xor	eax, -2
	and	eax, ecx
	sete	cl
	test	eax, eax
	mov	eax, -666012333
	mov	edi, 657886111
	cmove	eax, edi
	cmp	dword ptr [rip + y.35], 10
	setl	dl
	mov	esi, -666012333
	jmp	.LBB13_129
.LBB13_12:                              
	cmp	eax, -1389644045
	jle	.LBB13_13

	cmp	eax, -1389644044
	je	.LBB13_132

	cmp	eax, -1368772205
	je	.LBB13_146

	cmp	eax, -1245602610
	jne	.LBB13_1

	mov	rax, qword ptr [rsp + 120]
	inc	rax
	mov	qword ptr [rsp + 152], rax 
	mov	eax, 129587940
	jmp	.LBB13_1
.LBB13_29:                              
	cmp	eax, -428860353
	jle	.LBB13_30

	cmp	eax, -428860352
	je	.LBB13_78

	cmp	eax, -397774342
	je	.LBB13_148

	cmp	eax, -276311473
	jne	.LBB13_1

	mov	rax, qword ptr [rsp + 24]
	mov	rsi, qword ptr [rsp + 184]
	shl	rsi, 2
	mov	rdx, qword ptr [rsp + 24]
	mov	rdi, qword ptr [rsp + 200]
	call	_ZN5Botan11copy_out_beIjEEvPhmPKT_
	mov	rax, qword ptr [rsp + 104]
	shl	rax, 4
	mov	rcx, qword ptr [rsp + 192]
	add	rcx, rax
	mov	qword ptr [rsp + 144], rcx 
	mov	rcx, qword ptr [rsp + 200]
	add	rcx, rax
	mov	qword ptr [rsp + 136], rcx 
	mov	rax, qword ptr [rsp + 56]
	mov	rcx, qword ptr [rsp + 104]
	movabs	rdx, 6416961606302536563
	sub	rax, rdx
	sub	rax, rcx
	add	rax, rdx
	mov	qword ptr [rsp + 56], rax
	mov	rax, qword ptr [rsp + 112]
	mov	eax, 729198591
	jmp	.LBB13_1
.LBB13_48:                              
	cmp	eax, 326319140
	je	.LBB13_85

	cmp	eax, 473940983
	jne	.LBB13_50

	mov	eax, 729198591
	mov	rcx, qword ptr [rsp + 240] 
	mov	qword ptr [rsp + 144], rcx 
	mov	rcx, qword ptr [rsp + 248] 
	mov	qword ptr [rsp + 136], rcx 
	jmp	.LBB13_1
.LBB13_58:                              
	cmp	eax, 892964416
	je	.LBB13_149

	cmp	eax, 914609320
	jne	.LBB13_1

	mov	rdi, qword ptr [rsp + 24]
	call	_ZN5Botan12_GLOBAL__N_18AES_SBOXEPj
	mov	r10, qword ptr [rsp + 24]
	xor	ecx, ecx
.LBB13_61:                              


	mov	edx, -2142336793
	jmp	.LBB13_62
.LBB13_64:                              
	cmp	edx, -2142336793
	jne	.LBB13_62

	mov	qword ptr [rsp + 16], rcx
	mov	rdx, qword ptr [rsp + 16]
	cmp	rdx, 8
	mov	edx, 2130081502
	mov	esi, -881984519
	cmove	edx, esi
.LBB13_62:                              


	cmp	edx, 2130081502
	je	.LBB13_130

	cmp	edx, -881984519
	jne	.LBB13_64
	jmp	.LBB13_131
.LBB13_130:                             
	mov	r8, qword ptr [rsp + 16]
	mov	esi, dword ptr [r10 + 4*r8]
	shl	rsi, 32
	mov	r9, qword ptr [rsp + 16]
	mov	ebp, dword ptr [r10 + 4*r9 + 4]
	or	rbp, rsi
	mov	rsi, rbp
	shr	rsi, 2
	mov	rbx, rsi
	not	rbx
	and	rbx, rbp
	mov	rdi, rbp
	not	rdi
	and	rsi, rdi
	or	rsi, rbx
	not	rsi
	movabs	rcx, 9626297317864209
	not	rcx
	or	rcx, rsi
	mov	rdx, rcx
	not	rdx
	movabs	rsi, -5549674884387739130
	mov	rax, rsi
	and	rcx, rax
	mov	rbx, rax
	not	rbx
	mov	rsi, rdx
	and	rsi, rbx
	or	rsi, rcx
	and	rdi, rax
	and	rbx, rbp
	or	rbx, rdi
	xor	rbx, rsi
	shl	rdx, 2
	mov	rcx, rbx
	not	rcx
	movabs	rax, 8687968197071533419
	and	rcx, rax
	mov	rdi, rax
	not	rdi
	and	rbx, rdi
	or	rbx, rcx
	and	rdi, rdx
	not	rdx
	and	rdx, rax
	or	rdi, rdx
	xor	rdi, rbx
	mov	rcx, rdi
	shr	rcx
	mov	rdx, rcx
	not	rdx
	and	rdx, rdi
	mov	rsi, rdi
	not	rsi
	and	rcx, rsi
	or	rcx, rdx
	mov	rdx, rcx
	movabs	rbp, 23925738098196565
	xor	rdx, rbp
	not	rdx
	and	rdx, rcx
	mov	rcx, rdx
	not	rcx
	and	rcx, rdi
	and	rsi, rdx
	or	rsi, rcx
	add	rdx, rdx
	mov	rcx, rsi
	not	rcx
	movabs	rax, 7593323354351592997
	and	rcx, rax
	mov	rdi, rax
	not	rdi
	and	rsi, rdi
	or	rsi, rcx
	and	rdi, rdx
	not	rdx
	and	rdx, rax
	or	rdi, rdx
	xor	rdi, rsi
	mov	rcx, rdi
	shr	rcx, 32
	mov	dword ptr [r10 + 4*r8], ecx
	mov	dword ptr [r10 + 4*r9 + 4], edi
	mov	rcx, qword ptr [rsp + 16]
	movabs	rax, 6895283026304423363
	lea	rcx, [rcx + rax + 2]
	sub	rcx, rax
	jmp	.LBB13_61
.LBB13_40:                              
	cmp	eax, 16154550
	je	.LBB13_83

	cmp	eax, 78447386
	jne	.LBB13_1

	mov	eax, 182028798
	jmp	.LBB13_1
.LBB13_71:                              
	cmp	eax, 1369937041
	je	.LBB13_81

	cmp	eax, 1651681856
	jne	.LBB13_1

	mov	rax, qword ptr [rsp + 48]
	mov	rax, qword ptr [rsp + 48]
	mov	rax, qword ptr [rsp + 48]
	mov	rax, qword ptr [rsp + 48]
	mov	rax, qword ptr [rsp + 48]
	mov	rax, qword ptr [rsp + 48]
	mov	rcx, qword ptr [rsp + 40]
	mov	rcx, qword ptr [rsp + 40]
	and	ecx, 3
	lea	rax, [rcx + 4*rax]
	mov	rcx, qword ptr [r14]
	mov	eax, dword ptr [rcx + 4*rax]
	mov	rcx, qword ptr [rsp + 40]
	mov	edx, dword ptr [rsp + 4*rcx + 208]
	mov	esi, edx
	not	esi
	and	esi, eax
	not	eax
	and	eax, edx
	or	eax, esi
	mov	dword ptr [rsp + 4*rcx + 208], eax
	mov	rax, qword ptr [rsp + 40]
	mov	rax, qword ptr [rsp + 40]
	mov	rax, qword ptr [rsp + 40]
	mov	eax, -1576463525
	jmp	.LBB13_1
.LBB13_5:                               
	cmp	eax, -2119613426
	je	.LBB13_126

	cmp	eax, -2071534172
	jne	.LBB13_1

	mov	rdi, qword ptr [rsp + 24]
	call	_ZN5Botan12_GLOBAL__N_113bit_transposeEPj
	mov	eax, dword ptr [rip + x.34]
	mov	ecx, eax
	neg	ecx
	not	ecx
	imul	ecx, eax
	not	ecx
	or	ecx, -2
	cmp	ecx, r12d
	sete	cl
	mov	eax, -397774342
	mov	esi, -2119613426
	cmove	eax, esi
	cmp	dword ptr [rip + y.35], 10
	setl	dl
	mov	edi, -397774342
	jmp	.LBB13_88
.LBB13_22:                              
	cmp	eax, -1014821754
	je	.LBB13_145

	cmp	eax, -722665586
	jne	.LBB13_1

	mov	al, byte ptr [rsp + 36]
	test	al, al
	mov	eax, -1014821754
	mov	ecx, 513833807
	cmovne	eax, ecx
	jmp	.LBB13_1
.LBB13_13:                              
	cmp	eax, -1576463525
	je	.LBB13_143

	cmp	eax, -1400838068
	jne	.LBB13_1

	mov	rax, qword ptr [rsp + 160] 
	mov	qword ptr [rsp + 40], rax
	mov	rax, qword ptr [rsp + 40]
	cmp	rax, 8
	mov	eax, 1341593016
	mov	ecx, -276311473
	cmove	eax, ecx
	jmp	.LBB13_1
.LBB13_30:                              
	cmp	eax, -666012333
	je	.LBB13_147

	cmp	eax, -446196315
	jne	.LBB13_1

	mov	al, byte ptr [rsp + 37]
	test	al, al
	mov	eax, -1651862422
	mov	ecx, -1636808324
	cmovne	eax, ecx
	jmp	.LBB13_1
.LBB13_89:                              
	mov	eax, dword ptr [rip + x.122]
	mov	ecx, dword ptr [rip + y.123]
	mov	edx, eax
	neg	edx
	not	edx
	imul	edx, eax
	not	edx
	or	edx, -2
	cmp	edx, r12d
	sete	al
	sete	byte ptr [rsp + 38]
	cmp	ecx, 10
	setl	cl
	setl	byte ptr [rsp + 39]
	mov	r8, qword ptr [rsp + 72]
	mov	r9, qword ptr [rsp + 56]
	mov	edx, ecx
	and	dl, al
	xor	cl, al
	or	cl, dl
	mov	r10d, 1791850201
	mov	eax, -1889708488
	cmovne	r10d, eax
	mov	r11d, -1111337584
	mov	eax, -1930828734
	cmovne	r11d, eax
	mov	edi, -1111337584
	mov	eax, 1840184730
	cmovne	edi, eax
	mov	eax, 74711749

	lea	r15, [rsp + 56]
	jmp	.LBB13_90
.LBB13_92:                              
	cmp	ebx, -1930828734
	mov	eax, edi
	je	.LBB13_90

	cmp	ebx, -1889708488
	mov	eax, ebx
	jne	.LBB13_90

	mov	al, byte ptr [rsp + 15]
	test	al, al
	mov	eax, -1000457557
	jne	.LBB13_90

	mov	eax, -1477322254
	jmp	.LBB13_90
.LBB13_101:                             
	cmp	ebx, -511301605
	je	.LBB13_115

	cmp	ebx, 74711749
	mov	eax, ebx
	jne	.LBB13_90

	mov	cl, byte ptr [rsp + 38]
	mov	al, byte ptr [rsp + 39]
	mov	ebx, ecx
	xor	bl, al
	test	al, al
	mov	edx, 1076867878
	mov	eax, 1791850201
	mov	esi, 1076867878
	jne	.LBB13_105

	mov	esi, 1791850201
.LBB13_105:                             
	test	cl, cl
	cmovne	eax, esi
	test	bl, bl
	cmovne	eax, edx
	jmp	.LBB13_90
.LBB13_117:                             
	mov	eax, -1930828734
	jmp	.LBB13_90
.LBB13_116:                             
	mov	eax, 1076867878
	jmp	.LBB13_90
.LBB13_115:                             
	mov	qword ptr [rsp + 16], rbp
	mov	eax, r11d
	jmp	.LBB13_90
.LBB13_113:                             
	cmp	r8, r9
	setb	byte ptr [rsp + 15]
	mov	eax, r10d
	jmp	.LBB13_90
.LBB13_114:                             
	mov	eax, -511301605
	mov	rbp, r15
.LBB13_90:                              

	mov	ebx, eax
	cmp	ebx, -511301606
	jg	.LBB13_100

	cmp	ebx, -1477322255
	jle	.LBB13_92

	cmp	ebx, -1477322254
	je	.LBB13_114

	cmp	ebx, -1111337584
	je	.LBB13_117

	cmp	ebx, -1000457557
	mov	eax, ebx
	jne	.LBB13_90

	mov	eax, -511301605
	lea	rbp, [rsp + 72]
	jmp	.LBB13_90
.LBB13_100:                             
	cmp	ebx, 1076867877
	jle	.LBB13_101

	cmp	ebx, 1076867878
	je	.LBB13_113

	cmp	ebx, 1791850201
	je	.LBB13_116

	cmp	ebx, 1840184730
	mov	eax, ebx
	jne	.LBB13_90

	mov	rax, qword ptr [rsp + 16]
	mov	rax, qword ptr [rax]
	mov	qword ptr [rsp + 104], rax
	lea	rax, [rsp + 208]
	mov	rcx, rax
	mov	qword ptr [rsp + 112], rcx
	mov	rax, qword ptr [rsp + 112]
	mov	rax, qword ptr [rsp + 112]
	xorps	xmm0, xmm0
	movaps	xmmword ptr [rax + 16], xmm0
	movaps	xmmword ptr [rax], xmm0
	mov	qword ptr [rsp + 24], rcx
	mov	rax, qword ptr [rsp + 104]
	shl	rax, 2
	mov	qword ptr [rsp + 184], rax
	mov	rdi, qword ptr [rsp + 24]
	mov	rdx, qword ptr [rsp + 184]
	mov	rsi, qword ptr [rsp + 192]
	call	_ZN5Botan7load_beIjEEvPT_PKhm
	mov	rax, qword ptr [rsp + 24]
	mov	eax, dword ptr [rip + x.126]
	mov	ecx, dword ptr [rip + y.127]
	lea	edx, [rax - 1]
	imul	edx, eax
	mov	eax, edx
	xor	eax, -2
	and	eax, edx
	sete	dl
	sete	byte ptr [rsp + 15]
	cmp	ecx, 10
	setl	bl
	xor	bl, dl
	mov	edx, -1381892811
	mov	esi, -951711879
	cmovne	edx, esi
	test	eax, eax
	mov	eax, edx
	cmove	eax, esi
	cmp	ecx, 10
	setl	byte ptr [rsp + 16]
	cmovge	eax, edx
	mov	ecx, -1865400800
	jmp	.LBB13_110
.LBB13_82:                              
	mov	rax, qword ptr [rsp + 128] 
	mov	qword ptr [rsp + 80], rax
	mov	rax, qword ptr [rsp + 48]
	xor	ecx, ecx
	sub	rcx, rax
	not	rcx
	mov	qword ptr [rsp + 168], rcx
	mov	rax, qword ptr [rsp + 168]
	mov	rcx, qword ptr [rsp + 80]
	cmp	rcx, rax
	mov	eax, 16154550
	mov	ecx, -678774347
	cmovb	eax, ecx
	jmp	.LBB13_1
.LBB13_127:                             
	mov	rax, qword ptr [rsp + 152] 
	mov	qword ptr [rsp + 120], rax
	mov	rax, qword ptr [rsp + 168]
	mov	rcx, qword ptr [rsp + 120]
	cmp	rcx, rax
	mov	eax, -683711635
	mov	ecx, 1260365200
	cmove	eax, ecx
	jmp	.LBB13_1
.LBB13_144:                             
	mov	eax, -1400838068
	mov	rcx, qword ptr [rsp + 264]
	mov	qword ptr [rsp + 160], rcx 
	jmp	.LBB13_1
.LBB13_112:                             
	mov	ecx, eax
	jmp	.LBB13_110
.LBB13_123:                             
	mov	ecx, -2042384682
.LBB13_110:                             

	mov	edx, ecx
	and	edx, 2147483647
	cmp	edx, 765590836
	jg	.LBB13_118

	cmp	edx, 105098966
	je	.LBB13_112

	cmp	edx, 282082848
	jne	.LBB13_110

	mov	bl, byte ptr [rsp + 15]
	mov	cl, byte ptr [rsp + 16]
	mov	edx, ebx
	xor	dl, cl
	test	cl, cl
	mov	ecx, -1381892811
	mov	edi, -2042384682
	cmovne	ecx, edi
	test	bl, bl
	mov	esi, -1381892811
	cmove	ecx, esi
	test	dl, dl
	cmovne	ecx, edi
	jmp	.LBB13_110
.LBB13_118:                             
	cmp	edx, 765590837
	je	.LBB13_123

	cmp	edx, 1195771769
	jne	.LBB13_110

	mov	eax, 2055030961
	xor	r15d, r15d
	jmp	.LBB13_1
.LBB13_124:                             
	mov	eax, dword ptr [rip + x.34]
	mov	ecx, dword ptr [rip + y.35]
	lea	edx, [rax - 1]
	imul	edx, eax
	not	edx
	or	edx, -2
	cmp	edx, r12d
	sete	al
	cmp	ecx, 10
	setl	bl
	xor	bl, al
	mov	esi, -666012333
	mov	edi, -446196315
	cmovne	esi, edi
	cmp	edx, r12d
	mov	eax, esi
	cmove	eax, edi
	cmp	ecx, 10
	mov	rcx, qword ptr [rsp + 64]
	cmovge	eax, esi
	cmp	rcx, 8
	setne	byte ptr [rsp + 37]
	jmp	.LBB13_1
.LBB13_142:                             
	mov	rax, qword ptr [rsp + 120]
	mov	rcx, qword ptr [rsp + 88]
	lea	rax, [rcx + 8*rax]
	mov	eax, dword ptr [rsp + 4*rax + 272]
	mov	rcx, qword ptr [rsp + 88]
	mov	edx, dword ptr [rsp + 4*rcx + 208]
	mov	esi, edx
	not	esi
	and	esi, -866052173
	and	edx, 866052172
	or	edx, esi
	mov	esi, eax
	not	esi
	and	esi, -866052173
	and	eax, 866052172
	or	eax, esi
	xor	eax, edx
	mov	dword ptr [rsp + 4*rcx + 208], eax
	mov	r13, qword ptr [rsp + 88]
	inc	r13
	mov	eax, 1866821304
	jmp	.LBB13_1
.LBB13_125:                             
	mov	eax, dword ptr [rip + x.34]
	mov	ecx, dword ptr [rip + y.35]
	mov	edx, eax
	neg	edx
	not	edx
	imul	edx, eax
	mov	eax, edx
	xor	eax, -2
	and	eax, edx
	sete	dl
	cmp	ecx, 10
	setl	bl
	xor	bl, dl
	mov	edx, -397774342
	mov	esi, -2071534172
	cmovne	edx, esi
	test	eax, eax
	mov	eax, edx
	cmove	eax, esi
	cmp	ecx, 10
	cmovge	eax, edx
	jmp	.LBB13_1
.LBB13_128:                             
	mov	eax, dword ptr [rip + x.34]
	lea	ecx, [rax - 1]
	imul	ecx, eax
	mov	eax, ecx
	xor	eax, -2
	and	eax, ecx
	sete	cl
	test	eax, eax
	mov	eax, 892964416
	mov	edi, 914609320
	cmove	eax, edi
	cmp	dword ptr [rip + y.35], 10
	setl	dl
	mov	esi, 892964416
.LBB13_129:                             
	cmovge	eax, esi
	xor	dl, cl
	cmovne	eax, edi
	jmp	.LBB13_1
.LBB13_80:                              
	mov	rdi, r14
	call	_ZNKSt6vectorIjN5Botan16secure_allocatorIjEEE4sizeEv
	cmp	rax, 52
	mov	eax, 184413107
	jmp	.LBB13_79
.LBB13_133:                             
	mov	rdi, qword ptr [rsp + 24]
	call	_ZN5Botan12_GLOBAL__N_18AES_SBOXEPj
	mov	r9, qword ptr [rsp + 24]
	xor	ecx, ecx
.LBB13_134:                             


	mov	edx, -2142336793
	jmp	.LBB13_135
.LBB13_137:                             
	cmp	edx, -2142336793
	jne	.LBB13_135

	mov	qword ptr [rsp + 16], rcx
	mov	rdx, qword ptr [rsp + 16]
	cmp	rdx, 8
	mov	edx, 2130081502
	mov	eax, -881984519
	cmove	edx, eax
.LBB13_135:                             


	cmp	edx, 2130081502
	je	.LBB13_139

	cmp	edx, -881984519
	jne	.LBB13_137
	jmp	.LBB13_140
.LBB13_139:                             
	mov	r8, qword ptr [rsp + 16]
	mov	edi, dword ptr [r9 + 4*r8]
	shl	rdi, 32
	mov	rsi, qword ptr [rsp + 16]
	shl	rsi, 2
	mov	r10, -4
	sub	r10, rsi
	mov	rsi, r9
	sub	rsi, r10
	mov	ebp, dword ptr [rsi]
	mov	rbx, rdi
	not	rbx
	movabs	rax, -8695093455996851650
	mov	rsi, rax
	not	rsi
	and	rdi, rsi
	and	rsi, rbp
	not	rbp
	and	rbx, rax
	or	rdi, rbx
	and	rbp, rax
	or	rsi, rbp
	xor	rsi, rdi
	mov	rdi, rsi
	shr	rdi, 2
	mov	rbp, rdi
	not	rbp
	and	rbp, rsi
	mov	rcx, rsi
	not	rcx
	and	rdi, rcx
	or	rdi, rbp
	not	rdi
	movabs	rbp, 9626297317864209
	not	rbp
	or	rbp, rdi
	mov	rax, rbp
	not	rax
	movabs	rdi, -3973675854916652028
	mov	rdx, rdi
	and	rbp, rdx
	mov	rbx, rdx
	not	rbx
	mov	rdi, rax
	and	rdi, rbx
	or	rdi, rbp
	and	rcx, rdx
	and	rbx, rsi
	or	rbx, rcx
	xor	rbx, rdi
	shl	rax, 2
	mov	rcx, rbx
	not	rcx
	movabs	rdx, 8952352671528215672
	and	rcx, rdx
	mov	rsi, rdx
	not	rsi
	and	rbx, rsi
	or	rbx, rcx
	and	rsi, rax
	not	rax
	and	rax, rdx
	or	rsi, rax
	xor	rsi, rbx
	mov	rax, rsi
	shr	rax
	mov	rcx, rax
	not	rcx
	movabs	rdx, -5076040073972345710
	and	rcx, rdx
	mov	rbp, rdx
	not	rbp
	and	rax, rbp
	or	rax, rcx
	mov	rdi, rsi
	not	rdi
	mov	rcx, rdi
	and	rcx, rdx
	and	rbp, rsi
	or	rbp, rcx
	xor	rbp, rax
	mov	rax, rbp
	movabs	rcx, 23925738098196565
	xor	rax, rcx
	not	rax
	and	rax, rbp
	mov	rcx, rax
	not	rcx
	and	rcx, rsi
	and	rdi, rax
	or	rdi, rcx
	mov	rcx, rdi
	not	rcx
	movabs	rdx, -6673951099303164565
	and	rcx, rdx
	mov	rsi, rdx
	not	rsi
	and	rdi, rsi
	or	rdi, rcx
	add	rax, rax
	and	rsi, rax
	not	rax
	and	rax, rdx
	or	rsi, rax
	xor	rsi, rdi
	mov	rax, rsi
	shr	rax, 32
	mov	dword ptr [r9 + 4*r8], eax
	neg	r10
	mov	dword ptr [r9 + r10], esi
	mov	rax, qword ptr [rsp + 16]
	movabs	rcx, -8204268159447982697
	mov	rdx, rcx
	lea	rcx, [rax + rdx + 2]
	sub	rcx, rdx
	jmp	.LBB13_134
.LBB13_87:                              
	cmp	qword ptr [rsp + 56], 0
	setne	byte ptr [rsp + 36]
	mov	eax, dword ptr [rip + x.34]
	lea	ecx, [rax - 1]
	imul	ecx, eax
	not	ecx
	or	ecx, -2
	cmp	ecx, r12d
	sete	cl
	mov	eax, 78447386
	mov	esi, -722665586
	cmove	eax, esi
	cmp	dword ptr [rip + y.35], 10
	setl	dl
	mov	edi, 78447386
.LBB13_88:                              
	cmovge	eax, edi
	xor	dl, cl
	cmovne	eax, esi
	jmp	.LBB13_1
.LBB13_141:                             
	mov	qword ptr [rsp + 88], r13
	mov	rax, qword ptr [rsp + 88]
	cmp	rax, 8
	mov	eax, -1762511513
	mov	ecx, -1245602610
	cmove	eax, ecx
	jmp	.LBB13_1
.LBB13_132:                             
	mov	eax, -1400838068
	xor	ecx, ecx
	mov	qword ptr [rsp + 160], rcx 
	jmp	.LBB13_1
.LBB13_146:                             
	mov	qword ptr [rsp + 72], 2
	mov	eax, 326319140
	jmp	.LBB13_1
.LBB13_78:                              
	mov	rax, qword ptr [rsp + 256]
	cmp	rax, 44
	mov	eax, -707373486
.LBB13_79:                              
	mov	ecx, 1369937041
	cmove	eax, ecx
	jmp	.LBB13_1
.LBB13_148:                             
	mov	rdi, qword ptr [rsp + 24]
	call	_ZN5Botan12_GLOBAL__N_113bit_transposeEPj
	mov	eax, -2071534172
	jmp	.LBB13_1
.LBB13_85:                              
	mov	eax, dword ptr [rip + x.34]
	mov	ecx, dword ptr [rip + y.35]
	lea	edx, [rax - 1]
	imul	edx, eax
	not	edx
	or	edx, -2
	cmp	edx, r12d
	sete	al
	cmp	ecx, 10
	setl	bl
	xor	bl, al
	mov	esi, -1368772205
	mov	edi, 473940983
	cmovne	esi, edi
	cmp	edx, r12d
	mov	eax, esi
	cmove	eax, edi
	cmp	ecx, 10
	lea	rcx, [rsp + 72]
	mov	qword ptr [rsp + 176], rcx
	mov	rcx, qword ptr [rsp + 176]
	mov	qword ptr [rsp + 72], 2
	cmovge	eax, esi
	jmp	.LBB13_1
.LBB13_149:                             
	mov	rdi, qword ptr [rsp + 24]
	call	_ZN5Botan12_GLOBAL__N_18AES_SBOXEPj
	mov	r10, qword ptr [rsp + 24]
	xor	ecx, ecx
.LBB13_150:                             


	mov	edx, -2142336793
	jmp	.LBB13_151
.LBB13_153:                             
	cmp	edx, -2142336793
	jne	.LBB13_151

	mov	qword ptr [rsp + 16], rcx
	mov	rdx, qword ptr [rsp + 16]
	cmp	rdx, 8
	mov	edx, 2130081502
	mov	esi, -881984519
	cmove	edx, esi
.LBB13_151:                             


	cmp	edx, 2130081502
	je	.LBB13_155

	cmp	edx, -881984519
	jne	.LBB13_153
	jmp	.LBB13_156
.LBB13_155:                             
	mov	r8, qword ptr [rsp + 16]
	mov	edi, dword ptr [r10 + 4*r8]
	shl	rdi, 32
	mov	rdx, qword ptr [rsp + 16]
	movabs	rcx, 5293755313561574173
	sub	rdx, rcx
	lea	r9, [rdx + rcx + 1]
	mov	ebp, dword ptr [r10 + 4*r9]
	mov	rbx, rdi
	not	rbx
	movabs	rcx, 8284093186451476998
	mov	rdx, rcx
	not	rcx
	and	rdi, rcx
	and	rcx, rbp
	not	rbp
	and	rbx, rdx
	or	rdi, rbx
	and	rbp, rdx
	or	rcx, rbp
	xor	rcx, rdi
	mov	rsi, rcx
	shr	rsi, 2
	mov	rbp, rsi
	not	rbp
	and	rbp, rcx
	mov	rdi, rcx
	not	rdi
	and	rsi, rdi
	or	rsi, rbp
	not	rsi
	movabs	rbp, 9626297317864209
	not	rbp
	or	rbp, rsi
	and	rcx, rbp
	not	rbp
	and	rdi, rbp
	or	rdi, rcx
	shl	rbp, 2
	mov	rcx, rdi
	not	rcx
	movabs	rdx, -3046545480746433520
	and	rcx, rdx
	mov	rsi, rdx
	not	rsi
	and	rdi, rsi
	or	rdi, rcx
	and	rsi, rbp
	not	rbp
	and	rbp, rdx
	or	rsi, rbp
	xor	rsi, rdi
	mov	rcx, rsi
	shr	rcx
	mov	rdi, rcx
	not	rdi
	and	rdi, rsi
	mov	rbp, rsi
	not	rbp
	and	rcx, rbp
	or	rcx, rdi
	mov	rdi, rcx
	movabs	rdx, 23925738098196565
	xor	rdi, rdx
	not	rdi
	and	rdi, rcx
	mov	rcx, rdi
	not	rcx
	movabs	rdx, 6633061167072496776
	mov	rax, rdx
	and	rcx, rax
	mov	rbx, rax
	not	rbx
	mov	rdx, rdi
	and	rdx, rbx
	or	rdx, rcx
	and	rbx, rsi
	and	rbp, rax
	or	rbx, rbp
	xor	rbx, rdx
	mov	rcx, rbx
	not	rcx
	movabs	rax, 2879300155868017554
	and	rcx, rax
	mov	rdx, rax
	not	rdx
	and	rbx, rdx
	or	rbx, rcx
	add	rdi, rdi
	and	rdx, rdi
	not	rdi
	and	rdi, rax
	or	rdx, rdi
	xor	rdx, rbx
	mov	rcx, rdx
	shr	rcx, 32
	mov	dword ptr [r10 + 4*r8], ecx
	mov	dword ptr [r10 + 4*r9], edx
	mov	rcx, qword ptr [rsp + 16]
	movabs	rax, 5878898516138935593
	sub	rcx, rax
	lea	rcx, [rcx + rax + 2]
	jmp	.LBB13_150
.LBB13_131:                             
	mov	rdi, qword ptr [rsp + 24]
	call	_ZN5Botan12_GLOBAL__N_113bit_transposeEPj
	mov	eax, dword ptr [rip + x.34]
	mov	ecx, dword ptr [rip + y.35]
	lea	edx, [rax - 1]
	imul	edx, eax
	not	edx
	or	edx, -2
	cmp	edx, r12d
	sete	al
	cmp	ecx, 10
	setl	bl
	xor	bl, al
	mov	esi, 892964416
	mov	edi, -1389644044
	jmp	.LBB13_84
.LBB13_83:                              
	mov	eax, dword ptr [rip + x.34]
	mov	ecx, dword ptr [rip + y.35]
	lea	edx, [rax - 1]
	imul	edx, eax
	not	edx
	or	edx, -2
	cmp	edx, r12d
	sete	al
	cmp	ecx, 10
	setl	bl
	xor	bl, al
	mov	esi, -1368772205
	mov	edi, 326319140
.LBB13_84:                              
	cmovne	esi, edi
	cmp	edx, r12d
	mov	eax, esi
	cmove	eax, edi
	cmp	ecx, 10
	cmovge	eax, esi
	jmp	.LBB13_1
.LBB13_81:                              
	mov	rdi, r14
	call	_ZNKSt6vectorIjN5Botan16secure_allocatorIjEEE4sizeEv
	add	rax, -4
	shr	rax, 2
	mov	qword ptr [rsp + 48], rax
	lea	rax, [rsp + 272]
	mov	qword ptr [rsp + 96], rax
	mov	rax, qword ptr [rsp + 96]
	mov	rdi, qword ptr [rsp + 96]
	xor	esi, esi
	mov	edx, 416
	call	memset
	mov	eax, 1032338434
	xor	ecx, ecx
	mov	qword ptr [rsp + 128], rcx 
	jmp	.LBB13_1
.LBB13_126:                             
	mov	eax, 129587940
	xor	ecx, ecx
	mov	qword ptr [rsp + 152], rcx 
	jmp	.LBB13_1
.LBB13_143:                             
	mov	rax, qword ptr [rsp + 48]
	shl	rax, 2
	mov	rcx, qword ptr [rsp + 40]
	not	rcx
	mov	edx, ecx
	not	edx
	movabs	rsi, 4365175243353786584
	or	rcx, rsi
	movabs	rsi, 4365175243353786585
	mov	rdi, rsi
	not	rsi
	and	rsi, rax
	not	rax
	and	rcx, rdi
	and	edx, 2
	or	rdx, rcx
	and	rax, rdi
	or	rsi, rax
	xor	rsi, rdx
	mov	rax, qword ptr [r14]
	mov	eax, dword ptr [rax + 4*rsi]
	mov	rcx, qword ptr [rsp + 40]
	mov	edx, dword ptr [rsp + 4*rcx + 208]
	mov	esi, edx
	not	esi
	and	esi, eax
	not	eax
	and	eax, edx
	or	eax, esi
	mov	dword ptr [rsp + 4*rcx + 208], eax
	mov	eax, dword ptr [rip + x.34]
	mov	ecx, dword ptr [rip + y.35]
	lea	edx, [rax - 1]
	imul	edx, eax
	mov	eax, edx
	xor	eax, -2
	and	eax, edx
	sete	dl
	cmp	ecx, 10
	setl	bl
	xor	bl, dl
	mov	edx, 1651681856
	mov	esi, 1714136854
	cmovne	edx, esi
	test	eax, eax
	mov	eax, edx
	cmove	eax, esi
	cmp	ecx, 10
	mov	rcx, qword ptr [rsp + 40]
	movabs	rsi, 4152868979259161935
	lea	rcx, [rcx + rsi + 1]
	cmovge	eax, edx
	sub	rcx, rsi
	mov	qword ptr [rsp + 264], rcx
	jmp	.LBB13_1
.LBB13_147:                             
	mov	rax, qword ptr [rsp + 64]
	mov	eax, 657886111
	jmp	.LBB13_1
.LBB13_140:                             
	mov	rdi, qword ptr [rsp + 24]
	call	_ZN5Botan12_GLOBAL__N_111mix_columnsEPj
	mov	eax, 1866821304
	xor	r13d, r13d
	jmp	.LBB13_1
.LBB13_156:                             
	mov	rdi, qword ptr [rsp + 24]
	call	_ZN5Botan12_GLOBAL__N_113bit_transposeEPj
	mov	eax, 914609320
	jmp	.LBB13_1
.LBB13_50:                              
	cmp	eax, 343772508
	jne	.LBB13_1

	mov	edi, .L.str.3
	mov	esi, .L.str.4
	mov	edx, .L__func__._ZN5Botan12_GLOBAL__N_113aes_encrypt_nEPKhPhmRKSt6vectorIjNS_16secure_allocatorIjEEE
	mov	ecx, .L.str.5
	mov	r8d, 520
	call	_ZN5Botan17assertion_failureEPKcS1_S1_S1_i
.LBB13_145:
	mov	rax, qword ptr [rsp + 176]
	mov	rax, qword ptr [rsp + 96]
	add	rsp, 696
	pop	rbx
	pop	r12
	pop	r13
	pop	r14
	pop	r15
	pop	rbp
	ret
.Lfunc_end13:
	.size	_ZN5Botan12_GLOBAL__N_113aes_encrypt_nEPKhPhmRKSt6vectorIjNS_16secure_allocatorIjEEE, .Lfunc_end13-_ZN5Botan12_GLOBAL__N_113aes_encrypt_nEPKhPhmRKSt6vectorIjNS_16secure_allocatorIjEEE
	.cfi_endproc

	.globl	_ZNK5Botan7AES_1289decrypt_nEPKhPhm 
	.p2align	1, 0x90
	.type	_ZNK5Botan7AES_1289decrypt_nEPKhPhm,@function
_ZNK5Botan7AES_1289decrypt_nEPKhPhm:    
	.cfi_startproc

	push	rbp
.Lcfi88:
	.cfi_def_cfa_offset 16
	push	r15
.Lcfi89:
	.cfi_def_cfa_offset 24
	push	r14
.Lcfi90:
	.cfi_def_cfa_offset 32
	push	r13
.Lcfi91:
	.cfi_def_cfa_offset 40
	push	r12
.Lcfi92:
	.cfi_def_cfa_offset 48
	push	rbx
.Lcfi93:
	.cfi_def_cfa_offset 56
	push	rax
.Lcfi94:
	.cfi_def_cfa_offset 64
.Lcfi95:
	.cfi_offset rbx, -56
.Lcfi96:
	.cfi_offset r12, -48
.Lcfi97:
	.cfi_offset r13, -40
.Lcfi98:
	.cfi_offset r14, -32
.Lcfi99:
	.cfi_offset r15, -24
.Lcfi100:
	.cfi_offset rbp, -16
	mov	r14, rcx
	mov	r15, rdx
	mov	r12, rsi
	mov	rbx, rdi
	lea	rax, [rbx + 32]
	mov	qword ptr [rsp], rax
	mov	rdi, qword ptr [rsp]
	call	_ZNKSt6vectorIjN5Botan16secure_allocatorIjEEE5emptyEv
	xor	al, 1
	movzx	esi, al
	mov	rdi, rbx
	call	_ZNK5Botan18SymmetricAlgorithm14verify_key_setEb
	mov	eax, -1505672499
	mov	r13d, -2113368510
	mov	ebp, -762480532
	jmp	.LBB14_1
.LBB14_11:                              
	mov	rdi, rbx
	mov	rsi, r12
	mov	rdx, r15
	mov	rcx, r14
	call	_ZNK5Botan7AES_12816hw_aes_decrypt_nEPKhPhm
	mov	eax, 1939925139
	jmp	.LBB14_1
.LBB14_10:                              
	call	_ZN5Botan5CPUID10has_hw_aesEv
	test	al, al
	mov	eax, -463845638
	cmovne	eax, r13d
	jmp	.LBB14_1
.LBB14_12:                              
	mov	edi, 2
	call	_ZN5Botan5CPUID13has_cpuid_bitENS0_10CPUID_bitsE
	test	al, al
	mov	eax, -378027642
	cmovne	eax, ebp
	jmp	.LBB14_1
.LBB14_13:                              
	mov	rcx, qword ptr [rsp]
	mov	rdi, r12
	mov	rsi, r15
	mov	rdx, r14
	call	_ZN5Botan12_GLOBAL__N_113aes_decrypt_nEPKhPhmRKSt6vectorIjNS_16secure_allocatorIjEEE
	mov	eax, 1939925139
.LBB14_1:                               
	cmp	eax, -463845639
	jg	.LBB14_6

	cmp	eax, -2113368510
	je	.LBB14_11

	cmp	eax, -1505672499
	je	.LBB14_10

	cmp	eax, -762480532
	jne	.LBB14_1

	mov	rdi, rbx
	mov	rsi, r12
	mov	rdx, r15
	mov	rcx, r14
	call	_ZNK5Botan7AES_12815vperm_decrypt_nEPKhPhm
	mov	eax, 1939925139
	jmp	.LBB14_1
.LBB14_6:                               
	cmp	eax, -463845638
	je	.LBB14_12

	cmp	eax, -378027642
	je	.LBB14_13

	cmp	eax, 1939925139
	jne	.LBB14_1

	add	rsp, 8
	pop	rbx
	pop	r12
	pop	r13
	pop	r14
	pop	r15
	pop	rbp
	ret
.Lfunc_end14:
	.size	_ZNK5Botan7AES_1289decrypt_nEPKhPhm, .Lfunc_end14-_ZNK5Botan7AES_1289decrypt_nEPKhPhm
	.cfi_endproc

	.type	_ZN5Botan12_GLOBAL__N_113aes_decrypt_nEPKhPhmRKSt6vectorIjNS_16secure_allocatorIjEEE,@function 
_ZN5Botan12_GLOBAL__N_113aes_decrypt_nEPKhPhmRKSt6vectorIjNS_16secure_allocatorIjEEE: 
	.cfi_startproc

	push	rbp
.Lcfi101:
	.cfi_def_cfa_offset 16
	push	r15
.Lcfi102:
	.cfi_def_cfa_offset 24
	push	r14
.Lcfi103:
	.cfi_def_cfa_offset 32
	push	r13
.Lcfi104:
	.cfi_def_cfa_offset 40
	push	r12
.Lcfi105:
	.cfi_def_cfa_offset 48
	push	rbx
.Lcfi106:
	.cfi_def_cfa_offset 56
	sub	rsp, 696
.Lcfi107:
	.cfi_def_cfa_offset 752
.Lcfi108:
	.cfi_offset rbx, -56
.Lcfi109:
	.cfi_offset r12, -48
.Lcfi110:
	.cfi_offset r13, -40
.Lcfi111:
	.cfi_offset r14, -32
.Lcfi112:
	.cfi_offset r15, -24
.Lcfi113:
	.cfi_offset rbp, -16
	mov	r15, rcx
	mov	qword ptr [rsp + 240], rsi 
	mov	qword ptr [rsp + 232], rdi 
	lea	rax, [rsp + 40]
	mov	qword ptr [rax], rdx
	mov	rdi, r15
	call	_ZNKSt6vectorIjN5Botan16secure_allocatorIjEEE4sizeEv
	mov	qword ptr [rsp + 248], rax
	mov	ecx, 1576571110
	mov	r12d, -1












.LBB15_1:                               






	cmp	ecx, -335527192
	jg	.LBB15_41

	cmp	ecx, -1253663238
	jg	.LBB15_19

	cmp	ecx, -1870622975
	jle	.LBB15_4

	cmp	ecx, -1691163566
	jle	.LBB15_12

	cmp	ecx, -1691163565
	je	.LBB15_138

	cmp	ecx, -1657340098
	je	.LBB15_85

	cmp	ecx, -1344812359
	jne	.LBB15_1

	mov	ecx, 512083264
	mov	rax, qword ptr [rsp + 264]
	mov	qword ptr [rsp + 136], rax 
	jmp	.LBB15_1
.LBB15_41:                              
	cmp	ecx, 945034304
	jle	.LBB15_42

	cmp	ecx, 1834650360
	jle	.LBB15_59

	cmp	ecx, 1926068411
	jle	.LBB15_68

	cmp	ecx, 1926068412
	je	.LBB15_116

	cmp	ecx, 2041798192
	je	.LBB15_78

	cmp	ecx, 2133449371
	jne	.LBB15_1

	mov	rdi, r15
	call	_ZNKSt6vectorIjN5Botan16secure_allocatorIjEEE4sizeEv
	mov	ecx, dword ptr [rip + x.38]
	mov	edx, dword ptr [rip + y.39]
	lea	esi, [rcx - 1]
	imul	esi, ecx
	not	esi
	or	esi, -2
	cmp	esi, r12d
	sete	cl
	cmp	edx, 10
	setl	bl
	xor	bl, cl
	mov	edi, -2028375222
	mov	ebp, 2041798192
	cmovne	edi, ebp
	cmp	esi, r12d
	mov	ecx, edi
	cmove	ecx, ebp
	cmp	edx, 10
	cmovge	ecx, edi
	cmp	rax, 60
	sete	byte ptr [rsp + 5]
	jmp	.LBB15_1
.LBB15_19:                              
	cmp	ecx, -888847326
	jle	.LBB15_20

	cmp	ecx, -431989353
	jle	.LBB15_34

	cmp	ecx, -431989352
	je	.LBB15_84

	cmp	ecx, -339431467
	je	.LBB15_79

	cmp	ecx, -337726523
	jne	.LBB15_1

	mov	rax, qword ptr [rsp + 16]
	mov	rax, qword ptr [rsp + 16]
	mov	rax, qword ptr [rsp + 16]
	mov	rax, qword ptr [rsp + 16]
	mov	rcx, rax
	movabs	rdx, 4611686018427387900
	xor	rcx, rdx
	and	rcx, rax
	mov	rax, qword ptr [r15]
	mov	eax, dword ptr [rax + 4*rcx]
	mov	rcx, qword ptr [rsp + 16]
	mov	edx, dword ptr [rsp + 4*rcx + 192]
	mov	esi, edx
	not	esi
	and	esi, eax
	not	eax
	and	eax, edx
	or	eax, esi
	mov	dword ptr [rsp + 4*rcx + 192], eax
	mov	rax, qword ptr [rsp + 16]
	mov	rax, qword ptr [rsp + 16]
	mov	rax, qword ptr [rsp + 16]
	mov	ecx, -1904306796
	jmp	.LBB15_1
.LBB15_42:                              
	cmp	ecx, 481777674
	jg	.LBB15_51

	cmp	ecx, 51002209
	jle	.LBB15_44

	cmp	ecx, 92850641
	je	.LBB15_132

	cmp	ecx, 398116443
	jne	.LBB15_49

	mov	rax, qword ptr [rsp + 32]
	shl	rax, 3
	mov	rcx, qword ptr [rsp + 56]
	neg	rcx
	sub	rcx, rax
	shl	rcx, 2
	neg	rcx
	mov	eax, dword ptr [rsp + rcx + 272]
	mov	rcx, qword ptr [rsp + 56]
	mov	edx, dword ptr [rsp + 4*rcx + 192]
	mov	esi, edx
	not	esi
	and	esi, 63038821
	and	edx, -63038822
	or	edx, esi
	mov	esi, eax
	not	esi
	and	esi, 63038821
	and	eax, -63038822
	or	eax, esi
	xor	eax, edx
	mov	dword ptr [rsp + 4*rcx + 192], eax
	mov	rax, qword ptr [rsp + 56]
	movabs	rcx, 6871086507396696458
	sub	rax, rcx
	lea	rax, [rax + rcx + 1]
	mov	qword ptr [rsp + 112], rax 
	mov	ecx, 92850641
	jmp	.LBB15_1
.LBB15_51:                              
	cmp	ecx, 512083263
	jle	.LBB15_52

	cmp	ecx, 512083264
	je	.LBB15_115

	cmp	ecx, 907758691
	jne	.LBB15_57

	mov	rdi, qword ptr [rsp + 24]
	call	_ZN5Botan12_GLOBAL__N_112AES_INV_SBOXEPj
	mov	r10, qword ptr [rsp + 24]
	xor	ecx, ecx
.LBB15_125:                             


	mov	edx, -1920659532
	jmp	.LBB15_126
.LBB15_128:                             
	cmp	edx, -1920659532
	jne	.LBB15_126

	mov	qword ptr [rsp + 8], rcx
	mov	rdx, qword ptr [rsp + 8]
	cmp	rdx, 8
	mov	edx, -1688875125
	mov	eax, 1824201038
	cmove	edx, eax
.LBB15_126:                             


	cmp	edx, 1824201038
	je	.LBB15_131

	cmp	edx, -1688875125
	jne	.LBB15_128

	mov	r8, qword ptr [rsp + 8]
	mov	edi, dword ptr [r10 + 4*r8]
	shl	rdi, 32
	mov	rdx, qword ptr [rsp + 8]
	movabs	rcx, 1734905328697528457
	sub	rdx, rcx
	lea	r9, [rdx + rcx + 1]
	mov	ecx, dword ptr [r10 + 4*r9]
	or	rcx, rdi
	mov	rsi, rcx
	shr	rsi
	mov	rdi, rsi
	not	rdi
	and	rdi, rcx
	mov	rbx, rcx
	not	rbx
	and	rsi, rbx
	or	rsi, rdi
	mov	rdi, rsi
	movabs	rdx, 23925738098196565
	xor	rdi, rdx
	not	rdi
	and	rdi, rsi
	mov	rsi, rdi
	not	rsi
	movabs	rdx, 6055929540013505181
	mov	rax, rdx
	and	rsi, rax
	mov	rbp, rax
	not	rbp
	mov	rdx, rdi
	and	rdx, rbp
	or	rdx, rsi
	and	rbx, rax
	and	rbp, rcx
	or	rbp, rbx
	xor	rbp, rdx
	add	rdi, rdi
	mov	rcx, rbp
	not	rcx
	movabs	rax, 6055211026623167969
	and	rcx, rax
	mov	rsi, rax
	not	rsi
	and	rbp, rsi
	or	rbp, rcx
	and	rsi, rdi
	not	rdi
	and	rdi, rax
	or	rsi, rdi
	xor	rsi, rbp
	mov	rcx, rsi
	shr	rcx, 2
	mov	rdx, rcx
	not	rdx
	and	rdx, rsi
	mov	rbx, rsi
	not	rbx
	and	rcx, rbx
	or	rcx, rdx
	mov	rdi, rcx
	movabs	rdx, 9626297317864209
	xor	rdi, rdx
	not	rdi
	and	rdi, rcx
	mov	rcx, rdi
	not	rcx
	movabs	rax, -4003474317642794418
	and	rcx, rax
	mov	rbp, rax
	not	rbp
	mov	rdx, rdi
	and	rdx, rbp
	or	rdx, rcx
	and	rbp, rsi
	and	rbx, rax
	or	rbp, rbx
	xor	rbp, rdx
	mov	rcx, rbp
	not	rcx
	movabs	rax, -4649078456349017502
	and	rcx, rax
	mov	rdx, rax
	not	rdx
	and	rbp, rdx
	or	rbp, rcx
	shl	rdi, 2
	and	rdx, rdi
	not	rdi
	and	rdi, rax
	or	rdx, rdi
	xor	rdx, rbp
	mov	rcx, rdx
	shr	rcx, 32
	mov	dword ptr [r10 + 4*r8], ecx
	mov	dword ptr [r10 + 4*r9], edx
	mov	rcx, qword ptr [rsp + 8]
	movabs	rax, -2057172029500336067
	sub	rcx, rax
	lea	rcx, [rcx + rax + 2]
	jmp	.LBB15_125
.LBB15_4:                               
	cmp	ecx, -1918892356
	jg	.LBB15_8

	cmp	ecx, -2028375222
	je	.LBB15_139

	cmp	ecx, -2014313184
	jne	.LBB15_1

	mov	rax, qword ptr [rsp + 104] 
	mov	qword ptr [rsp + 16], rax
	mov	rax, qword ptr [rsp + 16]
	cmp	rax, 8
	mov	ecx, -1837545823
	mov	eax, 1461980768
	cmove	ecx, eax
	jmp	.LBB15_1
.LBB15_59:                              
	cmp	ecx, 1461980767
	jg	.LBB15_63

	cmp	ecx, 945034305
	je	.LBB15_75

	cmp	ecx, 958944091
	jne	.LBB15_1

	mov	rax, qword ptr [rsp + 48]
	shl	rax, 5
	lea	rdi, [rsp + rax + 272]
	mov	rsi, qword ptr [r15]
	mov	rax, qword ptr [rsp + 48]
	movabs	rcx, 2932727883813334723
	lea	rdx, [rcx + 4*rax + 4]
	sub	rdx, rcx
	call	_ZN5Botan12_GLOBAL__N_19ks_expandEPjPKjm
	mov	rax, qword ptr [rsp + 48]
	movabs	rcx, 1217178109370563101
	sub	rax, rcx
	lea	rax, [rax + rcx + 1]
	mov	qword ptr [rsp + 128], rax 
	mov	ecx, -1137334646
	jmp	.LBB15_1
.LBB15_20:                              
	cmp	ecx, -1117070062
	jg	.LBB15_24

	cmp	ecx, -1253663237
	je	.LBB15_134

	cmp	ecx, -1137334646
	jne	.LBB15_1

	mov	rax, qword ptr [rsp + 128] 
	mov	qword ptr [rsp + 48], rax
	mov	rax, qword ptr [rsp + 144]
	movabs	rcx, 3108732855010028537
	lea	rax, [rax + rcx - 1]
	sub	rax, rcx
	mov	qword ptr [rsp + 152], rax
	mov	rax, qword ptr [rsp + 152]
	mov	rcx, qword ptr [rsp + 48]
	cmp	rcx, rax
	mov	ecx, -158313411
	mov	eax, 958944091
	cmovb	ecx, eax
	jmp	.LBB15_1
.LBB15_12:                              
	cmp	ecx, -1870622974
	je	.LBB15_140

	cmp	ecx, -1837545823
	jne	.LBB15_1

	mov	eax, dword ptr [rip + x.38]
	lea	ecx, [rax - 1]
	imul	ecx, eax
	mov	eax, ecx
	xor	eax, -2
	and	eax, ecx
	sete	dl
	test	eax, eax
	mov	ecx, -337726523
	mov	edi, -1904306796
	cmove	ecx, edi
	cmp	dword ptr [rip + y.39], 10
	setl	al
	mov	esi, -337726523
	jmp	.LBB15_82
.LBB15_68:                              
	cmp	ecx, 1834650361
	je	.LBB15_137

	cmp	ecx, 1844531574
	jne	.LBB15_1

	mov	rax, qword ptr [rsp + 32]
	mov	rax, qword ptr [rsp + 32]
	mov	rax, qword ptr [rsp + 32]
	mov	rax, qword ptr [rsp + 32]
	mov	rax, qword ptr [rsp + 32]
	mov	rax, qword ptr [rsp + 32]
	mov	rax, qword ptr [rsp + 32]
	mov	ecx, -1253663237
	jmp	.LBB15_1
.LBB15_34:                              
	cmp	ecx, -888847325
	je	.LBB15_136

	cmp	ecx, -516849002
	jne	.LBB15_1

	mov	ecx, -2014313184
	mov	rax, qword ptr [rsp + 256]
	mov	qword ptr [rsp + 104], rax 
	jmp	.LBB15_1
.LBB15_44:                              
	cmp	ecx, -335527191
	je	.LBB15_76

	cmp	ecx, -158313411
	jne	.LBB15_1

	lea	rax, [rsp + 72]
	mov	qword ptr [rsp + 160], rax
	mov	rax, qword ptr [rsp + 160]
	mov	qword ptr [rsp + 72], 2
	mov	ecx, -1657340098
	mov	r14, qword ptr [rsp + 232] 
	mov	r13, qword ptr [rsp + 240] 
	jmp	.LBB15_1
.LBB15_52:                              
	cmp	ecx, 481777675
	je	.LBB15_81

	cmp	ecx, 492705037
	jne	.LBB15_1

	mov	rax, qword ptr [rsp + 144]
	mov	rcx, qword ptr [rsp + 64]
	and	ecx, 3
	lea	rax, [rcx + 4*rax]
	mov	rcx, qword ptr [r15]
	mov	eax, dword ptr [rcx + 4*rax]
	mov	rcx, qword ptr [rsp + 64]
	mov	edx, dword ptr [rsp + 4*rcx + 192]
	mov	esi, edx
	not	esi
	and	esi, eax
	not	eax
	and	eax, edx
	or	eax, esi
	mov	dword ptr [rsp + 4*rcx + 192], eax
	mov	rax, qword ptr [rsp + 64]
	movabs	rcx, 722000978902095983
	sub	rax, rcx
	lea	rax, [rax + rcx + 1]
	mov	qword ptr [rsp + 120], rax 
	mov	ecx, -888847325
	jmp	.LBB15_1
.LBB15_8:                               
	cmp	ecx, -1918892355
	je	.LBB15_83

	cmp	ecx, -1904306796
	jne	.LBB15_1

	mov	rax, qword ptr [rsp + 16]
	mov	rcx, rax
	movabs	rdx, 4611686018427387900
	xor	rcx, rdx
	and	rcx, rax
	mov	rax, qword ptr [r15]
	mov	eax, dword ptr [rax + 4*rcx]
	mov	rcx, qword ptr [rsp + 16]
	mov	edx, dword ptr [rsp + 4*rcx + 192]
	mov	esi, edx
	not	esi
	and	esi, eax
	not	eax
	and	eax, edx
	or	eax, esi
	mov	dword ptr [rsp + 4*rcx + 192], eax
	mov	eax, dword ptr [rip + x.38]
	mov	edx, dword ptr [rip + y.39]
	lea	ecx, [rax - 1]
	imul	ecx, eax
	not	ecx
	or	ecx, -2
	cmp	ecx, r12d
	sete	al
	cmp	edx, 10
	setl	bl
	xor	bl, al
	mov	eax, -337726523
	mov	esi, -516849002
	cmovne	eax, esi
	cmp	ecx, r12d
	mov	ecx, eax
	cmove	ecx, esi
	cmp	edx, 10
	cmovge	ecx, eax
	mov	rax, qword ptr [rsp + 16]
	xor	edx, edx
	sub	rdx, rax
	mov	eax, 1
	sub	rax, rdx
	mov	qword ptr [rsp + 256], rax
	jmp	.LBB15_1
.LBB15_63:                              
	cmp	ecx, 1461980768
	je	.LBB15_114

	cmp	ecx, 1576571110
	jne	.LBB15_1

	mov	rax, qword ptr [rsp + 248]
	cmp	rax, 44
	mov	ecx, 945034305
	jmp	.LBB15_66
.LBB15_24:                              
	cmp	ecx, -1117070061
	je	.LBB15_133

	cmp	ecx, -988907361
	jne	.LBB15_1

	mov	eax, dword ptr [rip + x.122]
	mov	ecx, dword ptr [rip + y.123]
	lea	edx, [rax - 1]
	imul	edx, eax
	not	edx
	or	edx, -2
	cmp	edx, r12d
	sete	al
	sete	byte ptr [rsp + 6]
	cmp	ecx, 10
	setl	cl
	setl	byte ptr [rsp + 7]
	mov	r8, qword ptr [rsp + 72]
	mov	r9, qword ptr [rsp + 40]
	mov	edx, ecx
	and	dl, al
	xor	cl, al
	or	cl, dl
	mov	r10d, 1791850201
	mov	eax, -1889708488
	cmovne	r10d, eax
	mov	r11d, -1111337584
	mov	eax, -1930828734
	cmovne	r11d, eax
	mov	edi, -1111337584
	mov	eax, 1840184730
	cmovne	edi, eax
	mov	eax, 74711749

	jmp	.LBB15_27
.LBB15_29:                              
	cmp	ebx, -1930828734
	mov	eax, edi
	je	.LBB15_27

	cmp	ebx, -1889708488
	mov	eax, ebx
	jne	.LBB15_27

	mov	al, byte ptr [rsp + 4]
	test	al, al
	mov	eax, -1000457557
	jne	.LBB15_27

	mov	eax, -1477322254
	jmp	.LBB15_27
.LBB15_91:                              
	cmp	ebx, -511301605
	je	.LBB15_105

	cmp	ebx, 74711749
	mov	eax, ebx
	jne	.LBB15_27

	mov	cl, byte ptr [rsp + 6]
	mov	al, byte ptr [rsp + 7]
	mov	ebx, ecx
	xor	bl, al
	test	al, al
	mov	edx, 1076867878
	mov	eax, 1791850201
	mov	esi, 1076867878
	jne	.LBB15_95

	mov	esi, 1791850201
.LBB15_95:                              
	test	cl, cl
	cmovne	eax, esi
	test	bl, bl
	cmovne	eax, edx
	jmp	.LBB15_27
.LBB15_104:                             
	mov	eax, -511301605
	lea	rbp, [rsp + 40]
	jmp	.LBB15_27
.LBB15_107:                             
	mov	eax, -1930828734
	jmp	.LBB15_27
.LBB15_103:                             
	cmp	r8, r9
	setb	byte ptr [rsp + 4]
	mov	eax, r10d
	jmp	.LBB15_27
.LBB15_106:                             
	mov	eax, 1076867878
	jmp	.LBB15_27
.LBB15_105:                             
	mov	qword ptr [rsp + 8], rbp
	mov	eax, r11d
.LBB15_27:                              

	mov	ebx, eax
	cmp	ebx, -511301606
	jg	.LBB15_90

	cmp	ebx, -1477322255
	jle	.LBB15_29

	cmp	ebx, -1477322254
	je	.LBB15_104

	cmp	ebx, -1111337584
	je	.LBB15_107

	cmp	ebx, -1000457557
	mov	eax, ebx
	jne	.LBB15_27

	mov	eax, -511301605
	lea	rbp, [rsp + 72]
	jmp	.LBB15_27
.LBB15_90:                              
	cmp	ebx, 1076867877
	jle	.LBB15_91

	cmp	ebx, 1076867878
	je	.LBB15_103

	cmp	ebx, 1791850201
	je	.LBB15_106

	cmp	ebx, 1840184730
	mov	eax, ebx
	jne	.LBB15_27

	mov	rax, qword ptr [rsp + 8]
	mov	rax, qword ptr [rax]
	mov	qword ptr [rsp + 88], rax
	lea	rax, [rsp + 192]
	mov	rcx, rax
	mov	qword ptr [rsp + 96], rcx
	mov	rax, qword ptr [rsp + 96]
	mov	rax, qword ptr [rsp + 96]
	xorps	xmm0, xmm0
	movaps	xmmword ptr [rax + 16], xmm0
	movaps	xmmword ptr [rax], xmm0
	mov	qword ptr [rsp + 24], rcx
	mov	rax, qword ptr [rsp + 24]
	mov	eax, dword ptr [rip + x.126]
	mov	ecx, dword ptr [rip + y.127]
	lea	edx, [rax - 1]
	imul	edx, eax
	mov	eax, edx
	xor	eax, -2
	and	eax, edx
	sete	dl
	sete	byte ptr [rsp + 4]
	cmp	ecx, 10
	setl	bl
	xor	bl, dl
	mov	edx, -1381892811
	mov	esi, -951711879
	cmovne	edx, esi
	test	eax, eax
	mov	eax, edx
	cmove	eax, esi
	cmp	ecx, 10
	setl	byte ptr [rsp + 8]
	cmovge	eax, edx
	mov	ecx, -1865400800
	jmp	.LBB15_100
.LBB15_85:                              
	mov	qword ptr [rsp + 176], r14
	mov	qword ptr [rsp + 184], r13
	cmp	qword ptr [rsp + 40], 0
	mov	ecx, -988907361
	mov	eax, -1691163565
	cmove	ecx, eax
	jmp	.LBB15_1
.LBB15_116:                             
	mov	rdi, qword ptr [rsp + 24]
	call	_ZN5Botan12_GLOBAL__N_112AES_INV_SBOXEPj
	mov	r10, qword ptr [rsp + 24]
	xor	ecx, ecx
.LBB15_117:                             


	mov	edx, -1920659532
	jmp	.LBB15_118
.LBB15_120:                             
	cmp	edx, -1920659532
	jne	.LBB15_118

	mov	qword ptr [rsp + 8], rcx
	mov	rdx, qword ptr [rsp + 8]
	cmp	rdx, 8
	mov	edx, -1688875125
	mov	esi, 1824201038
	cmove	edx, esi
.LBB15_118:                             


	cmp	edx, 1824201038
	je	.LBB15_123

	cmp	edx, -1688875125
	jne	.LBB15_120

	mov	r8, qword ptr [rsp + 8]
	mov	edi, dword ptr [r10 + 4*r8]
	shl	rdi, 32
	mov	r9, qword ptr [rsp + 8]
	mov	ebp, dword ptr [r10 + 4*r9 + 4]
	mov	rbx, rdi
	not	rbx
	movabs	rcx, -6109428174359521658
	mov	rdx, rcx
	not	rcx
	and	rdi, rcx
	and	rcx, rbp
	not	rbp
	and	rbx, rdx
	or	rdi, rbx
	and	rbp, rdx
	or	rcx, rbp
	xor	rcx, rdi
	mov	rsi, rcx
	shr	rsi
	mov	rdi, rsi
	not	rdi
	movabs	rdx, -6400136512467585912
	and	rdi, rdx
	mov	rbp, rdx
	not	rbp
	and	rsi, rbp
	or	rsi, rdi
	mov	rdi, rcx
	not	rdi
	mov	rbx, rdi
	and	rbx, rdx
	and	rbp, rcx
	or	rbp, rbx
	xor	rbp, rsi
	mov	rbx, rbp
	movabs	rdx, 23925738098196565
	xor	rbx, rdx
	not	rbx
	and	rbx, rbp
	mov	rsi, rbx
	not	rsi
	and	rsi, rcx
	and	rdi, rbx
	or	rdi, rsi
	add	rbx, rbx
	mov	rcx, rdi
	not	rcx
	movabs	rdx, -2525114172202511824
	and	rcx, rdx
	mov	rsi, rdx
	not	rsi
	and	rdi, rsi
	or	rdi, rcx
	and	rsi, rbx
	not	rbx
	and	rbx, rdx
	or	rsi, rbx
	xor	rsi, rdi
	mov	rcx, rsi
	shr	rcx, 2
	mov	rdi, rcx
	not	rdi
	movabs	rdx, 2176992198940562504
	and	rdi, rdx
	mov	rbp, rdx
	not	rbp
	and	rcx, rbp
	or	rcx, rdi
	mov	rbx, rsi
	not	rbx
	mov	rdi, rbx
	and	rdi, rdx
	and	rbp, rsi
	or	rbp, rdi
	xor	rbp, rcx
	mov	rdi, rbp
	movabs	rcx, 9626297317864209
	xor	rdi, rcx
	not	rdi
	and	rdi, rbp
	mov	rcx, rdi
	not	rcx
	movabs	rdx, -4826867618914847426
	mov	rax, rdx
	and	rcx, rax
	mov	rbp, rax
	not	rbp
	mov	rdx, rdi
	and	rdx, rbp
	or	rdx, rcx
	and	rbp, rsi
	and	rbx, rax
	or	rbp, rbx
	xor	rbp, rdx
	shl	rdi, 2
	mov	rcx, rbp
	not	rcx
	and	rcx, rdi
	not	rdi
	and	rdi, rbp
	or	rdi, rcx
	mov	rcx, rdi
	shr	rcx, 32
	mov	dword ptr [r10 + 4*r8], ecx
	mov	dword ptr [r10 + 4*r9 + 4], edi
	mov	rcx, qword ptr [rsp + 8]
	add	rcx, 2
	jmp	.LBB15_117
.LBB15_78:                              
	mov	al, byte ptr [rsp + 5]
	test	al, al
	mov	ecx, -339431467
	mov	eax, 481777675
	cmovne	ecx, eax
	jmp	.LBB15_1
.LBB15_84:                              
	mov	ecx, -1137334646
	xor	eax, eax
	mov	qword ptr [rsp + 128], rax 
	jmp	.LBB15_1
.LBB15_79:                              
	mov	eax, dword ptr [rip + x.38]
	mov	edx, dword ptr [rip + y.39]
	lea	ecx, [rax - 1]
	imul	ecx, eax
	not	ecx
	or	ecx, -2
	cmp	ecx, r12d
	sete	al
	cmp	edx, 10
	setl	bl
	xor	bl, al
	mov	eax, 771131252
	mov	esi, 51002210
	jmp	.LBB15_80
.LBB15_132:                             
	mov	rax, qword ptr [rsp + 112] 
	mov	qword ptr [rsp + 56], rax
	mov	rax, qword ptr [rsp + 56]
	cmp	rax, 8
	mov	ecx, 398116443
	mov	eax, -1117070061
	cmove	ecx, eax
	jmp	.LBB15_1
.LBB15_115:                             
	mov	rax, qword ptr [rsp + 136] 
	mov	qword ptr [rsp + 32], rax
	mov	rax, qword ptr [rsp + 152]
	mov	rcx, qword ptr [rsp + 32]
	cmp	rcx, rax
	mov	ecx, 907758691
	mov	eax, 1926068412
	cmove	ecx, eax
	jmp	.LBB15_1
.LBB15_131:                             
	mov	rdi, qword ptr [rsp + 24]
	call	_ZN5Botan12_GLOBAL__N_115inv_mix_columnsEPj
	mov	ecx, 92850641
	xor	eax, eax
	mov	qword ptr [rsp + 112], rax 
	jmp	.LBB15_1
.LBB15_139:                             
	mov	rdi, r15
	call	_ZNKSt6vectorIjN5Botan16secure_allocatorIjEEE4sizeEv
	mov	ecx, 2133449371
	jmp	.LBB15_1
.LBB15_75:                              
	mov	rdi, r15
	call	_ZNKSt6vectorIjN5Botan16secure_allocatorIjEEE4sizeEv
	cmp	rax, 52
	mov	ecx, -335527191
.LBB15_66:                              
	mov	eax, 481777675
	cmove	ecx, eax
	jmp	.LBB15_1
.LBB15_134:                             
	mov	rax, qword ptr [rsp + 32]
	inc	rax
	mov	qword ptr [rsp + 264], rax
	mov	eax, dword ptr [rip + x.38]
	mov	ecx, eax
	neg	ecx
	not	ecx
	imul	ecx, eax
	mov	eax, ecx
	xor	eax, -2
	and	eax, ecx
	sete	dl
	test	eax, eax
	mov	ecx, 1844531574
	mov	esi, -1344812359
	cmove	ecx, esi
	cmp	dword ptr [rip + y.39], 10
	setl	al
	mov	edi, 1844531574
	jmp	.LBB15_77
.LBB15_140:                             
	mov	rdi, r15
	call	_ZNKSt6vectorIjN5Botan16secure_allocatorIjEEE4sizeEv
	xor	esi, esi
	mov	edx, 416
	lea	rdi, [rsp + 272]
	call	memset
	mov	ecx, -1918892355
	jmp	.LBB15_1
.LBB15_137:                             
	mov	rax, qword ptr [rsp + 24]
	mov	rsi, qword ptr [rsp + 168]
	shl	rsi, 2
	mov	rdx, qword ptr [rsp + 24]
	mov	rdi, qword ptr [rsp + 184]
	call	_ZN5Botan11copy_out_beIjEEvPhmPKT_
	mov	rax, qword ptr [rsp + 88]
	shl	rax, 4
	mov	r14, qword ptr [rsp + 176]
	add	r14, rax
	mov	r13, qword ptr [rsp + 184]
	add	r13, rax
	mov	rax, qword ptr [rsp + 88]
	mov	rcx, qword ptr [rsp + 40]
	movabs	rdx, 4440058479791150376
	add	rcx, rdx
	sub	rcx, rax
	sub	rcx, rdx
	mov	qword ptr [rsp + 40], rcx
	mov	rax, qword ptr [rsp + 96]
	mov	ecx, -1657340098
	jmp	.LBB15_1
.LBB15_136:                             
	mov	rax, qword ptr [rsp + 120] 
	mov	qword ptr [rsp + 64], rax
	mov	rax, qword ptr [rsp + 64]
	cmp	rax, 8
	mov	ecx, 492705037
	mov	eax, 1834650361
	cmove	ecx, eax
	jmp	.LBB15_1
.LBB15_76:                              
	mov	eax, dword ptr [rip + x.38]
	lea	ecx, [rax - 1]
	imul	ecx, eax
	mov	eax, ecx
	xor	eax, -2
	and	eax, ecx
	sete	dl
	test	eax, eax
	mov	ecx, -2028375222
	mov	esi, 2133449371
	cmove	ecx, esi
	cmp	dword ptr [rip + y.39], 10
	setl	al
	mov	edi, -2028375222
.LBB15_77:                              
	cmovge	ecx, edi
	xor	al, dl
	cmovne	ecx, esi
	jmp	.LBB15_1
.LBB15_81:                              
	mov	eax, dword ptr [rip + x.38]
	lea	ecx, [rax - 1]
	imul	ecx, eax
	mov	eax, ecx
	xor	eax, -2
	and	eax, ecx
	sete	dl
	test	eax, eax
	mov	ecx, -1870622974
	mov	edi, -1918892355
	cmove	ecx, edi
	cmp	dword ptr [rip + y.39], 10
	setl	al
	mov	esi, -1870622974
.LBB15_82:                              
	cmovge	ecx, esi
	xor	al, dl
	cmovne	ecx, edi
	jmp	.LBB15_1
.LBB15_83:                              
	mov	rdi, r15
	call	_ZNKSt6vectorIjN5Botan16secure_allocatorIjEEE4sizeEv
	neg	rax
	mov	rcx, -4
	sub	rcx, rax
	shr	rcx, 2
	mov	qword ptr [rsp + 144], rcx
	lea	rax, [rsp + 272]
	mov	qword ptr [rsp + 80], rax
	mov	rax, qword ptr [rsp + 80]
	mov	rdi, qword ptr [rsp + 80]
	xor	esi, esi
	mov	edx, 416
	call	memset
	mov	eax, dword ptr [rip + x.38]
	mov	edx, dword ptr [rip + y.39]
	mov	ecx, eax
	neg	ecx
	not	ecx
	imul	ecx, eax
	not	ecx
	or	ecx, -2
	cmp	ecx, r12d
	sete	al
	cmp	edx, 10
	setl	bl
	xor	bl, al
	mov	eax, -1870622974
	mov	esi, -431989352
	jmp	.LBB15_80
.LBB15_114:                             
	mov	rdi, qword ptr [rsp + 24]
	call	_ZN5Botan12_GLOBAL__N_113bit_transposeEPj
	mov	ecx, 512083264
	xor	eax, eax
	mov	qword ptr [rsp + 136], rax 
	jmp	.LBB15_1
.LBB15_133:                             
	mov	eax, dword ptr [rip + x.38]
	mov	edx, dword ptr [rip + y.39]
	lea	ecx, [rax - 1]
	imul	ecx, eax
	not	ecx
	or	ecx, -2
	cmp	ecx, r12d
	sete	al
	cmp	edx, 10
	setl	bl
	xor	bl, al
	mov	eax, 1844531574
	mov	esi, -1253663237
.LBB15_80:                              
	cmovne	eax, esi
	cmp	ecx, r12d
	mov	ecx, eax
	cmove	ecx, esi
	cmp	edx, 10
	cmovge	ecx, eax
	jmp	.LBB15_1
.LBB15_102:                             
	mov	ecx, eax
	jmp	.LBB15_100
.LBB15_113:                             
	mov	ecx, -2042384682
.LBB15_100:                             

	mov	edx, ecx
	and	edx, 2147483647
	cmp	edx, 765590836
	jg	.LBB15_108

	cmp	edx, 105098966
	je	.LBB15_102

	cmp	edx, 282082848
	jne	.LBB15_100

	mov	bl, byte ptr [rsp + 4]
	mov	cl, byte ptr [rsp + 8]
	mov	edx, ebx
	xor	dl, cl
	mov	edx, -1381892811
	mov	esi, -2042384682
	cmovne	edx, esi
	test	cl, cl
	mov	ecx, edx
	cmovne	ecx, esi
	test	bl, bl
	cmove	ecx, edx
	jmp	.LBB15_100
.LBB15_108:                             
	cmp	edx, 765590837
	je	.LBB15_113

	cmp	edx, 1195771769
	jne	.LBB15_100

	mov	rax, qword ptr [rsp + 88]
	shl	rax, 2
	mov	qword ptr [rsp + 168], rax
	mov	rdi, qword ptr [rsp + 24]
	mov	rdx, qword ptr [rsp + 168]
	mov	rsi, qword ptr [rsp + 176]
	call	_ZN5Botan7load_beIjEEvPT_PKhm
	mov	ecx, -2014313184
	xor	eax, eax
	mov	qword ptr [rsp + 104], rax 
	jmp	.LBB15_1
.LBB15_123:                             
	mov	rdi, qword ptr [rsp + 24]
	call	_ZN5Botan12_GLOBAL__N_113bit_transposeEPj
	mov	ecx, -888847325
	xor	eax, eax
	mov	qword ptr [rsp + 120], rax 
	jmp	.LBB15_1
.LBB15_49:                              
	cmp	ecx, 51002210
	jne	.LBB15_1
	jmp	.LBB15_50
.LBB15_57:                              
	cmp	ecx, 771131252
	jne	.LBB15_1
.LBB15_50:
	mov	edi, .L.str.6
	mov	esi, .L.str.4
	mov	edx, .L__func__._ZN5Botan12_GLOBAL__N_113aes_decrypt_nEPKhPhmRKSt6vectorIjNS_16secure_allocatorIjEEE
	mov	ecx, .L.str.5
	mov	r8d, 582
	call	_ZN5Botan17assertion_failureEPKcS1_S1_S1_i
.LBB15_138:
	mov	rax, qword ptr [rsp + 160]
	mov	rax, qword ptr [rsp + 80]
	add	rsp, 696
	pop	rbx
	pop	r12
	pop	r13
	pop	r14
	pop	r15
	pop	rbp
	ret
.Lfunc_end15:
	.size	_ZN5Botan12_GLOBAL__N_113aes_decrypt_nEPKhPhmRKSt6vectorIjNS_16secure_allocatorIjEEE, .Lfunc_end15-_ZN5Botan12_GLOBAL__N_113aes_decrypt_nEPKhPhmRKSt6vectorIjNS_16secure_allocatorIjEEE
	.cfi_endproc

	.globl	_ZN5Botan7AES_12812key_scheduleEPKhm 
	.p2align	1, 0x90
	.type	_ZN5Botan7AES_12812key_scheduleEPKhm,@function
_ZN5Botan7AES_12812key_scheduleEPKhm:   
	.cfi_startproc

	push	rbp
.Lcfi114:
	.cfi_def_cfa_offset 16
	push	r15
.Lcfi115:
	.cfi_def_cfa_offset 24
	push	r14
.Lcfi116:
	.cfi_def_cfa_offset 32
	push	r13
.Lcfi117:
	.cfi_def_cfa_offset 40
	push	r12
.Lcfi118:
	.cfi_def_cfa_offset 48
	push	rbx
.Lcfi119:
	.cfi_def_cfa_offset 56
	sub	rsp, 24
.Lcfi120:
	.cfi_def_cfa_offset 80
.Lcfi121:
	.cfi_offset rbx, -56
.Lcfi122:
	.cfi_offset r12, -48
.Lcfi123:
	.cfi_offset r13, -40
.Lcfi124:
	.cfi_offset r14, -32
.Lcfi125:
	.cfi_offset r15, -24
.Lcfi126:
	.cfi_offset rbp, -16
	mov	r14, rdx
	mov	r12, rsi
	mov	r15, rdi
	mov	eax, dword ptr [rip + x.40]
	mov	ecx, eax
	neg	ecx
	not	ecx
	imul	ecx, eax
	mov	eax, ecx
	xor	eax, -2
	test	eax, ecx
	sete	byte ptr [rsp + 11]
	mov	eax, dword ptr [rip + y.41]
	cmp	eax, 10
	setl	byte ptr [rsp + 12]
	lea	rax, [r15 + 8]
	mov	qword ptr [rsp + 16], rax 
	lea	r13, [r15 + 32]
	mov	ecx, 456640034
	mov	ebp, -1
	jmp	.LBB16_1
.LBB16_29:                              
	cmp	ecx, 232312647
	je	.LBB16_66

	cmp	ecx, 456640034
	jne	.LBB16_1

	mov	dl, byte ptr [rsp + 11]
	mov	cl, byte ptr [rsp + 12]
	mov	eax, edx
	xor	al, cl
	test	cl, cl
	mov	esi, 550323692
	mov	ecx, 1822368739
	mov	edi, 550323692
	jne	.LBB16_33

	mov	edi, 1822368739
.LBB16_33:                              
	test	dl, dl
	cmovne	ecx, edi
	test	al, al
	cmovne	ecx, esi
	jmp	.LBB16_1
.LBB16_4:                               
	cmp	ecx, -2046309703
	je	.LBB16_61

	cmp	ecx, -1750526748
	jne	.LBB16_1

	mov	ecx, dword ptr [rip + x.40]
	mov	eax, dword ptr [rip + y.41]
	mov	edx, ecx
	neg	edx
	not	edx
	imul	edx, ecx
	mov	ecx, edx
	xor	ecx, -2
	and	ecx, edx
	sete	bl
	test	ecx, ecx
	mov	ecx, -268769622
	mov	edx, 232312647
	mov	esi, -268769622
	je	.LBB16_8

	mov	esi, 232312647
	jmp	.LBB16_8
.LBB16_40:                              
	cmp	ecx, 1364770611
	je	.LBB16_62

	cmp	ecx, 1369815052
	jne	.LBB16_1

	mov	r8d, 1
	jmp	.LBB16_43
.LBB16_16:                              
	cmp	ecx, -533610342
	je	.LBB16_53

	cmp	ecx, -268769622
	jne	.LBB16_1

	call	_ZN5Botan5CPUID10has_hw_aesEv
	mov	ecx, dword ptr [rip + x.40]
	mov	edx, dword ptr [rip + y.41]
	mov	edi, ecx
	neg	edi
	not	edi
	imul	edi, ecx
	mov	esi, edi
	xor	esi, -2
	and	esi, edi
	sete	cl
	cmp	edx, 10
	setl	bl
	xor	bl, cl
	mov	edi, 1196215873
	mov	ecx, 1196215873
	jne	.LBB16_20

	mov	ecx, 232312647
.LBB16_20:                              
	test	esi, esi
	je	.LBB16_22

	mov	edi, ecx
.LBB16_22:                              
	cmp	edx, 10
	mov	byte ptr [rsp + 14], al
	cmovl	ecx, edi
	jmp	.LBB16_1
.LBB16_48:                              
	call	_ZN5Botan5CPUID10has_aes_niEv
	mov	ecx, dword ptr [rip + x.40]
	mov	edx, dword ptr [rip + y.41]
	lea	esi, [rcx - 1]
	imul	esi, ecx
	not	esi
	or	esi, -2
	cmp	esi, ebp
	sete	cl
	cmp	edx, 10
	setl	bl
	xor	bl, cl
	mov	ecx, -939298726
	mov	edi, -939298726
	jne	.LBB16_50

	mov	edi, 1822368739
.LBB16_50:                              
	cmp	esi, ebp
	cmovne	ecx, edi
	cmp	edx, 10
	mov	byte ptr [rsp + 13], al
	cmovge	ecx, edi
	jmp	.LBB16_1
.LBB16_59:                              
	mov	al, byte ptr [rsp + 15]
	test	al, al
	mov	ecx, -2046309703
	jne	.LBB16_1

	mov	ecx, 117116818
	jmp	.LBB16_1
.LBB16_65:                              
	mov	rdi, r15
	mov	rsi, r12
	mov	rdx, r14
	call	_ZN5Botan7AES_12818aesni_key_scheduleEPKhm
	mov	ecx, -533610342
	jmp	.LBB16_1
.LBB16_56:                              
	mov	edi, 2
	call	_ZN5Botan5CPUID13has_cpuid_bitENS0_10CPUID_bitsE
	mov	ecx, dword ptr [rip + x.40]
	mov	edx, dword ptr [rip + y.41]
	lea	esi, [rcx - 1]
	imul	esi, ecx
	not	esi
	or	esi, -2
	cmp	esi, ebp
	sete	cl
	cmp	edx, 10
	setl	bl
	xor	bl, cl
	mov	ecx, -1120374688
	mov	edi, -1120374688
	jne	.LBB16_58

	mov	edi, 2010941982
.LBB16_58:                              
	cmp	esi, ebp
	cmovne	ecx, edi
	cmp	edx, 10
	mov	byte ptr [rsp + 15], al
	cmovge	ecx, edi
	jmp	.LBB16_1
.LBB16_63:                              
	xor	r8d, r8d
.LBB16_43:                              
	mov	rdi, r12
	mov	rsi, r14
	mov	rdx, qword ptr [rsp + 16] 
	mov	rcx, r13
	call	_ZN5Botan12_GLOBAL__N_116aes_key_scheduleEPKhmRSt6vectorIjNS_16secure_allocatorIjEEES7_b
	jmp	.LBB16_62
.LBB16_53:                              
	mov	rdi, r15
	mov	rsi, r12
	mov	rdx, r14
	call	_ZN5Botan7AES_12818aesni_key_scheduleEPKhm
	mov	ecx, dword ptr [rip + x.40]
	mov	eax, dword ptr [rip + y.41]
	lea	edx, [rcx - 1]
	imul	edx, ecx
	not	edx
	or	edx, -2
	cmp	edx, ebp
	sete	bl
	mov	ecx, 1364770611
	mov	edx, -1066787604
	mov	esi, 1364770611
	jne	.LBB16_52
	jmp	.LBB16_8
.LBB16_54:                              
	mov	ecx, dword ptr [rip + x.40]
	mov	eax, dword ptr [rip + y.41]
	lea	edx, [rcx - 1]
	imul	edx, ecx
	mov	ecx, edx
	xor	ecx, -2
	and	ecx, edx
	sete	bl
	test	ecx, ecx
	mov	ecx, 1598057508
	mov	edx, 2010941982
	mov	esi, 1598057508
	je	.LBB16_8

	mov	esi, 2010941982
	jmp	.LBB16_8
.LBB16_64:                              
	call	_ZN5Botan5CPUID10has_aes_niEv
	mov	ecx, 550323692
	jmp	.LBB16_1
.LBB16_51:                              
	mov	ecx, dword ptr [rip + x.40]
	mov	eax, dword ptr [rip + y.41]
	lea	edx, [rcx - 1]
	imul	edx, ecx
	not	edx
	or	edx, -2
	cmp	edx, ebp
	sete	bl
	mov	ecx, -533610342
	mov	edx, -1066787604
	mov	esi, -533610342
	je	.LBB16_8
.LBB16_52:                              
	mov	esi, -1066787604
.LBB16_8:                               
	cmp	eax, 10
	setl	al
	cmovl	edx, esi
	xor	al, bl
	jne	.LBB16_1

	mov	ecx, edx
	jmp	.LBB16_1
.LBB16_66:                              
	call	_ZN5Botan5CPUID10has_hw_aesEv
	mov	ecx, -268769622
	jmp	.LBB16_1
.LBB16_61:                              
	mov	rdi, r15
	mov	rsi, r12
	mov	rdx, r14
	call	_ZN5Botan7AES_12818vperm_key_scheduleEPKhm
.LBB16_62:                              
	mov	ecx, -152414392
.LBB16_1:                               
	cmp	ecx, 232312646
	jle	.LBB16_2

	cmp	ecx, 1364770610
	jg	.LBB16_39

	cmp	ecx, 550323691
	jle	.LBB16_29

	cmp	ecx, 550323692
	je	.LBB16_48

	cmp	ecx, 550697069
	je	.LBB16_54

	cmp	ecx, 1196215873
	jne	.LBB16_1

	mov	al, byte ptr [rsp + 14]
	test	al, al
	mov	ecx, 1369815052
	jne	.LBB16_1

	mov	ecx, 550697069
	jmp	.LBB16_1
.LBB16_2:                               
	cmp	ecx, -533610343
	jg	.LBB16_15

	cmp	ecx, -1120374689
	jle	.LBB16_4

	cmp	ecx, -1120374688
	je	.LBB16_59

	cmp	ecx, -1066787604
	je	.LBB16_65

	cmp	ecx, -939298726
	jne	.LBB16_1

	mov	al, byte ptr [rsp + 13]
	test	al, al
	mov	ecx, 98310171
	jne	.LBB16_1

	mov	ecx, -1750526748
	jmp	.LBB16_1
.LBB16_39:                              
	cmp	ecx, 1598057507
	jle	.LBB16_40

	cmp	ecx, 1598057508
	je	.LBB16_56

	cmp	ecx, 1822368739
	je	.LBB16_64

	cmp	ecx, 2010941982
	jne	.LBB16_1

	mov	edi, 2
	call	_ZN5Botan5CPUID13has_cpuid_bitENS0_10CPUID_bitsE
	mov	ecx, 1598057508
	jmp	.LBB16_1
.LBB16_15:                              
	cmp	ecx, -152414393
	jle	.LBB16_16

	cmp	ecx, 98310171
	je	.LBB16_51

	cmp	ecx, 117116818
	je	.LBB16_63

	cmp	ecx, -152414392
	jne	.LBB16_1

	add	rsp, 24
	pop	rbx
	pop	r12
	pop	r13
	pop	r14
	pop	r15
	pop	rbp
	ret
.Lfunc_end16:
	.size	_ZN5Botan7AES_12812key_scheduleEPKhm, .Lfunc_end16-_ZN5Botan7AES_12812key_scheduleEPKhm
	.cfi_endproc

	.section	.text._ZN5Botan5CPUID10has_aes_niEv,"axG",@progbits,_ZN5Botan5CPUID10has_aes_niEv,comdat
	.weak	_ZN5Botan5CPUID10has_aes_niEv 
	.p2align	1, 0x90
	.type	_ZN5Botan5CPUID10has_aes_niEv,@function
_ZN5Botan5CPUID10has_aes_niEv:          
	.cfi_startproc

	push	rbp
.Lcfi127:
	.cfi_def_cfa_offset 16
	push	r14
.Lcfi128:
	.cfi_def_cfa_offset 24
	push	rbx
.Lcfi129:
	.cfi_def_cfa_offset 32
	sub	rsp, 16
.Lcfi130:
	.cfi_def_cfa_offset 48
.Lcfi131:
	.cfi_offset rbx, -32
.Lcfi132:
	.cfi_offset r14, -24
.Lcfi133:
	.cfi_offset rbp, -16
	mov	eax, dword ptr [rip + x.42]
	mov	ecx, eax
	neg	ecx
	not	ecx
	imul	ecx, eax
	mov	eax, ecx
	xor	eax, -2
	test	eax, ecx
	sete	byte ptr [rsp + 13]
	mov	eax, dword ptr [rip + y.43]
	cmp	eax, 10
	setl	byte ptr [rsp + 14]
	mov	ecx, -264982406
	mov	r14d, -159429165
	mov	ebp, 737144988
	jmp	.LBB17_1
.LBB17_8:                               
	mov	al, byte ptr [rsp + 13]
	mov	cl, byte ptr [rsp + 14]
	mov	edx, eax
	xor	dl, cl
	mov	edx, -51969378
	cmovne	edx, r14d
	test	cl, cl
	mov	ecx, edx
	cmovne	ecx, r14d
	test	al, al
	cmove	ecx, edx
	jmp	.LBB17_1
.LBB17_9:                               
	mov	edi, 65536
	call	_ZN5Botan5CPUID13has_cpuid_bitENS0_10CPUID_bitsE
	mov	ecx, -159429165
.LBB17_1:                               
	cmp	ecx, -51969379
	jg	.LBB17_5

	cmp	ecx, -264982406
	je	.LBB17_8

	cmp	ecx, -159429165
	jne	.LBB17_1

	mov	edi, 65536
	call	_ZN5Botan5CPUID13has_cpuid_bitENS0_10CPUID_bitsE
	mov	ecx, dword ptr [rip + x.42]
	mov	edi, dword ptr [rip + y.43]
	lea	esi, [rcx - 1]
	imul	esi, ecx
	mov	ecx, esi
	xor	ecx, -2
	and	ecx, esi
	sete	bl
	cmp	edi, 10
	setl	dl
	xor	dl, bl
	mov	edx, -51969378
	cmovne	edx, ebp
	test	ecx, ecx
	mov	ecx, edx
	cmove	ecx, ebp
	cmp	edi, 10
	mov	byte ptr [rsp + 15], al
	cmovge	ecx, edx
	jmp	.LBB17_1
.LBB17_5:                               
	cmp	ecx, -51969378
	je	.LBB17_9

	cmp	ecx, 737144988
	jne	.LBB17_1

	mov	al, byte ptr [rsp + 15]
	add	rsp, 16
	pop	rbx
	pop	r14
	pop	rbp
	ret
.Lfunc_end17:
	.size	_ZN5Botan5CPUID10has_aes_niEv, .Lfunc_end17-_ZN5Botan5CPUID10has_aes_niEv
	.cfi_endproc

	.text
	.type	_ZN5Botan12_GLOBAL__N_116aes_key_scheduleEPKhmRSt6vectorIjNS_16secure_allocatorIjEEES7_b,@function 
_ZN5Botan12_GLOBAL__N_116aes_key_scheduleEPKhmRSt6vectorIjNS_16secure_allocatorIjEEES7_b: 
	.cfi_startproc

	push	rbp
.Lcfi134:
	.cfi_def_cfa_offset 16
	push	r15
.Lcfi135:
	.cfi_def_cfa_offset 24
	push	r14
.Lcfi136:
	.cfi_def_cfa_offset 32
	push	r13
.Lcfi137:
	.cfi_def_cfa_offset 40
	push	r12
.Lcfi138:
	.cfi_def_cfa_offset 48
	push	rbx
.Lcfi139:
	.cfi_def_cfa_offset 56
	sub	rsp, 184
.Lcfi140:
	.cfi_def_cfa_offset 240
.Lcfi141:
	.cfi_offset rbx, -56
.Lcfi142:
	.cfi_offset r12, -48
.Lcfi143:
	.cfi_offset r13, -40
.Lcfi144:
	.cfi_offset r14, -32
.Lcfi145:
	.cfi_offset r15, -24
.Lcfi146:
	.cfi_offset rbp, -16
	mov	r14, rcx
	mov	r15, rdx
	mov	qword ptr [rsp + 176], rdi 
	mov	rax, rsi
	shr	rax, 2
	mov	qword ptr [rsp + 8], rax
	mov	rax, qword ptr [rsp + 8]
	cmp	rax, 4
	sete	al
	mov	rcx, qword ptr [rsp + 8]
	cmp	rcx, 6
	sete	cl
	mov	edx, eax
	and	dl, cl
	xor	al, cl
	or	al, dl
	mov	byte ptr [rsp + 6], al
	mov	rax, qword ptr [rsp + 8]
	cmp	rax, 8
	sete	byte ptr [rsp + 5]
	neg	rsi
	mov	eax, 28
	sub	rax, rsi
	mov	qword ptr [rsp + 160], rax 
	test	r8b, r8b
	mov	eax, -1823255522
	mov	ecx, 1014748897
	cmovne	ecx, eax
	mov	dword ptr [rsp + 100], ecx 
	mov	eax, -1348032840
	mov	ebp, -1
















.LBB18_1:                               
	mov	ecx, eax
	cmp	ecx, -437991107
	jle	.LBB18_2

	cmp	ecx, 600924090
	jg	.LBB18_71

	cmp	ecx, 117031111
	jle	.LBB18_50

	cmp	ecx, 376242524
	jle	.LBB18_60

	cmp	ecx, 492179923
	jg	.LBB18_68

	cmp	ecx, 376242525
	je	.LBB18_123

	cmp	ecx, 464674699
	mov	eax, ecx
	jne	.LBB18_1

	mov	eax, -543910328
	mov	r12, qword ptr [rsp + 8]
	jmp	.LBB18_1
.LBB18_2:                               
	cmp	ecx, -1248683645
	jg	.LBB18_25

	cmp	ecx, -1595877887
	jg	.LBB18_16

	cmp	ecx, -1873704929
	jle	.LBB18_5

	cmp	ecx, -1752107122
	jg	.LBB18_13

	cmp	ecx, -1873704928
	je	.LBB18_95

	cmp	ecx, -1823255522
	mov	eax, ecx
	jne	.LBB18_1

	mov	eax, dword ptr [rip + x.44]
	lea	ecx, [rax - 1]
	imul	ecx, eax
	not	ecx
	or	ecx, -2
	cmp	ecx, ebp
	sete	cl
	mov	eax, -488686968
	mov	esi, -649696516
	cmove	eax, esi
	cmp	dword ptr [rip + y.45], 10
	setl	dl
	mov	edi, -488686968
	jmp	.LBB18_94
.LBB18_71:                              
	cmp	ecx, 1537255671
	jle	.LBB18_72

	cmp	ecx, 1805600987
	jle	.LBB18_82

	cmp	ecx, 1858997814
	jg	.LBB18_90

	cmp	ecx, 1805600988
	je	.LBB18_102

	cmp	ecx, 1849427507
	mov	eax, ecx
	jne	.LBB18_1

	mov	rax, qword ptr [rsp + 64]
	mov	rcx, qword ptr [rsp + 176] 
	lea	rsi, [rcx + 4*rax]
	mov	dword ptr [rsp + 60], 0
	lea	rdi, [rsp + 60]
	call	_ZN5Botan13typecast_copyIjEEvRT_PKh
	mov	eax, dword ptr [rsp + 60]
	bswap	eax
	mov	rcx, qword ptr [rsp + 64]
	mov	rdx, qword ptr [r15]
	mov	dword ptr [rdx + 4*rcx], eax
	mov	rax, qword ptr [rsp + 64]
	movabs	rcx, 736267506112258924
	sub	rax, rcx
	lea	rax, [rax + rcx + 1]
	mov	qword ptr [rsp + 128], rax 
	mov	eax, -38975510
	jmp	.LBB18_1
.LBB18_25:                              
	cmp	ecx, -607695200
	jg	.LBB18_39

	cmp	ecx, -820223685
	jle	.LBB18_27

	cmp	ecx, -649696517
	jle	.LBB18_32

	cmp	ecx, -649696516
	je	.LBB18_110

	cmp	ecx, -618884963
	mov	eax, ecx
	jne	.LBB18_1

	mov	rax, qword ptr [r15]
	mov	rdi, qword ptr [rsp + 144] 
	mov	ecx, dword ptr [rax + 4*rdi]
	mov	edx, ecx
	not	edx
	and	edx, -2022098398
	and	ecx, 2022098397
	or	ecx, edx
	mov	edx, r13d
	not	edx
	and	edx, -2022098398
	mov	esi, r13d
	and	esi, 2022098397
	or	esi, edx
	xor	esi, ecx
	mov	dword ptr [rax + 4*rdi], esi
	mov	rax, qword ptr [rsp + 72]
	movabs	rcx, 2956475113518941751
	sub	rax, rcx
	lea	rax, [rax + rcx + 1]
	mov	qword ptr [rsp + 104], rax 
	mov	eax, 1676175125
	jmp	.LBB18_1
.LBB18_72:                              
	cmp	ecx, 960795390
	jg	.LBB18_77

	cmp	ecx, 600924091
	je	.LBB18_100

	cmp	ecx, 641181821
	je	.LBB18_125

	cmp	ecx, 684361699
	mov	eax, ecx
	jne	.LBB18_1

	mov	eax, -1330322318
	jmp	.LBB18_1
.LBB18_16:                              
	cmp	ecx, -1348032841
	jg	.LBB18_21

	cmp	ecx, -1595877886
	je	.LBB18_98

	cmp	ecx, -1588516070
	je	.LBB18_120

	cmp	ecx, -1546782355
	mov	eax, ecx
	jne	.LBB18_1

	mov	rax, qword ptr [rsp + 80]
	mov	rcx, qword ptr [r14]
	mov	eax, dword ptr [rcx + 4*rax]
	bswap	eax
	mov	rdx, qword ptr [rsp + 80]
	mov	dword ptr [rcx + 4*rdx], eax
	mov	rax, qword ptr [rsp + 80]
	movabs	rcx, 690747804889813309
	lea	rax, [rax + rcx + 1]
	sub	rax, rcx
	mov	qword ptr [rsp + 152], rax 
	mov	eax, -2036167501
	jmp	.LBB18_1
.LBB18_39:                              
	cmp	ecx, -488686969
	jg	.LBB18_44

	cmp	ecx, -607695199
	je	.LBB18_118

	cmp	ecx, -568218383
	je	.LBB18_106

	cmp	ecx, -543910328
	mov	eax, ecx
	jne	.LBB18_1

	mov	qword ptr [rsp + 40], r12
	mov	rax, qword ptr [rsp + 24]
	shl	rax, 2
	movabs	rcx, -3764527341380416848
	sub	rax, rcx
	lea	rax, [rax + rcx + 4]
	mov	qword ptr [rsp + 168], rax
	mov	rax, qword ptr [rsp + 168]
	mov	rcx, qword ptr [rsp + 40]
	cmp	rcx, rax
	mov	eax, -53537045
	mov	ecx, -255589227
	cmovb	eax, ecx
	jmp	.LBB18_1
.LBB18_50:                              
	cmp	ecx, -194123862
	jg	.LBB18_55

	cmp	ecx, -437991106
	je	.LBB18_104

	cmp	ecx, -340590814
	je	.LBB18_122

	cmp	ecx, -255589227
	mov	eax, ecx
	jne	.LBB18_1

	mov	rcx, qword ptr [rsp + 8]
	mov	rax, qword ptr [rsp + 40]
	movabs	rdx, -8043568590212880223
	sub	rax, rdx
	sub	rax, rcx
	add	rax, rdx
	mov	rcx, qword ptr [r15]
	mov	ebp, r13d
	mov	r13d, dword ptr [rcx + 4*rax]
	xor	edx, edx
	div	qword ptr [rsp + 8]
	mov	eax, dword ptr [4*rax + _ZZN5Botan12_GLOBAL__N_116aes_key_scheduleEPKhmRSt6vectorIjNS_16secure_allocatorIjEEES7_bE2RC]
	mov	edx, eax
	not	edx
	and	edx, 762646460
	and	eax, -762646461
	or	eax, edx
	mov	edx, r13d
	not	edx
	and	edx, 762646460
	and	r13d, -762646461
	or	r13d, edx
	xor	r13d, eax
	mov	rax, qword ptr [rsp + 40]
	movabs	rdx, -9097445912487404813
	sub	rax, rdx
	lea	rax, [rax + rdx - 1]
	mov	edi, dword ptr [rcx + 4*rax]
	call	_ZN5Botan12_GLOBAL__N_17SE_wordEj
	rol	eax, 8
	mov	ecx, r13d
	not	ecx
	and	ecx, eax
	not	eax
	and	eax, r13d
	mov	r13d, ebp
	mov	ebp, -1
	or	eax, ecx
	mov	rcx, qword ptr [rsp + 40]
	mov	rdx, qword ptr [r15]
	mov	dword ptr [rdx + 4*rcx], eax
	mov	eax, 1676175125
	mov	ecx, 1
	mov	qword ptr [rsp + 104], rcx 
	jmp	.LBB18_1
.LBB18_82:                              
	cmp	ecx, 1537255672
	je	.LBB18_103

	cmp	ecx, 1676175125
	je	.LBB18_101

	cmp	ecx, 1708406228
	mov	eax, ecx
	jne	.LBB18_1

	mov	eax, dword ptr [rip + x.44]
	mov	ecx, eax
	neg	ecx
	not	ecx
	imul	ecx, eax
	not	ecx
	or	ecx, -2
	cmp	ecx, ebp
	sete	cl
	mov	eax, 376242525
	mov	edi, -1924188427
	cmove	eax, edi
	cmp	dword ptr [rip + y.45], 10
	setl	dl
	mov	esi, 376242525
	jmp	.LBB18_115
.LBB18_77:                              
	cmp	ecx, 960795391
	je	.LBB18_112

	cmp	ecx, 1014748897
	je	.LBB18_121

	cmp	ecx, 1424633056
	mov	eax, ecx
	jne	.LBB18_1

	mov	rdi, r15
	mov	rbx, qword ptr [rsp + 160] 
	mov	rsi, rbx
	call	_ZNSt6vectorIjN5Botan16secure_allocatorIjEEE6resizeEm
	mov	rdi, r14
	mov	rsi, rbx
	call	_ZNSt6vectorIjN5Botan16secure_allocatorIjEEE6resizeEm
	mov	eax, dword ptr [rip + x.44]
	lea	ecx, [rax - 1]
	imul	ecx, eax
	not	ecx
	or	ecx, -2
	cmp	ecx, ebp
	sete	cl
	mov	eax, -340590814
	mov	edi, -1595877886
	cmove	eax, edi
	cmp	dword ptr [rip + y.45], 10
	setl	dl
	mov	esi, -340590814
	jmp	.LBB18_115
.LBB18_60:                              
	cmp	ecx, 117031112
	je	.LBB18_111

	cmp	ecx, 180269983
	je	.LBB18_114

	cmp	ecx, 376117823
	mov	eax, ecx
	jne	.LBB18_1

	mov	al, byte ptr [rsp + 7]
	test	al, al
	mov	eax, 180269983
	mov	ecx, -607695199
	cmovne	eax, ecx
	jmp	.LBB18_1
.LBB18_5:                               
	cmp	ecx, -2036167501
	je	.LBB18_119

	cmp	ecx, -1979052683
	mov	eax, dword ptr [rsp + 100] 
	je	.LBB18_1

	cmp	ecx, -1924188427
	mov	eax, ecx
	jne	.LBB18_1

	mov	eax, -194123861
	mov	ecx, 4
	mov	qword ptr [rsp + 120], rcx 
	jmp	.LBB18_1
.LBB18_27:                              
	cmp	ecx, -1248683644
	je	.LBB18_108

	cmp	ecx, -1047674448
	je	.LBB18_96

	cmp	ecx, -851725051
	mov	eax, ecx
	jne	.LBB18_1

	mov	rax, qword ptr [rsp + 112] 
	mov	qword ptr [rsp + 16], rax
	mov	rax, qword ptr [rsp + 168]
	mov	rcx, qword ptr [rsp + 16]
	cmp	rcx, rax
	mov	eax, -1248683644
	mov	ecx, 492179924
	cmove	eax, ecx
	jmp	.LBB18_1
.LBB18_21:                              
	cmp	ecx, -1348032840
	je	.LBB18_92

	cmp	ecx, -1330480518
	je	.LBB18_113

	cmp	ecx, -1330322318
	mov	eax, ecx
	jne	.LBB18_1

	mov	eax, dword ptr [rip + x.44]
	lea	ecx, [rax - 1]
	imul	ecx, eax
	mov	eax, ecx
	xor	eax, -2
	and	eax, ecx
	sete	cl
	test	eax, eax
	mov	eax, 684361699
	mov	esi, 600924091
	cmove	eax, esi
	cmp	dword ptr [rip + y.45], 10
	setl	dl
	mov	edi, 684361699
	jmp	.LBB18_94
.LBB18_44:                              
	cmp	ecx, -488686968
	je	.LBB18_124

	cmp	ecx, -452525632
	je	.LBB18_116

	cmp	ecx, -440004971
	mov	eax, ecx
	jne	.LBB18_1

	mov	rbx, qword ptr [rsp + 88]
	mov	rbp, qword ptr [r14]
	mov	edi, dword ptr [rbp + 4*rbx]
	call	_ZN5Botan12_GLOBAL__N_112InvMixColumnEj
	mov	dword ptr [rbp + 4*rbx], eax
	mov	edi, dword ptr [rbp + 4*rbx + 4]
	call	_ZN5Botan12_GLOBAL__N_112InvMixColumnEj
	mov	dword ptr [rbp + 4*rbx + 4], eax
	mov	edi, dword ptr [rbp + 4*rbx + 8]
	call	_ZN5Botan12_GLOBAL__N_112InvMixColumnEj
	mov	dword ptr [rbp + 4*rbx + 8], eax
	mov	edi, dword ptr [rbp + 4*rbx + 12]
	call	_ZN5Botan12_GLOBAL__N_112InvMixColumnEj
	mov	dword ptr [rbp + 4*rbx + 12], eax
	mov	ebp, -1
	mov	rax, qword ptr [rsp + 88]
	add	rax, 4
	mov	qword ptr [rsp + 120], rax 
	mov	eax, -194123861
	jmp	.LBB18_1
.LBB18_55:                              
	cmp	ecx, -194123861
	je	.LBB18_109

	cmp	ecx, -53537045
	je	.LBB18_99

	cmp	ecx, -38975510
	mov	eax, ecx
	jne	.LBB18_1

	mov	rax, qword ptr [rsp + 128] 
	mov	qword ptr [rsp + 64], rax
	mov	rax, qword ptr [rsp + 8]
	mov	rcx, qword ptr [rsp + 64]
	cmp	rcx, rax
	mov	eax, 1849427507
	mov	ecx, 464674699
	cmove	eax, ecx
	jmp	.LBB18_1
.LBB18_68:                              
	cmp	ecx, 492179924
	je	.LBB18_107

	cmp	ecx, 560973044
	mov	eax, ecx
	jne	.LBB18_1

	mov	rdi, r15
	call	_ZNKSt6vectorIjN5Botan16secure_allocatorIjEEE4sizeEv
	mov	rax, qword ptr [rsp + 48]
	mov	eax, -1330480518
	jmp	.LBB18_1
.LBB18_13:                              
	cmp	ecx, -1700035485
	jne	.LBB18_14

	mov	edi, dword ptr [rsp + 56]
	call	_ZN5Botan12_GLOBAL__N_17SE_wordEj
	mov	r13d, eax
	mov	eax, -618884963
	mov	rcx, qword ptr [rsp + 32]
	mov	qword ptr [rsp + 144], rcx 
	jmp	.LBB18_1
.LBB18_90:                              
	cmp	ecx, 2077706423
	jne	.LBB18_91

	mov	eax, -2036167501
	xor	ecx, ecx
	mov	qword ptr [rsp + 152], rcx 
	jmp	.LBB18_1
.LBB18_32:                              
	cmp	ecx, -820223684
	jne	.LBB18_33

	mov	eax, dword ptr [rip + x.44]
	lea	ecx, [rax - 1]
	imul	ecx, eax
	not	ecx
	or	ecx, -2
	cmp	ecx, ebp
	sete	cl
	mov	eax, -761002820
	mov	esi, 1858997815
	cmove	eax, esi
	cmp	dword ptr [rip + y.45], 10
	setl	dl
	mov	edi, -761002820
	jmp	.LBB18_94
.LBB18_95:                              
	mov	rax, qword ptr [rsp + 8]
	movabs	rcx, -4481652112260374168
	lea	rax, [rax + rcx + 6]
	sub	rax, rcx
	mov	qword ptr [rsp + 24], rax
	mov	rax, qword ptr [rsp + 24]
	cmp	rax, 10
	sete	cl
	mov	rax, qword ptr [rsp + 24]
	cmp	rax, 12
	sete	al
	mov	ebx, ecx
	and	bl, al
	xor	cl, al
	mov	rax, qword ptr [rsp + 24]
	cmp	rax, 14
	sete	sil
	mov	edx, ebx
	or	dl, cl
	xor	dl, sil
	mov	edx, -1752107121
	mov	esi, -1047674448
	cmovne	edx, esi
	cmp	rax, 14
	mov	eax, edx
	cmove	eax, esi
	or	cl, bl
	cmove	eax, edx
	jmp	.LBB18_1
.LBB18_102:                             
	mov	rax, qword ptr [rsp + 40]
	mov	rcx, qword ptr [rsp + 72]
	movabs	rdx, -911664472103260459
	sub	rcx, rdx
	add	rcx, rax
	add	rcx, rdx
	mov	qword ptr [rsp + 32], rcx
	mov	rdi, r15
	call	_ZNKSt6vectorIjN5Botan16secure_allocatorIjEEE4sizeEv
	mov	rcx, qword ptr [rsp + 32]
	cmp	rcx, rax
	mov	eax, 1537255672
	mov	ecx, -437991106
	cmovb	eax, ecx
	jmp	.LBB18_1
.LBB18_110:                             
	mov	eax, dword ptr [rip + x.44]
	mov	ecx, dword ptr [rip + y.45]
	lea	edx, [rax - 1]
	imul	edx, eax
	not	edx
	or	edx, -2
	cmp	edx, ebp
	sete	al
	cmp	ecx, 10
	setl	bl
	xor	bl, al
	mov	esi, -488686968
	mov	edi, 117031112
	jmp	.LBB18_97
.LBB18_100:                             
	mov	eax, -851725051
	xor	ecx, ecx
	mov	qword ptr [rsp + 112], rcx 
	jmp	.LBB18_1
.LBB18_125:                             
	mov	eax, -452525632
	jmp	.LBB18_1
.LBB18_98:                              
	mov	eax, -38975510
	xor	ecx, ecx
	mov	qword ptr [rsp + 128], rcx 
	jmp	.LBB18_1
.LBB18_120:                             
	mov	eax, 1014748897
	jmp	.LBB18_1
.LBB18_118:                             
	mov	rax, qword ptr [rsp + 48]
	mov	rcx, qword ptr [r15]
	mov	eax, dword ptr [rcx + 4*rax]
	bswap	eax
	mov	rdx, qword ptr [rsp + 48]
	mov	dword ptr [rcx + 4*rdx], eax
	mov	rax, qword ptr [rsp + 48]
	movabs	rcx, 2945163189801918339
	sub	rax, rcx
	lea	rax, [rax + rcx + 1]
	mov	qword ptr [rsp + 136], rax 
	mov	eax, 960795391
	jmp	.LBB18_1
.LBB18_106:                             
	mov	rax, qword ptr [rsp + 32]
	mov	qword ptr [rsp + 144], rax 
	mov	eax, -618884963
	mov	r13d, dword ptr [rsp + 56]
	jmp	.LBB18_1
.LBB18_104:                             
	mov	rax, qword ptr [rsp + 8]
	mov	rcx, qword ptr [rsp + 32]
	movabs	rdx, -7853084386720826341
	add	rcx, rdx
	sub	rcx, rax
	sub	rcx, rdx
	mov	rax, qword ptr [r15]
	mov	ecx, dword ptr [rax + 4*rcx]
	mov	rdx, qword ptr [rsp + 32]
	mov	dword ptr [rax + 4*rdx], ecx
	mov	rcx, qword ptr [rsp + 72]
	cmp	rcx, 4
	mov	cl, byte ptr [rsp + 5]
	mov	rdx, qword ptr [rsp + 32]
	mov	eax, dword ptr [rax + 4*rdx - 4]
	mov	dword ptr [rsp + 56], eax
	mov	eax, -568218383
	mov	edx, -1700035485
	cmove	eax, edx
	test	cl, cl
	mov	ecx, -568218383
	cmove	eax, ecx
	jmp	.LBB18_1
.LBB18_122:                             
	mov	rdi, r15
	mov	rbx, qword ptr [rsp + 160] 
	mov	rsi, rbx
	call	_ZNSt6vectorIjN5Botan16secure_allocatorIjEEE6resizeEm
	mov	rdi, r14
	mov	rsi, rbx
	call	_ZNSt6vectorIjN5Botan16secure_allocatorIjEEE6resizeEm
	mov	eax, 1424633056
	jmp	.LBB18_1
.LBB18_103:                             
	mov	r12, qword ptr [rsp + 8]
	add	r12, qword ptr [rsp + 40]
	mov	eax, -543910328
	jmp	.LBB18_1
.LBB18_101:                             
	mov	rax, qword ptr [rsp + 104] 
	mov	qword ptr [rsp + 72], rax
	mov	rax, qword ptr [rsp + 8]
	mov	rcx, qword ptr [rsp + 72]
	cmp	rcx, rax
	mov	eax, 1805600988
	mov	ecx, 1537255672
	cmove	eax, ecx
	jmp	.LBB18_1
.LBB18_112:                             
	mov	rax, qword ptr [rsp + 136] 
	mov	qword ptr [rsp + 48], rax
	mov	eax, dword ptr [rip + x.44]
	lea	ecx, [rax - 1]
	imul	ecx, eax
	mov	eax, ecx
	xor	eax, -2
	and	eax, ecx
	sete	cl
	test	eax, eax
	mov	eax, 560973044
	mov	edi, -1330480518
	cmove	eax, edi
	cmp	dword ptr [rip + y.45], 10
	setl	dl
	mov	esi, 560973044
	jmp	.LBB18_115
.LBB18_111:                             
	mov	eax, 960795391
	xor	ecx, ecx
	mov	qword ptr [rsp + 136], rcx 
	jmp	.LBB18_1
.LBB18_114:                             
	mov	eax, dword ptr [rip + x.44]
	lea	ecx, [rax - 1]
	imul	ecx, eax
	not	ecx
	or	ecx, -2
	cmp	ecx, ebp
	sete	cl
	mov	eax, 641181821
	mov	edi, -452525632
	cmove	eax, edi
	cmp	dword ptr [rip + y.45], 10
	setl	dl
	mov	esi, 641181821
.LBB18_115:                             
	cmovge	eax, esi
	xor	dl, cl
	cmovne	eax, edi
	jmp	.LBB18_1
.LBB18_119:                             
	mov	rax, qword ptr [rsp + 152] 
	mov	qword ptr [rsp + 80], rax
	mov	rdi, r14
	call	_ZNKSt6vectorIjN5Botan16secure_allocatorIjEEE4sizeEv
	mov	rcx, qword ptr [rsp + 80]
	cmp	rcx, rax
	mov	eax, -1546782355
	mov	ecx, -1588516070
	cmove	eax, ecx
	jmp	.LBB18_1
.LBB18_108:                             
	mov	rax, qword ptr [rsp + 24]
	mov	rcx, qword ptr [rsp + 16]
	movabs	rdx, -7348029736970422422
	lea	rax, [rdx + 4*rax]
	sub	rax, rcx
	sub	rax, rdx
	mov	rcx, qword ptr [r15]
	mov	edx, dword ptr [rcx + 4*rax]
	mov	rsi, qword ptr [rsp + 16]
	mov	rdi, qword ptr [r14]
	mov	dword ptr [rdi + 4*rsi], edx
	mov	rdx, rax
	movabs	rsi, -1074811040644515853
	sub	rdx, rsi
	lea	rdx, [rdx + rsi + 1]
	mov	edx, dword ptr [rcx + 4*rdx]
	mov	rsi, qword ptr [rsp + 16]
	movabs	rbx, 3096028156931788316
	sub	rsi, rbx
	lea	rsi, [rsi + rbx + 1]
	mov	dword ptr [rdi + 4*rsi], edx
	mov	edx, dword ptr [rcx + 4*rax + 8]
	mov	rsi, qword ptr [rsp + 16]
	mov	dword ptr [rdi + 4*rsi + 8], edx
	mov	eax, dword ptr [rcx + 4*rax + 12]
	mov	rcx, qword ptr [rsp + 16]
	movabs	rdx, 5371736216845547199
	sub	rcx, rdx
	lea	rcx, [rcx + rdx + 3]
	mov	dword ptr [rdi + 4*rcx], eax
	mov	rax, qword ptr [rsp + 16]
	movabs	rcx, 4599028390927345993
	sub	rax, rcx
	lea	rax, [rax + rcx + 4]
	mov	qword ptr [rsp + 112], rax 
	mov	eax, -851725051
	jmp	.LBB18_1
.LBB18_96:                              
	mov	eax, dword ptr [rip + x.44]
	mov	ecx, dword ptr [rip + y.45]
	lea	edx, [rax - 1]
	imul	edx, eax
	not	edx
	or	edx, -2
	cmp	edx, ebp
	sete	al
	cmp	ecx, 10
	setl	bl
	xor	bl, al
	mov	esi, -340590814
	mov	edi, 1424633056
	jmp	.LBB18_97
.LBB18_92:                              
	mov	cl, byte ptr [rsp + 6]
	mov	al, byte ptr [rsp + 5]
	mov	edx, ecx
	xor	dl, al
	test	al, al
	mov	eax, -820223684
	mov	esi, -1873704928
	cmovne	eax, esi
	test	cl, cl
	mov	ecx, -820223684
	cmove	eax, ecx
	test	dl, dl
	cmovne	eax, esi
	jmp	.LBB18_1
.LBB18_113:                             
	mov	rdi, r15
	call	_ZNKSt6vectorIjN5Botan16secure_allocatorIjEEE4sizeEv
	mov	rcx, qword ptr [rsp + 48]
	cmp	rcx, rax
	setne	byte ptr [rsp + 7]
	mov	eax, dword ptr [rip + x.44]
	mov	ecx, eax
	neg	ecx
	not	ecx
	imul	ecx, eax
	not	ecx
	or	ecx, -2
	cmp	ecx, ebp
	sete	cl
	mov	eax, 560973044
	mov	esi, 376117823
	cmove	eax, esi
	cmp	dword ptr [rip + y.45], 10
	setl	dl
	mov	edi, 560973044
	jmp	.LBB18_94
.LBB18_124:                             
	mov	eax, -649696516
	jmp	.LBB18_1
.LBB18_116:                             
	mov	eax, dword ptr [rip + x.44]
	mov	ecx, dword ptr [rip + y.45]
	lea	edx, [rax - 1]
	imul	edx, eax
	not	edx
	or	edx, -2
	cmp	edx, ebp
	sete	al
	cmp	ecx, 10
	setl	bl
	xor	bl, al
	mov	esi, 641181821
	mov	edi, 2077706423
.LBB18_97:                              
	cmovne	esi, edi
	cmp	edx, ebp
	mov	eax, esi
	cmove	eax, edi
	cmp	ecx, 10
	cmovge	eax, esi
	jmp	.LBB18_1
.LBB18_109:                             
	mov	rax, qword ptr [rsp + 120] 
	mov	qword ptr [rsp + 88], rax
	mov	rax, qword ptr [rsp + 24]
	shl	rax, 2
	mov	rcx, qword ptr [rsp + 88]
	cmp	rcx, rax
	mov	eax, -440004971
	mov	ecx, -1979052683
	cmove	eax, ecx
	jmp	.LBB18_1
.LBB18_99:                              
	mov	eax, dword ptr [rip + x.44]
	mov	ecx, dword ptr [rip + y.45]
	lea	edx, [rax - 1]
	imul	edx, eax
	mov	eax, edx
	xor	eax, -2
	and	eax, edx
	sete	dl
	cmp	ecx, 10
	setl	bl
	xor	bl, dl
	mov	edx, 684361699
	mov	esi, -1330322318
	cmovne	edx, esi
	test	eax, eax
	mov	eax, edx
	cmove	eax, esi
	cmp	ecx, 10
	cmovge	eax, edx
	jmp	.LBB18_1
.LBB18_123:                             
	mov	eax, 1708406228
	jmp	.LBB18_1
.LBB18_107:                             
	mov	eax, dword ptr [rip + x.44]
	mov	ecx, eax
	neg	ecx
	not	ecx
	imul	ecx, eax
	mov	eax, ecx
	xor	eax, -2
	and	eax, ecx
	sete	cl
	test	eax, eax
	mov	eax, 376242525
	mov	esi, 1708406228
	cmove	eax, esi
	cmp	dword ptr [rip + y.45], 10
	setl	dl
	mov	edi, 376242525
.LBB18_94:                              
	cmovge	eax, edi
	xor	dl, cl
	cmovne	eax, esi
	jmp	.LBB18_1
.LBB18_14:                              
	cmp	ecx, -1752107121
	mov	eax, ecx
	jne	.LBB18_1
	jmp	.LBB18_15
.LBB18_91:                              
	cmp	ecx, 1858997815
	jmp	.LBB18_34
.LBB18_33:                              
	cmp	ecx, -761002820
.LBB18_34:                              
	mov	eax, ecx
	jne	.LBB18_1

	mov	edi, .L.str.7
	mov	esi, .L.str.8
	mov	edx, .L__func__._ZN5Botan12_GLOBAL__N_116aes_key_scheduleEPKhmRSt6vectorIjNS_16secure_allocatorIjEEES7_b
	mov	ecx, .L.str.5
	mov	r8d, 697
	call	_ZN5Botan17assertion_failureEPKcS1_S1_S1_i
.LBB18_121:
	mov	rdi, r15
	call	_ZNKSt6vectorIjN5Botan16secure_allocatorIjEEE4sizeEv
	mov	rdi, r14
	call	_ZNKSt6vectorIjN5Botan16secure_allocatorIjEEE4sizeEv
	add	rsp, 184
	pop	rbx
	pop	r12
	pop	r13
	pop	r14
	pop	r15
	pop	rbp
	ret
.LBB18_15:
	mov	edi, .L.str.9
	mov	esi, .L.str.8
	mov	edx, .L__func__._ZN5Botan12_GLOBAL__N_116aes_key_scheduleEPKhmRSt6vectorIjNS_16secure_allocatorIjEEES7_b
	mov	ecx, .L.str.5
	mov	r8d, 702
	call	_ZN5Botan17assertion_failureEPKcS1_S1_S1_i
.Lfunc_end18:
	.size	_ZN5Botan12_GLOBAL__N_116aes_key_scheduleEPKhmRSt6vectorIjNS_16secure_allocatorIjEEES7_b, .Lfunc_end18-_ZN5Botan12_GLOBAL__N_116aes_key_scheduleEPKhmRSt6vectorIjNS_16secure_allocatorIjEEES7_b
	.cfi_endproc

	.globl	_ZN5Botan7AES_1285clearEv 
	.p2align	1, 0x90
	.type	_ZN5Botan7AES_1285clearEv,@function
_ZN5Botan7AES_1285clearEv:              
	.cfi_startproc

	push	rbx
.Lcfi147:
	.cfi_def_cfa_offset 16
.Lcfi148:
	.cfi_offset rbx, -16
	mov	rbx, rdi
	lea	rdi, [rbx + 8]
	call	_ZN5Botan3zapIjNS_16secure_allocatorIjEEEEvRSt6vectorIT_T0_E
	add	rbx, 32
	mov	rdi, rbx
	pop	rbx
	jmp	_ZN5Botan3zapIjNS_16secure_allocatorIjEEEEvRSt6vectorIT_T0_E 
.Lfunc_end19:
	.size	_ZN5Botan7AES_1285clearEv, .Lfunc_end19-_ZN5Botan7AES_1285clearEv
	.cfi_endproc

	.section	.text._ZN5Botan3zapIjNS_16secure_allocatorIjEEEEvRSt6vectorIT_T0_E,"axG",@progbits,_ZN5Botan3zapIjNS_16secure_allocatorIjEEEEvRSt6vectorIT_T0_E,comdat
	.weak	_ZN5Botan3zapIjNS_16secure_allocatorIjEEEEvRSt6vectorIT_T0_E 
	.type	_ZN5Botan3zapIjNS_16secure_allocatorIjEEEEvRSt6vectorIT_T0_E,@function
_ZN5Botan3zapIjNS_16secure_allocatorIjEEEEvRSt6vectorIT_T0_E: 
	.cfi_startproc

	push	rbp
.Lcfi149:
	.cfi_def_cfa_offset 16
	push	r15
.Lcfi150:
	.cfi_def_cfa_offset 24
	push	r14
.Lcfi151:
	.cfi_def_cfa_offset 32
	push	r13
.Lcfi152:
	.cfi_def_cfa_offset 40
	push	r12
.Lcfi153:
	.cfi_def_cfa_offset 48
	push	rbx
.Lcfi154:
	.cfi_def_cfa_offset 56
	push	rax
.Lcfi155:
	.cfi_def_cfa_offset 64
.Lcfi156:
	.cfi_offset rbx, -56
.Lcfi157:
	.cfi_offset r12, -48
.Lcfi158:
	.cfi_offset r13, -40
.Lcfi159:
	.cfi_offset r14, -32
.Lcfi160:
	.cfi_offset r15, -24
.Lcfi161:
	.cfi_offset rbp, -16
	mov	r15, rdi
	mov	r14, qword ptr [r15]
	call	_ZNKSt6vectorIjN5Botan16secure_allocatorIjEEE4sizeEv
	mov	r12, rax
	mov	eax, dword ptr [rip + x.616]
	mov	ecx, dword ptr [rip + y.617]
	lea	edx, [rax - 1]
	imul	edx, eax
	mov	eax, edx
	xor	eax, -2
	test	eax, edx
	sete	byte ptr [rsp + 6]
	cmp	ecx, 10
	setl	byte ptr [rsp + 7]
	shl	r12, 2
	test	r12, r12
	mov	eax, 301272944
	mov	ebp, 433313854
	cmove	ebp, eax
	mov	eax, 1432239599
	mov	r13d, -1421143400
	jmp	.LBB20_1
.LBB20_10:                              
	cmp	eax, 1432239599
	jne	.LBB20_1

	mov	cl, byte ptr [rsp + 6]
	mov	al, byte ptr [rsp + 7]
	mov	edx, ecx
	xor	dl, al
	test	al, al
	mov	eax, -921956278
	cmovne	eax, r13d
	test	cl, cl
	mov	ecx, -921956278
	cmove	eax, ecx
	test	dl, dl
	cmovne	eax, r13d
	jmp	.LBB20_1
.LBB20_12:                              
	mov	eax, -951968858
	jmp	.LBB20_13
.LBB20_15:                              
	cmp	eax, 433313854
	jne	.LBB20_13

	xor	esi, esi
	mov	rdi, r14
	mov	rdx, r12
	call	memset
	mov	eax, 301272944
	jmp	.LBB20_13
.LBB20_17:                              
	mov	eax, ebp
.LBB20_13:                              

	cmp	eax, -951968858
	je	.LBB20_17

	cmp	eax, 301272944
	jne	.LBB20_15

	mov	eax, dword ptr [rip + x.616]
	mov	ecx, dword ptr [rip + y.617]
	lea	edx, [rax - 1]
	imul	edx, eax
	mov	eax, edx
	xor	eax, -2
	and	eax, edx
	sete	dl
	cmp	ecx, 10
	setl	bl
	xor	bl, dl
	mov	edx, -921956278
	mov	esi, 594363871
	cmovne	edx, esi
	test	eax, eax
	mov	eax, edx
	cmove	eax, esi
	cmp	ecx, 10
	cmovge	eax, edx
.LBB20_1:                               


	cmp	eax, 594363870
	jg	.LBB20_9

	cmp	eax, -1421143400
	je	.LBB20_12

	cmp	eax, -921956278
	jne	.LBB20_1

	mov	eax, -951968858
	jmp	.LBB20_5
.LBB20_7:                               
	cmp	eax, 433313854
	jne	.LBB20_5

	xor	esi, esi
	mov	rdi, r14
	mov	rdx, r12
	call	memset
	mov	eax, 301272944
	jmp	.LBB20_5
.LBB20_20:                              
	mov	eax, ebp
.LBB20_5:                               

	cmp	eax, -951968858
	je	.LBB20_20

	cmp	eax, 301272944
	jne	.LBB20_7

	mov	eax, -1421143400
	jmp	.LBB20_1
.LBB20_9:                               
	cmp	eax, 594363871
	jne	.LBB20_10

	mov	rsi, qword ptr [r15]
	mov	rdi, r15
	call	_ZNSt6vectorIjN5Botan16secure_allocatorIjEEE15_M_erase_at_endEPj
	mov	rdi, r15
	add	rsp, 8
	pop	rbx
	pop	r12
	pop	r13
	pop	r14
	pop	r15
	pop	rbp
	jmp	_ZNSt6vectorIjN5Botan16secure_allocatorIjEEE16_M_shrink_to_fitEv 
.Lfunc_end20:
	.size	_ZN5Botan3zapIjNS_16secure_allocatorIjEEEEvRSt6vectorIT_T0_E, .Lfunc_end20-_ZN5Botan3zapIjNS_16secure_allocatorIjEEEEvRSt6vectorIT_T0_E
	.cfi_endproc

	.text
	.globl	_ZNK5Botan7AES_1929encrypt_nEPKhPhm 
	.p2align	1, 0x90
	.type	_ZNK5Botan7AES_1929encrypt_nEPKhPhm,@function
_ZNK5Botan7AES_1929encrypt_nEPKhPhm:    
	.cfi_startproc

	push	rbp
.Lcfi162:
	.cfi_def_cfa_offset 16
	push	r15
.Lcfi163:
	.cfi_def_cfa_offset 24
	push	r14
.Lcfi164:
	.cfi_def_cfa_offset 32
	push	r13
.Lcfi165:
	.cfi_def_cfa_offset 40
	push	r12
.Lcfi166:
	.cfi_def_cfa_offset 48
	push	rbx
.Lcfi167:
	.cfi_def_cfa_offset 56
	push	rax
.Lcfi168:
	.cfi_def_cfa_offset 64
.Lcfi169:
	.cfi_offset rbx, -56
.Lcfi170:
	.cfi_offset r12, -48
.Lcfi171:
	.cfi_offset r13, -40
.Lcfi172:
	.cfi_offset r14, -32
.Lcfi173:
	.cfi_offset r15, -24
.Lcfi174:
	.cfi_offset rbp, -16
	mov	r14, rcx
	mov	r15, rdx
	mov	r13, rsi
	mov	r12, rdi
	lea	rax, [r12 + 8]
	mov	qword ptr [rsp], rax
	mov	rdi, qword ptr [rsp]
	call	_ZNKSt6vectorIjN5Botan16secure_allocatorIjEEE5emptyEv
	xor	al, 1
	movzx	esi, al
	mov	rdi, r12
	call	_ZNK5Botan18SymmetricAlgorithm14verify_key_setEb
	mov	eax, -295502767
	mov	ebp, -1
	jmp	.LBB21_1
.LBB21_25:                              
	mov	rdi, r12
	mov	rsi, r13
	mov	rdx, r15
	mov	rcx, r14
	call	_ZNK5Botan7AES_19216hw_aes_encrypt_nEPKhPhm
	mov	eax, dword ptr [rip + x.52]
	mov	ecx, dword ptr [rip + y.53]
	lea	edx, [rax - 1]
	imul	edx, eax
	not	edx
	or	edx, -2
	cmp	edx, ebp
	sete	bl
	mov	eax, 705895126
	mov	edx, -565243126
	mov	esi, 705895126
	jne	.LBB21_22
	jmp	.LBB21_23
.LBB21_29:                              
	mov	rdi, r12
	mov	rsi, r13
	mov	rdx, r15
	mov	rcx, r14
	call	_ZNK5Botan7AES_19216hw_aes_encrypt_nEPKhPhm
	mov	eax, -1526634887
	jmp	.LBB21_1
.LBB21_30:                              
	mov	rdi, r12
	mov	rsi, r13
	mov	rdx, r15
	mov	rcx, r14
	call	_ZNK5Botan7AES_19215vperm_encrypt_nEPKhPhm
	mov	eax, 1929339125
	jmp	.LBB21_1
.LBB21_20:                              
	call	_ZN5Botan5CPUID10has_hw_aesEv
	test	al, al
	mov	eax, -464535802
	mov	ecx, -101018190
	cmovne	eax, ecx
	jmp	.LBB21_1
.LBB21_21:                              
	mov	eax, dword ptr [rip + x.52]
	mov	ecx, dword ptr [rip + y.53]
	lea	edx, [rax - 1]
	imul	edx, eax
	not	edx
	or	edx, -2
	cmp	edx, ebp
	sete	bl
	mov	eax, -1526634887
	mov	edx, -565243126
	mov	esi, -1526634887
	je	.LBB21_23
.LBB21_22:                              
	mov	esi, -565243126
	jmp	.LBB21_23
.LBB21_28:                              
	mov	rdi, r12
	mov	rsi, r13
	mov	rdx, r15
	mov	rcx, r14
	call	_ZNK5Botan7AES_19215vperm_encrypt_nEPKhPhm
	mov	eax, dword ptr [rip + x.52]
	mov	ecx, dword ptr [rip + y.53]
	lea	edx, [rax - 1]
	imul	edx, eax
	not	edx
	or	edx, -2
	cmp	edx, ebp
	sete	bl
	mov	eax, 95524604
	mov	edx, 438749636
	mov	esi, 95524604
	jne	.LBB21_27
	jmp	.LBB21_23
.LBB21_26:                              
	mov	eax, dword ptr [rip + x.52]
	mov	ecx, dword ptr [rip + y.53]
	lea	edx, [rax - 1]
	imul	edx, eax
	mov	eax, edx
	xor	eax, -2
	and	eax, edx
	sete	bl
	test	eax, eax
	mov	eax, 1929339125
	mov	edx, 438749636
	mov	esi, 1929339125
	je	.LBB21_23
.LBB21_27:                              
	mov	esi, 438749636
.LBB21_23:                              
	cmp	ecx, 10
	setl	cl
	cmovl	edx, esi
	xor	cl, bl
	jne	.LBB21_1

	mov	eax, edx
.LBB21_1:                               
	cmp	eax, 438749635
	jg	.LBB21_10

	cmp	eax, -295502768
	jg	.LBB21_7

	cmp	eax, -1526634887
	je	.LBB21_25

	cmp	eax, -565243126
	je	.LBB21_29

	cmp	eax, -464535802
	jne	.LBB21_1

	mov	edi, 2
	call	_ZN5Botan5CPUID13has_cpuid_bitENS0_10CPUID_bitsE
	test	al, al
	mov	eax, 779772496
	mov	ecx, 2128426868
	cmovne	eax, ecx
	jmp	.LBB21_1
.LBB21_10:                              
	cmp	eax, 1399180574
	jg	.LBB21_16

	cmp	eax, 438749636
	je	.LBB21_30

	cmp	eax, 705895126
	je	.LBB21_15

	cmp	eax, 779772496
	jne	.LBB21_1

	mov	rcx, qword ptr [rsp]
	mov	rdi, r13
	mov	rsi, r15
	mov	rdx, r14
	call	_ZN5Botan12_GLOBAL__N_113aes_encrypt_nEPKhPhmRKSt6vectorIjNS_16secure_allocatorIjEEE
	jmp	.LBB21_15
.LBB21_7:                               
	cmp	eax, -295502767
	je	.LBB21_20

	cmp	eax, -101018190
	je	.LBB21_21

	cmp	eax, 95524604
	jne	.LBB21_1
.LBB21_15:                              
	mov	eax, 1399180575
	jmp	.LBB21_1
.LBB21_16:                              
	cmp	eax, 1929339125
	je	.LBB21_28

	cmp	eax, 2128426868
	je	.LBB21_26

	cmp	eax, 1399180575
	jne	.LBB21_1

	add	rsp, 8
	pop	rbx
	pop	r12
	pop	r13
	pop	r14
	pop	r15
	pop	rbp
	ret
.Lfunc_end21:
	.size	_ZNK5Botan7AES_1929encrypt_nEPKhPhm, .Lfunc_end21-_ZNK5Botan7AES_1929encrypt_nEPKhPhm
	.cfi_endproc

	.globl	_ZNK5Botan7AES_1929decrypt_nEPKhPhm 
	.p2align	1, 0x90
	.type	_ZNK5Botan7AES_1929decrypt_nEPKhPhm,@function
_ZNK5Botan7AES_1929decrypt_nEPKhPhm:    
	.cfi_startproc

	push	rbp
.Lcfi175:
	.cfi_def_cfa_offset 16
	push	r15
.Lcfi176:
	.cfi_def_cfa_offset 24
	push	r14
.Lcfi177:
	.cfi_def_cfa_offset 32
	push	r13
.Lcfi178:
	.cfi_def_cfa_offset 40
	push	r12
.Lcfi179:
	.cfi_def_cfa_offset 48
	push	rbx
.Lcfi180:
	.cfi_def_cfa_offset 56
	sub	rsp, 24
.Lcfi181:
	.cfi_def_cfa_offset 80
.Lcfi182:
	.cfi_offset rbx, -56
.Lcfi183:
	.cfi_offset r12, -48
.Lcfi184:
	.cfi_offset r13, -40
.Lcfi185:
	.cfi_offset r14, -32
.Lcfi186:
	.cfi_offset r15, -24
.Lcfi187:
	.cfi_offset rbp, -16
	mov	r14, rcx
	mov	r15, rdx
	mov	r13, rsi
	mov	r12, rdi
	lea	rax, [r12 + 32]
	mov	qword ptr [rsp + 16], rax
	mov	rdi, qword ptr [rsp + 16]
	call	_ZNKSt6vectorIjN5Botan16secure_allocatorIjEEE5emptyEv
	xor	al, 1
	movzx	esi, al
	mov	rdi, r12
	call	_ZNK5Botan18SymmetricAlgorithm14verify_key_setEb
	mov	ecx, 1236183988
	mov	ebp, -1
	jmp	.LBB22_1
.LBB22_12:                              
	cmp	ecx, 1236183987
	jg	.LBB22_17

	cmp	ecx, 639400127
	je	.LBB22_24

	cmp	ecx, 1211034052
	jne	.LBB22_1

	mov	al, byte ptr [rsp + 15]
	test	al, al
	mov	ecx, 639400127
	jne	.LBB22_1

	mov	ecx, -1286352655
	jmp	.LBB22_1
.LBB22_7:                               
	cmp	ecx, -48921712
	je	.LBB22_20

	cmp	ecx, 50141718
	jne	.LBB22_1

	mov	edi, 2
	call	_ZN5Botan5CPUID13has_cpuid_bitENS0_10CPUID_bitsE
	mov	ecx, dword ptr [rip + x.54]
	mov	edx, dword ptr [rip + y.55]
	lea	esi, [rcx - 1]
	imul	esi, ecx
	not	esi
	or	esi, -2
	cmp	esi, ebp
	sete	cl
	cmp	edx, 10
	setl	bl
	xor	bl, cl
	mov	ecx, 1211034052
	mov	edi, 1211034052
	jne	.LBB22_11

	mov	edi, -1945456022
.LBB22_11:                              
	cmp	esi, ebp
	cmovne	ecx, edi
	cmp	edx, 10
	mov	byte ptr [rsp + 15], al
	cmovge	ecx, edi
	jmp	.LBB22_1
.LBB22_17:                              
	cmp	ecx, 1620776969
	je	.LBB22_21

	cmp	ecx, 1236183988
	jne	.LBB22_1

	call	_ZN5Botan5CPUID10has_hw_aesEv
	test	al, al
	mov	ecx, 1620776969
	mov	eax, -48921712
	cmovne	ecx, eax
	jmp	.LBB22_1
.LBB22_26:                              
	mov	edi, 2
	call	_ZN5Botan5CPUID13has_cpuid_bitENS0_10CPUID_bitsE
	mov	ecx, 50141718
	jmp	.LBB22_1
.LBB22_25:                              
	mov	rcx, qword ptr [rsp + 16]
	mov	rdi, r13
	mov	rsi, r15
	mov	rdx, r14
	call	_ZN5Botan12_GLOBAL__N_113aes_decrypt_nEPKhPhmRKSt6vectorIjNS_16secure_allocatorIjEEE
	mov	ecx, -1721630033
	jmp	.LBB22_1
.LBB22_24:                              
	mov	rdi, r12
	mov	rsi, r13
	mov	rdx, r15
	mov	rcx, r14
	call	_ZNK5Botan7AES_19215vperm_decrypt_nEPKhPhm
	mov	ecx, -1721630033
	jmp	.LBB22_1
.LBB22_20:                              
	mov	rdi, r12
	mov	rsi, r13
	mov	rdx, r15
	mov	rcx, r14
	call	_ZNK5Botan7AES_19216hw_aes_decrypt_nEPKhPhm
	mov	ecx, -1721630033
	jmp	.LBB22_1
.LBB22_21:                              
	mov	ecx, dword ptr [rip + x.54]
	mov	eax, dword ptr [rip + y.55]
	lea	edx, [rcx - 1]
	imul	edx, ecx
	not	edx
	or	edx, -2
	cmp	edx, ebp
	sete	cl
	cmp	eax, 10
	setl	bl
	xor	bl, cl
	mov	ecx, 50141718
	mov	esi, 50141718
	jne	.LBB22_23

	mov	esi, -1945456022
.LBB22_23:                              
	cmp	edx, ebp
	cmovne	ecx, esi
	cmp	eax, 10
	cmovge	ecx, esi
.LBB22_1:                               
	cmp	ecx, 639400126
	jg	.LBB22_12

	cmp	ecx, -48921713
	jg	.LBB22_7

	cmp	ecx, -1945456022
	je	.LBB22_26

	cmp	ecx, -1286352655
	je	.LBB22_25

	cmp	ecx, -1721630033
	jne	.LBB22_1

	add	rsp, 24
	pop	rbx
	pop	r12
	pop	r13
	pop	r14
	pop	r15
	pop	rbp
	ret
.Lfunc_end22:
	.size	_ZNK5Botan7AES_1929decrypt_nEPKhPhm, .Lfunc_end22-_ZNK5Botan7AES_1929decrypt_nEPKhPhm
	.cfi_endproc

	.globl	_ZN5Botan7AES_19212key_scheduleEPKhm 
	.p2align	1, 0x90
	.type	_ZN5Botan7AES_19212key_scheduleEPKhm,@function
_ZN5Botan7AES_19212key_scheduleEPKhm:   
	.cfi_startproc

	push	rbp
.Lcfi188:
	.cfi_def_cfa_offset 16
	push	r15
.Lcfi189:
	.cfi_def_cfa_offset 24
	push	r14
.Lcfi190:
	.cfi_def_cfa_offset 32
	push	r13
.Lcfi191:
	.cfi_def_cfa_offset 40
	push	r12
.Lcfi192:
	.cfi_def_cfa_offset 48
	push	rbx
.Lcfi193:
	.cfi_def_cfa_offset 56
	push	rax
.Lcfi194:
	.cfi_def_cfa_offset 64
.Lcfi195:
	.cfi_offset rbx, -56
.Lcfi196:
	.cfi_offset r12, -48
.Lcfi197:
	.cfi_offset r13, -40
.Lcfi198:
	.cfi_offset r14, -32
.Lcfi199:
	.cfi_offset r15, -24
.Lcfi200:
	.cfi_offset rbp, -16
	mov	r14, rdx
	mov	rbp, rsi
	mov	r15, rdi
	lea	r12, [r15 + 8]
	lea	r13, [r15 + 32]
	mov	ecx, 2095436387
	jmp	.LBB23_1
.LBB23_27:                              
	cmp	ecx, 999147267
	je	.LBB23_49

	cmp	ecx, 1023522657
	jne	.LBB23_1

	mov	ecx, dword ptr [rip + x.56]
	mov	eax, dword ptr [rip + y.57]
	lea	esi, [rcx - 1]
	imul	esi, ecx
	mov	edx, esi
	xor	edx, -2
	and	edx, esi
	sete	cl
	cmp	eax, 10
	setl	bl
	xor	bl, cl
	mov	esi, 1144490196
	mov	ecx, 1144490196
	jne	.LBB23_52

	mov	ecx, -1463475492
	jmp	.LBB23_52
.LBB23_24:                              
	mov	ecx, -28551028
	jmp	.LBB23_1
.LBB23_66:                              
	mov	r8d, 1
	mov	rdi, rbp
	mov	rsi, r14
	mov	rdx, r12
	mov	rcx, r13
	call	_ZN5Botan12_GLOBAL__N_116aes_key_scheduleEPKhmRSt6vectorIjNS_16secure_allocatorIjEEES7_b
	mov	ecx, 834664163
	jmp	.LBB23_1
.LBB23_46:                              
	mov	ecx, dword ptr [rip + x.56]
	mov	eax, dword ptr [rip + y.57]
	mov	edx, ecx
	neg	edx
	not	edx
	imul	edx, ecx
	not	edx
	or	edx, -2
	mov	ecx, -1
	cmp	edx, ecx
	sete	bl
	mov	ecx, 1686177032
	mov	edx, 1065488324
	mov	esi, 1686177032
	jne	.LBB23_47
	jmp	.LBB23_36
.LBB23_63:                              
	xor	r8d, r8d
	mov	rdi, rbp
	mov	rsi, r14
	mov	rdx, r12
	mov	rcx, r13
	call	_ZN5Botan12_GLOBAL__N_116aes_key_scheduleEPKhmRSt6vectorIjNS_16secure_allocatorIjEEES7_b
	mov	ecx, dword ptr [rip + x.56]
	mov	eax, dword ptr [rip + y.57]
	lea	esi, [rcx - 1]
	imul	esi, ecx
	mov	edx, esi
	xor	edx, -2
	and	edx, esi
	sete	cl
	cmp	eax, 10
	setl	bl
	xor	bl, cl
	mov	esi, 1542956785
	mov	ecx, 1542956785
	jne	.LBB23_52

	mov	ecx, 1399243898
	jmp	.LBB23_52
.LBB23_68:                              
	xor	r8d, r8d
	mov	rdi, rbp
	mov	rsi, r14
	mov	rdx, r12
	mov	rcx, r13
	call	_ZN5Botan12_GLOBAL__N_116aes_key_scheduleEPKhmRSt6vectorIjNS_16secure_allocatorIjEEES7_b
	mov	ecx, 1325143625
	jmp	.LBB23_1
.LBB23_55:                              
	mov	r8d, 1
	mov	rdi, rbp
	mov	rsi, r14
	mov	rdx, r12
	mov	rcx, r13
	call	_ZN5Botan12_GLOBAL__N_116aes_key_scheduleEPKhmRSt6vectorIjNS_16secure_allocatorIjEEES7_b
	mov	ecx, dword ptr [rip + x.56]
	mov	eax, dword ptr [rip + y.57]
	lea	esi, [rcx - 1]
	imul	esi, ecx
	mov	edx, esi
	xor	edx, -2
	and	edx, esi
	sete	cl
	cmp	eax, 10
	setl	bl
	xor	bl, cl
	mov	esi, 439192258
	mov	ecx, 439192258
	je	.LBB23_51
	jmp	.LBB23_52
.LBB23_65:                              
	mov	rdi, r15
	mov	rsi, rbp
	mov	rdx, r14
	call	_ZN5Botan7AES_19218aesni_key_scheduleEPKhm
	mov	ecx, 1686177032
	jmp	.LBB23_1
.LBB23_56:                              
	mov	ecx, dword ptr [rip + x.56]
	mov	eax, dword ptr [rip + y.57]
	lea	edx, [rcx - 1]
	imul	edx, ecx
	not	edx
	or	edx, -2
	mov	ecx, -1
	cmp	edx, ecx
	sete	bl
	mov	ecx, -1650911480
	mov	edx, -1235644934
	mov	esi, -1650911480
	je	.LBB23_36

	mov	esi, -1235644934
	jmp	.LBB23_36
.LBB23_67:                              
	mov	rdi, r15
	mov	rsi, rbp
	mov	rdx, r14
	call	_ZN5Botan7AES_19218vperm_key_scheduleEPKhm
	mov	ecx, 1144490196
	jmp	.LBB23_1
.LBB23_48:                              
	mov	rdi, r15
	mov	rsi, rbp
	mov	rdx, r14
	call	_ZN5Botan7AES_19218aesni_key_scheduleEPKhm
	mov	ecx, dword ptr [rip + x.56]
	mov	eax, dword ptr [rip + y.57]
	lea	edx, [rcx - 1]
	imul	edx, ecx
	not	edx
	or	edx, -2
	mov	ecx, -1
	cmp	edx, ecx
	sete	bl
	mov	ecx, 853531032
	mov	edx, 1065488324
	mov	esi, 853531032
	je	.LBB23_36
.LBB23_47:                              
	mov	esi, 1065488324
.LBB23_36:                              
	cmp	eax, 10
	setl	al
	cmovl	edx, esi
	xor	al, bl
	jne	.LBB23_1

	mov	ecx, edx
	jmp	.LBB23_1
.LBB23_58:                              
	mov	al, byte ptr [rsp + 7]
	test	al, al
	mov	ecx, 1023522657
	jne	.LBB23_1

	mov	ecx, 1177505042
	jmp	.LBB23_1
.LBB23_50:                              
	mov	ecx, dword ptr [rip + x.56]
	mov	eax, dword ptr [rip + y.57]
	lea	esi, [rcx - 1]
	imul	esi, ecx
	mov	edx, esi
	xor	edx, -2
	and	edx, esi
	sete	cl
	cmp	eax, 10
	setl	bl
	xor	bl, cl
	mov	esi, 834664163
	mov	ecx, 834664163
	jne	.LBB23_52
.LBB23_51:                              
	mov	ecx, -1736034365
.LBB23_52:                              
	test	edx, edx
	je	.LBB23_54

	mov	esi, ecx
.LBB23_54:                              
	cmp	eax, 10
	cmovl	ecx, esi
	jmp	.LBB23_1
.LBB23_49:                              
	call	_ZN5Botan5CPUID10has_hw_aesEv
	test	al, al
	mov	ecx, -1524481432
	mov	eax, -1180775803
	cmovne	ecx, eax
	jmp	.LBB23_1
.LBB23_60:                              
	mov	rdi, r15
	mov	rsi, rbp
	mov	rdx, r14
	call	_ZN5Botan7AES_19218vperm_key_scheduleEPKhm
	mov	ecx, dword ptr [rip + x.56]
	mov	eax, dword ptr [rip + y.57]
	lea	edx, [rcx - 1]
	imul	edx, ecx
	not	edx
	or	edx, -2
	mov	ecx, -1
	cmp	edx, ecx
	sete	cl
	cmp	eax, 10
	setl	bl
	xor	bl, cl
	mov	ecx, -282875032
	mov	esi, -282875032
	jne	.LBB23_62

	mov	esi, -1463475492
.LBB23_62:                              
	mov	edi, -1
	cmp	edx, edi
	cmovne	ecx, esi
	cmp	eax, 10
	cmovge	ecx, esi
.LBB23_1:                               
	cmp	ecx, 999147266
	jg	.LBB23_25

	cmp	ecx, -1180775804
	jg	.LBB23_16

	cmp	ecx, -1524481433
	jg	.LBB23_12

	cmp	ecx, -1736034365
	je	.LBB23_66

	cmp	ecx, -1674579409
	je	.LBB23_46

	cmp	ecx, -1650911480
	jne	.LBB23_1

	mov	edi, 2
	call	_ZN5Botan5CPUID13has_cpuid_bitENS0_10CPUID_bitsE
	mov	ecx, dword ptr [rip + x.56]
	mov	edx, dword ptr [rip + y.57]
	mov	esi, ecx
	neg	esi
	not	esi
	imul	esi, ecx
	not	esi
	or	esi, -2
	mov	ecx, -1
	cmp	esi, ecx
	sete	cl
	cmp	edx, 10
	setl	bl
	xor	bl, cl
	mov	edi, 1785590438
	mov	ecx, 1785590438
	jne	.LBB23_9

	mov	ecx, -1235644934
.LBB23_9:                               
	mov	ebx, -1
	cmp	esi, ebx
	je	.LBB23_11

	mov	edi, ecx
.LBB23_11:                              
	cmp	edx, 10
	mov	byte ptr [rsp + 7], al
	cmovl	ecx, edi
	jmp	.LBB23_1
.LBB23_25:                              
	cmp	ecx, 1325143624
	jle	.LBB23_26

	cmp	ecx, 1686177031
	jg	.LBB23_42

	cmp	ecx, 1325143625
	je	.LBB23_63

	cmp	ecx, 1399243898
	je	.LBB23_68

	cmp	ecx, 1542956785
	jne	.LBB23_1
	jmp	.LBB23_24
.LBB23_16:                              
	cmp	ecx, 439192257
	jle	.LBB23_17

	cmp	ecx, 439192258
	je	.LBB23_24

	cmp	ecx, 834664163
	je	.LBB23_55

	cmp	ecx, 853531032
	jne	.LBB23_1
	jmp	.LBB23_24
.LBB23_26:                              
	cmp	ecx, 1065488323
	jle	.LBB23_27

	cmp	ecx, 1065488324
	je	.LBB23_65

	cmp	ecx, 1144490196
	je	.LBB23_60

	cmp	ecx, 1177505042
	jne	.LBB23_1

	mov	ecx, dword ptr [rip + x.56]
	mov	eax, dword ptr [rip + y.57]
	mov	edx, ecx
	neg	edx
	not	edx
	imul	edx, ecx
	mov	ecx, edx
	xor	ecx, -2
	and	ecx, edx
	sete	bl
	test	ecx, ecx
	mov	ecx, 1325143625
	mov	edx, 1399243898
	mov	esi, 1325143625
	je	.LBB23_36

	mov	esi, 1399243898
	jmp	.LBB23_36
.LBB23_12:                              
	cmp	ecx, -1524481432
	je	.LBB23_56

	cmp	ecx, -1463475492
	je	.LBB23_67

	cmp	ecx, -1235644934
	jne	.LBB23_1

	mov	edi, 2
	call	_ZN5Botan5CPUID13has_cpuid_bitENS0_10CPUID_bitsE
	mov	ecx, -1650911480
	jmp	.LBB23_1
.LBB23_42:                              
	cmp	ecx, 1686177032
	je	.LBB23_48

	cmp	ecx, 1785590438
	je	.LBB23_58

	cmp	ecx, 2095436387
	jne	.LBB23_1

	call	_ZN5Botan5CPUID10has_aes_niEv
	test	al, al
	mov	ecx, 999147267
	mov	eax, -1674579409
	cmovne	ecx, eax
	jmp	.LBB23_1
.LBB23_17:                              
	cmp	ecx, -1180775803
	je	.LBB23_50

	cmp	ecx, -282875032
	je	.LBB23_24

	cmp	ecx, -28551028
	jne	.LBB23_1

	add	rsp, 8
	pop	rbx
	pop	r12
	pop	r13
	pop	r14
	pop	r15
	pop	rbp
	ret
.Lfunc_end23:
	.size	_ZN5Botan7AES_19212key_scheduleEPKhm, .Lfunc_end23-_ZN5Botan7AES_19212key_scheduleEPKhm
	.cfi_endproc

	.globl	_ZN5Botan7AES_1925clearEv 
	.p2align	1, 0x90
	.type	_ZN5Botan7AES_1925clearEv,@function
_ZN5Botan7AES_1925clearEv:              
	.cfi_startproc

	push	rbp
.Lcfi201:
	.cfi_def_cfa_offset 16
	push	r15
.Lcfi202:
	.cfi_def_cfa_offset 24
	push	r14
.Lcfi203:
	.cfi_def_cfa_offset 32
	push	r12
.Lcfi204:
	.cfi_def_cfa_offset 40
	push	rbx
.Lcfi205:
	.cfi_def_cfa_offset 48
	sub	rsp, 16
.Lcfi206:
	.cfi_def_cfa_offset 64
.Lcfi207:
	.cfi_offset rbx, -48
.Lcfi208:
	.cfi_offset r12, -40
.Lcfi209:
	.cfi_offset r14, -32
.Lcfi210:
	.cfi_offset r15, -24
.Lcfi211:
	.cfi_offset rbp, -16
	mov	rbx, rdi
	mov	eax, dword ptr [rip + x.58]
	mov	ecx, dword ptr [rip + y.59]
	lea	edx, [rax - 1]
	imul	edx, eax
	not	edx
	or	edx, -2
	mov	eax, -1
	cmp	edx, eax
	sete	byte ptr [rsp + 14]
	cmp	ecx, 10
	setl	byte ptr [rsp + 15]
	lea	r14, [rbx + 8]
	add	rbx, 32
	mov	eax, 863182960
	mov	r12d, -1733222025
	mov	r15d, -427079764
	mov	ebp, 1598227454
	jmp	.LBB24_1
.LBB24_3:                               
	cmp	eax, -427079764
	jne	.LBB24_1

	mov	rdi, r14
	call	_ZN5Botan3zapIjNS_16secure_allocatorIjEEEEvRSt6vectorIT_T0_E
	mov	rdi, rbx
	call	_ZN5Botan3zapIjNS_16secure_allocatorIjEEEEvRSt6vectorIT_T0_E
	mov	eax, 1598227454
	jmp	.LBB24_1
.LBB24_5:                               
	cmp	eax, 1598227454
	je	.LBB24_8

	cmp	eax, 863182960
	jne	.LBB24_1

	mov	cl, byte ptr [rsp + 14]
	mov	al, byte ptr [rsp + 15]
	mov	edx, ecx
	xor	dl, al
	mov	edx, -427079764
	cmovne	edx, ebp
	test	al, al
	mov	eax, edx
	cmovne	eax, ebp
	test	cl, cl
	cmove	eax, edx
	jmp	.LBB24_1
.LBB24_8:                               
	mov	rdi, r14
	call	_ZN5Botan3zapIjNS_16secure_allocatorIjEEEEvRSt6vectorIT_T0_E
	mov	rdi, rbx
	call	_ZN5Botan3zapIjNS_16secure_allocatorIjEEEEvRSt6vectorIT_T0_E
	mov	eax, dword ptr [rip + x.58]
	lea	ecx, [rax - 1]
	imul	ecx, eax
	mov	eax, ecx
	xor	eax, -2
	and	eax, ecx
	sete	cl
	test	eax, eax
	mov	eax, -427079764
	cmove	eax, r12d
	cmp	dword ptr [rip + y.59], 10
	setl	dl
	cmovge	eax, r15d
	xor	dl, cl
	cmovne	eax, r12d
.LBB24_1:                               
	cmp	eax, 863182959
	jg	.LBB24_5

	cmp	eax, -1733222025
	jne	.LBB24_3

	add	rsp, 16
	pop	rbx
	pop	r12
	pop	r14
	pop	r15
	pop	rbp
	ret
.Lfunc_end24:
	.size	_ZN5Botan7AES_1925clearEv, .Lfunc_end24-_ZN5Botan7AES_1925clearEv
	.cfi_endproc

	.globl	_ZNK5Botan7AES_2569encrypt_nEPKhPhm 
	.p2align	1, 0x90
	.type	_ZNK5Botan7AES_2569encrypt_nEPKhPhm,@function
_ZNK5Botan7AES_2569encrypt_nEPKhPhm:    
	.cfi_startproc

	push	rbp
.Lcfi212:
	.cfi_def_cfa_offset 16
	push	r15
.Lcfi213:
	.cfi_def_cfa_offset 24
	push	r14
.Lcfi214:
	.cfi_def_cfa_offset 32
	push	r13
.Lcfi215:
	.cfi_def_cfa_offset 40
	push	r12
.Lcfi216:
	.cfi_def_cfa_offset 48
	push	rbx
.Lcfi217:
	.cfi_def_cfa_offset 56
	push	rax
.Lcfi218:
	.cfi_def_cfa_offset 64
.Lcfi219:
	.cfi_offset rbx, -56
.Lcfi220:
	.cfi_offset r12, -48
.Lcfi221:
	.cfi_offset r13, -40
.Lcfi222:
	.cfi_offset r14, -32
.Lcfi223:
	.cfi_offset r15, -24
.Lcfi224:
	.cfi_offset rbp, -16
	mov	r14, rcx
	mov	r15, rdx
	mov	r13, rsi
	mov	r12, rdi
	lea	rax, [r12 + 8]
	mov	qword ptr [rsp], rax
	mov	rdi, qword ptr [rsp]
	call	_ZNKSt6vectorIjN5Botan16secure_allocatorIjEEE5emptyEv
	xor	al, 1
	movzx	esi, al
	mov	rdi, r12
	call	_ZNK5Botan18SymmetricAlgorithm14verify_key_setEb
	mov	eax, -1691388787
	mov	ebp, -1
	jmp	.LBB25_1
.LBB25_2:                               
	cmp	eax, -1691388788
	jg	.LBB25_8

	cmp	eax, -2130559501
	je	.LBB25_26

	cmp	eax, -1853580773
	jne	.LBB25_1

	mov	eax, dword ptr [rip + x.60]
	mov	ecx, dword ptr [rip + y.61]
	lea	edx, [rax - 1]
	imul	edx, eax
	not	edx
	or	edx, -2
	cmp	edx, ebp
	sete	al
	cmp	ecx, 10
	setl	bl
	xor	bl, al
	mov	eax, -1147826018
	mov	esi, -1147826018
	jne	.LBB25_7

	mov	esi, -2130559501
.LBB25_7:                               
	cmp	edx, ebp
	cmovne	eax, esi
	cmp	ecx, 10
	cmovge	eax, esi
	jmp	.LBB25_1
.LBB25_19:                              
	cmp	eax, 1053339996
	je	.LBB25_25

	cmp	eax, 1827601303
	jne	.LBB25_1

	mov	rcx, qword ptr [rsp]
	mov	rdi, r13
	mov	rsi, r15
	mov	rdx, r14
	call	_ZN5Botan12_GLOBAL__N_113aes_encrypt_nEPKhPhmRKSt6vectorIjNS_16secure_allocatorIjEEE
	mov	eax, -1853580773
	jmp	.LBB25_1
.LBB25_8:                               
	cmp	eax, -1691388787
	je	.LBB25_22

	cmp	eax, -1147826018
	jne	.LBB25_1

	mov	eax, dword ptr [rip + x.60]
	mov	ecx, dword ptr [rip + y.61]
	lea	edx, [rax - 1]
	imul	edx, eax
	not	edx
	or	edx, -2
	cmp	edx, ebp
	sete	bl
	mov	eax, 148045497
	mov	edx, -2130559501
	mov	esi, 148045497
	je	.LBB25_12

	mov	esi, -2130559501
.LBB25_12:                              
	cmp	ecx, 10
	setl	cl
	cmovl	edx, esi
	xor	cl, bl
	jne	.LBB25_1

	mov	eax, edx
	jmp	.LBB25_1
.LBB25_23:                              
	mov	rdi, r12
	mov	rsi, r13
	mov	rdx, r15
	mov	rcx, r14
	call	_ZNK5Botan7AES_25616hw_aes_encrypt_nEPKhPhm
	mov	eax, -1853580773
	jmp	.LBB25_1
.LBB25_24:                              
	mov	edi, 2
	call	_ZN5Botan5CPUID13has_cpuid_bitENS0_10CPUID_bitsE
	test	al, al
	mov	eax, 1827601303
	mov	ecx, 1053339996
	cmovne	eax, ecx
	jmp	.LBB25_1
.LBB25_26:                              
	mov	eax, -1147826018
	jmp	.LBB25_1
.LBB25_25:                              
	mov	rdi, r12
	mov	rsi, r13
	mov	rdx, r15
	mov	rcx, r14
	call	_ZNK5Botan7AES_25615vperm_encrypt_nEPKhPhm
	mov	eax, -1853580773
	jmp	.LBB25_1
.LBB25_22:                              
	call	_ZN5Botan5CPUID10has_hw_aesEv
	test	al, al
	mov	eax, 878605743
	mov	ecx, -568822923
	cmovne	eax, ecx
.LBB25_1:                               
	cmp	eax, -568822924
	jle	.LBB25_2

	cmp	eax, 1053339995
	jg	.LBB25_19

	cmp	eax, -568822923
	je	.LBB25_23

	cmp	eax, 878605743
	je	.LBB25_24

	cmp	eax, 148045497
	jne	.LBB25_1

	add	rsp, 8
	pop	rbx
	pop	r12
	pop	r13
	pop	r14
	pop	r15
	pop	rbp
	ret
.Lfunc_end25:
	.size	_ZNK5Botan7AES_2569encrypt_nEPKhPhm, .Lfunc_end25-_ZNK5Botan7AES_2569encrypt_nEPKhPhm
	.cfi_endproc

	.globl	_ZNK5Botan7AES_2569decrypt_nEPKhPhm 
	.p2align	1, 0x90
	.type	_ZNK5Botan7AES_2569decrypt_nEPKhPhm,@function
_ZNK5Botan7AES_2569decrypt_nEPKhPhm:    
	.cfi_startproc

	push	rbp
.Lcfi225:
	.cfi_def_cfa_offset 16
	push	r15
.Lcfi226:
	.cfi_def_cfa_offset 24
	push	r14
.Lcfi227:
	.cfi_def_cfa_offset 32
	push	r13
.Lcfi228:
	.cfi_def_cfa_offset 40
	push	r12
.Lcfi229:
	.cfi_def_cfa_offset 48
	push	rbx
.Lcfi230:
	.cfi_def_cfa_offset 56
	push	rax
.Lcfi231:
	.cfi_def_cfa_offset 64
.Lcfi232:
	.cfi_offset rbx, -56
.Lcfi233:
	.cfi_offset r12, -48
.Lcfi234:
	.cfi_offset r13, -40
.Lcfi235:
	.cfi_offset r14, -32
.Lcfi236:
	.cfi_offset r15, -24
.Lcfi237:
	.cfi_offset rbp, -16
	mov	r14, rcx
	mov	r15, rdx
	mov	r12, rsi
	mov	rbx, rdi
	lea	rax, [rbx + 32]
	mov	qword ptr [rsp], rax
	mov	rdi, qword ptr [rsp]
	call	_ZNKSt6vectorIjN5Botan16secure_allocatorIjEEE5emptyEv
	xor	al, 1
	movzx	esi, al
	mov	rdi, rbx
	call	_ZNK5Botan18SymmetricAlgorithm14verify_key_setEb
	mov	eax, 510025311
	mov	r13d, 671614194
	mov	ebp, -571137085
	jmp	.LBB26_1
.LBB26_4:                               
	cmp	eax, -571137085
	jne	.LBB26_1

	mov	rdi, rbx
	mov	rsi, r12
	mov	rdx, r15
	mov	rcx, r14
	call	_ZNK5Botan7AES_25616hw_aes_decrypt_nEPKhPhm
	mov	eax, -580879454
	jmp	.LBB26_1
.LBB26_6:                               
	cmp	eax, 768968265
	je	.LBB26_10

	cmp	eax, 671614194
	je	.LBB26_11

	cmp	eax, 510025311
	jne	.LBB26_1

	call	_ZN5Botan5CPUID10has_hw_aesEv
	test	al, al
	mov	eax, 768968265
	cmovne	eax, ebp
	jmp	.LBB26_1
.LBB26_12:                              
	mov	rcx, qword ptr [rsp]
	mov	rdi, r12
	mov	rsi, r15
	mov	rdx, r14
	call	_ZN5Botan12_GLOBAL__N_113aes_decrypt_nEPKhPhmRKSt6vectorIjNS_16secure_allocatorIjEEE
	mov	eax, -580879454
	jmp	.LBB26_1
.LBB26_10:                              
	mov	edi, 2
	call	_ZN5Botan5CPUID13has_cpuid_bitENS0_10CPUID_bitsE
	test	al, al
	mov	eax, -921973017
	cmovne	eax, r13d
	jmp	.LBB26_1
.LBB26_11:                              
	mov	rdi, rbx
	mov	rsi, r12
	mov	rdx, r15
	mov	rcx, r14
	call	_ZNK5Botan7AES_25615vperm_decrypt_nEPKhPhm
	mov	eax, -580879454
.LBB26_1:                               
	cmp	eax, 510025310
	jg	.LBB26_6

	cmp	eax, -921973017
	je	.LBB26_12

	cmp	eax, -580879454
	jne	.LBB26_4

	add	rsp, 8
	pop	rbx
	pop	r12
	pop	r13
	pop	r14
	pop	r15
	pop	rbp
	ret
.Lfunc_end26:
	.size	_ZNK5Botan7AES_2569decrypt_nEPKhPhm, .Lfunc_end26-_ZNK5Botan7AES_2569decrypt_nEPKhPhm
	.cfi_endproc

	.globl	_ZN5Botan7AES_25612key_scheduleEPKhm 
	.p2align	1, 0x90
	.type	_ZN5Botan7AES_25612key_scheduleEPKhm,@function
_ZN5Botan7AES_25612key_scheduleEPKhm:   
	.cfi_startproc

	push	rbp
.Lcfi238:
	.cfi_def_cfa_offset 16
	push	r15
.Lcfi239:
	.cfi_def_cfa_offset 24
	push	r14
.Lcfi240:
	.cfi_def_cfa_offset 32
	push	r13
.Lcfi241:
	.cfi_def_cfa_offset 40
	push	r12
.Lcfi242:
	.cfi_def_cfa_offset 48
	push	rbx
.Lcfi243:
	.cfi_def_cfa_offset 56
	sub	rsp, 24
.Lcfi244:
	.cfi_def_cfa_offset 80
.Lcfi245:
	.cfi_offset rbx, -56
.Lcfi246:
	.cfi_offset r12, -48
.Lcfi247:
	.cfi_offset r13, -40
.Lcfi248:
	.cfi_offset r14, -32
.Lcfi249:
	.cfi_offset r15, -24
.Lcfi250:
	.cfi_offset rbp, -16
	mov	r14, rdx
	mov	r12, rsi
	mov	r15, rdi
	mov	eax, dword ptr [rip + x.64]
	mov	ecx, dword ptr [rip + y.65]
	lea	edx, [rax - 1]
	imul	edx, eax
	mov	eax, edx
	xor	eax, -2
	test	eax, edx
	sete	byte ptr [rsp + 12]
	cmp	ecx, 10
	setl	byte ptr [rsp + 13]
	lea	rax, [r15 + 8]
	mov	qword ptr [rsp + 16], rax 
	lea	r13, [r15 + 32]
	mov	ecx, -1412516667
	mov	ebp, -1
	jmp	.LBB27_1
.LBB27_4:                               
	cmp	ecx, -2105595723
	je	.LBB27_58

	cmp	ecx, -2093947056
	jne	.LBB27_1

	mov	rdi, r15
	mov	rsi, r12
	mov	rdx, r14
	call	_ZN5Botan7AES_25618vperm_key_scheduleEPKhm
	mov	ecx, -2105595723
	jmp	.LBB27_1
.LBB27_22:                              
	cmp	ecx, -817937525
	je	.LBB27_56

	cmp	ecx, -787075678
	jne	.LBB27_1

	call	_ZN5Botan5CPUID10has_aes_niEv
	mov	byte ptr [rsp + 14], al
	mov	ecx, dword ptr [rip + x.64]
	mov	eax, dword ptr [rip + y.65]
	lea	edx, [rcx - 1]
	imul	edx, ecx
	mov	ecx, edx
	xor	ecx, -2
	and	ecx, edx
	sete	bl
	test	ecx, ecx
	mov	ecx, -1806427385
	mov	edx, -1852281820
	mov	esi, -1806427385
	je	.LBB27_26

	mov	esi, -1852281820
	jmp	.LBB27_26
.LBB27_12:                              
	cmp	ecx, -1852281820
	je	.LBB27_67

	cmp	ecx, -1806427385
	jne	.LBB27_1

	mov	al, byte ptr [rsp + 14]
	test	al, al
	mov	ecx, 93599877
	jne	.LBB27_1

	mov	ecx, -327707550
	jmp	.LBB27_1
.LBB27_33:                              
	cmp	ecx, 214758345
	je	.LBB27_64

	cmp	ecx, 390119001
	jne	.LBB27_1

	mov	ecx, dword ptr [rip + x.64]
	mov	eax, dword ptr [rip + y.65]
	lea	edx, [rcx - 1]
	imul	edx, ecx
	not	edx
	or	edx, -2
	cmp	edx, ebp
	sete	bl
	mov	ecx, -2105595723
	mov	edx, -2093947056
	mov	esi, -2105595723
	je	.LBB27_26

	mov	esi, -2093947056
.LBB27_26:                              
	cmp	eax, 10
	setl	al
	cmovl	edx, esi
	xor	al, bl
	jne	.LBB27_1

	mov	ecx, edx
	jmp	.LBB27_1
.LBB27_45:                              
	mov	r8d, 1
	jmp	.LBB27_46
.LBB27_66:                              
	mov	ecx, dword ptr [rip + x.64]
	mov	eax, dword ptr [rip + y.65]
	lea	edx, [rcx - 1]
	imul	edx, ecx
	not	edx
	or	edx, -2
	cmp	edx, ebp
	sete	cl
	cmp	eax, 10
	setl	bl
	xor	bl, cl
	mov	ecx, 1354880083
	mov	esi, 1354880083
	je	.LBB27_65
	jmp	.LBB27_50
.LBB27_48:                              
	mov	ecx, dword ptr [rip + x.64]
	mov	eax, dword ptr [rip + y.65]
	lea	edx, [rcx - 1]
	imul	edx, ecx
	not	edx
	or	edx, -2
	cmp	edx, ebp
	sete	cl
	cmp	eax, 10
	setl	bl
	xor	bl, cl
	mov	ecx, -1370275849
	mov	esi, -1370275849
	jne	.LBB27_50

	mov	esi, -1874060865
	jmp	.LBB27_50
.LBB27_44:                              
	call	_ZN5Botan5CPUID10has_hw_aesEv
	test	al, al
	mov	ecx, -725666893
	mov	eax, -1888296623
	cmovne	ecx, eax
	jmp	.LBB27_1
.LBB27_41:                              
	mov	dl, byte ptr [rsp + 12]
	mov	cl, byte ptr [rsp + 13]
	mov	eax, edx
	xor	al, cl
	test	cl, cl
	mov	esi, -787075678
	mov	ecx, -1852281820
	mov	edi, -787075678
	jne	.LBB27_43

	mov	edi, -1852281820
.LBB27_43:                              
	test	dl, dl
	cmovne	ecx, edi
	test	al, al
	cmovne	ecx, esi
	jmp	.LBB27_1
.LBB27_51:                              
	mov	edi, 2
	call	_ZN5Botan5CPUID13has_cpuid_bitENS0_10CPUID_bitsE
	mov	ecx, dword ptr [rip + x.64]
	mov	edx, dword ptr [rip + y.65]
	mov	edi, ecx
	neg	edi
	not	edi
	imul	edi, ecx
	mov	esi, edi
	xor	esi, -2
	and	esi, edi
	sete	cl
	cmp	edx, 10
	setl	bl
	xor	bl, cl
	mov	edi, -817937525
	mov	ecx, -817937525
	jne	.LBB27_53

	mov	ecx, -1874060865
.LBB27_53:                              
	test	esi, esi
	je	.LBB27_55

	mov	edi, ecx
.LBB27_55:                              
	cmp	edx, 10
	mov	byte ptr [rsp + 15], al
	cmovl	ecx, edi
	jmp	.LBB27_1
.LBB27_56:                              
	mov	al, byte ptr [rsp + 15]
	test	al, al
	mov	ecx, 390119001
	jne	.LBB27_1

	mov	ecx, 1806807613
	jmp	.LBB27_1
.LBB27_64:                              
	mov	ecx, dword ptr [rip + x.64]
	mov	eax, dword ptr [rip + y.65]
	lea	edx, [rcx - 1]
	imul	edx, ecx
	not	edx
	or	edx, -2
	cmp	edx, ebp
	sete	cl
	cmp	eax, 10
	setl	bl
	xor	bl, cl
	mov	ecx, -1881103413
	mov	esi, -1881103413
	jne	.LBB27_50
.LBB27_65:                              
	mov	esi, -1344532496
.LBB27_50:                              
	cmp	edx, ebp
	cmovne	ecx, esi
	cmp	eax, 10
	cmovge	ecx, esi
	jmp	.LBB27_1
.LBB27_63:                              
	xor	r8d, r8d
.LBB27_46:                              
	mov	rdi, r12
	mov	rsi, r14
	mov	rdx, qword ptr [rsp + 16] 
	mov	rcx, r13
	call	_ZN5Botan12_GLOBAL__N_116aes_key_scheduleEPKhmRSt6vectorIjNS_16secure_allocatorIjEEES7_b
.LBB27_47:                              
	mov	ecx, 214758345
	jmp	.LBB27_1
.LBB27_58:                              
	mov	rdi, r15
	mov	rsi, r12
	mov	rdx, r14
	call	_ZN5Botan7AES_25618vperm_key_scheduleEPKhm
	mov	ecx, dword ptr [rip + x.64]
	mov	eax, dword ptr [rip + y.65]
	lea	esi, [rcx - 1]
	imul	esi, ecx
	mov	edx, esi
	xor	edx, -2
	and	edx, esi
	sete	cl
	cmp	eax, 10
	setl	bl
	xor	bl, cl
	mov	esi, 2102873088
	mov	ecx, 2102873088
	jne	.LBB27_60

	mov	ecx, -2093947056
.LBB27_60:                              
	test	edx, edx
	je	.LBB27_62

	mov	esi, ecx
.LBB27_62:                              
	cmp	eax, 10
	cmovl	ecx, esi
	jmp	.LBB27_1
.LBB27_67:                              
	call	_ZN5Botan5CPUID10has_aes_niEv
	mov	ecx, -787075678
.LBB27_1:                               
	cmp	ecx, -817937526
	jg	.LBB27_20

	cmp	ecx, -1852281821
	jg	.LBB27_11

	cmp	ecx, -1888296624
	jle	.LBB27_4

	cmp	ecx, -1888296623
	je	.LBB27_45

	cmp	ecx, -1881103413
	je	.LBB27_66

	cmp	ecx, -1874060865
	jne	.LBB27_1

	mov	edi, 2
	call	_ZN5Botan5CPUID13has_cpuid_bitENS0_10CPUID_bitsE
	mov	ecx, -1370275849
	jmp	.LBB27_1
.LBB27_20:                              
	cmp	ecx, 214758344
	jg	.LBB27_32

	cmp	ecx, -725666894
	jle	.LBB27_22

	cmp	ecx, -725666893
	je	.LBB27_48

	cmp	ecx, -327707550
	je	.LBB27_44

	cmp	ecx, 93599877
	jne	.LBB27_1

	mov	rdi, r15
	mov	rsi, r12
	mov	rdx, r14
	call	_ZN5Botan7AES_25618aesni_key_scheduleEPKhm
	jmp	.LBB27_47
.LBB27_11:                              
	cmp	ecx, -1412516668
	jle	.LBB27_12

	cmp	ecx, -1412516667
	je	.LBB27_41

	cmp	ecx, -1370275849
	je	.LBB27_51

	cmp	ecx, -1344532496
	jne	.LBB27_1

	mov	ecx, -1881103413
	jmp	.LBB27_1
.LBB27_32:                              
	cmp	ecx, 1354880082
	jle	.LBB27_33

	cmp	ecx, 1806807613
	je	.LBB27_63

	cmp	ecx, 2102873088
	je	.LBB27_47

	cmp	ecx, 1354880083
	jne	.LBB27_1

	add	rsp, 24
	pop	rbx
	pop	r12
	pop	r13
	pop	r14
	pop	r15
	pop	rbp
	ret
.Lfunc_end27:
	.size	_ZN5Botan7AES_25612key_scheduleEPKhm, .Lfunc_end27-_ZN5Botan7AES_25612key_scheduleEPKhm
	.cfi_endproc

	.globl	_ZN5Botan7AES_2565clearEv 
	.p2align	1, 0x90
	.type	_ZN5Botan7AES_2565clearEv,@function
_ZN5Botan7AES_2565clearEv:              
	.cfi_startproc

	push	rbx
.Lcfi251:
	.cfi_def_cfa_offset 16
.Lcfi252:
	.cfi_offset rbx, -16
	mov	rbx, rdi
	lea	rdi, [rbx + 8]
	call	_ZN5Botan3zapIjNS_16secure_allocatorIjEEEEvRSt6vectorIT_T0_E
	add	rbx, 32
	mov	rdi, rbx
	pop	rbx
	jmp	_ZN5Botan3zapIjNS_16secure_allocatorIjEEEEvRSt6vectorIT_T0_E 
.Lfunc_end28:
	.size	_ZN5Botan7AES_2565clearEv, .Lfunc_end28-_ZN5Botan7AES_2565clearEv
	.cfi_endproc

	.section	.text._ZN5Botan7AES_128D2Ev,"axG",@progbits,_ZN5Botan7AES_128D2Ev,comdat
	.weak	_ZN5Botan7AES_128D2Ev   
	.p2align	1, 0x90
	.type	_ZN5Botan7AES_128D2Ev,@function
_ZN5Botan7AES_128D2Ev:                  

	push	rbp
	push	r15
	push	r14
	push	r13
	push	r12
	push	rbx
	push	rax
	mov	rbp, rdi
	mov	eax, dword ptr [rip + x.68]
	mov	ecx, dword ptr [rip + y.69]
	lea	edx, [rax - 1]
	imul	edx, eax
	mov	eax, edx
	xor	eax, -2
	test	eax, edx
	sete	byte ptr [rsp + 6]
	cmp	ecx, 10
	setl	byte ptr [rsp + 7]
	lea	r14, [rbp + 32]
	lea	r15, [rbp + 8]
	mov	eax, 1617986268
	mov	r12d, -577056243
	mov	r13d, -682854096
	jmp	.LBB29_1
.LBB29_5:                               
	cmp	eax, 517669229
	je	.LBB29_9

	cmp	eax, 1617986268
	jne	.LBB29_1

	mov	cl, byte ptr [rsp + 6]
	mov	al, byte ptr [rsp + 7]
	mov	edx, ecx
	xor	dl, al
	mov	edx, 517669229
	cmovne	edx, r13d
	test	al, al
	mov	eax, edx
	cmovne	eax, r13d
	test	cl, cl
	cmove	eax, edx
	jmp	.LBB29_1
.LBB29_8:                               
	mov	qword ptr [rbp], _ZTVN5Botan7AES_128E+16
	mov	rdi, r14
	call	_ZNSt6vectorIjN5Botan16secure_allocatorIjEEED2Ev
	mov	rdi, r15
	call	_ZNSt6vectorIjN5Botan16secure_allocatorIjEEED2Ev
	mov	eax, dword ptr [rip + x.68]
	mov	ecx, dword ptr [rip + y.69]
	mov	edx, eax
	neg	edx
	not	edx
	imul	edx, eax
	mov	eax, edx
	xor	eax, -2
	and	eax, edx
	sete	dl
	cmp	ecx, 10
	setl	bl
	xor	bl, dl
	mov	edx, 517669229
	cmovne	edx, r12d
	test	eax, eax
	mov	eax, edx
	cmove	eax, r12d
	cmp	ecx, 10
	cmovge	eax, edx
	jmp	.LBB29_1
.LBB29_9:                               
	mov	qword ptr [rbp], _ZTVN5Botan7AES_128E+16
	mov	rdi, r14
	call	_ZNSt6vectorIjN5Botan16secure_allocatorIjEEED2Ev
	mov	rdi, r15
	call	_ZNSt6vectorIjN5Botan16secure_allocatorIjEEED2Ev
	mov	eax, -682854096
.LBB29_1:                               
	cmp	eax, 517669228
	jg	.LBB29_5

	cmp	eax, -682854096
	je	.LBB29_8

	cmp	eax, -577056243
	jne	.LBB29_1

	add	rsp, 8
	pop	rbx
	pop	r12
	pop	r13
	pop	r14
	pop	r15
	pop	rbp
	ret
.Lfunc_end29:
	.size	_ZN5Botan7AES_128D2Ev, .Lfunc_end29-_ZN5Botan7AES_128D2Ev

	.section	.text._ZN5Botan7AES_128D0Ev,"axG",@progbits,_ZN5Botan7AES_128D0Ev,comdat
	.weak	_ZN5Botan7AES_128D0Ev   
	.p2align	1, 0x90
	.type	_ZN5Botan7AES_128D0Ev,@function
_ZN5Botan7AES_128D0Ev:                  

	push	rbp
	push	r15
	push	r14
	push	r13
	push	r12
	push	rbx
	push	rax
	mov	rbx, rdi
	mov	eax, dword ptr [rip + x.68]
	mov	ecx, dword ptr [rip + y.69]
	lea	edx, [rax - 1]
	imul	edx, eax
	mov	eax, edx
	xor	eax, -2
	test	eax, edx
	sete	byte ptr [rsp + 6]
	cmp	ecx, 10
	setl	byte ptr [rsp + 7]
	lea	r14, [rbx + 32]
	lea	r15, [rbx + 8]
	mov	eax, 1617986268
	mov	r12d, -577056243
	mov	r13d, 517669229
	mov	ebp, -682854096
	jmp	.LBB30_1
.LBB30_5:                               
	cmp	eax, 517669229
	je	.LBB30_9

	cmp	eax, 1617986268
	jne	.LBB30_1

	mov	cl, byte ptr [rsp + 6]
	mov	al, byte ptr [rsp + 7]
	mov	edx, ecx
	xor	dl, al
	test	al, al
	mov	eax, 517669229
	cmovne	eax, ebp
	test	cl, cl
	cmove	eax, r13d
	test	dl, dl
	cmovne	eax, ebp
	jmp	.LBB30_1
.LBB30_8:                               
	mov	qword ptr [rbx], _ZTVN5Botan7AES_128E+16
	mov	rdi, r14
	call	_ZNSt6vectorIjN5Botan16secure_allocatorIjEEED2Ev
	mov	rdi, r15
	call	_ZNSt6vectorIjN5Botan16secure_allocatorIjEEED2Ev
	mov	eax, dword ptr [rip + x.68]
	mov	ecx, eax
	neg	ecx
	not	ecx
	imul	ecx, eax
	mov	eax, ecx
	xor	eax, -2
	and	eax, ecx
	sete	cl
	test	eax, eax
	mov	eax, 517669229
	cmove	eax, r12d
	cmp	dword ptr [rip + y.69], 10
	setl	dl
	cmovge	eax, r13d
	xor	dl, cl
	cmovne	eax, r12d
	jmp	.LBB30_1
.LBB30_9:                               
	mov	qword ptr [rbx], _ZTVN5Botan7AES_128E+16
	mov	rdi, r14
	call	_ZNSt6vectorIjN5Botan16secure_allocatorIjEEED2Ev
	mov	rdi, r15
	call	_ZNSt6vectorIjN5Botan16secure_allocatorIjEEED2Ev
	mov	eax, -682854096
.LBB30_1:                               
	cmp	eax, 517669228
	jg	.LBB30_5

	cmp	eax, -682854096
	je	.LBB30_8

	cmp	eax, -577056243
	jne	.LBB30_1

	mov	rdi, rbx
	add	rsp, 8
	pop	rbx
	pop	r12
	pop	r13
	pop	r14
	pop	r15
	pop	rbp
	jmp	_ZdlPv                  
.Lfunc_end30:
	.size	_ZN5Botan7AES_128D0Ev, .Lfunc_end30-_ZN5Botan7AES_128D0Ev

	.section	.rodata.cst16,"aM",@progbits,16
	.p2align	4               
.LCPI31_0:
	.quad	16                      
	.quad	16                      
	.section	.text._ZNK5Botan25Block_Cipher_Fixed_ParamsILm16ELm16ELm0ELm1ENS_11BlockCipherEE8key_specEv,"axG",@progbits,_ZNK5Botan25Block_Cipher_Fixed_ParamsILm16ELm16ELm0ELm1ENS_11BlockCipherEE8key_specEv,comdat
	.weak	_ZNK5Botan25Block_Cipher_Fixed_ParamsILm16ELm16ELm0ELm1ENS_11BlockCipherEE8key_specEv
	.p2align	1, 0x90
	.type	_ZNK5Botan25Block_Cipher_Fixed_ParamsILm16ELm16ELm0ELm1ENS_11BlockCipherEE8key_specEv,@function
_ZNK5Botan25Block_Cipher_Fixed_ParamsILm16ELm16ELm0ELm1ENS_11BlockCipherEE8key_specEv: 
	.cfi_startproc

	mov	eax, dword ptr [rip + x.72]
	mov	ecx, dword ptr [rip + y.73]
	lea	edx, [rax - 1]
	imul	edx, eax
	mov	eax, edx
	xor	eax, -2
	and	eax, edx
	sete	byte ptr [rsp - 2]
	sete	dl
	test	eax, eax
	mov	esi, 1245849924
	mov	r8d, -968138775
	mov	eax, -968138775
	cmove	eax, esi
	cmp	ecx, 10
	setl	cl
	setl	byte ptr [rsp - 1]
	cmovge	eax, r8d
	xor	cl, dl
	cmovne	eax, esi
	mov	edx, -1635854585
	mov	esi, -619946076
	movaps	xmm0, xmmword ptr [rip + .LCPI31_0] 
	jmp	.LBB31_1
.LBB31_8:                               
	mov	r8b, byte ptr [rsp - 2]
	mov	dl, byte ptr [rsp - 1]
	mov	ecx, r8d
	xor	cl, dl
	mov	ecx, -968138775
	cmovne	ecx, esi
	test	dl, dl
	mov	edx, ecx
	cmovne	edx, esi
	test	r8b, r8b
	cmove	edx, ecx
	jmp	.LBB31_1
.LBB31_9:                               
	movups	xmmword ptr [rdi], xmm0
	mov	qword ptr [rdi + 16], 1
	mov	edx, eax
.LBB31_1:                               
	cmp	edx, -619946077
	jg	.LBB31_5

	cmp	edx, -1635854585
	je	.LBB31_8

	cmp	edx, -968138775
	jne	.LBB31_1

	movups	xmmword ptr [rdi], xmm0
	mov	qword ptr [rdi + 16], 1
	mov	edx, -619946076
	jmp	.LBB31_1
.LBB31_5:                               
	cmp	edx, -619946076
	je	.LBB31_9

	cmp	edx, 1245849924
	jne	.LBB31_1

	mov	rax, rdi
	ret
.Lfunc_end31:
	.size	_ZNK5Botan25Block_Cipher_Fixed_ParamsILm16ELm16ELm0ELm1ENS_11BlockCipherEE8key_specEv, .Lfunc_end31-_ZNK5Botan25Block_Cipher_Fixed_ParamsILm16ELm16ELm0ELm1ENS_11BlockCipherEE8key_specEv
	.cfi_endproc

	.section	.text._ZNK5Botan7AES_1284nameB5cxx11Ev,"axG",@progbits,_ZNK5Botan7AES_1284nameB5cxx11Ev,comdat
	.weak	_ZNK5Botan7AES_1284nameB5cxx11Ev 
	.p2align	1, 0x90
	.type	_ZNK5Botan7AES_1284nameB5cxx11Ev,@function
_ZNK5Botan7AES_1284nameB5cxx11Ev:       
.Lfunc_begin3:
	.cfi_startproc
	.cfi_personality 3, __gxx_personality_v0
	.cfi_lsda 3, .Lexception3

	push	rbx
.Lcfi253:
	.cfi_def_cfa_offset 16
	sub	rsp, 16
.Lcfi254:
	.cfi_def_cfa_offset 32
.Lcfi255:
	.cfi_offset rbx, -16
	mov	rbx, rdi
.Ltmp9:
	lea	rdx, [rsp + 8]
	mov	esi, .L.str.11
	call	_ZNSt7__cxx1112basic_stringIcSt11char_traitsIcESaIcEEC2EPKcRKS3_
.Ltmp10:

	mov	rax, rbx
	add	rsp, 16
	pop	rbx
	ret
.LBB32_2:
.Ltmp11:
	mov	rdi, rax
	call	_Unwind_Resume
.Lfunc_end32:
	.size	_ZNK5Botan7AES_1284nameB5cxx11Ev, .Lfunc_end32-_ZNK5Botan7AES_1284nameB5cxx11Ev
	.cfi_endproc
	.section	.gcc_except_table,"a",@progbits
	.p2align	2
GCC_except_table32:
.Lexception3:
	.byte	255                     
	.byte	3                       
	.asciz	"\234"                  
	.byte	3                       
	.byte	26                      
	.long	.Ltmp9-.Lfunc_begin3    
	.long	.Ltmp10-.Ltmp9          
	.long	.Ltmp11-.Lfunc_begin3   
	.byte	0                       
	.long	.Ltmp10-.Lfunc_begin3   
	.long	.Lfunc_end32-.Ltmp10    
	.long	0                       
	.byte	0                       
	.p2align	2

	.section	.text._ZNK5Botan25Block_Cipher_Fixed_ParamsILm16ELm16ELm0ELm1ENS_11BlockCipherEE10block_sizeEv,"axG",@progbits,_ZNK5Botan25Block_Cipher_Fixed_ParamsILm16ELm16ELm0ELm1ENS_11BlockCipherEE10block_sizeEv,comdat
	.weak	_ZNK5Botan25Block_Cipher_Fixed_ParamsILm16ELm16ELm0ELm1ENS_11BlockCipherEE10block_sizeEv 
	.p2align	1, 0x90
	.type	_ZNK5Botan25Block_Cipher_Fixed_ParamsILm16ELm16ELm0ELm1ENS_11BlockCipherEE10block_sizeEv,@function
_ZNK5Botan25Block_Cipher_Fixed_ParamsILm16ELm16ELm0ELm1ENS_11BlockCipherEE10block_sizeEv: 

	mov	eax, 16
	ret
.Lfunc_end33:
	.size	_ZNK5Botan25Block_Cipher_Fixed_ParamsILm16ELm16ELm0ELm1ENS_11BlockCipherEE10block_sizeEv, .Lfunc_end33-_ZNK5Botan25Block_Cipher_Fixed_ParamsILm16ELm16ELm0ELm1ENS_11BlockCipherEE10block_sizeEv

	.section	.text._ZNK5Botan25Block_Cipher_Fixed_ParamsILm16ELm16ELm0ELm1ENS_11BlockCipherEE13encrypt_n_xexEPhPKhm,"axG",@progbits,_ZNK5Botan25Block_Cipher_Fixed_ParamsILm16ELm16ELm0ELm1ENS_11BlockCipherEE13encrypt_n_xexEPhPKhm,comdat
	.weak	_ZNK5Botan25Block_Cipher_Fixed_ParamsILm16ELm16ELm0ELm1ENS_11BlockCipherEE13encrypt_n_xexEPhPKhm 
	.p2align	1, 0x90
	.type	_ZNK5Botan25Block_Cipher_Fixed_ParamsILm16ELm16ELm0ELm1ENS_11BlockCipherEE13encrypt_n_xexEPhPKhm,@function
_ZNK5Botan25Block_Cipher_Fixed_ParamsILm16ELm16ELm0ELm1ENS_11BlockCipherEE13encrypt_n_xexEPhPKhm: 
	.cfi_startproc

	push	r15
.Lcfi256:
	.cfi_def_cfa_offset 16
	push	r14
.Lcfi257:
	.cfi_def_cfa_offset 24
	push	r13
.Lcfi258:
	.cfi_def_cfa_offset 32
	push	r12
.Lcfi259:
	.cfi_def_cfa_offset 40
	push	rbx
.Lcfi260:
	.cfi_def_cfa_offset 48
.Lcfi261:
	.cfi_offset rbx, -48
.Lcfi262:
	.cfi_offset r12, -40
.Lcfi263:
	.cfi_offset r13, -32
.Lcfi264:
	.cfi_offset r14, -24
.Lcfi265:
	.cfi_offset r15, -16
	mov	r15, rcx
	mov	r14, rdx
	mov	rbx, rsi
	mov	r12, rdi
	mov	r13, r15
	shl	r13, 4
	mov	rdi, rbx
	mov	rsi, r14
	mov	rdx, r13
	call	_ZN5Botan7xor_bufEPhPKhm
	mov	rax, qword ptr [r12]
	mov	rdi, r12
	mov	rsi, rbx
	mov	rdx, rbx
	mov	rcx, r15
	call	qword ptr [rax + 72]
	mov	rdi, rbx
	mov	rsi, r14
	mov	rdx, r13
	pop	rbx
	pop	r12
	pop	r13
	pop	r14
	pop	r15
	jmp	_ZN5Botan7xor_bufEPhPKhm 
.Lfunc_end34:
	.size	_ZNK5Botan25Block_Cipher_Fixed_ParamsILm16ELm16ELm0ELm1ENS_11BlockCipherEE13encrypt_n_xexEPhPKhm, .Lfunc_end34-_ZNK5Botan25Block_Cipher_Fixed_ParamsILm16ELm16ELm0ELm1ENS_11BlockCipherEE13encrypt_n_xexEPhPKhm
	.cfi_endproc

	.section	.text._ZNK5Botan25Block_Cipher_Fixed_ParamsILm16ELm16ELm0ELm1ENS_11BlockCipherEE13decrypt_n_xexEPhPKhm,"axG",@progbits,_ZNK5Botan25Block_Cipher_Fixed_ParamsILm16ELm16ELm0ELm1ENS_11BlockCipherEE13decrypt_n_xexEPhPKhm,comdat
	.weak	_ZNK5Botan25Block_Cipher_Fixed_ParamsILm16ELm16ELm0ELm1ENS_11BlockCipherEE13decrypt_n_xexEPhPKhm 
	.p2align	1, 0x90
	.type	_ZNK5Botan25Block_Cipher_Fixed_ParamsILm16ELm16ELm0ELm1ENS_11BlockCipherEE13decrypt_n_xexEPhPKhm,@function
_ZNK5Botan25Block_Cipher_Fixed_ParamsILm16ELm16ELm0ELm1ENS_11BlockCipherEE13decrypt_n_xexEPhPKhm: 
	.cfi_startproc

	push	r15
.Lcfi266:
	.cfi_def_cfa_offset 16
	push	r14
.Lcfi267:
	.cfi_def_cfa_offset 24
	push	r13
.Lcfi268:
	.cfi_def_cfa_offset 32
	push	r12
.Lcfi269:
	.cfi_def_cfa_offset 40
	push	rbx
.Lcfi270:
	.cfi_def_cfa_offset 48
.Lcfi271:
	.cfi_offset rbx, -48
.Lcfi272:
	.cfi_offset r12, -40
.Lcfi273:
	.cfi_offset r13, -32
.Lcfi274:
	.cfi_offset r14, -24
.Lcfi275:
	.cfi_offset r15, -16
	mov	r15, rcx
	mov	r14, rdx
	mov	rbx, rsi
	mov	r12, rdi
	mov	r13, r15
	shl	r13, 4
	mov	rdi, rbx
	mov	rsi, r14
	mov	rdx, r13
	call	_ZN5Botan7xor_bufEPhPKhm
	mov	rax, qword ptr [r12]
	mov	rdi, r12
	mov	rsi, rbx
	mov	rdx, rbx
	mov	rcx, r15
	call	qword ptr [rax + 80]
	mov	rdi, rbx
	mov	rsi, r14
	mov	rdx, r13
	pop	rbx
	pop	r12
	pop	r13
	pop	r14
	pop	r15
	jmp	_ZN5Botan7xor_bufEPhPKhm 
.Lfunc_end35:
	.size	_ZNK5Botan25Block_Cipher_Fixed_ParamsILm16ELm16ELm0ELm1ENS_11BlockCipherEE13decrypt_n_xexEPhPKhm, .Lfunc_end35-_ZNK5Botan25Block_Cipher_Fixed_ParamsILm16ELm16ELm0ELm1ENS_11BlockCipherEE13decrypt_n_xexEPhPKhm
	.cfi_endproc

	.section	.text._ZNK5Botan7AES_12810new_objectEv,"axG",@progbits,_ZNK5Botan7AES_12810new_objectEv,comdat
	.weak	_ZNK5Botan7AES_12810new_objectEv 
	.p2align	1, 0x90
	.type	_ZNK5Botan7AES_12810new_objectEv,@function
_ZNK5Botan7AES_12810new_objectEv:       
	.cfi_startproc

	push	rbp
.Lcfi276:
	.cfi_def_cfa_offset 16
.Lcfi277:
	.cfi_offset rbp, -16
	mov	rbp, rsp
.Lcfi278:
	.cfi_def_cfa_register rbp
	push	r15
	push	r14
	push	r12
	push	rbx
	sub	rsp, 16
.Lcfi279:
	.cfi_offset rbx, -48
.Lcfi280:
	.cfi_offset r12, -40
.Lcfi281:
	.cfi_offset r14, -32
.Lcfi282:
	.cfi_offset r15, -24
	mov	eax, dword ptr [rip + x.80]
	mov	ecx, eax
	neg	ecx
	not	ecx
	imul	ecx, eax
	not	ecx
	or	ecx, -2
	mov	eax, -1
	cmp	ecx, eax
	sete	byte ptr [rbp - 33]
	mov	eax, dword ptr [rip + y.81]
	cmp	eax, 10
	setl	byte ptr [rbp - 34]
	mov	r14, rdi
	mov	eax, 1120851860
	mov	r15d, 1935674823
	mov	r12d, 2096270442
	jmp	.LBB36_1
.LBB36_8:                               
	mov	rbx, rsp
	add	rbx, -16
	mov	rsp, rbx
	mov	rdi, rbx
	call	_ZSt11make_uniqueIN5Botan7AES_128EJEENSt9_MakeUniqIT_E15__single_objectEDpOT0_
	mov	rdi, r14
	mov	rsi, rbx
	call	_ZNSt10unique_ptrIN5Botan11BlockCipherESt14default_deleteIS1_EEC2INS0_7AES_128ES2_IS6_EvEEOS_IT_T0_E
	mov	rdi, rbx
	call	_ZNSt10unique_ptrIN5Botan7AES_128ESt14default_deleteIS1_EED2Ev
	mov	eax, 1935674823
	jmp	.LBB36_1
.LBB36_9:                               
	mov	rbx, rsp
	add	rbx, -16
	mov	rsp, rbx
	mov	rdi, rbx
	call	_ZSt11make_uniqueIN5Botan7AES_128EJEENSt9_MakeUniqIT_E15__single_objectEDpOT0_
	mov	rdi, r14
	mov	rsi, rbx
	call	_ZNSt10unique_ptrIN5Botan11BlockCipherESt14default_deleteIS1_EEC2INS0_7AES_128ES2_IS6_EvEEOS_IT_T0_E
	mov	rdi, rbx
	call	_ZNSt10unique_ptrIN5Botan7AES_128ESt14default_deleteIS1_EED2Ev
	mov	eax, dword ptr [rip + x.80]
	mov	ecx, dword ptr [rip + y.81]
	mov	edx, eax
	neg	edx
	not	edx
	imul	edx, eax
	mov	eax, edx
	xor	eax, -2
	and	eax, edx
	sete	dl
	cmp	ecx, 10
	setl	bl
	xor	bl, dl
	mov	edx, -763929104
	cmovne	edx, r12d
	test	eax, eax
	mov	eax, edx
	cmove	eax, r12d
	cmp	ecx, 10
	cmovge	eax, edx
.LBB36_1:                               
	cmp	eax, 1935674822
	jg	.LBB36_5

	cmp	eax, -763929104
	je	.LBB36_8

	cmp	eax, 1120851860
	jne	.LBB36_1

	mov	cl, byte ptr [rbp - 33]
	mov	al, byte ptr [rbp - 34]
	mov	edx, ecx
	xor	dl, al
	mov	edx, -763929104
	cmovne	edx, r15d
	test	al, al
	mov	eax, edx
	cmovne	eax, r15d
	test	cl, cl
	cmove	eax, edx
	jmp	.LBB36_1
.LBB36_5:                               
	cmp	eax, 1935674823
	je	.LBB36_9

	cmp	eax, 2096270442
	jne	.LBB36_1

	mov	rax, r14
	lea	rsp, [rbp - 32]
	pop	rbx
	pop	r12
	pop	r14
	pop	r15
	pop	rbp
	ret
.Lfunc_end36:
	.size	_ZNK5Botan7AES_12810new_objectEv, .Lfunc_end36-_ZNK5Botan7AES_12810new_objectEv
	.cfi_endproc

	.section	.text._ZN5Botan7AES_192D2Ev,"axG",@progbits,_ZN5Botan7AES_192D2Ev,comdat
	.weak	_ZN5Botan7AES_192D2Ev   
	.p2align	1, 0x90
	.type	_ZN5Botan7AES_192D2Ev,@function
_ZN5Botan7AES_192D2Ev:                  

	push	rbx
	mov	rbx, rdi
	mov	qword ptr [rbx], _ZTVN5Botan7AES_192E+16
	lea	rdi, [rbx + 32]
	call	_ZNSt6vectorIjN5Botan16secure_allocatorIjEEED2Ev
	add	rbx, 8
	mov	rdi, rbx
	pop	rbx
	jmp	_ZNSt6vectorIjN5Botan16secure_allocatorIjEEED2Ev 
.Lfunc_end37:
	.size	_ZN5Botan7AES_192D2Ev, .Lfunc_end37-_ZN5Botan7AES_192D2Ev

	.section	.text._ZN5Botan7AES_192D0Ev,"axG",@progbits,_ZN5Botan7AES_192D0Ev,comdat
	.weak	_ZN5Botan7AES_192D0Ev   
	.p2align	1, 0x90
	.type	_ZN5Botan7AES_192D0Ev,@function
_ZN5Botan7AES_192D0Ev:                  

	push	rbp
	push	r15
	push	r14
	push	r13
	push	r12
	push	rbx
	push	rax
	mov	rbx, rdi
	mov	eax, dword ptr [rip + x.84]
	mov	ecx, dword ptr [rip + y.85]
	mov	edx, eax
	neg	edx
	not	edx
	imul	edx, eax
	not	edx
	or	edx, -2
	mov	r13d, -1
	cmp	edx, r13d
	sete	byte ptr [rsp + 6]
	cmp	ecx, 10
	setl	byte ptr [rsp + 7]
	lea	r14, [rbx + 32]
	lea	r15, [rbx + 8]
	mov	eax, -1878454941
	mov	ebp, -991079874
	mov	r12d, 457639354
	jmp	.LBB38_1
.LBB38_6:                               
	cmp	eax, 817452828
	jne	.LBB38_1

	mov	qword ptr [rbx], _ZTVN5Botan7AES_192E+16
	mov	rdi, r14
	call	_ZNSt6vectorIjN5Botan16secure_allocatorIjEEED2Ev
	mov	rdi, r15
	call	_ZNSt6vectorIjN5Botan16secure_allocatorIjEEED2Ev
	mov	rdi, rbx
	call	_ZdlPv
	mov	eax, dword ptr [rip + x.84]
	lea	ecx, [rax - 1]
	imul	ecx, eax
	not	ecx
	or	ecx, -2
	cmp	ecx, r13d
	sete	cl
	mov	eax, -991079874
	cmove	eax, r12d
	cmp	dword ptr [rip + y.85], 10
	setl	dl
	cmovge	eax, ebp
	xor	dl, cl
	cmovne	eax, r12d
	jmp	.LBB38_1
.LBB38_9:                               
	mov	cl, byte ptr [rsp + 6]
	mov	al, byte ptr [rsp + 7]
	mov	edx, ecx
	xor	dl, al
	test	al, al
	mov	eax, -991079874
	mov	esi, 817452828
	cmovne	eax, esi
	test	cl, cl
	cmove	eax, ebp
	test	dl, dl
	cmovne	eax, esi
.LBB38_1:                               
	cmp	eax, 457639353
	jg	.LBB38_5

	cmp	eax, -1878454941
	je	.LBB38_9

	cmp	eax, -991079874
	jne	.LBB38_1

	mov	qword ptr [rbx], _ZTVN5Botan7AES_192E+16
	mov	rdi, r14
	call	_ZNSt6vectorIjN5Botan16secure_allocatorIjEEED2Ev
	mov	rdi, r15
	call	_ZNSt6vectorIjN5Botan16secure_allocatorIjEEED2Ev
	mov	rdi, rbx
	call	_ZdlPv
	mov	eax, 817452828
	jmp	.LBB38_1
.LBB38_5:                               
	cmp	eax, 457639354
	jne	.LBB38_6

	add	rsp, 8
	pop	rbx
	pop	r12
	pop	r13
	pop	r14
	pop	r15
	pop	rbp
	ret
.Lfunc_end38:
	.size	_ZN5Botan7AES_192D0Ev, .Lfunc_end38-_ZN5Botan7AES_192D0Ev

	.section	.rodata.cst16,"aM",@progbits,16
	.p2align	4               
.LCPI39_0:
	.quad	24                      
	.quad	24                      
	.section	.text._ZNK5Botan25Block_Cipher_Fixed_ParamsILm16ELm24ELm0ELm1ENS_11BlockCipherEE8key_specEv,"axG",@progbits,_ZNK5Botan25Block_Cipher_Fixed_ParamsILm16ELm24ELm0ELm1ENS_11BlockCipherEE8key_specEv,comdat
	.weak	_ZNK5Botan25Block_Cipher_Fixed_ParamsILm16ELm24ELm0ELm1ENS_11BlockCipherEE8key_specEv
	.p2align	1, 0x90
	.type	_ZNK5Botan25Block_Cipher_Fixed_ParamsILm16ELm24ELm0ELm1ENS_11BlockCipherEE8key_specEv,@function
_ZNK5Botan25Block_Cipher_Fixed_ParamsILm16ELm24ELm0ELm1ENS_11BlockCipherEE8key_specEv: 
	.cfi_startproc

	mov	eax, dword ptr [rip + x.86]
	mov	esi, dword ptr [rip + y.87]
	lea	ecx, [rax - 1]
	imul	ecx, eax
	mov	eax, ecx
	xor	eax, -2
	and	eax, ecx
	sete	byte ptr [rsp - 2]
	sete	dl
	test	eax, eax
	mov	r9d, 1861998708
	mov	r8d, -847182795
	mov	ecx, -847182795
	cmove	ecx, r9d
	cmp	esi, 10
	setl	al
	setl	byte ptr [rsp - 1]
	cmovge	ecx, r8d
	xor	al, dl
	cmovne	ecx, r9d
	mov	esi, 1335477545
	movaps	xmm0, xmmword ptr [rip + .LCPI39_0] 
	mov	r9d, 1452825023
	jmp	.LBB39_1
.LBB39_8:                               
	movups	xmmword ptr [rdi], xmm0
	mov	qword ptr [rdi + 16], 1
	mov	esi, 1452825023
	jmp	.LBB39_1
.LBB39_9:                               
	movups	xmmword ptr [rdi], xmm0
	mov	qword ptr [rdi + 16], 1
	mov	esi, ecx
.LBB39_1:                               
	cmp	esi, 1452825022
	jg	.LBB39_5

	cmp	esi, -847182795
	je	.LBB39_8

	cmp	esi, 1335477545
	jne	.LBB39_1

	mov	r10b, byte ptr [rsp - 2]
	mov	dl, byte ptr [rsp - 1]
	mov	eax, r10d
	xor	al, dl
	test	dl, dl
	mov	esi, -847182795
	cmovne	esi, r9d
	test	r10b, r10b
	cmove	esi, r8d
	test	al, al
	cmovne	esi, r9d
	jmp	.LBB39_1
.LBB39_5:                               
	cmp	esi, 1452825023
	je	.LBB39_9

	cmp	esi, 1861998708
	jne	.LBB39_1

	mov	rax, rdi
	ret
.Lfunc_end39:
	.size	_ZNK5Botan25Block_Cipher_Fixed_ParamsILm16ELm24ELm0ELm1ENS_11BlockCipherEE8key_specEv, .Lfunc_end39-_ZNK5Botan25Block_Cipher_Fixed_ParamsILm16ELm24ELm0ELm1ENS_11BlockCipherEE8key_specEv
	.cfi_endproc

	.section	.text._ZNK5Botan7AES_1924nameB5cxx11Ev,"axG",@progbits,_ZNK5Botan7AES_1924nameB5cxx11Ev,comdat
	.weak	_ZNK5Botan7AES_1924nameB5cxx11Ev 
	.p2align	1, 0x90
	.type	_ZNK5Botan7AES_1924nameB5cxx11Ev,@function
_ZNK5Botan7AES_1924nameB5cxx11Ev:       
.Lfunc_begin4:
	.cfi_startproc
	.cfi_personality 3, __gxx_personality_v0
	.cfi_lsda 3, .Lexception4

	push	rbx
.Lcfi283:
	.cfi_def_cfa_offset 16
	sub	rsp, 16
.Lcfi284:
	.cfi_def_cfa_offset 32
.Lcfi285:
	.cfi_offset rbx, -16
	mov	rbx, rdi
.Ltmp12:
	lea	rdx, [rsp + 8]
	mov	esi, .L.str.12
	call	_ZNSt7__cxx1112basic_stringIcSt11char_traitsIcESaIcEEC2EPKcRKS3_
.Ltmp13:

	mov	rax, rbx
	add	rsp, 16
	pop	rbx
	ret
.LBB40_2:
.Ltmp14:
	mov	rdi, rax
	call	_Unwind_Resume
.Lfunc_end40:
	.size	_ZNK5Botan7AES_1924nameB5cxx11Ev, .Lfunc_end40-_ZNK5Botan7AES_1924nameB5cxx11Ev
	.cfi_endproc
	.section	.gcc_except_table,"a",@progbits
	.p2align	2
GCC_except_table40:
.Lexception4:
	.byte	255                     
	.byte	3                       
	.asciz	"\234"                  
	.byte	3                       
	.byte	26                      
	.long	.Ltmp12-.Lfunc_begin4   
	.long	.Ltmp13-.Ltmp12         
	.long	.Ltmp14-.Lfunc_begin4   
	.byte	0                       
	.long	.Ltmp13-.Lfunc_begin4   
	.long	.Lfunc_end40-.Ltmp13    
	.long	0                       
	.byte	0                       
	.p2align	2

	.section	.text._ZNK5Botan25Block_Cipher_Fixed_ParamsILm16ELm24ELm0ELm1ENS_11BlockCipherEE10block_sizeEv,"axG",@progbits,_ZNK5Botan25Block_Cipher_Fixed_ParamsILm16ELm24ELm0ELm1ENS_11BlockCipherEE10block_sizeEv,comdat
	.weak	_ZNK5Botan25Block_Cipher_Fixed_ParamsILm16ELm24ELm0ELm1ENS_11BlockCipherEE10block_sizeEv 
	.p2align	1, 0x90
	.type	_ZNK5Botan25Block_Cipher_Fixed_ParamsILm16ELm24ELm0ELm1ENS_11BlockCipherEE10block_sizeEv,@function
_ZNK5Botan25Block_Cipher_Fixed_ParamsILm16ELm24ELm0ELm1ENS_11BlockCipherEE10block_sizeEv: 

	mov	eax, 16
	ret
.Lfunc_end41:
	.size	_ZNK5Botan25Block_Cipher_Fixed_ParamsILm16ELm24ELm0ELm1ENS_11BlockCipherEE10block_sizeEv, .Lfunc_end41-_ZNK5Botan25Block_Cipher_Fixed_ParamsILm16ELm24ELm0ELm1ENS_11BlockCipherEE10block_sizeEv

	.section	.text._ZNK5Botan25Block_Cipher_Fixed_ParamsILm16ELm24ELm0ELm1ENS_11BlockCipherEE13encrypt_n_xexEPhPKhm,"axG",@progbits,_ZNK5Botan25Block_Cipher_Fixed_ParamsILm16ELm24ELm0ELm1ENS_11BlockCipherEE13encrypt_n_xexEPhPKhm,comdat
	.weak	_ZNK5Botan25Block_Cipher_Fixed_ParamsILm16ELm24ELm0ELm1ENS_11BlockCipherEE13encrypt_n_xexEPhPKhm 
	.p2align	1, 0x90
	.type	_ZNK5Botan25Block_Cipher_Fixed_ParamsILm16ELm24ELm0ELm1ENS_11BlockCipherEE13encrypt_n_xexEPhPKhm,@function
_ZNK5Botan25Block_Cipher_Fixed_ParamsILm16ELm24ELm0ELm1ENS_11BlockCipherEE13encrypt_n_xexEPhPKhm: 
	.cfi_startproc

	push	r15
.Lcfi286:
	.cfi_def_cfa_offset 16
	push	r14
.Lcfi287:
	.cfi_def_cfa_offset 24
	push	r13
.Lcfi288:
	.cfi_def_cfa_offset 32
	push	r12
.Lcfi289:
	.cfi_def_cfa_offset 40
	push	rbx
.Lcfi290:
	.cfi_def_cfa_offset 48
.Lcfi291:
	.cfi_offset rbx, -48
.Lcfi292:
	.cfi_offset r12, -40
.Lcfi293:
	.cfi_offset r13, -32
.Lcfi294:
	.cfi_offset r14, -24
.Lcfi295:
	.cfi_offset r15, -16
	mov	r15, rcx
	mov	r14, rdx
	mov	rbx, rsi
	mov	r12, rdi
	mov	r13, r15
	shl	r13, 4
	mov	rdi, rbx
	mov	rsi, r14
	mov	rdx, r13
	call	_ZN5Botan7xor_bufEPhPKhm
	mov	rax, qword ptr [r12]
	mov	rdi, r12
	mov	rsi, rbx
	mov	rdx, rbx
	mov	rcx, r15
	call	qword ptr [rax + 72]
	mov	rdi, rbx
	mov	rsi, r14
	mov	rdx, r13
	pop	rbx
	pop	r12
	pop	r13
	pop	r14
	pop	r15
	jmp	_ZN5Botan7xor_bufEPhPKhm 
.Lfunc_end42:
	.size	_ZNK5Botan25Block_Cipher_Fixed_ParamsILm16ELm24ELm0ELm1ENS_11BlockCipherEE13encrypt_n_xexEPhPKhm, .Lfunc_end42-_ZNK5Botan25Block_Cipher_Fixed_ParamsILm16ELm24ELm0ELm1ENS_11BlockCipherEE13encrypt_n_xexEPhPKhm
	.cfi_endproc

	.section	.text._ZNK5Botan25Block_Cipher_Fixed_ParamsILm16ELm24ELm0ELm1ENS_11BlockCipherEE13decrypt_n_xexEPhPKhm,"axG",@progbits,_ZNK5Botan25Block_Cipher_Fixed_ParamsILm16ELm24ELm0ELm1ENS_11BlockCipherEE13decrypt_n_xexEPhPKhm,comdat
	.weak	_ZNK5Botan25Block_Cipher_Fixed_ParamsILm16ELm24ELm0ELm1ENS_11BlockCipherEE13decrypt_n_xexEPhPKhm 
	.p2align	1, 0x90
	.type	_ZNK5Botan25Block_Cipher_Fixed_ParamsILm16ELm24ELm0ELm1ENS_11BlockCipherEE13decrypt_n_xexEPhPKhm,@function
_ZNK5Botan25Block_Cipher_Fixed_ParamsILm16ELm24ELm0ELm1ENS_11BlockCipherEE13decrypt_n_xexEPhPKhm: 
	.cfi_startproc

	push	r15
.Lcfi296:
	.cfi_def_cfa_offset 16
	push	r14
.Lcfi297:
	.cfi_def_cfa_offset 24
	push	r13
.Lcfi298:
	.cfi_def_cfa_offset 32
	push	r12
.Lcfi299:
	.cfi_def_cfa_offset 40
	push	rbx
.Lcfi300:
	.cfi_def_cfa_offset 48
.Lcfi301:
	.cfi_offset rbx, -48
.Lcfi302:
	.cfi_offset r12, -40
.Lcfi303:
	.cfi_offset r13, -32
.Lcfi304:
	.cfi_offset r14, -24
.Lcfi305:
	.cfi_offset r15, -16
	mov	r15, rcx
	mov	r14, rdx
	mov	rbx, rsi
	mov	r12, rdi
	mov	r13, r15
	shl	r13, 4
	mov	rdi, rbx
	mov	rsi, r14
	mov	rdx, r13
	call	_ZN5Botan7xor_bufEPhPKhm
	mov	rax, qword ptr [r12]
	mov	rdi, r12
	mov	rsi, rbx
	mov	rdx, rbx
	mov	rcx, r15
	call	qword ptr [rax + 80]
	mov	rdi, rbx
	mov	rsi, r14
	mov	rdx, r13
	pop	rbx
	pop	r12
	pop	r13
	pop	r14
	pop	r15
	jmp	_ZN5Botan7xor_bufEPhPKhm 
.Lfunc_end43:
	.size	_ZNK5Botan25Block_Cipher_Fixed_ParamsILm16ELm24ELm0ELm1ENS_11BlockCipherEE13decrypt_n_xexEPhPKhm, .Lfunc_end43-_ZNK5Botan25Block_Cipher_Fixed_ParamsILm16ELm24ELm0ELm1ENS_11BlockCipherEE13decrypt_n_xexEPhPKhm
	.cfi_endproc

	.section	.text._ZNK5Botan7AES_19210new_objectEv,"axG",@progbits,_ZNK5Botan7AES_19210new_objectEv,comdat
	.weak	_ZNK5Botan7AES_19210new_objectEv 
	.p2align	1, 0x90
	.type	_ZNK5Botan7AES_19210new_objectEv,@function
_ZNK5Botan7AES_19210new_objectEv:       
	.cfi_startproc

	push	rbp
.Lcfi306:
	.cfi_def_cfa_offset 16
.Lcfi307:
	.cfi_offset rbp, -16
	mov	rbp, rsp
.Lcfi308:
	.cfi_def_cfa_register rbp
	push	r15
	push	r14
	push	r13
	push	r12
	push	rbx
	push	rax
.Lcfi309:
	.cfi_offset rbx, -56
.Lcfi310:
	.cfi_offset r12, -48
.Lcfi311:
	.cfi_offset r13, -40
.Lcfi312:
	.cfi_offset r14, -32
.Lcfi313:
	.cfi_offset r15, -24
	mov	r14, rdi
	mov	eax, dword ptr [rip + x.94]
	mov	ecx, dword ptr [rip + y.95]
	lea	edx, [rax - 1]
	imul	edx, eax
	mov	eax, edx
	xor	eax, -2
	test	eax, edx
	sete	byte ptr [rbp - 41]
	cmp	ecx, 10
	setl	byte ptr [rbp - 42]
	mov	eax, -1674610566
	mov	r12d, -183682615
	mov	r13d, 832293755
	jmp	.LBB44_1
.LBB44_3:                               
	cmp	eax, -1674610566
	jne	.LBB44_1

	mov	cl, byte ptr [rbp - 41]
	mov	al, byte ptr [rbp - 42]
	mov	edx, ecx
	xor	dl, al
	test	al, al
	mov	eax, 1483108272
	mov	esi, 489811119
	cmovne	eax, esi
	test	cl, cl
	mov	ecx, 1483108272
	cmove	eax, ecx
	test	dl, dl
	cmovne	eax, esi
	jmp	.LBB44_1
.LBB44_5:                               
	cmp	eax, 489811119
	je	.LBB44_12

	cmp	eax, 1483108272
	jne	.LBB44_1

	mov	r15, rsp
	add	r15, -16
	mov	rsp, r15
	mov	edi, 56
	call	_Znwm
	mov	rbx, rax
	xorps	xmm0, xmm0
	movaps	xmmword ptr [rbx + 32], xmm0
	movaps	xmmword ptr [rbx + 16], xmm0
	movaps	xmmword ptr [rbx], xmm0
	mov	qword ptr [rbx + 48], 0
	mov	eax, dword ptr [rip + x.268]
	mov	ecx, dword ptr [rip + y.269]
	mov	edx, eax
	neg	edx
	not	edx
	imul	edx, eax
	mov	eax, edx
	xor	eax, -2
	and	eax, edx
	sete	byte ptr [rbp - 45]
	sete	dl
	test	eax, eax
	mov	eax, -45342372
	cmove	eax, r12d
	cmp	ecx, 10
	setl	cl
	setl	byte ptr [rbp - 46]
	mov	esi, -45342372
	cmovge	eax, esi
	xor	cl, dl
	cmovne	eax, r12d
	mov	ecx, 471962752
	jmp	.LBB44_8
.LBB44_10:                              
	cmp	ecx, -45342372
	jne	.LBB44_8

	mov	qword ptr [rbx], _ZTVN5Botan11BlockCipherE+16
	mov	ecx, 832293755
	jmp	.LBB44_8
.LBB44_23:                              
	cmp	ecx, 832293755
	je	.LBB44_26

	cmp	ecx, 471962752
	jne	.LBB44_8

	mov	sil, byte ptr [rbp - 45]
	mov	cl, byte ptr [rbp - 46]
	mov	edx, esi
	xor	dl, cl
	mov	edx, -45342372
	cmovne	edx, r13d
	test	cl, cl
	mov	ecx, edx
	cmovne	ecx, r13d
	test	sil, sil
	cmove	ecx, edx
	jmp	.LBB44_8
.LBB44_26:                              
	mov	qword ptr [rbx], _ZTVN5Botan11BlockCipherE+16
	mov	ecx, eax
.LBB44_8:                               

	cmp	ecx, 471962751
	jg	.LBB44_23

	cmp	ecx, -183682615
	jne	.LBB44_10

	mov	qword ptr [rbx], _ZTVN5Botan7AES_192E+16
	lea	rdi, [rbx + 8]
	call	_ZNSt12_Vector_baseIjN5Botan16secure_allocatorIjEEE12_Vector_implC2Ev
	mov	rdi, rbx
	add	rdi, 32
	call	_ZNSt12_Vector_baseIjN5Botan16secure_allocatorIjEEE12_Vector_implC2Ev
	mov	qword ptr [r15], rbx
	mov	rdi, r14
	mov	rsi, r15
	call	_ZNSt10unique_ptrIN5Botan11BlockCipherESt14default_deleteIS1_EEC2INS0_7AES_192ES2_IS6_EvEEOS_IT_T0_E
	mov	rdi, r15
	call	_ZNSt10unique_ptrIN5Botan7AES_192ESt14default_deleteIS1_EED2Ev
	mov	eax, 489811119
	jmp	.LBB44_1
.LBB44_12:                              
	mov	r15, rsp
	add	r15, -16
	mov	rsp, r15
	mov	edi, 56
	call	_Znwm
	mov	rbx, rax
	xorps	xmm0, xmm0
	movaps	xmmword ptr [rbx + 32], xmm0
	movaps	xmmword ptr [rbx + 16], xmm0
	movaps	xmmword ptr [rbx], xmm0
	mov	qword ptr [rbx + 48], 0
	mov	eax, dword ptr [rip + x.268]
	mov	esi, dword ptr [rip + y.269]
	lea	edx, [rax - 1]
	imul	edx, eax
	mov	eax, edx
	xor	eax, -2
	and	eax, edx
	sete	dl
	sete	byte ptr [rbp - 43]
	cmp	esi, 10
	setl	cl
	xor	cl, dl
	mov	ecx, -45342372
	cmovne	ecx, r12d
	test	eax, eax
	mov	edi, ecx
	cmove	edi, r12d
	cmp	esi, 10
	setl	byte ptr [rbp - 44]
	cmovge	edi, ecx
	mov	ecx, 471962752
	jmp	.LBB44_13
.LBB44_15:                              
	cmp	ecx, -45342372
	jne	.LBB44_13

	mov	qword ptr [rbx], _ZTVN5Botan11BlockCipherE+16
	mov	ecx, 832293755
	jmp	.LBB44_13
.LBB44_17:                              
	cmp	ecx, 832293755
	je	.LBB44_20

	cmp	ecx, 471962752
	jne	.LBB44_13

	mov	al, byte ptr [rbp - 43]
	mov	cl, byte ptr [rbp - 44]
	mov	edx, eax
	xor	dl, cl
	mov	edx, -45342372
	cmovne	edx, r13d
	test	cl, cl
	mov	ecx, edx
	cmovne	ecx, r13d
	test	al, al
	cmove	ecx, edx
	jmp	.LBB44_13
.LBB44_20:                              
	mov	qword ptr [rbx], _ZTVN5Botan11BlockCipherE+16
	mov	ecx, edi
.LBB44_13:                              

	cmp	ecx, 471962751
	jg	.LBB44_17

	cmp	ecx, -183682615
	jne	.LBB44_15

	mov	qword ptr [rbx], _ZTVN5Botan7AES_192E+16
	lea	rdi, [rbx + 8]
	call	_ZNSt12_Vector_baseIjN5Botan16secure_allocatorIjEEE12_Vector_implC2Ev
	mov	rdi, rbx
	add	rdi, 32
	call	_ZNSt12_Vector_baseIjN5Botan16secure_allocatorIjEEE12_Vector_implC2Ev
	mov	qword ptr [r15], rbx
	mov	rdi, r14
	mov	rsi, r15
	call	_ZNSt10unique_ptrIN5Botan11BlockCipherESt14default_deleteIS1_EEC2INS0_7AES_192ES2_IS6_EvEEOS_IT_T0_E
	mov	rdi, r15
	call	_ZNSt10unique_ptrIN5Botan7AES_192ESt14default_deleteIS1_EED2Ev
	mov	eax, dword ptr [rip + x.94]
	mov	ecx, eax
	neg	ecx
	not	ecx
	imul	ecx, eax
	not	ecx
	or	ecx, -2
	mov	eax, -1
	cmp	ecx, eax
	sete	cl
	mov	eax, 1483108272
	mov	edi, -1789821100
	cmove	eax, edi
	cmp	dword ptr [rip + y.95], 10
	setl	dl
	mov	esi, 1483108272
	cmovge	eax, esi
	xor	dl, cl
	cmovne	eax, edi
.LBB44_1:                               


	cmp	eax, 489811118
	jg	.LBB44_5

	cmp	eax, -1789821100
	jne	.LBB44_3

	mov	rax, r14
	lea	rsp, [rbp - 40]
	pop	rbx
	pop	r12
	pop	r13
	pop	r14
	pop	r15
	pop	rbp
	ret
.Lfunc_end44:
	.size	_ZNK5Botan7AES_19210new_objectEv, .Lfunc_end44-_ZNK5Botan7AES_19210new_objectEv
	.cfi_endproc

	.section	.text._ZN5Botan7AES_256D2Ev,"axG",@progbits,_ZN5Botan7AES_256D2Ev,comdat
	.weak	_ZN5Botan7AES_256D2Ev   
	.p2align	1, 0x90
	.type	_ZN5Botan7AES_256D2Ev,@function
_ZN5Botan7AES_256D2Ev:                  

	push	rbx
	mov	rbx, rdi
	mov	qword ptr [rbx], _ZTVN5Botan7AES_256E+16
	lea	rdi, [rbx + 32]
	call	_ZNSt6vectorIjN5Botan16secure_allocatorIjEEED2Ev
	add	rbx, 8
	mov	rdi, rbx
	pop	rbx
	jmp	_ZNSt6vectorIjN5Botan16secure_allocatorIjEEED2Ev 
.Lfunc_end45:
	.size	_ZN5Botan7AES_256D2Ev, .Lfunc_end45-_ZN5Botan7AES_256D2Ev

	.section	.text._ZN5Botan7AES_256D0Ev,"axG",@progbits,_ZN5Botan7AES_256D0Ev,comdat
	.weak	_ZN5Botan7AES_256D0Ev   
	.p2align	1, 0x90
	.type	_ZN5Botan7AES_256D0Ev,@function
_ZN5Botan7AES_256D0Ev:                  

	push	rbx
	mov	rbx, rdi
	mov	qword ptr [rbx], _ZTVN5Botan7AES_256E+16
	lea	rdi, [rbx + 32]
	call	_ZNSt6vectorIjN5Botan16secure_allocatorIjEEED2Ev
	lea	rdi, [rbx + 8]
	call	_ZNSt6vectorIjN5Botan16secure_allocatorIjEEED2Ev
	mov	rdi, rbx
	pop	rbx
	jmp	_ZdlPv                  
.Lfunc_end46:
	.size	_ZN5Botan7AES_256D0Ev, .Lfunc_end46-_ZN5Botan7AES_256D0Ev

	.section	.rodata.cst16,"aM",@progbits,16
	.p2align	4               
.LCPI47_0:
	.quad	32                      
	.quad	32                      
	.section	.text._ZNK5Botan25Block_Cipher_Fixed_ParamsILm16ELm32ELm0ELm1ENS_11BlockCipherEE8key_specEv,"axG",@progbits,_ZNK5Botan25Block_Cipher_Fixed_ParamsILm16ELm32ELm0ELm1ENS_11BlockCipherEE8key_specEv,comdat
	.weak	_ZNK5Botan25Block_Cipher_Fixed_ParamsILm16ELm32ELm0ELm1ENS_11BlockCipherEE8key_specEv
	.p2align	1, 0x90
	.type	_ZNK5Botan25Block_Cipher_Fixed_ParamsILm16ELm32ELm0ELm1ENS_11BlockCipherEE8key_specEv,@function
_ZNK5Botan25Block_Cipher_Fixed_ParamsILm16ELm32ELm0ELm1ENS_11BlockCipherEE8key_specEv: 
	.cfi_startproc

	movaps	xmm0, xmmword ptr [rip + .LCPI47_0] 
	movups	xmmword ptr [rdi], xmm0
	mov	qword ptr [rdi + 16], 1
	mov	rax, rdi
	ret
.Lfunc_end47:
	.size	_ZNK5Botan25Block_Cipher_Fixed_ParamsILm16ELm32ELm0ELm1ENS_11BlockCipherEE8key_specEv, .Lfunc_end47-_ZNK5Botan25Block_Cipher_Fixed_ParamsILm16ELm32ELm0ELm1ENS_11BlockCipherEE8key_specEv
	.cfi_endproc

	.section	.text._ZNK5Botan7AES_2564nameB5cxx11Ev,"axG",@progbits,_ZNK5Botan7AES_2564nameB5cxx11Ev,comdat
	.weak	_ZNK5Botan7AES_2564nameB5cxx11Ev 
	.p2align	1, 0x90
	.type	_ZNK5Botan7AES_2564nameB5cxx11Ev,@function
_ZNK5Botan7AES_2564nameB5cxx11Ev:       
.Lfunc_begin5:
	.cfi_startproc
	.cfi_personality 3, __gxx_personality_v0
	.cfi_lsda 3, .Lexception5

	push	rbx
.Lcfi314:
	.cfi_def_cfa_offset 16
	sub	rsp, 16
.Lcfi315:
	.cfi_def_cfa_offset 32
.Lcfi316:
	.cfi_offset rbx, -16
	mov	rbx, rdi
.Ltmp15:
	lea	rdx, [rsp + 8]
	mov	esi, .L.str.13
	call	_ZNSt7__cxx1112basic_stringIcSt11char_traitsIcESaIcEEC2EPKcRKS3_
.Ltmp16:

	mov	rax, rbx
	add	rsp, 16
	pop	rbx
	ret
.LBB48_2:
.Ltmp17:
	mov	rdi, rax
	call	_Unwind_Resume
.Lfunc_end48:
	.size	_ZNK5Botan7AES_2564nameB5cxx11Ev, .Lfunc_end48-_ZNK5Botan7AES_2564nameB5cxx11Ev
	.cfi_endproc
	.section	.gcc_except_table,"a",@progbits
	.p2align	2
GCC_except_table48:
.Lexception5:
	.byte	255                     
	.byte	3                       
	.asciz	"\234"                  
	.byte	3                       
	.byte	26                      
	.long	.Ltmp15-.Lfunc_begin5   
	.long	.Ltmp16-.Ltmp15         
	.long	.Ltmp17-.Lfunc_begin5   
	.byte	0                       
	.long	.Ltmp16-.Lfunc_begin5   
	.long	.Lfunc_end48-.Ltmp16    
	.long	0                       
	.byte	0                       
	.p2align	2

	.section	.text._ZNK5Botan25Block_Cipher_Fixed_ParamsILm16ELm32ELm0ELm1ENS_11BlockCipherEE10block_sizeEv,"axG",@progbits,_ZNK5Botan25Block_Cipher_Fixed_ParamsILm16ELm32ELm0ELm1ENS_11BlockCipherEE10block_sizeEv,comdat
	.weak	_ZNK5Botan25Block_Cipher_Fixed_ParamsILm16ELm32ELm0ELm1ENS_11BlockCipherEE10block_sizeEv 
	.p2align	1, 0x90
	.type	_ZNK5Botan25Block_Cipher_Fixed_ParamsILm16ELm32ELm0ELm1ENS_11BlockCipherEE10block_sizeEv,@function
_ZNK5Botan25Block_Cipher_Fixed_ParamsILm16ELm32ELm0ELm1ENS_11BlockCipherEE10block_sizeEv: 

	mov	eax, 16
	ret
.Lfunc_end49:
	.size	_ZNK5Botan25Block_Cipher_Fixed_ParamsILm16ELm32ELm0ELm1ENS_11BlockCipherEE10block_sizeEv, .Lfunc_end49-_ZNK5Botan25Block_Cipher_Fixed_ParamsILm16ELm32ELm0ELm1ENS_11BlockCipherEE10block_sizeEv

	.section	.text._ZNK5Botan25Block_Cipher_Fixed_ParamsILm16ELm32ELm0ELm1ENS_11BlockCipherEE13encrypt_n_xexEPhPKhm,"axG",@progbits,_ZNK5Botan25Block_Cipher_Fixed_ParamsILm16ELm32ELm0ELm1ENS_11BlockCipherEE13encrypt_n_xexEPhPKhm,comdat
	.weak	_ZNK5Botan25Block_Cipher_Fixed_ParamsILm16ELm32ELm0ELm1ENS_11BlockCipherEE13encrypt_n_xexEPhPKhm 
	.p2align	1, 0x90
	.type	_ZNK5Botan25Block_Cipher_Fixed_ParamsILm16ELm32ELm0ELm1ENS_11BlockCipherEE13encrypt_n_xexEPhPKhm,@function
_ZNK5Botan25Block_Cipher_Fixed_ParamsILm16ELm32ELm0ELm1ENS_11BlockCipherEE13encrypt_n_xexEPhPKhm: 
	.cfi_startproc

	push	rbp
.Lcfi317:
	.cfi_def_cfa_offset 16
	push	r15
.Lcfi318:
	.cfi_def_cfa_offset 24
	push	r14
.Lcfi319:
	.cfi_def_cfa_offset 32
	push	r13
.Lcfi320:
	.cfi_def_cfa_offset 40
	push	r12
.Lcfi321:
	.cfi_def_cfa_offset 48
	push	rbx
.Lcfi322:
	.cfi_def_cfa_offset 56
	push	rax
.Lcfi323:
	.cfi_def_cfa_offset 64
.Lcfi324:
	.cfi_offset rbx, -56
.Lcfi325:
	.cfi_offset r12, -48
.Lcfi326:
	.cfi_offset r13, -40
.Lcfi327:
	.cfi_offset r14, -32
.Lcfi328:
	.cfi_offset r15, -24
.Lcfi329:
	.cfi_offset rbp, -16
	mov	r14, rcx
	mov	r15, rdx
	mov	rbp, rsi
	mov	r12, rdi
	mov	eax, dword ptr [rip + x.104]
	lea	ecx, [rax - 1]
	imul	ecx, eax
	mov	eax, ecx
	xor	eax, -2
	test	eax, ecx
	sete	byte ptr [rsp + 6]
	mov	eax, dword ptr [rip + y.105]
	cmp	eax, 10
	setl	byte ptr [rsp + 7]
	mov	r13, r14
	shl	r13, 4
	mov	eax, 1772163378
	jmp	.LBB50_1
.LBB50_3:                               
	cmp	eax, 1270779578
	jne	.LBB50_1

	mov	rdi, rbp
	mov	rsi, r15
	mov	rdx, r13
	call	_ZN5Botan7xor_bufEPhPKhm
	mov	rax, qword ptr [r12]
	mov	rdi, r12
	mov	rsi, rbp
	mov	rdx, rbp
	mov	rcx, r14
	call	qword ptr [rax + 72]
	mov	rdi, rbp
	mov	rsi, r15
	mov	rdx, r13
	call	_ZN5Botan7xor_bufEPhPKhm
	mov	eax, 1985582116
	jmp	.LBB50_1
.LBB50_5:                               
	cmp	eax, 1985582116
	je	.LBB50_8

	cmp	eax, 1772163378
	jne	.LBB50_1

	mov	cl, byte ptr [rsp + 6]
	mov	al, byte ptr [rsp + 7]
	mov	edx, ecx
	xor	dl, al
	mov	edx, 1270779578
	mov	esi, 1985582116
	cmovne	edx, esi
	test	al, al
	mov	eax, edx
	cmovne	eax, esi
	test	cl, cl
	cmove	eax, edx
	jmp	.LBB50_1
.LBB50_8:                               
	mov	rdi, rbp
	mov	rsi, r15
	mov	rdx, r13
	call	_ZN5Botan7xor_bufEPhPKhm
	mov	rax, qword ptr [r12]
	mov	rdi, r12
	mov	rsi, rbp
	mov	rdx, rbp
	mov	rcx, r14
	call	qword ptr [rax + 72]
	mov	rdi, rbp
	mov	rsi, r15
	mov	rdx, r13
	call	_ZN5Botan7xor_bufEPhPKhm
	mov	eax, dword ptr [rip + x.104]
	mov	ecx, dword ptr [rip + y.105]
	mov	edx, eax
	neg	edx
	not	edx
	imul	edx, eax
	mov	eax, edx
	xor	eax, -2
	and	eax, edx
	sete	dl
	cmp	ecx, 10
	setl	bl
	xor	bl, dl
	mov	edx, 1270779578
	mov	esi, -1491122097
	cmovne	edx, esi
	test	eax, eax
	mov	eax, edx
	cmove	eax, esi
	cmp	ecx, 10
	cmovge	eax, edx
.LBB50_1:                               
	cmp	eax, 1772163377
	jg	.LBB50_5

	cmp	eax, -1491122097
	jne	.LBB50_3

	add	rsp, 8
	pop	rbx
	pop	r12
	pop	r13
	pop	r14
	pop	r15
	pop	rbp
	ret
.Lfunc_end50:
	.size	_ZNK5Botan25Block_Cipher_Fixed_ParamsILm16ELm32ELm0ELm1ENS_11BlockCipherEE13encrypt_n_xexEPhPKhm, .Lfunc_end50-_ZNK5Botan25Block_Cipher_Fixed_ParamsILm16ELm32ELm0ELm1ENS_11BlockCipherEE13encrypt_n_xexEPhPKhm
	.cfi_endproc

	.section	.text._ZNK5Botan25Block_Cipher_Fixed_ParamsILm16ELm32ELm0ELm1ENS_11BlockCipherEE13decrypt_n_xexEPhPKhm,"axG",@progbits,_ZNK5Botan25Block_Cipher_Fixed_ParamsILm16ELm32ELm0ELm1ENS_11BlockCipherEE13decrypt_n_xexEPhPKhm,comdat
	.weak	_ZNK5Botan25Block_Cipher_Fixed_ParamsILm16ELm32ELm0ELm1ENS_11BlockCipherEE13decrypt_n_xexEPhPKhm 
	.p2align	1, 0x90
	.type	_ZNK5Botan25Block_Cipher_Fixed_ParamsILm16ELm32ELm0ELm1ENS_11BlockCipherEE13decrypt_n_xexEPhPKhm,@function
_ZNK5Botan25Block_Cipher_Fixed_ParamsILm16ELm32ELm0ELm1ENS_11BlockCipherEE13decrypt_n_xexEPhPKhm: 
	.cfi_startproc

	push	r15
.Lcfi330:
	.cfi_def_cfa_offset 16
	push	r14
.Lcfi331:
	.cfi_def_cfa_offset 24
	push	r13
.Lcfi332:
	.cfi_def_cfa_offset 32
	push	r12
.Lcfi333:
	.cfi_def_cfa_offset 40
	push	rbx
.Lcfi334:
	.cfi_def_cfa_offset 48
.Lcfi335:
	.cfi_offset rbx, -48
.Lcfi336:
	.cfi_offset r12, -40
.Lcfi337:
	.cfi_offset r13, -32
.Lcfi338:
	.cfi_offset r14, -24
.Lcfi339:
	.cfi_offset r15, -16
	mov	r15, rcx
	mov	r14, rdx
	mov	rbx, rsi
	mov	r12, rdi
	mov	r13, r15
	shl	r13, 4
	mov	rdi, rbx
	mov	rsi, r14
	mov	rdx, r13
	call	_ZN5Botan7xor_bufEPhPKhm
	mov	rax, qword ptr [r12]
	mov	rdi, r12
	mov	rsi, rbx
	mov	rdx, rbx
	mov	rcx, r15
	call	qword ptr [rax + 80]
	mov	rdi, rbx
	mov	rsi, r14
	mov	rdx, r13
	pop	rbx
	pop	r12
	pop	r13
	pop	r14
	pop	r15
	jmp	_ZN5Botan7xor_bufEPhPKhm 
.Lfunc_end51:
	.size	_ZNK5Botan25Block_Cipher_Fixed_ParamsILm16ELm32ELm0ELm1ENS_11BlockCipherEE13decrypt_n_xexEPhPKhm, .Lfunc_end51-_ZNK5Botan25Block_Cipher_Fixed_ParamsILm16ELm32ELm0ELm1ENS_11BlockCipherEE13decrypt_n_xexEPhPKhm
	.cfi_endproc

	.section	.text._ZNK5Botan7AES_25610new_objectEv,"axG",@progbits,_ZNK5Botan7AES_25610new_objectEv,comdat
	.weak	_ZNK5Botan7AES_25610new_objectEv 
	.p2align	1, 0x90
	.type	_ZNK5Botan7AES_25610new_objectEv,@function
_ZNK5Botan7AES_25610new_objectEv:       
	.cfi_startproc

	push	r14
.Lcfi340:
	.cfi_def_cfa_offset 16
	push	rbx
.Lcfi341:
	.cfi_def_cfa_offset 24
	push	rax
.Lcfi342:
	.cfi_def_cfa_offset 32
.Lcfi343:
	.cfi_offset rbx, -24
.Lcfi344:
	.cfi_offset r14, -16
	mov	rbx, rdi
	mov	r14, rsp
	mov	rdi, r14
	call	_ZSt11make_uniqueIN5Botan7AES_256EJEENSt9_MakeUniqIT_E15__single_objectEDpOT0_
	mov	rdi, rbx
	mov	rsi, r14
	call	_ZNSt10unique_ptrIN5Botan11BlockCipherESt14default_deleteIS1_EEC2INS0_7AES_256ES2_IS6_EvEEOS_IT_T0_E
	mov	rdi, r14
	call	_ZNSt10unique_ptrIN5Botan7AES_256ESt14default_deleteIS1_EED2Ev
	mov	rax, rbx
	add	rsp, 8
	pop	rbx
	pop	r14
	ret
.Lfunc_end52:
	.size	_ZNK5Botan7AES_25610new_objectEv, .Lfunc_end52-_ZNK5Botan7AES_25610new_objectEv
	.cfi_endproc

	.section	.text._ZN5Botan5CPUID13has_cpuid_bitENS0_10CPUID_bitsE,"axG",@progbits,_ZN5Botan5CPUID13has_cpuid_bitENS0_10CPUID_bitsE,comdat
	.weak	_ZN5Botan5CPUID13has_cpuid_bitENS0_10CPUID_bitsE 
	.p2align	1, 0x90
	.type	_ZN5Botan5CPUID13has_cpuid_bitENS0_10CPUID_bitsE,@function
_ZN5Botan5CPUID13has_cpuid_bitENS0_10CPUID_bitsE: 
	.cfi_startproc

	push	rbp
.Lcfi345:
	.cfi_def_cfa_offset 16
	push	r15
.Lcfi346:
	.cfi_def_cfa_offset 24
	push	r14
.Lcfi347:
	.cfi_def_cfa_offset 32
	push	rbx
.Lcfi348:
	.cfi_def_cfa_offset 40
	push	rax
.Lcfi349:
	.cfi_def_cfa_offset 48
.Lcfi350:
	.cfi_offset rbx, -40
.Lcfi351:
	.cfi_offset r14, -32
.Lcfi352:
	.cfi_offset r15, -24
.Lcfi353:
	.cfi_offset rbp, -16
	mov	eax, dword ptr [rip + x.112]
	mov	ecx, eax
	neg	ecx
	not	ecx
	imul	ecx, eax
	not	ecx
	or	ecx, -2
	mov	eax, -1
	cmp	ecx, eax
	sete	byte ptr [rsp + 5]
	mov	eax, dword ptr [rip + y.113]
	cmp	eax, 10
	setl	byte ptr [rsp + 6]
	mov	rbp, rdi
	mov	ecx, -554685976
	mov	r14d, 1930791078
	mov	r15d, -128446666
	jmp	.LBB53_1
.LBB53_6:                               
	cmp	ecx, 1930791078
	jne	.LBB53_1

	call	_ZN5Botan5CPUID5stateEv
	mov	ecx, dword ptr [rip + x.112]
	mov	edi, dword ptr [rip + y.113]
	lea	esi, [rcx - 1]
	imul	esi, ecx
	mov	ecx, esi
	xor	ecx, -2
	and	ecx, esi
	sete	bl
	cmp	edi, 10
	setl	dl
	xor	dl, bl
	mov	edx, -2126288945
	cmovne	edx, r15d
	test	ecx, ecx
	mov	ecx, edx
	cmove	ecx, r15d
	cmp	edi, 10
	mov	rax, qword ptr [rax]
	not	rax
	mov	rsi, rbp
	not	rsi
	cmovge	ecx, edx
	or	rsi, rax
	not	rsi
	cmp	rsi, rbp
	sete	byte ptr [rsp + 7]
	jmp	.LBB53_1
.LBB53_9:                               
	call	_ZN5Botan5CPUID5stateEv
	mov	ecx, 1930791078
.LBB53_1:                               
	cmp	ecx, -128446667
	jg	.LBB53_5

	cmp	ecx, -2126288945
	je	.LBB53_9

	cmp	ecx, -554685976
	jne	.LBB53_1

	mov	al, byte ptr [rsp + 5]
	mov	cl, byte ptr [rsp + 6]
	mov	edx, eax
	xor	dl, cl
	mov	edx, -2126288945
	cmovne	edx, r14d
	test	cl, cl
	mov	ecx, edx
	cmovne	ecx, r14d
	test	al, al
	cmove	ecx, edx
	jmp	.LBB53_1
.LBB53_5:                               
	cmp	ecx, -128446666
	jne	.LBB53_6

	mov	al, byte ptr [rsp + 7]
	add	rsp, 8
	pop	rbx
	pop	r14
	pop	r15
	pop	rbp
	ret
.Lfunc_end53:
	.size	_ZN5Botan5CPUID13has_cpuid_bitENS0_10CPUID_bitsE, .Lfunc_end53-_ZN5Botan5CPUID13has_cpuid_bitENS0_10CPUID_bitsE
	.cfi_endproc

	.section	.text._ZN5Botan5CPUID5stateEv,"axG",@progbits,_ZN5Botan5CPUID5stateEv,comdat
	.weak	_ZN5Botan5CPUID5stateEv 
	.p2align	1, 0x90
	.type	_ZN5Botan5CPUID5stateEv,@function
_ZN5Botan5CPUID5stateEv:                
.Lfunc_begin6:
	.cfi_startproc
	.cfi_personality 3, __gxx_personality_v0
	.cfi_lsda 3, .Lexception6

	push	rbx
.Lcfi354:
	.cfi_def_cfa_offset 16
.Lcfi355:
	.cfi_offset rbx, -16
	mov	al, byte ptr [rip + _ZGVZN5Botan5CPUID5stateEvE7g_cpuid]
	test	al, al
	jne	.LBB54_4

	mov	edi, _ZGVZN5Botan5CPUID5stateEvE7g_cpuid
	call	__cxa_guard_acquire
	test	eax, eax
	je	.LBB54_4

.Ltmp18:
	mov	edi, _ZZN5Botan5CPUID5stateEvE7g_cpuid
	call	_ZN5Botan5CPUID10CPUID_DataC1Ev
.Ltmp19:

	mov	edi, _ZGVZN5Botan5CPUID5stateEvE7g_cpuid
	call	__cxa_guard_release
.LBB54_4:
	mov	eax, _ZZN5Botan5CPUID5stateEvE7g_cpuid
	pop	rbx
	ret
.LBB54_5:
.Ltmp20:
	mov	rbx, rax
	mov	edi, _ZGVZN5Botan5CPUID5stateEvE7g_cpuid
	call	__cxa_guard_abort
	mov	rdi, rbx
	call	_Unwind_Resume
.Lfunc_end54:
	.size	_ZN5Botan5CPUID5stateEv, .Lfunc_end54-_ZN5Botan5CPUID5stateEv
	.cfi_endproc
	.section	.gcc_except_table,"a",@progbits
	.p2align	2
GCC_except_table54:
.Lexception6:
	.byte	255                     
	.byte	3                       
	.asciz	"\234"                  
	.byte	3                       
	.byte	26                      
	.long	.Ltmp18-.Lfunc_begin6   
	.long	.Ltmp19-.Ltmp18         
	.long	.Ltmp20-.Lfunc_begin6   
	.byte	0                       
	.long	.Ltmp19-.Lfunc_begin6   
	.long	.Lfunc_end54-.Ltmp19    
	.long	0                       
	.byte	0                       
	.p2align	2

	.section	.text._ZNKSt6vectorIjN5Botan16secure_allocatorIjEEE4sizeEv,"axG",@progbits,_ZNKSt6vectorIjN5Botan16secure_allocatorIjEEE4sizeEv,comdat
	.weak	_ZNKSt6vectorIjN5Botan16secure_allocatorIjEEE4sizeEv 
	.p2align	1, 0x90
	.type	_ZNKSt6vectorIjN5Botan16secure_allocatorIjEEE4sizeEv,@function
_ZNKSt6vectorIjN5Botan16secure_allocatorIjEEE4sizeEv: 

	mov	eax, dword ptr [rip + x.116]
	mov	ecx, dword ptr [rip + y.117]
	lea	edx, [rax - 1]
	imul	edx, eax
	mov	esi, edx
	xor	esi, -2
	and	esi, edx
	sete	byte ptr [rsp - 10]
	sete	al
	cmp	ecx, 10
	setl	dl
	xor	dl, al
	mov	r10d, -330183627
	mov	edx, 513189269
	cmovne	edx, r10d
	test	esi, esi
	cmovne	r10d, edx
	cmp	ecx, 10
	setl	byte ptr [rsp - 9]
	mov	r8d, 513189269
	cmovge	r10d, edx
	mov	esi, 65932730
	mov	r9d, 108260099
	jmp	.LBB55_1
.LBB55_3:                               
	cmp	esi, 65932730
	jne	.LBB55_1

	mov	al, byte ptr [rsp - 10]
	mov	dl, byte ptr [rsp - 9]
	mov	ecx, eax
	xor	cl, dl
	test	dl, dl
	mov	esi, 513189269
	cmovne	esi, r9d
	test	al, al
	cmove	esi, r8d
	test	cl, cl
	cmovne	esi, r9d
	jmp	.LBB55_1
.LBB55_5:                               
	cmp	esi, 108260099
	je	.LBB55_8

	cmp	esi, 513189269
	jne	.LBB55_1

	mov	esi, 108260099
	jmp	.LBB55_1
.LBB55_8:                               
	mov	rax, qword ptr [rdi + 8]
	sub	rax, qword ptr [rdi]
	sar	rax, 2
	mov	qword ptr [rsp - 8], rax
	mov	esi, r10d
.LBB55_1:                               
	cmp	esi, 108260098
	jg	.LBB55_5

	cmp	esi, -330183627
	jne	.LBB55_3

	mov	rax, qword ptr [rsp - 8]
	ret
.Lfunc_end55:
	.size	_ZNKSt6vectorIjN5Botan16secure_allocatorIjEEE4sizeEv, .Lfunc_end55-_ZNKSt6vectorIjN5Botan16secure_allocatorIjEEE4sizeEv

	.section	.rodata.cst16,"aM",@progbits,16
	.p2align	4               
.LCPI56_0:
	.long	2430347817              
	.long	2430347817              
	.long	2430347817              
	.long	2430347817              
.LCPI56_1:
	.long	1864619478              
	.long	1864619478              
	.long	1864619478              
	.long	1864619478              
.LCPI56_2:
	.zero	16,240
	.text
	.type	_ZN5Botan12_GLOBAL__N_19ks_expandEPjPKjm,@function
_ZN5Botan12_GLOBAL__N_19ks_expandEPjPKjm: 

	push	rbp
	push	r14
	push	rbx
	movabs	r9, -8905366066636320103
	mov	eax, dword ptr [rip + x.118]
	mov	ecx, dword ptr [rip + y.119]
	lea	ebp, [rax - 1]
	imul	ebp, eax
	not	ebp
	or	ebp, -2
	mov	r8d, -1
	cmp	ebp, r8d
	sete	byte ptr [rsp - 11]
	cmp	ecx, 10
	setl	byte ptr [rsp - 10]
	mov	eax, 2127360043

	jmp	.LBB56_1
.LBB56_12:                              
	cmp	eax, -1138996619
	je	.LBB56_28

	cmp	eax, -83037659
	jne	.LBB56_1

	mov	rax, qword ptr [rsp - 8]
	mov	eax, -1138996619
	jmp	.LBB56_1
.LBB56_7:                               
	cmp	eax, -1653414636
	je	.LBB56_30

	cmp	eax, -1182059550
	jne	.LBB56_1

	mov	al, byte ptr [rsp - 9]
	test	al, al
	mov	eax, 579588219
	jne	.LBB56_1

	mov	eax, -2064781845
	jmp	.LBB56_1
.LBB56_29:                              
	mov	rax, qword ptr [rsp - 8]
	add	rax, r9
	add	rax, rdx
	sub	rax, r9
	mov	eax, dword ptr [rsi + 4*rax]
	mov	rcx, qword ptr [rsp - 8]
	mov	dword ptr [rdi + 4*rcx], eax
	mov	r10, qword ptr [rsp - 8]
	inc	r10
	mov	eax, 1481361944
	jmp	.LBB56_1
.LBB56_26:                              
	mov	qword ptr [rsp - 8], r10
	mov	eax, dword ptr [rip + x.118]
	mov	r11d, dword ptr [rip + y.119]
	lea	ecx, [rax - 1]
	imul	ecx, eax
	mov	eax, ecx
	xor	eax, -2
	and	eax, ecx
	sete	r14b
	test	eax, eax
	mov	eax, -1138996619
	mov	ecx, -83037659
	mov	ebp, -1138996619
	jne	.LBB56_27
	jmp	.LBB56_23
.LBB56_25:                              
	mov	eax, 1481361944
	xor	r10d, r10d
	jmp	.LBB56_1
.LBB56_21:                              
	mov	eax, dword ptr [rip + x.118]
	mov	r11d, dword ptr [rip + y.119]
	lea	ecx, [rax - 1]
	imul	ecx, eax
	mov	eax, ecx
	xor	eax, -2
	and	eax, ecx
	sete	r14b
	test	eax, eax
	mov	eax, -2009287649
	mov	ecx, -1653414636
	mov	ebp, -2009287649
	je	.LBB56_23

	mov	ebp, -1653414636
	jmp	.LBB56_23
.LBB56_28:                              
	mov	rax, qword ptr [rsp - 8]
	cmp	rax, 4
	setne	byte ptr [rsp - 9]
	mov	eax, dword ptr [rip + x.118]
	mov	r11d, dword ptr [rip + y.119]
	mov	ecx, eax
	neg	ecx
	not	ecx
	imul	ecx, eax
	not	ecx
	or	ecx, -2
	cmp	ecx, r8d
	sete	r14b
	mov	eax, -1182059550
	mov	ecx, -83037659
	mov	ebp, -1182059550
	je	.LBB56_23
.LBB56_27:                              
	mov	ebp, -83037659
.LBB56_23:                              
	cmp	r11d, 10
	setl	bl
	cmovl	ecx, ebp
	xor	bl, r14b
	jne	.LBB56_1

	mov	eax, ecx
	jmp	.LBB56_1
.LBB56_30:                              
	mov	eax, -1799828947
.LBB56_1:                               
	cmp	eax, -1138996620
	jle	.LBB56_2

	cmp	eax, 579588218
	jle	.LBB56_12

	cmp	eax, 579588219
	je	.LBB56_29

	cmp	eax, 1481361944
	je	.LBB56_26

	cmp	eax, 2127360043
	jne	.LBB56_1

	mov	bl, byte ptr [rsp - 11]
	mov	al, byte ptr [rsp - 10]
	mov	ecx, ebx
	xor	cl, al
	test	al, al
	mov	r11d, -1799828947
	mov	eax, -1653414636
	mov	ebp, -1799828947
	jne	.LBB56_20

	mov	ebp, -1653414636
.LBB56_20:                              
	test	bl, bl
	cmovne	eax, ebp
	test	cl, cl
	cmovne	eax, r11d
	jmp	.LBB56_1
.LBB56_2:                               
	cmp	eax, -1653414637
	jg	.LBB56_7

	cmp	eax, -2009287649
	je	.LBB56_25

	cmp	eax, -1799828947
	je	.LBB56_21

	cmp	eax, -2064781845
	jne	.LBB56_1

	movdqu	xmm0, xmmword ptr [rdi]
	pshufd	xmm1, xmm0, 229         
	movd	eax, xmm1
	shr	eax
	movd	ecx, xmm0
	mov	edx, eax
	not	edx
	and	edx, ecx
	not	ecx
	and	ecx, eax
	or	ecx, edx
	mov	eax, ecx
	xor	eax, -1431655766
	and	eax, ecx
	lea	ecx, [rax + rax]
	pshufd	xmm1, xmm0, 231         
	movd	edx, xmm1
	shr	edx
	pshufd	xmm1, xmm0, 78          
	movd	esi, xmm1
	mov	ebp, edx
	not	ebp
	and	ebp, 1359036692
	and	edx, 72619073
	or	edx, ebp
	mov	ebp, esi
	not	ebp
	and	ebp, 1359036692
	and	esi, 72619073
	or	esi, ebp
	xor	esi, edx
	movd	xmm1, eax
	movd	xmm2, ecx
	punpckldq	xmm1, xmm2      
	movd	xmm2, esi
	add	esi, esi
	movd	xmm3, esi
	punpckldq	xmm2, xmm3      
	punpcklqdq	xmm1, xmm2      
	movdqa	xmm2, xmmword ptr [rip + .LCPI56_0] 
	movdqa	xmm3, xmm1
	pandn	xmm3, xmm2
	movdqa	xmm4, xmmword ptr [rip + .LCPI56_1] 
	pand	xmm1, xmm4
	por	xmm1, xmm3
	movdqa	xmm3, xmm0
	pandn	xmm3, xmm2
	pand	xmm0, xmm4
	por	xmm0, xmm3
	pxor	xmm0, xmm1
	pshufd	xmm1, xmm0, 78          
	movd	ecx, xmm1
	shr	ecx, 2
	movd	eax, xmm0
	mov	edx, ecx
	not	edx
	and	edx, eax
	not	eax
	and	eax, ecx
	or	eax, edx
	and	eax, 858993459
	lea	ecx, [4*rax]
	pshufd	xmm1, xmm0, 231         
	movd	edx, xmm1
	shr	edx, 2
	pshufd	xmm1, xmm0, 229         
	movd	esi, xmm1
	mov	ebp, edx
	not	ebp
	and	ebp, 269484035
	and	edx, 589509424
	or	edx, ebp
	mov	ebp, esi
	not	ebp
	and	ebp, 269484035
	and	esi, 589509424
	or	esi, ebp
	xor	esi, edx
	movd	xmm1, esi
	shl	esi, 2
	movd	xmm2, eax
	punpckldq	xmm2, xmm1      
	movd	xmm1, esi
	movd	xmm3, ecx
	punpckldq	xmm3, xmm1      
	punpcklqdq	xmm2, xmm3      
	movdqa	xmm1, xmm2
	pandn	xmm1, xmm0
	pandn	xmm0, xmm2
	por	xmm0, xmm1
	movdqa	xmm2, xmm0
	psrld	xmm2, 4
	movdqa	xmm1, xmm0
	pandn	xmm1, xmm2
	pandn	xmm2, xmm0
	por	xmm2, xmm1
	movdqa	xmm1, xmmword ptr [rip + .LCPI56_2] 
	pxor	xmm1, xmm2
	pand	xmm1, xmm2
	movd	eax, xmm1
	movd	ecx, xmm0
	mov	edx, eax
	not	edx
	and	edx, -1129077851
	and	eax, 1129077850
	or	eax, edx
	mov	edx, ecx
	not	edx
	and	edx, -1129077851
	and	ecx, 1129077850
	or	ecx, edx
	xor	ecx, eax
	mov	dword ptr [rdi], ecx
	pshufd	xmm2, xmm1, 229         
	movd	eax, xmm2
	pshufd	xmm2, xmm0, 229         
	movd	ecx, xmm2
	mov	edx, eax
	not	edx
	and	edx, 1408102076
	and	eax, -1408102077
	or	eax, edx
	mov	edx, ecx
	not	edx
	and	edx, 1408102076
	and	ecx, -1408102077
	or	ecx, edx
	xor	ecx, eax
	mov	dword ptr [rdi + 4], ecx
	pshufd	xmm2, xmm1, 78          
	movd	eax, xmm2
	pshufd	xmm2, xmm0, 78          
	movd	ecx, xmm2
	mov	edx, eax
	not	edx
	and	edx, ecx
	not	ecx
	and	ecx, eax
	or	ecx, edx
	mov	dword ptr [rdi + 8], ecx
	pshufd	xmm2, xmm1, 231         
	pslld	xmm1, 4
	movdqa	xmm3, xmm0
	pandn	xmm3, xmm1
	pandn	xmm1, xmm0
	por	xmm1, xmm3
	movdqu	xmmword ptr [rdi + 16], xmm1
	movd	eax, xmm2
	pshufd	xmm0, xmm0, 231         
	movd	ecx, xmm0
	mov	edx, eax
	not	edx
	and	edx, ecx
	not	ecx
	and	ecx, eax
	or	ecx, edx
	mov	dword ptr [rdi + 12], ecx
	pop	rbx
	pop	r14
	pop	rbp
	ret
.Lfunc_end56:
	.size	_ZN5Botan12_GLOBAL__N_19ks_expandEPjPKjm, .Lfunc_end56-_ZN5Botan12_GLOBAL__N_19ks_expandEPjPKjm

	.section	.text._ZN5Botan7load_beIjEEvPT_PKhm,"axG",@progbits,_ZN5Botan7load_beIjEEvPT_PKhm,comdat
	.weak	_ZN5Botan7load_beIjEEvPT_PKhm 
	.type	_ZN5Botan7load_beIjEEvPT_PKhm,@function
_ZN5Botan7load_beIjEEvPT_PKhm:          
	.cfi_startproc

	push	rbp
.Lcfi356:
	.cfi_def_cfa_offset 16
	push	r15
.Lcfi357:
	.cfi_def_cfa_offset 24
	push	r14
.Lcfi358:
	.cfi_def_cfa_offset 32
	push	r13
.Lcfi359:
	.cfi_def_cfa_offset 40
	push	r12
.Lcfi360:
	.cfi_def_cfa_offset 48
	push	rbx
.Lcfi361:
	.cfi_def_cfa_offset 56
	sub	rsp, 72
.Lcfi362:
	.cfi_def_cfa_offset 128
.Lcfi363:
	.cfi_offset rbx, -56
.Lcfi364:
	.cfi_offset r12, -48
.Lcfi365:
	.cfi_offset r13, -40
.Lcfi366:
	.cfi_offset r14, -32
.Lcfi367:
	.cfi_offset r15, -24
.Lcfi368:
	.cfi_offset rbp, -16
	mov	qword ptr [rsp + 8], rsi 
	mov	r15, rdi
	test	rdx, rdx
	mov	eax, -1134557780
	mov	r14d, 1382800364
	cmove	r14d, eax
	lea	rbp, [4*rdx]
	mov	qword ptr [rsp + 64], rdx 

	and	edx, 3
	mov	qword ptr [rsp + 56], rdx 
	mov	eax, -53333146
	mov	r12d, -1



	jmp	.LBB57_1
.LBB57_20:                              
	cmp	ecx, 304123094
	jg	.LBB57_24

	cmp	ecx, 145792711
	je	.LBB57_46

	cmp	ecx, 187008162
	mov	eax, ecx
	jne	.LBB57_1

	mov	eax, 1790930483
	jmp	.LBB57_1
.LBB57_3:                               
	cmp	ecx, -1503923319
	jg	.LBB57_7

	cmp	ecx, -1942857745
	je	.LBB57_61

	cmp	ecx, -1835929792
	mov	eax, ecx
	jne	.LBB57_1

	mov	eax, -1134557780
	jmp	.LBB57_1
.LBB57_28:                              
	cmp	ecx, 1207117397
	je	.LBB57_47

	cmp	ecx, 1382800364
	mov	eax, ecx
	jne	.LBB57_1

	mov	eax, dword ptr [rip + x.124]
	mov	ecx, eax
	neg	ecx
	not	ecx
	imul	ecx, eax
	not	ecx
	or	ecx, -2
	cmp	ecx, r12d
	sete	cl
	mov	eax, -1503923318
	mov	edi, -500586707
	cmove	eax, edi
	cmp	dword ptr [rip + y.125], 10
	setl	dl
	mov	esi, -1503923318
.LBB57_35:                              
	cmovge	eax, esi
	xor	dl, cl
	cmovne	eax, edi
	jmp	.LBB57_1
.LBB57_11:                              
	cmp	ecx, -1218921174
	je	.LBB57_48

	cmp	ecx, -1134557780
	mov	eax, ecx
	jne	.LBB57_1

	mov	eax, dword ptr [rip + x.124]
	mov	ecx, eax
	neg	ecx
	not	ecx
	imul	ecx, eax
	not	ecx
	or	ecx, -2
	cmp	ecx, r12d
	sete	cl
	mov	eax, 854650219
	mov	esi, 2139584626
	cmove	eax, esi
	cmp	dword ptr [rip + y.125], 10
	setl	dl
	mov	edi, 854650219
	jmp	.LBB57_14
.LBB57_24:                              
	cmp	ecx, 304123095
	je	.LBB57_49

	cmp	ecx, 854650219
	mov	eax, ecx
	jne	.LBB57_1

	mov	eax, 2139584626
	jmp	.LBB57_1
.LBB57_7:                               
	cmp	ecx, -1503923318
	je	.LBB57_62

	cmp	ecx, -1446553469
	mov	eax, ecx
	jne	.LBB57_1

	mov	eax, dword ptr [rip + x.124]
	mov	ecx, dword ptr [rip + y.125]
	mov	edx, eax
	neg	edx
	not	edx
	imul	edx, eax
	mov	eax, edx
	xor	eax, -2
	and	eax, edx
	sete	dl
	cmp	ecx, 10
	setl	bl
	xor	bl, dl
	mov	edx, 187008162
	mov	esi, 1790930483
	cmovne	edx, esi
	test	eax, eax
	mov	eax, edx
	cmove	eax, esi
	cmp	ecx, 10
	cmovge	eax, edx
	jmp	.LBB57_1
.LBB57_59:                              
	mov	rax, qword ptr [rsp + 32] 
	mov	qword ptr [rsp + 24], rax
	mov	rax, qword ptr [rsp + 40]
	mov	rcx, qword ptr [rsp + 24]
	cmp	rcx, rax
	mov	eax, -1942857745
	mov	ecx, -1446553469
	cmove	eax, ecx
	jmp	.LBB57_1
.LBB57_60:                              
	mov	eax, dword ptr [rip + x.124]
	mov	ecx, dword ptr [rip + y.125]
	mov	edx, eax
	neg	edx
	not	edx
	imul	edx, eax
	not	edx
	or	edx, -2
	mov	edi, -1
	cmp	edx, edi
	sete	al
	cmp	ecx, 10
	setl	bl
	xor	bl, al
	mov	esi, 187008162
	mov	ebx, -1835929792
	cmovne	esi, ebx
	mov	r12d, -1
	cmp	edx, edi
	mov	eax, esi
	cmove	eax, ebx
	cmp	ecx, 10
	cmovge	eax, esi
	jmp	.LBB57_1
.LBB57_36:                              
	mov	eax, dword ptr [rip + x.146]
	mov	ecx, dword ptr [rip + y.147]
	mov	edx, eax
	neg	edx
	not	edx
	imul	edx, eax
	not	edx
	or	edx, -2
	cmp	edx, r12d
	sete	byte ptr [rsp + 6]
	cmp	ecx, 10
	setl	byte ptr [rsp + 7]
	mov	eax, -1955375034
	jmp	.LBB57_37
.LBB57_42:                              
	cmp	eax, 1913451292
	jne	.LBB57_37

	mov	rdi, r15
	mov	rsi, qword ptr [rsp + 8] 
	mov	rdx, rbp
	call	memcpy
	mov	eax, -1026890802
	jmp	.LBB57_37
.LBB57_44:                              
	mov	cl, byte ptr [rsp + 6]
	mov	al, byte ptr [rsp + 7]
	mov	edx, ecx
	xor	dl, al
	test	al, al
	mov	eax, 1913451292
	mov	esi, -1026890802
	cmovne	eax, esi
	test	cl, cl
	mov	ecx, 1913451292
	cmove	eax, ecx
	test	dl, dl
	cmovne	eax, esi
.LBB57_37:                              

	cmp	eax, 1353299410
	jg	.LBB57_41

	cmp	eax, -1955375034
	je	.LBB57_44

	cmp	eax, -1026890802
	jne	.LBB57_37

	mov	rdi, r15
	mov	rsi, qword ptr [rsp + 8] 
	mov	rdx, rbp
	call	memcpy
	mov	eax, dword ptr [rip + x.146]
	mov	ecx, dword ptr [rip + y.147]
	lea	edx, [rax - 1]
	imul	edx, eax
	mov	eax, edx
	xor	eax, -2
	and	eax, edx
	sete	dl
	cmp	ecx, 10
	setl	bl
	xor	bl, dl
	mov	edx, 1913451292
	mov	esi, 1353299411
	cmovne	edx, esi
	test	eax, eax
	mov	eax, edx
	cmove	eax, esi
	cmp	ecx, 10
	cmovge	eax, edx
	jmp	.LBB57_37
.LBB57_41:                              
	cmp	eax, 1353299411
	jne	.LBB57_42

	mov	rax, qword ptr [rsp + 56] 
	mov	qword ptr [rsp + 40], rax
	mov	rax, qword ptr [rsp + 64] 
	movabs	rcx, 2418246941998183253
	lea	rax, [rax + rcx]
	sub	rax, qword ptr [rsp + 40]
	sub	rax, rcx
	mov	qword ptr [rsp + 48], rax
	mov	eax, dword ptr [rip + x.124]
	mov	ecx, eax
	neg	ecx
	not	ecx
	imul	ecx, eax
	mov	eax, ecx
	xor	eax, -2
	and	eax, ecx
	sete	cl
	test	eax, eax
	mov	eax, -1503923318
	mov	esi, 145792711
	cmove	eax, esi
	cmp	dword ptr [rip + y.125], 10
	setl	dl
	mov	edi, -1503923318
.LBB57_14:                              
	cmovge	eax, edi
	xor	dl, cl
	cmovne	eax, esi
	jmp	.LBB57_1
.LBB57_46:                              
	mov	eax, 1207117397
	xor	r13d, r13d
	jmp	.LBB57_1
.LBB57_61:                              
	mov	rax, qword ptr [rsp + 48]
	mov	rcx, qword ptr [rsp + 24]
	movabs	rdx, 5279980058329008254
	sub	rcx, rdx
	add	rcx, rax
	add	rcx, rdx
	mov	eax, dword ptr [r15 + 4*rcx]
	bswap	eax
	mov	dword ptr [r15 + 4*rcx], eax
	mov	rax, qword ptr [rsp + 24]
	inc	rax
	mov	qword ptr [rsp + 32], rax 
	mov	eax, 1751293927
	jmp	.LBB57_1
.LBB57_47:                              
	mov	qword ptr [rsp + 16], r13
	mov	rax, qword ptr [rsp + 48]
	mov	rcx, qword ptr [rsp + 16]
	cmp	rcx, rax
	mov	eax, 304123095
	mov	ecx, -1218921174
	cmove	eax, ecx
	jmp	.LBB57_1
.LBB57_48:                              
	mov	eax, 1751293927
	xor	ecx, ecx
	mov	qword ptr [rsp + 32], rcx 
	jmp	.LBB57_1
.LBB57_49:                              
	mov	r8, qword ptr [rsp + 16]
	mov	ecx, dword ptr [rip + x.148]
	mov	edx, dword ptr [rip + y.149]
	lea	esi, [rcx - 1]
	imul	esi, ecx
	mov	ecx, esi
	xor	ecx, -2
	test	ecx, esi
	sete	byte ptr [rsp + 6]
	cmp	edx, 10
	setl	byte ptr [rsp + 7]
	mov	ecx, 1456019088
	jmp	.LBB57_50
.LBB57_52:                              
	cmp	ecx, 267650075
	jne	.LBB57_50

	movdqu	xmm0, xmmword ptr [r15 + 4*r8]
	movdqa	xmm1, xmm0
	pxor	xmm2, xmm2
	punpckhbw	xmm1, xmm2      
	pshuflw	xmm1, xmm1, 27          
	pshufhw	xmm1, xmm1, 27          
	punpcklbw	xmm0, xmm2      
	pshuflw	xmm0, xmm0, 27          
	pshufhw	xmm0, xmm0, 27          
	packuswb	xmm0, xmm1
	movdqu	xmmword ptr [r15 + 4*r8], xmm0
	mov	ecx, 493105267
	jmp	.LBB57_50
.LBB57_54:                              
	cmp	ecx, 493105267
	je	.LBB57_57

	cmp	ecx, 1456019088
	jne	.LBB57_50

	mov	bl, byte ptr [rsp + 6]
	mov	cl, byte ptr [rsp + 7]
	mov	edx, ebx
	xor	dl, cl
	test	cl, cl
	mov	ecx, 267650075
	mov	esi, 493105267
	cmovne	ecx, esi
	test	bl, bl
	mov	eax, 267650075
	cmove	ecx, eax
	test	dl, dl
	cmovne	ecx, esi
	jmp	.LBB57_50
.LBB57_57:                              
	movdqu	xmm0, xmmword ptr [r15 + 4*r8]
	movdqa	xmm1, xmm0
	pxor	xmm2, xmm2
	punpckhbw	xmm1, xmm2      
	pshuflw	xmm1, xmm1, 27          
	pshufhw	xmm1, xmm1, 27          
	punpcklbw	xmm0, xmm2      
	pshuflw	xmm0, xmm0, 27          
	pshufhw	xmm0, xmm0, 27          
	packuswb	xmm0, xmm1
	movdqu	xmmword ptr [r15 + 4*r8], xmm0
	mov	ecx, dword ptr [rip + x.148]
	mov	edx, dword ptr [rip + y.149]
	lea	esi, [rcx - 1]
	imul	esi, ecx
	not	esi
	or	esi, -2
	mov	eax, -1
	cmp	esi, eax
	sete	cl
	cmp	edx, 10
	setl	bl
	xor	bl, cl
	mov	edi, 267650075
	mov	ebx, -238286235
	cmovne	edi, ebx
	mov	r12d, -1
	cmp	esi, eax
	mov	ecx, edi
	cmove	ecx, ebx
	cmp	edx, 10
	cmovge	ecx, edi
.LBB57_50:                              

	cmp	ecx, 493105266
	jg	.LBB57_54

	cmp	ecx, -238286235
	jne	.LBB57_52

	mov	rax, qword ptr [rsp + 16]
	movabs	rcx, -7763634930331972453
	lea	r13, [rax + rcx + 4]
	sub	r13, rcx
	mov	eax, 1207117397
	jmp	.LBB57_1
.LBB57_62:                              
	mov	eax, dword ptr [rip + x.146]
	mov	ecx, dword ptr [rip + y.147]
	lea	edx, [rax - 1]
	imul	edx, eax
	not	edx
	or	edx, -2
	cmp	edx, r12d
	sete	byte ptr [rsp + 6]
	cmp	ecx, 10
	setl	byte ptr [rsp + 7]
	mov	eax, -1955375034
	jmp	.LBB57_63
.LBB57_68:                              
	cmp	eax, 1913451292
	jne	.LBB57_63

	mov	rdi, r15
	mov	rsi, qword ptr [rsp + 8] 
	mov	rdx, rbp
	call	memcpy
	mov	eax, -1026890802
	jmp	.LBB57_63
.LBB57_70:                              
	mov	cl, byte ptr [rsp + 6]
	mov	al, byte ptr [rsp + 7]
	mov	edx, ecx
	xor	dl, al
	mov	edx, 1913451292
	mov	esi, -1026890802
	cmovne	edx, esi
	test	al, al
	mov	eax, edx
	cmovne	eax, esi
	test	cl, cl
	cmove	eax, edx
.LBB57_63:                              

	cmp	eax, 1353299410
	jg	.LBB57_67

	cmp	eax, -1955375034
	je	.LBB57_70

	cmp	eax, -1026890802
	jne	.LBB57_63

	mov	rdi, r15
	mov	rsi, qword ptr [rsp + 8] 
	mov	rdx, rbp
	call	memcpy
	mov	eax, dword ptr [rip + x.146]
	mov	ecx, dword ptr [rip + y.147]
	lea	edx, [rax - 1]
	imul	edx, eax
	mov	eax, edx
	xor	eax, -2
	and	eax, edx
	sete	dl
	cmp	ecx, 10
	setl	bl
	xor	bl, dl
	mov	edx, 1913451292
	mov	esi, 1353299411
	cmovne	edx, esi
	test	eax, eax
	mov	eax, edx
	cmove	eax, esi
	cmp	ecx, 10
	cmovge	eax, edx
	jmp	.LBB57_63
.LBB57_67:                              
	cmp	eax, 1353299411
	jne	.LBB57_68

	mov	eax, -500586707
.LBB57_1:                               



	mov	ecx, eax
	cmp	ecx, 145792710
	jle	.LBB57_2

	cmp	ecx, 1207117396
	jle	.LBB57_20

	cmp	ecx, 1751293926
	jle	.LBB57_28

	cmp	ecx, 1751293927
	je	.LBB57_59

	cmp	ecx, 1790930483
	je	.LBB57_60

	cmp	ecx, 2139584626
	mov	eax, ecx
	jne	.LBB57_1

	mov	eax, dword ptr [rip + x.124]
	lea	ecx, [rax - 1]
	imul	ecx, eax
	mov	eax, ecx
	xor	eax, -2
	and	eax, ecx
	sete	cl
	test	eax, eax
	mov	eax, 854650219
	mov	edi, -961133878
	cmove	eax, edi
	cmp	dword ptr [rip + y.125], 10
	setl	dl
	mov	esi, 854650219
	jmp	.LBB57_35
.LBB57_2:                               
	cmp	ecx, -1218921175
	jle	.LBB57_3

	cmp	ecx, -961133879
	jle	.LBB57_11

	cmp	ecx, -500586707
	je	.LBB57_36

	cmp	ecx, -53333146
	mov	eax, r14d
	je	.LBB57_1

	cmp	ecx, -961133878
	mov	eax, ecx
	jne	.LBB57_1

	add	rsp, 72
	pop	rbx
	pop	r12
	pop	r13
	pop	r14
	pop	r15
	pop	rbp
	ret
.Lfunc_end57:
	.size	_ZN5Botan7load_beIjEEvPT_PKhm, .Lfunc_end57-_ZN5Botan7load_beIjEEvPT_PKhm
	.cfi_endproc

	.text
	.type	_ZN5Botan12_GLOBAL__N_113bit_transposeEPj,@function 
_ZN5Botan12_GLOBAL__N_113bit_transposeEPj: 

	push	rbp
	push	r15
	push	r14
	push	r13
	push	r12
	push	rbx
	mov	eax, dword ptr [rip + x.130]
	mov	ecx, dword ptr [rip + y.131]
	mov	edx, eax
	neg	edx
	not	edx
	imul	edx, eax
	mov	eax, edx
	xor	eax, -2
	test	eax, edx
	sete	byte ptr [rsp - 2]
	cmp	ecx, 10
	setl	byte ptr [rsp - 1]
	mov	eax, -1087472220
	mov	r11d, -1396360073
	jmp	.LBB58_1
.LBB58_6:                               
	cmp	eax, -1087472220
	jne	.LBB58_1

	mov	cl, byte ptr [rsp - 2]
	mov	al, byte ptr [rsp - 1]
	mov	edx, ecx
	xor	dl, al
	mov	edx, -1213396787
	cmovne	edx, r11d
	test	al, al
	mov	eax, edx
	cmovne	eax, r11d
	test	cl, cl
	cmove	eax, edx
	jmp	.LBB58_1
.LBB58_8:                               
	mov	eax, dword ptr [rdi]
	mov	r14d, dword ptr [rdi + 4]
	mov	edx, r14d
	shr	edx
	mov	esi, edx
	not	esi
	and	esi, eax
	mov	ecx, eax
	not	ecx
	and	edx, ecx
	or	edx, esi
	mov	ebx, edx
	xor	ebx, -1431655766
	and	ebx, edx
	lea	edx, [rbx + rbx]
	mov	esi, edx
	not	esi
	and	esi, -514847631
	and	edx, 514847630
	or	edx, esi
	mov	esi, r14d
	not	esi
	and	esi, -514847631
	and	r14d, 514847630
	or	r14d, esi
	xor	r14d, edx
	mov	edx, ebx
	not	edx
	and	edx, eax
	and	ebx, ecx
	or	ebx, edx
	mov	r12d, dword ptr [rdi + 12]
	mov	esi, r12d
	shr	esi
	mov	r15d, dword ptr [rdi + 8]
	mov	ecx, esi
	not	ecx
	and	ecx, -1731147390
	and	esi, 1731147389
	or	esi, ecx
	mov	ecx, r15d
	not	ecx
	mov	ebp, ecx
	and	ebp, -1731147390
	mov	edx, r15d
	and	edx, 1731147389
	or	edx, ebp
	xor	edx, esi
	mov	esi, edx
	not	esi
	or	esi, -1431655766
	and	edx, 1431655765
	lea	eax, [rdx + rdx]
	mov	ebp, eax
	not	ebp
	and	ebp, -933651547
	and	eax, 581050378
	or	eax, ebp
	mov	ebp, r12d
	not	ebp
	and	ebp, -933651547
	and	r12d, 933651546
	or	r12d, ebp
	xor	r12d, eax
	and	esi, r15d
	and	edx, ecx
	or	edx, esi
	mov	r15d, dword ptr [rdi + 20]
	mov	esi, r15d
	shr	esi
	mov	ebp, dword ptr [rdi + 16]
	mov	ecx, esi
	not	ecx
	and	ecx, ebp
	mov	eax, ebp
	not	eax
	and	esi, eax
	or	esi, ecx
	mov	ecx, esi
	xor	ecx, -1431655766
	and	ecx, esi
	lea	r13d, [rcx + rcx]
	mov	esi, r13d
	not	esi
	and	esi, r15d
	not	r15d
	and	r15d, r13d
	or	r15d, esi
	mov	esi, ecx
	not	esi
	and	esi, -1642534260
	and	ecx, 1642534259
	or	ecx, esi
	and	eax, -1642534260
	and	ebp, 1642534259
	or	ebp, eax
	xor	ebp, ecx
	mov	r13d, dword ptr [rdi + 28]
	mov	esi, r13d
	shr	esi
	mov	r9d, dword ptr [rdi + 24]
	mov	eax, esi
	not	eax
	and	eax, -384078274
	and	esi, 384078273
	or	esi, eax
	mov	r8d, r9d
	not	r8d
	mov	ecx, r8d
	and	ecx, -384078274
	mov	eax, r9d
	and	eax, 384078273
	or	eax, ecx
	xor	eax, esi
	mov	ecx, eax
	not	ecx
	or	ecx, -1431655766
	and	eax, 1431655765
	lea	r10d, [rax + rax]
	mov	esi, r10d
	not	esi
	and	esi, r13d
	not	r13d
	and	r13d, r10d
	or	r13d, esi
	and	ecx, r9d
	and	eax, r8d
	or	eax, ecx
	mov	esi, edx
	shr	esi, 2
	mov	ecx, esi
	not	ecx
	and	ecx, ebx
	mov	r8d, ebx
	not	r8d
	and	esi, r8d
	or	esi, ecx
	mov	r9d, esi
	not	r9d
	or	r9d, 1283457036
	mov	ecx, esi
	and	ecx, 858993459
	shl	ecx, 2
	mov	r10d, ecx
	not	r10d
	and	r10d, -93941332
	and	ecx, 76041280
	or	ecx, r10d
	mov	r10d, edx
	not	r10d
	and	r10d, -93941332
	and	edx, 93941331
	or	edx, r10d
	xor	edx, ecx
	and	r9d, 1855983646
	and	esi, 286466849
	or	esi, r9d
	and	r8d, 1855983646
	and	ebx, -1855983647
	or	ebx, r8d
	xor	ebx, esi
	mov	ecx, r12d
	shr	ecx, 2
	mov	esi, ecx
	not	esi
	and	esi, r14d
	mov	r8d, r14d
	not	r8d
	and	ecx, r8d
	or	ecx, esi
	mov	r9d, ecx
	not	r9d
	or	r9d, 71584908
	mov	esi, ecx
	and	esi, 858993459
	shl	esi, 2
	mov	r10d, esi
	not	r10d
	and	r10d, r12d
	not	r12d
	and	r12d, esi
	or	r12d, r10d
	and	r9d, 879058877
	and	ecx, 51519490
	or	ecx, r9d
	and	r8d, 879058877
	and	r14d, -879058878
	or	r14d, r8d
	xor	r14d, ecx
	mov	ecx, eax
	shr	ecx, 2
	mov	esi, ecx
	not	esi
	and	esi, ebp
	mov	r8d, ebp
	not	r8d
	and	ecx, r8d
	or	ecx, esi
	mov	r9d, ecx
	not	r9d
	or	r9d, -858993460
	and	ecx, 858993459
	lea	r10d, [4*rcx]
	mov	esi, r10d
	not	esi
	and	esi, -1913688718
	and	r10d, 1073774732
	or	r10d, esi
	mov	esi, eax
	not	esi
	and	esi, -1913688718
	and	eax, 1913688717
	or	eax, esi
	xor	eax, r10d
	and	r9d, ebp
	and	ecx, r8d
	or	ecx, r9d
	mov	r10d, r13d
	shr	r10d, 2
	mov	esi, r10d
	not	esi
	and	esi, r15d
	mov	r8d, r15d
	not	r8d
	and	r10d, r8d
	or	r10d, esi
	mov	esi, r10d
	and	r10d, 858993459
	lea	r9d, [4*r10]
	mov	ebp, r9d
	not	ebp
	and	ebp, r13d
	not	r13d
	and	r13d, r9d
	not	esi
	or	esi, -858993460
	or	r13d, ebp
	and	esi, r15d
	and	r10d, r8d
	or	r10d, esi
	mov	ebp, ecx
	shr	ebp, 4
	mov	esi, ebp
	not	esi
	and	esi, -1950565366
	and	ebp, 71517173
	or	ebp, esi
	mov	r15d, ebx
	not	r15d
	mov	r8d, r15d
	and	r8d, -1950565366
	mov	r9d, ebx
	and	r9d, 1950565365
	or	r9d, r8d
	xor	r9d, ebp
	mov	esi, r9d
	and	esi, 252645135
	shl	esi, 4
	mov	ebp, esi
	not	ebp
	and	ebp, 614990442
	and	esi, -800001904
	or	esi, ebp
	mov	ebp, ecx
	not	ebp
	and	ebp, 614990442
	and	ecx, -614990443
	or	ecx, ebp
	xor	ecx, esi
	mov	dword ptr [rdi + 16], ecx
	mov	ecx, r9d
	not	ecx
	or	ecx, -1609514848
	and	ecx, -1374040664
	and	r9d, 17170951
	or	r9d, ecx
	and	r15d, -1374040664
	and	ebx, 1374040663
	or	ebx, r15d
	xor	ebx, r9d
	mov	dword ptr [rdi], ebx
	mov	esi, r10d
	shr	esi, 4
	mov	ecx, esi
	not	ecx
	and	ecx, -909432394
	and	esi, 104126025
	or	esi, ecx
	mov	ebp, r14d
	not	ebp
	mov	ecx, ebp
	and	ecx, -909432394
	mov	ebx, r14d
	and	ebx, 909432393
	or	ebx, ecx
	xor	ebx, esi
	mov	esi, ebx
	xor	esi, -252645136
	and	esi, ebx
	mov	ecx, esi
	shl	ecx, 4
	mov	ebx, ecx
	not	ebx
	and	ebx, 835455777
	and	ecx, -835455792
	or	ecx, ebx
	mov	ebx, r10d
	not	ebx
	and	ebx, 835455777
	and	r10d, -835455778
	or	r10d, ebx
	xor	r10d, ecx
	mov	dword ptr [rdi + 20], r10d
	mov	ecx, esi
	not	ecx
	and	ecx, r14d
	and	esi, ebp
	or	esi, ecx
	mov	dword ptr [rdi + 4], esi
	mov	ecx, eax
	shr	ecx, 4
	mov	esi, ecx
	not	esi
	and	esi, -1155508600
	and	ecx, 81766775
	or	ecx, esi
	mov	ebx, edx
	not	ebx
	mov	ebp, ebx
	and	ebp, -1155508600
	mov	esi, edx
	and	esi, 1155508599
	or	esi, ebp
	xor	esi, ecx
	mov	ecx, esi
	xor	ecx, -252645136
	and	ecx, esi
	mov	esi, ecx
	shl	esi, 4
	mov	ebp, esi
	not	ebp
	and	ebp, 517289182
	and	esi, -517289184
	or	esi, ebp
	mov	ebp, eax
	not	ebp
	and	ebp, 517289182
	and	eax, -517289183
	or	eax, ebp
	xor	eax, esi
	mov	dword ptr [rdi + 24], eax
	mov	eax, ecx
	not	eax
	and	eax, -1245616500
	and	ecx, 1245616499
	or	ecx, eax
	and	ebx, -1245616500
	and	edx, 1245616499
	or	edx, ebx
	xor	edx, ecx
	mov	dword ptr [rdi + 8], edx
	mov	eax, r13d
	shr	eax, 4
	mov	edx, eax
	not	edx
	and	edx, r12d
	mov	ecx, r12d
	not	ecx
	and	eax, ecx
	or	eax, edx
	mov	edx, eax
	and	edx, 252645135
	shl	edx, 4
	mov	esi, edx
	not	esi
	and	esi, r13d
	not	r13d
	and	r13d, edx
	or	r13d, esi
	mov	dword ptr [rdi + 28], r13d
	mov	edx, eax
	not	edx
	or	edx, 552640528
	and	edx, 753967901
	and	eax, 51317762
	or	eax, edx
	and	ecx, 753967901
	and	r12d, -753967902
	or	r12d, ecx
	xor	r12d, eax
	mov	dword ptr [rdi + 12], r12d
	mov	eax, dword ptr [rip + x.130]
	mov	ecx, eax
	neg	ecx
	not	ecx
	imul	ecx, eax
	not	ecx
	or	ecx, -2
	mov	eax, -1
	cmp	ecx, eax
	sete	cl
	mov	eax, -1213396787
	mov	esi, 503663481
	cmove	eax, esi
	cmp	dword ptr [rip + y.131], 10
	setl	dl
	mov	ebp, -1213396787
	cmovge	eax, ebp
	xor	dl, cl
	cmovne	eax, esi
.LBB58_1:                               
	cmp	eax, -1087472221
	jg	.LBB58_5

	cmp	eax, -1396360073
	je	.LBB58_8

	cmp	eax, -1213396787
	jne	.LBB58_1

	mov	ebp, dword ptr [rdi]
	mov	r15d, dword ptr [rdi + 4]
	mov	eax, r15d
	shr	eax
	mov	edx, eax
	not	edx
	and	edx, -323104756
	and	eax, 323104755
	or	eax, edx
	mov	edx, ebp
	not	edx
	mov	esi, edx
	and	esi, -323104756
	mov	ecx, ebp
	and	ecx, 323104755
	or	ecx, esi
	xor	ecx, eax
	mov	eax, ecx
	xor	eax, -1431655766
	and	eax, ecx
	lea	ecx, [rax + rax]
	mov	esi, ecx
	not	esi
	and	esi, r15d
	not	r15d
	and	r15d, ecx
	or	r15d, esi
	mov	ecx, eax
	not	ecx
	and	ecx, ebp
	and	eax, edx
	or	eax, ecx
	mov	r14d, dword ptr [rdi + 12]
	mov	edx, r14d
	shr	edx
	mov	r13d, dword ptr [rdi + 8]
	mov	ecx, edx
	not	ecx
	and	ecx, 1002813412
	and	edx, 1144670235
	or	edx, ecx
	mov	ecx, r13d
	not	ecx
	mov	esi, ecx
	and	esi, 1002813412
	mov	ebp, r13d
	and	ebp, -1002813413
	or	ebp, esi
	xor	ebp, edx
	mov	edx, ebp
	xor	edx, -1431655766
	and	edx, ebp
	lea	ebp, [rdx + rdx]
	mov	esi, ebp
	not	esi
	and	esi, -1166460481
	and	ebp, 1166460480
	or	ebp, esi
	mov	esi, r14d
	not	esi
	and	esi, -1166460481
	and	r14d, 1166460480
	or	r14d, esi
	xor	r14d, ebp
	mov	esi, edx
	not	esi
	and	esi, 545654405
	and	edx, -545654406
	or	edx, esi
	and	ecx, 545654405
	and	r13d, -545654406
	or	r13d, ecx
	xor	r13d, edx
	mov	r9d, dword ptr [rdi + 20]
	mov	edx, r9d
	shr	edx
	mov	r12d, dword ptr [rdi + 16]
	mov	ecx, edx
	not	ecx
	and	ecx, 271330591
	and	edx, 1876153056
	or	edx, ecx
	mov	ebp, r12d
	not	ebp
	mov	ecx, ebp
	and	ecx, 271330591
	mov	ebx, r12d
	and	ebx, -271330592
	or	ebx, ecx
	xor	ebx, edx
	mov	edx, ebx
	xor	edx, -1431655766
	and	edx, ebx
	lea	ebx, [rdx + rdx]
	mov	ecx, ebx
	not	ecx
	and	ecx, -1767724987
	and	ebx, 1767724986
	or	ebx, ecx
	mov	ecx, r9d
	not	ecx
	and	ecx, -1767724987
	and	r9d, 1767724986
	or	r9d, ecx
	xor	r9d, ebx
	mov	ecx, edx
	not	ecx
	and	ecx, -751484714
	and	edx, 751484713
	or	edx, ecx
	and	ebp, -751484714
	and	r12d, 751484713
	or	r12d, ebp
	xor	r12d, edx
	mov	r8d, dword ptr [rdi + 28]
	mov	ecx, r8d
	shr	ecx
	mov	r10d, dword ptr [rdi + 24]
	mov	edx, ecx
	not	edx
	and	edx, 86655466
	and	ecx, 2060828181
	or	ecx, edx
	mov	ebx, r10d
	not	ebx
	mov	edx, ebx
	and	edx, 86655466
	mov	esi, r10d
	and	esi, -86655467
	or	esi, edx
	xor	esi, ecx
	mov	ebp, esi
	xor	ebp, -1431655766
	and	ebp, esi
	lea	ecx, [rbp + rbp]
	mov	edx, ecx
	not	edx
	and	edx, r8d
	not	r8d
	and	r8d, ecx
	or	r8d, edx
	mov	ecx, ebp
	not	ecx
	and	ecx, 1203593294
	and	ebp, -1203593295
	or	ebp, ecx
	and	ebx, 1203593294
	and	r10d, -1203593295
	or	r10d, ebx
	xor	r10d, ebp
	mov	ecx, r13d
	shr	ecx, 2
	mov	edx, ecx
	not	edx
	and	edx, -1529673930
	and	ecx, 455932105
	or	ecx, edx
	mov	edx, eax
	not	edx
	mov	esi, edx
	and	esi, -1529673930
	mov	ebp, eax
	and	ebp, 1529673929
	or	ebp, esi
	xor	ebp, ecx
	mov	ecx, ebp
	not	ecx
	or	ecx, -858993460
	and	ebp, 858993459
	lea	esi, [4*rbp]
	mov	ebx, esi
	not	ebx
	and	ebx, r13d
	not	r13d
	and	r13d, esi
	or	r13d, ebx
	and	ecx, eax
	and	ebp, edx
	or	ebp, ecx
	mov	ecx, r14d
	shr	ecx, 2
	mov	eax, ecx
	not	eax
	and	eax, -212713991
	and	ecx, 212713990
	or	ecx, eax
	mov	edx, r15d
	not	edx
	mov	esi, edx
	and	esi, -212713991
	mov	eax, r15d
	and	eax, 212713990
	or	eax, esi
	xor	eax, ecx
	mov	ecx, eax
	not	ecx
	or	ecx, -858993460
	and	eax, 858993459
	lea	esi, [4*rax]
	mov	ebx, esi
	not	ebx
	and	ebx, -482212769
	and	esi, 210552960
	or	esi, ebx
	mov	ebx, r14d
	not	ebx
	and	ebx, -482212769
	and	r14d, 482212768
	or	r14d, ebx
	xor	r14d, esi
	and	ecx, r15d
	and	eax, edx
	or	eax, ecx
	mov	ecx, r10d
	shr	ecx, 2
	mov	edx, ecx
	not	edx
	and	edx, 194547661
	and	ecx, 879194162
	or	ecx, edx
	mov	r15d, r12d
	not	r15d
	mov	ebx, r15d
	and	ebx, 194547661
	mov	edx, r12d
	and	edx, -194547662
	or	edx, ebx
	xor	edx, ecx
	mov	ecx, edx
	not	ecx
	or	ecx, -858993460
	and	edx, 858993459
	lea	esi, [4*rdx]
	mov	ebx, esi
	not	ebx
	and	ebx, r10d
	not	r10d
	and	r10d, esi
	or	r10d, ebx
	and	ecx, r12d
	and	edx, r15d
	or	edx, ecx
	mov	ecx, r8d
	shr	ecx, 2
	mov	esi, ecx
	not	esi
	and	esi, r9d
	mov	r15d, r9d
	not	r15d
	and	ecx, r15d
	or	ecx, esi
	mov	r12d, ecx
	xor	r12d, -858993460
	and	r12d, ecx
	lea	ecx, [4*r12]
	mov	esi, ecx
	not	esi
	and	esi, r8d
	not	r8d
	and	r8d, ecx
	or	r8d, esi
	mov	ecx, r12d
	not	ecx
	and	ecx, 1093395970
	and	r12d, -1093395971
	or	r12d, ecx
	and	r15d, 1093395970
	and	r9d, -1093395971
	or	r9d, r15d
	xor	r9d, r12d
	mov	ecx, edx
	shr	ecx, 4
	mov	esi, ecx
	not	esi
	and	esi, ebp
	mov	r15d, ebp
	not	r15d
	and	ecx, r15d
	or	ecx, esi
	mov	esi, ecx
	xor	esi, -252645136
	and	esi, ecx
	mov	ecx, esi
	shl	ecx, 4
	mov	ebx, ecx
	not	ebx
	and	ebx, edx
	not	edx
	and	edx, ecx
	or	edx, ebx
	mov	dword ptr [rdi + 16], edx
	mov	ecx, esi
	not	ecx
	and	ecx, -48756566
	and	esi, 48756565
	or	esi, ecx
	and	r15d, -48756566
	and	ebp, 48756565
	or	ebp, r15d
	xor	ebp, esi
	mov	dword ptr [rdi], ebp
	mov	ecx, r9d
	shr	ecx, 4
	mov	edx, ecx
	not	edx
	and	edx, 2084464135
	and	ecx, 63019512
	or	ecx, edx
	mov	edx, eax
	not	edx
	mov	esi, edx
	and	esi, 2084464135
	mov	ebx, eax
	and	ebx, -2084464136
	or	ebx, esi
	xor	ebx, ecx
	mov	ecx, ebx
	xor	ecx, -252645136
	and	ecx, ebx
	mov	esi, ecx
	shl	esi, 4
	mov	ebx, esi
	not	ebx
	and	ebx, r9d
	not	r9d
	and	r9d, esi
	or	r9d, ebx
	mov	dword ptr [rdi + 20], r9d
	mov	esi, ecx
	not	esi
	and	esi, eax
	and	ecx, edx
	or	ecx, esi
	mov	dword ptr [rdi + 4], ecx
	mov	eax, r10d
	shr	eax, 4
	mov	ecx, eax
	not	ecx
	and	ecx, r13d
	mov	edx, r13d
	not	edx
	and	eax, edx
	or	eax, ecx
	mov	ecx, eax
	not	ecx
	or	ecx, 1886400608
	mov	esi, eax
	and	esi, 252645135
	shl	esi, 4
	mov	ebp, esi
	not	ebp
	and	ebp, -16387134
	and	esi, 15728688
	or	esi, ebp
	mov	ebp, r10d
	not	ebp
	and	ebp, -16387134
	and	r10d, 16387133
	or	r10d, ebp
	xor	r10d, esi
	mov	dword ptr [rdi + 24], r10d
	and	ecx, 1937650795
	and	eax, 201394948
	or	eax, ecx
	and	edx, 1937650795
	and	r13d, -1937650796
	or	r13d, edx
	xor	r13d, eax
	mov	dword ptr [rdi + 8], r13d
	mov	ecx, r8d
	shr	ecx, 4
	mov	edx, ecx
	not	edx
	and	edx, r14d
	mov	eax, r14d
	not	eax
	and	ecx, eax
	or	ecx, edx
	mov	edx, ecx
	xor	edx, -252645136
	and	edx, ecx
	mov	ecx, edx
	shl	ecx, 4
	mov	esi, ecx
	not	esi
	and	esi, -558199348
	and	ecx, 558199344
	or	ecx, esi
	mov	esi, r8d
	not	esi
	and	esi, -558199348
	and	r8d, 558199347
	or	r8d, esi
	xor	r8d, ecx
	mov	dword ptr [rdi + 28], r8d
	mov	ecx, edx
	not	ecx
	and	ecx, r14d
	and	edx, eax
	or	edx, ecx
	mov	dword ptr [rdi + 12], edx
	mov	eax, -1396360073
	jmp	.LBB58_1
.LBB58_5:                               
	cmp	eax, 503663481
	jne	.LBB58_6

	pop	rbx
	pop	r12
	pop	r13
	pop	r14
	pop	r15
	pop	rbp
	ret
.Lfunc_end58:
	.size	_ZN5Botan12_GLOBAL__N_113bit_transposeEPj, .Lfunc_end58-_ZN5Botan12_GLOBAL__N_113bit_transposeEPj

	.type	_ZN5Botan12_GLOBAL__N_18AES_SBOXEPj,@function 
_ZN5Botan12_GLOBAL__N_18AES_SBOXEPj:    

	push	rbp
	push	r15
	push	r14
	push	r13
	push	r12
	push	rbx
	mov	qword ptr [rsp - 16], rdi 
	mov	eax, dword ptr [rip + x.132]
	mov	ecx, eax
	neg	ecx
	not	ecx
	imul	ecx, eax
	mov	eax, ecx
	xor	eax, -2
	test	eax, ecx
	sete	byte ptr [rsp - 38]
	mov	eax, dword ptr [rip + y.133]
	cmp	eax, 10
	setl	byte ptr [rsp - 37]
	mov	eax, 1950799317
	jmp	.LBB59_1
.LBB59_3:                               
	cmp	ecx, 234246767
	jne	.LBB59_1

	mov	rcx, qword ptr [rsp - 16] 
	mov	r8d, dword ptr [rcx]
	mov	ebp, dword ptr [rcx + 4]
	mov	r13d, dword ptr [rcx + 8]
	mov	edx, dword ptr [rcx + 12]
	mov	r14d, dword ptr [rcx + 20]
	mov	r9d, dword ptr [rcx + 24]
	mov	edi, dword ptr [rcx + 28]
	mov	eax, r14d
	not	eax
	mov	dword ptr [rsp - 68], eax 
	mov	ecx, edx
	and	ecx, eax
	mov	r15d, edx
	not	r15d
	mov	ebx, r14d
	and	ebx, r15d
	or	ebx, ecx
	mov	ecx, r13d
	not	ecx
	mov	dword ptr [rsp - 76], ebp 
	and	ecx, ebp
	mov	esi, ebp
	not	esi
	mov	dword ptr [rsp - 92], esi 
	and	r13d, esi
	or	r13d, ecx
	mov	eax, edi
	mov	dword ptr [rsp - 100], eax 
	mov	esi, eax
	not	esi
	mov	dword ptr [rsp - 64], esi 
	mov	ecx, r13d
	and	ecx, esi
	mov	esi, r13d
	not	esi
	mov	dword ptr [rsp - 32], esi 
	and	eax, esi
	or	eax, ecx
	mov	ecx, r9d
	not	ecx
	mov	edi, r8d
	and	edi, r15d
	and	r15d, eax
	mov	r12d, eax
	mov	dword ptr [rsp - 96], eax 
	and	eax, ecx
	and	ecx, 1130749858
	mov	ebp, r9d
	and	ebp, -1130749859
	or	ebp, ecx
	mov	dword ptr [rsp - 88], r8d 
	mov	esi, r8d
	not	esi
	mov	ecx, esi
	and	ecx, 1130749858
	mov	r10d, r8d
	and	r10d, -1130749859
	or	r10d, ecx
	xor	r10d, ebp
	mov	r11d, edx
	and	r11d, esi
	or	r11d, edi
	mov	ebp, r8d
	and	ebp, dword ptr [rsp - 68] 
	mov	edi, r14d
	and	edi, esi
	mov	r8d, esi
	mov	dword ptr [rsp - 24], r8d 
	or	edi, ebp
	mov	esi, r12d
	not	esi
	and	edx, esi
	or	r15d, edx
	and	r9d, esi
	mov	r12d, eax
	or	r12d, r9d
	mov	dword ptr [rsp - 104], r12d 
	not	r12d
	mov	ecx, r12d
	mov	dword ptr [rsp - 60], r12d 
	or	ecx, esi
	mov	dword ptr [rsp - 84], esi 
	mov	dword ptr [rsp - 56], ecx 
	and	ecx, r10d
	mov	dword ptr [rsp - 36], ecx 
	mov	eax, r10d
	not	r10d
	mov	dword ptr [rsp - 28], r10d 
	and	r10d, -92272056
	and	eax, 92272055
	or	eax, r10d
	mov	ecx, ebx
	not	ecx
	mov	dword ptr [rsp - 44], ecx 
	mov	edx, ecx
	and	edx, -92272056
	and	ebx, 92272055
	or	ebx, edx
	xor	ebx, eax
	mov	eax, dword ptr [rsp - 88] 
	and	eax, esi
	mov	ecx, dword ptr [rsp - 96] 
	and	ecx, r8d
	or	ecx, eax
	mov	dword ptr [rsp - 96], ecx 
	mov	dword ptr [rsp - 72], r15d 
	mov	r8d, r15d
	mov	ebp, dword ptr [rsp - 64] 
	xor	r8d, ebp
	and	r8d, r15d
	mov	r9d, r8d
	not	r9d
	and	r9d, edi
	mov	r15d, edi
	and	edi, r12d
	not	r15d
	mov	ecx, dword ptr [rsp - 104] 
	and	ecx, r15d
	or	ecx, edi
	mov	dword ptr [rsp - 104], ecx 
	mov	rdx, qword ptr [rsp - 16] 
	mov	edx, dword ptr [rdx + 16]
	mov	edi, edx
	not	edx
	and	edx, ebx
	not	ebx
	mov	dword ptr [rsp - 80], ebx 
	and	edi, ebx
	or	edx, edi
	mov	edi, edx
	not	edi
	mov	ebx, edi
	and	ebx, -1579889948
	mov	esi, edx
	and	esi, 1579889947
	or	esi, ebx
	mov	eax, dword ptr [rsp - 68] 
	and	eax, -1579889948
	and	r14d, 1579889947
	or	r14d, eax
	xor	r14d, esi
	and	edi, -764268340
	and	edx, 764268339
	or	edx, edi
	mov	eax, dword ptr [rsp - 92] 
	and	eax, -764268340
	mov	r10d, dword ptr [rsp - 76] 
	and	r10d, 764268339
	or	r10d, eax
	xor	r10d, edx
	mov	edi, r14d
	not	edi
	mov	dword ptr [rsp - 48], edi 
	mov	edx, edi
	and	edx, 1579974237
	mov	esi, r14d
	and	esi, -1579974238
	or	esi, edx
	mov	edx, ebp
	and	edx, 1579974237
	mov	ecx, dword ptr [rsp - 100] 
	mov	eax, ecx
	and	eax, -1579974238
	or	eax, edx
	xor	eax, esi
	mov	dword ptr [rsp - 52], eax 
	mov	edx, r13d
	and	edx, edi
	mov	ebx, dword ptr [rsp - 32] 
	and	r14d, ebx
	or	r14d, edx
	mov	edx, r10d
	not	edx
	mov	esi, edx
	and	esi, -504196325
	mov	edi, r10d
	and	edi, 504196324
	or	edi, esi
	mov	r12d, r11d
	not	r12d
	mov	esi, r12d
	mov	dword ptr [rsp - 92], r12d 
	and	esi, -504196325
	and	r11d, 504196324
	or	r11d, esi
	xor	r11d, edi
	mov	eax, r11d
	not	eax
	mov	dword ptr [rsp - 68], eax 
	mov	esi, eax
	and	esi, 1984165993
	mov	edi, r11d
	and	edi, -1984165994
	or	edi, esi
	mov	esi, ebp
	and	esi, 1984165993
	and	ecx, -1984165994
	or	ecx, esi
	xor	ecx, edi
	mov	dword ptr [rsp - 100], ecx 
	mov	dword ptr [rsp - 20], r15d 
	and	r8d, r15d
	or	r8d, r9d
	mov	r9d, r8d
	not	r9d
	and	r9d, r14d
	mov	esi, r14d
	not	r14d
	mov	edi, r14d
	mov	ebp, r14d
	mov	dword ptr [rsp - 76], ebp 
	and	edi, -253482312
	and	esi, 253482311
	or	esi, edi
	mov	ecx, dword ptr [rsp - 68] 
	mov	edi, ecx
	and	edi, -253482312
	mov	eax, r11d
	and	eax, 253482311
	or	eax, edi
	xor	eax, esi
	mov	esi, ecx
	mov	r14d, ecx
	and	esi, -39855410
	and	r11d, 39855409
	or	r11d, esi
	mov	esi, ebx
	and	esi, -39855410
	and	r13d, 39855409
	or	r13d, esi
	xor	r13d, r11d
	not	eax
	mov	dword ptr [rsp - 32], eax 
	mov	ecx, eax
	or	ecx, dword ptr [rsp - 44] 
	mov	edi, ecx
	not	edi
	and	ecx, -1309849914
	and	edi, 1309849913
	or	edi, ecx
	mov	esi, r14d
	or	esi, r12d
	mov	eax, esi
	not	eax
	mov	ecx, ebp
	or	ecx, r15d
	mov	r14d, eax
	and	eax, ecx
	not	ecx
	and	ecx, esi
	and	esi, -1309849914
	and	r14d, 1309849913
	or	r14d, esi
	xor	r14d, edi
	or	ecx, eax
	and	r8d, ebp
	or	r8d, r9d
	mov	eax, dword ptr [rsp - 48] 
	or	eax, dword ptr [rsp - 80] 
	and	r10d, eax
	mov	edi, r8d
	and	r8d, eax
	mov	r9d, eax
	not	r9d
	and	edx, r9d
	or	edx, r10d
	mov	eax, edx
	not	eax
	and	eax, -1493224860
	and	edx, 1493224859
	or	edx, eax
	mov	esi, dword ptr [rsp - 104] 
	not	esi
	mov	dword ptr [rsp - 104], esi 
	mov	ebp, dword ptr [rsp - 52] 
	mov	eax, ebp
	xor	eax, esi
	and	eax, ebp
	mov	esi, eax
	not	esi
	and	esi, -1493224860
	and	eax, 1493224859
	or	eax, esi
	xor	eax, edx
	mov	edx, eax
	not	edx
	and	edx, 1960673342
	and	eax, -1960673343
	or	eax, edx
	mov	ebx, dword ptr [rsp - 56] 
	not	ebx
	mov	r10d, dword ptr [rsp - 28] 
	and	ebx, r10d
	or	ebx, dword ptr [rsp - 36] 
	mov	edx, ebx
	not	edx
	and	edx, r13d
	mov	ebp, r13d
	not	ebp
	and	ebx, ebp
	mov	dword ptr [rsp - 56], ebp 
	or	ebx, edx
	mov	edx, r13d
	xor	edx, r10d
	and	edx, r13d
	and	r13d, dword ptr [rsp - 24] 
	mov	esi, dword ptr [rsp - 88] 
	and	esi, ebp
	or	r13d, esi
	mov	esi, ebx
	not	esi
	and	esi, edx
	mov	r11d, r13d
	not	r11d
	and	r11d, edx
	mov	r12d, edx
	not	r12d
	and	ebx, r12d
	or	ebx, esi
	mov	esi, ebx
	not	esi
	and	esi, r14d
	mov	edx, r14d
	not	r14d
	and	ebx, r14d
	and	r14d, 1960673342
	and	edx, -1960673343
	or	edx, r14d
	xor	edx, eax
	not	edi
	and	edi, r9d
	or	r8d, edi
	and	r13d, r12d
	or	r13d, r11d
	mov	eax, dword ptr [rsp - 100] 
	not	eax
	mov	dword ptr [rsp - 100], eax 
	mov	edi, dword ptr [rsp - 96] 
	not	edi
	mov	dword ptr [rsp - 96], edi 
	or	eax, edi
	mov	edi, r13d
	and	r13d, eax
	not	eax
	not	edi
	and	edi, eax
	or	r13d, edi
	mov	eax, r8d
	not	eax
	and	eax, ecx
	mov	edi, r13d
	not	edi
	and	edi, ecx
	not	ecx
	and	r8d, ecx
	or	r8d, eax
	or	ebx, esi
	and	r13d, ecx
	or	r13d, edi
	mov	eax, ebx
	not	eax
	mov	ecx, edx
	xor	ecx, eax
	mov	ebp, eax
	mov	dword ptr [rsp - 88], ebp 
	and	ecx, edx
	mov	esi, edx
	not	edx
	and	edx, -1652397825
	and	esi, 1652397824
	or	esi, edx
	mov	edi, r8d
	not	edi
	mov	edx, edi
	and	edx, -1652397825
	mov	r10d, r8d
	and	r10d, 1652397824
	or	r10d, edx
	xor	r10d, esi
	mov	esi, ecx
	not	esi
	mov	r9d, esi
	and	r9d, -349882619
	mov	edx, ecx
	and	edx, 349882618
	or	edx, r9d
	mov	r12d, r13d
	not	r12d
	mov	r11d, r12d
	and	r11d, -349882619
	mov	r9d, r13d
	and	r9d, 349882618
	or	r9d, r11d
	xor	r9d, edx
	mov	r14d, r9d
	not	r14d
	mov	r11d, r10d
	not	r11d
	mov	edx, r14d
	or	edx, r11d
	mov	eax, r8d
	and	eax, edx
	not	edx
	and	edx, edi
	or	edx, eax
	mov	eax, ebp
	and	eax, -1660342073
	mov	ebp, ebx
	and	ebp, 1660342072
	or	ebp, eax
	mov	eax, r12d
	and	eax, -1660342073
	mov	r15d, r13d
	and	r15d, 1660342072
	or	r15d, eax
	xor	r15d, ebp
	mov	eax, esi
	and	eax, 1771263482
	mov	ebp, ecx
	and	ebp, -1771263483
	or	ebp, eax
	and	edi, 1771263482
	and	r8d, -1771263483
	or	r8d, edi
	xor	r8d, ebp
	xor	r15d, r8d
	not	r15d
	and	r15d, r8d
	mov	eax, r15d
	not	eax
	mov	edi, eax
	and	edi, -1168153251
	mov	ebp, r15d
	and	ebp, 1168153250
	or	ebp, edi
	and	eax, -1176692287
	and	r15d, 1176692286
	or	r15d, eax
	and	esi, -1176692287
	and	ecx, 1176692286
	or	ecx, esi
	xor	ecx, r15d
	not	ecx
	or	ecx, r12d
	and	r12d, -1168153251
	and	r13d, 1168153250
	or	r13d, r12d
	xor	r13d, ebp
	mov	r12d, r13d
	not	r12d
	mov	eax, ebx
	and	eax, r12d
	mov	edi, r13d
	and	edi, dword ptr [rsp - 88] 
	or	edi, eax
	mov	r8d, ecx
	not	r8d
	mov	eax, edi
	not	eax
	and	eax, r8d
	and	edi, ecx
	or	edi, eax
	mov	eax, ecx
	and	eax, 790984387
	mov	esi, r8d
	and	esi, -790984388
	or	esi, eax
	and	r14d, 790984387
	and	r9d, -790984388
	or	r9d, r14d
	xor	r9d, esi
	not	r9d
	mov	r14d, edx
	not	r14d
	or	r9d, r14d
	mov	eax, r9d
	not	eax
	and	r9d, -1204973059
	and	eax, 1204973058
	or	eax, r9d
	and	r11d, -1204973059
	and	r10d, 1204973058
	or	r10d, r11d
	xor	r10d, eax
	mov	eax, dword ptr [rsp - 64] 
	xor	eax, r13d
	and	eax, r13d
	mov	dword ptr [rsp - 64], eax 
	mov	r15d, r13d
	mov	r9d, dword ptr [rsp - 52] 
	xor	r9d, edi
	mov	esi, edi
	not	esi
	and	esi, r10d
	and	r15d, r14d
	and	r14d, r10d
	mov	eax, dword ptr [rsp - 84] 
	xor	eax, r10d
	and	eax, r10d
	mov	dword ptr [rsp - 84], eax 
	mov	eax, dword ptr [rsp - 60] 
	xor	eax, r10d
	and	eax, r10d
	mov	dword ptr [rsp - 60], eax 
	not	r10d
	not	r9d
	and	r9d, edi
	mov	eax, dword ptr [rsp - 104] 
	xor	eax, edi
	and	eax, edi
	mov	r13d, eax
	and	edi, r10d
	or	esi, edi
	and	r10d, edx
	mov	eax, dword ptr [rsp - 100] 
	xor	eax, edx
	and	eax, edx
	mov	dword ptr [rsp - 100], eax 
	mov	eax, dword ptr [rsp - 96] 
	xor	eax, edx
	and	eax, edx
	mov	dword ptr [rsp - 96], eax 
	and	edx, r12d
	or	edx, r15d
	or	r14d, r10d
	and	ecx, ebx
	and	r8d, dword ptr [rsp - 88] 
	or	r8d, ecx
	mov	eax, edx
	not	eax
	and	eax, esi
	mov	ecx, dword ptr [rsp - 76] 
	xor	ecx, esi
	and	ecx, esi
	mov	dword ptr [rsp - 76], ecx 
	not	esi
	mov	ecx, dword ptr [rsp - 68] 
	xor	ecx, edx
	and	ecx, edx
	mov	dword ptr [rsp - 68], ecx 
	mov	edi, dword ptr [rsp - 92] 
	xor	edi, edx
	and	edi, edx
	mov	dword ptr [rsp - 92], edi 
	and	edx, esi
	mov	ebp, esi
	or	eax, edx
	mov	ecx, dword ptr [rsp - 48] 
	xor	ecx, r8d
	and	ecx, r8d
	mov	r10d, ecx
	mov	esi, dword ptr [rsp - 80] 
	xor	esi, r8d
	and	esi, r8d
	mov	ecx, dword ptr [rsp - 72] 
	not	ecx
	or	ecx, r12d
	mov	dword ptr [rsp - 72], ecx 
	not	r14d
	mov	r8d, dword ptr [rsp - 56] 
	or	r8d, r14d
	or	r14d, dword ptr [rsp - 28] 
	not	eax
	mov	ebx, dword ptr [rsp - 32] 
	or	ebx, eax
	or	eax, dword ptr [rsp - 44] 
	or	ebp, dword ptr [rsp - 20] 
	mov	dword ptr [rsp - 88], ebp 
	mov	ecx, edi
	and	ecx, eax
	not	eax
	not	edi
	mov	dword ptr [rsp - 44], edi 
	and	eax, edi
	or	eax, ecx
	mov	r11d, eax
	not	r11d
	mov	edx, r13d
	mov	ecx, edx
	and	ecx, r11d
	not	edx
	and	edx, eax
	or	edx, ecx
	mov	dword ptr [rsp - 104], edx 
	mov	edi, edx
	not	edi
	mov	dword ptr [rsp - 48], edi 
	mov	ecx, esi
	and	ecx, edi
	not	esi
	and	esi, edx
	or	esi, ecx
	mov	dword ptr [rsp - 80], esi 
	mov	ecx, r10d
	not	ecx
	mov	edx, ecx
	and	edx, 646042429
	mov	edi, r10d
	and	edi, -646042430
	or	edi, edx
	mov	esi, dword ptr [rsp - 64] 
	mov	edx, esi
	not	edx
	and	edx, 646042429
	and	esi, -646042430
	or	esi, edx
	xor	esi, edi
	mov	r12d, esi
	mov	edx, r9d
	not	edx
	and	edx, 1456956407
	and	r9d, -1456956408
	or	r9d, edx
	and	ecx, 1456956407
	mov	esi, r10d
	and	esi, -1456956408
	or	esi, ecx
	xor	esi, r9d
	mov	r10d, r8d
	mov	r13d, r10d
	not	r13d
	mov	ecx, r10d
	and	ecx, 1317225856
	mov	edx, r13d
	and	edx, -1317225857
	or	edx, ecx
	mov	r8d, dword ptr [rsp - 84] 
	mov	ecx, r8d
	not	ecx
	and	ecx, 1317225856
	and	r8d, -1317225857
	or	r8d, ecx
	xor	r8d, edx
	mov	ecx, r14d
	not	ecx
	mov	dword ptr [rsp - 64], ecx 
	mov	edi, r12d
	not	edi
	mov	r15d, ecx
	and	r15d, edi
	mov	r9d, dword ptr [rsp - 100] 
	and	edi, r9d
	not	r9d
	and	r9d, r12d
	mov	edx, r12d
	and	edx, r14d
	or	r15d, edx
	mov	ecx, ebx
	mov	edx, ecx
	not	edx
	and	ecx, r8d
	mov	ebx, esi
	not	ebx
	and	ebx, r8d
	mov	r12d, r8d
	not	r12d
	and	edx, r12d
	or	edx, ecx
	mov	ecx, r15d
	not	ecx
	mov	ebp, dword ptr [rsp - 76] 
	and	ecx, ebp
	not	ebp
	and	ebp, r15d
	or	ebp, ecx
	mov	ecx, ebp
	not	ecx
	and	ecx, edx
	mov	r8d, edx
	not	r8d
	and	ebp, r8d
	or	ebp, ecx
	mov	r15d, ebp
	and	r12d, esi
	or	r12d, ebx
	or	r9d, edi
	mov	ecx, r9d
	not	ecx
	and	ecx, -2145878365
	and	r9d, 2145878364
	or	r9d, ecx
	and	r10d, -2145878365
	and	r13d, 2145878364
	or	r13d, r10d
	xor	r13d, r9d
	mov	ecx, r12d
	not	ecx
	mov	esi, dword ptr [rsp - 80] 
	and	ecx, esi
	mov	edi, esi
	not	edi
	and	r12d, edi
	or	r12d, ecx
	and	r8d, -1040517078
	and	edx, 1040517077
	or	edx, r8d
	mov	r8d, dword ptr [rsp - 68] 
	mov	ecx, r8d
	not	ecx
	and	ecx, -1040517078
	and	r8d, 1040517077
	or	r8d, ecx
	xor	r8d, edx
	and	r11d, 1715050004
	and	eax, -1715050005
	or	eax, r11d
	mov	ecx, dword ptr [rsp - 60] 
	mov	esi, ecx
	not	esi
	and	ecx, 1715050004
	and	esi, -1715050005
	or	esi, ecx
	xor	esi, eax
	mov	ecx, esi
	not	ecx
	and	ecx, r13d
	mov	r11d, r13d
	not	r11d
	and	esi, r11d
	or	esi, ecx
	mov	r10d, dword ptr [rsp - 96] 
	mov	ecx, r10d
	not	r10d
	and	r10d, r15d
	mov	edx, esi
	not	edx
	mov	eax, dword ptr [rsp - 64] 
	and	eax, edx
	and	edx, r15d
	mov	ebx, r15d
	not	ebx
	and	ecx, ebx
	or	r10d, ecx
	and	r14d, esi
	or	r14d, eax
	mov	ecx, dword ptr [rsp - 48] 
	and	ecx, -631646565
	mov	eax, dword ptr [rsp - 104] 
	and	eax, 631646564
	or	eax, ecx
	mov	ebp, eax
	mov	ecx, dword ptr [rsp - 72] 
	mov	eax, ecx
	not	eax
	and	ecx, -631646565
	and	eax, 631646564
	or	eax, ecx
	xor	eax, ebp
	and	edi, r8d
	mov	ebp, r8d
	not	ebp
	mov	ecx, dword ptr [rsp - 80] 
	and	ecx, ebp
	or	ecx, edi
	mov	r15d, ecx
	and	esi, ebx
	or	esi, edx
	mov	edi, ebp
	and	edi, 348693910
	mov	ebx, r8d
	and	ebx, -348693911
	or	ebx, edi
	mov	edi, r12d
	not	edi
	mov	edx, ebx
	xor	edx, -348693911
	and	edx, edi
	xor	ebx, 348693910
	and	ebx, r12d
	or	ebx, edx
	mov	ecx, dword ptr [rsp - 88] 
	mov	edx, dword ptr [rsp - 44] 
	and	edx, ecx
	mov	r9d, ecx
	not	r9d
	and	r9d, dword ptr [rsp - 92] 
	or	r9d, edx
	mov	edx, r9d
	not	edx
	and	edx, -1905389240
	and	r9d, 1905389239
	or	r9d, edx
	and	ebp, -1905389240
	and	r8d, 1905389239
	or	r8d, ebp
	xor	r8d, r9d
	mov	edx, r8d
	not	edx
	and	edx, r10d
	mov	ecx, eax
	not	ecx
	and	ecx, r10d
	not	r10d
	and	r8d, r10d
	or	r8d, edx
	mov	rdx, qword ptr [rsp - 16] 
	mov	dword ptr [rdx], r15d
	mov	dword ptr [rdx + 4], ebx
	mov	dword ptr [rdx + 8], r8d
	and	edi, 1814510484
	mov	dword ptr [rdx + 12], r12d
	and	r12d, -1814510485
	or	r12d, edi
	and	r11d, 1814510484
	and	r13d, -1814510485
	or	r13d, r11d
	xor	r13d, r12d
	and	r10d, eax
	or	r10d, ecx
	mov	dword ptr [rdx + 16], r13d
	mov	dword ptr [rdx + 20], r10d
	mov	dword ptr [rdx + 24], esi
	mov	dword ptr [rdx + 28], r14d
	mov	eax, dword ptr [rip + x.132]
	mov	ecx, dword ptr [rip + y.133]
	lea	edx, [rax - 1]
	imul	edx, eax
	not	edx
	or	edx, -2
	mov	edi, -1
	cmp	edx, edi
	sete	al
	cmp	ecx, 10
	setl	bl
	xor	bl, al
	mov	esi, 2030845935
	mov	ebp, 1282106254
	cmovne	esi, ebp
	cmp	edx, edi
	mov	eax, esi
	cmove	eax, ebp
	cmp	ecx, 10
	cmovge	eax, esi
	jmp	.LBB59_1
.LBB59_5:                               
	cmp	ecx, 957104111
	je	.LBB59_9

	cmp	ecx, 877057493
	jne	.LBB59_1

	mov	cl, byte ptr [rsp - 38]
	mov	al, byte ptr [rsp - 37]
	mov	edx, ecx
	xor	dl, al
	mov	edx, 2030845935
	mov	esi, 1307988591
	cmovne	edx, esi
	test	al, al
	mov	eax, edx
	cmovne	eax, esi
	test	cl, cl
	cmove	eax, edx
	jmp	.LBB59_1
.LBB59_9:                               
	mov	r12, qword ptr [rsp - 16] 
	mov	r11d, dword ptr [r12 + 4]
	mov	r9d, dword ptr [r12 + 8]
	mov	r15d, dword ptr [r12 + 12]
	mov	dword ptr [rsp - 96], r15d 
	mov	ebp, dword ptr [r12 + 20]
	mov	dword ptr [rsp - 72], ebp 
	mov	r14d, dword ptr [r12 + 24]
	mov	r8d, dword ptr [r12 + 28]
	mov	esi, ebp
	not	esi
	mov	dword ptr [rsp - 84], esi 
	mov	ecx, r15d
	and	ecx, esi
	not	r15d
	and	ebp, r15d
	mov	dword ptr [rsp - 92], r15d 
	or	ebp, ecx
	mov	edx, r14d
	not	edx
	mov	esi, r9d
	not	esi
	mov	dword ptr [rsp - 80], r11d 
	and	esi, r11d
	not	r11d
	and	r9d, r11d
	or	r9d, esi
	mov	ecx, r8d
	mov	dword ptr [rsp - 104], ecx 
	mov	esi, ecx
	not	esi
	mov	dword ptr [rsp - 28], esi 
	mov	ebx, r9d
	and	ebx, esi
	mov	r10d, r9d
	not	r10d
	mov	r13d, ecx
	and	r13d, r10d
	or	r13d, ebx
	mov	r8d, r13d
	mov	dword ptr [rsp - 60], r13d 
	mov	dword ptr [rsp - 100], r13d 
	and	r13d, edx
	and	edx, 161220371
	mov	ebx, r14d
	and	ebx, -161220372
	or	ebx, edx
	mov	rcx, r12
	mov	eax, dword ptr [rcx]
	mov	dword ptr [rsp - 52], eax 
	mov	r12d, eax
	not	r12d
	mov	edx, r12d
	mov	dword ptr [rsp - 36], r12d 
	and	edx, 161220371
	mov	edi, eax
	and	edi, -161220372
	or	edi, edx
	xor	edi, ebx
	and	eax, r15d
	mov	esi, dword ptr [rsp - 96] 
	and	esi, r12d
	or	esi, eax
	mov	r12d, dword ptr [rsp - 84] 
	mov	edx, r12d
	and	edx, 1699668263
	mov	eax, dword ptr [rsp - 72] 
	mov	ebx, eax
	and	ebx, -1699668264
	or	ebx, edx
	mov	dword ptr [rsp - 56], ebx 
	mov	r15d, edi
	not	r15d
	mov	ebx, ebp
	mov	edx, ebx
	and	edx, r15d
	mov	dword ptr [rsp - 64], r15d 
	not	ebx
	mov	dword ptr [rsp - 88], ebx 
	mov	ebp, edi
	and	ebp, ebx
	or	ebp, edx
	not	r8d
	and	r14d, r8d
	or	r13d, r14d
	mov	ebx, dword ptr [rcx + 16]
	mov	edx, ebx
	not	ebx
	and	ebx, ebp
	not	ebp
	mov	dword ptr [rsp - 44], ebp 
	and	edx, ebp
	or	ebx, edx
	mov	edx, ebx
	not	edx
	and	eax, edx
	mov	dword ptr [rsp - 72], eax 
	and	edx, dword ptr [rsp - 80] 
	and	r12d, ebx
	mov	dword ptr [rsp - 84], r12d 
	and	ebx, r11d
	or	ebx, edx
	mov	edx, ebx
	not	edx
	mov	dword ptr [rsp - 20], edx 
	mov	ecx, esi
	and	ecx, edx
	not	esi
	mov	dword ptr [rsp - 48], esi 
	mov	edx, ebx
	and	edx, esi
	or	edx, ecx
	mov	eax, edx
	not	eax
	mov	dword ptr [rsp - 68], eax 
	mov	ecx, eax
	and	ecx, 1284116692
	mov	dword ptr [rsp - 24], edx 
	mov	dword ptr [rsp - 80], edx 
	and	edx, -1284116693
	or	edx, ecx
	mov	dword ptr [rsp - 4], r10d 
	and	r10d, 1284116692
	mov	ecx, r9d
	and	r9d, -1284116693
	or	r9d, r10d
	xor	r9d, edx
	mov	esi, r13d
	xor	esi, r8d
	and	esi, r13d
	mov	edx, esi
	not	edx
	and	edx, 1526771619
	and	esi, -1526771620
	or	esi, edx
	and	r15d, 1526771619
	and	edi, -1526771620
	or	edi, r15d
	xor	edi, esi
	mov	dword ptr [rsp - 8], edi 
	mov	eax, dword ptr [rsp - 100] 
	mov	edx, dword ptr [rsp - 36] 
	and	eax, edx
	mov	r15d, edi
	not	r15d
	and	r15d, r9d
	mov	dword ptr [rsp - 76], r9d 
	and	r9d, edx
	mov	r11d, edx
	and	r11d, 1699668263
	mov	edi, dword ptr [rsp - 52] 
	mov	edx, edi
	and	edx, -1699668264
	or	edx, r11d
	xor	edx, dword ptr [rsp - 56] 
	mov	dword ptr [rsp - 32], r8d 
	mov	ebp, r8d
	and	ebp, -1015120669
	mov	esi, dword ptr [rsp - 60] 
	and	esi, 1015120668
	or	esi, ebp
	mov	r10d, esi
	mov	esi, dword ptr [rsp - 92] 
	and	esi, -1015120669
	mov	ebp, dword ptr [rsp - 96] 
	and	ebp, 1015120668
	or	ebp, esi
	xor	ebp, r10d
	mov	r14d, ebp
	mov	ebp, edi
	and	ebp, r8d
	or	eax, ebp
	mov	dword ptr [rsp - 100], eax 
	mov	ebp, r13d
	not	r13d
	mov	dword ptr [rsp - 56], r13d 
	mov	r8d, r13d
	and	r8d, 210983561
	and	ebp, -210983562
	or	ebp, r8d
	mov	eax, edx
	not	eax
	mov	r8d, eax
	mov	r12d, eax
	and	r8d, 210983561
	mov	eax, edx
	and	eax, -210983562
	or	eax, r8d
	xor	eax, ebp
	mov	dword ptr [rsp - 92], eax 
	mov	esi, dword ptr [rsp - 84] 
	or	esi, dword ptr [rsp - 72] 
	mov	eax, esi
	not	eax
	mov	ebp, dword ptr [rsp - 104] 
	mov	r8d, ebp
	and	r8d, eax
	mov	edi, esi
	mov	r11d, dword ptr [rsp - 28] 
	and	edi, r11d
	or	edi, r8d
	mov	dword ptr [rsp - 84], edi 
	mov	r8d, eax
	mov	edi, eax
	mov	dword ptr [rsp - 36], edi 
	and	r8d, 275255689
	and	esi, -275255690
	or	esi, r8d
	mov	eax, dword ptr [rsp - 4] 
	and	eax, 275255689
	and	ecx, -275255690
	or	ecx, eax
	xor	ecx, esi
	mov	r13d, dword ptr [rsp - 68] 
	mov	r8d, r13d
	and	r8d, 1341690951
	mov	eax, dword ptr [rsp - 24] 
	and	eax, -1341690952
	or	eax, r8d
	mov	r8d, r11d
	and	r8d, 1341690951
	and	ebp, -1341690952
	or	ebp, r8d
	xor	ebp, eax
	mov	dword ptr [rsp - 104], ebp 
	mov	dword ptr [rsp - 96], r14d 
	mov	ebp, r14d
	xor	ebp, r11d
	and	ebp, r14d
	mov	r8d, ebp
	not	r8d
	and	r8d, -1445939110
	and	ebp, 1445939109
	or	ebp, r8d
	mov	eax, r12d
	mov	dword ptr [rsp - 60], eax 
	mov	r8d, eax
	and	r8d, -1445939110
	and	edx, 1445939109
	or	edx, r8d
	xor	edx, ebp
	mov	r12d, ecx
	xor	r12d, eax
	and	r12d, ecx
	mov	r8d, edx
	not	r8d
	and	r8d, ecx
	mov	ebp, ecx
	mov	eax, ecx
	not	eax
	mov	ecx, eax
	mov	esi, eax
	mov	dword ptr [rsp - 72], esi 
	and	ecx, -450527056
	and	ebp, 450527055
	or	ebp, ecx
	mov	ecx, r13d
	and	ecx, -450527056
	mov	eax, dword ptr [rsp - 80] 
	and	eax, 450527055
	or	eax, ecx
	xor	eax, ebp
	not	eax
	mov	dword ptr [rsp - 80], eax 
	mov	ecx, eax
	or	ecx, dword ptr [rsp - 88] 
	mov	ebp, ecx
	not	ebp
	and	ecx, 1960501446
	and	ebp, -1960501447
	or	ebp, ecx
	or	r13d, dword ptr [rsp - 48] 
	mov	r10d, r12d
	and	r12d, r13d
	mov	r14d, r13d
	not	r13d
	and	r14d, 1960501446
	not	r10d
	and	r10d, r13d
	and	r13d, -1960501447
	or	r13d, r14d
	xor	r13d, ebp
	or	r12d, r10d
	and	edx, esi
	or	edx, r8d
	mov	ecx, edi
	or	ecx, dword ptr [rsp - 44] 
	and	ebx, ecx
	mov	r8d, edx
	and	edx, ecx
	not	ecx
	mov	eax, dword ptr [rsp - 20] 
	and	eax, ecx
	or	eax, ebx
	mov	ebx, eax
	not	ebx
	and	ebx, 546771267
	and	eax, -546771268
	or	eax, ebx
	mov	esi, dword ptr [rsp - 92] 
	not	esi
	mov	dword ptr [rsp - 92], esi 
	mov	edi, dword ptr [rsp - 84] 
	mov	ebx, edi
	xor	ebx, esi
	and	ebx, edi
	mov	ebp, ebx
	not	ebp
	and	ebp, 546771267
	and	ebx, -546771268
	or	ebx, ebp
	xor	ebx, eax
	mov	edi, ebx
	not	edi
	and	edi, r13d
	mov	ebp, r13d
	not	ebp
	and	ebx, ebp
	or	ebx, edi
	not	r8d
	and	r8d, ecx
	or	edx, r8d
	mov	ecx, edx
	not	ecx
	and	ecx, -209017185
	and	edx, 209017184
	or	edx, ecx
	mov	r8d, r12d
	not	r8d
	mov	ecx, r8d
	and	ecx, -209017185
	mov	r11d, r12d
	and	r11d, 209017184
	or	r11d, ecx
	xor	r11d, edx
	mov	edx, dword ptr [rsp - 76] 
	not	edx
	mov	dword ptr [rsp - 76], edx 
	mov	eax, dword ptr [rsp - 8] 
	and	eax, edx
	or	eax, r15d
	mov	ecx, eax
	not	ecx
	and	ecx, 328485244
	and	eax, -328485245
	or	eax, ecx
	mov	ecx, dword ptr [rsp - 52] 
	and	ecx, edx
	or	r9d, ecx
	mov	ecx, edx
	or	ecx, dword ptr [rsp - 64] 
	mov	edx, r9d
	and	r9d, ecx
	mov	esi, ecx
	not	ecx
	and	esi, 328485244
	not	edx
	and	edx, ecx
	and	ecx, -328485245
	or	ecx, esi
	xor	ecx, eax
	mov	esi, ecx
	not	esi
	and	esi, 2105823586
	and	ecx, -2105823587
	or	ecx, esi
	and	ebp, 2105823586
	and	r13d, -2105823587
	or	r13d, ebp
	xor	r13d, ecx
	or	r9d, edx
	mov	ecx, dword ptr [rsp - 104] 
	not	ecx
	mov	dword ptr [rsp - 104], ecx 
	mov	eax, dword ptr [rsp - 100] 
	not	eax
	mov	dword ptr [rsp - 100], eax 
	or	ecx, eax
	mov	edx, r9d
	and	r9d, ecx
	not	ecx
	not	edx
	and	edx, ecx
	or	r9d, edx
	mov	ecx, r9d
	not	ecx
	and	ecx, -715205532
	and	r9d, 715205531
	or	r9d, ecx
	and	r8d, -715205532
	and	r12d, 715205531
	or	r12d, r8d
	xor	r12d, r9d
	mov	eax, r13d
	not	eax
	mov	edx, ebx
	xor	edx, eax
	mov	r9d, eax
	mov	dword ptr [rsp - 52], r9d 
	and	edx, ebx
	mov	esi, ebx
	not	ebx
	and	ebx, r11d
	mov	edi, r11d
	not	edi
	and	esi, edi
	or	esi, ebx
	mov	ebx, edx
	not	ebx
	mov	eax, ebx
	and	eax, 334504224
	mov	ecx, edx
	and	ecx, -334504225
	or	ecx, eax
	mov	ebp, r12d
	not	ebp
	mov	r8d, ebp
	and	r8d, 334504224
	mov	eax, r12d
	and	eax, -334504225
	or	eax, r8d
	xor	eax, ecx
	mov	ecx, eax
	not	ecx
	mov	r14d, esi
	not	r14d
	mov	r8d, ecx
	or	r8d, r14d
	mov	r10d, r11d
	and	r10d, r8d
	not	r8d
	and	r8d, edi
	or	r8d, r10d
	mov	r10d, r9d
	and	r10d, -1977359037
	mov	r15d, r13d
	and	r15d, 1977359036
	or	r15d, r10d
	mov	r10d, ebp
	and	r10d, -1977359037
	mov	r9d, r12d
	and	r9d, 1977359036
	or	r9d, r10d
	xor	r9d, r15d
	and	r11d, ebx
	and	edi, edx
	or	edi, r11d
	xor	r9d, edi
	not	r9d
	and	r9d, edi
	mov	edi, r9d
	not	edi
	mov	r10d, edi
	and	r10d, -477950718
	mov	r11d, r9d
	and	r11d, 477950717
	or	r11d, r10d
	and	edi, 1097112713
	and	r9d, -1097112714
	or	r9d, edi
	and	ebx, 1097112713
	and	edx, -1097112714
	or	edx, ebx
	xor	edx, r9d
	not	edx
	or	edx, ebp
	and	ebp, -477950718
	and	r12d, 477950717
	or	r12d, ebp
	xor	r12d, r11d
	mov	r11d, r12d
	not	r11d
	mov	edi, r13d
	and	edi, r11d
	mov	r10d, r12d
	mov	r9d, dword ptr [rsp - 52] 
	and	r10d, r9d
	or	r10d, edi
	mov	ebp, edx
	not	ebp
	mov	edi, r10d
	not	edi
	and	edi, ebp
	and	r10d, edx
	or	r10d, edi
	and	eax, edx
	and	ecx, ebp
	or	ecx, eax
	mov	r15d, r8d
	not	r15d
	mov	eax, ecx
	xor	eax, r15d
	and	eax, ecx
	mov	ecx, eax
	not	ecx
	and	ecx, -365674062
	and	eax, 365674061
	or	eax, ecx
	and	r14d, -365674062
	and	esi, 365674061
	or	esi, r14d
	xor	esi, eax
	mov	ecx, esi
	not	ecx
	mov	eax, ecx
	mov	r14d, ecx
	and	eax, 885092633
	mov	ecx, esi
	and	ecx, -885092634
	or	ecx, eax
	mov	ebx, r10d
	not	ebx
	mov	eax, ebx
	and	eax, 885092633
	and	r10d, -885092634
	or	r10d, eax
	xor	r10d, ecx
	mov	eax, r15d
	and	eax, 1090540455
	mov	ecx, r8d
	and	ecx, -1090540456
	or	ecx, eax
	mov	eax, dword ptr [rsp - 96] 
	xor	eax, r12d
	not	eax
	and	eax, r12d
	mov	dword ptr [rsp - 96], eax 
	mov	edi, r11d
	and	edi, 1090540455
	and	r12d, -1090540456
	or	r12d, edi
	xor	r12d, ecx
	mov	eax, dword ptr [rsp - 100] 
	xor	eax, r8d
	and	eax, r8d
	mov	dword ptr [rsp - 100], eax 
	and	r8d, r14d
	and	esi, r15d
	or	esi, r8d
	and	edx, r13d
	and	ebp, r9d
	or	ebp, edx
	mov	eax, dword ptr [rsp - 72] 
	xor	eax, r10d
	and	eax, r10d
	mov	dword ptr [rsp - 72], eax 
	mov	eax, dword ptr [rsp - 60] 
	xor	eax, r10d
	and	eax, r10d
	mov	r8d, eax
	mov	ecx, r10d
	not	r10d
	and	r10d, -920239221
	and	ecx, 920239220
	or	ecx, r10d
	mov	edi, r12d
