	.text
	.intel_syntax noprefix
	.file	"/mnt/c/Users/Adam/Developer/CryptoFunctionDetection/crypto_implementations/botan/src/lib/block/aes/aes.cpp"
	.globl	_ZNK5Botan7AES_1288providerB5cxx11Ev 
	.p2align	4, 0x90
	.type	_ZNK5Botan7AES_1288providerB5cxx11Ev,@function
_ZNK5Botan7AES_1288providerB5cxx11Ev:   
.Lfunc_begin0:
	.cfi_startproc
	.cfi_personality 3, __gxx_personality_v0
	.cfi_lsda 3, .Lexception0

	push	rbx
.Lcfi0:
	.cfi_def_cfa_offset 16
	sub	rsp, 16
.Lcfi1:
	.cfi_def_cfa_offset 32
.Lcfi2:
	.cfi_offset rbx, -16
	mov	rbx, rdi
	call	_ZN5Botan12_GLOBAL__N_112aes_providerEv
.Ltmp0:
	lea	rdx, [rsp + 8]
	mov	rdi, rbx
	mov	rsi, rax
	call	_ZNSt7__cxx1112basic_stringIcSt11char_traitsIcESaIcEEC2EPKcRKS3_
.Ltmp1:

	mov	rax, rbx
	add	rsp, 16
	pop	rbx
	ret
.LBB0_2:
.Ltmp2:
	mov	rdi, rax
	call	_Unwind_Resume
.Lfunc_end0:
	.size	_ZNK5Botan7AES_1288providerB5cxx11Ev, .Lfunc_end0-_ZNK5Botan7AES_1288providerB5cxx11Ev
	.cfi_endproc
	.section	.gcc_except_table,"a",@progbits
	.p2align	2
GCC_except_table0:
.Lexception0:
	.byte	255                     
	.byte	3                       
	.byte	41                      
	.byte	3                       
	.byte	39                      
	.long	.Lfunc_begin0-.Lfunc_begin0 
	.long	.Ltmp0-.Lfunc_begin0    
	.long	0                       
	.byte	0                       
	.long	.Ltmp0-.Lfunc_begin0    
	.long	.Ltmp1-.Ltmp0           
	.long	.Ltmp2-.Lfunc_begin0    
	.byte	0                       
	.long	.Ltmp1-.Lfunc_begin0    
	.long	.Lfunc_end0-.Ltmp1      
	.long	0                       
	.byte	0                       
	.p2align	2

	.text
	.p2align	4, 0x90         
	.type	_ZN5Botan12_GLOBAL__N_112aes_providerEv,@function
_ZN5Botan12_GLOBAL__N_112aes_providerEv: 
	.cfi_startproc

	push	r14
.Lcfi3:
	.cfi_def_cfa_offset 16
	push	rbx
.Lcfi4:
	.cfi_def_cfa_offset 24
	sub	rsp, 24
.Lcfi5:
	.cfi_def_cfa_offset 48
.Lcfi6:
	.cfi_offset rbx, -24
.Lcfi7:
	.cfi_offset r14, -16
	mov	eax, dword ptr [rip + x]
	mov	ecx, dword ptr [rip + y]
	lea	edx, [rax - 1]
	imul	edx, eax
	mov	eax, edx
	xor	eax, -2
	test	eax, edx
	sete	byte ptr [rsp + 12]
	cmp	ecx, 10
	setl	byte ptr [rsp + 13]
	mov	ecx, -1433865399

	jmp	.LBB1_1
.LBB1_66:                               
	mov	ecx, -398380076
	.p2align	4, 0x90
.LBB1_1:                                
	cmp	ecx, -1061080889
	jle	.LBB1_2

	cmp	ecx, 515742029
	jle	.LBB1_26

	cmp	ecx, 1425546166
	jle	.LBB1_36

	cmp	ecx, 1425546167
	je	.LBB1_53

	cmp	ecx, 1737814321
	je	.LBB1_49

	cmp	ecx, 1967724295
	jne	.LBB1_1

	call	_ZN5Botan5CPUID10has_aes_niEv
	mov	ecx, 1208453570
	jmp	.LBB1_1
	.p2align	4, 0x90
.LBB1_2:                                
	cmp	ecx, -1396122061
	jle	.LBB1_3

	cmp	ecx, -1136637596
	jg	.LBB1_19

	cmp	ecx, -1396122060
	je	.LBB1_60

	cmp	ecx, -1198002044
	je	.LBB1_61

	cmp	ecx, -1377201009
	jne	.LBB1_1
	jmp	.LBB1_18
	.p2align	4, 0x90
.LBB1_26:                               
	cmp	ecx, -369063467
	jg	.LBB1_32

	cmp	ecx, -1061080888
	je	.LBB1_65

	cmp	ecx, -398380076
	jne	.LBB1_1

	mov	ecx, dword ptr [rip + x]
	mov	eax, dword ptr [rip + y]
	lea	edx, [rcx - 1]
	imul	edx, ecx
	not	edx
	or	edx, -2
	cmp	edx, -1
	sete	cl
	cmp	eax, 10
	setl	bl
	xor	bl, cl
	mov	ecx, -1377201009
	mov	esi, -1377201009
	jne	.LBB1_31

	mov	esi, -1665973388
.LBB1_31:                               
	cmp	edx, -1
	cmovne	ecx, esi
	cmp	eax, 10
	cmovge	ecx, esi
	jmp	.LBB1_1
	.p2align	4, 0x90
.LBB1_3:                                
	cmp	ecx, -1665973389
	jg	.LBB1_9

	cmp	ecx, -1855634033
	je	.LBB1_47

	cmp	ecx, -1727660818
	jne	.LBB1_1

	call	_ZN5Botan5CPUID9has_ssse3Ev
	mov	ecx, dword ptr [rip + x]
	mov	edx, dword ptr [rip + y]
	lea	esi, [rcx - 1]
	imul	esi, ecx
	not	esi
	or	esi, -2
	cmp	esi, -1
	sete	cl
	cmp	edx, 10
	setl	bl
	xor	bl, cl
	mov	ecx, -369063466
	mov	edi, -369063466
	jne	.LBB1_8

	mov	edi, -1061080888
.LBB1_8:                                
	cmp	esi, -1
	cmovne	ecx, edi
	cmp	edx, 10
	mov	byte ptr [rsp + 15], al
	cmovge	ecx, edi
	jmp	.LBB1_1
.LBB1_36:                               
	cmp	ecx, 515742030
	je	.LBB1_54

	cmp	ecx, 1208453570
	jne	.LBB1_1

	call	_ZN5Botan5CPUID10has_aes_niEv
	mov	ecx, dword ptr [rip + x]
	mov	edx, dword ptr [rip + y]
	lea	edi, [rcx - 1]
	imul	edi, ecx
	mov	esi, edi
	xor	esi, -2
	and	esi, edi
	sete	cl
	cmp	edx, 10
	setl	bl
	xor	bl, cl
	mov	edi, -1855634033
	mov	ecx, -1855634033
	jne	.LBB1_40

	mov	ecx, 1967724295
.LBB1_40:                               
	test	esi, esi
	je	.LBB1_42

	mov	edi, ecx
.LBB1_42:                               
	cmp	edx, 10
	mov	byte ptr [rsp + 14], al
	cmovl	ecx, edi
	jmp	.LBB1_1
.LBB1_19:                               
	cmp	ecx, -1136637595
	je	.LBB1_64

	cmp	ecx, -1117409312
	jne	.LBB1_1

	mov	ecx, dword ptr [rip + x]
	mov	eax, dword ptr [rip + y]
	lea	edx, [rcx - 1]
	imul	edx, ecx
	not	edx
	or	edx, -2
	cmp	edx, -1
	sete	bl
	mov	ecx, 1425546167
	mov	edx, -1136637595
	mov	esi, 1425546167
	je	.LBB1_23

	mov	esi, -1136637595
.LBB1_23:                               
	cmp	eax, 10
	setl	al
	cmovl	edx, esi
	xor	al, bl
	jne	.LBB1_1

	mov	ecx, edx
	jmp	.LBB1_1
.LBB1_32:                               
	cmp	ecx, -369063466
	je	.LBB1_58

	cmp	ecx, -77405635
	jne	.LBB1_1

	mov	ecx, -1198002044
	mov	r14d, .L.str.2
	jmp	.LBB1_1
.LBB1_9:                                
	cmp	ecx, -1665973388
	je	.LBB1_66

	cmp	ecx, -1433865399
	jne	.LBB1_1

	movzx	eax, byte ptr [rsp + 12]
	movzx	edx, byte ptr [rsp + 13]
	mov	ecx, eax
	xor	cl, dl
	mov	ecx, 1208453570
	mov	esi, 1208453570
	jne	.LBB1_13

	mov	esi, 1967724295
.LBB1_13:                               
	test	dl, dl
	cmove	ecx, esi
	test	al, al
	cmove	ecx, esi
	jmp	.LBB1_1
.LBB1_53:                               
	mov	ecx, -1198002044
	mov	r14d, .L.str
	jmp	.LBB1_1
.LBB1_49:                               
	mov	ecx, dword ptr [rip + x]
	mov	eax, dword ptr [rip + y]
	lea	edx, [rcx - 1]
	imul	edx, ecx
	mov	ecx, edx
	xor	ecx, -2
	and	ecx, edx
	sete	bl
	test	ecx, ecx
	mov	ecx, -1117409312
	mov	edx, -1136637595
	mov	esi, -1117409312
	je	.LBB1_51

	mov	esi, -1136637595
.LBB1_51:                               
	cmp	eax, 10
	setl	al
	cmovl	edx, esi
	xor	al, bl
	jne	.LBB1_1

	mov	ecx, edx
	jmp	.LBB1_1
.LBB1_60:                               
	mov	ecx, -1198002044
	mov	r14d, .L.str.1
	jmp	.LBB1_1
.LBB1_61:                               
	mov	ecx, dword ptr [rip + x]
	mov	eax, dword ptr [rip + y]
	lea	edx, [rcx - 1]
	imul	edx, ecx
	not	edx
	or	edx, -2
	cmp	edx, -1
	sete	cl
	cmp	eax, 10
	setl	bl
	xor	bl, cl
	mov	ecx, -398380076
	mov	esi, -398380076
	jne	.LBB1_63

	mov	esi, -1665973388
.LBB1_63:                               
	cmp	edx, -1
	cmovne	ecx, esi
	cmp	eax, 10
	mov	qword ptr [rsp + 16], r14
	cmovge	ecx, esi
	jmp	.LBB1_1
.LBB1_65:                               
	call	_ZN5Botan5CPUID9has_ssse3Ev
	mov	ecx, -1727660818
	jmp	.LBB1_1
.LBB1_47:                               
	movzx	eax, byte ptr [rsp + 14]
	test	al, al
	mov	ecx, 1737814321
	jne	.LBB1_1

	mov	ecx, 515742030
	jmp	.LBB1_1
.LBB1_54:                               
	mov	ecx, dword ptr [rip + x]
	mov	eax, dword ptr [rip + y]
	lea	edx, [rcx - 1]
	imul	edx, ecx
	mov	ecx, edx
	xor	ecx, -2
	and	ecx, edx
	sete	bl
	test	ecx, ecx
	mov	ecx, -1727660818
	mov	edx, -1061080888
	mov	esi, -1727660818
	je	.LBB1_56

	mov	esi, -1061080888
.LBB1_56:                               
	cmp	eax, 10
	setl	al
	cmovl	edx, esi
	xor	al, bl
	jne	.LBB1_1

	mov	ecx, edx
	jmp	.LBB1_1
.LBB1_58:                               
	movzx	eax, byte ptr [rsp + 15]
	test	al, al
	mov	ecx, -1396122060
	jne	.LBB1_1

	mov	ecx, -77405635
	jmp	.LBB1_1
.LBB1_64:                               
	mov	ecx, -1117409312
	jmp	.LBB1_1
.LBB1_18:
	mov	rax, qword ptr [rsp + 16]
	add	rsp, 24
	pop	rbx
	pop	r14
	ret
.Lfunc_end1:
	.size	_ZN5Botan12_GLOBAL__N_112aes_providerEv, .Lfunc_end1-_ZN5Botan12_GLOBAL__N_112aes_providerEv
	.cfi_endproc

	.section	.text._ZNSt7__cxx1112basic_stringIcSt11char_traitsIcESaIcEEC2EPKcRKS3_,"axG",@progbits,_ZNSt7__cxx1112basic_stringIcSt11char_traitsIcESaIcEEC2EPKcRKS3_,comdat
	.weak	_ZNSt7__cxx1112basic_stringIcSt11char_traitsIcESaIcEEC2EPKcRKS3_ 
	.p2align	4, 0x90
	.type	_ZNSt7__cxx1112basic_stringIcSt11char_traitsIcESaIcEEC2EPKcRKS3_,@function
_ZNSt7__cxx1112basic_stringIcSt11char_traitsIcESaIcEEC2EPKcRKS3_: 
	.cfi_startproc

	push	r15
.Lcfi8:
	.cfi_def_cfa_offset 16
	push	r14
.Lcfi9:
	.cfi_def_cfa_offset 24
	push	rbx
.Lcfi10:
	.cfi_def_cfa_offset 32
	sub	rsp, 16
.Lcfi11:
	.cfi_def_cfa_offset 48
.Lcfi12:
	.cfi_offset rbx, -32
.Lcfi13:
	.cfi_offset r14, -24
.Lcfi14:
	.cfi_offset r15, -16
	mov	r15, rsi
	mov	r14, rdi
	mov	eax, dword ptr [rip + x.516]
	mov	ecx, dword ptr [rip + y.517]
	mov	edx, eax
	neg	edx
	not	edx
	imul	edx, eax
	not	edx
	or	edx, -2
	lea	rsi, [r14 + 16]
	cmp	edx, -1
	sete	al
	sete	byte ptr [rsp + 4]
	mov	edi, 1131995098
	mov	r8d, 1859702318
	mov	edx, 1859702318
	cmove	edx, edi
	cmp	ecx, 10
	setl	cl
	setl	byte ptr [rsp + 5]
	cmovge	edx, r8d
	xor	cl, al
	cmovne	edx, edi
	mov	ecx, 1927137091
	mov	r9d, 1028543653
	jmp	.LBB2_1
.LBB2_11:                               
	movzx	ebx, byte ptr [rsp + 4]
	movzx	ecx, byte ptr [rsp + 5]
	mov	eax, ebx
	xor	al, cl
	test	cl, cl
	mov	ecx, 1859702318
	cmovne	ecx, r9d
	test	bl, bl
	cmove	ecx, r8d
	test	al, al
	cmovne	ecx, r9d
	.p2align	4, 0x90
.LBB2_1:                                
	mov	edi, ecx
	and	edi, 2147483647
	cmp	edi, 1859702317
	jg	.LBB2_9

	cmp	edi, 1028543653
	je	.LBB2_12

	cmp	edi, 1131995098
	jne	.LBB2_1
	jmp	.LBB2_4
	.p2align	4, 0x90
.LBB2_9:                                
	cmp	edi, 1859702318
	je	.LBB2_13

	cmp	edi, 1927137091
	jne	.LBB2_1
	jmp	.LBB2_11
.LBB2_12:                               
	mov	qword ptr [rsp + 8], rsi
	mov	ecx, edx
	jmp	.LBB2_1
.LBB2_13:                               
	mov	ecx, 1028543653
	jmp	.LBB2_1
.LBB2_4:
	mov	r8, qword ptr [rsp + 8]
	mov	ecx, dword ptr [rip + x.532]
	mov	edx, dword ptr [rip + y.533]
	lea	esi, [rcx - 1]
	imul	esi, ecx
	mov	ecx, esi
	xor	ecx, -2
	and	ecx, esi
	sete	bl
	sete	byte ptr [rsp + 6]
	test	ecx, ecx
	mov	esi, -2028026986
	mov	edi, 374801466
	mov	ecx, 374801466
	cmove	ecx, esi
	cmp	edx, 10
	setl	dl
	setl	byte ptr [rsp + 7]
	cmovge	ecx, edi
	xor	dl, bl
	cmovne	ecx, esi
	mov	esi, -1219250248
	mov	edi, 936436696
	jmp	.LBB2_5
.LBB2_16:                               
	mov	esi, ecx
	.p2align	4, 0x90
.LBB2_5:                                
	cmp	esi, 374801465
	jg	.LBB2_14

	cmp	esi, -2028026986
	je	.LBB2_18

	cmp	esi, -1219250248
	jne	.LBB2_5

	movzx	edx, byte ptr [rsp + 6]
	movzx	eax, byte ptr [rsp + 7]
	mov	ebx, edx
	xor	bl, al
	mov	ebx, 374801466
	cmovne	ebx, edi
	test	al, al
	mov	esi, ebx
	cmovne	esi, edi
	test	dl, dl
	cmove	esi, ebx
	jmp	.LBB2_5
	.p2align	4, 0x90
.LBB2_14:                               
	cmp	esi, 374801466
	je	.LBB2_17

	cmp	esi, 936436696
	jne	.LBB2_5
	jmp	.LBB2_16
.LBB2_17:                               
	mov	esi, 936436696
	jmp	.LBB2_5
.LBB2_18:
	mov	qword ptr [r14], r8
	test	r15, r15
	je	.LBB2_19

	mov	rdi, r15
	call	_ZNSt11char_traitsIcE6lengthEPKc
	mov	rdx, rax
	jmp	.LBB2_21
.LBB2_19:
	mov	rdx, -1
.LBB2_21:
	add	rdx, r15
	mov	rdi, r14
	mov	rsi, r15
	add	rsp, 16
	pop	rbx
	pop	r14
	pop	r15
	jmp	_ZNSt7__cxx1112basic_stringIcSt11char_traitsIcESaIcEE12_M_constructIPKcEEvT_S8_St20forward_iterator_tag 
.Lfunc_end2:
	.size	_ZNSt7__cxx1112basic_stringIcSt11char_traitsIcESaIcEEC2EPKcRKS3_, .Lfunc_end2-_ZNSt7__cxx1112basic_stringIcSt11char_traitsIcESaIcEEC2EPKcRKS3_
	.cfi_endproc

	.text
	.globl	_ZNK5Botan7AES_1928providerB5cxx11Ev 
	.p2align	4, 0x90
	.type	_ZNK5Botan7AES_1928providerB5cxx11Ev,@function
_ZNK5Botan7AES_1928providerB5cxx11Ev:   
.Lfunc_begin1:
	.cfi_startproc
	.cfi_personality 3, __gxx_personality_v0
	.cfi_lsda 3, .Lexception1

	push	rbx
.Lcfi15:
	.cfi_def_cfa_offset 16
	sub	rsp, 16
.Lcfi16:
	.cfi_def_cfa_offset 32
.Lcfi17:
	.cfi_offset rbx, -16
	mov	rbx, rdi
	call	_ZN5Botan12_GLOBAL__N_112aes_providerEv
.Ltmp3:
	lea	rdx, [rsp + 8]
	mov	rdi, rbx
	mov	rsi, rax
	call	_ZNSt7__cxx1112basic_stringIcSt11char_traitsIcESaIcEEC2EPKcRKS3_
.Ltmp4:

	mov	rax, rbx
	add	rsp, 16
	pop	rbx
	ret
.LBB3_2:
.Ltmp5:
	mov	rdi, rax
	call	_Unwind_Resume
.Lfunc_end3:
	.size	_ZNK5Botan7AES_1928providerB5cxx11Ev, .Lfunc_end3-_ZNK5Botan7AES_1928providerB5cxx11Ev
	.cfi_endproc
	.section	.gcc_except_table,"a",@progbits
	.p2align	2
GCC_except_table3:
.Lexception1:
	.byte	255                     
	.byte	3                       
	.byte	41                      
	.byte	3                       
	.byte	39                      
	.long	.Lfunc_begin1-.Lfunc_begin1 
	.long	.Ltmp3-.Lfunc_begin1    
	.long	0                       
	.byte	0                       
	.long	.Ltmp3-.Lfunc_begin1    
	.long	.Ltmp4-.Ltmp3           
	.long	.Ltmp5-.Lfunc_begin1    
	.byte	0                       
	.long	.Ltmp4-.Lfunc_begin1    
	.long	.Lfunc_end3-.Ltmp4      
	.long	0                       
	.byte	0                       
	.p2align	2

	.text
	.globl	_ZNK5Botan7AES_2568providerB5cxx11Ev 
	.p2align	4, 0x90
	.type	_ZNK5Botan7AES_2568providerB5cxx11Ev,@function
_ZNK5Botan7AES_2568providerB5cxx11Ev:   
.Lfunc_begin2:
	.cfi_startproc
	.cfi_personality 3, __gxx_personality_v0
	.cfi_lsda 3, .Lexception2

	push	rbx
.Lcfi18:
	.cfi_def_cfa_offset 16
	sub	rsp, 16
.Lcfi19:
	.cfi_def_cfa_offset 32
.Lcfi20:
	.cfi_offset rbx, -16
	mov	rbx, rdi
	call	_ZN5Botan12_GLOBAL__N_112aes_providerEv
.Ltmp6:
	lea	rdx, [rsp + 8]
	mov	rdi, rbx
	mov	rsi, rax
	call	_ZNSt7__cxx1112basic_stringIcSt11char_traitsIcESaIcEEC2EPKcRKS3_
.Ltmp7:

	mov	rax, rbx
	add	rsp, 16
	pop	rbx
	ret
.LBB4_2:
.Ltmp8:
	mov	rdi, rax
	call	_Unwind_Resume
.Lfunc_end4:
	.size	_ZNK5Botan7AES_2568providerB5cxx11Ev, .Lfunc_end4-_ZNK5Botan7AES_2568providerB5cxx11Ev
	.cfi_endproc
	.section	.gcc_except_table,"a",@progbits
	.p2align	2
GCC_except_table4:
.Lexception2:
	.byte	255                     
	.byte	3                       
	.byte	41                      
	.byte	3                       
	.byte	39                      
	.long	.Lfunc_begin2-.Lfunc_begin2 
	.long	.Ltmp6-.Lfunc_begin2    
	.long	0                       
	.byte	0                       
	.long	.Ltmp6-.Lfunc_begin2    
	.long	.Ltmp7-.Ltmp6           
	.long	.Ltmp8-.Lfunc_begin2    
	.byte	0                       
	.long	.Ltmp7-.Lfunc_begin2    
	.long	.Lfunc_end4-.Ltmp7      
	.long	0                       
	.byte	0                       
	.p2align	2

	.text
	.globl	_ZNK5Botan7AES_12811parallelismEv 
	.p2align	4, 0x90
	.type	_ZNK5Botan7AES_12811parallelismEv,@function
_ZNK5Botan7AES_12811parallelismEv:      
	.cfi_startproc

	push	rbp
.Lcfi21:
	.cfi_def_cfa_offset 16
	push	r14
.Lcfi22:
	.cfi_def_cfa_offset 24
	push	rbx
.Lcfi23:
	.cfi_def_cfa_offset 32
	sub	rsp, 16
.Lcfi24:
	.cfi_def_cfa_offset 48
.Lcfi25:
	.cfi_offset rbx, -32
.Lcfi26:
	.cfi_offset r14, -24
.Lcfi27:
	.cfi_offset rbp, -16
	mov	eax, dword ptr [rip + x.16]
	mov	ecx, eax
	neg	ecx
	not	ecx
	imul	ecx, eax
	not	ecx
	or	ecx, -2
	cmp	ecx, -1
	sete	byte ptr [rsp + 6]
	mov	eax, dword ptr [rip + y.17]
	cmp	eax, 10
	setl	byte ptr [rsp + 7]
	mov	eax, 974674605
	mov	ebx, 1952754269
	mov	r14d, -1587795804
	mov	ebp, 558901757
	jmp	.LBB5_1
.LBB5_7:                                
	movzx	ecx, byte ptr [rsp + 6]
	movzx	eax, byte ptr [rsp + 7]
	mov	edx, ecx
	xor	dl, al
	mov	edx, -1587795804
	cmovne	edx, ebp
	test	al, al
	mov	eax, edx
	cmovne	eax, ebp
	test	cl, cl
	cmove	eax, edx
	.p2align	4, 0x90
.LBB5_1:                                
	cmp	eax, 974674604
	jg	.LBB5_5

	cmp	eax, -1587795804
	je	.LBB5_9

	cmp	eax, 558901757
	jne	.LBB5_1

	call	_ZN5Botan12_GLOBAL__N_115aes_parallelismEv
	mov	qword ptr [rsp + 8], rax
	mov	eax, dword ptr [rip + x.16]
	lea	ecx, [rax - 1]
	imul	ecx, eax
	not	ecx
	or	ecx, -2
	cmp	ecx, -1
	sete	cl
	mov	eax, -1587795804
	cmove	eax, ebx
	cmp	dword ptr [rip + y.17], 10
	setl	dl
	cmovge	eax, r14d
	xor	dl, cl
	cmovne	eax, ebx
	jmp	.LBB5_1
	.p2align	4, 0x90
.LBB5_5:                                
	cmp	eax, 1952754269
	je	.LBB5_8

	cmp	eax, 974674605
	jne	.LBB5_1
	jmp	.LBB5_7
.LBB5_9:                                
	call	_ZN5Botan12_GLOBAL__N_115aes_parallelismEv
	mov	eax, 558901757
	jmp	.LBB5_1
.LBB5_8:
	mov	rax, qword ptr [rsp + 8]
	add	rsp, 16
	pop	rbx
	pop	r14
	pop	rbp
	ret
.Lfunc_end5:
	.size	_ZNK5Botan7AES_12811parallelismEv, .Lfunc_end5-_ZNK5Botan7AES_12811parallelismEv
	.cfi_endproc

	.p2align	4, 0x90         
	.type	_ZN5Botan12_GLOBAL__N_115aes_parallelismEv,@function
_ZN5Botan12_GLOBAL__N_115aes_parallelismEv: 
	.cfi_startproc

	push	rbp
.Lcfi28:
	.cfi_def_cfa_offset 16
	push	r15
.Lcfi29:
	.cfi_def_cfa_offset 24
	push	r14
.Lcfi30:
	.cfi_def_cfa_offset 32
	push	r12
.Lcfi31:
	.cfi_def_cfa_offset 40
	push	rbx
.Lcfi32:
	.cfi_def_cfa_offset 48
	sub	rsp, 16
.Lcfi33:
	.cfi_def_cfa_offset 64
.Lcfi34:
	.cfi_offset rbx, -48
.Lcfi35:
	.cfi_offset r12, -40
.Lcfi36:
	.cfi_offset r14, -32
.Lcfi37:
	.cfi_offset r15, -24
.Lcfi38:
	.cfi_offset rbp, -16
	mov	eax, dword ptr [rip + x.18]
	mov	ecx, dword ptr [rip + y.19]
	lea	edx, [rax - 1]
	imul	edx, eax
	not	edx
	or	edx, -2
	cmp	edx, -1
	sete	byte ptr [rsp + 13]
	cmp	ecx, 10
	setl	byte ptr [rsp + 14]
	mov	eax, 1029181792
	mov	r14d, 859237683
	mov	r12d, -1858292156
	mov	r15d, 2116948821
	mov	ebp, -2145059492

	jmp	.LBB6_1
.LBB6_14:                               
	call	_ZN5Botan5CPUID9has_ssse3Ev
	mov	eax, -2047907169
	mov	ebx, 2
	.p2align	4, 0x90
.LBB6_1:                                
	cmp	eax, -77994727
	jle	.LBB6_2

	cmp	eax, 1029181791
	jg	.LBB6_10

	cmp	eax, -77994726
	je	.LBB6_14

	cmp	eax, 859237683
	jne	.LBB6_1

	movzx	eax, byte ptr [rsp + 15]
	test	al, al
	mov	eax, -77994726
	cmovne	eax, r15d
	jmp	.LBB6_1
	.p2align	4, 0x90
.LBB6_2:                                
	cmp	eax, -2145059492
	je	.LBB6_13

	cmp	eax, -2047907169
	je	.LBB6_16

	cmp	eax, -1858292156
	jne	.LBB6_1

	call	_ZN5Botan5CPUID10has_aes_niEv
	mov	eax, -2145059492
	jmp	.LBB6_1
	.p2align	4, 0x90
.LBB6_10:                               
	cmp	eax, 2116948821
	je	.LBB6_15

	cmp	eax, 1029181792
	jne	.LBB6_1

	movzx	ecx, byte ptr [rsp + 13]
	movzx	eax, byte ptr [rsp + 14]
	mov	edx, ecx
	xor	dl, al
	test	al, al
	mov	eax, -1858292156
	cmovne	eax, ebp
	test	cl, cl
	cmove	eax, r12d
	test	dl, dl
	cmovne	eax, ebp
	jmp	.LBB6_1
.LBB6_13:                               
	call	_ZN5Botan5CPUID10has_aes_niEv
	mov	byte ptr [rsp + 15], al
	mov	eax, dword ptr [rip + x.18]
	lea	ecx, [rax - 1]
	imul	ecx, eax
	mov	eax, ecx
	xor	eax, -2
	and	eax, ecx
	sete	cl
	test	eax, eax
	mov	eax, -1858292156
	cmove	eax, r14d
	cmp	dword ptr [rip + y.19], 10
	setl	dl
	cmovge	eax, r12d
	xor	dl, cl
	cmovne	eax, r14d
	jmp	.LBB6_1
.LBB6_15:                               
	mov	eax, -2047907169
	mov	ebx, 4
	jmp	.LBB6_1
.LBB6_16:
	mov	rax, rbx
	add	rsp, 16
	pop	rbx
	pop	r12
	pop	r14
	pop	r15
	pop	rbp
	ret
.Lfunc_end6:
	.size	_ZN5Botan12_GLOBAL__N_115aes_parallelismEv, .Lfunc_end6-_ZN5Botan12_GLOBAL__N_115aes_parallelismEv
	.cfi_endproc

	.globl	_ZNK5Botan7AES_19211parallelismEv 
	.p2align	4, 0x90
	.type	_ZNK5Botan7AES_19211parallelismEv,@function
_ZNK5Botan7AES_19211parallelismEv:      
	.cfi_startproc

	push	rbp
.Lcfi39:
	.cfi_def_cfa_offset 16
	push	r14
.Lcfi40:
	.cfi_def_cfa_offset 24
	push	rbx
.Lcfi41:
	.cfi_def_cfa_offset 32
	sub	rsp, 16
.Lcfi42:
	.cfi_def_cfa_offset 48
.Lcfi43:
	.cfi_offset rbx, -32
.Lcfi44:
	.cfi_offset r14, -24
.Lcfi45:
	.cfi_offset rbp, -16
	mov	eax, dword ptr [rip + x.20]
	lea	ecx, [rax - 1]
	imul	ecx, eax
	mov	eax, ecx
	xor	eax, -2
	test	eax, ecx
	sete	byte ptr [rsp + 6]
	mov	eax, dword ptr [rip + y.21]
	cmp	eax, 10
	setl	byte ptr [rsp + 7]
	mov	eax, 1126611350
	mov	ebx, -927447501
	mov	r14d, -2070394743
	mov	ebp, -851340479
	jmp	.LBB7_1
.LBB7_7:                                
	movzx	ecx, byte ptr [rsp + 6]
	movzx	eax, byte ptr [rsp + 7]
	mov	edx, ecx
	xor	dl, al
	mov	edx, -2070394743
	cmovne	edx, ebp
	test	al, al
	mov	eax, edx
	cmovne	eax, ebp
	test	cl, cl
	cmove	eax, edx
	.p2align	4, 0x90
.LBB7_1:                                
	cmp	eax, -851340480
	jg	.LBB7_5

	cmp	eax, -2070394743
	je	.LBB7_9

	cmp	eax, -927447501
	jne	.LBB7_1
	jmp	.LBB7_4
	.p2align	4, 0x90
.LBB7_5:                                
	cmp	eax, -851340479
	je	.LBB7_8

	cmp	eax, 1126611350
	jne	.LBB7_1
	jmp	.LBB7_7
.LBB7_9:                                
	call	_ZN5Botan12_GLOBAL__N_115aes_parallelismEv
	mov	eax, -851340479
	jmp	.LBB7_1
.LBB7_8:                                
	call	_ZN5Botan12_GLOBAL__N_115aes_parallelismEv
	mov	qword ptr [rsp + 8], rax
	mov	eax, dword ptr [rip + x.20]
	mov	ecx, eax
	neg	ecx
	not	ecx
	imul	ecx, eax
	mov	eax, ecx
	xor	eax, -2
	and	eax, ecx
	sete	cl
	test	eax, eax
	mov	eax, -2070394743
	cmove	eax, ebx
	cmp	dword ptr [rip + y.21], 10
	setl	dl
	cmovge	eax, r14d
	xor	dl, cl
	cmovne	eax, ebx
	jmp	.LBB7_1
.LBB7_4:
	mov	rax, qword ptr [rsp + 8]
	add	rsp, 16
	pop	rbx
	pop	r14
	pop	rbp
	ret
.Lfunc_end7:
	.size	_ZNK5Botan7AES_19211parallelismEv, .Lfunc_end7-_ZNK5Botan7AES_19211parallelismEv
	.cfi_endproc

	.globl	_ZNK5Botan7AES_25611parallelismEv 
	.p2align	4, 0x90
	.type	_ZNK5Botan7AES_25611parallelismEv,@function
_ZNK5Botan7AES_25611parallelismEv:      
	.cfi_startproc

	jmp	_ZN5Botan12_GLOBAL__N_115aes_parallelismEv 
.Lfunc_end8:
	.size	_ZNK5Botan7AES_25611parallelismEv, .Lfunc_end8-_ZNK5Botan7AES_25611parallelismEv
	.cfi_endproc

	.globl	_ZNK5Botan7AES_1289encrypt_nEPKhPhm 
	.p2align	4, 0x90
	.type	_ZNK5Botan7AES_1289encrypt_nEPKhPhm,@function
_ZNK5Botan7AES_1289encrypt_nEPKhPhm:    
	.cfi_startproc

	push	rbp
.Lcfi46:
	.cfi_def_cfa_offset 16
	push	r15
.Lcfi47:
	.cfi_def_cfa_offset 24
	push	r14
.Lcfi48:
	.cfi_def_cfa_offset 32
	push	r13
.Lcfi49:
	.cfi_def_cfa_offset 40
	push	r12
.Lcfi50:
	.cfi_def_cfa_offset 48
	push	rbx
.Lcfi51:
	.cfi_def_cfa_offset 56
	push	rax
.Lcfi52:
	.cfi_def_cfa_offset 64
.Lcfi53:
	.cfi_offset rbx, -56
.Lcfi54:
	.cfi_offset r12, -48
.Lcfi55:
	.cfi_offset r13, -40
.Lcfi56:
	.cfi_offset r14, -32
.Lcfi57:
	.cfi_offset r15, -24
.Lcfi58:
	.cfi_offset rbp, -16
	mov	r14, rcx
	mov	r15, rdx
	mov	r13, rsi
	mov	r12, rdi
	lea	rax, [r12 + 8]
	mov	qword ptr [rsp], rax
	mov	rax, qword ptr [rsp]
	mov	rcx, qword ptr [rax]
	xor	esi, esi
	cmp	rcx, qword ptr [rax + 8]
	setne	sil
	call	_ZNK5Botan18SymmetricAlgorithm14verify_key_setEb
	mov	eax, 1652039222
	mov	ebp, -1657740567
	jmp	.LBB9_1
.LBB9_34:                               
	cmp	edx, -1
	cmovne	eax, esi
	cmp	ecx, 10
	cmovge	eax, esi
	.p2align	4, 0x90
.LBB9_1:                                
	cmp	eax, -247302588
	jle	.LBB9_2

	cmp	eax, 1652039221
	jg	.LBB9_16

	cmp	eax, -247302587
	je	.LBB9_35

	cmp	eax, 490768327
	je	.LBB9_31

	cmp	eax, 1158921966
	jne	.LBB9_1

	mov	rdi, r12
	mov	rsi, r13
	mov	rdx, r15
	mov	rcx, r14
	call	_ZNK5Botan7AES_12815vperm_encrypt_nEPKhPhm
	mov	eax, -2085630209
	jmp	.LBB9_1
	.p2align	4, 0x90
.LBB9_2:                                
	cmp	eax, -1452245806
	jle	.LBB9_3

	cmp	eax, -1452245805
	je	.LBB9_36

	cmp	eax, -1085016118
	je	.LBB9_22

	cmp	eax, -772614624
	jne	.LBB9_1

	mov	eax, -1702615090
	jmp	.LBB9_1
	.p2align	4, 0x90
.LBB9_16:                               
	cmp	eax, 2022188578
	je	.LBB9_32

	cmp	eax, 1795204634
	je	.LBB9_21

	cmp	eax, 1652039222
	jne	.LBB9_1

	call	_ZN5Botan5CPUID10has_aes_niEv
	test	al, al
	mov	eax, 1795204634
	cmovne	eax, ebp
	jmp	.LBB9_1
	.p2align	4, 0x90
.LBB9_3:                                
	cmp	eax, -2085630209
	je	.LBB9_26

	cmp	eax, -1657740567
	je	.LBB9_20

	cmp	eax, -1702615090
	jne	.LBB9_1
	jmp	.LBB9_6
.LBB9_35:                               
	mov	rcx, qword ptr [rsp]
	mov	rdi, r13
	mov	rsi, r15
	mov	rdx, r14
	call	_ZN5Botan12_GLOBAL__N_113aes_encrypt_nEPKhPhmRKSt6vectorIjNS_16secure_allocatorIjEEE
	mov	eax, dword ptr [rip + x.24]
	mov	ecx, dword ptr [rip + y.25]
	lea	edx, [rax - 1]
	imul	edx, eax
	not	edx
	or	edx, -2
	cmp	edx, -1
	sete	al
	cmp	ecx, 10
	setl	bl
	xor	bl, al
	mov	eax, -772614624
	mov	esi, -772614624
	jne	.LBB9_34
	jmp	.LBB9_33
.LBB9_31:                               
	mov	eax, -1702615090
	jmp	.LBB9_1
.LBB9_36:                               
	mov	rcx, qword ptr [rsp]
	mov	rdi, r13
	mov	rsi, r15
	mov	rdx, r14
	call	_ZN5Botan12_GLOBAL__N_113aes_encrypt_nEPKhPhmRKSt6vectorIjNS_16secure_allocatorIjEEE
	mov	eax, -247302587
	jmp	.LBB9_1
.LBB9_22:                               
	mov	eax, dword ptr [rip + x.24]
	mov	ecx, dword ptr [rip + y.25]
	lea	edx, [rax - 1]
	imul	edx, eax
	not	edx
	or	edx, -2
	cmp	edx, -1
	sete	bl
	mov	eax, -2085630209
	mov	edx, 1158921966
	mov	esi, -2085630209
	je	.LBB9_24

	mov	esi, 1158921966
.LBB9_24:                               
	cmp	ecx, 10
	setl	cl
	cmovl	edx, esi
	xor	cl, bl
	jne	.LBB9_1

	mov	eax, edx
	jmp	.LBB9_1
.LBB9_32:                               
	mov	eax, dword ptr [rip + x.24]
	mov	ecx, dword ptr [rip + y.25]
	lea	edx, [rax - 1]
	imul	edx, eax
	not	edx
	or	edx, -2
	cmp	edx, -1
	sete	al
	cmp	ecx, 10
	setl	bl
	xor	bl, al
	mov	eax, -247302587
	mov	esi, -247302587
	jne	.LBB9_34
.LBB9_33:                               
	mov	esi, -1452245805
	jmp	.LBB9_34
.LBB9_21:                               
	call	_ZN5Botan5CPUID9has_ssse3Ev
	test	al, al
	mov	eax, 2022188578
	mov	ecx, -1085016118
	cmovne	eax, ecx
	jmp	.LBB9_1
.LBB9_26:                               
	mov	rdi, r12
	mov	rsi, r13
	mov	rdx, r15
	mov	rcx, r14
	call	_ZNK5Botan7AES_12815vperm_encrypt_nEPKhPhm
	mov	eax, dword ptr [rip + x.24]
	mov	ecx, dword ptr [rip + y.25]
	lea	esi, [rax - 1]
	imul	esi, eax
	mov	edx, esi
	xor	edx, -2
	and	edx, esi
	sete	al
	cmp	ecx, 10
	setl	bl
	xor	bl, al
	mov	esi, 490768327
	mov	eax, 490768327
	jne	.LBB9_28

	mov	eax, 1158921966
.LBB9_28:                               
	test	edx, edx
	je	.LBB9_30

	mov	esi, eax
.LBB9_30:                               
	cmp	ecx, 10
	cmovl	eax, esi
	jmp	.LBB9_1
.LBB9_20:                               
	mov	rdi, r12
	mov	rsi, r13
	mov	rdx, r15
	mov	rcx, r14
	call	_ZNK5Botan7AES_12816hw_aes_encrypt_nEPKhPhm
	mov	eax, -1702615090
	jmp	.LBB9_1
.LBB9_6:
	add	rsp, 8
	pop	rbx
	pop	r12
	pop	r13
	pop	r14
	pop	r15
	pop	rbp
	ret
.Lfunc_end9:
	.size	_ZNK5Botan7AES_1289encrypt_nEPKhPhm, .Lfunc_end9-_ZNK5Botan7AES_1289encrypt_nEPKhPhm
	.cfi_endproc

	.section	.text._ZNK5Botan18SymmetricAlgorithm14verify_key_setEb,"axG",@progbits,_ZNK5Botan18SymmetricAlgorithm14verify_key_setEb,comdat
	.weak	_ZNK5Botan18SymmetricAlgorithm14verify_key_setEb 
	.p2align	4, 0x90
	.type	_ZNK5Botan18SymmetricAlgorithm14verify_key_setEb,@function
_ZNK5Botan18SymmetricAlgorithm14verify_key_setEb: 
	.cfi_startproc

	push	r14
.Lcfi59:
	.cfi_def_cfa_offset 16
	push	rbx
.Lcfi60:
	.cfi_def_cfa_offset 24
	push	rax
.Lcfi61:
	.cfi_def_cfa_offset 32
.Lcfi62:
	.cfi_offset rbx, -24
.Lcfi63:
	.cfi_offset r14, -16
	mov	r14, rdi
	movzx	eax, sil
	mov	dword ptr [rsp + 4], eax
	mov	eax, 394471538
	jmp	.LBB10_1
.LBB10_24:                              
	cmp	ecx, 10
	cmovl	eax, esi
	.p2align	4, 0x90
.LBB10_1:                               
	cmp	eax, -754234503
	jg	.LBB10_13

	cmp	eax, -1528432977
	jle	.LBB10_3

	cmp	eax, -1304477254
	je	.LBB10_32

	cmp	eax, -1156759056
	je	.LBB10_30

	cmp	eax, -1528432976
	jne	.LBB10_1
	jmp	.LBB10_12
	.p2align	4, 0x90
.LBB10_13:                              
	cmp	eax, 1780667305
	jg	.LBB10_18

	cmp	eax, -754234502
	je	.LBB10_25

	cmp	eax, 394471538
	jne	.LBB10_1

	cmp	dword ptr [rsp + 4], 0
	mov	eax, 1803673642
	je	.LBB10_1

	mov	eax, -1611936721
	jmp	.LBB10_1
	.p2align	4, 0x90
.LBB10_3:                               
	cmp	eax, -1684420896
	je	.LBB10_29

	cmp	eax, -1611936721
	jne	.LBB10_1

	mov	eax, dword ptr [rip + x.26]
	mov	ecx, dword ptr [rip + y.27]
	mov	edx, eax
	neg	edx
	not	edx
	imul	edx, eax
	mov	eax, edx
	xor	eax, -2
	and	eax, edx
	sete	bl
	test	eax, eax
	mov	eax, -1156759056
	mov	edx, 1780667306
	mov	esi, -1156759056
	je	.LBB10_7

	mov	esi, 1780667306
.LBB10_7:                               
	cmp	ecx, 10
	setl	cl
	cmovl	edx, esi
	xor	cl, bl
	jne	.LBB10_1

	mov	eax, edx
	jmp	.LBB10_1
	.p2align	4, 0x90
.LBB10_18:                              
	cmp	eax, 1780667306
	je	.LBB10_33

	cmp	eax, 1803673642
	jne	.LBB10_1

	mov	eax, dword ptr [rip + x.26]
	mov	ecx, dword ptr [rip + y.27]
	lea	esi, [rax - 1]
	imul	esi, eax
	mov	edx, esi
	xor	edx, -2
	and	edx, esi
	sete	al
	cmp	ecx, 10
	setl	bl
	xor	bl, al
	mov	esi, -754234502
	mov	eax, -754234502
	jne	.LBB10_22

	mov	eax, -1304477254
	test	edx, edx
	je	.LBB10_24
	jmp	.LBB10_23
.LBB10_32:                              
	mov	rdi, r14
	call	_ZNK5Botan18SymmetricAlgorithm23throw_key_not_set_errorEv
	mov	eax, -754234502
	jmp	.LBB10_1
.LBB10_30:                              
	mov	eax, dword ptr [rip + x.26]
	mov	ecx, dword ptr [rip + y.27]
	mov	esi, eax
	neg	esi
	not	esi
	imul	esi, eax
	mov	edx, esi
	xor	edx, -2
	and	edx, esi
	sete	al
	cmp	ecx, 10
	setl	bl
	xor	bl, al
	mov	esi, -1528432976
	mov	eax, -1528432976
	jne	.LBB10_22

	mov	eax, 1780667306
.LBB10_22:                              
	test	edx, edx
	je	.LBB10_24
.LBB10_23:                              
	mov	esi, eax
	jmp	.LBB10_24
.LBB10_25:                              
	mov	rdi, r14
	call	_ZNK5Botan18SymmetricAlgorithm23throw_key_not_set_errorEv
	mov	eax, dword ptr [rip + x.26]
	mov	ecx, dword ptr [rip + y.27]
	mov	edx, eax
	neg	edx
	not	edx
	imul	edx, eax
	mov	eax, edx
	xor	eax, -2
	and	eax, edx
	sete	bl
	test	eax, eax
	mov	eax, -1684420896
	mov	edx, -1304477254
	mov	esi, -1684420896
	je	.LBB10_27

	mov	esi, -1304477254
.LBB10_27:                              
	cmp	ecx, 10
	setl	cl
	cmovl	edx, esi
	xor	cl, bl
	jne	.LBB10_1

	mov	eax, edx
	jmp	.LBB10_1
.LBB10_29:                              
	mov	eax, -1611936721
	jmp	.LBB10_1
.LBB10_33:                              
	mov	eax, -1156759056
	jmp	.LBB10_1
.LBB10_12:
	add	rsp, 8
	pop	rbx
	pop	r14
	ret
.Lfunc_end10:
	.size	_ZNK5Botan18SymmetricAlgorithm14verify_key_setEb, .Lfunc_end10-_ZNK5Botan18SymmetricAlgorithm14verify_key_setEb
	.cfi_endproc

	.text
	.p2align	4, 0x90         
	.type	_ZN5Botan12_GLOBAL__N_113aes_encrypt_nEPKhPhmRKSt6vectorIjNS_16secure_allocatorIjEEE,@function
_ZN5Botan12_GLOBAL__N_113aes_encrypt_nEPKhPhmRKSt6vectorIjNS_16secure_allocatorIjEEE: 
	.cfi_startproc

	push	rbp
.Lcfi64:
	.cfi_def_cfa_offset 16
	push	r15
.Lcfi65:
	.cfi_def_cfa_offset 24
	push	r14
.Lcfi66:
	.cfi_def_cfa_offset 32
	push	r13
.Lcfi67:
	.cfi_def_cfa_offset 40
	push	r12
.Lcfi68:
	.cfi_def_cfa_offset 48
	push	rbx
.Lcfi69:
	.cfi_def_cfa_offset 56
	sub	rsp, 696
.Lcfi70:
	.cfi_def_cfa_offset 752
.Lcfi71:
	.cfi_offset rbx, -56
.Lcfi72:
	.cfi_offset r12, -48
.Lcfi73:
	.cfi_offset r13, -40
.Lcfi74:
	.cfi_offset r14, -32
.Lcfi75:
	.cfi_offset r15, -24
.Lcfi76:
	.cfi_offset rbp, -16
	mov	r12, rcx
	mov	r14, rdx
	mov	qword ptr [rsp + 224], rsi 
	mov	qword ptr [rsp + 216], rdi 
	mov	qword ptr [rsp + 160], r14
	mov	rax, qword ptr [r12 + 8]
	sub	rax, qword ptr [r12]
	sar	rax, 2
	mov	qword ptr [rsp + 232], rax
	mov	eax, 2007198581












	jmp	.LBB11_1
.LBB11_56:                              
	mov	ecx, 826228855
	cmove	eax, ecx
	.p2align	4, 0x90
.LBB11_1:                               







	cmp	eax, 515654682
	jle	.LBB11_2

	cmp	eax, 1221831157
	jle	.LBB11_28

	cmp	eax, 1727607179
	jle	.LBB11_42

	cmp	eax, 1967151196
	jg	.LBB11_53

	cmp	eax, 1727607180
	je	.LBB11_112

	cmp	eax, 1821313302
	jne	.LBB11_1

	mov	eax, 440687101
	xor	ecx, ecx
	mov	qword ptr [rsp + 136], rcx 
	jmp	.LBB11_1
	.p2align	4, 0x90
.LBB11_2:                               
	cmp	eax, -433745554
	jg	.LBB11_15

	cmp	eax, -1009978372
	jle	.LBB11_4

	cmp	eax, -788730929
	jg	.LBB11_12

	cmp	eax, -1009978371
	je	.LBB11_58

	cmp	eax, -1009383023
	jne	.LBB11_1

	mov	rax, qword ptr [r12 + 8]
	sub	rax, qword ptr [r12]
	cmp	rax, 208
	mov	eax, -433745553
	jmp	.LBB11_56
	.p2align	4, 0x90
.LBB11_28:                              
	cmp	eax, 934026296
	jle	.LBB11_29

	cmp	eax, 985250121
	jg	.LBB11_38

	cmp	eax, 934026297
	je	.LBB11_82

	cmp	eax, 934528332
	jne	.LBB11_1

	mov	rax, qword ptr [rsp + 56]
	shl	rax, 5
	lea	rdi, [rsp + rax + 272]
	mov	rsi, qword ptr [r12]
	mov	rax, qword ptr [rsp + 56]
	shl	rax, 2
	movabs	rcx, -7628179039252027882
	sub	rax, rcx
	lea	rdx, [rax + rcx + 4]
	call	_ZN5Botan12_GLOBAL__N_19ks_expandEPjPKjm
	mov	rax, qword ptr [rsp + 56]
	inc	rax
	mov	qword ptr [rsp + 136], rax 
	mov	eax, 440687101
	jmp	.LBB11_1
	.p2align	4, 0x90
.LBB11_15:                              
	cmp	eax, -2081543
	jle	.LBB11_16

	cmp	eax, 281728003
	jg	.LBB11_24

	cmp	eax, -2081542
	je	.LBB11_84

	cmp	eax, 262381051
	jne	.LBB11_1

	mov	rax, qword ptr [rsp + 40]
	mov	eax, -1231095705
	jmp	.LBB11_1
.LBB11_42:                              
	cmp	eax, 1298718399
	jg	.LBB11_46

	cmp	eax, 1221831158
	je	.LBB11_124

	cmp	eax, 1225212720
	jne	.LBB11_1

	mov	rax, qword ptr [rsp + 128] 
	mov	qword ptr [rsp + 64], rax
	mov	rax, qword ptr [rsp + 64]
	cmp	rax, 8
	mov	eax, -337047179
	mov	ecx, -41092019
	cmove	eax, ecx
	jmp	.LBB11_1
.LBB11_29:                              
	cmp	eax, 515654683
	je	.LBB11_113

	cmp	eax, 588264559
	je	.LBB11_85

	cmp	eax, 826228855
	jne	.LBB11_1

	mov	eax, dword ptr [rip + x.34]
	mov	ecx, dword ptr [rip + y.35]
	lea	edx, [rax - 1]
	imul	edx, eax
	mov	eax, edx
	xor	eax, -2
	and	eax, edx
	sete	dl
	cmp	ecx, 10
	setl	bl
	xor	bl, dl
	mov	edx, 1221831158
	mov	esi, -1009978371
	jmp	.LBB11_33
.LBB11_4:                               
	cmp	eax, -1645121110
	je	.LBB11_60

	cmp	eax, -1260771283
	je	.LBB11_95

	cmp	eax, -1231095705
	jne	.LBB11_1

	mov	eax, dword ptr [rip + x.34]
	mov	ecx, dword ptr [rip + y.35]
	lea	edx, [rax - 1]
	imul	edx, eax
	not	edx
	or	edx, -2
	cmp	edx, -1
	sete	al
	cmp	ecx, 10
	setl	bl
	xor	bl, al
	mov	esi, 262381051
	mov	edi, 985250122
	cmovne	esi, edi
	cmp	edx, -1
	mov	eax, esi
	cmove	eax, edi
	cmp	ecx, 10
	mov	rcx, qword ptr [rsp + 40]
	cmovge	eax, esi
	cmp	rcx, 8
	setne	byte ptr [rsp + 31]
	jmp	.LBB11_1
.LBB11_16:                              
	cmp	eax, -433745553
	je	.LBB11_57

	cmp	eax, -337047179
	je	.LBB11_111

	cmp	eax, -41092019
	jne	.LBB11_1

	mov	rax, qword ptr [rsp + 112]
	inc	rax
	mov	qword ptr [rsp + 152], rax 
	mov	eax, 1096755556
	jmp	.LBB11_1
.LBB11_38:                              
	cmp	eax, 985250122
	je	.LBB11_83

	cmp	eax, 1096755556
	jne	.LBB11_1

	mov	rax, qword ptr [rsp + 152] 
	mov	qword ptr [rsp + 112], rax
	mov	rax, qword ptr [rsp + 176]
	mov	rcx, qword ptr [rsp + 112]
	cmp	rcx, rax
	mov	eax, 1967151197
	mov	ecx, -1260771283
	cmove	eax, ecx
	jmp	.LBB11_1
.LBB11_53:                              
	cmp	eax, 1967151197
	je	.LBB11_103

	cmp	eax, 2007198581
	jne	.LBB11_1

	mov	rax, qword ptr [rsp + 232]
	cmp	rax, 44
	mov	eax, -1009383023
	jmp	.LBB11_56
.LBB11_12:                              
	cmp	eax, -788730928
	je	.LBB11_59

	cmp	eax, -443072296
	jne	.LBB11_1

	mov	qword ptr [rsp + 72], r15
	mov	rax, qword ptr [rsp + 72]
	cmp	rax, 8
	mov	eax, 515654683
	mov	ecx, 1727607180
	cmove	eax, ecx
	jmp	.LBB11_1
.LBB11_24:                              
	cmp	eax, 281728004
	je	.LBB11_61

	cmp	eax, 440687101
	jne	.LBB11_1

	mov	rax, qword ptr [rsp + 136] 
	mov	qword ptr [rsp + 56], rax
	mov	rax, qword ptr [rsp + 168]
	dec	rax
	mov	qword ptr [rsp + 176], rax
	mov	rax, qword ptr [rsp + 176]
	mov	rcx, qword ptr [rsp + 56]
	cmp	rcx, rax
	mov	eax, -788730928
	mov	ecx, 934528332
	cmovb	eax, ecx
	jmp	.LBB11_1
.LBB11_46:                              
	cmp	eax, 1298718400
	je	.LBB11_123

	cmp	eax, 1603273752
	jne	.LBB11_1
	jmp	.LBB11_48
.LBB11_82:                              
	mov	rax, qword ptr [rsp + 120] 
	mov	qword ptr [rsp + 40], rax
	mov	eax, dword ptr [rip + x.34]
	lea	ecx, [rax - 1]
	imul	ecx, eax
	not	ecx
	or	ecx, -2
	cmp	ecx, -1
	sete	cl
	mov	eax, 262381051
	mov	edi, -1231095705
	cmove	eax, edi
	cmp	dword ptr [rip + y.35], 10
	setl	dl
	mov	esi, 262381051
	cmovge	eax, esi
	xor	dl, cl
	cmovne	eax, edi
	jmp	.LBB11_1
.LBB11_124:                             
	xor	esi, esi
	mov	edx, 416
	lea	rdi, [rsp + 272]
	call	memset
	mov	eax, -1009978371
	jmp	.LBB11_1
.LBB11_83:                              
	mov	al, byte ptr [rsp + 31]
	test	al, al
	mov	eax, -2081542
	mov	ecx, 588264559
	cmovne	eax, ecx
	jmp	.LBB11_1
.LBB11_112:                             
	mov	rax, qword ptr [rsp + 32]
	mov	rsi, qword ptr [rsp + 192]
	shl	rsi, 2
	mov	rdx, qword ptr [rsp + 32]
	mov	rdi, qword ptr [rsp + 208]
	call	_ZN5Botan11copy_out_beIjEEvPhmPKT_
	mov	rax, qword ptr [rsp + 96]
	shl	rax, 4
	mov	rcx, qword ptr [rsp + 200]
	add	rcx, rax
	mov	qword ptr [rsp + 144], rcx 
	mov	r13, qword ptr [rsp + 208]
	add	r13, rax
	mov	rax, qword ptr [rsp + 96]
	movabs	rcx, 4956594251879001766
	add	r14, rcx
	sub	r14, rax
	sub	r14, rcx
	mov	qword ptr [rsp + 160], r14
	mov	rax, qword ptr [rsp + 104]
	mov	eax, -1645121110
	jmp	.LBB11_1
.LBB11_58:                              
	mov	rax, qword ptr [r12 + 8]
	movabs	rcx, -8852885527820303318
	sub	rax, rcx
	sub	rax, qword ptr [r12]
	add	rax, rcx
	sar	rax, 2
	neg	rax
	mov	rcx, -4
	sub	rcx, rax
	shr	rcx, 2
	mov	qword ptr [rsp + 168], rcx
	lea	rax, [rsp + 272]
	mov	qword ptr [rsp + 88], rax
	mov	rax, qword ptr [rsp + 88]
	mov	rdi, qword ptr [rsp + 88]
	xor	esi, esi
	mov	edx, 416
	call	memset
	mov	eax, dword ptr [rip + x.34]
	mov	ecx, dword ptr [rip + y.35]
	lea	edx, [rax - 1]
	imul	edx, eax
	mov	eax, edx
	xor	eax, -2
	and	eax, edx
	sete	dl
	cmp	ecx, 10
	setl	bl
	xor	bl, dl
	mov	edx, 1221831158
	mov	esi, 1821313302
.LBB11_33:                              
	cmovne	edx, esi
	test	eax, eax
	mov	eax, edx
	cmove	eax, esi
	cmp	ecx, 10
	cmovge	eax, edx
	jmp	.LBB11_1
.LBB11_84:                              
	mov	rdi, qword ptr [rsp + 32]
	call	_ZN5Botan12_GLOBAL__N_113bit_transposeEPj
	mov	eax, 1096755556
	xor	ecx, ecx
	mov	qword ptr [rsp + 152], rcx 
	jmp	.LBB11_1
.LBB11_103:                             
	mov	rdi, qword ptr [rsp + 32]
	call	_ZN5Botan12_GLOBAL__N_18AES_SBOXEPj
	mov	r9, qword ptr [rsp + 32]
	xor	ecx, ecx
	jmp	.LBB11_104
	.p2align	4, 0x90
.LBB11_109:                             
	mov	r8, qword ptr [rsp + 16]
	mov	edi, dword ptr [r9 + 4*r8]
	shl	rdi, 32
	mov	rdx, qword ptr [rsp + 16]
	movabs	rax, -720742648320238453
	lea	r10, [rdx + rax + 1]
	sub	r10, rax
	mov	ebp, dword ptr [r9 + 4*r10]
	or	rbp, rdi
	mov	rsi, rbp
	shr	rsi, 2
	mov	rdi, rsi
	not	rdi
	movabs	rax, -4284256146314961278
	and	rdi, rax
	mov	rbx, rax
	not	rbx
	and	rsi, rbx
	or	rsi, rdi
	mov	rdi, rbp
	not	rdi
	mov	rcx, rdi
	and	rcx, rax
	and	rbx, rbp
	or	rbx, rcx
	xor	rbx, rsi
	not	rbx
	movabs	rcx, 9626297317864209
	not	rcx
	or	rcx, rbx
	and	rbp, rcx
	not	rcx
	and	rdi, rcx
	or	rdi, rbp
	shl	rcx, 2
	mov	rbp, rdi
	not	rbp
	movabs	rax, -3244085061112897071
	and	rbp, rax
	mov	rsi, rax
	not	rsi
	and	rdi, rsi
	or	rdi, rbp
	and	rsi, rcx
	not	rcx
	and	rcx, rax
	or	rsi, rcx
	xor	rsi, rdi
	mov	rcx, rsi
	shr	rcx
	mov	rdi, rcx
	not	rdi
	movabs	rax, -7051986301132031886
	and	rdi, rax
	mov	rbp, rax
	not	rbp
	and	rcx, rbp
	or	rcx, rdi
	mov	rbx, rsi
	not	rbx
	mov	rdi, rbx
	and	rdi, rax
	and	rbp, rsi
	or	rbp, rdi
	xor	rbp, rcx
	not	rbp
	movabs	rcx, 23925738098196565
	not	rcx
	or	rcx, rbp
	mov	rdi, rcx
	not	rdi
	movabs	rax, -338367315894528741
	mov	rdx, rax
	and	rcx, rdx
	mov	rbp, rdx
	not	rbp
	mov	rax, rdi
	and	rax, rbp
	or	rax, rcx
	and	rbp, rsi
	and	rbx, rdx
	or	rbp, rbx
	xor	rbp, rax
	add	rdi, rdi
	mov	rax, rbp
	not	rax
	and	rax, rdi
	not	rdi
	and	rdi, rbp
	or	rdi, rax
	mov	rax, rdi
	shr	rax, 32
	mov	dword ptr [r9 + 4*r8], eax
	mov	dword ptr [r9 + 4*r10], edi
	mov	rax, qword ptr [rsp + 16]
	movabs	rcx, -6828667700068758374
	sub	rax, rcx
	lea	rcx, [rax + rcx + 2]
.LBB11_104:                             


	mov	edx, -784428030
	jmp	.LBB11_105
.LBB11_108:                             
	mov	qword ptr [rsp + 16], rcx
	mov	rdx, qword ptr [rsp + 16]
	cmp	rdx, 8
	mov	edx, -596551348
	mov	eax, 853390899
	cmove	edx, eax
	.p2align	4, 0x90
.LBB11_105:                             


	cmp	edx, 853390899
	je	.LBB11_110

	cmp	edx, -596551348
	je	.LBB11_109

	cmp	edx, -784428030
	jne	.LBB11_105
	jmp	.LBB11_108
.LBB11_59:                              
	lea	rax, [rsp + 80]
	mov	qword ptr [rsp + 184], rax
	mov	rax, qword ptr [rsp + 184]
	mov	qword ptr [rsp + 80], 2
	mov	eax, -1645121110
	mov	rcx, qword ptr [rsp + 216] 
	mov	qword ptr [rsp + 144], rcx 
	mov	r13, qword ptr [rsp + 224] 
	jmp	.LBB11_1
.LBB11_61:                              
	mov	rax, qword ptr [rsp + 80]
	mov	qword ptr [rsp + 48], rax
	mov	qword ptr [rsp + 16], r14
	mov	eax, dword ptr [rip + x.122]
	lea	ecx, [rax - 1]
	imul	ecx, eax
	mov	eax, ecx
	xor	eax, -2
	test	eax, ecx
	sete	al
	cmp	dword ptr [rip + y.123], 10
	setl	cl
	mov	edx, ecx
	and	dl, al
	xor	cl, al
	or	cl, dl
	mov	eax, -1616003958
	mov	ecx, 375570064
	cmovne	eax, ecx
	mov	ecx, -1616003958
	mov	edx, 1043178060
	cmovne	ecx, edx
	mov	edx, 1252777106
	mov	esi, 1749406826
	cmovne	edx, esi
	mov	esi, 1252777106
	mov	edi, -848021999
	cmovne	esi, edi
	mov	ebx, 1956681739

	jmp	.LBB11_62
.LBB11_74:                              
	mov	ebx, 1749406826
	.p2align	4, 0x90
.LBB11_62:                              

	mov	ebp, ebx
	cmp	ebp, 1043178059
	jle	.LBB11_63

	cmp	ebp, 1662306163
	jle	.LBB11_72

	cmp	ebp, 1662306164
	mov	ebx, edx
	je	.LBB11_62

	cmp	ebp, 1749406826
	mov	ebx, esi
	je	.LBB11_62

	cmp	ebp, 1956681739
	mov	ebx, ebp
	jne	.LBB11_62

	mov	rbp, qword ptr [rsp + 48]
	cmp	rbp, qword ptr [rsp + 16]
	mov	ebx, -1895053006
	jb	.LBB11_62

	mov	ebx, 1662306164
	jmp	.LBB11_62
	.p2align	4, 0x90
.LBB11_63:                              
	cmp	ebp, -1551648299
	jle	.LBB11_64

	cmp	ebp, -848021999
	je	.LBB11_81

	cmp	ebp, 375570064
	mov	ebx, ecx
	je	.LBB11_62

	cmp	ebp, -1551648298
	mov	ebx, ebp
	jne	.LBB11_62
	jmp	.LBB11_70
	.p2align	4, 0x90
.LBB11_72:                              
	cmp	ebp, 1043178060
	je	.LBB11_80

	cmp	ebp, 1252777106
	mov	ebx, ebp
	jne	.LBB11_62
	jmp	.LBB11_74
	.p2align	4, 0x90
.LBB11_64:                              
	cmp	ebp, -1895053006
	mov	ebx, eax
	je	.LBB11_62

	cmp	ebp, -1616003958
	mov	ebx, ebp
	jne	.LBB11_62

	mov	ebx, 375570064
	jmp	.LBB11_62
.LBB11_80:                              
	mov	ebx, -1551648298
	lea	rdi, [rsp + 80]
	jmp	.LBB11_62
.LBB11_81:                              
	mov	ebx, -1551648298
	lea	rdi, [rsp + 160]
	jmp	.LBB11_62
.LBB11_110:                             
	mov	rdi, qword ptr [rsp + 32]
	call	_ZN5Botan12_GLOBAL__N_111mix_columnsEPj
	mov	eax, 1225212720
	xor	ecx, ecx
	mov	qword ptr [rsp + 128], rcx 
	jmp	.LBB11_1
.LBB11_70:                              
	mov	rax, qword ptr [rdi]
	mov	qword ptr [rsp + 96], rax
	lea	rax, [rsp + 240]
	mov	rcx, rax
	mov	qword ptr [rsp + 104], rcx
	mov	rax, qword ptr [rsp + 104]
	mov	rax, qword ptr [rsp + 104]
	xorps	xmm0, xmm0
	movaps	xmmword ptr [rax + 16], xmm0
	movaps	xmmword ptr [rax], xmm0
	mov	qword ptr [rsp + 32], rcx
	mov	rax, qword ptr [rsp + 96]
	shl	rax, 2
	mov	qword ptr [rsp + 192], rax
	mov	rdi, qword ptr [rsp + 32]
	mov	rdx, qword ptr [rsp + 192]
	mov	rsi, qword ptr [rsp + 200]
	call	_ZN5Botan7load_beIjEEvPT_PKhm
	mov	rax, qword ptr [rsp + 32]
	mov	eax, 934026297
	xor	ecx, ecx
	mov	qword ptr [rsp + 120], rcx 
	jmp	.LBB11_1
.LBB11_85:                              
	mov	rdi, qword ptr [rsp + 40]
	and	edi, 3
	mov	ecx, dword ptr [rip + x.128]
	mov	edx, dword ptr [rip + y.129]
	lea	esi, [rcx - 1]
	imul	esi, ecx
	mov	ecx, esi
	xor	ecx, -2
	and	ecx, esi
	sete	bl
	sete	byte ptr [rsp + 15]
	test	ecx, ecx
	mov	ecx, 797656070
	mov	eax, -1017202002
	cmove	ecx, eax
	cmp	edx, 10
	setl	dl
	setl	byte ptr [rsp + 48]
	mov	esi, 797656070
	cmovge	ecx, esi
	xor	dl, bl
	cmovne	ecx, eax
	shl	rdi, 2
	add	rdi, qword ptr [r12]
	mov	edx, 1784130818
	jmp	.LBB11_86
.LBB11_93:                              
	mov	qword ptr [rsp + 16], rdi
	mov	edx, ecx
	.p2align	4, 0x90
.LBB11_86:                              

	cmp	edx, 1784130817
	jg	.LBB11_90

	cmp	edx, -1017202002
	je	.LBB11_94

	cmp	edx, 797656070
	jne	.LBB11_86

	mov	edx, 2008125803
	jmp	.LBB11_86
	.p2align	4, 0x90
.LBB11_90:                              
	cmp	edx, 2008125803
	je	.LBB11_93

	cmp	edx, 1784130818
	jne	.LBB11_86

	movzx	eax, byte ptr [rsp + 15]
	movzx	edx, byte ptr [rsp + 48]
	mov	ebx, eax
	xor	bl, dl
	mov	esi, 797656070
	mov	ebp, 2008125803
	cmovne	esi, ebp
	test	dl, dl
	mov	edx, esi
	cmovne	edx, ebp
	test	al, al
	cmove	edx, esi
	jmp	.LBB11_86
.LBB11_94:                              
	mov	rax, qword ptr [rsp + 16]
	mov	eax, dword ptr [rax]
	mov	rcx, qword ptr [rsp + 40]
	mov	edx, dword ptr [rsp + 4*rcx + 240]
	mov	esi, edx
	not	esi
	and	esi, eax
	not	eax
	and	eax, edx
	or	eax, esi
	mov	dword ptr [rsp + 4*rcx + 240], eax
	mov	rax, qword ptr [rsp + 40]
	movabs	rcx, 8322039005720473516
	sub	rax, rcx
	lea	rax, [rax + rcx + 1]
	mov	qword ptr [rsp + 120], rax 
	mov	eax, 934026297
	jmp	.LBB11_1
.LBB11_113:                             
	mov	rdx, qword ptr [rsp + 168]
	mov	rcx, qword ptr [rsp + 72]
	mov	eax, dword ptr [rip + x.128]
	mov	esi, dword ptr [rip + y.129]
	lea	edi, [rax - 1]
	imul	edi, eax
	not	edi
	or	edi, -2
	cmp	edi, -1
	sete	al
	cmp	esi, 10
	setl	bl
	setl	byte ptr [rsp + 48]
	xor	bl, al
	mov	eax, 797656070
	mov	ebp, -1017202002
	cmovne	eax, ebp
	cmp	edi, -1
	sete	byte ptr [rsp + 15]
	mov	edi, eax
	cmove	edi, ebp
	cmp	esi, 10
	cmovge	edi, eax
	shl	rdx, 2
	mov	rax, rcx
	xor	rax, -4
	and	rax, rcx
	mov	rbp, rax
	not	rbp
	movabs	rcx, 2018164256705126431
	mov	rbx, rcx
	mov	rsi, rbx
	not	rsi
	and	rax, rsi
	and	rsi, rdx
	not	rdx
	mov	rcx, rbp
	and	rcx, rbx
	or	rax, rcx
	or	rbp, rdx
	and	rdx, rbx
	or	rsi, rdx
	xor	rsi, rax
	not	rbp
	or	rbp, rsi
	shl	rbp, 2
	add	rbp, qword ptr [r12]
	mov	edx, 1784130818
	jmp	.LBB11_114
.LBB11_60:                              
	mov	rax, qword ptr [rsp + 144] 
	mov	qword ptr [rsp + 200], rax
	mov	qword ptr [rsp + 208], r13
	test	r14, r14
	mov	eax, 281728004
	mov	ecx, 1298718400
	cmove	eax, ecx
	jmp	.LBB11_1
.LBB11_95:                              
	mov	rdi, qword ptr [rsp + 32]
	call	_ZN5Botan12_GLOBAL__N_18AES_SBOXEPj
	mov	r10, qword ptr [rsp + 32]
	xor	ecx, ecx
	jmp	.LBB11_96
	.p2align	4, 0x90
.LBB11_101:                             
	mov	r8, qword ptr [rsp + 16]
	mov	edi, dword ptr [r10 + 4*r8]
	shl	rdi, 32
	mov	r9, qword ptr [rsp + 16]
	mov	edx, dword ptr [r10 + 4*r9 + 4]
	or	rdx, rdi
	mov	rdi, rdx
	shr	rdi, 2
	mov	rbp, rdi
	not	rbp
	movabs	rcx, 2778765786520922753
	mov	rax, rcx
	and	rbp, rax
	mov	rbx, rax
	not	rbx
	and	rdi, rbx
	or	rdi, rbp
	mov	rcx, rdx
	not	rcx
	mov	rsi, rcx
	and	rsi, rax
	and	rbx, rdx
	or	rbx, rsi
	xor	rbx, rdi
	not	rbx
	movabs	rsi, 9626297317864209
	not	rsi
	or	rsi, rbx
	mov	rbx, rsi
	not	rbx
	movabs	rax, 7452033292784696408
	and	rsi, rax
	mov	rbp, rax
	not	rbp
	mov	rdi, rbx
	and	rdi, rbp
	or	rdi, rsi
	and	rcx, rax
	and	rbp, rdx
	or	rbp, rcx
	xor	rbp, rdi
	shl	rbx, 2
	mov	rcx, rbp
	not	rcx
	movabs	rax, -813589288906795026
	and	rcx, rax
	mov	rsi, rax
	not	rsi
	and	rbp, rsi
	or	rbp, rcx
	and	rsi, rbx
	not	rbx
	and	rbx, rax
	or	rsi, rbx
	xor	rsi, rbp
	mov	rcx, rsi
	shr	rcx
	mov	rdx, rcx
	not	rdx
	and	rdx, rsi
	mov	rdi, rsi
	not	rdi
	and	rcx, rdi
	or	rcx, rdx
	not	rcx
	movabs	rdx, 23925738098196565
	not	rdx
	or	rdx, rcx
	and	rsi, rdx
	not	rdx
	and	rdi, rdx
	or	rdi, rsi
	add	rdx, rdx
	mov	rcx, rdi
	not	rcx
	movabs	rax, -748827692205422824
	and	rcx, rax
	mov	rsi, rax
	not	rsi
	and	rdi, rsi
	or	rdi, rcx
	and	rsi, rdx
	not	rdx
	and	rdx, rax
	or	rsi, rdx
	xor	rsi, rdi
	mov	rcx, rsi
	shr	rcx, 32
	mov	dword ptr [r10 + 4*r8], ecx
	mov	dword ptr [r10 + 4*r9 + 4], esi
	mov	rcx, qword ptr [rsp + 16]
	add	rcx, 2
.LBB11_96:                              


	mov	edx, -784428030
	jmp	.LBB11_97
.LBB11_100:                             
	mov	qword ptr [rsp + 16], rcx
	mov	rdx, qword ptr [rsp + 16]
	cmp	rdx, 8
	mov	edx, -596551348
	mov	eax, 853390899
	cmove	edx, eax
	.p2align	4, 0x90
.LBB11_97:                              


	cmp	edx, 853390899
	je	.LBB11_102

	cmp	edx, -596551348
	je	.LBB11_101

	cmp	edx, -784428030
	jne	.LBB11_97
	jmp	.LBB11_100
.LBB11_57:                              
	mov	rax, qword ptr [r12 + 8]
	movabs	rcx, -1355171559480319255
	add	rax, rcx
	sub	rax, qword ptr [r12]
	sub	rax, rcx
	cmp	rax, 240
	mov	eax, 1603273752
	jmp	.LBB11_56
.LBB11_111:                             
	mov	rax, qword ptr [rsp + 112]
	shl	rax, 3
	mov	rcx, qword ptr [rsp + 64]
	neg	rcx
	sub	rcx, rax
	shl	rcx, 2
	neg	rcx
	mov	eax, dword ptr [rsp + rcx + 272]
	mov	rcx, qword ptr [rsp + 64]
	mov	edx, dword ptr [rsp + 4*rcx + 240]
	mov	esi, edx
	not	esi
	and	esi, -547529110
	and	edx, 547529109
	or	edx, esi
	mov	esi, eax
	not	esi
	and	esi, -547529110
	and	eax, 547529109
	or	eax, esi
	xor	eax, edx
	mov	dword ptr [rsp + 4*rcx + 240], eax
	mov	rax, qword ptr [rsp + 64]
	movabs	rcx, -780083678291288764
	sub	rax, rcx
	lea	rax, [rax + rcx + 1]
	mov	qword ptr [rsp + 128], rax 
	mov	eax, 1225212720
	jmp	.LBB11_1
.LBB11_120:                             
	movzx	eax, byte ptr [rsp + 15]
	movzx	ecx, byte ptr [rsp + 48]
	mov	edx, eax
	xor	dl, cl
	mov	esi, 797656070
	mov	ebx, 2008125803
	cmovne	esi, ebx
	test	cl, cl
	mov	edx, esi
	cmovne	edx, ebx
	test	al, al
	cmove	edx, esi
	.p2align	4, 0x90
.LBB11_114:                             

	cmp	edx, 1784130817
	jg	.LBB11_118

	cmp	edx, -1017202002
	je	.LBB11_122

	cmp	edx, 797656070
	jne	.LBB11_114

	mov	edx, 2008125803
	jmp	.LBB11_114
	.p2align	4, 0x90
.LBB11_118:                             
	cmp	edx, 2008125803
	je	.LBB11_121

	cmp	edx, 1784130818
	jne	.LBB11_114
	jmp	.LBB11_120
.LBB11_121:                             
	mov	qword ptr [rsp + 16], rbp
	mov	edx, edi
	jmp	.LBB11_114
.LBB11_102:                             
	mov	rdi, qword ptr [rsp + 32]
	call	_ZN5Botan12_GLOBAL__N_113bit_transposeEPj
	mov	eax, -443072296
	xor	r15d, r15d
	jmp	.LBB11_1
.LBB11_122:                             
	mov	rax, qword ptr [rsp + 16]
	mov	eax, dword ptr [rax]
	mov	rcx, qword ptr [rsp + 72]
	mov	edx, dword ptr [rsp + 4*rcx + 240]
	mov	esi, edx
	not	esi
	and	esi, -541652893
	and	edx, 541652892
	or	edx, esi
	mov	esi, eax
	not	esi
	and	esi, -541652893
	and	eax, 541652892
	or	eax, esi
	xor	eax, edx
	mov	dword ptr [rsp + 4*rcx + 240], eax
	mov	rax, qword ptr [rsp + 72]
	movabs	rcx, 5594285303333356148
	lea	r15, [rax + rcx + 1]
	sub	r15, rcx
	mov	eax, -443072296
	jmp	.LBB11_1
.LBB11_123:
	mov	rax, qword ptr [rsp + 184]
	mov	rax, qword ptr [rsp + 88]
	add	rsp, 696
	pop	rbx
	pop	r12
	pop	r13
	pop	r14
	pop	r15
	pop	rbp
	ret
.LBB11_48:
	mov	edi, .L.str.3
	mov	esi, .L.str.4
	mov	edx, .L__func__._ZN5Botan12_GLOBAL__N_113aes_encrypt_nEPKhPhmRKSt6vectorIjNS_16secure_allocatorIjEEE
	mov	ecx, .L.str.5
	mov	r8d, 520
	call	_ZN5Botan17assertion_failureEPKcS1_S1_S1_i
.Lfunc_end11:
	.size	_ZN5Botan12_GLOBAL__N_113aes_encrypt_nEPKhPhmRKSt6vectorIjNS_16secure_allocatorIjEEE, .Lfunc_end11-_ZN5Botan12_GLOBAL__N_113aes_encrypt_nEPKhPhmRKSt6vectorIjNS_16secure_allocatorIjEEE
	.cfi_endproc

	.globl	_ZNK5Botan7AES_1289decrypt_nEPKhPhm 
	.p2align	4, 0x90
	.type	_ZNK5Botan7AES_1289decrypt_nEPKhPhm,@function
_ZNK5Botan7AES_1289decrypt_nEPKhPhm:    
	.cfi_startproc

	push	rbp
.Lcfi77:
	.cfi_def_cfa_offset 16
	push	r15
.Lcfi78:
	.cfi_def_cfa_offset 24
	push	r14
.Lcfi79:
	.cfi_def_cfa_offset 32
	push	r13
.Lcfi80:
	.cfi_def_cfa_offset 40
	push	r12
.Lcfi81:
	.cfi_def_cfa_offset 48
	push	rbx
.Lcfi82:
	.cfi_def_cfa_offset 56
	sub	rsp, 24
.Lcfi83:
	.cfi_def_cfa_offset 80
.Lcfi84:
	.cfi_offset rbx, -56
.Lcfi85:
	.cfi_offset r12, -48
.Lcfi86:
	.cfi_offset r13, -40
.Lcfi87:
	.cfi_offset r14, -32
.Lcfi88:
	.cfi_offset r15, -24
.Lcfi89:
	.cfi_offset rbp, -16
	mov	r14, rcx
	mov	r15, rdx
	mov	r12, rsi
	mov	rbp, rdi
	mov	eax, dword ptr [rip + x.36]
	mov	ecx, dword ptr [rip + y.37]
	lea	edx, [rax - 1]
	imul	edx, eax
	not	edx
	or	edx, -2
	cmp	edx, -1
	sete	byte ptr [rsp + 13]
	cmp	ecx, 10
	setl	byte ptr [rsp + 14]
	lea	r13, [rbp + 32]
	mov	ecx, -577693947
	jmp	.LBB12_1
.LBB12_21:                              
	mov	rax, qword ptr [rbp + 32]
	xor	esi, esi
	cmp	rax, qword ptr [rbp + 40]
	setne	sil
	mov	rdi, rbp
	call	_ZNK5Botan18SymmetricAlgorithm14verify_key_setEb
	call	_ZN5Botan5CPUID10has_aes_niEv
	mov	ecx, -622857018
	.p2align	4, 0x90
.LBB12_1:                               
	cmp	ecx, -1044397548
	jle	.LBB12_2

	cmp	ecx, 1466868075
	jg	.LBB12_14

	cmp	ecx, -622857018
	je	.LBB12_18

	cmp	ecx, -577693947
	je	.LBB12_17

	cmp	ecx, -1044397547
	jne	.LBB12_1
	jmp	.LBB12_13
	.p2align	4, 0x90
.LBB12_2:                               
	cmp	ecx, -1457173589
	jg	.LBB12_6

	cmp	ecx, -1873652026
	je	.LBB12_19

	cmp	ecx, -1741556667
	jne	.LBB12_1

	call	_ZN5Botan5CPUID9has_ssse3Ev
	test	al, al
	mov	ecx, -1457173588
	mov	eax, -1246417703
	cmovne	ecx, eax
	jmp	.LBB12_1
	.p2align	4, 0x90
.LBB12_14:                              
	cmp	ecx, 1466868076
	je	.LBB12_21

	cmp	ecx, 1614701732
	jne	.LBB12_1

	movzx	eax, byte ptr [rsp + 15]
	test	al, al
	mov	ecx, -1741556667
	mov	eax, -1873652026
	cmovne	ecx, eax
	jmp	.LBB12_1
	.p2align	4, 0x90
.LBB12_6:                               
	cmp	ecx, -1457173588
	je	.LBB12_20

	cmp	ecx, -1246417703
	jne	.LBB12_1

	mov	rdi, rbp
	mov	rsi, r12
	mov	rdx, r15
	mov	rcx, r14
	call	_ZNK5Botan7AES_12815vperm_decrypt_nEPKhPhm
	mov	ecx, -1044397547
	jmp	.LBB12_1
.LBB12_18:                              
	mov	qword ptr [rsp + 16], r13
	mov	rax, qword ptr [rsp + 16]
	mov	rcx, qword ptr [rax]
	xor	esi, esi
	cmp	rcx, qword ptr [rax + 8]
	setne	sil
	mov	rdi, rbp
	call	_ZNK5Botan18SymmetricAlgorithm14verify_key_setEb
	call	_ZN5Botan5CPUID10has_aes_niEv
	mov	ecx, dword ptr [rip + x.36]
	mov	edx, dword ptr [rip + y.37]
	lea	esi, [rcx - 1]
	imul	esi, ecx
	not	esi
	or	esi, -2
	cmp	esi, -1
	sete	cl
	cmp	edx, 10
	setl	bl
	xor	bl, cl
	mov	edi, 1466868076
	mov	ebx, 1614701732
	cmovne	edi, ebx
	cmp	esi, -1
	mov	ecx, edi
	cmove	ecx, ebx
	cmp	edx, 10
	mov	byte ptr [rsp + 15], al
	cmovge	ecx, edi
	jmp	.LBB12_1
.LBB12_17:                              
	movzx	eax, byte ptr [rsp + 13]
	movzx	ecx, byte ptr [rsp + 14]
	mov	edx, eax
	xor	dl, cl
	mov	edx, 1466868076
	mov	esi, -622857018
	cmovne	edx, esi
	test	cl, cl
	mov	ecx, edx
	cmovne	ecx, esi
	test	al, al
	cmove	ecx, edx
	jmp	.LBB12_1
.LBB12_19:                              
	mov	rdi, rbp
	mov	rsi, r12
	mov	rdx, r15
	mov	rcx, r14
	call	_ZNK5Botan7AES_12816hw_aes_decrypt_nEPKhPhm
	mov	ecx, -1044397547
	jmp	.LBB12_1
.LBB12_20:                              
	mov	rcx, qword ptr [rsp + 16]
	mov	rdi, r12
	mov	rsi, r15
	mov	rdx, r14
	call	_ZN5Botan12_GLOBAL__N_113aes_decrypt_nEPKhPhmRKSt6vectorIjNS_16secure_allocatorIjEEE
	mov	ecx, -1044397547
	jmp	.LBB12_1
.LBB12_13:
	add	rsp, 24
	pop	rbx
	pop	r12
	pop	r13
	pop	r14
	pop	r15
	pop	rbp
	ret
.Lfunc_end12:
	.size	_ZNK5Botan7AES_1289decrypt_nEPKhPhm, .Lfunc_end12-_ZNK5Botan7AES_1289decrypt_nEPKhPhm
	.cfi_endproc

	.p2align	4, 0x90         
	.type	_ZN5Botan12_GLOBAL__N_113aes_decrypt_nEPKhPhmRKSt6vectorIjNS_16secure_allocatorIjEEE,@function
_ZN5Botan12_GLOBAL__N_113aes_decrypt_nEPKhPhmRKSt6vectorIjNS_16secure_allocatorIjEEE: 
	.cfi_startproc

	push	rbp
.Lcfi90:
	.cfi_def_cfa_offset 16
	push	r15
.Lcfi91:
	.cfi_def_cfa_offset 24
	push	r14
.Lcfi92:
	.cfi_def_cfa_offset 32
	push	r13
.Lcfi93:
	.cfi_def_cfa_offset 40
	push	r12
.Lcfi94:
	.cfi_def_cfa_offset 48
	push	rbx
.Lcfi95:
	.cfi_def_cfa_offset 56
	sub	rsp, 712
.Lcfi96:
	.cfi_def_cfa_offset 768
.Lcfi97:
	.cfi_offset rbx, -56
.Lcfi98:
	.cfi_offset r12, -48
.Lcfi99:
	.cfi_offset r13, -40
.Lcfi100:
	.cfi_offset r14, -32
.Lcfi101:
	.cfi_offset r15, -24
.Lcfi102:
	.cfi_offset rbp, -16
	mov	r15, rcx
	mov	r14, rdx
	mov	qword ptr [rsp + 256], rsi 
	mov	qword ptr [rsp + 248], rdi 
	mov	qword ptr [rsp + 104], r14
	mov	rax, qword ptr [r15 + 8]
	movabs	rcx, -4755370865891414942
	sub	rax, rcx
	sub	rax, qword ptr [r15]
	add	rax, rcx
	sar	rax, 2
	mov	qword ptr [rsp + 264], rax
	mov	eax, 1524482829












	jmp	.LBB13_1
.LBB13_46:                              
	cmovge	eax, edi
	xor	dl, cl
	cmovne	eax, esi
	.p2align	4, 0x90
.LBB13_1:                               











	cmp	eax, 31981257
	jg	.LBB13_47

	cmp	eax, -689264653
	jle	.LBB13_3

	cmp	eax, -522767773
	jg	.LBB13_32

	cmp	eax, -601315053
	jg	.LBB13_28

	cmp	eax, -689264652
	je	.LBB13_183

	cmp	eax, -630705321
	je	.LBB13_146

	cmp	eax, -611793312
	jne	.LBB13_1

	mov	rax, qword ptr [rsp + 80]
	mov	eax, 553877293
	jmp	.LBB13_1
	.p2align	4, 0x90
.LBB13_47:                              
	cmp	eax, 994247905
	jle	.LBB13_48

	cmp	eax, 1536933617
	jg	.LBB13_81

	cmp	eax, 1362032229
	jg	.LBB13_76

	cmp	eax, 994247906
	je	.LBB13_130

	cmp	eax, 1038917182
	je	.LBB13_133

	cmp	eax, 1084242438
	jne	.LBB13_1

	mov	eax, dword ptr [rip + x.38]
	mov	ecx, dword ptr [rip + y.39]
	lea	edx, [rax - 1]
	imul	edx, eax
	not	edx
	or	edx, -2
	cmp	edx, -1
	sete	al
	cmp	ecx, 10
	setl	bl
	xor	bl, al
	mov	esi, 31981258
	mov	edi, -530779858
	cmovne	esi, edi
	cmp	edx, -1
	mov	eax, esi
	cmove	eax, edi
	cmp	ecx, 10
	cmovge	eax, esi
	jmp	.LBB13_1
	.p2align	4, 0x90
.LBB13_3:                               
	cmp	eax, -1282814483
	jle	.LBB13_4

	cmp	eax, -922362762
	jg	.LBB13_18

	cmp	eax, -1282814482
	je	.LBB13_144

	cmp	eax, -1028144832
	je	.LBB13_93

	cmp	eax, -954698111
	jne	.LBB13_1

	mov	rax, qword ptr [rsp + 176] 
	mov	qword ptr [rsp + 80], rax
	mov	eax, dword ptr [rip + x.38]
	lea	ecx, [rax - 1]
	imul	ecx, eax
	not	ecx
	or	ecx, -2
	cmp	ecx, -1
	sete	cl
	mov	eax, -611793312
	mov	esi, 553877293
	cmove	eax, esi
	cmp	dword ptr [rip + y.39], 10
	setl	dl
	mov	edi, -611793312
	jmp	.LBB13_46
	.p2align	4, 0x90
.LBB13_48:                              
	cmp	eax, 549666405
	jle	.LBB13_49

	cmp	eax, 688554844
	jg	.LBB13_62

	cmp	eax, 549666406
	je	.LBB13_161

	cmp	eax, 553877293
	je	.LBB13_120

	cmp	eax, 563506465
	jne	.LBB13_1

	mov	rax, qword ptr [rsp + 48]
	mov	rax, qword ptr [rsp + 48]
	mov	rax, qword ptr [rsp + 48]
	mov	rax, qword ptr [rsp + 48]
	mov	rax, qword ptr [rsp + 48]
	mov	rax, qword ptr [rsp + 48]
	mov	rax, qword ptr [rsp + 48]
	mov	rax, qword ptr [rsp + 48]
	mov	rax, qword ptr [rsp + 48]
	mov	eax, 1807355347
	jmp	.LBB13_1
.LBB13_32:                              
	cmp	eax, -438112185
	jg	.LBB13_42

	cmp	eax, -522767772
	je	.LBB13_99

	cmp	eax, -514544828
	je	.LBB13_122

	cmp	eax, -488991318
	jne	.LBB13_1

	mov	rdi, qword ptr [rsp + 32]
	call	_ZN5Botan12_GLOBAL__N_112AES_INV_SBOXEPj
	mov	rax, qword ptr [rsp + 32]
	xor	ecx, ecx
	jmp	.LBB13_37
.LBB13_81:                              
	cmp	eax, 1931942669
	jg	.LBB13_86

	cmp	eax, 1536933618
	je	.LBB13_143

	cmp	eax, 1541869368
	je	.LBB13_158

	cmp	eax, 1807355347
	jne	.LBB13_1

	mov	rax, qword ptr [rsp + 48]
	movabs	rcx, -5666686797865925182
	sub	rax, rcx
	lea	rax, [rax + rcx + 1]
	mov	qword ptr [rsp + 272], rax
	mov	eax, dword ptr [rip + x.38]
	lea	ecx, [rax - 1]
	imul	ecx, eax
	mov	eax, ecx
	xor	eax, -2
	and	eax, ecx
	sete	cl
	test	eax, eax
	mov	eax, 563506465
	mov	edi, -1282814482
	cmove	eax, edi
	cmp	dword ptr [rip + y.39], 10
	setl	dl
	mov	esi, 563506465
	jmp	.LBB13_121
.LBB13_4:                               
	cmp	eax, -1394768004
	jg	.LBB13_9

	cmp	eax, -2115107050
	je	.LBB13_97

	cmp	eax, -1903091004
	je	.LBB13_192

	cmp	eax, -1747589318
	jne	.LBB13_1

	lea	rax, [rsp + 72]
	mov	qword ptr [rsp + 224], rax
	mov	rax, qword ptr [rsp + 224]
	mov	qword ptr [rsp + 72], 2
	mov	eax, -1313557158
	mov	rcx, qword ptr [rsp + 248] 
	mov	qword ptr [rsp + 192], rcx 
	mov	r12, qword ptr [rsp + 256] 
	jmp	.LBB13_1
.LBB13_49:                              
	cmp	eax, 377095761
	jle	.LBB13_50

	cmp	eax, 377095762
	je	.LBB13_142

	cmp	eax, 462145533
	je	.LBB13_95

	cmp	eax, 506942257
	jne	.LBB13_1

	mov	rax, qword ptr [r15 + 8]
	movabs	rcx, -1416805304023392828
	add	rax, rcx
	sub	rax, qword ptr [r15]
	sub	rax, rcx
	cmp	rax, 240
	mov	eax, -1383796972
	jmp	.LBB13_80
.LBB13_18:                              
	cmp	eax, -922362761
	je	.LBB13_141

	cmp	eax, -816385545
	je	.LBB13_123

	cmp	eax, -788170996
	jne	.LBB13_1

	mov	al, byte ptr [rsp + 31]
	test	al, al
	mov	eax, 1536933618
	mov	ecx, 1412922907
	cmovne	eax, ecx
	jmp	.LBB13_1
.LBB13_28:                              
	cmp	eax, -601315052
	je	.LBB13_159

	cmp	eax, -546576011
	je	.LBB13_191

	cmp	eax, -530779858
	jne	.LBB13_1

	mov	rax, qword ptr [r15 + 8]
	movabs	rcx, -5358774777648064443
	sub	rax, rcx
	sub	rax, qword ptr [r15]
	movabs	rcx, 5358774777648064651
	cmp	rax, rcx
	sete	byte ptr [rsp + 28]
	mov	eax, dword ptr [rip + x.38]
	lea	ecx, [rax - 1]
	imul	ecx, eax
	not	ecx
	or	ecx, -2
	cmp	ecx, -1
	sete	cl
	mov	eax, 31981258
	mov	esi, 2056268496
	cmove	eax, esi
	cmp	dword ptr [rip + y.39], 10
	setl	dl
	mov	edi, 31981258
	jmp	.LBB13_46
.LBB13_62:                              
	cmp	eax, 688554845
	je	.LBB13_148

	cmp	eax, 768073378
	je	.LBB13_147

	cmp	eax, 830033761
	jne	.LBB13_1

	mov	rcx, qword ptr [rsp + 80]
	mov	rax, rcx
	movabs	rdx, 4611686018427387900
	xor	rax, rdx
	and	rax, rcx
	mov	ecx, dword ptr [rip + x.128]
	mov	edx, dword ptr [rip + y.129]
	lea	esi, [rcx - 1]
	imul	esi, ecx
	not	esi
	or	esi, -2
	cmp	esi, -1
	sete	bl
	sete	byte ptr [rsp + 15]
	mov	ecx, 797656070
	mov	esi, -1017202002
	cmove	ecx, esi
	cmp	edx, 10
	setl	dl
	setl	byte ptr [rsp + 64]
	mov	edi, 797656070
	cmovge	ecx, edi
	xor	dl, bl
	cmovne	ecx, esi
	shl	rax, 2
	add	rax, qword ptr [r15]
	mov	edx, 1784130818
	jmp	.LBB13_66
.LBB13_42:                              
	cmp	eax, -438112184
	je	.LBB13_92

	cmp	eax, -368310338
	je	.LBB13_162

	cmp	eax, -158491714
	jne	.LBB13_1

	mov	eax, dword ptr [rip + x.38]
	lea	ecx, [rax - 1]
	imul	ecx, eax
	not	ecx
	or	ecx, -2
	cmp	ecx, -1
	sete	cl
	mov	eax, -1903091004
	mov	esi, 688554845
	cmove	eax, esi
	cmp	dword ptr [rip + y.39], 10
	setl	dl
	mov	edi, -1903091004
	jmp	.LBB13_46
.LBB13_76:                              
	cmp	eax, 1362032230
	je	.LBB13_91

	cmp	eax, 1412922907
	je	.LBB13_145

	cmp	eax, 1524482829
	jne	.LBB13_1

	mov	rax, qword ptr [rsp + 264]
	cmp	rax, 44
	mov	eax, 1084242438
.LBB13_80:                              
	mov	ecx, 1362032230
	cmove	eax, ecx
	jmp	.LBB13_1
.LBB13_86:                              
	cmp	eax, 1931942670
	je	.LBB13_96

	cmp	eax, 2056268496
	je	.LBB13_90

	cmp	eax, 2077491936
	jne	.LBB13_1

	mov	eax, -954698111
	xor	ecx, ecx
	mov	qword ptr [rsp + 176], rcx 
	jmp	.LBB13_1
.LBB13_9:                               
	cmp	eax, -1394768003
	je	.LBB13_129

	cmp	eax, -1313557158
	jne	.LBB13_11

	mov	rax, qword ptr [rsp + 192] 
	mov	qword ptr [rsp + 136], rax
	mov	qword ptr [rsp + 240], r12
	mov	eax, dword ptr [rip + x.38]
	lea	ecx, [rax - 1]
	imul	ecx, eax
	mov	eax, ecx
	xor	eax, -2
	and	eax, ecx
	sete	cl
	test	eax, eax
	mov	eax, 549666406
	mov	esi, 462145533
	cmove	eax, esi
	cmp	dword ptr [rip + y.39], 10
	setl	dl
	mov	edi, 549666406
	jmp	.LBB13_46
.LBB13_50:                              
	cmp	eax, 31981258
	je	.LBB13_160

	cmp	eax, 98504352
	jne	.LBB13_1

	mov	eax, -630705321
	xor	ecx, ecx
	mov	qword ptr [rsp + 208], rcx 
	jmp	.LBB13_1
.LBB13_144:                             
	mov	eax, -1394768003
	mov	rcx, qword ptr [rsp + 272]
	mov	qword ptr [rsp + 200], rcx 
	jmp	.LBB13_1
.LBB13_141:                             
	mov	eax, dword ptr [rip + x.38]
	mov	ecx, dword ptr [rip + y.39]
	mov	edx, eax
	neg	edx
	not	edx
	imul	edx, eax
	not	edx
	or	edx, -2
	cmp	edx, -1
	sete	al
	cmp	ecx, 10
	setl	bl
	xor	bl, al
	mov	esi, -546576011
	mov	edi, 377095762
	cmovne	esi, edi
	cmp	edx, -1
	mov	eax, esi
	cmove	eax, edi
	cmp	ecx, 10
	mov	qword ptr [rsp + 88], r13
	cmovge	eax, esi
	jmp	.LBB13_1
.LBB13_183:                             
	mov	rdi, qword ptr [rsp + 32]
	call	_ZN5Botan12_GLOBAL__N_112AES_INV_SBOXEPj
	mov	r9, qword ptr [rsp + 32]
	xor	ecx, ecx
	jmp	.LBB13_184
.LBB13_146:                             
	mov	rax, qword ptr [rsp + 208] 
	mov	qword ptr [rsp + 40], rax
	mov	rax, qword ptr [rsp + 40]
	cmp	rax, 8
	mov	eax, -158491714
	mov	ecx, 768073378
	cmove	eax, ecx
	jmp	.LBB13_1
.LBB13_130:                             
	mov	eax, dword ptr [rip + x.38]
	mov	ecx, dword ptr [rip + y.39]
	mov	edx, eax
	neg	edx
	not	edx
	imul	edx, eax
	mov	eax, edx
	xor	eax, -2
	and	eax, edx
	sete	dl
	cmp	ecx, 10
	setl	bl
	xor	bl, dl
	mov	edx, -689264652
	mov	esi, -488991318
	jmp	.LBB13_98
.LBB13_133:                             
	mov	rdi, qword ptr [rsp + 32]
	call	_ZN5Botan12_GLOBAL__N_112AES_INV_SBOXEPj
	mov	r9, qword ptr [rsp + 32]
	xor	ecx, ecx
	jmp	.LBB13_134
.LBB13_93:                              
	mov	rax, qword ptr [rsp + 96]
	shl	rax, 5
	lea	rdi, [rsp + rax + 288]
	mov	rsi, qword ptr [r15]
	mov	rax, qword ptr [rsp + 96]
	movabs	rcx, -3821914426825487661
	lea	rdx, [rcx + 4*rax + 4]
	sub	rdx, rcx
	call	_ZN5Botan12_GLOBAL__N_19ks_expandEPjPKjm
	mov	rax, qword ptr [rsp + 96]
	movabs	rcx, 105812189171270359
	sub	rax, rcx
	lea	rax, [rax + rcx + 1]
	mov	qword ptr [rsp + 184], rax 
	mov	eax, -438112184
	jmp	.LBB13_1
.LBB13_161:                             
	mov	eax, 462145533
	jmp	.LBB13_1
.LBB13_120:                             
	mov	rax, qword ptr [rsp + 80]
	cmp	rax, 8
	setne	byte ptr [rsp + 30]
	mov	eax, dword ptr [rip + x.38]
	lea	ecx, [rax - 1]
	imul	ecx, eax
	mov	eax, ecx
	xor	eax, -2
	and	eax, ecx
	sete	cl
	test	eax, eax
	mov	eax, -611793312
	mov	edi, -514544828
	cmove	eax, edi
	cmp	dword ptr [rip + y.39], 10
	setl	dl
	mov	esi, -611793312
	jmp	.LBB13_121
.LBB13_99:                              
	mov	rax, qword ptr [rsp + 72]
	mov	qword ptr [rsp + 64], rax
	mov	qword ptr [rsp + 16], r14
	mov	eax, dword ptr [rip + x.122]
	mov	ecx, dword ptr [rip + y.123]
	mov	edx, eax
	neg	edx
	not	edx
	imul	edx, eax
	not	edx
	or	edx, -2
	cmp	edx, -1
	setne	al
	sete	dl
	cmp	ecx, 9
	setg	bl
	cmp	ecx, 10
	setl	cl
	xor	cl, dl
	or	bl, al
	xor	bl, 1
	or	bl, cl
	mov	eax, -1616003958
	mov	ecx, 375570064
	cmovne	eax, ecx
	mov	ecx, -1616003958
	mov	edx, 1043178060
	cmovne	ecx, edx
	mov	edx, 1252777106
	mov	esi, 1749406826
	cmovne	edx, esi
	mov	esi, 1252777106
	mov	edi, -848021999
	cmovne	esi, edi
	mov	ebx, 1956681739

	jmp	.LBB13_100
.LBB13_112:                             
	mov	ebx, 1749406826
	.p2align	4, 0x90
.LBB13_100:                             

	mov	ebp, ebx
	cmp	ebp, 1043178059
	jle	.LBB13_101

	cmp	ebp, 1662306163
	jle	.LBB13_110

	cmp	ebp, 1662306164
	mov	ebx, edx
	je	.LBB13_100

	cmp	ebp, 1749406826
	mov	ebx, esi
	je	.LBB13_100

	cmp	ebp, 1956681739
	mov	ebx, ebp
	jne	.LBB13_100

	mov	rbp, qword ptr [rsp + 64]
	cmp	rbp, qword ptr [rsp + 16]
	mov	ebx, -1895053006
	jb	.LBB13_100

	mov	ebx, 1662306164
	jmp	.LBB13_100
	.p2align	4, 0x90
.LBB13_101:                             
	cmp	ebp, -1551648299
	jle	.LBB13_102

	cmp	ebp, -848021999
	je	.LBB13_119

	cmp	ebp, 375570064
	mov	ebx, ecx
	je	.LBB13_100

	cmp	ebp, -1551648298
	mov	ebx, ebp
	jne	.LBB13_100
	jmp	.LBB13_108
	.p2align	4, 0x90
.LBB13_110:                             
	cmp	ebp, 1043178060
	je	.LBB13_118

	cmp	ebp, 1252777106
	mov	ebx, ebp
	jne	.LBB13_100
	jmp	.LBB13_112
	.p2align	4, 0x90
.LBB13_102:                             
	cmp	ebp, -1895053006
	mov	ebx, eax
	je	.LBB13_100

	cmp	ebp, -1616003958
	mov	ebx, ebp
	jne	.LBB13_100

	mov	ebx, 375570064
	jmp	.LBB13_100
.LBB13_119:                             
	mov	ebx, -1551648298
	lea	rdi, [rsp + 104]
	jmp	.LBB13_100
.LBB13_118:                             
	mov	ebx, -1551648298
	lea	rdi, [rsp + 72]
	jmp	.LBB13_100
.LBB13_122:                             
	mov	al, byte ptr [rsp + 30]
	test	al, al
	mov	eax, -816385545
	mov	ecx, 830033761
	cmovne	eax, ecx
	jmp	.LBB13_1
.LBB13_143:                             
	mov	eax, dword ptr [rip + x.38]
	mov	ecx, eax
	neg	ecx
	not	ecx
	imul	ecx, eax
	not	ecx
	or	ecx, -2
	cmp	ecx, -1
	sete	cl
	mov	eax, 563506465
	mov	esi, 1807355347
	cmove	eax, esi
	cmp	dword ptr [rip + y.39], 10
	setl	dl
	mov	edi, 563506465
	jmp	.LBB13_46
.LBB13_158:                             
	mov	eax, -630705321
	mov	rcx, qword ptr [rsp + 280]
	mov	qword ptr [rsp + 208], rcx 
	jmp	.LBB13_1
.LBB13_97:                              
	mov	eax, dword ptr [rip + x.38]
	mov	ecx, dword ptr [rip + y.39]
	mov	edx, eax
	neg	edx
	not	edx
	imul	edx, eax
	mov	eax, edx
	xor	eax, -2
	and	eax, edx
	sete	dl
	cmp	ecx, 10
	setl	bl
	xor	bl, dl
	mov	edx, -368310338
	mov	esi, -522767772
	jmp	.LBB13_98
.LBB13_192:                             
	mov	rax, qword ptr [rsp + 56]
	mov	rax, qword ptr [rsp + 56]
	mov	rax, qword ptr [rsp + 56]
	mov	rax, qword ptr [rsp + 56]
	mov	rax, qword ptr [rsp + 56]
	mov	rax, qword ptr [rsp + 56]
	mov	rax, qword ptr [rsp + 56]
	mov	rax, qword ptr [rsp + 56]
	mov	rcx, qword ptr [rsp + 40]
	mov	rcx, qword ptr [rsp + 40]
	mov	rcx, qword ptr [rsp + 40]
	and	ecx, 3
	lea	rdi, [rcx + 4*rax]
	mov	ecx, dword ptr [rip + x.128]
	mov	edx, dword ptr [rip + y.129]
	lea	esi, [rcx - 1]
	imul	esi, ecx
	not	esi
	or	esi, -2
	cmp	esi, -1
	sete	bl
	sete	byte ptr [rsp + 15]
	mov	ecx, 797656070
	mov	eax, -1017202002
	cmove	ecx, eax
	cmp	edx, 10
	setl	dl
	setl	byte ptr [rsp + 64]
	mov	esi, 797656070
	cmovge	ecx, esi
	xor	dl, bl
	cmovne	ecx, eax
	shl	rdi, 2
	add	rdi, qword ptr [r15]
	mov	edx, 1784130818
	jmp	.LBB13_193
.LBB13_142:                             
	mov	eax, dword ptr [rip + x.38]
	mov	ecx, dword ptr [rip + y.39]
	mov	edx, eax
	neg	edx
	not	edx
	imul	edx, eax
	mov	eax, edx
	xor	eax, -2
	and	eax, edx
	sete	dl
	cmp	ecx, 10
	setl	bl
	xor	bl, dl
	mov	edx, -546576011
	mov	esi, -788170996
	cmovne	edx, esi
	test	eax, eax
	mov	eax, edx
	cmove	eax, esi
	cmp	ecx, 10
	mov	rcx, qword ptr [rsp + 88]
	cmovge	eax, edx
	cmp	rcx, 8
	setne	byte ptr [rsp + 31]
	jmp	.LBB13_1
.LBB13_95:                              
	mov	eax, dword ptr [rip + x.38]
	mov	ecx, dword ptr [rip + y.39]
	lea	edx, [rax - 1]
	imul	edx, eax
	mov	eax, edx
	xor	eax, -2
	and	eax, edx
	sete	dl
	cmp	ecx, 10
	setl	bl
	xor	bl, dl
	mov	edx, 549666406
	mov	esi, 1931942670
	cmovne	edx, esi
	test	eax, eax
	mov	eax, edx
	cmove	eax, esi
	cmp	ecx, 10
	cmovge	eax, edx
	test	r14, r14
	setne	byte ptr [rsp + 29]
	jmp	.LBB13_1
.LBB13_123:                             
	mov	rdi, qword ptr [rsp + 32]
	call	_ZN5Botan12_GLOBAL__N_113bit_transposeEPj
	mov	eax, -1394768003
	xor	ecx, ecx
	mov	qword ptr [rsp + 200], rcx 
	jmp	.LBB13_1
.LBB13_191:                             
	mov	rax, qword ptr [rsp + 88]
	mov	eax, 377095762
	jmp	.LBB13_1
.LBB13_148:                             
	mov	rcx, qword ptr [rsp + 56]
	shl	rcx, 2
	mov	rdx, qword ptr [rsp + 40]
	mov	rax, rdx
	xor	rax, -4
	and	rax, rdx
	mov	rdx, rax
	and	rdx, rcx
	xor	rax, rcx
	or	rax, rdx
	mov	ecx, dword ptr [rip + x.128]
	mov	edx, dword ptr [rip + y.129]
	lea	esi, [rcx - 1]
	imul	esi, ecx
	not	esi
	or	esi, -2
	cmp	esi, -1
	sete	bl
	sete	byte ptr [rsp + 15]
	mov	esi, 797656070
	mov	ecx, -1017202002
	cmove	esi, ecx
	cmp	edx, 10
	setl	dl
	setl	byte ptr [rsp + 64]
	mov	edi, 797656070
	cmovge	esi, edi
	xor	dl, bl
	cmovne	esi, ecx
	shl	rax, 2
	add	rax, qword ptr [r15]
	mov	edx, 1784130818
	jmp	.LBB13_149
.LBB13_147:                             
	mov	rax, qword ptr [rsp + 32]
	mov	rsi, qword ptr [rsp + 232]
	shl	rsi, 2
	mov	rdx, qword ptr [rsp + 32]
	mov	rdi, qword ptr [rsp + 240]
	call	_ZN5Botan11copy_out_beIjEEvPhmPKT_
	mov	r12, qword ptr [rsp + 120]
	shl	r12, 4
	mov	rax, qword ptr [rsp + 136]
	add	rax, r12
	mov	qword ptr [rsp + 192], rax 
	add	r12, qword ptr [rsp + 240]
	sub	r14, qword ptr [rsp + 120]
	mov	qword ptr [rsp + 104], r14
	mov	rax, qword ptr [rsp + 128]
	mov	eax, -1313557158
	jmp	.LBB13_1
.LBB13_126:                             
	movzx	esi, byte ptr [rsp + 15]
	movzx	edx, byte ptr [rsp + 64]
	mov	ebx, esi
	xor	bl, dl
	mov	edi, 797656070
	mov	ebp, 2008125803
	cmovne	edi, ebp
	test	dl, dl
	mov	edx, edi
	cmovne	edx, ebp
	test	sil, sil
	cmove	edx, edi
	.p2align	4, 0x90
.LBB13_66:                              

	cmp	edx, 1784130817
	jg	.LBB13_124

	cmp	edx, -1017202002
	je	.LBB13_128

	cmp	edx, 797656070
	jne	.LBB13_66

	mov	edx, 2008125803
	jmp	.LBB13_66
	.p2align	4, 0x90
.LBB13_124:                             
	cmp	edx, 2008125803
	je	.LBB13_127

	cmp	edx, 1784130818
	jne	.LBB13_66
	jmp	.LBB13_126
.LBB13_127:                             
	mov	qword ptr [rsp + 16], rax
	mov	edx, ecx
	jmp	.LBB13_66
.LBB13_92:                              
	mov	rax, qword ptr [rsp + 184] 
	mov	qword ptr [rsp + 96], rax
	mov	rax, qword ptr [rsp + 56]
	movabs	rcx, -7077150888806323991
	sub	rax, rcx
	lea	rax, [rax + rcx - 1]
	mov	qword ptr [rsp + 216], rax
	mov	rax, qword ptr [rsp + 216]
	mov	rcx, qword ptr [rsp + 96]
	cmp	rcx, rax
	mov	eax, -1747589318
	mov	ecx, -1028144832
	cmovb	eax, ecx
	jmp	.LBB13_1
.LBB13_162:                             
	mov	rax, qword ptr [rsp + 72]
	mov	qword ptr [rsp + 64], rax
	mov	qword ptr [rsp + 16], r14
	mov	eax, dword ptr [rip + x.122]
	mov	ecx, dword ptr [rip + y.123]
	mov	edx, eax
	neg	edx
	not	edx
	imul	edx, eax
	mov	eax, edx
	xor	eax, -2
	and	eax, edx
	setne	dl
	test	eax, eax
	sete	al
	cmp	ecx, 9
	setg	bl
	cmp	ecx, 10
	setl	cl
	xor	cl, al
	or	bl, dl
	xor	bl, 1
	or	bl, cl
	mov	eax, -1616003958
	mov	ecx, 375570064
	cmovne	eax, ecx
	mov	ecx, -1616003958
	mov	edx, 1043178060
	cmovne	ecx, edx
	mov	edx, 1252777106
	mov	esi, 1749406826
	cmovne	edx, esi
	mov	esi, 1252777106
	mov	edi, -848021999
	cmovne	esi, edi
	mov	ebx, 1956681739

	jmp	.LBB13_163
.LBB13_181:                             
	mov	ebx, -1551648298
	lea	rdi, [rsp + 72]
	.p2align	4, 0x90
.LBB13_163:                             

	mov	ebp, ebx
	cmp	ebp, 1043178059
	jle	.LBB13_164

	cmp	ebp, 1662306163
	jle	.LBB13_173

	cmp	ebp, 1662306164
	mov	ebx, edx
	je	.LBB13_163

	cmp	ebp, 1749406826
	mov	ebx, esi
	je	.LBB13_163

	cmp	ebp, 1956681739
	mov	ebx, ebp
	jne	.LBB13_163

	mov	rbp, qword ptr [rsp + 64]
	cmp	rbp, qword ptr [rsp + 16]
	mov	ebx, -1895053006
	jb	.LBB13_163

	mov	ebx, 1662306164
	jmp	.LBB13_163
	.p2align	4, 0x90
.LBB13_164:                             
	cmp	ebp, -1551648299
	jle	.LBB13_165

	cmp	ebp, -848021999
	je	.LBB13_182

	cmp	ebp, 375570064
	mov	ebx, ecx
	je	.LBB13_163

	cmp	ebp, -1551648298
	mov	ebx, ebp
	jne	.LBB13_163
	jmp	.LBB13_171
	.p2align	4, 0x90
.LBB13_165:                             
	cmp	ebp, -1895053006
	mov	ebx, eax
	je	.LBB13_163

	cmp	ebp, -1616003958
	mov	ebx, ebp
	jne	.LBB13_163

	mov	ebx, 375570064
	jmp	.LBB13_163
	.p2align	4, 0x90
.LBB13_173:                             
	cmp	ebp, 1043178060
	je	.LBB13_181

	cmp	ebp, 1252777106
	mov	ebx, ebp
	jne	.LBB13_163

	mov	ebx, 1749406826
	jmp	.LBB13_163
.LBB13_182:                             
	mov	ebx, -1551648298
	lea	rdi, [rsp + 104]
	jmp	.LBB13_163
.LBB13_91:                              
	mov	rax, qword ptr [r15 + 8]
	sub	rax, qword ptr [r15]
	sar	rax, 2
	movabs	rcx, -2940675736881094357
	sub	rax, rcx
	lea	rax, [rax + rcx - 4]
	shr	rax, 2
	mov	qword ptr [rsp + 56], rax
	lea	rax, [rsp + 288]
	mov	qword ptr [rsp + 112], rax
	mov	rax, qword ptr [rsp + 112]
	mov	rdi, qword ptr [rsp + 112]
	xor	esi, esi
	mov	edx, 416
	call	memset
	mov	eax, -438112184
	xor	ecx, ecx
	mov	qword ptr [rsp + 184], rcx 
	jmp	.LBB13_1
.LBB13_145:                             
	mov	rax, qword ptr [rsp + 48]
	shl	rax, 3
	mov	rcx, qword ptr [rsp + 88]
	neg	rcx
	sub	rcx, rax
	shl	rcx, 2
	neg	rcx
	mov	eax, dword ptr [rsp + rcx + 288]
	mov	rcx, qword ptr [rsp + 88]
	mov	edx, dword ptr [rsp + 4*rcx + 144]
	mov	esi, edx
	not	esi
	and	esi, eax
	not	eax
	and	eax, edx
	or	eax, esi
	mov	dword ptr [rsp + 4*rcx + 144], eax
	mov	rax, qword ptr [rsp + 88]
	movabs	rcx, -4616344088803513745
	lea	r13, [rax + rcx + 1]
	sub	r13, rcx
	mov	eax, -922362761
	jmp	.LBB13_1
.LBB13_96:                              
	mov	al, byte ptr [rsp + 29]
	test	al, al
	mov	eax, -601315052
	mov	ecx, -2115107050
	cmovne	eax, ecx
	jmp	.LBB13_1
.LBB13_90:                              
	mov	al, byte ptr [rsp + 28]
	test	al, al
	mov	eax, 506942257
	mov	ecx, 1362032230
	cmovne	eax, ecx
	jmp	.LBB13_1
.LBB13_129:                             
	mov	rax, qword ptr [rsp + 200] 
	mov	qword ptr [rsp + 48], rax
	mov	rax, qword ptr [rsp + 216]
	mov	rcx, qword ptr [rsp + 48]
	cmp	rcx, rax
	mov	eax, 1038917182
	mov	ecx, 994247906
	cmove	eax, ecx
	jmp	.LBB13_1
.LBB13_160:                             
	mov	eax, -530779858
	jmp	.LBB13_1
.LBB13_108:                             
	mov	rax, qword ptr [rdi]
	mov	qword ptr [rsp + 120], rax
	lea	rax, [rsp + 144]
	mov	rcx, rax
	mov	qword ptr [rsp + 128], rcx
	mov	rax, qword ptr [rsp + 128]
	mov	rax, qword ptr [rsp + 128]
	xorps	xmm0, xmm0
	movaps	xmmword ptr [rax + 16], xmm0
	movaps	xmmword ptr [rax], xmm0
	mov	qword ptr [rsp + 32], rcx
	mov	rax, qword ptr [rsp + 32]
	mov	rax, qword ptr [rsp + 120]
	shl	rax, 2
	mov	qword ptr [rsp + 232], rax
	mov	rdi, qword ptr [rsp + 32]
	mov	rdx, qword ptr [rsp + 232]
	mov	rsi, qword ptr [rsp + 136]
	call	_ZN5Botan7load_beIjEEvPT_PKhm
	mov	eax, dword ptr [rip + x.38]
	lea	ecx, [rax - 1]
	imul	ecx, eax
	mov	eax, ecx
	xor	eax, -2
	and	eax, ecx
	sete	cl
	test	eax, eax
	mov	eax, -368310338
	mov	edi, 2077491936
	cmove	eax, edi
	cmp	dword ptr [rip + y.39], 10
	setl	dl
	mov	esi, -368310338
	jmp	.LBB13_121
.LBB13_199:                             
	movzx	eax, byte ptr [rsp + 15]
	movzx	edx, byte ptr [rsp + 64]
	mov	ebx, eax
	xor	bl, dl
	test	dl, dl
	mov	edx, 797656070
	mov	esi, 2008125803
	cmovne	edx, esi
	test	al, al
	mov	eax, 797656070
	cmove	edx, eax
	test	bl, bl
	cmovne	edx, esi
	.p2align	4, 0x90
.LBB13_193:                             

	cmp	edx, 1784130817
	jg	.LBB13_197

	cmp	edx, -1017202002
	je	.LBB13_201

	cmp	edx, 797656070
	jne	.LBB13_193

	mov	edx, 2008125803
	jmp	.LBB13_193
	.p2align	4, 0x90
.LBB13_197:                             
	cmp	edx, 2008125803
	je	.LBB13_200

	cmp	edx, 1784130818
	jne	.LBB13_193
	jmp	.LBB13_199
.LBB13_200:                             
	mov	qword ptr [rsp + 16], rdi
	mov	edx, ecx
	jmp	.LBB13_193
.LBB13_155:                             
	movzx	ecx, byte ptr [rsp + 15]
	movzx	edx, byte ptr [rsp + 64]
	mov	ebx, ecx
	xor	bl, dl
	test	dl, dl
	mov	edx, 797656070
	mov	edi, 2008125803
	cmovne	edx, edi
	test	cl, cl
	mov	ecx, 797656070
	cmove	edx, ecx
	test	bl, bl
	cmovne	edx, edi
	.p2align	4, 0x90
.LBB13_149:                             

	cmp	edx, 1784130817
	jg	.LBB13_153

	cmp	edx, -1017202002
	je	.LBB13_157

	cmp	edx, 797656070
	jne	.LBB13_149

	mov	edx, 2008125803
	jmp	.LBB13_149
	.p2align	4, 0x90
.LBB13_153:                             
	cmp	edx, 2008125803
	je	.LBB13_156

	cmp	edx, 1784130818
	jne	.LBB13_149
	jmp	.LBB13_155
.LBB13_156:                             
	mov	qword ptr [rsp + 16], rax
	mov	edx, esi
	jmp	.LBB13_149
.LBB13_128:                             
	mov	rax, qword ptr [rsp + 16]
	mov	eax, dword ptr [rax]
	mov	rcx, qword ptr [rsp + 80]
	mov	edx, dword ptr [rsp + 4*rcx + 144]
	mov	esi, edx
	not	esi
	and	esi, 1808841517
	and	edx, -1808841518
	or	edx, esi
	mov	esi, eax
	not	esi
	and	esi, 1808841517
	and	eax, -1808841518
	or	eax, esi
	xor	eax, edx
	mov	dword ptr [rsp + 4*rcx + 144], eax
	mov	rax, qword ptr [rsp + 80]
	movabs	rcx, -8840131696357990753
	lea	rax, [rax + rcx + 1]
	sub	rax, rcx
	mov	qword ptr [rsp + 176], rax 
	mov	eax, -954698111
	jmp	.LBB13_1
.LBB13_171:                             
	mov	rdx, qword ptr [rdi]
	xorps	xmm0, xmm0
	movaps	xmmword ptr [rsp + 160], xmm0
	movaps	xmmword ptr [rsp + 144], xmm0
	shl	rdx, 2
	mov	rsi, qword ptr [rsp + 136]
	lea	rdi, [rsp + 144]
	call	_ZN5Botan7load_beIjEEvPT_PKhm
	mov	eax, -522767772
	jmp	.LBB13_1
.LBB13_201:                             
	mov	rax, qword ptr [rsp + 16]
	mov	eax, dword ptr [rax]
	mov	rcx, qword ptr [rsp + 40]
	mov	edx, dword ptr [rsp + 4*rcx + 144]
	mov	esi, edx
	not	esi
	and	esi, 547616058
	and	edx, -547616059
	or	edx, esi
	mov	esi, eax
	not	esi
	and	esi, 547616058
	and	eax, -547616059
	or	eax, esi
	xor	eax, edx
	mov	dword ptr [rsp + 4*rcx + 144], eax
	mov	rax, qword ptr [rsp + 40]
	mov	rax, qword ptr [rsp + 40]
	mov	rax, qword ptr [rsp + 40]
	mov	rax, qword ptr [rsp + 40]
	mov	rax, qword ptr [rsp + 40]
	mov	rax, qword ptr [rsp + 40]
	mov	eax, 688554845
	jmp	.LBB13_1
.LBB13_157:                             
	mov	rax, qword ptr [rsp + 16]
	mov	eax, dword ptr [rax]
	mov	rcx, qword ptr [rsp + 40]
	mov	edx, dword ptr [rsp + 4*rcx + 144]
	mov	esi, edx
	not	esi
	and	esi, eax
	not	eax
	and	eax, edx
	or	eax, esi
	mov	dword ptr [rsp + 4*rcx + 144], eax
	mov	rax, qword ptr [rsp + 40]
	xor	ecx, ecx
	sub	rcx, rax
	mov	eax, 1
	sub	rax, rcx
	mov	qword ptr [rsp + 280], rax
	mov	eax, dword ptr [rip + x.38]
	mov	ecx, eax
	neg	ecx
	not	ecx
	imul	ecx, eax
	not	ecx
	or	ecx, -2
	cmp	ecx, -1
	sete	cl
	mov	eax, -1903091004
	mov	edi, 1541869368
	cmove	eax, edi
	cmp	dword ptr [rip + y.39], 10
	setl	dl
	mov	esi, -1903091004
.LBB13_121:                             
	cmovge	eax, esi
	xor	dl, cl
	cmovne	eax, edi
	jmp	.LBB13_1
	.p2align	4, 0x90
.LBB13_131:                             
	mov	r8, qword ptr [rsp + 16]
	mov	esi, dword ptr [rax + 4*r8]
	shl	rsi, 32
	mov	rdx, qword ptr [rsp + 16]
	movabs	rcx, -2746974861754930235
	sub	rdx, rcx
	lea	rdx, [rdx + rcx + 1]
	mov	ebp, dword ptr [rax + 4*rdx]
	mov	rbx, rsi
	not	rbx
	movabs	rcx, -7953251997901620629
	mov	rdi, rcx
	not	rcx
	and	rsi, rcx
	and	rcx, rbp
	not	rbp
	and	rbx, rdi
	or	rsi, rbx
	and	rbp, rdi
	or	rcx, rbp
	xor	rcx, rsi
	mov	rdi, rcx
	shr	rdi
	mov	rbp, rdi
	not	rbp
	and	rbp, rcx
	mov	rsi, rcx
	not	rsi
	and	rdi, rsi
	or	rdi, rbp
	mov	rbp, rdi
	movabs	rbx, 23925738098196565
	xor	rbp, rbx
	not	rbp
	and	rbp, rdi
	mov	rdi, rbp
	not	rdi
	and	rdi, rcx
	and	rsi, rbp
	or	rsi, rdi
	add	rbp, rbp
	mov	rcx, rsi
	not	rcx
	movabs	rdi, 1304235536982553132
	mov	rbx, rdi
	and	rcx, rbx
	not	rdi
	and	rsi, rdi
	or	rsi, rcx
	and	rdi, rbp
	not	rbp
	and	rbp, rbx
	or	rdi, rbp
	xor	rdi, rsi
	mov	rcx, rdi
	shr	rcx, 2
	mov	rbp, rcx
	not	rbp
	and	rbp, rdi
	mov	rsi, rdi
	not	rsi
	and	rcx, rsi
	or	rcx, rbp
	mov	rbp, rcx
	movabs	rbx, 9626297317864209
	xor	rbp, rbx
	not	rbp
	and	rbp, rcx
	mov	rcx, rbp
	not	rcx
	and	rcx, rdi
	and	rsi, rbp
	or	rsi, rcx
	shl	rbp, 2
	mov	rcx, rsi
	not	rcx
	movabs	rdi, 2558679943627544775
	mov	rbx, rdi
	and	rcx, rbx
	not	rdi
	and	rsi, rdi
	or	rsi, rcx
	and	rdi, rbp
	not	rbp
	and	rbp, rbx
	or	rdi, rbp
	xor	rdi, rsi
	mov	rcx, rdi
	shr	rcx, 32
	mov	dword ptr [rax + 4*r8], ecx
	mov	dword ptr [rax + 4*rdx], edi
	mov	rcx, qword ptr [rsp + 16]
	add	rcx, 2
.LBB13_37:                              


	mov	edx, -1761273739
	jmp	.LBB13_38
.LBB13_41:                              
	mov	qword ptr [rsp + 16], rcx
	mov	rdx, qword ptr [rsp + 16]
	cmp	rdx, 8
	mov	edx, 1619031675
	mov	esi, 526294525
	cmove	edx, esi
	.p2align	4, 0x90
.LBB13_38:                              


	cmp	edx, 1619031675
	je	.LBB13_131

	cmp	edx, 526294525
	je	.LBB13_132

	cmp	edx, -1761273739
	jne	.LBB13_38
	jmp	.LBB13_41
.LBB13_132:                             
	mov	rdi, qword ptr [rsp + 32]
	call	_ZN5Botan12_GLOBAL__N_113bit_transposeEPj
	mov	eax, dword ptr [rip + x.38]
	mov	ecx, dword ptr [rip + y.39]
	lea	edx, [rax - 1]
	imul	edx, eax
	mov	eax, edx
	xor	eax, -2
	and	eax, edx
	sete	dl
	cmp	ecx, 10
	setl	bl
	xor	bl, dl
	mov	edx, -689264652
	mov	esi, 98504352
.LBB13_98:                              
	cmovne	edx, esi
	test	eax, eax
	mov	eax, edx
	cmove	eax, esi
	cmp	ecx, 10
	cmovge	eax, edx
	jmp	.LBB13_1
	.p2align	4, 0x90
.LBB13_189:                             
	mov	r8, qword ptr [rsp + 16]
	mov	esi, dword ptr [r9 + 4*r8]
	shl	rsi, 32
	mov	rdx, qword ptr [rsp + 16]
	movabs	rax, 6859849869196920457
	lea	r10, [rdx + rax + 1]
	sub	r10, rax
	mov	ebp, dword ptr [r9 + 4*r10]
	mov	rbx, rsi
	not	rbx
	movabs	rax, 5329569821638141379
	mov	rdi, rax
	not	rdi
	and	rsi, rdi
	and	rdi, rbp
	not	rbp
	and	rbx, rax
	or	rsi, rbx
	and	rbp, rax
	or	rdi, rbp
	xor	rdi, rsi
	mov	rsi, rdi
	shr	rsi
	mov	rbp, rsi
	not	rbp
	movabs	rax, -5040298910322374909
	and	rbp, rax
	mov	rbx, rax
	not	rbx
	and	rsi, rbx
	or	rsi, rbp
	mov	rbp, rdi
	not	rbp
	mov	rcx, rbp
	and	rcx, rax
	and	rbx, rdi
	or	rbx, rcx
	xor	rbx, rsi
	not	rbx
	movabs	rsi, 23925738098196565
	not	rsi
	or	rsi, rbx
	and	rdi, rsi
	not	rsi
	and	rbp, rsi
	or	rbp, rdi
	add	rsi, rsi
	mov	rcx, rbp
	not	rcx
	and	rcx, rsi
	not	rsi
	and	rsi, rbp
	or	rsi, rcx
	mov	rcx, rsi
	shr	rcx, 2
	mov	rdi, rcx
	not	rdi
	and	rdi, rsi
	mov	rbp, rsi
	not	rbp
	and	rcx, rbp
	or	rcx, rdi
	not	rcx
	movabs	rbx, 9626297317864209
	not	rbx
	or	rbx, rcx
	mov	rdi, rbx
	not	rdi
	movabs	rax, 8392519925123672732
	mov	rdx, rax
	and	rbx, rdx
	mov	rcx, rdx
	not	rcx
	mov	rax, rdi
	and	rax, rcx
	or	rax, rbx
	and	rcx, rsi
	and	rbp, rdx
	or	rcx, rbp
	xor	rcx, rax
	shl	rdi, 2
	mov	rax, rcx
	not	rax
	and	rax, rdi
	not	rdi
	and	rdi, rcx
	or	rdi, rax
	mov	rax, rdi
	shr	rax, 32
	mov	dword ptr [r9 + 4*r8], eax
	mov	dword ptr [r9 + 4*r10], edi
	mov	rax, qword ptr [rsp + 16]
	movabs	rcx, -83751063669893485
	sub	rax, rcx
	lea	rcx, [rax + rcx + 2]
.LBB13_184:                             


	mov	edx, -1761273739
	jmp	.LBB13_185
.LBB13_188:                             
	mov	qword ptr [rsp + 16], rcx
	mov	rdx, qword ptr [rsp + 16]
	cmp	rdx, 8
	mov	edx, 1619031675
	mov	eax, 526294525
	cmove	edx, eax
	.p2align	4, 0x90
.LBB13_185:                             


	cmp	edx, 1619031675
	je	.LBB13_189

	cmp	edx, 526294525
	je	.LBB13_190

	cmp	edx, -1761273739
	jne	.LBB13_185
	jmp	.LBB13_188
.LBB13_190:                             
	mov	rdi, qword ptr [rsp + 32]
	call	_ZN5Botan12_GLOBAL__N_113bit_transposeEPj
	mov	eax, -488991318
	jmp	.LBB13_1
	.p2align	4, 0x90
.LBB13_139:                             
	mov	r8, qword ptr [rsp + 16]
	mov	edi, dword ptr [r9 + 4*r8]
	shl	rdi, 32
	mov	rdx, qword ptr [rsp + 16]
	movabs	rcx, -2912249539503392919
	lea	rdx, [rdx + rcx + 1]
	sub	rdx, rcx
	mov	ebp, dword ptr [r9 + 4*rdx]
	mov	rbx, rdi
	not	rbx
	movabs	rcx, 5554682281660021293
	mov	rsi, rcx
	not	rsi
	and	rdi, rsi
	and	rsi, rbp
	not	rbp
	and	rbx, rcx
	or	rdi, rbx
	and	rbp, rcx
	or	rsi, rbp
	xor	rsi, rdi
	mov	rdi, rsi
	shr	rdi
	mov	rbp, rdi
	not	rbp
	movabs	rcx, -512073646686189087
	mov	rax, rcx
	and	rbp, rax
	mov	rbx, rax
	not	rbx
	and	rdi, rbx
	or	rdi, rbp
	mov	rbp, rsi
	not	rbp
	mov	rcx, rbp
	and	rcx, rax
	and	rbx, rsi
	or	rbx, rcx
	xor	rbx, rdi
	not	rbx
	movabs	rdi, 23925738098196565
	not	rdi
	or	rdi, rbx
	and	rsi, rdi
	not	rdi
	and	rbp, rdi
	or	rbp, rsi
	add	rdi, rdi
	mov	rcx, rbp
	not	rcx
	and	rcx, rdi
	not	rdi
	and	rdi, rbp
	or	rdi, rcx
	mov	rcx, rdi
	shr	rcx, 2
	mov	rsi, rcx
	not	rsi
	and	rsi, rdi
	mov	rbp, rdi
	not	rbp
	and	rcx, rbp
	or	rcx, rsi
	not	rcx
	movabs	rsi, 9626297317864209
	not	rsi
	or	rsi, rcx
	and	rdi, rsi
	not	rsi
	and	rbp, rsi
	or	rbp, rdi
	shl	rsi, 2
	mov	rcx, rbp
	not	rcx
	and	rcx, rsi
	not	rsi
	and	rsi, rbp
	or	rsi, rcx
	mov	rcx, rsi
	shr	rcx, 32
	mov	dword ptr [r9 + 4*r8], ecx
	mov	dword ptr [r9 + 4*rdx], esi
	mov	rcx, qword ptr [rsp + 16]
	xor	edx, edx
	sub	rdx, rcx
	mov	ecx, 2
	sub	rcx, rdx
.LBB13_134:                             


	mov	edx, -1761273739
	jmp	.LBB13_135
.LBB13_138:                             
	mov	qword ptr [rsp + 16], rcx
	mov	rdx, qword ptr [rsp + 16]
	cmp	rdx, 8
	mov	edx, 1619031675
	mov	esi, 526294525
	cmove	edx, esi
	.p2align	4, 0x90
.LBB13_135:                             


	cmp	edx, 1619031675
	je	.LBB13_139

	cmp	edx, 526294525
	je	.LBB13_140

	cmp	edx, -1761273739
	jne	.LBB13_135
	jmp	.LBB13_138
.LBB13_140:                             
	mov	rdi, qword ptr [rsp + 32]
	call	_ZN5Botan12_GLOBAL__N_115inv_mix_columnsEPj
	mov	eax, -922362761
	xor	r13d, r13d
	jmp	.LBB13_1
.LBB13_11:                              
	cmp	eax, -1383796972
	jne	.LBB13_1

	mov	edi, .L.str.6
	mov	esi, .L.str.4
	mov	edx, .L__func__._ZN5Botan12_GLOBAL__N_113aes_decrypt_nEPKhPhmRKSt6vectorIjNS_16secure_allocatorIjEEE
	mov	ecx, .L.str.5
	mov	r8d, 582
	call	_ZN5Botan17assertion_failureEPKcS1_S1_S1_i
.LBB13_159:
	mov	rax, qword ptr [rsp + 224]
	mov	rax, qword ptr [rsp + 112]
	add	rsp, 712
	pop	rbx
	pop	r12
	pop	r13
	pop	r14
	pop	r15
	pop	rbp
	ret
.Lfunc_end13:
	.size	_ZN5Botan12_GLOBAL__N_113aes_decrypt_nEPKhPhmRKSt6vectorIjNS_16secure_allocatorIjEEE, .Lfunc_end13-_ZN5Botan12_GLOBAL__N_113aes_decrypt_nEPKhPhmRKSt6vectorIjNS_16secure_allocatorIjEEE
	.cfi_endproc

	.globl	_ZN5Botan7AES_12812key_scheduleEPKhm 
	.p2align	4, 0x90
	.type	_ZN5Botan7AES_12812key_scheduleEPKhm,@function
_ZN5Botan7AES_12812key_scheduleEPKhm:   
	.cfi_startproc

	push	rbp
.Lcfi103:
	.cfi_def_cfa_offset 16
	push	r15
.Lcfi104:
	.cfi_def_cfa_offset 24
	push	r14
.Lcfi105:
	.cfi_def_cfa_offset 32
	push	r13
.Lcfi106:
	.cfi_def_cfa_offset 40
	push	r12
.Lcfi107:
	.cfi_def_cfa_offset 48
	push	rbx
.Lcfi108:
	.cfi_def_cfa_offset 56
	push	rax
.Lcfi109:
	.cfi_def_cfa_offset 64
.Lcfi110:
	.cfi_offset rbx, -56
.Lcfi111:
	.cfi_offset r12, -48
.Lcfi112:
	.cfi_offset r13, -40
.Lcfi113:
	.cfi_offset r14, -32
.Lcfi114:
	.cfi_offset r15, -24
.Lcfi115:
	.cfi_offset rbp, -16
	mov	r14, rdx
	mov	rbp, rsi
	mov	r15, rdi
	mov	eax, dword ptr [rip + x.40]
	lea	ecx, [rax - 1]
	imul	ecx, eax
	not	ecx
	or	ecx, -2
	cmp	ecx, -1
	sete	byte ptr [rsp + 2]
	mov	eax, dword ptr [rip + y.41]
	cmp	eax, 10
	setl	byte ptr [rsp + 3]
	lea	r12, [r15 + 8]
	lea	r13, [r15 + 32]
	mov	eax, 1285019814
	jmp	.LBB14_1
.LBB14_36:                              
	cmovne	esi, edi
	cmp	edx, -1
	mov	eax, esi
	cmove	eax, edi
	cmp	ecx, 10
	cmovge	eax, esi
	.p2align	4, 0x90
.LBB14_1:                               

	cmp	eax, 82585964
	jg	.LBB14_23

	cmp	eax, -1289729401
	jg	.LBB14_15

	cmp	eax, -1659027979
	jle	.LBB14_4

	cmp	eax, -1659027978
	je	.LBB14_58

	cmp	eax, -1473989186
	je	.LBB14_57

	cmp	eax, -1293922290
	jne	.LBB14_1

	call	_ZN5Botan5CPUID10has_aes_niEv
	mov	byte ptr [rsp + 4], al
	mov	eax, dword ptr [rip + x.40]
	mov	ecx, eax
	neg	ecx
	not	ecx
	imul	ecx, eax
	mov	eax, ecx
	xor	eax, -2
	and	eax, ecx
	sete	cl
	test	eax, eax
	mov	eax, -2006293594
	mov	esi, 82585965
	cmove	eax, esi
	cmp	dword ptr [rip + y.41], 10
	setl	dl
	mov	edi, -2006293594
	cmovge	eax, edi
	xor	dl, cl
	cmovne	eax, esi
	jmp	.LBB14_1
	.p2align	4, 0x90
.LBB14_23:                              
	cmp	eax, 1285019813
	jg	.LBB14_32

	cmp	eax, 846564810
	jle	.LBB14_25

	cmp	eax, 846564811
	je	.LBB14_44

	cmp	eax, 997285332
	je	.LBB14_43

	cmp	eax, 1005390187
	jne	.LBB14_1

	mov	al, byte ptr [rsp + 5]
	test	al, al
	mov	eax, -1289729400
	mov	ecx, -593335717
	cmovne	eax, ecx
	jmp	.LBB14_1
	.p2align	4, 0x90
.LBB14_15:                              
	cmp	eax, -771225059
	jle	.LBB14_16

	cmp	eax, -771225058
	je	.LBB14_56

	cmp	eax, -593335717
	je	.LBB14_52

	cmp	eax, -274952062
	jne	.LBB14_1

	mov	eax, 2011730295
	jmp	.LBB14_1
	.p2align	4, 0x90
.LBB14_32:                              
	cmp	eax, 1976487047
	jle	.LBB14_33

	cmp	eax, 1976487048
	je	.LBB14_50

	cmp	eax, 2126901599
	je	.LBB14_53

	cmp	eax, 2011730295
	jne	.LBB14_1
	jmp	.LBB14_40
.LBB14_4:                               
	cmp	eax, -2006293594
	je	.LBB14_55

	cmp	eax, -1688635656
	jne	.LBB14_1

	mov	eax, dword ptr [rip + x.46]
	mov	ecx, dword ptr [rip + y.47]
	lea	edx, [rax - 1]
	imul	edx, eax
	mov	eax, edx
	xor	eax, -2
	and	eax, edx
	sete	dl
	sete	byte ptr [rsp + 6]
	cmp	ecx, 10
	setl	bl
	xor	bl, dl
	mov	edx, 2334080
	mov	esi, 2006162322
	cmovne	edx, esi
	test	eax, eax
	mov	eax, edx
	cmove	eax, esi
	cmp	ecx, 10
	setl	byte ptr [rsp + 7]
	cmovge	eax, edx
	mov	ecx, -740039775
	jmp	.LBB14_7
.LBB14_25:                              
	cmp	eax, 82585965
	je	.LBB14_42

	cmp	eax, 631507331
	jne	.LBB14_1

	xor	r8d, r8d
	mov	rdi, rbp
	mov	rsi, r14
	mov	rdx, r12
	mov	rcx, r13
	call	_ZN5Botan12_GLOBAL__N_116aes_key_scheduleEPKhmRSt6vectorIjNS_16secure_allocatorIjEEES7_b
	mov	eax, dword ptr [rip + x.40]
	lea	ecx, [rax - 1]
	imul	ecx, eax
	not	ecx
	or	ecx, -2
	cmp	ecx, -1
	sete	cl
	mov	eax, -1659027978
	mov	edi, -1117560418
	cmove	eax, edi
	cmp	dword ptr [rip + y.41], 10
	setl	dl
	mov	esi, -1659027978
	jmp	.LBB14_51
.LBB14_16:                              
	cmp	eax, -1289729400
	je	.LBB14_54

	cmp	eax, -1117560418
	jne	.LBB14_1

	mov	eax, 2011730295
	jmp	.LBB14_1
.LBB14_33:                              
	cmp	eax, 1285019814
	je	.LBB14_41

	cmp	eax, 1291633989
	jne	.LBB14_1

	mov	eax, dword ptr [rip + x.40]
	mov	ecx, dword ptr [rip + y.41]
	lea	edx, [rax - 1]
	imul	edx, eax
	not	edx
	or	edx, -2
	cmp	edx, -1
	sete	al
	cmp	ecx, 10
	setl	bl
	xor	bl, al
	mov	esi, -771225058
	mov	edi, 1976487048
	jmp	.LBB14_36
.LBB14_58:                              
	xor	r8d, r8d
	mov	rdi, rbp
	mov	rsi, r14
	mov	rdx, r12
	mov	rcx, r13
	call	_ZN5Botan12_GLOBAL__N_116aes_key_scheduleEPKhmRSt6vectorIjNS_16secure_allocatorIjEEES7_b
	mov	eax, 631507331
	jmp	.LBB14_1
.LBB14_57:                              
	mov	rdi, r15
	mov	rsi, rbp
	mov	rdx, r14
	call	_ZN5Botan7AES_12818vperm_key_scheduleEPKhm
	mov	eax, 2126901599
	jmp	.LBB14_1
.LBB14_44:                              
	call	_ZN5Botan5CPUID10has_aes_niEv
	test	al, al
	mov	eax, 1291633989
	mov	ecx, -1688635656
	cmovne	eax, ecx
	jmp	.LBB14_1
.LBB14_43:                              
	mov	rdi, r15
	mov	rsi, rbp
	mov	rdx, r14
	call	_ZN5Botan7AES_12818aesni_key_scheduleEPKhm
	mov	eax, 2011730295
	jmp	.LBB14_1
.LBB14_56:                              
	call	_ZN5Botan5CPUID9has_ssse3Ev
	mov	eax, 1976487048
	jmp	.LBB14_1
.LBB14_52:                              
	mov	eax, dword ptr [rip + x.40]
	mov	ecx, dword ptr [rip + y.41]
	mov	edx, eax
	neg	edx
	not	edx
	imul	edx, eax
	not	edx
	or	edx, -2
	cmp	edx, -1
	sete	al
	cmp	ecx, 10
	setl	bl
	xor	bl, al
	mov	esi, -1473989186
	mov	edi, 2126901599
	jmp	.LBB14_36
.LBB14_50:                              
	call	_ZN5Botan5CPUID9has_ssse3Ev
	mov	byte ptr [rsp + 5], al
	mov	eax, dword ptr [rip + x.40]
	lea	ecx, [rax - 1]
	imul	ecx, eax
	not	ecx
	or	ecx, -2
	cmp	ecx, -1
	sete	cl
	mov	eax, -771225058
	mov	edi, 1005390187
	cmove	eax, edi
	cmp	dword ptr [rip + y.41], 10
	setl	dl
	mov	esi, -771225058
	jmp	.LBB14_51
.LBB14_53:                              
	mov	rdi, r15
	mov	rsi, rbp
	mov	rdx, r14
	call	_ZN5Botan7AES_12818vperm_key_scheduleEPKhm
	mov	eax, dword ptr [rip + x.40]
	lea	ecx, [rax - 1]
	imul	ecx, eax
	not	ecx
	or	ecx, -2
	cmp	ecx, -1
	sete	cl
	mov	eax, -1473989186
	mov	edi, -274952062
	cmove	eax, edi
	cmp	dword ptr [rip + y.41], 10
	setl	dl
	mov	esi, -1473989186
.LBB14_51:                              
	cmovge	eax, esi
	xor	dl, cl
	cmovne	eax, edi
	jmp	.LBB14_1
.LBB14_55:                              
	call	_ZN5Botan5CPUID10has_aes_niEv
	mov	eax, -1293922290
	jmp	.LBB14_1
.LBB14_47:                              
	mov	ecx, eax
	.p2align	4, 0x90
.LBB14_7:                               

	cmp	ecx, 2006162321
	jg	.LBB14_45

	cmp	ecx, -740039775
	je	.LBB14_48

	cmp	ecx, 2334080
	jne	.LBB14_7

	mov	ecx, 2040709380
	jmp	.LBB14_7
	.p2align	4, 0x90
.LBB14_45:                              
	cmp	ecx, 2006162322
	je	.LBB14_49

	cmp	ecx, 2040709380
	jne	.LBB14_7
	jmp	.LBB14_47
.LBB14_48:                              
	movzx	ebx, byte ptr [rsp + 6]
	movzx	ecx, byte ptr [rsp + 7]
	mov	edx, ebx
	xor	dl, cl
	mov	edx, 2334080
	mov	esi, 2040709380
	cmovne	edx, esi
	test	cl, cl
	mov	ecx, edx
	cmovne	ecx, esi
	test	bl, bl
	cmove	ecx, edx
	jmp	.LBB14_7
.LBB14_42:                              
	mov	al, byte ptr [rsp + 4]
	test	al, al
	mov	eax, 846564811
	mov	ecx, 997285332
	cmovne	eax, ecx
	jmp	.LBB14_1
.LBB14_54:                              
	mov	eax, dword ptr [rip + x.40]
	mov	ecx, dword ptr [rip + y.41]
	lea	edx, [rax - 1]
	imul	edx, eax
	not	edx
	or	edx, -2
	cmp	edx, -1
	sete	al
	cmp	ecx, 10
	setl	bl
	xor	bl, al
	mov	esi, -1659027978
	mov	edi, 631507331
	jmp	.LBB14_36
.LBB14_41:                              
	mov	cl, byte ptr [rsp + 2]
	mov	al, byte ptr [rsp + 3]
	mov	edx, ecx
	xor	dl, al
	test	al, al
	mov	eax, -2006293594
	mov	esi, -1293922290
	cmovne	eax, esi
	test	cl, cl
	mov	ecx, -2006293594
	cmove	eax, ecx
	test	dl, dl
	cmovne	eax, esi
	jmp	.LBB14_1
.LBB14_49:                              
	mov	r8d, 1
	mov	rdi, rbp
	mov	rsi, r14
	mov	rdx, r12
	mov	rcx, r13
	call	_ZN5Botan12_GLOBAL__N_116aes_key_scheduleEPKhmRSt6vectorIjNS_16secure_allocatorIjEEES7_b
	mov	eax, 2011730295
	jmp	.LBB14_1
.LBB14_40:
	add	rsp, 8
	pop	rbx
	pop	r12
	pop	r13
	pop	r14
	pop	r15
	pop	rbp
	ret
.Lfunc_end14:
	.size	_ZN5Botan7AES_12812key_scheduleEPKhm, .Lfunc_end14-_ZN5Botan7AES_12812key_scheduleEPKhm
	.cfi_endproc

	.section	.text._ZN5Botan5CPUID10has_aes_niEv,"axG",@progbits,_ZN5Botan5CPUID10has_aes_niEv,comdat
	.weak	_ZN5Botan5CPUID10has_aes_niEv 
	.p2align	4, 0x90
	.type	_ZN5Botan5CPUID10has_aes_niEv,@function
_ZN5Botan5CPUID10has_aes_niEv:          
	.cfi_startproc

	push	rbp
.Lcfi116:
	.cfi_def_cfa_offset 16
	push	r14
.Lcfi117:
	.cfi_def_cfa_offset 24
	push	rbx
.Lcfi118:
	.cfi_def_cfa_offset 32
	sub	rsp, 16
.Lcfi119:
	.cfi_def_cfa_offset 48
.Lcfi120:
	.cfi_offset rbx, -32
.Lcfi121:
	.cfi_offset r14, -24
.Lcfi122:
	.cfi_offset rbp, -16
	mov	eax, dword ptr [rip + x.42]
	lea	ecx, [rax - 1]
	imul	ecx, eax
	not	ecx
	or	ecx, -2
	cmp	ecx, -1
	sete	byte ptr [rsp + 13]
	mov	eax, dword ptr [rip + y.43]
	cmp	eax, 10
	setl	byte ptr [rsp + 14]
	mov	eax, 988704501
	mov	ebx, -1167428299
	mov	r14d, 1547480451
	mov	ebp, 309724853
	jmp	.LBB15_1
.LBB15_7:                               
	movzx	ecx, byte ptr [rsp + 13]
	movzx	eax, byte ptr [rsp + 14]
	mov	edx, ecx
	xor	dl, al
	mov	edx, 1547480451
	cmovne	edx, ebp
	test	al, al
	mov	eax, edx
	cmovne	eax, ebp
	test	cl, cl
	cmove	eax, edx
	.p2align	4, 0x90
.LBB15_1:                               
	cmp	eax, 988704500
	jg	.LBB15_5

	cmp	eax, -1167428299
	je	.LBB15_8

	cmp	eax, 309724853
	jne	.LBB15_1

	mov	edi, 65536
	call	_ZN5Botan5CPUID13has_cpuid_bitENS0_10CPUID_bitsE
	mov	byte ptr [rsp + 15], al
	mov	eax, dword ptr [rip + x.42]
	lea	ecx, [rax - 1]
	imul	ecx, eax
	mov	eax, ecx
	xor	eax, -2
	and	eax, ecx
	sete	cl
	test	eax, eax
	mov	eax, 1547480451
	cmove	eax, ebx
	cmp	dword ptr [rip + y.43], 10
	setl	dl
	cmovge	eax, r14d
	xor	dl, cl
	cmovne	eax, ebx
	jmp	.LBB15_1
	.p2align	4, 0x90
.LBB15_5:                               
	cmp	eax, 1547480451
	je	.LBB15_9

	cmp	eax, 988704501
	jne	.LBB15_1
	jmp	.LBB15_7
.LBB15_9:                               
	mov	edi, 65536
	call	_ZN5Botan5CPUID13has_cpuid_bitENS0_10CPUID_bitsE
	mov	eax, 309724853
	jmp	.LBB15_1
.LBB15_8:
	mov	al, byte ptr [rsp + 15]
	add	rsp, 16
	pop	rbx
	pop	r14
	pop	rbp
	ret
.Lfunc_end15:
	.size	_ZN5Botan5CPUID10has_aes_niEv, .Lfunc_end15-_ZN5Botan5CPUID10has_aes_niEv
	.cfi_endproc

	.text
	.p2align	4, 0x90         
	.type	_ZN5Botan12_GLOBAL__N_116aes_key_scheduleEPKhmRSt6vectorIjNS_16secure_allocatorIjEEES7_b,@function
_ZN5Botan12_GLOBAL__N_116aes_key_scheduleEPKhmRSt6vectorIjNS_16secure_allocatorIjEEES7_b: 
	.cfi_startproc

	push	rbp
.Lcfi123:
	.cfi_def_cfa_offset 16
	push	r15
.Lcfi124:
	.cfi_def_cfa_offset 24
	push	r14
.Lcfi125:
	.cfi_def_cfa_offset 32
	push	r13
.Lcfi126:
	.cfi_def_cfa_offset 40
	push	r12
.Lcfi127:
	.cfi_def_cfa_offset 48
	push	rbx
.Lcfi128:
	.cfi_def_cfa_offset 56
	sub	rsp, 248
.Lcfi129:
	.cfi_def_cfa_offset 304
.Lcfi130:
	.cfi_offset rbx, -56
.Lcfi131:
	.cfi_offset r12, -48
.Lcfi132:
	.cfi_offset r13, -40
.Lcfi133:
	.cfi_offset r14, -32
.Lcfi134:
	.cfi_offset r15, -24
.Lcfi135:
	.cfi_offset rbp, -16
	mov	r13, rcx
	mov	r12, rdx
	mov	qword ptr [rsp + 208], rdi 
	mov	rax, rsi
	shr	rax, 2
	mov	qword ptr [rsp + 8], rax
	mov	rax, qword ptr [rsp + 8]
	cmp	rax, 4
	setne	al
	mov	rcx, qword ptr [rsp + 8]
	cmp	rcx, 6
	setne	cl
	mov	edx, eax
	xor	dl, cl
	or	al, cl
	not	al
	or	al, dl
	and	al, 1
	mov	byte ptr [rsp + 29], al
	mov	rax, qword ptr [rsp + 8]
	cmp	rax, 8
	sete	byte ptr [rsp + 28]
	movabs	rax, 967284048492136471
	sub	rsi, rax
	lea	rax, [rsi + rax + 28]
	mov	qword ptr [rsp + 200], rax 
	test	r8b, r8b
	mov	eax, 439338138
	mov	ecx, 1874996550
	cmovne	ecx, eax
	mov	dword ptr [rsp + 148], ecx 
	mov	eax, 951905243
















	mov	qword ptr [rsp + 216], r13 
	jmp	.LBB16_1
.LBB16_132:                             
	cmovge	eax, edi
	xor	dl, cl
	cmovne	eax, esi
	.p2align	4, 0x90
.LBB16_1:                               






	cmp	eax, -625008671
	jg	.LBB16_54

	cmp	eax, -1368790691
	jle	.LBB16_3

	cmp	eax, -990814741
	jg	.LBB16_42

	cmp	eax, -1208496938
	jle	.LBB16_31

	cmp	eax, -1153489782
	jg	.LBB16_39

	cmp	eax, -1208496937
	je	.LBB16_139

	cmp	eax, -1205435679
	jne	.LBB16_1

	mov	eax, -701538695
	mov	r14d, 4
	jmp	.LBB16_1
	.p2align	4, 0x90
.LBB16_54:                              
	cmp	eax, 951905242
	jle	.LBB16_55

	cmp	eax, 1565114906
	jg	.LBB16_94

	cmp	eax, 1101867789
	jle	.LBB16_82

	cmp	eax, 1446161718
	jg	.LBB16_90

	cmp	eax, 1101867790
	je	.LBB16_112

	cmp	eax, 1284741152
	jne	.LBB16_1

	mov	rax, qword ptr [rsp + 72]
	shl	rax, 2
	mov	rcx, qword ptr [rsp + 48]
	movabs	rdx, -4477687701716164898
	sub	rax, rdx
	sub	rax, rcx
	add	rax, rdx
	mov	rcx, qword ptr [r12]
	mov	edx, dword ptr [rcx + 4*rax]
	mov	rsi, qword ptr [rsp + 48]
	mov	rdi, qword ptr [r13]
	mov	dword ptr [rdi + 4*rsi], edx
	movabs	rdx, -6479337710680962236
	mov	rsi, rdx
	lea	rdx, [rsi + rax + 1]
	sub	rdx, rsi
	mov	edx, dword ptr [rcx + 4*rdx]
	mov	rsi, qword ptr [rsp + 48]
	movabs	rbp, -8002917969346478154
	sub	rsi, rbp
	lea	rsi, [rsi + rbp + 1]
	mov	dword ptr [rdi + 4*rsi], edx
	mov	edx, dword ptr [rcx + 4*rax + 8]
	mov	rsi, qword ptr [rsp + 48]
	mov	dword ptr [rdi + 4*rsi + 8], edx
	mov	eax, dword ptr [rcx + 4*rax + 12]
	mov	rcx, qword ptr [rsp + 48]
	movabs	rdx, -4433425740282564160
	sub	rcx, rdx
	lea	rcx, [rcx + rdx + 3]
	mov	dword ptr [rdi + 4*rcx], eax
	mov	rax, qword ptr [rsp + 48]
	xor	ecx, ecx
	sub	rcx, rax
	mov	eax, 4
	sub	rax, rcx
	mov	qword ptr [rsp + 152], rax 
	mov	eax, -1153489781
	jmp	.LBB16_1
	.p2align	4, 0x90
.LBB16_3:                               
	cmp	eax, -1710596426
	jg	.LBB16_16

	cmp	eax, -1907139056
	jle	.LBB16_5

	cmp	eax, -1867435676
	jg	.LBB16_13

	cmp	eax, -1907139055
	je	.LBB16_141

	cmp	eax, -1884008845
	jne	.LBB16_1

	mov	rdi, r12
	mov	rbx, qword ptr [rsp + 200] 
	mov	rsi, rbx
	call	_ZNSt6vectorIjN5Botan16secure_allocatorIjEEE6resizeEm
	mov	rdi, r13
	mov	rsi, rbx
	call	_ZNSt6vectorIjN5Botan16secure_allocatorIjEEE6resizeEm
	mov	eax, 1101867790
	jmp	.LBB16_1
	.p2align	4, 0x90
.LBB16_55:                              
	cmp	eax, 138150750
	jg	.LBB16_68

	cmp	eax, -216937043
	jle	.LBB16_57

	cmp	eax, -82679858
	jg	.LBB16_65

	cmp	eax, -216937042
	je	.LBB16_192

	cmp	eax, -102321608
	jne	.LBB16_1

	mov	eax, dword ptr [rip + x.44]
	mov	ecx, dword ptr [rip + y.45]
	lea	edx, [rax - 1]
	imul	edx, eax
	not	edx
	or	edx, -2
	cmp	edx, -1
	sete	al
	cmp	ecx, 10
	setl	bl
	xor	bl, al
	mov	esi, -1867435675
	mov	edi, -1208496937
	jmp	.LBB16_118
.LBB16_42:                              
	cmp	eax, -701538696
	jle	.LBB16_43

	cmp	eax, -650275942
	jg	.LBB16_51

	cmp	eax, -701538695
	je	.LBB16_140

	cmp	eax, -655836691
	jne	.LBB16_1

	mov	rax, qword ptr [rsp + 32]
	mov	rcx, qword ptr [rsp + 208] 
	mov	eax, dword ptr [rcx + 4*rax]
	bswap	eax
	mov	rcx, qword ptr [rsp + 32]
	mov	rdx, qword ptr [r12]
	mov	dword ptr [rdx + 4*rcx], eax
	mov	eax, dword ptr [rip + x.44]
	mov	ecx, dword ptr [rip + y.45]
	lea	edx, [rax - 1]
	imul	edx, eax
	mov	eax, edx
	xor	eax, -2
	and	eax, edx
	sete	dl
	cmp	ecx, 10
	setl	bl
	xor	bl, dl
	mov	edx, 1016831247
	mov	esi, -1710596425
	cmovne	edx, esi
	test	eax, eax
	mov	eax, edx
	cmove	eax, esi
	cmp	ecx, 10
	mov	rcx, qword ptr [rsp + 32]
	cmovge	eax, edx
	movabs	rdx, -2998882934456464078
	sub	rcx, rdx
	lea	rcx, [rcx + rdx + 1]
	mov	qword ptr [rsp + 240], rcx
	jmp	.LBB16_1
.LBB16_94:                              
	cmp	eax, 1735502591
	jle	.LBB16_95

	cmp	eax, 1874996549
	jg	.LBB16_107

	cmp	eax, 1735502592
	je	.LBB16_182

	cmp	eax, 1759261920
	jne	.LBB16_1

	mov	rax, qword ptr [rsp + 16]
	add	rax, qword ptr [rsp + 40]
	mov	qword ptr [rsp + 80], rax
	mov	rax, qword ptr [r12 + 8]
	sub	rax, qword ptr [r12]
	sar	rax, 2
	mov	rcx, qword ptr [rsp + 80]
	cmp	rcx, rax
	setb	byte ptr [rsp + 31]
	mov	eax, dword ptr [rip + x.44]
	lea	ecx, [rax - 1]
	imul	ecx, eax
	mov	eax, ecx
	xor	eax, -2
	and	eax, ecx
	sete	cl
	test	eax, eax
	mov	eax, -216937042
	mov	edi, 1657122937
	cmove	eax, edi
	cmp	dword ptr [rip + y.45], 10
	setl	dl
	mov	esi, -216937042
	jmp	.LBB16_93
.LBB16_16:                              
	cmp	eax, -1480079911
	jg	.LBB16_25

	cmp	eax, -1535732156
	jle	.LBB16_18

	cmp	eax, -1535732155
	je	.LBB16_185

	cmp	eax, -1488735934
	jne	.LBB16_1

	mov	eax, dword ptr [rip + x.44]
	mov	ecx, dword ptr [rip + y.45]
	lea	edx, [rax - 1]
	imul	edx, eax
	mov	eax, edx
	xor	eax, -2
	and	eax, edx
	sete	dl
	cmp	ecx, 10
	setl	bl
	xor	bl, dl
	mov	edx, 1016831247
	mov	esi, -655836691
	jmp	.LBB16_24
.LBB16_68:                              
	cmp	eax, 439338137
	jle	.LBB16_69

	cmp	eax, 746513596
	jg	.LBB16_77

	cmp	eax, 439338138
	je	.LBB16_178

	cmp	eax, 659720314
	jne	.LBB16_1

	mov	eax, -1830296023
	xor	ecx, ecx
	mov	qword ptr [rsp + 184], rcx 
	jmp	.LBB16_1
.LBB16_5:                               
	cmp	eax, -2128871527
	je	.LBB16_131

	cmp	eax, -2033665533
	je	.LBB16_114

	cmp	eax, -2022264981
	jne	.LBB16_1

	mov	rax, qword ptr [r12]
	mov	rdi, qword ptr [rsp + 192] 
	mov	ecx, dword ptr [rax + 4*rdi]
	mov	esi, dword ptr [rsp + 96] 
	mov	edx, esi
	not	edx
	and	edx, ecx
	not	ecx
	and	ecx, esi
	or	edx, ecx
	mov	dword ptr [rax + 4*rdi], edx
	xor	eax, eax
	sub	rax, qword ptr [rsp + 40]
	mov	ecx, 1
	sub	rcx, rax
	mov	qword ptr [rsp + 160], rcx 
	mov	eax, -873189517
	jmp	.LBB16_1
.LBB16_57:                              
	cmp	eax, -625008670
	je	.LBB16_183

	cmp	eax, -585050221
	je	.LBB16_111

	cmp	eax, -386875329
	jne	.LBB16_1

	mov	eax, dword ptr [rip + x.44]
	mov	ecx, dword ptr [rip + y.45]
	lea	edx, [rax - 1]
	imul	edx, eax
	mov	eax, edx
	xor	eax, -2
	and	eax, edx
	sete	dl
	cmp	ecx, 10
	setl	bl
	xor	bl, dl
	mov	edx, 1565114907
	mov	esi, -1480079910
	cmovne	edx, esi
	test	eax, eax
	mov	eax, edx
	cmove	eax, esi
	cmp	ecx, 10
	mov	rcx, qword ptr [rsp + 8]
	mov	rsi, qword ptr [rsp + 40]
	cmovge	eax, edx
	cmp	rsi, rcx
	setne	byte ptr [rsp + 30]
	jmp	.LBB16_1
.LBB16_25:                              
	cmp	eax, -1480079910
	je	.LBB16_130

	cmp	eax, -1428196627
	je	.LBB16_113

	cmp	eax, -1378226871
	jne	.LBB16_1

	mov	eax, dword ptr [rsp + 148] 
	jmp	.LBB16_1
.LBB16_69:                              
	cmp	eax, 138150751
	je	.LBB16_180

	cmp	eax, 144462693
	je	.LBB16_117

	cmp	eax, 325624734
	jne	.LBB16_1

	mov	eax, dword ptr [rip + x.44]
	lea	ecx, [rax - 1]
	imul	ecx, eax
	mov	eax, ecx
	xor	eax, -2
	and	eax, ecx
	sete	cl
	test	eax, eax
	mov	eax, -30074308
	mov	esi, -1535732155
	cmove	eax, esi
	cmp	dword ptr [rip + y.45], 10
	setl	dl
	mov	edi, -30074308
	jmp	.LBB16_132
.LBB16_31:                              
	cmp	eax, -1368790690
	je	.LBB16_134

	cmp	eax, -1300201036
	je	.LBB16_135

	cmp	eax, -1236854322
	jne	.LBB16_1

	mov	eax, -990814740
	jmp	.LBB16_1
.LBB16_82:                              
	cmp	eax, 951905243
	je	.LBB16_110

	cmp	eax, 999595854
	je	.LBB16_137

	cmp	eax, 1016831247
	jne	.LBB16_1

	mov	rax, qword ptr [rsp + 32]
	mov	rcx, qword ptr [rsp + 208] 
	mov	eax, dword ptr [rcx + 4*rax]
	bswap	eax
	mov	rcx, qword ptr [rsp + 32]
	mov	rdx, qword ptr [r12]
	mov	dword ptr [rdx + 4*rcx], eax
	mov	rax, qword ptr [rsp + 32]
	mov	rax, qword ptr [rsp + 32]
	mov	rax, qword ptr [rsp + 32]
	mov	rax, qword ptr [rsp + 32]
	mov	rax, qword ptr [rsp + 32]
	mov	rax, qword ptr [rsp + 32]
	mov	rax, qword ptr [rsp + 32]
	mov	rax, qword ptr [rsp + 32]
	mov	eax, -655836691
	jmp	.LBB16_1
.LBB16_43:                              
	cmp	eax, -990814740
	je	.LBB16_181

	cmp	eax, -873189517
	je	.LBB16_129

	cmp	eax, -793302316
	jne	.LBB16_1

	mov	rax, qword ptr [rsp + 112]
	mov	rcx, qword ptr [r12]
	mov	eax, dword ptr [rcx + 4*rax]
	bswap	eax
	mov	rdx, qword ptr [rsp + 112]
	mov	dword ptr [rcx + 4*rdx], eax
	mov	rax, qword ptr [rsp + 112]
	xor	ecx, ecx
	sub	rcx, rax
	mov	eax, 1
	sub	rax, rcx
	mov	qword ptr [rsp + 176], rax 
	mov	eax, -82679857
	jmp	.LBB16_1
.LBB16_95:                              
	cmp	eax, 1565114907
	je	.LBB16_191

	cmp	eax, 1657122937
	je	.LBB16_133

	cmp	eax, 1689999044
	jne	.LBB16_1

	mov	qword ptr [rsp + 128], r15 
	mov	r15, r13
	mov	r13, r14
	mov	rax, qword ptr [rsp + 8]
	mov	rax, qword ptr [rsp + 16]
	mov	rax, qword ptr [rsp + 8]
	mov	rax, qword ptr [rsp + 16]
	mov	rax, qword ptr [rsp + 8]
	mov	rax, qword ptr [rsp + 16]
	mov	rax, qword ptr [rsp + 8]
	mov	rax, qword ptr [rsp + 16]
	mov	rax, qword ptr [rsp + 8]
	mov	rax, qword ptr [rsp + 8]
	mov	rax, qword ptr [rsp + 16]
	mov	rax, qword ptr [rsp + 8]
	mov	rax, qword ptr [rsp + 16]
	mov	rax, qword ptr [rsp + 8]
	mov	rcx, qword ptr [rsp + 8]
	mov	rax, qword ptr [rsp + 16]
	movabs	rdx, 446489633133123489
	add	rax, rdx
	sub	rax, rcx
	sub	rax, rdx
	mov	rcx, qword ptr [r12]
	mov	r14d, dword ptr [rcx + 4*rax]
	mov	rdx, qword ptr [rsp + 8]
	mov	rdx, qword ptr [rsp + 8]
	mov	rdx, qword ptr [rsp + 8]
	mov	rdx, qword ptr [rsp + 8]
	mov	rdx, qword ptr [rsp + 8]
	mov	rdx, qword ptr [rsp + 8]
	mov	rdx, qword ptr [rsp + 8]
	xor	edx, edx
	div	qword ptr [rsp + 8]
	mov	rbp, rax
	mov	rax, qword ptr [rsp + 16]
	mov	rax, qword ptr [rsp + 16]
	movabs	rdx, 7103664971458373198
	sub	rax, rdx
	lea	rax, [rax + rdx - 1]
	mov	edi, dword ptr [rcx + 4*rax]
	call	_ZN5Botan12_GLOBAL__N_17SE_wordEj
	mov	ecx, dword ptr [rip + x.182]
	mov	esi, dword ptr [rip + y.183]
	lea	edx, [rcx - 1]
	imul	edx, ecx
	not	edx
	or	edx, -2
	cmp	edx, -1
	sete	dil
	cmp	esi, 10
	setl	cl
	xor	cl, dil
	mov	edi, 1030781698
	mov	ecx, 440541514
	cmovne	edi, ecx
	cmp	edx, -1
	sete	byte ptr [rsp + 6]
	mov	r8d, edi
	cmove	r8d, ecx
	cmp	esi, 10
	mov	r9d, dword ptr [4*rbp + _ZZN5Botan12_GLOBAL__N_116aes_key_scheduleEPKhmRSt6vectorIjNS_16secure_allocatorIjEEES7_bE2RC]
	setl	byte ptr [rsp + 7]
	cmovge	r8d, edi
	mov	esi, eax
	shl	esi, 8
	shr	eax, 24
	mov	edi, esi
	not	edi
	mov	ebp, eax
	not	ebp
	and	edi, -1441376479
	and	esi, 1441376256
	or	esi, edi
	and	ebp, -1441376479
	and	eax, 222
	or	eax, ebp
	xor	eax, esi
	mov	esi, 1991322109
	jmp	.LBB16_99
.LBB16_13:                              
	cmp	eax, -1867435675
	je	.LBB16_193

	cmp	eax, -1830296023
	jne	.LBB16_1

	mov	rax, qword ptr [rsp + 184] 
	mov	qword ptr [rsp + 120], rax
	mov	rax, qword ptr [r13 + 8]
	movabs	rcx, 657232392985681814
	add	rax, rcx
	sub	rax, qword ptr [r13]
	sub	rax, rcx
	sar	rax, 2
	mov	rcx, qword ptr [rsp + 120]
	cmp	rcx, rax
	mov	eax, -625008670
	mov	ecx, 138150751
	cmove	eax, ecx
	jmp	.LBB16_1
.LBB16_65:                              
	cmp	eax, -82679857
	je	.LBB16_179

	cmp	eax, -30074308
	jne	.LBB16_1

	mov	eax, 325624734
	jmp	.LBB16_1
.LBB16_39:                              
	cmp	eax, -1153489781
	je	.LBB16_138

	cmp	eax, -1120463636
	jne	.LBB16_1

	mov	eax, -1428196627
	xor	ecx, ecx
	mov	qword ptr [rsp + 168], rcx 
	jmp	.LBB16_1
.LBB16_90:                              
	cmp	eax, 1446161719
	je	.LBB16_119

	cmp	eax, 1530760097
	jne	.LBB16_1

	mov	eax, dword ptr [rip + x.44]
	mov	ecx, eax
	neg	ecx
	not	ecx
	imul	ecx, eax
	not	ecx
	or	ecx, -2
	cmp	ecx, -1
	sete	cl
	mov	eax, -1884008845
	mov	edi, 1101867790
	cmove	eax, edi
	cmp	dword ptr [rip + y.45], 10
	setl	dl
	mov	esi, -1884008845
.LBB16_93:                              
	cmovge	eax, esi
	xor	dl, cl
	cmovne	eax, edi
	jmp	.LBB16_1
.LBB16_51:                              
	cmp	eax, -650275941
	je	.LBB16_136

	cmp	eax, -643293258
	jne	.LBB16_1

	mov	eax, -873189517
	mov	ecx, 1
	mov	qword ptr [rsp + 160], rcx 
	jmp	.LBB16_1
.LBB16_107:                             
	cmp	eax, 1874996550
	je	.LBB16_184

	cmp	eax, 2142376140
	jne	.LBB16_1

	mov	eax, -1153489781
	xor	ecx, ecx
	mov	qword ptr [rsp + 152], rcx 
	jmp	.LBB16_1
.LBB16_18:                              
	cmp	eax, -1710596425
	jne	.LBB16_19

	mov	eax, -1428196627
	mov	rcx, qword ptr [rsp + 240]
	mov	qword ptr [rsp + 168], rcx 
	jmp	.LBB16_1
.LBB16_77:                              
	cmp	eax, 845851276
	jne	.LBB16_78

	mov	qword ptr [rsp + 16], r15
	mov	rax, qword ptr [rsp + 72]
	shl	rax, 2
	movabs	rcx, 7630533263839819263
	sub	rax, rcx
	lea	rax, [rax + rcx + 4]
	mov	qword ptr [rsp + 224], rax
	mov	rax, qword ptr [rsp + 224]
	mov	rcx, qword ptr [rsp + 16]
	cmp	rcx, rax
	mov	eax, 2142376140
	mov	ecx, 144462693
	cmovb	eax, ecx
	jmp	.LBB16_1
.LBB16_141:                             
	mov	qword ptr [rsp + 128], r15 
	mov	qword ptr [rsp + 232], r12 
	mov	rax, qword ptr [rsp + 136]
	mov	rcx, qword ptr [r13]
	mov	qword ptr [rsp + 64], rax 
	mov	qword ptr [rsp + 104], rcx 
	mov	edx, dword ptr [rcx + 4*rax]
	lea	eax, [rdx + rdx]
	mov	r12d, eax
	xor	r12d, 16843008
	and	r12d, eax
	mov	eax, edx
	shr	eax, 7
	and	eax, 16843009
	lea	eax, [rax + 8*rax]
	lea	eax, [rax + 2*rax]
	mov	ecx, eax
	not	ecx
	and	ecx, 1171652235
	and	eax, 975831412
	or	eax, ecx
	mov	ecx, r12d
	not	ecx
	and	ecx, 1171652235
	and	r12d, -1171652236
	or	r12d, ecx
	xor	r12d, eax
	lea	r14d, [r12 + r12]
	mov	eax, r14d
	not	eax
	or	eax, 256
	mov	ecx, r12d
	shr	ecx, 7
	mov	edi, ecx
	xor	edi, 16711422
	and	edi, ecx
	lea	ecx, [rdi + 8*rdi]
	lea	ecx, [rcx + 2*rcx]
	mov	edi, ecx
	not	edi
	and	edi, -1843754078
	and	ecx, 770012253
	or	ecx, edi
	and	eax, -1843754078
	and	r14d, 1826911324
	or	r14d, eax
	xor	r14d, ecx
	lea	r9d, [r14 + r14]
	mov	eax, r9d
	not	eax
	or	eax, 256
	mov	ecx, r14d
	shr	ecx, 7
	and	ecx, 16843009
	lea	ecx, [rcx + 8*rcx]
	lea	ecx, [rcx + 2*rcx]
	mov	edi, ecx
	not	edi
	and	edi, -1606891058
	and	ecx, 533149233
	or	ecx, edi
	and	eax, -1606891058
	and	r9d, 1590048304
	or	r9d, eax
	xor	r9d, ecx
	mov	r8d, r9d
	not	r8d
	mov	eax, edx
	and	eax, r8d
	not	edx
	and	edx, r9d
	or	edx, eax
	mov	r11d, edx
	not	r11d
	mov	eax, r12d
	and	eax, r11d
	mov	edi, r12d
	not	edi
	mov	esi, edx
	and	esi, edi
	or	esi, eax
	mov	ebp, edx
	shl	ebp, 24
	mov	eax, dword ptr [rip + x.158]
	lea	ecx, [rax - 1]
	imul	ecx, eax
	mov	eax, ecx
	xor	eax, -2
	and	eax, ecx
	mov	ecx, dword ptr [rip + y.159]
	sete	r15b
	sete	byte ptr [rsp + 6]
	rol	esi, 8
	test	eax, eax
	mov	eax, -901057941
	mov	r10d, 837143518
	cmove	eax, r10d
	cmp	ecx, 10
	setl	cl
	setl	byte ptr [rsp + 7]
	mov	ebx, -901057941
	cmovge	eax, ebx
	xor	cl, r15b
	cmovne	eax, r10d
	mov	ecx, -854964049
	jmp	.LBB16_142
.LBB16_192:                             
	mov	rax, qword ptr [rsp + 16]
	mov	rax, qword ptr [rsp + 40]
	mov	rax, qword ptr [rsp + 16]
	mov	rax, qword ptr [rsp + 40]
	mov	rax, qword ptr [rsp + 16]
	mov	rax, qword ptr [rsp + 40]
	mov	rax, qword ptr [rsp + 40]
	mov	rax, qword ptr [rsp + 16]
	mov	rax, qword ptr [rsp + 40]
	mov	rax, qword ptr [rsp + 16]
	mov	rax, qword ptr [rsp + 40]
	mov	rax, qword ptr [rsp + 16]
	mov	rax, qword ptr [rsp + 40]
	mov	rax, qword ptr [rsp + 16]
	mov	rax, qword ptr [rsp + 40]
	mov	rax, qword ptr [rsp + 16]
	mov	rax, qword ptr [rsp + 40]
	mov	eax, 1759261920
	jmp	.LBB16_1
.LBB16_131:                             
	mov	eax, dword ptr [rip + x.44]
	lea	ecx, [rax - 1]
	imul	ecx, eax
	not	ecx
	or	ecx, -2
	cmp	ecx, -1
	sete	cl
	mov	eax, -216937042
	mov	esi, 1759261920
	cmove	eax, esi
	cmp	dword ptr [rip + y.45], 10
	setl	dl
	mov	edi, -216937042
	jmp	.LBB16_132
.LBB16_114:                             
	mov	eax, 845851276
	mov	r15, qword ptr [rsp + 8]
	jmp	.LBB16_1
.LBB16_183:                             
	mov	rax, qword ptr [rsp + 120]
	mov	rcx, qword ptr [r13]
	mov	eax, dword ptr [rcx + 4*rax]
	bswap	eax
	mov	rdx, qword ptr [rsp + 120]
	mov	dword ptr [rcx + 4*rdx], eax
	mov	rax, qword ptr [rsp + 120]
	xor	ecx, ecx
	sub	rcx, rax
	mov	eax, 1
	sub	rax, rcx
	mov	qword ptr [rsp + 184], rax 
	mov	eax, -1830296023
	jmp	.LBB16_1
.LBB16_111:                             
	mov	rax, qword ptr [rsp + 8]
	movabs	rcx, -7406529843513827837
	lea	rax, [rax + rcx + 6]
	sub	rax, rcx
	mov	qword ptr [rsp + 72], rax
	mov	rax, qword ptr [rsp + 72]
	cmp	rax, 10
	setne	cl
	mov	rax, qword ptr [rsp + 72]
	cmp	rax, 12
	setne	al
	mov	edx, ecx
	xor	dl, al
	or	cl, al
	xor	cl, 1
	mov	rax, qword ptr [rsp + 72]
	cmp	rax, 14
	sete	bl
	mov	eax, 746513597
	mov	esi, 1530760097
	cmove	eax, esi
	or	cl, dl
	mov	edx, 746513597
	cmove	eax, edx
	xor	cl, bl
	cmovne	eax, esi
	jmp	.LBB16_1
.LBB16_130:                             
	mov	al, byte ptr [rsp + 30]
	test	al, al
	mov	eax, -1368790690
	mov	ecx, -2128871527
	cmovne	eax, ecx
	jmp	.LBB16_1
.LBB16_113:                             
	mov	rax, qword ptr [rsp + 168] 
	mov	qword ptr [rsp + 32], rax
	mov	rax, qword ptr [rsp + 8]
	mov	rcx, qword ptr [rsp + 32]
	cmp	rcx, rax
	mov	eax, -1488735934
	mov	ecx, -2033665533
	cmove	eax, ecx
	jmp	.LBB16_1
.LBB16_180:                             
	mov	eax, dword ptr [rip + x.44]
	mov	ecx, dword ptr [rip + y.45]
	lea	edx, [rax - 1]
	imul	edx, eax
	mov	eax, edx
	xor	eax, -2
	and	eax, edx
	sete	dl
	cmp	ecx, 10
	setl	bl
	xor	bl, dl
	mov	edx, -1236854322
	mov	esi, -990814740
	jmp	.LBB16_24
.LBB16_117:                             
	mov	eax, dword ptr [rip + x.44]
	mov	ecx, dword ptr [rip + y.45]
	lea	edx, [rax - 1]
	imul	edx, eax
	not	edx
	or	edx, -2
	cmp	edx, -1
	sete	al
	cmp	ecx, 10
	setl	bl
	xor	bl, al
	mov	esi, 1689999044
	mov	edi, 1446161719
	jmp	.LBB16_118
.LBB16_135:                             
	mov	rax, qword ptr [rsp + 8]
	mov	rcx, qword ptr [rsp + 80]
	sub	rcx, rax
	mov	rax, qword ptr [r12]
	mov	ecx, dword ptr [rax + 4*rcx]
	mov	rdx, qword ptr [rsp + 80]
	mov	dword ptr [rax + 4*rdx], ecx
	mov	rcx, qword ptr [rsp + 40]
	cmp	rcx, 4
	mov	cl, byte ptr [rsp + 28]
	mov	rdx, qword ptr [rsp + 80]
	mov	eax, dword ptr [rax + 4*rdx - 4]
	mov	dword ptr [rsp + 100], eax
	mov	eax, 999595854
	mov	edx, -650275941
	cmove	eax, edx
	test	cl, cl
	mov	ecx, 999595854
	cmove	eax, ecx
	jmp	.LBB16_1
.LBB16_137:                             
	mov	rax, qword ptr [rsp + 80]
	mov	qword ptr [rsp + 192], rax 
	mov	eax, -2022264981
	mov	ecx, dword ptr [rsp + 100]
	mov	dword ptr [rsp + 96], ecx 
	jmp	.LBB16_1
.LBB16_129:                             
	mov	rax, qword ptr [rsp + 160] 
	mov	qword ptr [rsp + 40], rax
	mov	eax, dword ptr [rip + x.44]
	mov	ecx, eax
	neg	ecx
	not	ecx
	imul	ecx, eax
	not	ecx
	or	ecx, -2
	cmp	ecx, -1
	sete	cl
	mov	eax, 1565114907
	mov	esi, -386875329
	cmove	eax, esi
	cmp	dword ptr [rip + y.45], 10
	setl	dl
	mov	edi, 1565114907
	jmp	.LBB16_132
.LBB16_133:                             
	mov	al, byte ptr [rsp + 31]
	test	al, al
	mov	eax, -1368790690
	mov	ecx, -1300201036
	cmovne	eax, ecx
	jmp	.LBB16_1
.LBB16_189:                             
	mov	dword ptr [rsp + 24], eax
	mov	esi, r8d
	.p2align	4, 0x90
.LBB16_99:                              

	mov	edi, esi
	and	edi, 2147483647
	cmp	edi, 1643305778
	jg	.LBB16_186

	cmp	edi, 440541514
	je	.LBB16_190

	cmp	edi, 1030781698
	jne	.LBB16_99

	mov	esi, 1643305779
	jmp	.LBB16_99
	.p2align	4, 0x90
.LBB16_186:                             
	cmp	edi, 1643305779
	je	.LBB16_189

	cmp	edi, 1991322109
	jne	.LBB16_99

	movzx	ebx, byte ptr [rsp + 6]
	movzx	ecx, byte ptr [rsp + 7]
	mov	edx, ebx
	xor	dl, cl
	mov	edx, 1030781698
	mov	edi, 1643305779
	cmovne	edx, edi
	test	cl, cl
	mov	esi, edx
	cmovne	esi, edi
	test	bl, bl
	cmove	esi, edx
	jmp	.LBB16_99
.LBB16_193:                             
	mov	eax, -1208496937
	jmp	.LBB16_1
.LBB16_179:                             
	mov	rax, qword ptr [rsp + 176] 
	mov	qword ptr [rsp + 112], rax
	mov	rax, qword ptr [r12 + 8]
	sub	rax, qword ptr [r12]
	sar	rax, 2
	mov	rcx, qword ptr [rsp + 112]
	cmp	rcx, rax
	mov	eax, -793302316
	mov	ecx, 659720314
	cmove	eax, ecx
	jmp	.LBB16_1
.LBB16_145:                             
	movzx	r15d, byte ptr [rsp + 6]
	movzx	ecx, byte ptr [rsp + 7]
	mov	ebx, r15d
	xor	bl, cl
	mov	ebx, -901057941
	mov	r10d, -626394746
	cmovne	ebx, r10d
	test	cl, cl
	mov	ecx, ebx
	cmovne	ecx, r10d
	test	r15b, r15b
	cmove	ecx, ebx
	.p2align	4, 0x90
.LBB16_142:                             

	cmp	ecx, -626394747
	jle	.LBB16_143

	cmp	ecx, -626394746
	je	.LBB16_153

	cmp	ecx, 837143518
	jne	.LBB16_142
	jmp	.LBB16_148
	.p2align	4, 0x90
.LBB16_143:                             
	cmp	ecx, -901057941
	je	.LBB16_154

	cmp	ecx, -854964049
	jne	.LBB16_142
	jmp	.LBB16_145
.LBB16_153:                             
	mov	dword ptr [rsp + 24], esi
	mov	ecx, eax
	jmp	.LBB16_142
.LBB16_154:                             
	mov	ecx, -626394746
	jmp	.LBB16_142
.LBB16_190:                             
	mov	eax, r9d
	not	eax
	and	eax, 633935703
	and	r9d, -633935704
	or	r9d, eax
	mov	eax, r14d
	not	eax
	and	eax, 633935703
	and	r14d, -633935704
	or	r14d, eax
	xor	r14d, r9d
	mov	eax, dword ptr [rsp + 24]
	mov	ecx, r14d
	not	ecx
	and	ecx, 1403431798
	and	r14d, -1403431799
	or	r14d, ecx
	mov	ecx, eax
	not	ecx
	and	ecx, 1403431798
	and	eax, -1403431799
	or	eax, ecx
	xor	eax, r14d
	mov	rcx, qword ptr [rsp + 16]
	mov	rdx, qword ptr [r12]
	mov	dword ptr [rdx + 4*rcx], eax
	mov	eax, 1446161719
	mov	r14, r13
	mov	r13, r15
	mov	r15, qword ptr [rsp + 128] 
	jmp	.LBB16_1
.LBB16_148:                             
	mov	eax, edx
	shr	eax, 8
	mov	ebx, eax
	not	ebx
	mov	ecx, ebp
	not	ecx
	mov	esi, ebx
	and	esi, -1268003675
	and	eax, 9712474
	or	eax, esi
	or	ebx, ecx
	and	ecx, -1268003675
	and	ebp, 1268003674
	or	ebp, ecx
	xor	ebp, eax
	not	ebx
	or	ebx, ebp
	and	r11d, r14d
	mov	eax, r14d
	not	eax
	and	edx, eax
	or	edx, r11d
	rol	edx, 16
	mov	ebp, dword ptr [rsp + 24]
	and	r12d, eax
	and	edi, r14d
	or	edi, r12d
	mov	eax, edi
	not	eax
	and	r9d, eax
	and	edi, r8d
	or	edi, r9d
	mov	eax, edi
	not	eax
	and	eax, -2078050338
	and	edi, 2078050337
	or	edi, eax
	mov	eax, ebx
	not	eax
	and	eax, -2078050338
	and	ebx, 2078050337
	or	ebx, eax
	xor	ebx, edi
	mov	eax, ebx
	not	eax
	and	eax, 1180981615
	and	ebx, -1180981616
	or	ebx, eax
	mov	eax, edx
	not	eax
	and	eax, 1180981615
	and	edx, -1180981616
	or	edx, eax
	xor	edx, ebx
	mov	eax, edx
	not	eax
	and	eax, ebp
	not	ebp
	and	ebp, edx
	or	ebp, eax
	mov	rax, qword ptr [rsp + 64] 
	mov	rcx, qword ptr [rsp + 104] 
	mov	dword ptr [rcx + 4*rax], ebp
	mov	esi, dword ptr [rcx + 4*rax + 4]
	lea	eax, [rsi + rsi]
	mov	r10d, eax
	xor	r10d, 16843008
	and	r10d, eax
	mov	eax, esi
	shr	eax, 7
	mov	ecx, eax
	xor	ecx, 16711422
	and	ecx, eax
	lea	eax, [rcx + 8*rcx]
	lea	eax, [rax + 2*rax]
	mov	ecx, eax
	not	ecx
	and	ecx, r10d
	not	r10d
	and	r10d, eax
	or	r10d, ecx
	lea	r9d, [r10 + r10]
	mov	eax, r9d
	not	eax
	mov	ecx, r10d
	shr	ecx, 7
	and	ecx, 16843009
	lea	ecx, [rcx + 8*rcx]
	lea	ecx, [rcx + 2*rcx]
	mov	edx, ecx
	not	edx
	and	edx, -1232803256
	and	ecx, 159061431
	or	ecx, edx
	and	eax, -1232803256
	and	r9d, 1215960246
	or	r9d, eax
	xor	r9d, ecx
	lea	ecx, [r9 + r9]
	mov	eax, r9d
	shr	eax, 7
	mov	edx, eax
	xor	edx, 16711422
	and	edx, eax
	lea	eax, [rdx + 8*rdx]
	lea	eax, [rax + 2*rax]
	mov	edx, eax
	not	edx
	and	edx, ecx
	not	ecx
	or	ecx, 16843009
	and	edx, -16843010
	and	ecx, eax
	or	ecx, edx
	mov	r12d, ecx
	not	r12d
	mov	eax, esi
	and	eax, r12d
	not	esi
	and	esi, ecx
	or	esi, eax
	mov	r14d, esi
	not	r14d
	mov	eax, r10d
	and	eax, r14d
	mov	r11d, r10d
	not	r11d
	mov	edi, esi
	and	edi, r11d
	or	edi, eax
	mov	ebp, esi
	shl	ebp, 24
	mov	eax, dword ptr [rip + x.158]
	mov	ebx, dword ptr [rip + y.159]
	mov	r13d, eax
	neg	r13d
	not	r13d
	imul	r13d, eax
	mov	eax, r13d
	xor	eax, -2
	mov	dword ptr [rsp + 88], eax 
	and	eax, r13d
	sete	r8b
	sete	byte ptr [rsp + 6]
	rol	edi, 8
	test	eax, eax
	mov	edx, -901057941
	mov	r15d, 837143518
	cmove	edx, r15d
	mov	dword ptr [rsp + 92], ebx 
	cmp	ebx, 10
	setl	al
	setl	byte ptr [rsp + 7]
	mov	ebx, -901057941
	cmovge	edx, ebx
	xor	al, r8b
	cmovne	edx, r15d
	mov	dword ptr [rsp + 60], edx 
	mov	eax, -854964049
	jmp	.LBB16_149
.LBB16_152:                             
	movzx	edx, byte ptr [rsp + 6]
	movzx	eax, byte ptr [rsp + 7]
	mov	ebx, edx
	xor	bl, al
	mov	ebx, -901057941
	mov	r8d, -626394746
	cmovne	ebx, r8d
	test	al, al
	mov	eax, ebx
	cmovne	eax, r8d
	test	dl, dl
	cmove	eax, ebx
	.p2align	4, 0x90
.LBB16_149:                             

	cmp	eax, -626394747
	jle	.LBB16_150

	cmp	eax, -626394746
	je	.LBB16_162

	cmp	eax, 837143518
	jne	.LBB16_149
	jmp	.LBB16_157
	.p2align	4, 0x90
.LBB16_150:                             
	cmp	eax, -901057941
	je	.LBB16_163

	cmp	eax, -854964049
	jne	.LBB16_149
	jmp	.LBB16_152
.LBB16_162:                             
	mov	dword ptr [rsp + 24], edi
	mov	eax, dword ptr [rsp + 60] 
	jmp	.LBB16_149
.LBB16_163:                             
	mov	eax, -626394746
	jmp	.LBB16_149
.LBB16_157:                             
	mov	eax, esi
	shr	eax, 8
	mov	r8d, eax
	not	r8d
	mov	edx, r8d
	and	edx, 1273011585
	and	eax, 2056830
	or	eax, edx
	mov	edx, ebp
	not	edx
	or	r8d, edx
	and	edx, 1273011585
	and	ebp, -1273011586
	or	ebp, edx
	xor	ebp, eax
	not	r8d
	or	r8d, ebp
	and	r14d, -731149484
	and	esi, 731149483
	or	esi, r14d
	mov	eax, r9d
	not	eax
	and	r10d, eax
	and	eax, -731149484
	mov	edx, r9d
	and	edx, 731149483
	or	edx, eax
	xor	edx, esi
	mov	esi, edx
	shl	esi, 16
	shr	edx, 16
	mov	eax, edx
	not	eax
	mov	edi, esi
	not	edi
	and	eax, 45211922
	and	edx, 7917
	or	edx, eax
	and	edi, 45211922
	and	esi, -45219840
	or	esi, edi
	xor	esi, edx
	mov	r14d, dword ptr [rsp + 24]
	and	r11d, r9d
	or	r11d, r10d
	mov	eax, r11d
	not	eax
	and	eax, 657552807
	and	r11d, -657552808
	or	r11d, eax
	and	r12d, 657552807
	and	ecx, -657552808
	or	ecx, r12d
	xor	ecx, r11d
	mov	eax, ecx
	not	eax
	and	eax, r8d
	not	r8d
	and	r8d, ecx
	or	r8d, eax
	mov	eax, r8d
	not	eax
	and	eax, esi
	not	esi
	and	esi, r8d
	or	esi, eax
	mov	eax, esi
	not	eax
	and	eax, r14d
	not	r14d
	and	r14d, esi
	or	r14d, eax
	mov	r11, qword ptr [rsp + 64] 
	mov	r15, qword ptr [rsp + 104] 
	mov	ebx, dword ptr [r15 + 4*r11 + 8]
	lea	eax, [rbx + rbx]
	mov	r9d, eax
	xor	r9d, 16843008
	and	r9d, eax
	mov	eax, ebx
	shr	eax, 7
	and	eax, 16843009
	lea	eax, [rax + 8*rax]
	lea	eax, [rax + 2*rax]
	mov	ecx, eax
	not	ecx
	and	ecx, r9d
	not	r9d
	and	r9d, eax
	or	r9d, ecx
	lea	eax, [r9 + r9]
	mov	r10d, eax
	xor	r10d, 16843008
	and	r10d, eax
	mov	eax, r9d
	shr	eax, 7
	mov	edx, eax
	xor	edx, 16711422
	and	edx, eax
	lea	eax, [rdx + 8*rdx]
	lea	eax, [rax + 2*rax]
	mov	edx, eax
	not	edx
	and	edx, 807229169
	and	eax, 266512654
	or	eax, edx
	mov	edx, r10d
	not	edx
	and	edx, 807229169
	and	r10d, -807229170
	or	r10d, edx
	xor	r10d, eax
	lea	esi, [r10 + r10]
	mov	eax, r10d
	shr	eax, 7
	and	eax, 16843009
	lea	eax, [rax + 8*rax]
	lea	eax, [rax + 2*rax]
	mov	edx, eax
	not	edx
	and	edx, esi
	not	esi
	or	esi, 16843009
	and	edx, -16843010
	and	esi, eax
	or	esi, edx
	mov	r8d, esi
	not	r8d
	mov	eax, r8d
	and	eax, 775380355
	mov	edx, esi
	and	edx, -775380356
	or	edx, eax
	mov	eax, ebx
	not	eax
	and	eax, 775380355
	and	ebx, -775380356
	or	ebx, eax
	xor	ebx, edx
	mov	r12d, ebx
	not	r12d
	mov	eax, r12d
	and	eax, -856443807
	mov	edx, ebx
	and	edx, 856443806
	or	edx, eax
	mov	edi, r9d
	not	edi
	mov	eax, edi
	and	eax, -856443807
	mov	ebp, r9d
	and	ebp, 856443806
	or	ebp, eax
	xor	ebp, edx
	mov	edx, ebx
	shl	edx, 24
	test	r13d, dword ptr [rsp + 88] 
	mov	dword ptr [r15 + 4*r11 + 4], r14d
	sete	byte ptr [rsp + 6]
	cmp	dword ptr [rsp + 92], 10 
	setl	byte ptr [rsp + 7]
	rol	ebp, 8
	mov	eax, -854964049
	jmp	.LBB16_158
.LBB16_161:                             
	movzx	r11d, byte ptr [rsp + 6]
	movzx	eax, byte ptr [rsp + 7]
	mov	ecx, r11d
	xor	cl, al
	mov	ecx, -901057941
	mov	r14d, -626394746
	cmovne	ecx, r14d
	test	al, al
	mov	eax, ecx
	cmovne	eax, r14d
	test	r11b, r11b
	cmove	eax, ecx
	.p2align	4, 0x90
.LBB16_158:                             

	cmp	eax, -626394747
	jle	.LBB16_159

	cmp	eax, -626394746
	je	.LBB16_171

	cmp	eax, 837143518
	jne	.LBB16_158
	jmp	.LBB16_166
	.p2align	4, 0x90
.LBB16_159:                             
	cmp	eax, -901057941
	je	.LBB16_172

	cmp	eax, -854964049
	jne	.LBB16_158
	jmp	.LBB16_161
.LBB16_171:                             
	mov	dword ptr [rsp + 24], ebp
	mov	eax, dword ptr [rsp + 60] 
	jmp	.LBB16_158
.LBB16_172:                             
	mov	eax, -626394746
	jmp	.LBB16_158
.LBB16_166:                             
	mov	eax, ebx
	shr	eax, 8
	mov	ebp, eax
	not	ebp
	mov	ecx, ebp
	and	ecx, -2109886991
	and	eax, 12734990
	or	eax, ecx
	mov	ecx, edx
	not	ecx
	or	ebp, ecx
	and	ecx, -2109886991
	and	edx, 2109886990
	or	edx, ecx
	xor	edx, eax
	not	ebp
	or	ebp, edx
	and	r12d, r10d
	mov	eax, r10d
	not	eax
	and	ebx, eax
	or	ebx, r12d
	rol	ebx, 16
	mov	r12d, dword ptr [rsp + 24]
	and	r9d, eax
	and	edi, r10d
	or	edi, r9d
	mov	eax, edi
	not	eax
	and	eax, -649739461
	and	edi, 649739460
	or	edi, eax
	and	r8d, -649739461
	and	esi, 649739460
	or	esi, r8d
	xor	esi, edi
	mov	eax, esi
	not	eax
	and	eax, 1092059278
	and	esi, -1092059279
	or	esi, eax
	mov	eax, ebp
	not	eax
	and	eax, 1092059278
	and	ebp, -1092059279
	or	ebp, eax
	xor	ebp, esi
	mov	eax, ebp
	not	eax
	and	eax, ebx
	not	ebx
	and	ebx, ebp
	or	ebx, eax
	mov	eax, ebx
	not	eax
	and	eax, 1622712135
	and	ebx, -1622712136
	or	ebx, eax
	mov	eax, r12d
	not	eax
	and	eax, 1622712135
	and	r12d, -1622712136
	or	r12d, eax
	xor	r12d, ebx
	mov	r14, qword ptr [rsp + 64] 
	mov	rbx, qword ptr [rsp + 104] 
	mov	r10d, dword ptr [rbx + 4*r14 + 12]
	lea	eax, [r10 + r10]
	mov	r9d, eax
	xor	r9d, 16843008
	and	r9d, eax
	mov	eax, r10d
	shr	eax, 7
	mov	ecx, eax
	xor	ecx, 16711422
	and	ecx, eax
	lea	eax, [rcx + 8*rcx]
	lea	eax, [rax + 2*rax]
	mov	ecx, eax
	not	ecx
	and	ecx, 1388634942
	and	eax, 758848705
	or	eax, ecx
	mov	ecx, r9d
	not	ecx
	and	ecx, 1388634942
	and	r9d, -1388634944
	or	r9d, ecx
	xor	r9d, eax
	lea	ecx, [r9 + r9]
	mov	r11d, ecx
	xor	r11d, 16843008
	and	r11d, ecx
	mov	ecx, r9d
	shr	ecx, 7
	and	ecx, 16843009
	lea	ecx, [rcx + 8*rcx]
	lea	ecx, [rcx + 2*rcx]
	mov	edx, ecx
	not	edx
	and	edx, r11d
	not	r11d
	and	r11d, ecx
	or	r11d, edx
	lea	edx, [r11 + r11]
	mov	r15d, edx
	xor	r15d, 16843008
	and	r15d, edx
	mov	edx, r11d
	shr	edx, 7
	and	edx, 16843009
	lea	edx, [rdx + 8*rdx]
	lea	edx, [rdx + 2*rdx]
	mov	esi, edx
	not	esi
	and	esi, r15d
	not	r15d
	and	r15d, edx
	or	r15d, esi
	mov	eax, r15d
	not	eax
	mov	edx, r10d
	mov	dword ptr [rsp + 144], eax 
	and	edx, eax
	not	r10d
	and	r10d, r15d
	or	r10d, edx
	mov	r8d, r10d
	not	r8d
	mov	edx, r8d
	and	edx, -1821154104
	mov	esi, r10d
	and	esi, 1821154103
	or	esi, edx
	mov	edi, r9d
	not	edi
	mov	edx, edi
	and	edx, -1821154104
	mov	ebp, r9d
	and	ebp, 1821154103
	or	ebp, edx
	xor	ebp, esi
	mov	edx, r10d
	shl	edx, 24
	test	r13d, dword ptr [rsp + 88] 
	mov	dword ptr [rbx + 4*r14 + 8], r12d
	sete	byte ptr [rsp + 6]
	cmp	dword ptr [rsp + 92], 10 
	setl	byte ptr [rsp + 7]
	rol	ebp, 8
	mov	esi, -854964049
	mov	r13, qword ptr [rsp + 216] 
	mov	r12, qword ptr [rsp + 232] 
	jmp	.LBB16_167
.LBB16_170:                             
	movzx	ecx, byte ptr [rsp + 6]
	movzx	eax, byte ptr [rsp + 7]
	mov	ebx, ecx
	xor	bl, al
	test	al, al
	mov	esi, -901057941
	mov	r14d, -626394746
	cmovne	esi, r14d
	test	cl, cl
	mov	eax, -901057941
	cmove	esi, eax
	test	bl, bl
	cmovne	esi, r14d
	.p2align	4, 0x90
.LBB16_167:                             

	cmp	esi, -626394747
	jle	.LBB16_168

	cmp	esi, -626394746
	je	.LBB16_176

	cmp	esi, 837143518
	jne	.LBB16_167
	jmp	.LBB16_175
	.p2align	4, 0x90
.LBB16_168:                             
	cmp	esi, -901057941
	je	.LBB16_177

	cmp	esi, -854964049
	jne	.LBB16_167
	jmp	.LBB16_170
.LBB16_176:                             
	mov	dword ptr [rsp + 24], ebp
	mov	esi, dword ptr [rsp + 60] 
	jmp	.LBB16_167
.LBB16_177:                             
	mov	esi, -626394746
	jmp	.LBB16_167
.LBB16_175:                             
	mov	eax, r10d
	shr	eax, 8
	mov	ebp, eax
	not	ebp
	mov	ecx, edx
	not	ecx
	mov	esi, ebp
	and	esi, 970648248
	and	eax, 2430279
	or	eax, esi
	or	ebp, ecx
	and	ecx, 970648248
	and	edx, -970648249
	or	edx, ecx
	xor	edx, eax
	not	ebp
	or	ebp, edx
	and	r8d, -1438026944
	and	r10d, 1438026943
	or	r10d, r8d
	mov	edx, r11d
	not	edx
	and	r9d, edx
	and	edx, -1438026944
	mov	eax, r11d
	and	eax, 1438026943
	or	eax, edx
	xor	eax, r10d
	mov	edx, eax
	shl	edx, 16
	shr	eax, 16
	mov	ecx, eax
	not	ecx
	mov	esi, edx
	not	esi
	and	ecx, -141572628
	and	eax, 14867
	or	eax, ecx
	and	esi, -141572628
	and	edx, 141557760
	or	edx, esi
	xor	edx, eax
	mov	ebx, dword ptr [rsp + 24]
	and	edi, r11d
	or	edi, r9d
	mov	eax, edi
	not	eax
	and	r15d, eax
	and	edi, dword ptr [rsp + 144] 
	or	edi, r15d
	mov	eax, edi
	not	eax
	and	eax, 885844246
	and	edi, -885844247
	or	edi, eax
	mov	eax, ebp
	not	eax
	and	eax, 885844246
	and	ebp, -885844247
	or	ebp, eax
	xor	ebp, edi
	mov	eax, ebp
	not	eax
	and	eax, -1832969282
	and	ebp, 1832969281
	or	ebp, eax
	mov	eax, edx
	not	eax
	and	eax, -1832969282
	and	edx, 1832969281
	or	edx, eax
	xor	edx, ebp
	mov	eax, edx
	not	eax
	and	eax, ebx
	not	ebx
	and	ebx, edx
	or	ebx, eax
	mov	rax, qword ptr [rsp + 64] 
	mov	rcx, qword ptr [rsp + 104] 
	mov	dword ptr [rcx + 4*rax + 12], ebx
	mov	rax, qword ptr [rsp + 136]
	xor	ecx, ecx
	sub	rcx, rax
	mov	r14d, 4
	sub	r14, rcx
	mov	eax, -701538695
	mov	r15, qword ptr [rsp + 128] 
	jmp	.LBB16_1
.LBB16_139:                             
	mov	eax, dword ptr [rip + x.44]
	mov	ecx, dword ptr [rip + y.45]
	lea	edx, [rax - 1]
	imul	edx, eax
	mov	eax, edx
	xor	eax, -2
	and	eax, edx
	sete	dl
	cmp	ecx, 10
	setl	bl
	xor	bl, dl
	mov	edx, -1867435675
	mov	esi, -1205435679
.LBB16_24:                              
	cmovne	edx, esi
	test	eax, eax
	mov	eax, edx
	cmove	eax, esi
	cmp	ecx, 10
	cmovge	eax, edx
	jmp	.LBB16_1
.LBB16_112:                             
	mov	rdi, r12
	mov	rbx, qword ptr [rsp + 200] 
	mov	rsi, rbx
	call	_ZNSt6vectorIjN5Botan16secure_allocatorIjEEE6resizeEm
	mov	rdi, r13
	mov	rsi, rbx
	call	_ZNSt6vectorIjN5Botan16secure_allocatorIjEEE6resizeEm
	mov	eax, dword ptr [rip + x.44]
	mov	ecx, dword ptr [rip + y.45]
	lea	edx, [rax - 1]
	imul	edx, eax
	not	edx
	or	edx, -2
	cmp	edx, -1
	sete	al
	cmp	ecx, 10
	setl	bl
	xor	bl, al
	mov	esi, -1884008845
	mov	edi, -1120463636
	jmp	.LBB16_118
.LBB16_140:                             
	mov	qword ptr [rsp + 136], r14
	mov	rax, qword ptr [rsp + 72]
	shl	rax, 2
	mov	rcx, qword ptr [rsp + 136]
	cmp	rcx, rax
	mov	eax, -1907139055
	mov	ecx, -1378226871
	cmove	eax, ecx
	jmp	.LBB16_1
.LBB16_182:                             
	mov	eax, 1874996550
	jmp	.LBB16_1
.LBB16_178:                             
	mov	eax, -82679857
	xor	ecx, ecx
	mov	qword ptr [rsp + 176], rcx 
	jmp	.LBB16_1
.LBB16_134:                             
	mov	rax, qword ptr [rsp + 8]
	xor	r15d, r15d
	sub	r15, rax
	sub	r15, qword ptr [rsp + 16]
	neg	r15
	mov	eax, 845851276
	jmp	.LBB16_1
.LBB16_110:                             
	mov	cl, byte ptr [rsp + 29]
	mov	al, byte ptr [rsp + 28]
	mov	edx, ecx
	xor	dl, al
	mov	edx, -1571695302
	mov	esi, -585050221
	cmovne	edx, esi
	test	al, al
	mov	eax, edx
	cmovne	eax, esi
	test	cl, cl
	cmove	eax, edx
	jmp	.LBB16_1
.LBB16_181:                             
	mov	eax, dword ptr [rip + x.44]
	lea	ecx, [rax - 1]
	imul	ecx, eax
	mov	eax, ecx
	xor	eax, -2
	and	eax, ecx
	sete	cl
	test	eax, eax
	mov	eax, -1236854322
	mov	esi, 1735502592
	cmove	eax, esi
	cmp	dword ptr [rip + y.45], 10
	setl	dl
	mov	edi, -1236854322
	jmp	.LBB16_132
.LBB16_191:                             
	mov	rax, qword ptr [rsp + 8]
	mov	rax, qword ptr [rsp + 40]
	mov	eax, -386875329
	jmp	.LBB16_1
.LBB16_138:                             
	mov	rax, qword ptr [rsp + 152] 
	mov	qword ptr [rsp + 48], rax
	mov	rax, qword ptr [rsp + 224]
	mov	rcx, qword ptr [rsp + 48]
	cmp	rcx, rax
	mov	eax, 1284741152
	mov	ecx, -102321608
	cmove	eax, ecx
	jmp	.LBB16_1
.LBB16_119:                             
	mov	qword ptr [rsp + 64], r14 
	mov	r13, r15
	mov	rcx, qword ptr [rsp + 8]
	mov	rax, qword ptr [rsp + 16]
	movabs	rdx, -239575045495282869
	sub	rax, rdx
	sub	rax, rcx
	add	rax, rdx
	mov	r15, r12
	mov	rcx, qword ptr [r12]
	mov	r12d, dword ptr [rcx + 4*rax]
	xor	edx, edx
	div	qword ptr [rsp + 8]
	mov	r14d, dword ptr [4*rax + _ZZN5Botan12_GLOBAL__N_116aes_key_scheduleEPKhmRSt6vectorIjNS_16secure_allocatorIjEEES7_bE2RC]
	mov	rax, qword ptr [rsp + 16]
	mov	edi, dword ptr [rcx + 4*rax - 4]
	call	_ZN5Botan12_GLOBAL__N_17SE_wordEj
	mov	ecx, dword ptr [rip + x.182]
	mov	r8d, dword ptr [rip + y.183]
	lea	esi, [rcx - 1]
	imul	esi, ecx
	not	esi
	or	esi, -2
	mov	ecx, eax
	shl	ecx, 8
	shr	eax, 24
	mov	edi, ecx
	not	edi
	mov	ebp, eax
	not	ebp
	and	edi, -150572055
	and	ecx, 150572032
	or	ecx, edi
	and	ebp, -150572055
	and	eax, 22
	or	eax, ebp
	xor	eax, ecx
	cmp	esi, -1
	sete	sil
	sete	byte ptr [rsp + 6]
	mov	ecx, 1030781698
	mov	edi, 440541514
	cmove	ecx, edi
	cmp	r8d, 10
	setl	dl
	setl	byte ptr [rsp + 7]
	mov	ebp, 1030781698
	cmovge	ecx, ebp
	xor	dl, sil
	cmovne	ecx, edi
	mov	edx, 1991322109
	jmp	.LBB16_120
.LBB16_136:                             
	mov	edi, dword ptr [rsp + 100]
	call	_ZN5Botan12_GLOBAL__N_17SE_wordEj
	mov	dword ptr [rsp + 96], eax 
	mov	eax, -2022264981
	mov	rcx, qword ptr [rsp + 80]
	mov	qword ptr [rsp + 192], rcx 
	jmp	.LBB16_1
.LBB16_184:                             
	mov	eax, dword ptr [rip + x.44]
	mov	ecx, dword ptr [rip + y.45]
	lea	edx, [rax - 1]
	imul	edx, eax
	not	edx
	or	edx, -2
	cmp	edx, -1
	sete	al
	cmp	ecx, 10
	setl	bl
	xor	bl, al
	mov	esi, -30074308
	mov	edi, 325624734
.LBB16_118:                             
	cmovne	esi, edi
	cmp	edx, -1
	mov	eax, esi
	cmove	eax, edi
	cmp	ecx, 10
	cmovge	eax, esi
	jmp	.LBB16_1
.LBB16_126:                             
	movzx	esi, byte ptr [rsp + 6]
	movzx	edx, byte ptr [rsp + 7]
	mov	ebx, esi
	xor	bl, dl
	mov	edi, 1030781698
	mov	ebp, 1643305779
	cmovne	edi, ebp
	test	dl, dl
	mov	edx, edi
	cmovne	edx, ebp
	test	sil, sil
	cmove	edx, edi
	.p2align	4, 0x90
.LBB16_120:                             

	mov	esi, edx
	and	esi, 2147483647
	cmp	esi, 1643305778
	jg	.LBB16_124

	cmp	esi, 440541514
	je	.LBB16_128

	cmp	esi, 1030781698
	jne	.LBB16_120

	mov	edx, 1643305779
	jmp	.LBB16_120
	.p2align	4, 0x90
.LBB16_124:                             
	cmp	esi, 1643305779
	je	.LBB16_127

	cmp	esi, 1991322109
	jne	.LBB16_120
	jmp	.LBB16_126
.LBB16_127:                             
	mov	dword ptr [rsp + 24], eax
	mov	edx, ecx
	jmp	.LBB16_120
.LBB16_128:                             
	mov	eax, r14d
	not	eax
	and	eax, r12d
	not	r12d
	and	r12d, r14d
	or	r12d, eax
	mov	eax, dword ptr [rsp + 24]
	mov	ecx, r12d
	not	ecx
	and	ecx, eax
	not	eax
	and	eax, r12d
	or	eax, ecx
	mov	rcx, qword ptr [rsp + 16]
	mov	r12, r15
	mov	rdx, qword ptr [r12]
	mov	dword ptr [rdx + 4*rcx], eax
	mov	eax, dword ptr [rip + x.44]
	lea	ecx, [rax - 1]
	imul	ecx, eax
	mov	eax, ecx
	xor	eax, -2
	and	eax, ecx
	sete	cl
	test	eax, eax
	mov	eax, 1689999044
	mov	edi, -643293258
	cmove	eax, edi
	cmp	dword ptr [rip + y.45], 10
	setl	dl
	mov	esi, 1689999044
	cmovge	eax, esi
	xor	dl, cl
	cmovne	eax, edi
	mov	r15, r13
	mov	r13, qword ptr [rsp + 216] 
	mov	r14, qword ptr [rsp + 64] 
	jmp	.LBB16_1
.LBB16_19:                              
	cmp	eax, -1571695302
	jne	.LBB16_1
	jmp	.LBB16_20
.LBB16_78:                              
	cmp	eax, 746513597
	jne	.LBB16_1

	mov	edi, .L.str.9
	mov	esi, .L.str.8
	mov	edx, .L__func__._ZN5Botan12_GLOBAL__N_116aes_key_scheduleEPKhmRSt6vectorIjNS_16secure_allocatorIjEEES7_b
	mov	ecx, .L.str.5
	mov	r8d, 702
	call	_ZN5Botan17assertion_failureEPKcS1_S1_S1_i
.LBB16_185:
	add	rsp, 248
	pop	rbx
	pop	r12
	pop	r13
	pop	r14
	pop	r15
	pop	rbp
	ret
.LBB16_20:
	mov	edi, .L.str.7
	mov	esi, .L.str.8
	mov	edx, .L__func__._ZN5Botan12_GLOBAL__N_116aes_key_scheduleEPKhmRSt6vectorIjNS_16secure_allocatorIjEEES7_b
	mov	ecx, .L.str.5
	mov	r8d, 697
	call	_ZN5Botan17assertion_failureEPKcS1_S1_S1_i
.Lfunc_end16:
	.size	_ZN5Botan12_GLOBAL__N_116aes_key_scheduleEPKhmRSt6vectorIjNS_16secure_allocatorIjEEES7_b, .Lfunc_end16-_ZN5Botan12_GLOBAL__N_116aes_key_scheduleEPKhmRSt6vectorIjNS_16secure_allocatorIjEEES7_b
	.cfi_endproc

	.globl	_ZN5Botan7AES_1285clearEv 
	.p2align	4, 0x90
	.type	_ZN5Botan7AES_1285clearEv,@function
_ZN5Botan7AES_1285clearEv:              
	.cfi_startproc

	push	rbx
.Lcfi136:
	.cfi_def_cfa_offset 16
.Lcfi137:
	.cfi_offset rbx, -16
	mov	rbx, rdi
	lea	rdi, [rbx + 8]
	call	_ZN5Botan3zapIjNS_16secure_allocatorIjEEEEvRSt6vectorIT_T0_E
	add	rbx, 32
	mov	rdi, rbx
	pop	rbx
	jmp	_ZN5Botan3zapIjNS_16secure_allocatorIjEEEEvRSt6vectorIT_T0_E 
.Lfunc_end17:
	.size	_ZN5Botan7AES_1285clearEv, .Lfunc_end17-_ZN5Botan7AES_1285clearEv
	.cfi_endproc

	.section	.text._ZN5Botan3zapIjNS_16secure_allocatorIjEEEEvRSt6vectorIT_T0_E,"axG",@progbits,_ZN5Botan3zapIjNS_16secure_allocatorIjEEEEvRSt6vectorIT_T0_E,comdat
	.weak	_ZN5Botan3zapIjNS_16secure_allocatorIjEEEEvRSt6vectorIT_T0_E 
	.p2align	4, 0x90
	.type	_ZN5Botan3zapIjNS_16secure_allocatorIjEEEEvRSt6vectorIT_T0_E,@function
_ZN5Botan3zapIjNS_16secure_allocatorIjEEEEvRSt6vectorIT_T0_E: 
	.cfi_startproc

	push	rbp
.Lcfi138:
	.cfi_def_cfa_offset 16
	push	r15
.Lcfi139:
	.cfi_def_cfa_offset 24
	push	r14
.Lcfi140:
	.cfi_def_cfa_offset 32
	push	rbx
.Lcfi141:
	.cfi_def_cfa_offset 40
	push	rax
.Lcfi142:
	.cfi_def_cfa_offset 48
.Lcfi143:
	.cfi_offset rbx, -40
.Lcfi144:
	.cfi_offset r14, -32
.Lcfi145:
	.cfi_offset r15, -24
.Lcfi146:
	.cfi_offset rbp, -16
	mov	rbx, rdi
	call	_ZN5Botan7zeroiseIjNS_16secure_allocatorIjEEEEvRSt6vectorIT_T0_E
	mov	rsi, qword ptr [rbx]
	mov	rdi, rbx
	call	_ZNSt6vectorIjN5Botan16secure_allocatorIjEEE15_M_erase_at_endEPj
	mov	eax, dword ptr [rip + x.614]
	mov	ecx, eax
	neg	ecx
	not	ecx
	imul	ecx, eax
	mov	eax, ecx
	xor	eax, -2
	test	eax, ecx
	sete	byte ptr [rsp + 6]
	mov	eax, dword ptr [rip + y.615]
	cmp	eax, 10
	setl	byte ptr [rsp + 7]
	mov	eax, 428264587
	mov	r14d, 709328830
	mov	r15d, -555872775
	mov	ebp, 2059281108
	jmp	.LBB18_1
.LBB18_4:                               
	movzx	ecx, byte ptr [rsp + 6]
	movzx	eax, byte ptr [rsp + 7]
	mov	edx, ecx
	xor	dl, al
	test	al, al
	mov	eax, -555872775
	cmovne	eax, r14d
	test	cl, cl
	cmove	eax, r15d
	test	dl, dl
	cmovne	eax, r14d
	.p2align	4, 0x90
.LBB18_1:                               
	cmp	eax, 709328829
	jle	.LBB18_2

	cmp	eax, 709328830
	je	.LBB18_8

	cmp	eax, 2059281108
	jne	.LBB18_1
	jmp	.LBB18_7
	.p2align	4, 0x90
.LBB18_2:                               
	cmp	eax, -555872775
	je	.LBB18_9

	cmp	eax, 428264587
	jne	.LBB18_1
	jmp	.LBB18_4
.LBB18_8:                               
	mov	rdi, rbx
	call	_ZNSt6vectorIjN5Botan16secure_allocatorIjEEE16_M_shrink_to_fitEv
	mov	eax, dword ptr [rip + x.614]
	lea	ecx, [rax - 1]
	imul	ecx, eax
	mov	eax, ecx
	xor	eax, -2
	and	eax, ecx
	sete	cl
	test	eax, eax
	mov	eax, -555872775
	cmove	eax, ebp
	cmp	dword ptr [rip + y.615], 10
	setl	dl
	cmovge	eax, r15d
	xor	dl, cl
	cmovne	eax, ebp
	jmp	.LBB18_1
.LBB18_9:                               
	mov	rdi, rbx
	call	_ZNSt6vectorIjN5Botan16secure_allocatorIjEEE16_M_shrink_to_fitEv
	mov	eax, 709328830
	jmp	.LBB18_1
.LBB18_7:
	add	rsp, 8
	pop	rbx
	pop	r14
	pop	r15
	pop	rbp
	ret
.Lfunc_end18:
	.size	_ZN5Botan3zapIjNS_16secure_allocatorIjEEEEvRSt6vectorIT_T0_E, .Lfunc_end18-_ZN5Botan3zapIjNS_16secure_allocatorIjEEEEvRSt6vectorIT_T0_E
	.cfi_endproc

	.text
	.globl	_ZNK5Botan7AES_1929encrypt_nEPKhPhm 
	.p2align	4, 0x90
	.type	_ZNK5Botan7AES_1929encrypt_nEPKhPhm,@function
_ZNK5Botan7AES_1929encrypt_nEPKhPhm:    
	.cfi_startproc

	push	rbp
.Lcfi147:
	.cfi_def_cfa_offset 16
	push	r15
.Lcfi148:
	.cfi_def_cfa_offset 24
	push	r14
.Lcfi149:
	.cfi_def_cfa_offset 32
	push	r13
.Lcfi150:
	.cfi_def_cfa_offset 40
	push	r12
.Lcfi151:
	.cfi_def_cfa_offset 48
	push	rbx
.Lcfi152:
	.cfi_def_cfa_offset 56
	sub	rsp, 24
.Lcfi153:
	.cfi_def_cfa_offset 80
.Lcfi154:
	.cfi_offset rbx, -56
.Lcfi155:
	.cfi_offset r12, -48
.Lcfi156:
	.cfi_offset r13, -40
.Lcfi157:
	.cfi_offset r14, -32
.Lcfi158:
	.cfi_offset r15, -24
.Lcfi159:
	.cfi_offset rbp, -16
	mov	r14, rcx
	mov	r15, rdx
	mov	r12, rsi
	mov	rbp, rdi
	mov	eax, dword ptr [rip + x.52]
	mov	ecx, dword ptr [rip + y.53]
	lea	edx, [rax - 1]
	imul	edx, eax
	mov	eax, edx
	xor	eax, -2
	test	eax, edx
	sete	byte ptr [rsp + 12]
	cmp	ecx, 10
	setl	byte ptr [rsp + 13]
	lea	r13, [rbp + 8]
	mov	ecx, 1195633594
	jmp	.LBB19_1
.LBB19_27:                              
	call	_ZN5Botan5CPUID9has_ssse3Ev
	mov	ecx, 1504202969
	.p2align	4, 0x90
.LBB19_1:                               
	cmp	ecx, 1387316388
	jg	.LBB19_11

	cmp	ecx, 224424811
	jg	.LBB19_7

	cmp	ecx, -1675269323
	je	.LBB19_27

	cmp	ecx, -1623106546
	je	.LBB19_21

	cmp	ecx, -1127638344
	jne	.LBB19_1

	mov	rdi, rbp
	mov	rsi, r12
	mov	rdx, r15
	mov	rcx, r14
	call	_ZNK5Botan7AES_19215vperm_encrypt_nEPKhPhm
	mov	ecx, 1805637538
	jmp	.LBB19_1
	.p2align	4, 0x90
.LBB19_11:                              
	cmp	ecx, 1661804886
	jg	.LBB19_16

	cmp	ecx, 1387316389
	je	.LBB19_25

	cmp	ecx, 1401441476
	je	.LBB19_26

	cmp	ecx, 1504202969
	jne	.LBB19_1

	call	_ZN5Botan5CPUID9has_ssse3Ev
	mov	byte ptr [rsp + 15], al
	mov	eax, dword ptr [rip + x.52]
	lea	ecx, [rax - 1]
	imul	ecx, eax
	not	ecx
	or	ecx, -2
	cmp	ecx, -1
	sete	al
	mov	ecx, -1675269323
	mov	edi, 1885321972
	cmove	ecx, edi
	cmp	dword ptr [rip + y.53], 10
	setl	dl
	mov	esi, -1675269323
	cmovge	ecx, esi
	xor	dl, al
	cmovne	ecx, edi
	jmp	.LBB19_1
	.p2align	4, 0x90
.LBB19_7:                               
	cmp	ecx, 224424812
	je	.LBB19_23

	cmp	ecx, 443694224
	je	.LBB19_22

	cmp	ecx, 1195633594
	jne	.LBB19_1

	movzx	eax, byte ptr [rsp + 12]
	movzx	ecx, byte ptr [rsp + 13]
	mov	edx, eax
	xor	dl, cl
	mov	edx, 1401441476
	mov	esi, 1661804887
	cmovne	edx, esi
	test	cl, cl
	mov	ecx, edx
	cmovne	ecx, esi
	test	al, al
	cmove	ecx, edx
	jmp	.LBB19_1
	.p2align	4, 0x90
.LBB19_16:                              
	cmp	ecx, 1661804887
	je	.LBB19_20

	cmp	ecx, 1885321972
	je	.LBB19_24

	cmp	ecx, 1805637538
	jne	.LBB19_1
	jmp	.LBB19_19
.LBB19_21:                              
	movzx	eax, byte ptr [rsp + 14]
	test	al, al
	mov	ecx, 224424812
	mov	eax, 443694224
	cmovne	ecx, eax
	jmp	.LBB19_1
.LBB19_25:                              
	mov	rcx, qword ptr [rsp + 16]
	mov	rdi, r12
	mov	rsi, r15
	mov	rdx, r14
	call	_ZN5Botan12_GLOBAL__N_113aes_encrypt_nEPKhPhmRKSt6vectorIjNS_16secure_allocatorIjEEE
	mov	ecx, 1805637538
	jmp	.LBB19_1
.LBB19_26:                              
	mov	rax, qword ptr [rbp + 8]
	xor	esi, esi
	cmp	rax, qword ptr [rbp + 16]
	setne	sil
	mov	rdi, rbp
	call	_ZNK5Botan18SymmetricAlgorithm14verify_key_setEb
	call	_ZN5Botan5CPUID10has_aes_niEv
	mov	ecx, 1661804887
	jmp	.LBB19_1
.LBB19_23:                              
	mov	eax, dword ptr [rip + x.52]
	mov	edx, dword ptr [rip + y.53]
	mov	ecx, eax
	neg	ecx
	not	ecx
	imul	ecx, eax
	mov	eax, ecx
	xor	eax, -2
	and	eax, ecx
	sete	cl
	cmp	edx, 10
	setl	bl
	xor	bl, cl
	mov	esi, -1675269323
	mov	edi, 1504202969
	cmovne	esi, edi
	test	eax, eax
	mov	ecx, esi
	cmove	ecx, edi
	cmp	edx, 10
	cmovge	ecx, esi
	jmp	.LBB19_1
.LBB19_22:                              
	mov	rdi, rbp
	mov	rsi, r12
	mov	rdx, r15
	mov	rcx, r14
	call	_ZNK5Botan7AES_19216hw_aes_encrypt_nEPKhPhm
	mov	ecx, 1805637538
	jmp	.LBB19_1
.LBB19_20:                              
	mov	qword ptr [rsp + 16], r13
	mov	rax, qword ptr [rsp + 16]
	mov	rcx, qword ptr [rax]
	xor	esi, esi
	cmp	rcx, qword ptr [rax + 8]
	setne	sil
	mov	rdi, rbp
	call	_ZNK5Botan18SymmetricAlgorithm14verify_key_setEb
	call	_ZN5Botan5CPUID10has_aes_niEv
	mov	ecx, dword ptr [rip + x.52]
	mov	edi, dword ptr [rip + y.53]
	mov	esi, ecx
	neg	esi
	not	esi
	imul	esi, ecx
	mov	ecx, esi
	xor	ecx, -2
	and	ecx, esi
	sete	bl
	cmp	edi, 10
	setl	dl
	xor	dl, bl
	mov	edx, 1401441476
	mov	esi, -1623106546
	cmovne	edx, esi
	test	ecx, ecx
	mov	ecx, edx
	cmove	ecx, esi
	cmp	edi, 10
	mov	byte ptr [rsp + 14], al
	cmovge	ecx, edx
	jmp	.LBB19_1
.LBB19_24:                              
	movzx	eax, byte ptr [rsp + 15]
	test	al, al
	mov	ecx, 1387316389
	mov	eax, -1127638344
	cmovne	ecx, eax
	jmp	.LBB19_1
.LBB19_19:
	add	rsp, 24
	pop	rbx
	pop	r12
	pop	r13
	pop	r14
	pop	r15
	pop	rbp
	ret
.Lfunc_end19:
	.size	_ZNK5Botan7AES_1929encrypt_nEPKhPhm, .Lfunc_end19-_ZNK5Botan7AES_1929encrypt_nEPKhPhm
	.cfi_endproc

	.globl	_ZNK5Botan7AES_1929decrypt_nEPKhPhm 
	.p2align	4, 0x90
	.type	_ZNK5Botan7AES_1929decrypt_nEPKhPhm,@function
_ZNK5Botan7AES_1929decrypt_nEPKhPhm:    
	.cfi_startproc

	push	rbp
.Lcfi160:
	.cfi_def_cfa_offset 16
	push	r15
.Lcfi161:
	.cfi_def_cfa_offset 24
	push	r14
.Lcfi162:
	.cfi_def_cfa_offset 32
	push	r13
.Lcfi163:
	.cfi_def_cfa_offset 40
	push	r12
.Lcfi164:
	.cfi_def_cfa_offset 48
	push	rbx
.Lcfi165:
	.cfi_def_cfa_offset 56
	push	rax
.Lcfi166:
	.cfi_def_cfa_offset 64
.Lcfi167:
	.cfi_offset rbx, -56
.Lcfi168:
	.cfi_offset r12, -48
.Lcfi169:
	.cfi_offset r13, -40
.Lcfi170:
	.cfi_offset r14, -32
.Lcfi171:
	.cfi_offset r15, -24
.Lcfi172:
	.cfi_offset rbp, -16
	mov	r14, rcx
	mov	r15, rdx
	mov	r13, rsi
	mov	r12, rdi
	lea	rax, [r12 + 32]
	mov	qword ptr [rsp], rax
	mov	rax, qword ptr [rsp]
	mov	rcx, qword ptr [rax]
	xor	esi, esi
	cmp	rcx, qword ptr [rax + 8]
	setne	sil
	call	_ZNK5Botan18SymmetricAlgorithm14verify_key_setEb
	mov	eax, 1655411356
	mov	ebp, 1193418507
	jmp	.LBB20_1
.LBB20_22:                              
	cmp	ecx, 10
	cmovl	eax, esi
	.p2align	4, 0x90
.LBB20_1:                               
	cmp	eax, 1098797410
	jg	.LBB20_10

	cmp	eax, 532842578
	jg	.LBB20_7

	cmp	eax, -2093801311
	je	.LBB20_18

	cmp	eax, 119250004
	je	.LBB20_23

	cmp	eax, -2090151910
	jne	.LBB20_1
	jmp	.LBB20_6
	.p2align	4, 0x90
.LBB20_10:                              
	cmp	eax, 1655411355
	jg	.LBB20_14

	cmp	eax, 1098797411
	je	.LBB20_25

	cmp	eax, 1193418507
	jne	.LBB20_1

	mov	rdi, r12
	mov	rsi, r13
	mov	rdx, r15
	mov	rcx, r14
	call	_ZNK5Botan7AES_19216hw_aes_decrypt_nEPKhPhm
	mov	eax, -2090151910
	jmp	.LBB20_1
	.p2align	4, 0x90
.LBB20_7:                               
	cmp	eax, 532842579
	je	.LBB20_24

	cmp	eax, 789152184
	jne	.LBB20_1

	call	_ZN5Botan5CPUID9has_ssse3Ev
	test	al, al
	mov	eax, -2093801311
	mov	ecx, 1757903424
	cmovne	eax, ecx
	jmp	.LBB20_1
	.p2align	4, 0x90
.LBB20_14:                              
	cmp	eax, 1757903424
	je	.LBB20_17

	cmp	eax, 1655411356
	jne	.LBB20_1

	call	_ZN5Botan5CPUID10has_aes_niEv
	test	al, al
	mov	eax, 789152184
	cmovne	eax, ebp
	jmp	.LBB20_1
.LBB20_18:                              
	mov	eax, dword ptr [rip + x.54]
	mov	ecx, dword ptr [rip + y.55]
	mov	esi, eax
	neg	esi
	not	esi
	imul	esi, eax
	mov	edx, esi
	xor	edx, -2
	and	edx, esi
	sete	al
	cmp	ecx, 10
	setl	bl
	xor	bl, al
	mov	esi, 119250004
	mov	eax, 119250004
	jne	.LBB20_20
.LBB20_19:                              
	mov	eax, 1098797411
.LBB20_20:                              
	test	edx, edx
	je	.LBB20_22

	mov	esi, eax
	jmp	.LBB20_22
.LBB20_23:                              
	mov	rcx, qword ptr [rsp]
	mov	rdi, r13
	mov	rsi, r15
	mov	rdx, r14
	call	_ZN5Botan12_GLOBAL__N_113aes_decrypt_nEPKhPhmRKSt6vectorIjNS_16secure_allocatorIjEEE
	mov	eax, dword ptr [rip + x.54]
	mov	ecx, dword ptr [rip + y.55]
	lea	esi, [rax - 1]
	imul	esi, eax
	mov	edx, esi
	xor	edx, -2
	and	edx, esi
	sete	al
	cmp	ecx, 10
	setl	bl
	xor	bl, al
	mov	esi, 532842579
	mov	eax, 532842579
	je	.LBB20_19
	jmp	.LBB20_20
.LBB20_25:                              
	mov	rcx, qword ptr [rsp]
	mov	rdi, r13
	mov	rsi, r15
	mov	rdx, r14
	call	_ZN5Botan12_GLOBAL__N_113aes_decrypt_nEPKhPhmRKSt6vectorIjNS_16secure_allocatorIjEEE
	mov	eax, 119250004
	jmp	.LBB20_1
.LBB20_24:                              
	mov	eax, -2090151910
	jmp	.LBB20_1
.LBB20_17:                              
	mov	rdi, r12
	mov	rsi, r13
	mov	rdx, r15
	mov	rcx, r14
	call	_ZNK5Botan7AES_19215vperm_decrypt_nEPKhPhm
	mov	eax, -2090151910
	jmp	.LBB20_1
.LBB20_6:
	add	rsp, 8
	pop	rbx
	pop	r12
	pop	r13
	pop	r14
	pop	r15
	pop	rbp
	ret
.Lfunc_end20:
	.size	_ZNK5Botan7AES_1929decrypt_nEPKhPhm, .Lfunc_end20-_ZNK5Botan7AES_1929decrypt_nEPKhPhm
	.cfi_endproc

	.globl	_ZN5Botan7AES_19212key_scheduleEPKhm 
	.p2align	4, 0x90
	.type	_ZN5Botan7AES_19212key_scheduleEPKhm,@function
_ZN5Botan7AES_19212key_scheduleEPKhm:   
	.cfi_startproc

	push	rbp
.Lcfi173:
	.cfi_def_cfa_offset 16
	push	r15
.Lcfi174:
	.cfi_def_cfa_offset 24
	push	r14
.Lcfi175:
	.cfi_def_cfa_offset 32
	push	r13
.Lcfi176:
	.cfi_def_cfa_offset 40
	push	r12
.Lcfi177:
	.cfi_def_cfa_offset 48
	push	rbx
.Lcfi178:
	.cfi_def_cfa_offset 56
	push	rax
.Lcfi179:
	.cfi_def_cfa_offset 64
.Lcfi180:
	.cfi_offset rbx, -56
.Lcfi181:
	.cfi_offset r12, -48
.Lcfi182:
	.cfi_offset r13, -40
.Lcfi183:
	.cfi_offset r14, -32
.Lcfi184:
	.cfi_offset r15, -24
.Lcfi185:
	.cfi_offset rbp, -16
	mov	r14, rdx
	mov	rbp, rsi
	mov	r15, rdi
	lea	r12, [r15 + 8]
	lea	r13, [r15 + 32]
	mov	ecx, 543638168
	jmp	.LBB21_1
.LBB21_36:                              
	cmovge	ecx, esi
	xor	dl, al
	cmovne	ecx, edi
	.p2align	4, 0x90
.LBB21_1:                               


	cmp	ecx, -632243782
	jle	.LBB21_2

	cmp	ecx, 543638167
	jg	.LBB21_32

	cmp	ecx, -85463760
	jle	.LBB21_21

	cmp	ecx, -85463759
	je	.LBB21_53

	cmp	ecx, 118855922
	je	.LBB21_43

	cmp	ecx, 327668964
	jne	.LBB21_1

	mov	rdi, r15
	mov	rsi, rbp
	mov	rdx, r14
	call	_ZN5Botan7AES_19218aesni_key_scheduleEPKhm
	mov	ecx, -1887358533
	jmp	.LBB21_1
	.p2align	4, 0x90
.LBB21_2:                               
	cmp	ecx, -1049501455
	jle	.LBB21_3

	cmp	ecx, -970161302
	jle	.LBB21_12

	cmp	ecx, -970161301
	je	.LBB21_50

	cmp	ecx, -865558338
	je	.LBB21_51

	cmp	ecx, -837505620
	jne	.LBB21_1

	mov	eax, dword ptr [rip + x.56]
	lea	ecx, [rax - 1]
	imul	ecx, eax
	not	ecx
	or	ecx, -2
	cmp	ecx, -1
	sete	al
	mov	ecx, -1306989465
	mov	edi, -1198598353
	cmove	ecx, edi
	cmp	dword ptr [rip + y.57], 10
	setl	dl
	mov	esi, -1306989465
	jmp	.LBB21_36
	.p2align	4, 0x90
.LBB21_32:                              
	cmp	ecx, 944633212
	jle	.LBB21_33

	cmp	ecx, 944633213
	je	.LBB21_65

	cmp	ecx, 1731694295
	je	.LBB21_49

	cmp	ecx, 2062089621
	jne	.LBB21_1

	xor	r8d, r8d
	mov	rdi, rbp
	mov	rsi, r14
	mov	rdx, r12
	mov	rcx, r13
	call	_ZN5Botan12_GLOBAL__N_116aes_key_scheduleEPKhmRSt6vectorIjNS_16secure_allocatorIjEEES7_b
	mov	ecx, -997439523
	jmp	.LBB21_1
	.p2align	4, 0x90
.LBB21_3:                               
	cmp	ecx, -1306989466
	jle	.LBB21_4

	cmp	ecx, -1306989465
	je	.LBB21_66

	cmp	ecx, -1194861601
	je	.LBB21_52

	cmp	ecx, -1198598353
	jne	.LBB21_1
	jmp	.LBB21_10
.LBB21_21:                              
	cmp	ecx, -632243781
	je	.LBB21_42

	cmp	ecx, -304564365
	jne	.LBB21_1

	mov	eax, dword ptr [rip + x.46]
	mov	ecx, dword ptr [rip + y.47]
	lea	edx, [rax - 1]
	imul	edx, eax
	mov	eax, edx
	xor	eax, -2
	and	eax, edx
	sete	byte ptr [rsp + 4]
	sete	dl
	test	eax, eax
	mov	eax, 2334080
	mov	esi, 2006162322
	cmove	eax, esi
	cmp	ecx, 10
	setl	cl
	setl	byte ptr [rsp + 5]
	mov	edi, 2334080
	cmovge	eax, edi
	xor	cl, dl
	cmovne	eax, esi
	mov	ecx, -740039775
	jmp	.LBB21_24
.LBB21_12:                              
	cmp	ecx, -1049501454
	je	.LBB21_55

	cmp	ecx, -997439523
	jne	.LBB21_1

	xor	r8d, r8d
	mov	rdi, rbp
	mov	rsi, r14
	mov	rdx, r12
	mov	rcx, r13
	call	_ZN5Botan12_GLOBAL__N_116aes_key_scheduleEPKhmRSt6vectorIjNS_16secure_allocatorIjEEES7_b
	mov	eax, dword ptr [rip + x.56]
	mov	edx, dword ptr [rip + y.57]
	lea	ecx, [rax - 1]
	imul	ecx, eax
	not	ecx
	or	ecx, -2
	cmp	ecx, -1
	sete	al
	cmp	edx, 10
	setl	bl
	xor	bl, al
	mov	eax, 2062089621
	mov	esi, -1550476253
	cmovne	eax, esi
	cmp	ecx, -1
	mov	ecx, eax
	cmove	ecx, esi
	cmp	edx, 10
	cmovge	ecx, eax
	jmp	.LBB21_1
.LBB21_33:                              
	cmp	ecx, 543638168
	je	.LBB21_41

	cmp	ecx, 650820914
	jne	.LBB21_1

	mov	eax, dword ptr [rip + x.56]
	lea	ecx, [rax - 1]
	imul	ecx, eax
	not	ecx
	or	ecx, -2
	cmp	ecx, -1
	sete	al
	mov	ecx, 944633213
	mov	edi, -970161301
	cmove	ecx, edi
	cmp	dword ptr [rip + y.57], 10
	setl	dl
	mov	esi, 944633213
	jmp	.LBB21_36
.LBB21_4:                               
	cmp	ecx, -1887358533
	je	.LBB21_54

	cmp	ecx, -1550476253
	jne	.LBB21_1

	mov	ecx, -1887358533
	jmp	.LBB21_1
.LBB21_53:                              
	mov	eax, dword ptr [rip + x.56]
	mov	edx, dword ptr [rip + y.57]
	mov	ecx, eax
	neg	ecx
	not	ecx
	imul	ecx, eax
	mov	eax, ecx
	xor	eax, -2
	and	eax, ecx
	sete	cl
	cmp	edx, 10
	setl	bl
	xor	bl, cl
	mov	esi, 2062089621
	mov	edi, -997439523
	cmovne	esi, edi
	test	eax, eax
	mov	ecx, esi
	cmove	ecx, edi
	cmp	edx, 10
	cmovge	ecx, esi
	jmp	.LBB21_1
.LBB21_43:                              
	mov	eax, dword ptr [rip + x.56]
	mov	ecx, eax
	neg	ecx
	not	ecx
	imul	ecx, eax
	mov	eax, ecx
	xor	eax, -2
	and	eax, ecx
	sete	dl
	test	eax, eax
	mov	ecx, -1049501454
	mov	edi, -304564365
	cmove	ecx, edi
	cmp	dword ptr [rip + y.57], 10
	setl	al
	mov	esi, -1049501454
	cmovge	ecx, esi
	xor	al, dl
	cmovne	ecx, edi
	jmp	.LBB21_1
.LBB21_50:                              
	call	_ZN5Botan5CPUID9has_ssse3Ev
	mov	ecx, dword ptr [rip + x.56]
	mov	edx, dword ptr [rip + y.57]
	lea	esi, [rcx - 1]
	imul	esi, ecx
	not	esi
	or	esi, -2
	cmp	esi, -1
	sete	cl
	cmp	edx, 10
	setl	bl
	xor	bl, cl
	mov	edi, 944633213
	mov	ebx, -865558338
	cmovne	edi, ebx
	cmp	esi, -1
	mov	ecx, edi
	cmove	ecx, ebx
	cmp	edx, 10
	mov	byte ptr [rsp + 3], al
	cmovge	ecx, edi
	jmp	.LBB21_1
.LBB21_51:                              
	mov	al, byte ptr [rsp + 3]
	test	al, al
	mov	ecx, -85463759
	mov	eax, -1194861601
	cmovne	ecx, eax
	jmp	.LBB21_1
.LBB21_65:                              
	call	_ZN5Botan5CPUID9has_ssse3Ev
	mov	ecx, -970161301
	jmp	.LBB21_1
.LBB21_49:                              
	mov	ecx, -1887358533
	jmp	.LBB21_1
.LBB21_66:                              
	mov	ecx, -837505620
	jmp	.LBB21_1
.LBB21_52:                              
	mov	rdi, r15
	mov	rsi, rbp
	mov	rdx, r14
	call	_ZN5Botan7AES_19218vperm_key_scheduleEPKhm
	mov	ecx, -1887358533
	jmp	.LBB21_1
.LBB21_42:                              
	call	_ZN5Botan5CPUID10has_aes_niEv
	test	al, al
	mov	ecx, 650820914
	mov	eax, 118855922
	cmovne	ecx, eax
	jmp	.LBB21_1
.LBB21_46:                              
	mov	ecx, eax
	.p2align	4, 0x90
.LBB21_24:                              

	cmp	ecx, 2006162321
	jg	.LBB21_44

	cmp	ecx, -740039775
	je	.LBB21_47

	cmp	ecx, 2334080
	jne	.LBB21_24

	mov	ecx, 2040709380
	jmp	.LBB21_24
	.p2align	4, 0x90
.LBB21_44:                              
	cmp	ecx, 2006162322
	je	.LBB21_48

	cmp	ecx, 2040709380
	jne	.LBB21_24
	jmp	.LBB21_46
.LBB21_47:                              
	movzx	ebx, byte ptr [rsp + 4]
	movzx	ecx, byte ptr [rsp + 5]
	mov	edx, ebx
	xor	dl, cl
	mov	edx, 2334080
	mov	esi, 2040709380
	cmovne	edx, esi
	test	cl, cl
	mov	ecx, edx
	cmovne	ecx, esi
	test	bl, bl
	cmove	ecx, edx
	jmp	.LBB21_24
.LBB21_55:                              
	mov	eax, dword ptr [rip + x.46]
	mov	ecx, dword ptr [rip + y.47]
	lea	edx, [rax - 1]
	imul	edx, eax
	not	edx
	or	edx, -2
	cmp	edx, -1
	sete	al
	cmp	ecx, 10
	setl	bl
	xor	bl, al
	mov	esi, 2334080
	mov	edi, 2006162322
	cmovne	esi, edi
	cmp	edx, -1
	sete	byte ptr [rsp + 6]
	mov	eax, esi
	cmove	eax, edi
	cmp	ecx, 10
	setl	byte ptr [rsp + 7]
	cmovge	eax, esi
	mov	ecx, -740039775
	jmp	.LBB21_56
.LBB21_41:                              
	call	_ZN5Botan5CPUID10has_aes_niEv
	test	al, al
	mov	ecx, -632243781
	mov	eax, 327668964
	cmovne	ecx, eax
	jmp	.LBB21_1
.LBB21_54:                              
	mov	eax, dword ptr [rip + x.56]
	lea	ecx, [rax - 1]
	imul	ecx, eax
	not	ecx
	or	ecx, -2
	cmp	ecx, -1
	sete	al
	mov	ecx, -1306989465
	mov	esi, -837505620
	cmove	ecx, esi
	cmp	dword ptr [rip + y.57], 10
	setl	dl
	mov	edi, -1306989465
	cmovge	ecx, edi
	xor	dl, al
	cmovne	ecx, esi
	jmp	.LBB21_1
.LBB21_48:                              
	mov	r8d, 1
	mov	rdi, rbp
	mov	rsi, r14
	mov	rdx, r12
	mov	rcx, r13
	call	_ZN5Botan12_GLOBAL__N_116aes_key_scheduleEPKhmRSt6vectorIjNS_16secure_allocatorIjEEES7_b
	mov	eax, dword ptr [rip + x.56]
	mov	ecx, eax
	neg	ecx
	not	ecx
	imul	ecx, eax
	mov	eax, ecx
	xor	eax, -2
	and	eax, ecx
	sete	dl
	test	eax, eax
	mov	ecx, -1049501454
	mov	esi, 1731694295
	cmove	ecx, esi
	cmp	dword ptr [rip + y.57], 10
	setl	al
	mov	edi, -1049501454
	cmovge	ecx, edi
	xor	al, dl
	cmovne	ecx, esi
	jmp	.LBB21_1
.LBB21_62:                              
	mov	ecx, eax
	.p2align	4, 0x90
.LBB21_56:                              

	cmp	ecx, 2006162321
	jg	.LBB21_60

	cmp	ecx, -740039775
	je	.LBB21_63

	cmp	ecx, 2334080
	jne	.LBB21_56

	mov	ecx, 2040709380
	jmp	.LBB21_56
	.p2align	4, 0x90
.LBB21_60:                              
	cmp	ecx, 2006162322
	je	.LBB21_64

	cmp	ecx, 2040709380
	jne	.LBB21_56
	jmp	.LBB21_62
.LBB21_63:                              
	movzx	ebx, byte ptr [rsp + 6]
	movzx	ecx, byte ptr [rsp + 7]
	mov	edx, ebx
	xor	dl, cl
	mov	edx, 2334080
	mov	esi, 2040709380
	cmovne	edx, esi
	test	cl, cl
	mov	ecx, edx
	cmovne	ecx, esi
	test	bl, bl
	cmove	ecx, edx
	jmp	.LBB21_56
.LBB21_64:                              
	mov	r8d, 1
	mov	rdi, rbp
	mov	rsi, r14
	mov	rdx, r12
	mov	rcx, r13
	call	_ZN5Botan12_GLOBAL__N_116aes_key_scheduleEPKhmRSt6vectorIjNS_16secure_allocatorIjEEES7_b
	mov	ecx, -304564365
	jmp	.LBB21_1
.LBB21_10:
	add	rsp, 8
	pop	rbx
	pop	r12
	pop	r13
	pop	r14
	pop	r15
	pop	rbp
	ret
.Lfunc_end21:
	.size	_ZN5Botan7AES_19212key_scheduleEPKhm, .Lfunc_end21-_ZN5Botan7AES_19212key_scheduleEPKhm
	.cfi_endproc

	.globl	_ZN5Botan7AES_1925clearEv 
	.p2align	4, 0x90
	.type	_ZN5Botan7AES_1925clearEv,@function
_ZN5Botan7AES_1925clearEv:              
	.cfi_startproc

	push	rbx
.Lcfi186:
	.cfi_def_cfa_offset 16
.Lcfi187:
	.cfi_offset rbx, -16
	mov	rbx, rdi
	lea	rdi, [rbx + 8]
	call	_ZN5Botan3zapIjNS_16secure_allocatorIjEEEEvRSt6vectorIT_T0_E
	add	rbx, 32
	mov	rdi, rbx
	pop	rbx
	jmp	_ZN5Botan3zapIjNS_16secure_allocatorIjEEEEvRSt6vectorIT_T0_E 
.Lfunc_end22:
	.size	_ZN5Botan7AES_1925clearEv, .Lfunc_end22-_ZN5Botan7AES_1925clearEv
	.cfi_endproc

	.globl	_ZNK5Botan7AES_2569encrypt_nEPKhPhm 
	.p2align	4, 0x90
	.type	_ZNK5Botan7AES_2569encrypt_nEPKhPhm,@function
_ZNK5Botan7AES_2569encrypt_nEPKhPhm:    
	.cfi_startproc

	push	rbp
.Lcfi188:
	.cfi_def_cfa_offset 16
	push	r15
.Lcfi189:
	.cfi_def_cfa_offset 24
	push	r14
.Lcfi190:
	.cfi_def_cfa_offset 32
	push	r13
.Lcfi191:
	.cfi_def_cfa_offset 40
	push	r12
.Lcfi192:
	.cfi_def_cfa_offset 48
	push	rbx
.Lcfi193:
	.cfi_def_cfa_offset 56
	push	rax
.Lcfi194:
	.cfi_def_cfa_offset 64
.Lcfi195:
	.cfi_offset rbx, -56
.Lcfi196:
	.cfi_offset r12, -48
.Lcfi197:
	.cfi_offset r13, -40
.Lcfi198:
	.cfi_offset r14, -32
.Lcfi199:
	.cfi_offset r15, -24
.Lcfi200:
	.cfi_offset rbp, -16
	mov	r14, rcx
	mov	r15, rdx
	mov	r13, rsi
	mov	r12, rdi
	lea	rax, [r12 + 8]
	mov	qword ptr [rsp], rax
	mov	rax, qword ptr [rsp]
	mov	rcx, qword ptr [rax]
	xor	esi, esi
	cmp	rcx, qword ptr [rax + 8]
	setne	sil
	call	_ZNK5Botan18SymmetricAlgorithm14verify_key_setEb
	mov	eax, -1401445598
	mov	ebp, -1920106158
	jmp	.LBB23_1
.LBB23_54:                              
	mov	rcx, qword ptr [rsp]
	mov	rdi, r13
	mov	rsi, r15
	mov	rdx, r14
	call	_ZN5Botan12_GLOBAL__N_113aes_encrypt_nEPKhPhmRKSt6vectorIjNS_16secure_allocatorIjEEE
	mov	eax, 1916576002
	.p2align	4, 0x90
.LBB23_1:                               
	cmp	eax, -375440656
	jle	.LBB23_2

	cmp	eax, 405406250
	jg	.LBB23_28

	cmp	eax, 130032305
	jg	.LBB23_22

	cmp	eax, -375440655
	je	.LBB23_54

	cmp	eax, -114591598
	jne	.LBB23_1

	mov	rdi, r12
	mov	rsi, r13
	mov	rdx, r15
	mov	rcx, r14
	call	_ZNK5Botan7AES_25616hw_aes_encrypt_nEPKhPhm
	mov	eax, 320048232
	jmp	.LBB23_1
	.p2align	4, 0x90
.LBB23_2:                               
	cmp	eax, -1541093657
	jle	.LBB23_3

	cmp	eax, -847156454
	jg	.LBB23_14

	cmp	eax, -1541093656
	je	.LBB23_42

	cmp	eax, -1401445598
	jne	.LBB23_1

	call	_ZN5Botan5CPUID10has_aes_niEv
	test	al, al
	mov	eax, -1541093656
	cmovne	eax, ebp
	jmp	.LBB23_1
	.p2align	4, 0x90
.LBB23_28:                              
	cmp	eax, 1353066789
	jg	.LBB23_34

	cmp	eax, 405406251
	je	.LBB23_43

	cmp	eax, 544938302
	jne	.LBB23_1

	mov	rdi, r12
	mov	rsi, r13
	mov	rdx, r15
	mov	rcx, r14
	call	_ZNK5Botan7AES_25615vperm_encrypt_nEPKhPhm
	mov	eax, dword ptr [rip + x.60]
	mov	ecx, dword ptr [rip + y.61]
	lea	edx, [rax - 1]
	imul	edx, eax
	not	edx
	or	edx, -2
	cmp	edx, -1
	sete	al
	cmp	ecx, 10
	setl	bl
	xor	bl, al
	mov	eax, -658569211
	mov	esi, -658569211
	jne	.LBB23_33

	mov	esi, -2142800781
.LBB23_33:                              
	cmp	edx, -1
	cmovne	eax, esi
	cmp	ecx, 10
	cmovge	eax, esi
	jmp	.LBB23_1
	.p2align	4, 0x90
.LBB23_3:                               
	cmp	eax, -2142800781
	je	.LBB23_53

	cmp	eax, -1920106158
	je	.LBB23_37

	cmp	eax, -1609759874
	jne	.LBB23_1

	mov	eax, dword ptr [rip + x.60]
	mov	ecx, dword ptr [rip + y.61]
	lea	edx, [rax - 1]
	imul	edx, eax
	not	edx
	or	edx, -2
	cmp	edx, -1
	sete	bl
	mov	eax, 1916576002
	mov	edx, -375440655
	mov	esi, 1916576002
	je	.LBB23_8

	mov	esi, -375440655
.LBB23_8:                               
	cmp	ecx, 10
	setl	cl
	cmovl	edx, esi
	xor	cl, bl
	jne	.LBB23_1

	mov	eax, edx
	jmp	.LBB23_1
.LBB23_22:                              
	cmp	eax, 130032306
	je	.LBB23_41

	cmp	eax, 320048232
	jne	.LBB23_1

	mov	rdi, r12
	mov	rsi, r13
	mov	rdx, r15
	mov	rcx, r14
	call	_ZNK5Botan7AES_25616hw_aes_encrypt_nEPKhPhm
	mov	eax, dword ptr [rip + x.60]
	mov	ecx, dword ptr [rip + y.61]
	lea	edx, [rax - 1]
	imul	edx, eax
	mov	eax, edx
	xor	eax, -2
	and	eax, edx
	sete	bl
	test	eax, eax
	mov	eax, 130032306
	mov	edx, -114591598
	mov	esi, 130032306
	je	.LBB23_26

	mov	esi, -114591598
.LBB23_26:                              
	cmp	ecx, 10
	setl	cl
	cmovl	edx, esi
	xor	cl, bl
	jne	.LBB23_1

	mov	eax, edx
	jmp	.LBB23_1
.LBB23_14:                              
	cmp	eax, -847156453
	je	.LBB23_52

	cmp	eax, -658569211
	jne	.LBB23_1

	mov	eax, 1353066790
	jmp	.LBB23_1
.LBB23_34:                              
	cmp	eax, 1916576002
	je	.LBB23_48

	cmp	eax, 1353066790
	jne	.LBB23_1
	jmp	.LBB23_36
.LBB23_42:                              
	call	_ZN5Botan5CPUID9has_ssse3Ev
	test	al, al
	mov	eax, -1609759874
	mov	ecx, 405406251
	cmovne	eax, ecx
	jmp	.LBB23_1
.LBB23_43:                              
	mov	eax, dword ptr [rip + x.60]
	mov	ecx, dword ptr [rip + y.61]
	lea	esi, [rax - 1]
	imul	esi, eax
	mov	edx, esi
	xor	edx, -2
	and	edx, esi
	sete	al
	cmp	ecx, 10
	setl	bl
	xor	bl, al
	mov	esi, 544938302
	mov	eax, 544938302
	jne	.LBB23_45

	mov	eax, -2142800781
.LBB23_45:                              
	test	edx, edx
	je	.LBB23_47

	mov	esi, eax
.LBB23_47:                              
	cmp	ecx, 10
	cmovl	eax, esi
	jmp	.LBB23_1
.LBB23_53:                              
	mov	rdi, r12
	mov	rsi, r13
	mov	rdx, r15
	mov	rcx, r14
	call	_ZNK5Botan7AES_25615vperm_encrypt_nEPKhPhm
	mov	eax, 544938302
	jmp	.LBB23_1
.LBB23_37:                              
	mov	eax, dword ptr [rip + x.60]
	mov	ecx, dword ptr [rip + y.61]
	mov	edx, eax
	neg	edx
	not	edx
	imul	edx, eax
	not	edx
	or	edx, -2
	cmp	edx, -1
	sete	bl
	mov	eax, 320048232
	mov	edx, -114591598
	mov	esi, 320048232
	je	.LBB23_39

	mov	esi, -114591598
.LBB23_39:                              
	cmp	ecx, 10
	setl	cl
	cmovl	edx, esi
	xor	cl, bl
	jne	.LBB23_1

	mov	eax, edx
	jmp	.LBB23_1
.LBB23_41:                              
	mov	eax, 1353066790
	jmp	.LBB23_1
.LBB23_52:                              
	mov	eax, 1353066790
	jmp	.LBB23_1
.LBB23_48:                              
	mov	rcx, qword ptr [rsp]
	mov	rdi, r13
	mov	rsi, r15
	mov	rdx, r14
	call	_ZN5Botan12_GLOBAL__N_113aes_encrypt_nEPKhPhmRKSt6vectorIjNS_16secure_allocatorIjEEE
	mov	eax, dword ptr [rip + x.60]
	mov	ecx, dword ptr [rip + y.61]
	lea	edx, [rax - 1]
	imul	edx, eax
	not	edx
	or	edx, -2
	cmp	edx, -1
	sete	bl
	mov	eax, -847156453
	mov	edx, -375440655
	mov	esi, -847156453
	je	.LBB23_50

	mov	esi, -375440655
.LBB23_50:                              
	cmp	ecx, 10
	setl	cl
	cmovl	edx, esi
	xor	cl, bl
	jne	.LBB23_1

	mov	eax, edx
	jmp	.LBB23_1
.LBB23_36:
	add	rsp, 8
	pop	rbx
	pop	r12
	pop	r13
	pop	r14
	pop	r15
	pop	rbp
	ret
.Lfunc_end23:
	.size	_ZNK5Botan7AES_2569encrypt_nEPKhPhm, .Lfunc_end23-_ZNK5Botan7AES_2569encrypt_nEPKhPhm
	.cfi_endproc

	.globl	_ZNK5Botan7AES_2569decrypt_nEPKhPhm 
	.p2align	4, 0x90
	.type	_ZNK5Botan7AES_2569decrypt_nEPKhPhm,@function
_ZNK5Botan7AES_2569decrypt_nEPKhPhm:    
	.cfi_startproc

	push	rbp
.Lcfi201:
	.cfi_def_cfa_offset 16
	push	r15
.Lcfi202:
	.cfi_def_cfa_offset 24
	push	r14
.Lcfi203:
	.cfi_def_cfa_offset 32
	push	r13
.Lcfi204:
	.cfi_def_cfa_offset 40
	push	r12
.Lcfi205:
	.cfi_def_cfa_offset 48
	push	rbx
.Lcfi206:
	.cfi_def_cfa_offset 56
	sub	rsp, 24
.Lcfi207:
	.cfi_def_cfa_offset 80
.Lcfi208:
	.cfi_offset rbx, -56
.Lcfi209:
	.cfi_offset r12, -48
.Lcfi210:
	.cfi_offset r13, -40
.Lcfi211:
	.cfi_offset r14, -32
.Lcfi212:
	.cfi_offset r15, -24
.Lcfi213:
	.cfi_offset rbp, -16
	mov	eax, dword ptr [rip + x.62]
	lea	ebp, [rax - 1]
	imul	ebp, eax
	mov	eax, ebp
	xor	eax, -2
	test	eax, ebp
	sete	byte ptr [rsp + 13]
	mov	eax, dword ptr [rip + y.63]
	cmp	eax, 10
	setl	byte ptr [rsp + 14]
	mov	r14, rcx
	mov	r15, rdx
	mov	r12, rsi
	mov	rbp, rdi
	lea	r13, [rbp + 32]
	mov	ecx, 1579874328
	jmp	.LBB24_1
.LBB24_20:                              
	mov	rax, qword ptr [rbp + 32]
	xor	esi, esi
	cmp	rax, qword ptr [rbp + 40]
	setne	sil
	mov	rdi, rbp
	call	_ZNK5Botan18SymmetricAlgorithm14verify_key_setEb
	call	_ZN5Botan5CPUID10has_aes_niEv
	mov	ecx, -335353925
	.p2align	4, 0x90
.LBB24_1:                               
	cmp	ecx, 1253357841
	jg	.LBB24_10

	cmp	ecx, -856724542
	jle	.LBB24_3

	cmp	ecx, -335353925
	je	.LBB24_21

	cmp	ecx, -282664455
	je	.LBB24_17

	cmp	ecx, -856724541
	jne	.LBB24_1
	jmp	.LBB24_9
	.p2align	4, 0x90
.LBB24_10:                              
	cmp	ecx, 1945039977
	jg	.LBB24_14

	cmp	ecx, 1253357842
	je	.LBB24_18

	cmp	ecx, 1579874328
	jne	.LBB24_1

	movzx	eax, byte ptr [rsp + 13]
	movzx	ecx, byte ptr [rsp + 14]
	mov	edx, eax
	xor	dl, cl
	test	cl, cl
	mov	ecx, 1945039978
	mov	esi, -335353925
	cmovne	ecx, esi
	test	al, al
	mov	eax, 1945039978
	cmove	ecx, eax
	test	dl, dl
	cmovne	ecx, esi
	jmp	.LBB24_1
	.p2align	4, 0x90
.LBB24_3:                               
	cmp	ecx, -1160666825
	je	.LBB24_19

	cmp	ecx, -1098549562
	jne	.LBB24_1

	mov	rdi, rbp
	mov	rsi, r12
	mov	rdx, r15
	mov	rcx, r14
	call	_ZNK5Botan7AES_25616hw_aes_decrypt_nEPKhPhm
	mov	ecx, -856724541
	jmp	.LBB24_1
	.p2align	4, 0x90
.LBB24_14:                              
	cmp	ecx, 1945039978
	je	.LBB24_20

	cmp	ecx, 1997436872
	jne	.LBB24_1

	movzx	eax, byte ptr [rsp + 15]
	test	al, al
	mov	ecx, -282664455
	mov	eax, -1098549562
	cmovne	ecx, eax
	jmp	.LBB24_1
.LBB24_21:                              
	mov	qword ptr [rsp + 16], r13
	mov	rax, qword ptr [rsp + 16]
	mov	rcx, qword ptr [rax]
	xor	esi, esi
	cmp	rcx, qword ptr [rax + 8]
	setne	sil
	mov	rdi, rbp
	call	_ZNK5Botan18SymmetricAlgorithm14verify_key_setEb
	call	_ZN5Botan5CPUID10has_aes_niEv
	mov	ecx, dword ptr [rip + x.62]
	mov	edi, dword ptr [rip + y.63]
	lea	esi, [rcx - 1]
	imul	esi, ecx
	mov	ecx, esi
	xor	ecx, -2
	and	ecx, esi
	sete	bl
	cmp	edi, 10
	setl	dl
	xor	dl, bl
	mov	edx, 1945039978
	mov	esi, 1997436872
	cmovne	edx, esi
	test	ecx, ecx
	mov	ecx, edx
	cmove	ecx, esi
	cmp	edi, 10
	mov	byte ptr [rsp + 15], al
	cmovge	ecx, edx
	jmp	.LBB24_1
.LBB24_17:                              
	call	_ZN5Botan5CPUID9has_ssse3Ev
	test	al, al
	mov	ecx, -1160666825
	mov	eax, 1253357842
	cmovne	ecx, eax
	jmp	.LBB24_1
.LBB24_18:                              
	mov	rdi, rbp
	mov	rsi, r12
	mov	rdx, r15
	mov	rcx, r14
	call	_ZNK5Botan7AES_25615vperm_decrypt_nEPKhPhm
	mov	ecx, -856724541
	jmp	.LBB24_1
.LBB24_19:                              
	mov	rcx, qword ptr [rsp + 16]
	mov	rdi, r12
	mov	rsi, r15
	mov	rdx, r14
	call	_ZN5Botan12_GLOBAL__N_113aes_decrypt_nEPKhPhmRKSt6vectorIjNS_16secure_allocatorIjEEE
	mov	ecx, -856724541
	jmp	.LBB24_1
.LBB24_9:
	add	rsp, 24
	pop	rbx
	pop	r12
	pop	r13
	pop	r14
	pop	r15
	pop	rbp
	ret
.Lfunc_end24:
	.size	_ZNK5Botan7AES_2569decrypt_nEPKhPhm, .Lfunc_end24-_ZNK5Botan7AES_2569decrypt_nEPKhPhm
	.cfi_endproc

	.globl	_ZN5Botan7AES_25612key_scheduleEPKhm 
	.p2align	4, 0x90
	.type	_ZN5Botan7AES_25612key_scheduleEPKhm,@function
_ZN5Botan7AES_25612key_scheduleEPKhm:   
	.cfi_startproc

	push	rbp
.Lcfi214:
	.cfi_def_cfa_offset 16
	push	r15
.Lcfi215:
	.cfi_def_cfa_offset 24
	push	r14
.Lcfi216:
	.cfi_def_cfa_offset 32
	push	r13
.Lcfi217:
	.cfi_def_cfa_offset 40
	push	r12
.Lcfi218:
	.cfi_def_cfa_offset 48
	push	rbx
.Lcfi219:
	.cfi_def_cfa_offset 56
	push	rax
.Lcfi220:
	.cfi_def_cfa_offset 64
.Lcfi221:
	.cfi_offset rbx, -56
.Lcfi222:
	.cfi_offset r12, -48
.Lcfi223:
	.cfi_offset r13, -40
.Lcfi224:
	.cfi_offset r14, -32
.Lcfi225:
	.cfi_offset r15, -24
.Lcfi226:
	.cfi_offset rbp, -16
	mov	r14, rdx
	mov	rbp, rsi
	mov	r15, rdi
	lea	r12, [r15 + 8]
	lea	r13, [r15 + 32]
	mov	ecx, -1115555889
	jmp	.LBB25_1
.LBB25_30:                              
	cmovne	esi, edi
	test	eax, eax
	mov	ecx, esi
	cmove	ecx, edi
	cmp	edx, 10
	cmovge	ecx, esi
	.p2align	4, 0x90
.LBB25_1:                               

	cmp	ecx, -450715012
	jle	.LBB25_2

	cmp	ecx, 954427374
	jg	.LBB25_26

	cmp	ecx, 643988593
	jg	.LBB25_23

	cmp	ecx, -450715011
	je	.LBB25_35

	cmp	ecx, 634143504
	je	.LBB25_37

	cmp	ecx, -305092658
	jne	.LBB25_1
	jmp	.LBB25_22
	.p2align	4, 0x90
.LBB25_2:                               
	cmp	ecx, -1115555890
	jg	.LBB25_10

	cmp	ecx, -1662371252
	jg	.LBB25_7

	cmp	ecx, -1719452131
	je	.LBB25_38

	cmp	ecx, -1677531585
	jne	.LBB25_1

	call	_ZN5Botan5CPUID10has_aes_niEv
	mov	ecx, -856352326
	jmp	.LBB25_1
	.p2align	4, 0x90
.LBB25_26:                              
	cmp	ecx, 1870231183
	jg	.LBB25_31

	cmp	ecx, 954427375
	je	.LBB25_48

	cmp	ecx, 1692885410
	jne	.LBB25_1

	mov	eax, dword ptr [rip + x.64]
	mov	edx, dword ptr [rip + y.65]
	mov	ecx, eax
	neg	ecx
	not	ecx
	imul	ecx, eax
	mov	eax, ecx
	xor	eax, -2
	and	eax, ecx
	sete	cl
	cmp	edx, 10
	setl	bl
	xor	bl, cl
	mov	esi, 643988594
	mov	edi, -1173838317
	jmp	.LBB25_30
	.p2align	4, 0x90
.LBB25_10:                              
	cmp	ecx, -856352327
	jg	.LBB25_14

	cmp	ecx, -1115555889
	je	.LBB25_34

	cmp	ecx, -999199205
	jne	.LBB25_1

	mov	ecx, -305092658
	jmp	.LBB25_1
.LBB25_23:                              
	cmp	ecx, 643988594
	je	.LBB25_50

	cmp	ecx, 789787419
	jne	.LBB25_1

	mov	eax, dword ptr [rip + x.64]
	mov	edx, dword ptr [rip + y.65]
	mov	ecx, eax
	neg	ecx
	not	ecx
	imul	ecx, eax
	mov	eax, ecx
	xor	eax, -2
	and	eax, ecx
	sete	cl
	cmp	edx, 10
	setl	bl
	xor	bl, cl
	mov	esi, -1662371251
	mov	edi, 1870231184
	jmp	.LBB25_30
.LBB25_7:                               
	cmp	ecx, -1662371251
	je	.LBB25_51

	cmp	ecx, -1173838317
	jne	.LBB25_1

	call	_ZN5Botan5CPUID9has_ssse3Ev
	mov	ecx, dword ptr [rip + x.64]
	mov	edx, dword ptr [rip + y.65]
	lea	esi, [rcx - 1]
	imul	esi, ecx
	not	esi
	or	esi, -2
	cmp	esi, -1
	sete	cl
	cmp	edx, 10
	setl	bl
	xor	bl, cl
	mov	edi, 643988594
	mov	ebx, 2065334471
	cmovne	edi, ebx
	cmp	esi, -1
	mov	ecx, edi
	cmove	ecx, ebx
	cmp	edx, 10
	mov	byte ptr [rsp + 5], al
	cmovge	ecx, edi
	jmp	.LBB25_1
.LBB25_31:                              
	cmp	ecx, 1870231184
	je	.LBB25_49

	cmp	ecx, 2065334471
	jne	.LBB25_1

	mov	al, byte ptr [rsp + 5]
	test	al, al
	mov	ecx, 789787419
	mov	eax, 954427375
	cmovne	ecx, eax
	jmp	.LBB25_1
.LBB25_14:                              
	cmp	ecx, -856352326
	je	.LBB25_36

	cmp	ecx, -843155819
	jne	.LBB25_1

	mov	rdi, r15
	mov	rsi, rbp
	mov	rdx, r14
	call	_ZN5Botan7AES_25618aesni_key_scheduleEPKhm
	mov	ecx, -305092658
	jmp	.LBB25_1
.LBB25_35:                              
	mov	eax, dword ptr [rip + x.64]
	mov	edx, dword ptr [rip + y.65]
	mov	ecx, eax
	neg	ecx
	not	ecx
	imul	ecx, eax
	not	ecx
	or	ecx, -2
	cmp	ecx, -1
	sete	al
	cmp	edx, 10
	setl	bl
	xor	bl, al
	mov	eax, -1677531585
	mov	esi, -856352326
	cmovne	eax, esi
	cmp	ecx, -1
	mov	ecx, eax
	cmove	ecx, esi
	cmp	edx, 10
	cmovge	ecx, eax
	jmp	.LBB25_1
.LBB25_37:                              
	mov	al, byte ptr [rsp + 4]
	test	al, al
	mov	ecx, 1692885410
	mov	eax, -1719452131
	cmovne	ecx, eax
	jmp	.LBB25_1
.LBB25_38:                              
	mov	eax, dword ptr [rip + x.46]
	mov	ecx, dword ptr [rip + y.47]
	lea	edx, [rax - 1]
	imul	edx, eax
	not	edx
	or	edx, -2
	cmp	edx, -1
	sete	dl
	sete	byte ptr [rsp + 6]
	mov	eax, 2334080
	mov	esi, 2006162322
	cmove	eax, esi
	cmp	ecx, 10
	setl	cl
	setl	byte ptr [rsp + 7]
	mov	edi, 2334080
	cmovge	eax, edi
	xor	cl, dl
	cmovne	eax, esi
	mov	ecx, -740039775
	jmp	.LBB25_39
.LBB25_48:                              
	mov	rdi, r15
	mov	rsi, rbp
	mov	rdx, r14
	call	_ZN5Botan7AES_25618vperm_key_scheduleEPKhm
	mov	ecx, -305092658
	jmp	.LBB25_1
.LBB25_34:                              
	call	_ZN5Botan5CPUID10has_aes_niEv
	test	al, al
	mov	ecx, -450715011
	mov	eax, -843155819
	cmovne	ecx, eax
	jmp	.LBB25_1
.LBB25_50:                              
	call	_ZN5Botan5CPUID9has_ssse3Ev
	mov	ecx, -1173838317
	jmp	.LBB25_1
.LBB25_51:                              
	xor	r8d, r8d
	mov	rdi, rbp
	mov	rsi, r14
	mov	rdx, r12
	mov	rcx, r13
	call	_ZN5Botan12_GLOBAL__N_116aes_key_scheduleEPKhmRSt6vectorIjNS_16secure_allocatorIjEEES7_b
	mov	ecx, 1870231184
	jmp	.LBB25_1
.LBB25_49:                              
	xor	r8d, r8d
	mov	rdi, rbp
	mov	rsi, r14
	mov	rdx, r12
	mov	rcx, r13
	call	_ZN5Botan12_GLOBAL__N_116aes_key_scheduleEPKhmRSt6vectorIjNS_16secure_allocatorIjEEES7_b
	mov	eax, dword ptr [rip + x.64]
	lea	ecx, [rax - 1]
	imul	ecx, eax
	not	ecx
	or	ecx, -2
	cmp	ecx, -1
	sete	al
	mov	ecx, -1662371251
	mov	edi, -999199205
	cmove	ecx, edi
	cmp	dword ptr [rip + y.65], 10
	setl	dl
	mov	esi, -1662371251
	cmovge	ecx, esi
	xor	dl, al
	cmovne	ecx, edi
	jmp	.LBB25_1
.LBB25_36:                              
	call	_ZN5Botan5CPUID10has_aes_niEv
	mov	byte ptr [rsp + 4], al
	mov	eax, dword ptr [rip + x.64]
	lea	ecx, [rax - 1]
	imul	ecx, eax
	mov	eax, ecx
	xor	eax, -2
	and	eax, ecx
	sete	dl
	test	eax, eax
	mov	ecx, -1677531585
	mov	esi, 634143504
	cmove	ecx, esi
	cmp	dword ptr [rip + y.65], 10
	setl	al
	mov	edi, -1677531585
	cmovge	ecx, edi
	xor	al, dl
	cmovne	ecx, esi
	jmp	.LBB25_1
.LBB25_45:                              
	mov	ecx, eax
	.p2align	4, 0x90
.LBB25_39:                              

	cmp	ecx, 2006162321
	jg	.LBB25_43

	cmp	ecx, -740039775
	je	.LBB25_46

	cmp	ecx, 2334080
	jne	.LBB25_39

	mov	ecx, 2040709380
	jmp	.LBB25_39
	.p2align	4, 0x90
.LBB25_43:                              
	cmp	ecx, 2006162322
	je	.LBB25_47

	cmp	ecx, 2040709380
	jne	.LBB25_39
	jmp	.LBB25_45
.LBB25_46:                              
	movzx	ebx, byte ptr [rsp + 6]
	movzx	ecx, byte ptr [rsp + 7]
	mov	edx, ebx
	xor	dl, cl
	mov	edx, 2334080
	mov	esi, 2040709380
	cmovne	edx, esi
	test	cl, cl
	mov	ecx, edx
	cmovne	ecx, esi
	test	bl, bl
	cmove	ecx, edx
	jmp	.LBB25_39
.LBB25_47:                              
	mov	r8d, 1
	mov	rdi, rbp
	mov	rsi, r14
	mov	rdx, r12
	mov	rcx, r13
	call	_ZN5Botan12_GLOBAL__N_116aes_key_scheduleEPKhmRSt6vectorIjNS_16secure_allocatorIjEEES7_b
	mov	ecx, -305092658
	jmp	.LBB25_1
.LBB25_22:
	add	rsp, 8
	pop	rbx
	pop	r12
	pop	r13
	pop	r14
	pop	r15
	pop	rbp
	ret
.Lfunc_end25:
	.size	_ZN5Botan7AES_25612key_scheduleEPKhm, .Lfunc_end25-_ZN5Botan7AES_25612key_scheduleEPKhm
	.cfi_endproc

	.globl	_ZN5Botan7AES_2565clearEv 
	.p2align	4, 0x90
	.type	_ZN5Botan7AES_2565clearEv,@function
_ZN5Botan7AES_2565clearEv:              
	.cfi_startproc

	push	rbx
.Lcfi227:
	.cfi_def_cfa_offset 16
.Lcfi228:
	.cfi_offset rbx, -16
	mov	rbx, rdi
	lea	rdi, [rbx + 8]
	call	_ZN5Botan3zapIjNS_16secure_allocatorIjEEEEvRSt6vectorIT_T0_E
	add	rbx, 32
	mov	rdi, rbx
	pop	rbx
	jmp	_ZN5Botan3zapIjNS_16secure_allocatorIjEEEEvRSt6vectorIT_T0_E 
.Lfunc_end26:
	.size	_ZN5Botan7AES_2565clearEv, .Lfunc_end26-_ZN5Botan7AES_2565clearEv
	.cfi_endproc

	.section	.text._ZN5Botan7AES_128D2Ev,"axG",@progbits,_ZN5Botan7AES_128D2Ev,comdat
	.weak	_ZN5Botan7AES_128D2Ev   
	.p2align	4, 0x90
	.type	_ZN5Botan7AES_128D2Ev,@function
_ZN5Botan7AES_128D2Ev:                  

	push	rbx
	sub	rsp, 16
	mov	rbx, rdi
	mov	qword ptr [rbx], _ZTVN5Botan7AES_128E+16
	lea	rdi, [rbx + 32]
	call	_ZNSt6vectorIjN5Botan16secure_allocatorIjEEED2Ev
	add	rbx, 8
	mov	rdi, rbx
	call	_ZNSt6vectorIjN5Botan16secure_allocatorIjEEED2Ev
	mov	eax, dword ptr [rip + x.444]
	mov	edx, dword ptr [rip + y.445]
	lea	ecx, [rax - 1]
	imul	ecx, eax
	mov	eax, ecx
	xor	eax, -2
	and	eax, ecx
	sete	bl
	sete	byte ptr [rsp + 14]
	test	eax, eax
	mov	esi, 246314230
	mov	r8d, -257617555
	mov	ecx, -257617555
	cmove	ecx, esi
	cmp	edx, 10
	setl	dl
	setl	byte ptr [rsp + 15]
	cmovge	ecx, r8d
	xor	dl, bl
	cmovne	ecx, esi
	mov	esi, 286856290
	mov	edi, 788816002
	jmp	.LBB27_1
.LBB27_6:                               
	mov	esi, ecx
	.p2align	4, 0x90
.LBB27_1:                               
	cmp	esi, 286856289
	jg	.LBB27_5

	cmp	esi, -257617555
	je	.LBB27_9

	cmp	esi, 246314230
	jne	.LBB27_1
	jmp	.LBB27_4
	.p2align	4, 0x90
.LBB27_5:                               
	cmp	esi, 788816002
	je	.LBB27_6

	cmp	esi, 286856290
	jne	.LBB27_1

	movzx	edx, byte ptr [rsp + 14]
	movzx	eax, byte ptr [rsp + 15]
	mov	ebx, edx
	xor	bl, al
	test	al, al
	mov	esi, -257617555
	cmovne	esi, edi
	test	dl, dl
	cmove	esi, r8d
	test	bl, bl
	cmovne	esi, edi
	jmp	.LBB27_1
.LBB27_9:                               
	mov	esi, 788816002
	jmp	.LBB27_1
.LBB27_4:
	add	rsp, 16
	pop	rbx
	ret
.Lfunc_end27:
	.size	_ZN5Botan7AES_128D2Ev, .Lfunc_end27-_ZN5Botan7AES_128D2Ev

	.section	.text._ZN5Botan7AES_128D0Ev,"axG",@progbits,_ZN5Botan7AES_128D0Ev,comdat
	.weak	_ZN5Botan7AES_128D0Ev   
	.p2align	4, 0x90
	.type	_ZN5Botan7AES_128D0Ev,@function
_ZN5Botan7AES_128D0Ev:                  

	push	rbp
	push	r15
	push	r14
	push	r13
	push	r12
	push	rbx
	push	rax
	mov	r12, rdi
	mov	eax, dword ptr [rip + x.70]
	lea	ecx, [rax - 1]
	imul	ecx, eax
	mov	eax, ecx
	xor	eax, -2
	test	eax, ecx
	sete	byte ptr [rsp + 2]
	mov	eax, dword ptr [rip + y.71]
	cmp	eax, 10
	setl	byte ptr [rsp + 3]
	lea	r14, [r12 + 32]
	lea	r15, [r12 + 8]
	mov	eax, 246988279
	mov	r13d, 246314230
	mov	ebp, 788816002
	jmp	.LBB28_1
.LBB28_4:                               
	mov	cl, byte ptr [rsp + 2]
	mov	al, byte ptr [rsp + 3]
	mov	edx, ecx
	xor	dl, al
	mov	edx, -1096277312
	mov	esi, 1055621452
	cmovne	edx, esi
	test	al, al
	mov	eax, edx
	cmovne	eax, esi
	test	cl, cl
	cmove	eax, edx
	.p2align	4, 0x90
.LBB28_1:                               


	cmp	eax, 909791751
	jg	.LBB28_5

	cmp	eax, -1096277312
	je	.LBB28_18

	cmp	eax, 246988279
	jne	.LBB28_1
	jmp	.LBB28_4
	.p2align	4, 0x90
.LBB28_5:                               
	cmp	eax, 909791752
	je	.LBB28_17

	cmp	eax, 1055621452
	jne	.LBB28_1

	mov	qword ptr [r12], _ZTVN5Botan7AES_128E+16
	mov	rdi, r14
	call	_ZNSt6vectorIjN5Botan16secure_allocatorIjEEED2Ev
	mov	rdi, r15
	call	_ZNSt6vectorIjN5Botan16secure_allocatorIjEEED2Ev
	mov	eax, dword ptr [rip + x.444]
	mov	ecx, dword ptr [rip + y.445]
	lea	edx, [rax - 1]
	imul	edx, eax
	mov	eax, edx
	xor	eax, -2
	and	eax, edx
	sete	dl
	sete	byte ptr [rsp + 4]
	cmp	ecx, 10
	setl	bl
	xor	bl, dl
	mov	edx, -257617555
	cmovne	edx, r13d
	test	eax, eax
	mov	eax, edx
	cmove	eax, r13d
	cmp	ecx, 10
	setl	byte ptr [rsp + 5]
	cmovge	eax, edx
	mov	ecx, 286856290
	jmp	.LBB28_8
.LBB28_18:                              
	mov	qword ptr [r12], _ZTVN5Botan7AES_128E+16
	mov	rdi, r14
	call	_ZNSt6vectorIjN5Botan16secure_allocatorIjEEED2Ev
	mov	rdi, r15
	call	_ZNSt6vectorIjN5Botan16secure_allocatorIjEEED2Ev
	mov	eax, dword ptr [rip + x.444]
	mov	ecx, dword ptr [rip + y.445]
	mov	edx, eax
	neg	edx
	not	edx
	imul	edx, eax
	not	edx
	or	edx, -2
	cmp	edx, -1
	sete	al
	cmp	ecx, 10
	setl	bl
	xor	bl, al
	mov	esi, -257617555
	cmovne	esi, r13d
	cmp	edx, -1
	sete	byte ptr [rsp + 6]
	mov	eax, esi
	cmove	eax, r13d
	cmp	ecx, 10
	setl	byte ptr [rsp + 7]
	cmovge	eax, esi
	mov	ecx, 286856290
	jmp	.LBB28_19
.LBB28_13:                              
	mov	ecx, eax
	.p2align	4, 0x90
.LBB28_8:                               

	cmp	ecx, 286856289
	jg	.LBB28_12

	cmp	ecx, -257617555
	je	.LBB28_16

	cmp	ecx, 246314230
	jne	.LBB28_8
	jmp	.LBB28_11
	.p2align	4, 0x90
.LBB28_12:                              
	cmp	ecx, 788816002
	je	.LBB28_13

	cmp	ecx, 286856290
	jne	.LBB28_8

	movzx	ebx, byte ptr [rsp + 4]
	movzx	ecx, byte ptr [rsp + 5]
	mov	edx, ebx
	xor	dl, cl
	test	cl, cl
	mov	ecx, -257617555
	cmovne	ecx, ebp
	test	bl, bl
	mov	esi, -257617555
	cmove	ecx, esi
	test	dl, dl
	cmovne	ecx, ebp
	jmp	.LBB28_8
.LBB28_16:                              
	mov	ecx, 788816002
	jmp	.LBB28_8
.LBB28_24:                              
	mov	ecx, eax
	.p2align	4, 0x90
.LBB28_19:                              

	cmp	ecx, 286856289
	jg	.LBB28_23

	cmp	ecx, -257617555
	je	.LBB28_27

	cmp	ecx, 246314230
	jne	.LBB28_19
	jmp	.LBB28_22
	.p2align	4, 0x90
.LBB28_23:                              
	cmp	ecx, 788816002
	je	.LBB28_24

	cmp	ecx, 286856290
	jne	.LBB28_19

	movzx	ebx, byte ptr [rsp + 6]
	movzx	ecx, byte ptr [rsp + 7]
	mov	edx, ebx
	xor	dl, cl
	mov	edx, -257617555
	cmovne	edx, ebp
	test	cl, cl
	mov	ecx, edx
	cmovne	ecx, ebp
	test	bl, bl
	cmove	ecx, edx
	jmp	.LBB28_19
.LBB28_27:                              
	mov	ecx, 788816002
	jmp	.LBB28_19
.LBB28_11:                              
	mov	rdi, r12
	call	_ZdlPv
	mov	eax, dword ptr [rip + x.70]
	mov	ecx, dword ptr [rip + y.71]
	mov	edx, eax
	neg	edx
	not	edx
	imul	edx, eax
	mov	eax, edx
	xor	eax, -2
	and	eax, edx
	sete	dl
	cmp	ecx, 10
	setl	bl
	xor	bl, dl
	mov	edx, -1096277312
	mov	esi, 909791752
	cmovne	edx, esi
	test	eax, eax
	mov	eax, edx
	cmove	eax, esi
	cmp	ecx, 10
	cmovge	eax, edx
	jmp	.LBB28_1
.LBB28_22:                              
	mov	rdi, r12
	call	_ZdlPv
	mov	eax, 1055621452
	jmp	.LBB28_1
.LBB28_17:
	add	rsp, 8
	pop	rbx
	pop	r12
	pop	r13
	pop	r14
	pop	r15
	pop	rbp
	ret
.Lfunc_end28:
	.size	_ZN5Botan7AES_128D0Ev, .Lfunc_end28-_ZN5Botan7AES_128D0Ev

	.section	.rodata.cst16,"aM",@progbits,16
	.p2align	4               
.LCPI29_0:
	.quad	16                      
	.quad	16                      
	.section	.text._ZNK5Botan25Block_Cipher_Fixed_ParamsILm16ELm16ELm0ELm1ENS_11BlockCipherEE8key_specEv,"axG",@progbits,_ZNK5Botan25Block_Cipher_Fixed_ParamsILm16ELm16ELm0ELm1ENS_11BlockCipherEE8key_specEv,comdat
	.weak	_ZNK5Botan25Block_Cipher_Fixed_ParamsILm16ELm16ELm0ELm1ENS_11BlockCipherEE8key_specEv
	.p2align	4, 0x90
	.type	_ZNK5Botan25Block_Cipher_Fixed_ParamsILm16ELm16ELm0ELm1ENS_11BlockCipherEE8key_specEv,@function
_ZNK5Botan25Block_Cipher_Fixed_ParamsILm16ELm16ELm0ELm1ENS_11BlockCipherEE8key_specEv: 
	.cfi_startproc

	movaps	xmm0, xmmword ptr [rip + .LCPI29_0] 
	movups	xmmword ptr [rdi], xmm0
	mov	qword ptr [rdi + 16], 1
	mov	rax, rdi
	ret
.Lfunc_end29:
	.size	_ZNK5Botan25Block_Cipher_Fixed_ParamsILm16ELm16ELm0ELm1ENS_11BlockCipherEE8key_specEv, .Lfunc_end29-_ZNK5Botan25Block_Cipher_Fixed_ParamsILm16ELm16ELm0ELm1ENS_11BlockCipherEE8key_specEv
	.cfi_endproc

	.section	.text._ZNK5Botan7AES_1284nameB5cxx11Ev,"axG",@progbits,_ZNK5Botan7AES_1284nameB5cxx11Ev,comdat
	.weak	_ZNK5Botan7AES_1284nameB5cxx11Ev 
	.p2align	4, 0x90
	.type	_ZNK5Botan7AES_1284nameB5cxx11Ev,@function
_ZNK5Botan7AES_1284nameB5cxx11Ev:       
.Lfunc_begin3:
	.cfi_startproc
	.cfi_personality 3, __gxx_personality_v0
	.cfi_lsda 3, .Lexception3

	push	rbx
.Lcfi229:
	.cfi_def_cfa_offset 16
	sub	rsp, 16
.Lcfi230:
	.cfi_def_cfa_offset 32
.Lcfi231:
	.cfi_offset rbx, -16
	mov	rbx, rdi
.Ltmp9:
	lea	rdx, [rsp + 8]
	mov	esi, .L.str.11
	call	_ZNSt7__cxx1112basic_stringIcSt11char_traitsIcESaIcEEC2EPKcRKS3_
.Ltmp10:

	mov	rax, rbx
	add	rsp, 16
	pop	rbx
	ret
.LBB30_2:
.Ltmp11:
	mov	rdi, rax
	call	_Unwind_Resume
.Lfunc_end30:
	.size	_ZNK5Botan7AES_1284nameB5cxx11Ev, .Lfunc_end30-_ZNK5Botan7AES_1284nameB5cxx11Ev
	.cfi_endproc
	.section	.gcc_except_table,"a",@progbits
	.p2align	2
GCC_except_table30:
.Lexception3:
	.byte	255                     
	.byte	3                       
	.asciz	"\234"                  
	.byte	3                       
	.byte	26                      
	.long	.Ltmp9-.Lfunc_begin3    
	.long	.Ltmp10-.Ltmp9          
	.long	.Ltmp11-.Lfunc_begin3   
	.byte	0                       
	.long	.Ltmp10-.Lfunc_begin3   
	.long	.Lfunc_end30-.Ltmp10    
	.long	0                       
	.byte	0                       
	.p2align	2

	.section	.text._ZNK5Botan25Block_Cipher_Fixed_ParamsILm16ELm16ELm0ELm1ENS_11BlockCipherEE10block_sizeEv,"axG",@progbits,_ZNK5Botan25Block_Cipher_Fixed_ParamsILm16ELm16ELm0ELm1ENS_11BlockCipherEE10block_sizeEv,comdat
	.weak	_ZNK5Botan25Block_Cipher_Fixed_ParamsILm16ELm16ELm0ELm1ENS_11BlockCipherEE10block_sizeEv 
	.p2align	4, 0x90
	.type	_ZNK5Botan25Block_Cipher_Fixed_ParamsILm16ELm16ELm0ELm1ENS_11BlockCipherEE10block_sizeEv,@function
_ZNK5Botan25Block_Cipher_Fixed_ParamsILm16ELm16ELm0ELm1ENS_11BlockCipherEE10block_sizeEv: 

	mov	eax, 16
	ret
.Lfunc_end31:
	.size	_ZNK5Botan25Block_Cipher_Fixed_ParamsILm16ELm16ELm0ELm1ENS_11BlockCipherEE10block_sizeEv, .Lfunc_end31-_ZNK5Botan25Block_Cipher_Fixed_ParamsILm16ELm16ELm0ELm1ENS_11BlockCipherEE10block_sizeEv

	.section	.text._ZNK5Botan25Block_Cipher_Fixed_ParamsILm16ELm16ELm0ELm1ENS_11BlockCipherEE13encrypt_n_xexEPhPKhm,"axG",@progbits,_ZNK5Botan25Block_Cipher_Fixed_ParamsILm16ELm16ELm0ELm1ENS_11BlockCipherEE13encrypt_n_xexEPhPKhm,comdat
	.weak	_ZNK5Botan25Block_Cipher_Fixed_ParamsILm16ELm16ELm0ELm1ENS_11BlockCipherEE13encrypt_n_xexEPhPKhm 
	.p2align	4, 0x90
	.type	_ZNK5Botan25Block_Cipher_Fixed_ParamsILm16ELm16ELm0ELm1ENS_11BlockCipherEE13encrypt_n_xexEPhPKhm,@function
_ZNK5Botan25Block_Cipher_Fixed_ParamsILm16ELm16ELm0ELm1ENS_11BlockCipherEE13encrypt_n_xexEPhPKhm: 
	.cfi_startproc

	push	r15
.Lcfi232:
	.cfi_def_cfa_offset 16
	push	r14
.Lcfi233:
	.cfi_def_cfa_offset 24
	push	r13
.Lcfi234:
	.cfi_def_cfa_offset 32
	push	r12
.Lcfi235:
	.cfi_def_cfa_offset 40
	push	rbx
.Lcfi236:
	.cfi_def_cfa_offset 48
.Lcfi237:
	.cfi_offset rbx, -48
.Lcfi238:
	.cfi_offset r12, -40
.Lcfi239:
	.cfi_offset r13, -32
.Lcfi240:
	.cfi_offset r14, -24
.Lcfi241:
	.cfi_offset r15, -16
	mov	r15, rcx
	mov	r14, rdx
	mov	rbx, rsi
	mov	r12, rdi
	mov	r13, r15
	shl	r13, 4
	mov	rdi, rbx
	mov	rsi, r14
	mov	rdx, r13
	call	_ZN5Botan7xor_bufEPhPKhm
	mov	rax, qword ptr [r12]
	mov	rdi, r12
	mov	rsi, rbx
	mov	rdx, rbx
	mov	rcx, r15
	call	qword ptr [rax + 72]
	mov	rdi, rbx
	mov	rsi, r14
	mov	rdx, r13
	pop	rbx
	pop	r12
	pop	r13
	pop	r14
	pop	r15
	jmp	_ZN5Botan7xor_bufEPhPKhm 
.Lfunc_end32:
	.size	_ZNK5Botan25Block_Cipher_Fixed_ParamsILm16ELm16ELm0ELm1ENS_11BlockCipherEE13encrypt_n_xexEPhPKhm, .Lfunc_end32-_ZNK5Botan25Block_Cipher_Fixed_ParamsILm16ELm16ELm0ELm1ENS_11BlockCipherEE13encrypt_n_xexEPhPKhm
	.cfi_endproc

	.section	.text._ZNK5Botan25Block_Cipher_Fixed_ParamsILm16ELm16ELm0ELm1ENS_11BlockCipherEE13decrypt_n_xexEPhPKhm,"axG",@progbits,_ZNK5Botan25Block_Cipher_Fixed_ParamsILm16ELm16ELm0ELm1ENS_11BlockCipherEE13decrypt_n_xexEPhPKhm,comdat
	.weak	_ZNK5Botan25Block_Cipher_Fixed_ParamsILm16ELm16ELm0ELm1ENS_11BlockCipherEE13decrypt_n_xexEPhPKhm 
	.p2align	4, 0x90
	.type	_ZNK5Botan25Block_Cipher_Fixed_ParamsILm16ELm16ELm0ELm1ENS_11BlockCipherEE13decrypt_n_xexEPhPKhm,@function
_ZNK5Botan25Block_Cipher_Fixed_ParamsILm16ELm16ELm0ELm1ENS_11BlockCipherEE13decrypt_n_xexEPhPKhm: 
	.cfi_startproc

	push	rbp
.Lcfi242:
	.cfi_def_cfa_offset 16
	push	r15
.Lcfi243:
	.cfi_def_cfa_offset 24
	push	r14
.Lcfi244:
	.cfi_def_cfa_offset 32
	push	r13
.Lcfi245:
	.cfi_def_cfa_offset 40
	push	r12
.Lcfi246:
	.cfi_def_cfa_offset 48
	push	rbx
.Lcfi247:
	.cfi_def_cfa_offset 56
	push	rax
.Lcfi248:
	.cfi_def_cfa_offset 64
.Lcfi249:
	.cfi_offset rbx, -56
.Lcfi250:
	.cfi_offset r12, -48
.Lcfi251:
	.cfi_offset r13, -40
.Lcfi252:
	.cfi_offset r14, -32
.Lcfi253:
	.cfi_offset r15, -24
.Lcfi254:
	.cfi_offset rbp, -16
	mov	r14, rcx
	mov	r15, rdx
	mov	rbp, rsi
	mov	r12, rdi
	mov	eax, dword ptr [rip + x.78]
	lea	ecx, [rax - 1]
	imul	ecx, eax
	not	ecx
	or	ecx, -2
	cmp	ecx, -1
	sete	byte ptr [rsp + 6]
	mov	eax, dword ptr [rip + y.79]
	cmp	eax, 10
	setl	byte ptr [rsp + 7]
	mov	r13, r14
	shl	r13, 4
	mov	eax, 3205602
	jmp	.LBB33_1
.LBB33_9:                               
	movzx	ecx, byte ptr [rsp + 6]
	movzx	eax, byte ptr [rsp + 7]
	mov	edx, ecx
	xor	dl, al
	mov	edx, 199739192
	mov	esi, 725121574
	cmovne	edx, esi
	test	al, al
	mov	eax, edx
	cmovne	eax, esi
	test	cl, cl
	cmove	eax, edx
	.p2align	4, 0x90
.LBB33_1:                               
	mov	ecx, eax
	and	ecx, 1073741823
	cmp	ecx, 199739191
	jg	.LBB33_5

	cmp	ecx, 3205602
	je	.LBB33_9

	cmp	ecx, 97793330
	jne	.LBB33_1
	jmp	.LBB33_4
	.p2align	4, 0x90
.LBB33_5:                               
	cmp	ecx, 199739192
	je	.LBB33_8

	cmp	ecx, 725121574
	jne	.LBB33_1

	mov	rdi, rbp
	mov	rsi, r15
	mov	rdx, r13
	call	_ZN5Botan7xor_bufEPhPKhm
	mov	rax, qword ptr [r12]
	mov	rdi, r12
	mov	rsi, rbp
	mov	rdx, rbp
	mov	rcx, r14
	call	qword ptr [rax + 80]
	mov	rdi, rbp
	mov	rsi, r15
	mov	rdx, r13
	call	_ZN5Botan7xor_bufEPhPKhm
	mov	eax, dword ptr [rip + x.78]
	mov	ecx, dword ptr [rip + y.79]
	mov	edx, eax
	neg	edx
	not	edx
	imul	edx, eax
	mov	eax, edx
	xor	eax, -2
	and	eax, edx
	sete	dl
	cmp	ecx, 10
	setl	bl
	xor	bl, dl
	mov	edx, 199739192
	mov	esi, 97793330
	cmovne	edx, esi
	test	eax, eax
	mov	eax, edx
	cmove	eax, esi
	cmp	ecx, 10
	cmovge	eax, edx
	jmp	.LBB33_1
.LBB33_8:                               
	mov	rdi, rbp
	mov	rsi, r15
	mov	rdx, r13
	call	_ZN5Botan7xor_bufEPhPKhm
	mov	rax, qword ptr [r12]
	mov	rdi, r12
	mov	rsi, rbp
	mov	rdx, rbp
	mov	rcx, r14
	call	qword ptr [rax + 80]
	mov	rdi, rbp
	mov	rsi, r15
	mov	rdx, r13
	call	_ZN5Botan7xor_bufEPhPKhm
	mov	eax, 725121574
	jmp	.LBB33_1
.LBB33_4:
	add	rsp, 8
	pop	rbx
	pop	r12
	pop	r13
	pop	r14
	pop	r15
	pop	rbp
	ret
.Lfunc_end33:
	.size	_ZNK5Botan25Block_Cipher_Fixed_ParamsILm16ELm16ELm0ELm1ENS_11BlockCipherEE13decrypt_n_xexEPhPKhm, .Lfunc_end33-_ZNK5Botan25Block_Cipher_Fixed_ParamsILm16ELm16ELm0ELm1ENS_11BlockCipherEE13decrypt_n_xexEPhPKhm
	.cfi_endproc

	.section	.text._ZNK5Botan7AES_12810new_objectEv,"axG",@progbits,_ZNK5Botan7AES_12810new_objectEv,comdat
	.weak	_ZNK5Botan7AES_12810new_objectEv 
	.p2align	4, 0x90
	.type	_ZNK5Botan7AES_12810new_objectEv,@function
_ZNK5Botan7AES_12810new_objectEv:       
.Lfunc_begin4:
	.cfi_startproc
	.cfi_personality 3, __gxx_personality_v0
	.cfi_lsda 3, .Lexception4

	push	r14
.Lcfi255:
	.cfi_def_cfa_offset 16
	push	rbx
.Lcfi256:
	.cfi_def_cfa_offset 24
	sub	rsp, 24
.Lcfi257:
	.cfi_def_cfa_offset 48
.Lcfi258:
	.cfi_offset rbx, -24
.Lcfi259:
	.cfi_offset r14, -16
	mov	r14, rdi
	mov	edi, 56
	call	_Znwm
	xorps	xmm0, xmm0
	movaps	xmmword ptr [rax + 32], xmm0
	movaps	xmmword ptr [rax + 16], xmm0
	movaps	xmmword ptr [rax], xmm0
	mov	qword ptr [rax + 48], 0
	mov	ecx, dword ptr [rip + x.274]
	mov	edx, dword ptr [rip + y.275]
	lea	esi, [rcx - 1]
	imul	esi, ecx
	mov	edi, esi
	xor	edi, -2
	and	edi, esi
	sete	byte ptr [rsp + 14]
	sete	cl
	cmp	edx, 10
	setl	bl
	xor	bl, cl
	mov	r9d, 1910839736
	mov	esi, -1418847962
	cmovne	esi, r9d
	test	edi, edi
	cmovne	r9d, esi
	cmp	edx, 10
	setl	byte ptr [rsp + 15]
	mov	r8d, -1418847962
	cmovge	r9d, esi
	mov	edi, -548719767
	mov	esi, 406934309
	jmp	.LBB34_1
.LBB34_4:                               
	movzx	ecx, byte ptr [rsp + 14]
	movzx	edx, byte ptr [rsp + 15]
	mov	ebx, ecx
	xor	bl, dl
	test	dl, dl
	mov	edi, -1418847962
	cmovne	edi, esi
	test	cl, cl
	cmove	edi, r8d
	test	bl, bl
	cmovne	edi, esi
	.p2align	4, 0x90
.LBB34_1:                               
	cmp	edi, 406934308
	jle	.LBB34_2

	cmp	edi, 406934309
	je	.LBB34_9

	cmp	edi, 1910839736
	jne	.LBB34_1
	jmp	.LBB34_7
	.p2align	4, 0x90
.LBB34_2:                               
	cmp	edi, -1418847962
	je	.LBB34_10

	cmp	edi, -548719767
	jne	.LBB34_1
	jmp	.LBB34_4
.LBB34_9:                               
	mov	qword ptr [rax], _ZTVN5Botan18SymmetricAlgorithmE+16
	mov	edi, r9d
	jmp	.LBB34_1
.LBB34_10:                              
	mov	qword ptr [rax], _ZTVN5Botan18SymmetricAlgorithmE+16
	mov	edi, 406934309
	jmp	.LBB34_1
.LBB34_7:
	mov	qword ptr [rax], _ZTVN5Botan7AES_128E+16
	xorps	xmm0, xmm0
	movups	xmmword ptr [rax + 40], xmm0
	movups	xmmword ptr [rax + 24], xmm0
	movups	xmmword ptr [rax + 8], xmm0
.Ltmp12:
	lea	rdi, [rsp + 16]
	mov	rsi, rax
	call	_ZNSt15__uniq_ptr_implIN5Botan7AES_128ESt14default_deleteIS1_EEC2EPS1_
.Ltmp13:

	lea	rbx, [rsp + 16]
	mov	rdi, r14
	mov	rsi, rbx
	call	_ZNSt10unique_ptrIN5Botan11BlockCipherESt14default_deleteIS1_EEC2INS0_7AES_128ES2_IS6_EvEEOS_IT_T0_E
	mov	rdi, rbx
	call	_ZNSt10unique_ptrIN5Botan7AES_128ESt14default_deleteIS1_EED2Ev
	mov	rax, r14
	add	rsp, 24
	pop	rbx
	pop	r14
	ret
.LBB34_11:
.Ltmp14:
	mov	rdi, rax
	call	__clang_call_terminate
.Lfunc_end34:
	.size	_ZNK5Botan7AES_12810new_objectEv, .Lfunc_end34-_ZNK5Botan7AES_12810new_objectEv
	.cfi_endproc
	.section	.gcc_except_table,"a",@progbits
	.p2align	2
GCC_except_table34:
.Lexception4:
	.byte	255                     
	.byte	3                       
	.asciz	"\242\200\200"          
	.byte	3                       
	.byte	26                      
	.long	.Lfunc_begin4-.Lfunc_begin4 
	.long	.Ltmp12-.Lfunc_begin4   
	.long	0                       
	.byte	0                       
	.long	.Ltmp12-.Lfunc_begin4   
	.long	.Ltmp13-.Ltmp12         
	.long	.Ltmp14-.Lfunc_begin4   
	.byte	1                       
	.byte	1                       

	.byte	0                       

	.long	0                       
	.p2align	2

	.section	.text._ZN5Botan7AES_192D2Ev,"axG",@progbits,_ZN5Botan7AES_192D2Ev,comdat
	.weak	_ZN5Botan7AES_192D2Ev   
	.p2align	4, 0x90
	.type	_ZN5Botan7AES_192D2Ev,@function
_ZN5Botan7AES_192D2Ev:                  

	push	rbx
	sub	rsp, 16
	mov	rbx, rdi
	mov	qword ptr [rbx], _ZTVN5Botan7AES_192E+16
	lea	rdi, [rbx + 32]
	call	_ZNSt6vectorIjN5Botan16secure_allocatorIjEEED2Ev
	add	rbx, 8
	mov	rdi, rbx
	call	_ZNSt6vectorIjN5Botan16secure_allocatorIjEEED2Ev
	mov	eax, dword ptr [rip + x.444]
	mov	ecx, dword ptr [rip + y.445]
	mov	edx, eax
	neg	edx
	not	edx
	imul	edx, eax
	mov	eax, edx
	xor	eax, -2
	and	eax, edx
	sete	dl
	sete	byte ptr [rsp + 14]
	test	eax, eax
	mov	esi, 246314230
	mov	edi, -257617555
	mov	eax, -257617555
	cmove	eax, esi
	cmp	ecx, 10
	setl	cl
	setl	byte ptr [rsp + 15]
	cmovge	eax, edi
	xor	cl, dl
	cmovne	eax, esi
	mov	edx, 286856290
	mov	esi, 788816002
	jmp	.LBB35_1
.LBB35_6:                               
	mov	edx, eax
	.p2align	4, 0x90
.LBB35_1:                               
	cmp	edx, 286856289
	jg	.LBB35_5

	cmp	edx, -257617555
	je	.LBB35_9

	cmp	edx, 246314230
	jne	.LBB35_1
	jmp	.LBB35_4
	.p2align	4, 0x90
.LBB35_5:                               
	cmp	edx, 788816002
	je	.LBB35_6

	cmp	edx, 286856290
	jne	.LBB35_1

	movzx	ecx, byte ptr [rsp + 14]
	movzx	edx, byte ptr [rsp + 15]
	mov	ebx, ecx
	xor	bl, dl
	mov	edi, -257617555
	cmovne	edi, esi
	test	dl, dl
	mov	edx, edi
	cmovne	edx, esi
	test	cl, cl
	cmove	edx, edi
	jmp	.LBB35_1
.LBB35_9:                               
	mov	edx, 788816002
	jmp	.LBB35_1
.LBB35_4:
	add	rsp, 16
	pop	rbx
	ret
.Lfunc_end35:
	.size	_ZN5Botan7AES_192D2Ev, .Lfunc_end35-_ZN5Botan7AES_192D2Ev

	.section	.text._ZN5Botan7AES_192D0Ev,"axG",@progbits,_ZN5Botan7AES_192D0Ev,comdat
	.weak	_ZN5Botan7AES_192D0Ev   
	.p2align	4, 0x90
	.type	_ZN5Botan7AES_192D0Ev,@function
_ZN5Botan7AES_192D0Ev:                  

	push	rbp
	push	r15
	push	r14
	push	r13
	push	r12
	push	rbx
	push	rax
	mov	r12, rdi
	mov	eax, dword ptr [rip + x.84]
	mov	ecx, dword ptr [rip + y.85]
	lea	edx, [rax - 1]
	imul	edx, eax
	mov	eax, edx
	xor	eax, -2
	test	eax, edx
	sete	byte ptr [rsp + 2]
	cmp	ecx, 10
	setl	byte ptr [rsp + 3]
	lea	r14, [r12 + 32]
	lea	r15, [r12 + 8]
	mov	eax, -1903171015
	mov	ebp, 246314230
	mov	r13d, 788816002
	jmp	.LBB36_1
.LBB36_16:                              
	mov	cl, byte ptr [rsp + 2]
	mov	al, byte ptr [rsp + 3]
	mov	edx, ecx
	xor	dl, al
	test	al, al
	mov	eax, 1518813145
	mov	esi, 25921047
	cmovne	eax, esi
	test	cl, cl
	mov	ecx, 1518813145
	cmove	eax, ecx
	test	dl, dl
	cmovne	eax, esi
	.p2align	4, 0x90
.LBB36_1:                               


	cmp	eax, 1168201029
	jg	.LBB36_9

	cmp	eax, -1903171015
	je	.LBB36_16

	cmp	eax, 25921047
	jne	.LBB36_1

	mov	qword ptr [r12], _ZTVN5Botan7AES_192E+16
	mov	rdi, r14
	call	_ZNSt6vectorIjN5Botan16secure_allocatorIjEEED2Ev
	mov	rdi, r15
	call	_ZNSt6vectorIjN5Botan16secure_allocatorIjEEED2Ev
	mov	eax, dword ptr [rip + x.444]
	mov	ecx, dword ptr [rip + y.445]
	lea	edx, [rax - 1]
	imul	edx, eax
	mov	eax, edx
	xor	eax, -2
	and	eax, edx
	sete	dl
	sete	byte ptr [rsp + 4]
	cmp	ecx, 10
	setl	bl
	xor	bl, dl
	mov	edx, -257617555
	cmovne	edx, ebp
	test	eax, eax
	mov	eax, edx
	cmove	eax, ebp
	cmp	ecx, 10
	setl	byte ptr [rsp + 5]
	cmovge	eax, edx
	mov	ecx, 286856290
	jmp	.LBB36_5
	.p2align	4, 0x90
.LBB36_9:                               
	cmp	eax, 1168201030
	je	.LBB36_22

	cmp	eax, 1518813145
	jne	.LBB36_1

	mov	qword ptr [r12], _ZTVN5Botan7AES_192E+16
	mov	rdi, r14
	call	_ZNSt6vectorIjN5Botan16secure_allocatorIjEEED2Ev
	mov	rdi, r15
	call	_ZNSt6vectorIjN5Botan16secure_allocatorIjEEED2Ev
	mov	eax, dword ptr [rip + x.444]
	mov	ecx, dword ptr [rip + y.445]
	mov	edx, eax
	neg	edx
	not	edx
	imul	edx, eax
	not	edx
	or	edx, -2
	cmp	edx, -1
	sete	dl
	sete	byte ptr [rsp + 6]
	mov	eax, -257617555
	cmove	eax, ebp
	cmp	ecx, 10
	setl	cl
	setl	byte ptr [rsp + 7]
	mov	esi, -257617555
	cmovge	eax, esi
	xor	cl, dl
	cmovne	eax, ebp
	mov	ecx, 286856290
	jmp	.LBB36_12
.LBB36_18:                              
	mov	ecx, eax
	.p2align	4, 0x90
.LBB36_5:                               

	cmp	ecx, 286856289
	jg	.LBB36_17

	cmp	ecx, -257617555
	je	.LBB36_21

	cmp	ecx, 246314230
	jne	.LBB36_5
	jmp	.LBB36_8
	.p2align	4, 0x90
.LBB36_17:                              
	cmp	ecx, 788816002
	je	.LBB36_18

	cmp	ecx, 286856290
	jne	.LBB36_5

	movzx	ebx, byte ptr [rsp + 4]
	movzx	ecx, byte ptr [rsp + 5]
	mov	edx, ebx
	xor	dl, cl
	test	cl, cl
	mov	ecx, -257617555
	cmovne	ecx, r13d
	test	bl, bl
	mov	esi, -257617555
	cmove	ecx, esi
	test	dl, dl
	cmovne	ecx, r13d
	jmp	.LBB36_5
.LBB36_21:                              
	mov	ecx, 788816002
	jmp	.LBB36_5
.LBB36_24:                              
	mov	ecx, eax
	.p2align	4, 0x90
.LBB36_12:                              

	cmp	ecx, 286856289
	jg	.LBB36_23

	cmp	ecx, -257617555
	je	.LBB36_27

	cmp	ecx, 246314230
	jne	.LBB36_12
	jmp	.LBB36_15
	.p2align	4, 0x90
.LBB36_23:                              
	cmp	ecx, 788816002
	je	.LBB36_24

	cmp	ecx, 286856290
	jne	.LBB36_12

	movzx	ebx, byte ptr [rsp + 6]
	movzx	ecx, byte ptr [rsp + 7]
	mov	edx, ebx
	xor	dl, cl
	test	cl, cl
	mov	ecx, -257617555
	cmovne	ecx, r13d
	test	bl, bl
	mov	esi, -257617555
	cmove	ecx, esi
	test	dl, dl
	cmovne	ecx, r13d
	jmp	.LBB36_12
.LBB36_27:                              
	mov	ecx, 788816002
	jmp	.LBB36_12
.LBB36_8:                               
	mov	rdi, r12
	call	_ZdlPv
	mov	eax, dword ptr [rip + x.84]
	lea	ecx, [rax - 1]
	imul	ecx, eax
	not	ecx
	or	ecx, -2
	cmp	ecx, -1
	sete	cl
	mov	eax, 1518813145
	mov	edi, 1168201030
	cmove	eax, edi
	cmp	dword ptr [rip + y.85], 10
	setl	dl
	mov	esi, 1518813145
	cmovge	eax, esi
	xor	dl, cl
	cmovne	eax, edi
	jmp	.LBB36_1
.LBB36_15:                              
	mov	rdi, r12
	call	_ZdlPv
	mov	eax, 25921047
	jmp	.LBB36_1
.LBB36_22:
	add	rsp, 8
	pop	rbx
	pop	r12
	pop	r13
	pop	r14
	pop	r15
	pop	rbp
	ret
.Lfunc_end36:
	.size	_ZN5Botan7AES_192D0Ev, .Lfunc_end36-_ZN5Botan7AES_192D0Ev

	.section	.rodata.cst16,"aM",@progbits,16
	.p2align	4               
.LCPI37_0:
	.quad	24                      
	.quad	24                      
	.section	.text._ZNK5Botan25Block_Cipher_Fixed_ParamsILm16ELm24ELm0ELm1ENS_11BlockCipherEE8key_specEv,"axG",@progbits,_ZNK5Botan25Block_Cipher_Fixed_ParamsILm16ELm24ELm0ELm1ENS_11BlockCipherEE8key_specEv,comdat
	.weak	_ZNK5Botan25Block_Cipher_Fixed_ParamsILm16ELm24ELm0ELm1ENS_11BlockCipherEE8key_specEv
	.p2align	4, 0x90
	.type	_ZNK5Botan25Block_Cipher_Fixed_ParamsILm16ELm24ELm0ELm1ENS_11BlockCipherEE8key_specEv,@function
_ZNK5Botan25Block_Cipher_Fixed_ParamsILm16ELm24ELm0ELm1ENS_11BlockCipherEE8key_specEv: 
	.cfi_startproc

	movaps	xmm0, xmmword ptr [rip + .LCPI37_0] 
	movups	xmmword ptr [rdi], xmm0
	mov	qword ptr [rdi + 16], 1
	mov	rax, rdi
	ret
.Lfunc_end37:
	.size	_ZNK5Botan25Block_Cipher_Fixed_ParamsILm16ELm24ELm0ELm1ENS_11BlockCipherEE8key_specEv, .Lfunc_end37-_ZNK5Botan25Block_Cipher_Fixed_ParamsILm16ELm24ELm0ELm1ENS_11BlockCipherEE8key_specEv
	.cfi_endproc

	.section	.text._ZNK5Botan7AES_1924nameB5cxx11Ev,"axG",@progbits,_ZNK5Botan7AES_1924nameB5cxx11Ev,comdat
	.weak	_ZNK5Botan7AES_1924nameB5cxx11Ev 
	.p2align	4, 0x90
	.type	_ZNK5Botan7AES_1924nameB5cxx11Ev,@function
_ZNK5Botan7AES_1924nameB5cxx11Ev:       
.Lfunc_begin5:
	.cfi_startproc
	.cfi_personality 3, __gxx_personality_v0
	.cfi_lsda 3, .Lexception5

	push	rbx
.Lcfi260:
	.cfi_def_cfa_offset 16
	sub	rsp, 16
.Lcfi261:
	.cfi_def_cfa_offset 32
.Lcfi262:
	.cfi_offset rbx, -16
	mov	rbx, rdi
.Ltmp15:
	lea	rdx, [rsp + 8]
	mov	esi, .L.str.12
	call	_ZNSt7__cxx1112basic_stringIcSt11char_traitsIcESaIcEEC2EPKcRKS3_
.Ltmp16:

	mov	rax, rbx
	add	rsp, 16
	pop	rbx
	ret
.LBB38_2:
.Ltmp17:
	mov	rdi, rax
	call	_Unwind_Resume
.Lfunc_end38:
	.size	_ZNK5Botan7AES_1924nameB5cxx11Ev, .Lfunc_end38-_ZNK5Botan7AES_1924nameB5cxx11Ev
	.cfi_endproc
	.section	.gcc_except_table,"a",@progbits
	.p2align	2
GCC_except_table38:
.Lexception5:
	.byte	255                     
	.byte	3                       
	.asciz	"\234"                  
	.byte	3                       
	.byte	26                      
	.long	.Ltmp15-.Lfunc_begin5   
	.long	.Ltmp16-.Ltmp15         
	.long	.Ltmp17-.Lfunc_begin5   
	.byte	0                       
	.long	.Ltmp16-.Lfunc_begin5   
	.long	.Lfunc_end38-.Ltmp16    
	.long	0                       
	.byte	0                       
	.p2align	2

	.section	.text._ZNK5Botan25Block_Cipher_Fixed_ParamsILm16ELm24ELm0ELm1ENS_11BlockCipherEE10block_sizeEv,"axG",@progbits,_ZNK5Botan25Block_Cipher_Fixed_ParamsILm16ELm24ELm0ELm1ENS_11BlockCipherEE10block_sizeEv,comdat
	.weak	_ZNK5Botan25Block_Cipher_Fixed_ParamsILm16ELm24ELm0ELm1ENS_11BlockCipherEE10block_sizeEv 
	.p2align	4, 0x90
	.type	_ZNK5Botan25Block_Cipher_Fixed_ParamsILm16ELm24ELm0ELm1ENS_11BlockCipherEE10block_sizeEv,@function
_ZNK5Botan25Block_Cipher_Fixed_ParamsILm16ELm24ELm0ELm1ENS_11BlockCipherEE10block_sizeEv: 

	mov	eax, 16
	ret
.Lfunc_end39:
	.size	_ZNK5Botan25Block_Cipher_Fixed_ParamsILm16ELm24ELm0ELm1ENS_11BlockCipherEE10block_sizeEv, .Lfunc_end39-_ZNK5Botan25Block_Cipher_Fixed_ParamsILm16ELm24ELm0ELm1ENS_11BlockCipherEE10block_sizeEv

	.section	.text._ZNK5Botan25Block_Cipher_Fixed_ParamsILm16ELm24ELm0ELm1ENS_11BlockCipherEE13encrypt_n_xexEPhPKhm,"axG",@progbits,_ZNK5Botan25Block_Cipher_Fixed_ParamsILm16ELm24ELm0ELm1ENS_11BlockCipherEE13encrypt_n_xexEPhPKhm,comdat
	.weak	_ZNK5Botan25Block_Cipher_Fixed_ParamsILm16ELm24ELm0ELm1ENS_11BlockCipherEE13encrypt_n_xexEPhPKhm 
	.p2align	4, 0x90
	.type	_ZNK5Botan25Block_Cipher_Fixed_ParamsILm16ELm24ELm0ELm1ENS_11BlockCipherEE13encrypt_n_xexEPhPKhm,@function
_ZNK5Botan25Block_Cipher_Fixed_ParamsILm16ELm24ELm0ELm1ENS_11BlockCipherEE13encrypt_n_xexEPhPKhm: 
	.cfi_startproc

	push	rbp
.Lcfi263:
	.cfi_def_cfa_offset 16
	push	r15
.Lcfi264:
	.cfi_def_cfa_offset 24
	push	r14
.Lcfi265:
	.cfi_def_cfa_offset 32
	push	r13
.Lcfi266:
	.cfi_def_cfa_offset 40
	push	r12
.Lcfi267:
	.cfi_def_cfa_offset 48
	push	rbx
.Lcfi268:
	.cfi_def_cfa_offset 56
	push	rax
.Lcfi269:
	.cfi_def_cfa_offset 64
.Lcfi270:
	.cfi_offset rbx, -56
.Lcfi271:
	.cfi_offset r12, -48
.Lcfi272:
	.cfi_offset r13, -40
.Lcfi273:
	.cfi_offset r14, -32
.Lcfi274:
	.cfi_offset r15, -24
.Lcfi275:
	.cfi_offset rbp, -16
	mov	r14, rcx
	mov	r15, rdx
	mov	rbp, rsi
	mov	r12, rdi
	mov	eax, dword ptr [rip + x.90]
	lea	ecx, [rax - 1]
	imul	ecx, eax
	not	ecx
	or	ecx, -2
	cmp	ecx, -1
	sete	byte ptr [rsp + 6]
	mov	eax, dword ptr [rip + y.91]
	cmp	eax, 10
	setl	byte ptr [rsp + 7]
	mov	r13, r14
	shl	r13, 4
	mov	eax, -1551226868
	mov	ebx, -1634945108
	jmp	.LBB40_1
.LBB40_7:                               
	movzx	ecx, byte ptr [rsp + 6]
	movzx	eax, byte ptr [rsp + 7]
	mov	edx, ecx
	xor	dl, al
	mov	edx, -1954645713
	cmovne	edx, ebx
	test	al, al
	mov	eax, edx
	cmovne	eax, ebx
	test	cl, cl
	cmove	eax, edx
	.p2align	4, 0x90
.LBB40_1:                               
	mov	ecx, eax
	and	ecx, 1073741823
	cmp	ecx, 566108948
	jg	.LBB40_5

	cmp	ecx, 192837935
	je	.LBB40_9

	cmp	ecx, 512538540
	jne	.LBB40_1

	mov	rdi, rbp
	mov	rsi, r15
	mov	rdx, r13
	call	_ZN5Botan7xor_bufEPhPKhm
	mov	rax, qword ptr [r12]
	mov	rdi, r12
	mov	rsi, rbp
	mov	rdx, rbp
	mov	rcx, r14
	call	qword ptr [rax + 72]
	mov	rdi, rbp
	mov	rsi, r15
	mov	rdx, r13
	call	_ZN5Botan7xor_bufEPhPKhm
	mov	eax, dword ptr [rip + x.90]
	mov	ecx, dword ptr [rip + y.91]
	lea	edx, [rax - 1]
	imul	edx, eax
	not	edx
	or	edx, -2
	cmp	edx, -1
	sete	al
	cmp	ecx, 10
	setl	bl
	xor	bl, al
	mov	ebx, -1634945108
	mov	edi, -1581374699
	mov	esi, -1954645713
	cmovne	esi, edi
	cmp	edx, -1
	mov	eax, esi
	cmove	eax, edi
	cmp	ecx, 10
	cmovge	eax, esi
	jmp	.LBB40_1
	.p2align	4, 0x90
.LBB40_5:                               
	cmp	ecx, 566108949
	je	.LBB40_8

	cmp	ecx, 596256780
	jne	.LBB40_1
	jmp	.LBB40_7
.LBB40_9:                               
	mov	rdi, rbp
	mov	rsi, r15
	mov	rdx, r13
	call	_ZN5Botan7xor_bufEPhPKhm
	mov	rax, qword ptr [r12]
	mov	rdi, r12
	mov	rsi, rbp
	mov	rdx, rbp
	mov	rcx, r14
	call	qword ptr [rax + 72]
	mov	rdi, rbp
	mov	rsi, r15
	mov	rdx, r13
	call	_ZN5Botan7xor_bufEPhPKhm
	mov	eax, -1634945108
	jmp	.LBB40_1
.LBB40_8:
	add	rsp, 8
	pop	rbx
	pop	r12
	pop	r13
	pop	r14
	pop	r15
	pop	rbp
	ret
.Lfunc_end40:
	.size	_ZNK5Botan25Block_Cipher_Fixed_ParamsILm16ELm24ELm0ELm1ENS_11BlockCipherEE13encrypt_n_xexEPhPKhm, .Lfunc_end40-_ZNK5Botan25Block_Cipher_Fixed_ParamsILm16ELm24ELm0ELm1ENS_11BlockCipherEE13encrypt_n_xexEPhPKhm
	.cfi_endproc

	.section	.text._ZNK5Botan25Block_Cipher_Fixed_ParamsILm16ELm24ELm0ELm1ENS_11BlockCipherEE13decrypt_n_xexEPhPKhm,"axG",@progbits,_ZNK5Botan25Block_Cipher_Fixed_ParamsILm16ELm24ELm0ELm1ENS_11BlockCipherEE13decrypt_n_xexEPhPKhm,comdat
	.weak	_ZNK5Botan25Block_Cipher_Fixed_ParamsILm16ELm24ELm0ELm1ENS_11BlockCipherEE13decrypt_n_xexEPhPKhm 
	.p2align	4, 0x90
	.type	_ZNK5Botan25Block_Cipher_Fixed_ParamsILm16ELm24ELm0ELm1ENS_11BlockCipherEE13decrypt_n_xexEPhPKhm,@function
_ZNK5Botan25Block_Cipher_Fixed_ParamsILm16ELm24ELm0ELm1ENS_11BlockCipherEE13decrypt_n_xexEPhPKhm: 
	.cfi_startproc

	push	rbp
.Lcfi276:
	.cfi_def_cfa_offset 16
	push	r15
.Lcfi277:
	.cfi_def_cfa_offset 24
	push	r14
.Lcfi278:
	.cfi_def_cfa_offset 32
	push	r13
.Lcfi279:
	.cfi_def_cfa_offset 40
	push	r12
.Lcfi280:
	.cfi_def_cfa_offset 48
	push	rbx
.Lcfi281:
	.cfi_def_cfa_offset 56
	push	rax
.Lcfi282:
	.cfi_def_cfa_offset 64
.Lcfi283:
	.cfi_offset rbx, -56
.Lcfi284:
	.cfi_offset r12, -48
.Lcfi285:
	.cfi_offset r13, -40
.Lcfi286:
	.cfi_offset r14, -32
.Lcfi287:
	.cfi_offset r15, -24
.Lcfi288:
	.cfi_offset rbp, -16
	mov	r14, rcx
	mov	r15, rdx
	mov	rbx, rsi
	mov	r12, rdi
	mov	eax, dword ptr [rip + x.92]
	mov	ecx, dword ptr [rip + y.93]
	lea	edx, [rax - 1]
	imul	edx, eax
	mov	eax, edx
	xor	eax, -2
	test	eax, edx
	sete	byte ptr [rsp + 6]
	cmp	ecx, 10
	setl	byte ptr [rsp + 7]
	mov	r13, r14
	shl	r13, 4
	mov	eax, -1716570347
	mov	ebp, -10410456
	jmp	.LBB41_1
.LBB41_8:                               
	movzx	ecx, byte ptr [rsp + 6]
	movzx	eax, byte ptr [rsp + 7]
	mov	edx, ecx
	xor	dl, al
	mov	edx, -1227381187
	mov	esi, -1130066612
	cmovne	edx, esi
	test	al, al
	mov	eax, edx
	cmovne	eax, esi
	test	cl, cl
	cmove	eax, edx
	.p2align	4, 0x90
.LBB41_1:                               
	mov	ecx, eax
	and	ecx, 2147483647
	cmp	ecx, 1017417035
	jle	.LBB41_2

	cmp	ecx, 1017417036
	je	.LBB41_9

	cmp	ecx, 2137073192
	jne	.LBB41_1
	jmp	.LBB41_7
	.p2align	4, 0x90
.LBB41_2:                               
	cmp	ecx, 430913301
	je	.LBB41_8

	cmp	ecx, 920102461
	jne	.LBB41_1

	mov	rdi, rbx
	mov	rsi, r15
	mov	rdx, r13
	call	_ZN5Botan7xor_bufEPhPKhm
	mov	rax, qword ptr [r12]
	mov	rdi, r12
	mov	rsi, rbx
	mov	rdx, rbx
	mov	rcx, r14
	call	qword ptr [rax + 80]
	mov	rdi, rbx
	mov	rsi, r15
	mov	rdx, r13
	call	_ZN5Botan7xor_bufEPhPKhm
	mov	eax, -1130066612
	jmp	.LBB41_1
.LBB41_9:                               
	mov	rdi, rbx
	mov	rsi, r15
	mov	rdx, r13
	call	_ZN5Botan7xor_bufEPhPKhm
	mov	rax, qword ptr [r12]
	mov	rdi, r12
	mov	rsi, rbx
	mov	rdx, rbx
	mov	rcx, r14
	call	qword ptr [rax + 80]
	mov	rdi, rbx
	mov	rsi, r15
	mov	rdx, r13
	call	_ZN5Botan7xor_bufEPhPKhm
	mov	eax, dword ptr [rip + x.92]
	lea	ecx, [rax - 1]
	imul	ecx, eax
	mov	eax, ecx
	xor	eax, -2
	and	eax, ecx
	sete	cl
	test	eax, eax
	mov	eax, -1227381187
	cmove	eax, ebp
	cmp	dword ptr [rip + y.93], 10
	setl	dl
	mov	esi, -1227381187
	cmovge	eax, esi
	xor	dl, cl
	cmovne	eax, ebp
	jmp	.LBB41_1
.LBB41_7:
	add	rsp, 8
	pop	rbx
	pop	r12
	pop	r13
	pop	r14
	pop	r15
	pop	rbp
	ret
.Lfunc_end41:
	.size	_ZNK5Botan25Block_Cipher_Fixed_ParamsILm16ELm24ELm0ELm1ENS_11BlockCipherEE13decrypt_n_xexEPhPKhm, .Lfunc_end41-_ZNK5Botan25Block_Cipher_Fixed_ParamsILm16ELm24ELm0ELm1ENS_11BlockCipherEE13decrypt_n_xexEPhPKhm
	.cfi_endproc

	.section	.text._ZNK5Botan7AES_19210new_objectEv,"axG",@progbits,_ZNK5Botan7AES_19210new_objectEv,comdat
	.weak	_ZNK5Botan7AES_19210new_objectEv 
	.p2align	4, 0x90
	.type	_ZNK5Botan7AES_19210new_objectEv,@function
_ZNK5Botan7AES_19210new_objectEv:       
.Lfunc_begin6:
	.cfi_startproc
	.cfi_personality 3, __gxx_personality_v0
	.cfi_lsda 3, .Lexception6

	push	r15
.Lcfi289:
	.cfi_def_cfa_offset 16
	push	r14
.Lcfi290:
	.cfi_def_cfa_offset 24
	push	rbx
.Lcfi291:
	.cfi_def_cfa_offset 32
	sub	rsp, 16
.Lcfi292:
	.cfi_def_cfa_offset 48
.Lcfi293:
	.cfi_offset rbx, -32
.Lcfi294:
	.cfi_offset r14, -24
.Lcfi295:
	.cfi_offset r15, -16
	mov	r14, rdi
	mov	edi, 56
	call	_Znwm
	mov	rbx, rax
	xorps	xmm0, xmm0
	movaps	xmmword ptr [rbx + 32], xmm0
	movaps	xmmword ptr [rbx + 16], xmm0
	movaps	xmmword ptr [rbx], xmm0
	mov	qword ptr [rbx + 48], 0
	mov	eax, dword ptr [rip + x.274]
	mov	ecx, dword ptr [rip + y.275]
	lea	edx, [rax - 1]
	imul	edx, eax
	not	edx
	or	edx, -2
	cmp	edx, -1
	sete	dl
	sete	byte ptr [rsp + 6]
	mov	esi, 1910839736
	mov	edi, -1418847962
	mov	eax, -1418847962
	cmove	eax, esi
	cmp	ecx, 10
	setl	cl
	setl	byte ptr [rsp + 7]
	cmovge	eax, edi
	xor	cl, dl
	cmovne	eax, esi
	mov	edx, -548719767
	mov	esi, 406934309
	jmp	.LBB42_1
.LBB42_4:                               
	movzx	edi, byte ptr [rsp + 6]
	movzx	edx, byte ptr [rsp + 7]
	mov	ecx, edi
	xor	cl, dl
	mov	ecx, -1418847962
	cmovne	ecx, esi
	test	dl, dl
	mov	edx, ecx
	cmovne	edx, esi
	test	dil, dil
	cmove	edx, ecx
	.p2align	4, 0x90
.LBB42_1:                               
	cmp	edx, 406934308
	jle	.LBB42_2

	cmp	edx, 406934309
	je	.LBB42_9

	cmp	edx, 1910839736
	jne	.LBB42_1
	jmp	.LBB42_7
	.p2align	4, 0x90
.LBB42_2:                               
	cmp	edx, -1418847962
	je	.LBB42_10

	cmp	edx, -548719767
	jne	.LBB42_1
	jmp	.LBB42_4
.LBB42_9:                               
	mov	qword ptr [rbx], _ZTVN5Botan18SymmetricAlgorithmE+16
	mov	edx, eax
	jmp	.LBB42_1
.LBB42_10:                              
	mov	qword ptr [rbx], _ZTVN5Botan18SymmetricAlgorithmE+16
	mov	edx, 406934309
	jmp	.LBB42_1
.LBB42_7:
	mov	qword ptr [rbx], _ZTVN5Botan7AES_192E+16
	xorps	xmm0, xmm0
	movups	xmmword ptr [rbx + 40], xmm0
	movups	xmmword ptr [rbx + 24], xmm0
	movups	xmmword ptr [rbx + 8], xmm0
.Ltmp18:
	lea	rdi, [rsp + 8]
	call	_ZNSt5tupleIJPN5Botan7AES_192ESt14default_deleteIS1_EEEC2IS2_S4_Lb1EEEv
.Ltmp19:

	lea	r15, [rsp + 8]
	mov	rdi, r15
	call	_ZNSt15__uniq_ptr_implIN5Botan7AES_192ESt14default_deleteIS1_EE6_M_ptrEv
	mov	qword ptr [rax], rbx
	mov	rdi, r14
	mov	rsi, r15
	call	_ZNSt10unique_ptrIN5Botan11BlockCipherESt14default_deleteIS1_EEC2INS0_7AES_192ES2_IS6_EvEEOS_IT_T0_E
	mov	rdi, r15
	call	_ZNSt10unique_ptrIN5Botan7AES_192ESt14default_deleteIS1_EED2Ev
	mov	rax, r14
	add	rsp, 16
	pop	rbx
	pop	r14
	pop	r15
	ret
.LBB42_11:
.Ltmp20:
	mov	rdi, rax
	call	__clang_call_terminate
.Lfunc_end42:
	.size	_ZNK5Botan7AES_19210new_objectEv, .Lfunc_end42-_ZNK5Botan7AES_19210new_objectEv
	.cfi_endproc
	.section	.gcc_except_table,"a",@progbits
	.p2align	2
GCC_except_table42:
.Lexception6:
	.byte	255                     
	.byte	3                       
	.asciz	"\242\200\200"          
	.byte	3                       
	.byte	26                      
	.long	.Lfunc_begin6-.Lfunc_begin6 
	.long	.Ltmp18-.Lfunc_begin6   
	.long	0                       
	.byte	0                       
	.long	.Ltmp18-.Lfunc_begin6   
	.long	.Ltmp19-.Ltmp18         
	.long	.Ltmp20-.Lfunc_begin6   
	.byte	1                       
	.byte	1                       

	.byte	0                       

	.long	0                       
	.p2align	2

	.section	.text._ZN5Botan7AES_256D2Ev,"axG",@progbits,_ZN5Botan7AES_256D2Ev,comdat
	.weak	_ZN5Botan7AES_256D2Ev   
	.p2align	4, 0x90
	.type	_ZN5Botan7AES_256D2Ev,@function
_ZN5Botan7AES_256D2Ev:                  

	push	rbx
	sub	rsp, 16
	mov	rbx, rdi
	mov	qword ptr [rbx], _ZTVN5Botan7AES_256E+16
	lea	rdi, [rbx + 32]
	call	_ZNSt6vectorIjN5Botan16secure_allocatorIjEEED2Ev
	add	rbx, 8
	mov	rdi, rbx
	call	_ZNSt6vectorIjN5Botan16secure_allocatorIjEEED2Ev
	mov	eax, dword ptr [rip + x.444]
	mov	ecx, dword ptr [rip + y.445]
	lea	edx, [rax - 1]
	imul	edx, eax
	not	edx
	or	edx, -2
	cmp	edx, -1
	sete	dl
	sete	byte ptr [rsp + 14]
	mov	esi, 246314230
	mov	edi, -257617555
	mov	eax, -257617555
	cmove	eax, esi
	cmp	ecx, 10
	setl	cl
	setl	byte ptr [rsp + 15]
	cmovge	eax, edi
	xor	cl, dl
	cmovne	eax, esi
	mov	edx, 286856290
	mov	esi, 788816002
	jmp	.LBB43_1
.LBB43_6:                               
	mov	edx, eax
	.p2align	4, 0x90
.LBB43_1:                               
	cmp	edx, 286856289
	jg	.LBB43_5

	cmp	edx, -257617555
	je	.LBB43_9

	cmp	edx, 246314230
	jne	.LBB43_1
	jmp	.LBB43_4
	.p2align	4, 0x90
.LBB43_5:                               
	cmp	edx, 788816002
	je	.LBB43_6

	cmp	edx, 286856290
	jne	.LBB43_1

	movzx	ecx, byte ptr [rsp + 14]
	movzx	edx, byte ptr [rsp + 15]
	mov	ebx, ecx
	xor	bl, dl
	mov	edi, -257617555
	cmovne	edi, esi
	test	dl, dl
	mov	edx, edi
	cmovne	edx, esi
	test	cl, cl
	cmove	edx, edi
	jmp	.LBB43_1
.LBB43_9:                               
	mov	edx, 788816002
	jmp	.LBB43_1
.LBB43_4:
	add	rsp, 16
	pop	rbx
	ret
.Lfunc_end43:
	.size	_ZN5Botan7AES_256D2Ev, .Lfunc_end43-_ZN5Botan7AES_256D2Ev

	.section	.text._ZN5Botan7AES_256D0Ev,"axG",@progbits,_ZN5Botan7AES_256D0Ev,comdat
	.weak	_ZN5Botan7AES_256D0Ev   
	.p2align	4, 0x90
	.type	_ZN5Botan7AES_256D0Ev,@function
_ZN5Botan7AES_256D0Ev:                  

	push	r14
	push	rbx
	push	rax
	mov	r14, rdi
	mov	qword ptr [r14], _ZTVN5Botan7AES_256E+16
	lea	rdi, [r14 + 32]
	call	_ZNSt6vectorIjN5Botan16secure_allocatorIjEEED2Ev
	lea	rdi, [r14 + 8]
	call	_ZNSt6vectorIjN5Botan16secure_allocatorIjEEED2Ev
	mov	eax, dword ptr [rip + x.444]
	mov	ecx, dword ptr [rip + y.445]
	lea	edx, [rax - 1]
	imul	edx, eax
	mov	esi, edx
	xor	esi, -2
	and	esi, edx
	sete	byte ptr [rsp + 6]
	sete	al
	cmp	ecx, 10
	setl	dl
	xor	dl, al
	mov	eax, 246314230
	mov	edx, -257617555
	cmovne	edx, eax
	test	esi, esi
	cmovne	eax, edx
	cmp	ecx, 10
	setl	byte ptr [rsp + 7]
	mov	r8d, -257617555
	cmovge	eax, edx
	mov	esi, 286856290
	mov	edi, 788816002
	jmp	.LBB44_1
.LBB44_6:                               
	mov	esi, eax
	.p2align	4, 0x90
.LBB44_1:                               
	cmp	esi, 286856289
	jg	.LBB44_5

	cmp	esi, -257617555
	je	.LBB44_9

	cmp	esi, 246314230
	jne	.LBB44_1
	jmp	.LBB44_4
	.p2align	4, 0x90
.LBB44_5:                               
	cmp	esi, 788816002
	je	.LBB44_6

	cmp	esi, 286856290
	jne	.LBB44_1

	movzx	ebx, byte ptr [rsp + 6]
	movzx	edx, byte ptr [rsp + 7]
	mov	ecx, ebx
	xor	cl, dl
	test	dl, dl
	mov	esi, -257617555
	cmovne	esi, edi
	test	bl, bl
	cmove	esi, r8d
	test	cl, cl
	cmovne	esi, edi
	jmp	.LBB44_1
.LBB44_9:                               
	mov	esi, 788816002
	jmp	.LBB44_1
.LBB44_4:
	mov	rdi, r14
	add	rsp, 8
	pop	rbx
	pop	r14
	jmp	_ZdlPv                  
.Lfunc_end44:
	.size	_ZN5Botan7AES_256D0Ev, .Lfunc_end44-_ZN5Botan7AES_256D0Ev

	.section	.rodata.cst16,"aM",@progbits,16
	.p2align	4               
.LCPI45_0:
	.quad	32                      
	.quad	32                      
	.section	.text._ZNK5Botan25Block_Cipher_Fixed_ParamsILm16ELm32ELm0ELm1ENS_11BlockCipherEE8key_specEv,"axG",@progbits,_ZNK5Botan25Block_Cipher_Fixed_ParamsILm16ELm32ELm0ELm1ENS_11BlockCipherEE8key_specEv,comdat
	.weak	_ZNK5Botan25Block_Cipher_Fixed_ParamsILm16ELm32ELm0ELm1ENS_11BlockCipherEE8key_specEv
	.p2align	4, 0x90
	.type	_ZNK5Botan25Block_Cipher_Fixed_ParamsILm16ELm32ELm0ELm1ENS_11BlockCipherEE8key_specEv,@function
_ZNK5Botan25Block_Cipher_Fixed_ParamsILm16ELm32ELm0ELm1ENS_11BlockCipherEE8key_specEv: 
	.cfi_startproc

	movaps	xmm0, xmmword ptr [rip + .LCPI45_0] 
	movups	xmmword ptr [rdi], xmm0
	mov	qword ptr [rdi + 16], 1
	mov	rax, rdi
	ret
.Lfunc_end45:
	.size	_ZNK5Botan25Block_Cipher_Fixed_ParamsILm16ELm32ELm0ELm1ENS_11BlockCipherEE8key_specEv, .Lfunc_end45-_ZNK5Botan25Block_Cipher_Fixed_ParamsILm16ELm32ELm0ELm1ENS_11BlockCipherEE8key_specEv
	.cfi_endproc

	.section	.text._ZNK5Botan7AES_2564nameB5cxx11Ev,"axG",@progbits,_ZNK5Botan7AES_2564nameB5cxx11Ev,comdat
	.weak	_ZNK5Botan7AES_2564nameB5cxx11Ev 
	.p2align	4, 0x90
	.type	_ZNK5Botan7AES_2564nameB5cxx11Ev,@function
_ZNK5Botan7AES_2564nameB5cxx11Ev:       
.Lfunc_begin7:
	.cfi_startproc
	.cfi_personality 3, __gxx_personality_v0
	.cfi_lsda 3, .Lexception7

	push	rbx
.Lcfi296:
	.cfi_def_cfa_offset 16
	sub	rsp, 16
.Lcfi297:
	.cfi_def_cfa_offset 32
.Lcfi298:
	.cfi_offset rbx, -16
	mov	rbx, rdi
.Ltmp21:
	lea	rdx, [rsp + 8]
	mov	esi, .L.str.13
	call	_ZNSt7__cxx1112basic_stringIcSt11char_traitsIcESaIcEEC2EPKcRKS3_
.Ltmp22:

	mov	rax, rbx
	add	rsp, 16
	pop	rbx
	ret
.LBB46_2:
.Ltmp23:
	mov	rdi, rax
	call	_Unwind_Resume
.Lfunc_end46:
	.size	_ZNK5Botan7AES_2564nameB5cxx11Ev, .Lfunc_end46-_ZNK5Botan7AES_2564nameB5cxx11Ev
	.cfi_endproc
	.section	.gcc_except_table,"a",@progbits
	.p2align	2
GCC_except_table46:
.Lexception7:
	.byte	255                     
	.byte	3                       
	.asciz	"\234"                  
	.byte	3                       
	.byte	26                      
	.long	.Ltmp21-.Lfunc_begin7   
	.long	.Ltmp22-.Ltmp21         
	.long	.Ltmp23-.Lfunc_begin7   
	.byte	0                       
	.long	.Ltmp22-.Lfunc_begin7   
	.long	.Lfunc_end46-.Ltmp22    
	.long	0                       
	.byte	0                       
	.p2align	2

	.section	.text._ZNK5Botan25Block_Cipher_Fixed_ParamsILm16ELm32ELm0ELm1ENS_11BlockCipherEE10block_sizeEv,"axG",@progbits,_ZNK5Botan25Block_Cipher_Fixed_ParamsILm16ELm32ELm0ELm1ENS_11BlockCipherEE10block_sizeEv,comdat
	.weak	_ZNK5Botan25Block_Cipher_Fixed_ParamsILm16ELm32ELm0ELm1ENS_11BlockCipherEE10block_sizeEv 
	.p2align	4, 0x90
	.type	_ZNK5Botan25Block_Cipher_Fixed_ParamsILm16ELm32ELm0ELm1ENS_11BlockCipherEE10block_sizeEv,@function
_ZNK5Botan25Block_Cipher_Fixed_ParamsILm16ELm32ELm0ELm1ENS_11BlockCipherEE10block_sizeEv: 

	mov	eax, 16
	ret
.Lfunc_end47:
	.size	_ZNK5Botan25Block_Cipher_Fixed_ParamsILm16ELm32ELm0ELm1ENS_11BlockCipherEE10block_sizeEv, .Lfunc_end47-_ZNK5Botan25Block_Cipher_Fixed_ParamsILm16ELm32ELm0ELm1ENS_11BlockCipherEE10block_sizeEv

	.section	.text._ZNK5Botan25Block_Cipher_Fixed_ParamsILm16ELm32ELm0ELm1ENS_11BlockCipherEE13encrypt_n_xexEPhPKhm,"axG",@progbits,_ZNK5Botan25Block_Cipher_Fixed_ParamsILm16ELm32ELm0ELm1ENS_11BlockCipherEE13encrypt_n_xexEPhPKhm,comdat
	.weak	_ZNK5Botan25Block_Cipher_Fixed_ParamsILm16ELm32ELm0ELm1ENS_11BlockCipherEE13encrypt_n_xexEPhPKhm 
	.p2align	4, 0x90
	.type	_ZNK5Botan25Block_Cipher_Fixed_ParamsILm16ELm32ELm0ELm1ENS_11BlockCipherEE13encrypt_n_xexEPhPKhm,@function
_ZNK5Botan25Block_Cipher_Fixed_ParamsILm16ELm32ELm0ELm1ENS_11BlockCipherEE13encrypt_n_xexEPhPKhm: 
	.cfi_startproc

	push	r15
.Lcfi299:
	.cfi_def_cfa_offset 16
	push	r14
.Lcfi300:
	.cfi_def_cfa_offset 24
	push	r13
.Lcfi301:
	.cfi_def_cfa_offset 32
	push	r12
.Lcfi302:
	.cfi_def_cfa_offset 40
	push	rbx
.Lcfi303:
	.cfi_def_cfa_offset 48
.Lcfi304:
	.cfi_offset rbx, -48
.Lcfi305:
	.cfi_offset r12, -40
.Lcfi306:
	.cfi_offset r13, -32
.Lcfi307:
	.cfi_offset r14, -24
.Lcfi308:
	.cfi_offset r15, -16
	mov	r15, rcx
	mov	r14, rdx
	mov	rbx, rsi
	mov	r12, rdi
	mov	r13, r15
	shl	r13, 4
	mov	rdi, rbx
	mov	rsi, r14
	mov	rdx, r13
	call	_ZN5Botan7xor_bufEPhPKhm
	mov	rax, qword ptr [r12]
	mov	rdi, r12
	mov	rsi, rbx
	mov	rdx, rbx
	mov	rcx, r15
	call	qword ptr [rax + 72]
	mov	rdi, rbx
	mov	rsi, r14
	mov	rdx, r13
	pop	rbx
	pop	r12
	pop	r13
	pop	r14
	pop	r15
	jmp	_ZN5Botan7xor_bufEPhPKhm 
.Lfunc_end48:
	.size	_ZNK5Botan25Block_Cipher_Fixed_ParamsILm16ELm32ELm0ELm1ENS_11BlockCipherEE13encrypt_n_xexEPhPKhm, .Lfunc_end48-_ZNK5Botan25Block_Cipher_Fixed_ParamsILm16ELm32ELm0ELm1ENS_11BlockCipherEE13encrypt_n_xexEPhPKhm
	.cfi_endproc

	.section	.text._ZNK5Botan25Block_Cipher_Fixed_ParamsILm16ELm32ELm0ELm1ENS_11BlockCipherEE13decrypt_n_xexEPhPKhm,"axG",@progbits,_ZNK5Botan25Block_Cipher_Fixed_ParamsILm16ELm32ELm0ELm1ENS_11BlockCipherEE13decrypt_n_xexEPhPKhm,comdat
	.weak	_ZNK5Botan25Block_Cipher_Fixed_ParamsILm16ELm32ELm0ELm1ENS_11BlockCipherEE13decrypt_n_xexEPhPKhm 
	.p2align	4, 0x90
	.type	_ZNK5Botan25Block_Cipher_Fixed_ParamsILm16ELm32ELm0ELm1ENS_11BlockCipherEE13decrypt_n_xexEPhPKhm,@function
_ZNK5Botan25Block_Cipher_Fixed_ParamsILm16ELm32ELm0ELm1ENS_11BlockCipherEE13decrypt_n_xexEPhPKhm: 
	.cfi_startproc

	push	r15
.Lcfi309:
	.cfi_def_cfa_offset 16
	push	r14
.Lcfi310:
	.cfi_def_cfa_offset 24
	push	r13
.Lcfi311:
	.cfi_def_cfa_offset 32
	push	r12
.Lcfi312:
	.cfi_def_cfa_offset 40
	push	rbx
.Lcfi313:
	.cfi_def_cfa_offset 48
.Lcfi314:
	.cfi_offset rbx, -48
.Lcfi315:
	.cfi_offset r12, -40
.Lcfi316:
	.cfi_offset r13, -32
.Lcfi317:
	.cfi_offset r14, -24
.Lcfi318:
	.cfi_offset r15, -16
	mov	r15, rcx
	mov	r14, rdx
	mov	rbx, rsi
	mov	r12, rdi
	mov	r13, r15
	shl	r13, 4
	mov	rdi, rbx
	mov	rsi, r14
	mov	rdx, r13
	call	_ZN5Botan7xor_bufEPhPKhm
	mov	rax, qword ptr [r12]
	mov	rdi, r12
	mov	rsi, rbx
	mov	rdx, rbx
	mov	rcx, r15
	call	qword ptr [rax + 80]
	mov	rdi, rbx
	mov	rsi, r14
	mov	rdx, r13
	pop	rbx
	pop	r12
	pop	r13
	pop	r14
	pop	r15
	jmp	_ZN5Botan7xor_bufEPhPKhm 
.Lfunc_end49:
	.size	_ZNK5Botan25Block_Cipher_Fixed_ParamsILm16ELm32ELm0ELm1ENS_11BlockCipherEE13decrypt_n_xexEPhPKhm, .Lfunc_end49-_ZNK5Botan25Block_Cipher_Fixed_ParamsILm16ELm32ELm0ELm1ENS_11BlockCipherEE13decrypt_n_xexEPhPKhm
	.cfi_endproc

	.section	.text._ZNK5Botan7AES_25610new_objectEv,"axG",@progbits,_ZNK5Botan7AES_25610new_objectEv,comdat
	.weak	_ZNK5Botan7AES_25610new_objectEv 
	.p2align	4, 0x90
	.type	_ZNK5Botan7AES_25610new_objectEv,@function
_ZNK5Botan7AES_25610new_objectEv:       
	.cfi_startproc

	push	rbp
.Lcfi319:
	.cfi_def_cfa_offset 16
.Lcfi320:
	.cfi_offset rbp, -16
	mov	rbp, rsp
.Lcfi321:
	.cfi_def_cfa_register rbp
	push	r15
	push	r14
	push	r13
	push	r12
	push	rbx
	push	rax
.Lcfi322:
	.cfi_offset rbx, -56
.Lcfi323:
	.cfi_offset r12, -48
.Lcfi324:
	.cfi_offset r13, -40
.Lcfi325:
	.cfi_offset r14, -32
.Lcfi326:
	.cfi_offset r15, -24
	mov	r14, rdi
	mov	eax, dword ptr [rip + x.108]
	mov	ecx, eax
	neg	ecx
	not	ecx
	imul	ecx, eax
	not	ecx
	or	ecx, -2
	cmp	ecx, -1
	sete	byte ptr [rbp - 41]
	mov	eax, dword ptr [rip + y.109]
	cmp	eax, 10
	setl	byte ptr [rbp - 42]
	mov	eax, -1789620705
	mov	r12d, -1514359135
	mov	r13d, 1089440074
	jmp	.LBB50_1
.LBB50_12:                              
	mov	cl, byte ptr [rbp - 41]
	mov	al, byte ptr [rbp - 42]
	mov	edx, ecx
	xor	dl, al
	test	al, al
	mov	eax, -512046242
	mov	esi, -912257275
	cmovne	eax, esi
	test	cl, cl
	mov	ecx, -512046242
	cmove	eax, ecx
	test	dl, dl
	cmovne	eax, esi
	.p2align	4, 0x90
.LBB50_1:                               


	mov	ecx, eax
	and	ecx, 2147483647
	cmp	ecx, 1235226372
	jg	.LBB50_5

	cmp	ecx, 357862943
	je	.LBB50_12

	cmp	ecx, 695039848
	jne	.LBB50_1
	jmp	.LBB50_4
	.p2align	4, 0x90
.LBB50_5:                               
	cmp	ecx, 1235226373
	je	.LBB50_13

	cmp	ecx, 1635437406
	jne	.LBB50_1

	mov	r15, rsp
	add	r15, -16
	mov	rsp, r15
	mov	edi, 56
	call	_Znwm
	mov	rbx, rax
	xorps	xmm0, xmm0
	movaps	xmmword ptr [rbx + 32], xmm0
	movaps	xmmword ptr [rbx + 16], xmm0
	movaps	xmmword ptr [rbx], xmm0
	mov	qword ptr [rbx + 48], 0
	mov	rdi, rbx
	call	_ZN5Botan25Block_Cipher_Fixed_ParamsILm16ELm32ELm0ELm1ENS_11BlockCipherEEC2Ev
	mov	qword ptr [rbx], _ZTVN5Botan7AES_256E+16
	xorps	xmm0, xmm0
	movups	xmmword ptr [rbx + 40], xmm0
	movups	xmmword ptr [rbx + 24], xmm0
	movups	xmmword ptr [rbx + 8], xmm0
	mov	eax, dword ptr [rip + x.456]
	mov	ecx, dword ptr [rip + y.457]
	mov	edx, eax
	neg	edx
	not	edx
	imul	edx, eax
	mov	eax, edx
	xor	eax, -2
	and	eax, edx
	sete	byte ptr [rbp - 45]
	sete	dl
	test	eax, eax
	mov	eax, -1514359135
	mov	esi, 40965574
	cmove	eax, esi
	cmp	ecx, 10
	setl	cl
	setl	byte ptr [rbp - 46]
	cmovge	eax, r12d
	xor	cl, dl
	cmovne	eax, esi
	mov	ecx, 1510090404
	jmp	.LBB50_8
.LBB50_13:                              
	mov	r15, rsp
	add	r15, -16
	mov	rsp, r15
	mov	edi, 56
	call	_Znwm
	mov	rbx, rax
	xorps	xmm0, xmm0
	movaps	xmmword ptr [rbx + 32], xmm0
	movaps	xmmword ptr [rbx + 16], xmm0
	movaps	xmmword ptr [rbx], xmm0
	mov	qword ptr [rbx + 48], 0
	mov	rdi, rbx
	call	_ZN5Botan25Block_Cipher_Fixed_ParamsILm16ELm32ELm0ELm1ENS_11BlockCipherEEC2Ev
	mov	qword ptr [rbx], _ZTVN5Botan7AES_256E+16
	xorps	xmm0, xmm0
	movups	xmmword ptr [rbx + 40], xmm0
	movups	xmmword ptr [rbx + 24], xmm0
	movups	xmmword ptr [rbx + 8], xmm0
	mov	eax, dword ptr [rip + x.456]
	mov	ecx, dword ptr [rip + y.457]
	lea	edx, [rax - 1]
	imul	edx, eax
	mov	eax, edx
	xor	eax, -2
	and	eax, edx
	sete	byte ptr [rbp - 43]
	sete	dl
	test	eax, eax
	mov	eax, -1514359135
	mov	esi, 40965574
	cmove	eax, esi
	cmp	ecx, 10
	setl	cl
	setl	byte ptr [rbp - 44]
	cmovge	eax, r12d
	xor	cl, dl
	cmovne	eax, esi
	mov	ecx, 1510090404
	jmp	.LBB50_14
.LBB50_24:                              
	mov	ecx, eax
	.p2align	4, 0x90
.LBB50_8:                               

	cmp	ecx, 1089440073
	jg	.LBB50_23

	cmp	ecx, -1514359135
	je	.LBB50_27

	cmp	ecx, 40965574
	jne	.LBB50_8
	jmp	.LBB50_11
	.p2align	4, 0x90
.LBB50_23:                              
	cmp	ecx, 1089440074
	je	.LBB50_24

	cmp	ecx, 1510090404
	jne	.LBB50_8

	movzx	esi, byte ptr [rbp - 45]
	movzx	ecx, byte ptr [rbp - 46]
	mov	edx, esi
	xor	dl, cl
	test	cl, cl
	mov	ecx, -1514359135
	cmovne	ecx, r13d
	test	sil, sil
	cmove	ecx, r12d
	test	dl, dl
	cmovne	ecx, r13d
	jmp	.LBB50_8
.LBB50_27:                              
	mov	ecx, 1089440074
	jmp	.LBB50_8
.LBB50_19:                              
	mov	ecx, eax
	.p2align	4, 0x90
.LBB50_14:                              

	cmp	ecx, 1089440073
	jg	.LBB50_18

	cmp	ecx, -1514359135
	je	.LBB50_22

	cmp	ecx, 40965574
	jne	.LBB50_14
	jmp	.LBB50_17
	.p2align	4, 0x90
.LBB50_18:                              
	cmp	ecx, 1089440074
	je	.LBB50_19

	cmp	ecx, 1510090404
	jne	.LBB50_14

	movzx	esi, byte ptr [rbp - 43]
	movzx	ecx, byte ptr [rbp - 44]
	mov	edx, esi
	xor	dl, cl
	test	cl, cl
	mov	ecx, -1514359135
	cmovne	ecx, r13d
	test	sil, sil
	cmove	ecx, r12d
	test	dl, dl
	cmovne	ecx, r13d
	jmp	.LBB50_14
.LBB50_22:                              
	mov	ecx, 1089440074
	jmp	.LBB50_14
.LBB50_11:                              
	mov	qword ptr [r15], rbx
	mov	rdi, r14
	mov	rsi, r15
	call	_ZNSt10unique_ptrIN5Botan11BlockCipherESt14default_deleteIS1_EEC2INS0_7AES_256ES2_IS6_EvEEOS_IT_T0_E
	mov	rdi, r15
	call	_ZNSt10unique_ptrIN5Botan7AES_256ESt14default_deleteIS1_EED2Ev
	mov	eax, -912257275
	jmp	.LBB50_1
.LBB50_17:                              
	mov	qword ptr [r15], rbx
	mov	rdi, r14
	mov	rsi, r15
	call	_ZNSt10unique_ptrIN5Botan11BlockCipherESt14default_deleteIS1_EEC2INS0_7AES_256ES2_IS6_EvEEOS_IT_T0_E
	mov	rdi, r15
	call	_ZNSt10unique_ptrIN5Botan7AES_256ESt14default_deleteIS1_EED2Ev
	mov	eax, dword ptr [rip + x.108]
	mov	ecx, dword ptr [rip + y.109]
	lea	edx, [rax - 1]
	imul	edx, eax
	not	edx
	or	edx, -2
	cmp	edx, -1
	sete	al
	cmp	ecx, 10
	setl	bl
	xor	bl, al
	mov	esi, -512046242
	mov	edi, -1452443800
	cmovne	esi, edi
	cmp	edx, -1
	mov	eax, esi
	cmove	eax, edi
	cmp	ecx, 10
	cmovge	eax, esi
	jmp	.LBB50_1
.LBB50_4:
	mov	rax, r14
	lea	rsp, [rbp - 40]
	pop	rbx
	pop	r12
	pop	r13
	pop	r14
	pop	r15
	pop	rbp
	ret
.Lfunc_end50:
	.size	_ZNK5Botan7AES_25610new_objectEv, .Lfunc_end50-_ZNK5Botan7AES_25610new_objectEv
	.cfi_endproc

	.section	.text._ZN5Botan5CPUID9has_ssse3Ev,"axG",@progbits,_ZN5Botan5CPUID9has_ssse3Ev,comdat
	.weak	_ZN5Botan5CPUID9has_ssse3Ev 
	.p2align	4, 0x90
	.type	_ZN5Botan5CPUID9has_ssse3Ev,@function
_ZN5Botan5CPUID9has_ssse3Ev:            
	.cfi_startproc

	push	rbp
.Lcfi327:
	.cfi_def_cfa_offset 16
	push	r14
.Lcfi328:
	.cfi_def_cfa_offset 24
	push	rbx
.Lcfi329:
	.cfi_def_cfa_offset 32
	sub	rsp, 16
.Lcfi330:
	.cfi_def_cfa_offset 48
.Lcfi331:
	.cfi_offset rbx, -32
.Lcfi332:
	.cfi_offset r14, -24
.Lcfi333:
	.cfi_offset rbp, -16
	mov	eax, dword ptr [rip + x.110]
	lea	ecx, [rax - 1]
	imul	ecx, eax
	mov	eax, ecx
	xor	eax, -2
	test	eax, ecx
	sete	byte ptr [rsp + 13]
	mov	eax, dword ptr [rip + y.111]
	cmp	eax, 10
	setl	byte ptr [rsp + 14]
	mov	ecx, -1126152470
	mov	r14d, -428576977
	mov	ebp, -1712937491
	jmp	.LBB51_1
.LBB51_4:                               
	movzx	eax, byte ptr [rsp + 13]
	movzx	ecx, byte ptr [rsp + 14]
	mov	edx, eax
	xor	dl, cl
	mov	edx, -885710381
	cmovne	edx, ebp
	test	cl, cl
	mov	ecx, edx
	cmovne	ecx, ebp
	test	al, al
	cmove	ecx, edx
	.p2align	4, 0x90
.LBB51_1:                               
	mov	eax, ecx
	and	eax, 2147483647
	cmp	eax, 1261773266
	jle	.LBB51_2

	cmp	eax, 1261773267
	je	.LBB51_8

	cmp	eax, 1718906671
	jne	.LBB51_1
	jmp	.LBB51_7
	.p2align	4, 0x90
.LBB51_2:                               
	cmp	eax, 434546157
	je	.LBB51_9

	cmp	eax, 1021331178
	jne	.LBB51_1
	jmp	.LBB51_4
.LBB51_8:                               
	mov	edi, 2
	call	_ZN5Botan5CPUID13has_cpuid_bitENS0_10CPUID_bitsE
	mov	ecx, -1712937491
	jmp	.LBB51_1
.LBB51_9:                               
	mov	edi, 2
	call	_ZN5Botan5CPUID13has_cpuid_bitENS0_10CPUID_bitsE
	mov	ecx, dword ptr [rip + x.110]
	mov	edx, dword ptr [rip + y.111]
	lea	esi, [rcx - 1]
	imul	esi, ecx
	not	esi
	or	esi, -2
	cmp	esi, -1
	sete	cl
	cmp	edx, 10
	setl	bl
	xor	bl, cl
	mov	edi, -885710381
	cmovne	edi, r14d
	cmp	esi, -1
	mov	ecx, edi
	cmove	ecx, r14d
	cmp	edx, 10
	mov	byte ptr [rsp + 15], al
	cmovge	ecx, edi
	jmp	.LBB51_1
.LBB51_7:
	mov	al, byte ptr [rsp + 15]
	add	rsp, 16
	pop	rbx
	pop	r14
	pop	rbp
	ret
.Lfunc_end51:
	.size	_ZN5Botan5CPUID9has_ssse3Ev, .Lfunc_end51-_ZN5Botan5CPUID9has_ssse3Ev
	.cfi_endproc

	.section	.text._ZN5Botan5CPUID13has_cpuid_bitENS0_10CPUID_bitsE,"axG",@progbits,_ZN5Botan5CPUID13has_cpuid_bitENS0_10CPUID_bitsE,comdat
	.weak	_ZN5Botan5CPUID13has_cpuid_bitENS0_10CPUID_bitsE 
	.p2align	4, 0x90
	.type	_ZN5Botan5CPUID13has_cpuid_bitENS0_10CPUID_bitsE,@function
_ZN5Botan5CPUID13has_cpuid_bitENS0_10CPUID_bitsE: 
.Lfunc_begin8:
	.cfi_startproc
	.cfi_personality 3, __gxx_personality_v0
	.cfi_lsda 3, .Lexception8

	push	rbp
.Lcfi334:
	.cfi_def_cfa_offset 16
	push	r15
.Lcfi335:
	.cfi_def_cfa_offset 24
	push	r14
.Lcfi336:
	.cfi_def_cfa_offset 32
	push	r13
.Lcfi337:
	.cfi_def_cfa_offset 40
	push	r12
.Lcfi338:
	.cfi_def_cfa_offset 48
	push	rbx
.Lcfi339:
	.cfi_def_cfa_offset 56
	push	rax
.Lcfi340:
	.cfi_def_cfa_offset 64
.Lcfi341:
	.cfi_offset rbx, -56
.Lcfi342:
	.cfi_offset r12, -48
.Lcfi343:
	.cfi_offset r13, -40
.Lcfi344:
	.cfi_offset r14, -32
.Lcfi345:
	.cfi_offset r15, -24
.Lcfi346:
	.cfi_offset rbp, -16
	mov	r13, rdi
	mov	eax, dword ptr [rip + x.112]
	lea	ecx, [rax - 1]
	imul	ecx, eax
	mov	eax, ecx
	xor	eax, -2
	test	eax, ecx
	sete	byte ptr [rsp + 5]
	mov	eax, dword ptr [rip + y.113]
	cmp	eax, 10
	setl	byte ptr [rsp + 6]
	mov	ebp, 98243642
	mov	r15d, 1646616183
	mov	r14d, 920569637
	mov	r12d, 1732216072
	jmp	.LBB52_1
.LBB52_11:                              
	movzx	eax, byte ptr [rsp + 5]
	movzx	ecx, byte ptr [rsp + 6]
	mov	edx, eax
	xor	dl, cl
	test	cl, cl
	mov	ebp, 920569637
	cmovne	ebp, r15d
	test	al, al
	cmove	ebp, r14d
	test	dl, dl
	cmovne	ebp, r15d
	.p2align	4, 0x90
.LBB52_1:                               
	mov	eax, ebp
	and	eax, 2147483647
	cmp	eax, 1646616182
	jg	.LBB52_8

	cmp	eax, 98243642
	je	.LBB52_11

	cmp	eax, 920569637
	jne	.LBB52_1

	mov	al, byte ptr [rip + _ZGVZN5Botan5CPUID5stateEvE7g_cpuid]
	mov	ebp, 1646616183
	test	al, al
	jne	.LBB52_1

	mov	edi, _ZGVZN5Botan5CPUID5stateEvE7g_cpuid
	call	__cxa_guard_acquire
	test	eax, eax
	je	.LBB52_1

.Ltmp24:
	mov	edi, _ZZN5Botan5CPUID5stateEvE7g_cpuid
	call	_ZN5Botan5CPUID10CPUID_DataC1Ev
.Ltmp25:

	mov	edi, _ZGVZN5Botan5CPUID5stateEvE7g_cpuid
	call	__cxa_guard_release
	jmp	.LBB52_1
	.p2align	4, 0x90
.LBB52_8:                               
	cmp	eax, 1646616183
	je	.LBB52_12

	cmp	eax, 1732216072
	jne	.LBB52_1
	jmp	.LBB52_10
.LBB52_12:                              
	mov	al, byte ptr [rip + _ZGVZN5Botan5CPUID5stateEvE7g_cpuid]
	test	al, al
	jne	.LBB52_16

	mov	edi, _ZGVZN5Botan5CPUID5stateEvE7g_cpuid
	call	__cxa_guard_acquire
	test	eax, eax
	je	.LBB52_16

.Ltmp27:
	mov	edi, _ZZN5Botan5CPUID5stateEvE7g_cpuid
	call	_ZN5Botan5CPUID10CPUID_DataC1Ev
.Ltmp28:

	mov	edi, _ZGVZN5Botan5CPUID5stateEvE7g_cpuid
	call	__cxa_guard_release
.LBB52_16:                              
	mov	eax, dword ptr [rip + x.112]
	mov	ecx, dword ptr [rip + y.113]
	mov	edx, eax
	neg	edx
	not	edx
	imul	edx, eax
	not	edx
	or	edx, -2
	cmp	edx, -1
	sete	al
	cmp	ecx, 10
	setl	bl
	xor	bl, al
	mov	eax, 920569637
	cmovne	eax, r12d
	cmp	edx, -1
	mov	ebp, eax
	cmove	ebp, r12d
	cmp	ecx, 10
	mov	rcx, qword ptr [rip + _ZZN5Botan5CPUID5stateEvE7g_cpuid]
	not	rcx
	mov	rdx, r13
	not	rdx
	cmovge	ebp, eax
	or	rdx, rcx
	not	rdx
	cmp	rdx, r13
	sete	byte ptr [rsp + 7]
	jmp	.LBB52_1
.LBB52_10:
	mov	al, byte ptr [rsp + 7]
	add	rsp, 8
	pop	rbx
	pop	r12
	pop	r13
	pop	r14
	pop	r15
	pop	rbp
	ret
.LBB52_19:
.Ltmp29:
	jmp	.LBB52_18
.LBB52_17:
.Ltmp26:
.LBB52_18:
	mov	rbx, rax
	mov	edi, _ZGVZN5Botan5CPUID5stateEvE7g_cpuid
	call	__cxa_guard_abort
	mov	rdi, rbx
	call	_Unwind_Resume
.Lfunc_end52:
	.size	_ZN5Botan5CPUID13has_cpuid_bitENS0_10CPUID_bitsE, .Lfunc_end52-_ZN5Botan5CPUID13has_cpuid_bitENS0_10CPUID_bitsE
	.cfi_endproc
	.section	.gcc_except_table,"a",@progbits
	.p2align	2
GCC_except_table52:
.Lexception8:
	.byte	255                     
	.byte	3                       
	.byte	41                      
	.byte	3                       
	.byte	39                      
	.long	.Ltmp24-.Lfunc_begin8   
	.long	.Ltmp25-.Ltmp24         
	.long	.Ltmp26-.Lfunc_begin8   
	.byte	0                       
	.long	.Ltmp27-.Lfunc_begin8   
	.long	.Ltmp28-.Ltmp27         
	.long	.Ltmp29-.Lfunc_begin8   
	.byte	0                       
	.long	.Ltmp28-.Lfunc_begin8   
	.long	.Lfunc_end52-.Ltmp28    
	.long	0                       
	.byte	0                       
	.p2align	2

	.text
	.p2align	4, 0x90         
	.type	_ZN5Botan12_GLOBAL__N_19ks_expandEPjPKjm,@function
_ZN5Botan12_GLOBAL__N_19ks_expandEPjPKjm: 

	push	rbp
	push	r15
	push	r14
	push	r12
	push	rbx
	xor	r15d, r15d
	mov	r8d, 1694330005
	mov	r9d, -1966957537
	movabs	r10, 5616151885254060257
	mov	r14d, -756959261
	mov	r11d, -395007873
	jmp	.LBB53_1
	.p2align	4, 0x90
.LBB53_88:                              
	mov	r15, qword ptr [rsp - 8]
.LBB53_1:                               

	mov	ebx, 658368203
	jmp	.LBB53_2
.LBB53_14:                              
	mov	qword ptr [rsp - 16], r15
	mov	rbx, qword ptr [rsp - 16]
	cmp	rbx, 4
	mov	ebx, 189718576
	cmove	ebx, r11d
	.p2align	4, 0x90
.LBB53_2:                               

	cmp	ebx, 189718575
	jg	.LBB53_11

	cmp	ebx, -1966957537
	je	.LBB53_89

	cmp	ebx, -756959261
	je	.LBB53_88

	cmp	ebx, -395007873
	jne	.LBB53_2
	jmp	.LBB53_6
	.p2align	4, 0x90
.LBB53_11:                              
	cmp	ebx, 189718576
	je	.LBB53_86

	cmp	ebx, 1694330005
	je	.LBB53_87

	cmp	ebx, 658368203
	jne	.LBB53_2
	jmp	.LBB53_14
.LBB53_89:                              
	mov	rax, qword ptr [rsp - 16]
	mov	rax, qword ptr [rsp - 16]
	add	rax, rdx
	mov	eax, dword ptr [rsi + 4*rax]
	mov	rcx, qword ptr [rsp - 16]
	mov	dword ptr [rdi + 4*rcx], eax
	mov	rax, qword ptr [rsp - 16]
	mov	rax, qword ptr [rsp - 16]
	mov	rax, qword ptr [rsp - 16]
	mov	rax, qword ptr [rsp - 16]
	mov	rax, qword ptr [rsp - 16]
	mov	rax, qword ptr [rsp - 16]
	mov	rax, qword ptr [rsp - 16]
	mov	ebx, 1694330005
	jmp	.LBB53_2
.LBB53_86:                              
	mov	ebx, dword ptr [rip + x.118]
	mov	ebp, ebx
	neg	ebp
	not	ebp
	imul	ebp, ebx
	mov	ebx, ebp
	xor	ebx, -2
	and	ebx, ebp
	sete	cl
	test	ebx, ebx
	mov	ebx, -1966957537
	cmove	ebx, r8d
	cmp	dword ptr [rip + y.119], 10
	setl	al
	cmovge	ebx, r9d
	xor	al, cl
	cmovne	ebx, r8d
	jmp	.LBB53_2
.LBB53_87:                              
	mov	rax, qword ptr [rsp - 16]
	add	rax, rdx
	mov	eax, dword ptr [rsi + 4*rax]
	mov	rcx, qword ptr [rsp - 16]
	mov	dword ptr [rdi + 4*rcx], eax
	mov	rax, qword ptr [rsp - 16]
	lea	rax, [rax + r10 + 1]
	sub	rax, r10
	mov	qword ptr [rsp - 8], rax
	mov	eax, dword ptr [rip + x.118]
	mov	ecx, eax
	neg	ecx
	not	ecx
	imul	ecx, eax
	mov	eax, ecx
	xor	eax, -2
	and	eax, ecx
	sete	cl
	test	eax, eax
	mov	ebx, -1966957537
	cmove	ebx, r14d
	cmp	dword ptr [rip + y.119], 10
	setl	al
	cmovge	ebx, r9d
	xor	al, cl
	cmovne	ebx, r14d
	jmp	.LBB53_2
.LBB53_6:
	mov	eax, dword ptr [rip + x.142]
	mov	ecx, eax
	neg	ecx
	not	ecx
	imul	ecx, eax
	not	ecx
	or	ecx, -2
	cmp	ecx, -1
	sete	byte ptr [rsp - 18]
	mov	eax, dword ptr [rip + y.143]
	cmp	eax, 10
	setl	byte ptr [rsp - 17]
	mov	esi, -2119537358
	mov	r9d, -1520381608
	mov	r8d, 91198568
	mov	r10d, 1764690740
	jmp	.LBB53_7
.LBB53_22:                              
	movzx	eax, byte ptr [rsp - 18]
	movzx	ecx, byte ptr [rsp - 17]
	mov	ebx, eax
	xor	bl, cl
	test	cl, cl
	mov	esi, 91198568
	cmovne	esi, r9d
	test	al, al
	cmove	esi, r8d
	test	bl, bl
	cmovne	esi, r9d
	.p2align	4, 0x90
.LBB53_7:                               
	cmp	esi, 91198567
	jle	.LBB53_8

	cmp	esi, 91198568
	je	.LBB53_23

	cmp	esi, 1764690740
	jne	.LBB53_7
	jmp	.LBB53_17
	.p2align	4, 0x90
.LBB53_8:                               
	cmp	esi, -2119537358
	je	.LBB53_22

	cmp	esi, -1520381608
	jne	.LBB53_7

	mov	r11d, dword ptr [rdi]
	mov	eax, dword ptr [rdi + 4]
	mov	esi, eax
	shr	esi
	mov	ecx, esi
	not	ecx
	and	ecx, r11d
	mov	ebp, r11d
	not	ebp
	and	esi, ebp
	or	esi, ecx
	mov	ecx, esi
	not	ecx
	or	ecx, -1431655766
	and	esi, 1431655765
	lea	ebx, [rsi + rsi]
	mov	edx, ebx
	not	edx
	and	edx, eax
	not	eax
	and	eax, ebx
	or	eax, edx
	mov	dword ptr [rdi + 4], eax
	and	ecx, r11d
	and	esi, ebp
	or	esi, ecx
	mov	dword ptr [rdi], esi
	mov	eax, dword ptr [rip + x.142]
	mov	ecx, dword ptr [rip + y.143]
	lea	edx, [rax - 1]
	imul	edx, eax
	not	edx
	or	edx, -2
	cmp	edx, -1
	sete	al
	cmp	ecx, 10
	setl	bl
	xor	bl, al
	mov	eax, 91198568
	cmovne	eax, r10d
	cmp	edx, -1
	mov	esi, eax
	cmove	esi, r10d
	cmp	ecx, 10
	cmovge	esi, eax
	jmp	.LBB53_7
.LBB53_23:                              
	mov	ebx, dword ptr [rdi]
	mov	ebp, dword ptr [rdi + 4]
	mov	eax, ebp
	shr	eax
	mov	ecx, eax
	not	ecx
	and	ecx, 824661473
	and	eax, 1322822174
	or	eax, ecx
	mov	esi, ebx
	not	esi
	mov	ecx, esi
	and	ecx, 824661473
	mov	edx, ebx
	and	edx, -824661474
	or	edx, ecx
	xor	edx, eax
	mov	eax, edx
	xor	eax, -1431655766
	and	eax, edx
	lea	ecx, [rax + rax]
	mov	edx, ecx
	not	edx
	and	edx, ebp
	not	ebp
	and	ebp, ecx
	or	ebp, edx
	mov	dword ptr [rdi + 4], ebp
	mov	ecx, eax
	not	ecx
	and	ecx, ebx
	and	eax, esi
	or	eax, ecx
	mov	dword ptr [rdi], eax
	mov	esi, -1520381608
	jmp	.LBB53_7
.LBB53_17:
	mov	eax, dword ptr [rip + x.142]
	mov	r10d, dword ptr [rip + y.143]
	lea	r14d, [rax - 1]
	imul	r14d, eax
	mov	r11d, r14d
	xor	r11d, -2
	mov	eax, r11d
	and	eax, r14d
	sete	byte ptr [rsp - 18]
	sete	bl
	cmp	r10d, 10
	setl	dl
	xor	dl, bl
	mov	r15d, 1764690740
	mov	edx, 91198568
	cmovne	edx, r15d
	test	eax, eax
	cmovne	r15d, edx
	cmp	r10d, 10
	setl	byte ptr [rsp - 17]
	mov	r8d, 91198568
	cmovge	r15d, edx
	mov	esi, -2119537358
	mov	r9d, -1520381608
	jmp	.LBB53_18
.LBB53_31:                              
	movzx	eax, byte ptr [rsp - 18]
	movzx	edx, byte ptr [rsp - 17]
	mov	ebx, eax
	xor	bl, dl
	test	dl, dl
	mov	esi, 91198568
	cmovne	esi, r9d
	test	al, al
	cmove	esi, r8d
	test	bl, bl
	cmovne	esi, r9d
	.p2align	4, 0x90
.LBB53_18:                              
	cmp	esi, 91198567
	jle	.LBB53_19

	cmp	esi, 91198568
	je	.LBB53_32

	cmp	esi, 1764690740
	jne	.LBB53_18
	jmp	.LBB53_26
	.p2align	4, 0x90
.LBB53_19:                              
	cmp	esi, -2119537358
	je	.LBB53_31

	cmp	esi, -1520381608
	jne	.LBB53_18

	mov	ebx, dword ptr [rdi + 8]
	mov	ecx, dword ptr [rdi + 12]
	mov	edx, ecx
	shr	edx
	mov	eax, edx
	not	eax
	and	eax, ebx
	mov	esi, ebx
	not	esi
	and	edx, esi
	or	edx, eax
	mov	eax, edx
	xor	eax, -1431655766
	and	eax, edx
	lea	ebp, [rax + rax]
	mov	edx, ebp
	not	edx
	and	edx, ecx
	not	ecx
	and	ecx, ebp
	or	ecx, edx
	mov	dword ptr [rdi + 12], ecx
	mov	ecx, eax
	not	ecx
	and	ecx, 1049267552
	and	eax, -1049267553
	or	eax, ecx
	and	esi, 1049267552
	and	ebx, -1049267553
	or	ebx, esi
	xor	ebx, eax
	mov	dword ptr [rdi + 8], ebx
	mov	esi, r15d
	jmp	.LBB53_18
.LBB53_32:                              
	mov	r12d, dword ptr [rdi + 8]
	mov	eax, dword ptr [rdi + 12]
	mov	esi, eax
	shr	esi
	mov	ecx, esi
	not	ecx
	and	ecx, r12d
	mov	edx, r12d
	not	edx
	and	esi, edx
	or	esi, ecx
	mov	ecx, esi
	not	ecx
	or	ecx, -1431655766
	and	esi, 1431655765
	lea	ebx, [rsi + rsi]
	mov	ebp, ebx
	not	ebp
	and	ebp, eax
	not	eax
	and	eax, ebx
	or	eax, ebp
	mov	dword ptr [rdi + 12], eax
	and	ecx, r12d
	and	esi, edx
	or	esi, ecx
	mov	dword ptr [rdi + 8], esi
	mov	esi, -1520381608
	jmp	.LBB53_18
.LBB53_26:
	test	r11d, r14d
	sete	byte ptr [rsp - 18]
	cmp	r10d, 10
	setl	byte ptr [rsp - 17]
	mov	esi, -2119537358
	mov	r9d, -1520381608
	mov	r8d, 91198568
	mov	r10d, 1764690740
	jmp	.LBB53_27
.LBB53_40:                              
	movzx	eax, byte ptr [rsp - 18]
	movzx	ecx, byte ptr [rsp - 17]
	mov	ebx, eax
	xor	bl, cl
	mov	ebp, 91198568
	cmovne	ebp, r9d
	test	cl, cl
	mov	esi, ebp
	cmovne	esi, r9d
	test	al, al
	cmove	esi, ebp
	.p2align	4, 0x90
.LBB53_27:                              
	cmp	esi, 91198567
	jle	.LBB53_28

	cmp	esi, 91198568
	je	.LBB53_41

	cmp	esi, 1764690740
	jne	.LBB53_27
	jmp	.LBB53_35
	.p2align	4, 0x90
.LBB53_28:                              
	cmp	esi, -2119537358
	je	.LBB53_40

	cmp	esi, -1520381608
	jne	.LBB53_27

	mov	ebx, dword ptr [rdi]
	mov	eax, dword ptr [rdi + 8]
	mov	ecx, eax
	shr	ecx, 2
	mov	ebp, ecx
	not	ebp
	and	ebp, ebx
	mov	esi, ebx
	not	esi
	and	ecx, esi
	or	ecx, ebp
	mov	ebp, ecx
	xor	ebp, -858993460
	and	ebp, ecx
	lea	edx, [4*rbp]
	mov	ecx, edx
	not	ecx
	and	ecx, eax
	not	eax
	and	eax, edx
	or	eax, ecx
	mov	dword ptr [rdi + 8], eax
	mov	eax, ebp
	not	eax
	and	eax, ebx
	and	ebp, esi
	or	ebp, eax
	mov	dword ptr [rdi], ebp
	mov	eax, dword ptr [rip + x.142]
	lea	ecx, [rax - 1]
	imul	ecx, eax
	not	ecx
	or	ecx, -2
	cmp	ecx, -1
	sete	al
	mov	esi, 91198568
	cmove	esi, r10d
	cmp	dword ptr [rip + y.143], 10
	setl	cl
	cmovge	esi, r8d
	xor	cl, al
	cmovne	esi, r10d
	jmp	.LBB53_27
.LBB53_41:                              
	mov	ebx, dword ptr [rdi]
	mov	ebp, dword ptr [rdi + 8]
	mov	eax, ebp
	shr	eax, 2
	mov	ecx, eax
	not	ecx
	and	ecx, 296176563
	and	eax, 777565260
	or	eax, ecx
	mov	ecx, ebx
	not	ecx
	mov	edx, ecx
	and	edx, 296176563
	mov	esi, ebx
	and	esi, -296176564
	or	esi, edx
	xor	esi, eax
	mov	eax, esi
	xor	eax, -858993460
	and	eax, esi
	lea	edx, [4*rax]
	mov	esi, edx
	not	esi
	and	esi, ebp
	not	ebp
	and	ebp, edx
	or	ebp, esi
	mov	dword ptr [rdi + 8], ebp
	mov	edx, eax
	not	edx
	and	edx, ebx
	and	eax, ecx
	or	eax, edx
	mov	dword ptr [rdi], eax
	mov	esi, -1520381608
	jmp	.LBB53_27
.LBB53_35:
	mov	eax, dword ptr [rip + x.142]
	mov	r10d, dword ptr [rip + y.143]
	lea	r14d, [rax - 1]
	imul	r14d, eax
	mov	r11d, r14d
	xor	r11d, -2
	mov	eax, r11d
	and	eax, r14d
	sete	byte ptr [rsp - 18]
	sete	cl
	cmp	r10d, 10
	setl	dl
	xor	dl, cl
	mov	r15d, 1764690740
	mov	ecx, 91198568
	cmovne	ecx, r15d
	test	eax, eax
	cmovne	r15d, ecx
	cmp	r10d, 10
	setl	byte ptr [rsp - 17]
	mov	r8d, 91198568
	cmovge	r15d, ecx
	mov	eax, -2119537358
	mov	r9d, -1520381608
	jmp	.LBB53_36
.LBB53_49:                              
	movzx	ecx, byte ptr [rsp - 18]
	movzx	eax, byte ptr [rsp - 17]
	mov	edx, ecx
	xor	dl, al
	test	al, al
	mov	eax, 91198568
	cmovne	eax, r9d
	test	cl, cl
	cmove	eax, r8d
	test	dl, dl
	cmovne	eax, r9d
	.p2align	4, 0x90
.LBB53_36:                              
	cmp	eax, 91198567
	jle	.LBB53_37

	cmp	eax, 91198568
	je	.LBB53_50

	cmp	eax, 1764690740
	jne	.LBB53_36
	jmp	.LBB53_44
	.p2align	4, 0x90
.LBB53_37:                              
	cmp	eax, -2119537358
	je	.LBB53_49

	cmp	eax, -1520381608
	jne	.LBB53_36

	mov	ebp, dword ptr [rdi + 4]
	mov	edx, dword ptr [rdi + 12]
	mov	ecx, edx
	shr	ecx, 2
	mov	ebx, ecx
	not	ebx
	and	ebx, -574273062
	and	ecx, 574273061
	or	ecx, ebx
	mov	esi, ebp
	not	esi
	mov	ebx, esi
	and	ebx, -574273062
	mov	eax, ebp
	and	eax, 574273061
	or	eax, ebx
	xor	eax, ecx
	mov	ecx, eax
	xor	ecx, -858993460
	and	ecx, eax
	lea	eax, [4*rcx]
	mov	ebx, eax
	not	ebx
	and	ebx, 1190165020
	and	eax, -1190165024
	or	eax, ebx
	mov	ebx, edx
	not	ebx
	and	ebx, 1190165020
	and	edx, -1190165021
	or	edx, ebx
	xor	edx, eax
	mov	dword ptr [rdi + 12], edx
	mov	eax, ecx
	not	eax
	and	eax, 1377551421
	and	ecx, -1377551422
	or	ecx, eax
	and	esi, 1377551421
	and	ebp, -1377551422
	or	ebp, esi
	xor	ebp, ecx
	mov	dword ptr [rdi + 4], ebp
	mov	eax, r15d
	jmp	.LBB53_36
.LBB53_50:                              
	mov	eax, dword ptr [rdi + 4]
	mov	ecx, dword ptr [rdi + 12]
	mov	esi, ecx
	shr	esi, 2
	mov	edx, esi
	not	edx
	and	edx, -1879842830
	and	esi, 806101005
	or	esi, edx
	mov	edx, eax
	not	edx
	mov	ebx, edx
	and	ebx, -1879842830
	mov	ebp, eax
	and	ebp, 1879842829
	or	ebp, ebx
	xor	ebp, esi
	mov	ebx, ebp
	xor	ebx, -858993460
	and	ebx, ebp
	lea	esi, [4*rbx]
	mov	ebp, esi
	not	ebp
	and	ebp, ecx
	not	ecx
	and	ecx, esi
	or	ecx, ebp
	mov	dword ptr [rdi + 12], ecx
	mov	ecx, ebx
	not	ecx
	and	ecx, -1067019066
	and	ebx, 1067019065
	or	ebx, ecx
	and	edx, -1067019066
	and	eax, 1067019065
	or	eax, edx
	xor	eax, ebx
	mov	dword ptr [rdi + 4], eax
	mov	eax, -1520381608
	jmp	.LBB53_36
.LBB53_44:
	test	r11d, r14d
	movdqu	xmm0, xmmword ptr [rdi]
	movdqu	xmmword ptr [rdi + 16], xmm0
	sete	byte ptr [rsp - 18]
	cmp	r10d, 10
	setl	byte ptr [rsp - 17]
	movd	r11d, xmm0
	mov	ebx, -2119537358
	mov	r9d, -1520381608
	mov	r8d, 91198568
	mov	r10d, 1764690740
	mov	esi, r11d
	jmp	.LBB53_45
.LBB53_59:                              
	mov	ecx, esi
	shr	ecx, 4
	mov	edx, ecx
	not	edx
	and	edx, r11d
	mov	eax, r11d
	not	eax
	and	ecx, eax
	or	ecx, edx
	mov	ebx, ecx
	xor	ebx, -252645136
	and	ebx, ecx
	mov	ecx, ebx
	shl	ecx, 4
	mov	edx, ecx
	not	edx
	and	edx, 88283075
	and	ecx, -88283088
	or	ecx, edx
	mov	edx, esi
	not	edx
	and	edx, 88283075
	and	esi, -88283076
	or	esi, edx
	xor	esi, ecx
	mov	dword ptr [rdi + 16], esi
	mov	ecx, ebx
	not	ecx
	and	ecx, -905766305
	and	ebx, 905766304
	or	ebx, ecx
	and	eax, -905766305
	and	r11d, 905766304
	or	r11d, eax
	xor	r11d, ebx
	mov	dword ptr [rdi], r11d
	mov	ebx, -1520381608
	.p2align	4, 0x90
.LBB53_45:                              
	cmp	ebx, 91198567
	jle	.LBB53_46

	cmp	ebx, 91198568
	je	.LBB53_59

	cmp	ebx, 1764690740
	jne	.LBB53_45
	jmp	.LBB53_53
	.p2align	4, 0x90
.LBB53_46:                              
	cmp	ebx, -2119537358
	je	.LBB53_58

	cmp	ebx, -1520381608
	jne	.LBB53_45

	mov	eax, esi
	shr	eax, 4
	mov	edx, eax
	not	edx
	and	edx, 1971869249
	and	eax, 175614398
	or	eax, edx
	mov	ecx, r11d
	not	ecx
	mov	edx, ecx
	and	edx, 1971869249
	mov	ebp, r11d
	and	ebp, -1971869250
	or	ebp, edx
	xor	ebp, eax
	mov	eax, ebp
	xor	eax, -252645136
	and	eax, ebp
	mov	edx, eax
	shl	edx, 4
	mov	ebx, edx
	not	ebx
	and	ebx, esi
	not	esi
	and	esi, edx
	or	esi, ebx
	mov	dword ptr [rdi + 16], esi
	mov	edx, eax
	not	edx
	and	edx, r11d
	and	eax, ecx
	or	eax, edx
	mov	dword ptr [rdi], eax
	mov	ecx, dword ptr [rip + x.142]
	mov	r11d, dword ptr [rip + y.143]
	lea	ebp, [rcx - 1]
	imul	ebp, ecx
	mov	ecx, ebp
	xor	ecx, -2
	and	ecx, ebp
	sete	bl
	cmp	r11d, 10
	setl	dl
	xor	dl, bl
	mov	edx, 91198568
	cmovne	edx, r10d
	test	ecx, ecx
	mov	ebx, edx
	cmove	ebx, r10d
	cmp	r11d, 10
	cmovge	ebx, edx
	mov	r11d, eax
	jmp	.LBB53_45
.LBB53_58:                              
	movzx	edx, byte ptr [rsp - 18]
	movzx	ebx, byte ptr [rsp - 17]
	mov	eax, edx
	xor	al, bl
	test	bl, bl
	mov	ebx, 91198568
	cmovne	ebx, r9d
	test	dl, dl
	cmove	ebx, r8d
	test	al, al
	cmovne	ebx, r9d
	jmp	.LBB53_45
.LBB53_53:
	mov	eax, dword ptr [rip + x.142]
	mov	r10d, dword ptr [rip + y.143]
	lea	r14d, [rax - 1]
	imul	r14d, eax
	mov	eax, r14d
	not	eax
	or	eax, -2
	cmp	eax, -1
	sete	cl
	cmp	r10d, 10
	setl	bl
	setl	byte ptr [rsp - 17]
	xor	bl, cl
	mov	r11d, 1764690740
	mov	r8d, 91198568
	mov	ecx, 91198568
	cmovne	ecx, r11d
	cmp	eax, -1
	sete	byte ptr [rsp - 18]
	cmovne	r11d, ecx
	cmp	r10d, 10
	cmovge	r11d, ecx
	and	r14d, 1
	pshufd	xmm1, xmm0, 229         
	movd	r15d, xmm1
	mov	eax, -2119537358
	mov	r9d, -1520381608
	mov	r12d, r15d
	jmp	.LBB53_54
.LBB53_69:                              
	mov	edx, r12d
	shr	edx, 4
	mov	ebx, edx
	not	ebx
	and	ebx, 860926543
	and	edx, 212815280
	or	edx, ebx
	mov	ecx, r15d
	not	ecx
	mov	ebx, ecx
	and	ebx, 860926543
	mov	ebp, r15d
	and	ebp, -860926544
	or	ebp, ebx
	xor	ebp, edx
	mov	edx, ebp
	not	edx
	or	edx, -252645136
	and	ebp, 252645135
	mov	esi, ebp
	shl	esi, 4
	mov	ebx, esi
	not	ebx
	and	ebx, r12d
