	.text
	.intel_syntax noprefix
	.file	"/mnt/c/Users/Adam/Developer/CryptoFunctionDetection/crypto_implementations/botan/src/lib/block/aes/aes.cpp"
	.globl	_ZNK5Botan7AES_1288providerB5cxx11Ev 
	.p2align	4, 0x90
	.type	_ZNK5Botan7AES_1288providerB5cxx11Ev,@function
_ZNK5Botan7AES_1288providerB5cxx11Ev:   
.Lfunc_begin0:
	.cfi_startproc
	.cfi_personality 3, __gxx_personality_v0
	.cfi_lsda 3, .Lexception0

	push	r15
.Lcfi0:
	.cfi_def_cfa_offset 16
	push	r14
.Lcfi1:
	.cfi_def_cfa_offset 24
	push	rbx
.Lcfi2:
	.cfi_def_cfa_offset 32
	sub	rsp, 16
.Lcfi3:
	.cfi_def_cfa_offset 48
.Lcfi4:
	.cfi_offset rbx, -32
.Lcfi5:
	.cfi_offset r14, -24
.Lcfi6:
	.cfi_offset r15, -16
	mov	r14, rdi
	call	_ZN5Botan12_GLOBAL__N_112aes_providerEv
	mov	rbx, rax
	lea	r15, [rsp + 8]
	mov	rdi, r15
	call	_ZNSaIcEC2Ev
.Ltmp0:
	mov	rdi, r14
	mov	rsi, rbx
	mov	rdx, r15
	call	_ZNSt7__cxx1112basic_stringIcSt11char_traitsIcESaIcEEC2EPKcRKS3_
.Ltmp1:

	lea	rdi, [rsp + 8]
	call	_ZNSaIcED2Ev
	mov	rax, r14
	add	rsp, 16
	pop	rbx
	pop	r14
	pop	r15
	ret
.LBB0_2:
.Ltmp2:
	mov	rbx, rax
	lea	rdi, [rsp + 8]
	call	_ZNSaIcED2Ev
	mov	rdi, rbx
	call	_Unwind_Resume
.Lfunc_end0:
	.size	_ZNK5Botan7AES_1288providerB5cxx11Ev, .Lfunc_end0-_ZNK5Botan7AES_1288providerB5cxx11Ev
	.cfi_endproc
	.section	.gcc_except_table,"a",@progbits
	.p2align	2
GCC_except_table0:
.Lexception0:
	.byte	255                     
	.byte	3                       
	.byte	41                      
	.byte	3                       
	.byte	39                      
	.long	.Lfunc_begin0-.Lfunc_begin0 
	.long	.Ltmp0-.Lfunc_begin0    
	.long	0                       
	.byte	0                       
	.long	.Ltmp0-.Lfunc_begin0    
	.long	.Ltmp1-.Ltmp0           
	.long	.Ltmp2-.Lfunc_begin0    
	.byte	0                       
	.long	.Ltmp1-.Lfunc_begin0    
	.long	.Lfunc_end0-.Ltmp1      
	.long	0                       
	.byte	0                       
	.p2align	2

	.text
	.p2align	4, 0x90         
	.type	_ZN5Botan12_GLOBAL__N_112aes_providerEv,@function
_ZN5Botan12_GLOBAL__N_112aes_providerEv: 
	.cfi_startproc

	push	rbp
.Lcfi7:
	.cfi_def_cfa_offset 16
	push	r15
.Lcfi8:
	.cfi_def_cfa_offset 24
	push	r14
.Lcfi9:
	.cfi_def_cfa_offset 32
	push	rbx
.Lcfi10:
	.cfi_def_cfa_offset 40
	push	rax
.Lcfi11:
	.cfi_def_cfa_offset 48
.Lcfi12:
	.cfi_offset rbx, -40
.Lcfi13:
	.cfi_offset r14, -32
.Lcfi14:
	.cfi_offset r15, -24
.Lcfi15:
	.cfi_offset rbp, -16
	mov	eax, -1993878563
	mov	r14d, 815223047
	mov	r15d, -1335735343

	jmp	.LBB1_1
.LBB1_26:                               
	mov	eax, -1014339898
	.p2align	4, 0x90
.LBB1_1:                                
	cmp	eax, 815223046
	jle	.LBB1_2

	cmp	eax, 1602895639
	jg	.LBB1_17

	cmp	eax, 815223047
	je	.LBB1_21

	cmp	eax, 1378970519
	je	.LBB1_26

	cmp	eax, 1168172658
	jne	.LBB1_1
	jmp	.LBB1_16
	.p2align	4, 0x90
.LBB1_2:                                
	cmp	eax, -1335735344
	jg	.LBB1_6

	cmp	eax, -1993878563
	je	.LBB1_20

	cmp	eax, -1816764593
	jne	.LBB1_1

	mov	eax, 1602895640
	mov	ebp, .L.str.2
	jmp	.LBB1_1
	.p2align	4, 0x90
.LBB1_17:                               
	cmp	eax, 1602895640
	je	.LBB1_23

	cmp	eax, 1914553101
	jne	.LBB1_1

	call	_ZN5Botan5CPUID9has_vpermEv
	test	al, al
	mov	eax, -1816764593
	cmovne	eax, r15d
	jmp	.LBB1_1
	.p2align	4, 0x90
.LBB1_6:                                
	cmp	eax, -1335735343
	je	.LBB1_22

	cmp	eax, -1014339898
	jne	.LBB1_1

	mov	eax, dword ptr [rip + x]
	mov	ecx, dword ptr [rip + y]
	lea	edx, [rax - 1]
	imul	edx, eax
	mov	eax, edx
	xor	eax, -2
	and	eax, edx
	sete	bl
	test	eax, eax
	mov	eax, 1168172658
	mov	edx, 1378970519
	mov	esi, 1168172658
	je	.LBB1_10

	mov	esi, 1378970519
.LBB1_10:                               
	cmp	ecx, 10
	setl	cl
	cmovl	edx, esi
	xor	cl, bl
	jne	.LBB1_1

	mov	eax, edx
	jmp	.LBB1_1
.LBB1_21:                               
	mov	eax, 1602895640
	mov	ebp, .L.str
	jmp	.LBB1_1
.LBB1_20:                               
	call	_ZN5Botan5CPUID10has_hw_aesEv
	test	al, al
	mov	eax, 1914553101
	cmovne	eax, r14d
	jmp	.LBB1_1
.LBB1_23:                               
	mov	eax, dword ptr [rip + x]
	mov	ecx, dword ptr [rip + y]
	lea	edx, [rax - 1]
	imul	edx, eax
	not	edx
	or	edx, -2
	cmp	edx, -1
	sete	al
	cmp	ecx, 10
	setl	bl
	xor	bl, al
	mov	eax, -1014339898
	mov	esi, -1014339898
	jne	.LBB1_25

	mov	esi, 1378970519
.LBB1_25:                               
	cmp	edx, -1
	cmovne	eax, esi
	cmp	ecx, 10
	mov	qword ptr [rsp], rbp
	cmovge	eax, esi
	jmp	.LBB1_1
.LBB1_22:                               
	mov	eax, 1602895640
	mov	ebp, .L.str.1
	jmp	.LBB1_1
.LBB1_16:
	mov	rax, qword ptr [rsp]
	add	rsp, 8
	pop	rbx
	pop	r14
	pop	r15
	pop	rbp
	ret
.Lfunc_end1:
	.size	_ZN5Botan12_GLOBAL__N_112aes_providerEv, .Lfunc_end1-_ZN5Botan12_GLOBAL__N_112aes_providerEv
	.cfi_endproc

	.section	.text._ZNSt7__cxx1112basic_stringIcSt11char_traitsIcESaIcEEC2EPKcRKS3_,"axG",@progbits,_ZNSt7__cxx1112basic_stringIcSt11char_traitsIcESaIcEEC2EPKcRKS3_,comdat
	.weak	_ZNSt7__cxx1112basic_stringIcSt11char_traitsIcESaIcEEC2EPKcRKS3_ 
	.p2align	4, 0x90
	.type	_ZNSt7__cxx1112basic_stringIcSt11char_traitsIcESaIcEEC2EPKcRKS3_,@function
_ZNSt7__cxx1112basic_stringIcSt11char_traitsIcESaIcEEC2EPKcRKS3_: 
.Lfunc_begin1:
	.cfi_startproc
	.cfi_personality 3, __gxx_personality_v0
	.cfi_lsda 3, .Lexception1

	push	r15
.Lcfi16:
	.cfi_def_cfa_offset 16
	push	r14
.Lcfi17:
	.cfi_def_cfa_offset 24
	push	rbx
.Lcfi18:
	.cfi_def_cfa_offset 32
.Lcfi19:
	.cfi_offset rbx, -32
.Lcfi20:
	.cfi_offset r14, -24
.Lcfi21:
	.cfi_offset r15, -16
	mov	r15, rdx
	mov	rbx, rsi
	mov	r14, rdi
	call	_ZNSt7__cxx1112basic_stringIcSt11char_traitsIcESaIcEE13_M_local_dataEv
	mov	rdi, r14
	mov	rsi, rax
	mov	rdx, r15
	call	_ZNSt7__cxx1112basic_stringIcSt11char_traitsIcESaIcEE12_Alloc_hiderC2EPcRKS3_
	test	rbx, rbx
	je	.LBB2_1

.Ltmp3:
	mov	rdi, rbx
	call	_ZNSt11char_traitsIcE6lengthEPKc
	mov	rdx, rax
.Ltmp4:
	jmp	.LBB2_3
.LBB2_1:
	mov	rdx, -1
.LBB2_3:
	add	rdx, rbx
.Ltmp5:
	mov	rdi, r14
	mov	rsi, rbx
	call	_ZNSt7__cxx1112basic_stringIcSt11char_traitsIcESaIcEE12_M_constructIPKcEEvT_S8_
.Ltmp6:

	pop	rbx
	pop	r14
	pop	r15
	ret
.LBB2_5:
.Ltmp7:
	mov	rbx, rax
	mov	rdi, r14
	call	_ZNSt7__cxx1112basic_stringIcSt11char_traitsIcESaIcEE12_Alloc_hiderD2Ev
	mov	rdi, rbx
	call	_Unwind_Resume
.Lfunc_end2:
	.size	_ZNSt7__cxx1112basic_stringIcSt11char_traitsIcESaIcEEC2EPKcRKS3_, .Lfunc_end2-_ZNSt7__cxx1112basic_stringIcSt11char_traitsIcESaIcEEC2EPKcRKS3_
	.cfi_endproc
	.section	.gcc_except_table,"a",@progbits
	.p2align	2
GCC_except_table2:
.Lexception1:
	.byte	255                     
	.byte	3                       
	.asciz	"\234"                  
	.byte	3                       
	.byte	26                      
	.long	.Ltmp3-.Lfunc_begin1    
	.long	.Ltmp6-.Ltmp3           
	.long	.Ltmp7-.Lfunc_begin1    
	.byte	0                       
	.long	.Ltmp6-.Lfunc_begin1    
	.long	.Lfunc_end2-.Ltmp6      
	.long	0                       
	.byte	0                       
	.p2align	2

	.text
	.globl	_ZNK5Botan7AES_1928providerB5cxx11Ev 
	.p2align	4, 0x90
	.type	_ZNK5Botan7AES_1928providerB5cxx11Ev,@function
_ZNK5Botan7AES_1928providerB5cxx11Ev:   
.Lfunc_begin2:
	.cfi_startproc
	.cfi_personality 3, __gxx_personality_v0
	.cfi_lsda 3, .Lexception2

	push	r15
.Lcfi22:
	.cfi_def_cfa_offset 16
	push	r14
.Lcfi23:
	.cfi_def_cfa_offset 24
	push	rbx
.Lcfi24:
	.cfi_def_cfa_offset 32
	sub	rsp, 16
.Lcfi25:
	.cfi_def_cfa_offset 48
.Lcfi26:
	.cfi_offset rbx, -32
.Lcfi27:
	.cfi_offset r14, -24
.Lcfi28:
	.cfi_offset r15, -16
	mov	r14, rdi
	call	_ZN5Botan12_GLOBAL__N_112aes_providerEv
	mov	rbx, rax
	lea	r15, [rsp + 8]
	mov	rdi, r15
	call	_ZNSaIcEC2Ev
.Ltmp8:
	mov	rdi, r14
	mov	rsi, rbx
	mov	rdx, r15
	call	_ZNSt7__cxx1112basic_stringIcSt11char_traitsIcESaIcEEC2EPKcRKS3_
.Ltmp9:

	lea	rdi, [rsp + 8]
	call	_ZNSaIcED2Ev
	mov	rax, r14
	add	rsp, 16
	pop	rbx
	pop	r14
	pop	r15
	ret
.LBB3_2:
.Ltmp10:
	mov	rbx, rax
	lea	rdi, [rsp + 8]
	call	_ZNSaIcED2Ev
	mov	rdi, rbx
	call	_Unwind_Resume
.Lfunc_end3:
	.size	_ZNK5Botan7AES_1928providerB5cxx11Ev, .Lfunc_end3-_ZNK5Botan7AES_1928providerB5cxx11Ev
	.cfi_endproc
	.section	.gcc_except_table,"a",@progbits
	.p2align	2
GCC_except_table3:
.Lexception2:
	.byte	255                     
	.byte	3                       
	.byte	41                      
	.byte	3                       
	.byte	39                      
	.long	.Lfunc_begin2-.Lfunc_begin2 
	.long	.Ltmp8-.Lfunc_begin2    
	.long	0                       
	.byte	0                       
	.long	.Ltmp8-.Lfunc_begin2    
	.long	.Ltmp9-.Ltmp8           
	.long	.Ltmp10-.Lfunc_begin2   
	.byte	0                       
	.long	.Ltmp9-.Lfunc_begin2    
	.long	.Lfunc_end3-.Ltmp9      
	.long	0                       
	.byte	0                       
	.p2align	2

	.text
	.globl	_ZNK5Botan7AES_2568providerB5cxx11Ev 
	.p2align	4, 0x90
	.type	_ZNK5Botan7AES_2568providerB5cxx11Ev,@function
_ZNK5Botan7AES_2568providerB5cxx11Ev:   
.Lfunc_begin3:
	.cfi_startproc
	.cfi_personality 3, __gxx_personality_v0
	.cfi_lsda 3, .Lexception3

	push	r15
.Lcfi29:
	.cfi_def_cfa_offset 16
	push	r14
.Lcfi30:
	.cfi_def_cfa_offset 24
	push	rbx
.Lcfi31:
	.cfi_def_cfa_offset 32
	sub	rsp, 16
.Lcfi32:
	.cfi_def_cfa_offset 48
.Lcfi33:
	.cfi_offset rbx, -32
.Lcfi34:
	.cfi_offset r14, -24
.Lcfi35:
	.cfi_offset r15, -16
	mov	r14, rdi
	call	_ZN5Botan12_GLOBAL__N_112aes_providerEv
	mov	rbx, rax
	lea	r15, [rsp + 8]
	mov	rdi, r15
	call	_ZNSaIcEC2Ev
.Ltmp11:
	mov	rdi, r14
	mov	rsi, rbx
	mov	rdx, r15
	call	_ZNSt7__cxx1112basic_stringIcSt11char_traitsIcESaIcEEC2EPKcRKS3_
.Ltmp12:

	lea	rdi, [rsp + 8]
	call	_ZNSaIcED2Ev
	mov	rax, r14
	add	rsp, 16
	pop	rbx
	pop	r14
	pop	r15
	ret
.LBB4_2:
.Ltmp13:
	mov	rbx, rax
	lea	rdi, [rsp + 8]
	call	_ZNSaIcED2Ev
	mov	rdi, rbx
	call	_Unwind_Resume
.Lfunc_end4:
	.size	_ZNK5Botan7AES_2568providerB5cxx11Ev, .Lfunc_end4-_ZNK5Botan7AES_2568providerB5cxx11Ev
	.cfi_endproc
	.section	.gcc_except_table,"a",@progbits
	.p2align	2
GCC_except_table4:
.Lexception3:
	.byte	255                     
	.byte	3                       
	.byte	41                      
	.byte	3                       
	.byte	39                      
	.long	.Lfunc_begin3-.Lfunc_begin3 
	.long	.Ltmp11-.Lfunc_begin3   
	.long	0                       
	.byte	0                       
	.long	.Ltmp11-.Lfunc_begin3   
	.long	.Ltmp12-.Ltmp11         
	.long	.Ltmp13-.Lfunc_begin3   
	.byte	0                       
	.long	.Ltmp12-.Lfunc_begin3   
	.long	.Lfunc_end4-.Ltmp12     
	.long	0                       
	.byte	0                       
	.p2align	2

	.text
	.globl	_ZNK5Botan7AES_12811parallelismEv 
	.p2align	4, 0x90
	.type	_ZNK5Botan7AES_12811parallelismEv,@function
_ZNK5Botan7AES_12811parallelismEv:      
	.cfi_startproc

	jmp	_ZN5Botan12_GLOBAL__N_115aes_parallelismEv 
.Lfunc_end5:
	.size	_ZNK5Botan7AES_12811parallelismEv, .Lfunc_end5-_ZNK5Botan7AES_12811parallelismEv
	.cfi_endproc

	.p2align	4, 0x90         
	.type	_ZN5Botan12_GLOBAL__N_115aes_parallelismEv,@function
_ZN5Botan12_GLOBAL__N_115aes_parallelismEv: 
	.cfi_startproc

	push	rbp
.Lcfi36:
	.cfi_def_cfa_offset 16
	push	r15
.Lcfi37:
	.cfi_def_cfa_offset 24
	push	r14
.Lcfi38:
	.cfi_def_cfa_offset 32
	push	r13
.Lcfi39:
	.cfi_def_cfa_offset 40
	push	r12
.Lcfi40:
	.cfi_def_cfa_offset 48
	push	rbx
.Lcfi41:
	.cfi_def_cfa_offset 56
	push	rax
.Lcfi42:
	.cfi_def_cfa_offset 64
.Lcfi43:
	.cfi_offset rbx, -56
.Lcfi44:
	.cfi_offset r12, -48
.Lcfi45:
	.cfi_offset r13, -40
.Lcfi46:
	.cfi_offset r14, -32
.Lcfi47:
	.cfi_offset r15, -24
.Lcfi48:
	.cfi_offset rbp, -16
	mov	eax, -698180532
	mov	r12d, 1558115058
	mov	r14d, -745911731
	mov	r15d, 1207346233
	mov	r13d, -845660993

	jmp	.LBB6_1
.LBB6_12:                               
	mov	eax, -57370501
	mov	ebp, 2
	.p2align	4, 0x90
.LBB6_1:                                
	cmp	eax, -57370502
	jle	.LBB6_2

	cmp	eax, 1207346232
	jg	.LBB6_10

	cmp	eax, -57370501
	je	.LBB6_14

	cmp	eax, 947039806
	jne	.LBB6_1

	mov	eax, dword ptr [rip + x.18]
	mov	ecx, dword ptr [rip + y.19]
	mov	edx, eax
	neg	edx
	not	edx
	imul	edx, eax
	not	edx
	or	edx, -2
	cmp	edx, -1
	sete	al
	cmp	ecx, 10
	setl	bl
	xor	bl, al
	mov	esi, -745911731
	cmovne	esi, r13d
	cmp	edx, -1
	mov	eax, esi
	cmove	eax, r13d
	cmp	ecx, 10
	cmovge	eax, esi
	jmp	.LBB6_1
	.p2align	4, 0x90
.LBB6_2:                                
	cmp	eax, -845660993
	je	.LBB6_16

	cmp	eax, -745911731
	je	.LBB6_15

	cmp	eax, -698180532
	jne	.LBB6_1

	call	_ZN5Botan5CPUID10has_hw_aesEv
	test	al, al
	mov	eax, 947039806
	cmovne	eax, r15d
	jmp	.LBB6_1
	.p2align	4, 0x90
.LBB6_10:                               
	cmp	eax, 1207346233
	je	.LBB6_13

	cmp	eax, 1558115058
	jne	.LBB6_1
	jmp	.LBB6_12
.LBB6_16:                               
	call	_ZN5Botan5CPUID9has_vpermEv
	mov	eax, dword ptr [rip + x.18]
	lea	ecx, [rax - 1]
	imul	ecx, eax
	mov	eax, ecx
	xor	eax, -2
	and	eax, ecx
	sete	cl
	test	eax, eax
	mov	eax, -745911731
	cmove	eax, r12d
	cmp	dword ptr [rip + y.19], 10
	setl	dl
	cmovge	eax, r14d
	xor	dl, cl
	cmovne	eax, r12d
	jmp	.LBB6_1
.LBB6_15:                               
	call	_ZN5Botan5CPUID9has_vpermEv
	mov	eax, -845660993
	jmp	.LBB6_1
.LBB6_13:                               
	mov	eax, -57370501
	mov	ebp, 4
	jmp	.LBB6_1
.LBB6_14:
	mov	rax, rbp
	add	rsp, 8
	pop	rbx
	pop	r12
	pop	r13
	pop	r14
	pop	r15
	pop	rbp
	ret
.Lfunc_end6:
	.size	_ZN5Botan12_GLOBAL__N_115aes_parallelismEv, .Lfunc_end6-_ZN5Botan12_GLOBAL__N_115aes_parallelismEv
	.cfi_endproc

	.globl	_ZNK5Botan7AES_19211parallelismEv 
	.p2align	4, 0x90
	.type	_ZNK5Botan7AES_19211parallelismEv,@function
_ZNK5Botan7AES_19211parallelismEv:      
	.cfi_startproc

	jmp	_ZN5Botan12_GLOBAL__N_115aes_parallelismEv 
.Lfunc_end7:
	.size	_ZNK5Botan7AES_19211parallelismEv, .Lfunc_end7-_ZNK5Botan7AES_19211parallelismEv
	.cfi_endproc

	.globl	_ZNK5Botan7AES_25611parallelismEv 
	.p2align	4, 0x90
	.type	_ZNK5Botan7AES_25611parallelismEv,@function
_ZNK5Botan7AES_25611parallelismEv:      
	.cfi_startproc

	push	rbp
.Lcfi49:
	.cfi_def_cfa_offset 16
	push	r14
.Lcfi50:
	.cfi_def_cfa_offset 24
	push	rbx
.Lcfi51:
	.cfi_def_cfa_offset 32
	sub	rsp, 16
.Lcfi52:
	.cfi_def_cfa_offset 48
.Lcfi53:
	.cfi_offset rbx, -32
.Lcfi54:
	.cfi_offset r14, -24
.Lcfi55:
	.cfi_offset rbp, -16
	mov	eax, dword ptr [rip + x.22]
	lea	ecx, [rax - 1]
	imul	ecx, eax
	mov	eax, ecx
	xor	eax, -2
	test	eax, ecx
	sete	byte ptr [rsp + 6]
	mov	eax, dword ptr [rip + y.23]
	cmp	eax, 10
	setl	byte ptr [rsp + 7]
	mov	eax, -705281435
	mov	ebx, 1540700180
	mov	r14d, -331169706
	mov	ebp, -1181811019
	jmp	.LBB8_1
.LBB8_4:                                
	movzx	ecx, byte ptr [rsp + 6]
	movzx	eax, byte ptr [rsp + 7]
	mov	edx, ecx
	xor	dl, al
	mov	edx, -331169706
	cmovne	edx, ebx
	test	al, al
	mov	eax, edx
	cmovne	eax, ebx
	test	cl, cl
	cmove	eax, edx
	.p2align	4, 0x90
.LBB8_1:                                
	cmp	eax, -331169707
	jg	.LBB8_5

	cmp	eax, -1181811019
	je	.LBB8_8

	cmp	eax, -705281435
	jne	.LBB8_1
	jmp	.LBB8_4
	.p2align	4, 0x90
.LBB8_5:                                
	cmp	eax, -331169706
	je	.LBB8_9

	cmp	eax, 1540700180
	jne	.LBB8_1

	call	_ZN5Botan12_GLOBAL__N_115aes_parallelismEv
	mov	qword ptr [rsp + 8], rax
	mov	eax, dword ptr [rip + x.22]
	lea	ecx, [rax - 1]
	imul	ecx, eax
	not	ecx
	or	ecx, -2
	cmp	ecx, -1
	sete	cl
	mov	eax, -331169706
	cmove	eax, ebp
	cmp	dword ptr [rip + y.23], 10
	setl	dl
	cmovge	eax, r14d
	xor	dl, cl
	cmovne	eax, ebp
	jmp	.LBB8_1
.LBB8_9:                                
	call	_ZN5Botan12_GLOBAL__N_115aes_parallelismEv
	mov	eax, 1540700180
	jmp	.LBB8_1
.LBB8_8:
	mov	rax, qword ptr [rsp + 8]
	add	rsp, 16
	pop	rbx
	pop	r14
	pop	rbp
	ret
.Lfunc_end8:
	.size	_ZNK5Botan7AES_25611parallelismEv, .Lfunc_end8-_ZNK5Botan7AES_25611parallelismEv
	.cfi_endproc

	.globl	_ZNK5Botan7AES_1289encrypt_nEPKhPhm 
	.p2align	4, 0x90
	.type	_ZNK5Botan7AES_1289encrypt_nEPKhPhm,@function
_ZNK5Botan7AES_1289encrypt_nEPKhPhm:    
	.cfi_startproc

	push	rbp
.Lcfi56:
	.cfi_def_cfa_offset 16
	push	r15
.Lcfi57:
	.cfi_def_cfa_offset 24
	push	r14
.Lcfi58:
	.cfi_def_cfa_offset 32
	push	r13
.Lcfi59:
	.cfi_def_cfa_offset 40
	push	r12
.Lcfi60:
	.cfi_def_cfa_offset 48
	push	rbx
.Lcfi61:
	.cfi_def_cfa_offset 56
	sub	rsp, 24
.Lcfi62:
	.cfi_def_cfa_offset 80
.Lcfi63:
	.cfi_offset rbx, -56
.Lcfi64:
	.cfi_offset r12, -48
.Lcfi65:
	.cfi_offset r13, -40
.Lcfi66:
	.cfi_offset r14, -32
.Lcfi67:
	.cfi_offset r15, -24
.Lcfi68:
	.cfi_offset rbp, -16
	mov	r14, rcx
	mov	r15, rdx
	mov	rbp, rsi
	mov	r12, rdi
	lea	rax, [r12 + 8]
	mov	qword ptr [rsp + 16], rax
	mov	rdi, qword ptr [rsp + 16]
	call	_ZNKSt6vectorIjN5Botan16secure_allocatorIjEEE5emptyEv
	xor	al, 1
	movzx	esi, al
	mov	rdi, r12
	call	_ZNK5Botan18SymmetricAlgorithm14verify_key_setEb
	mov	eax, 1800574925
	mov	r13d, 289946908
	jmp	.LBB9_1
.LBB9_12:                               
	cmp	edx, -1
	cmovne	eax, esi
	cmp	ecx, 10
	cmovge	eax, esi
	.p2align	4, 0x90
.LBB9_1:                                
	cmp	eax, 901353646
	jg	.LBB9_13

	cmp	eax, -377929052
	jg	.LBB9_7

	cmp	eax, -1510734131
	je	.LBB9_37

	cmp	eax, -779050576
	je	.LBB9_27

	cmp	eax, -613572236
	jne	.LBB9_1

	mov	rdi, r12
	mov	rsi, rbp
	mov	rdx, r15
	mov	rcx, r14
	call	_ZNK5Botan7AES_12816hw_aes_encrypt_nEPKhPhm
	mov	eax, 266170116
	jmp	.LBB9_1
	.p2align	4, 0x90
.LBB9_13:                               
	cmp	eax, 1816735067
	jg	.LBB9_18

	cmp	eax, 901353647
	je	.LBB9_33

	cmp	eax, 947177915
	je	.LBB9_29

	cmp	eax, 1800574925
	jne	.LBB9_1

	call	_ZN5Botan5CPUID10has_hw_aesEv
	test	al, al
	mov	eax, -779050576
	cmovne	eax, r13d
	jmp	.LBB9_1
	.p2align	4, 0x90
.LBB9_7:                                
	cmp	eax, -377929051
	je	.LBB9_35

	cmp	eax, 266170116
	je	.LBB9_22

	cmp	eax, 289946908
	jne	.LBB9_1

	mov	eax, dword ptr [rip + x.24]
	mov	ecx, dword ptr [rip + y.25]
	lea	edx, [rax - 1]
	imul	edx, eax
	not	edx
	or	edx, -2
	cmp	edx, -1
	sete	al
	cmp	ecx, 10
	setl	bl
	xor	bl, al
	mov	eax, 266170116
	mov	esi, 266170116
	jne	.LBB9_12

	mov	esi, -613572236
	jmp	.LBB9_12
	.p2align	4, 0x90
.LBB9_18:                               
	cmp	eax, 1816735068
	je	.LBB9_26

	cmp	eax, 1850235399
	je	.LBB9_36

	cmp	eax, 2057483600
	jne	.LBB9_1
	jmp	.LBB9_21
.LBB9_37:                               
	call	_ZN5Botan5CPUID9has_vpermEv
	mov	eax, 947177915
	jmp	.LBB9_1
.LBB9_27:                               
	mov	eax, dword ptr [rip + x.24]
	mov	ecx, dword ptr [rip + y.25]
	lea	edx, [rax - 1]
	imul	edx, eax
	not	edx
	or	edx, -2
	cmp	edx, -1
	sete	al
	cmp	ecx, 10
	setl	bl
	xor	bl, al
	mov	eax, 947177915
	mov	esi, 947177915
	jne	.LBB9_12

	mov	esi, -1510734131
	jmp	.LBB9_12
.LBB9_33:                               
	movzx	eax, byte ptr [rsp + 15]
	test	al, al
	mov	eax, -377929051
	jne	.LBB9_1

	mov	eax, 1850235399
	jmp	.LBB9_1
.LBB9_29:                               
	call	_ZN5Botan5CPUID9has_vpermEv
	mov	byte ptr [rsp + 15], al
	mov	eax, dword ptr [rip + x.24]
	mov	ecx, dword ptr [rip + y.25]
	mov	edx, eax
	neg	edx
	not	edx
	imul	edx, eax
	mov	eax, edx
	xor	eax, -2
	and	eax, edx
	sete	bl
	test	eax, eax
	mov	eax, 901353647
	mov	edx, -1510734131
	mov	esi, 901353647
	je	.LBB9_31

	mov	esi, -1510734131
.LBB9_31:                               
	cmp	ecx, 10
	setl	cl
	cmovl	edx, esi
	xor	cl, bl
	jne	.LBB9_1

	mov	eax, edx
	jmp	.LBB9_1
.LBB9_35:                               
	mov	rdi, r12
	mov	rsi, rbp
	mov	rdx, r15
	mov	rcx, r14
	call	_ZNK5Botan7AES_12815vperm_encrypt_nEPKhPhm
	mov	eax, 2057483600
	jmp	.LBB9_1
.LBB9_22:                               
	mov	rdi, r12
	mov	rsi, rbp
	mov	rdx, r15
	mov	rcx, r14
	call	_ZNK5Botan7AES_12816hw_aes_encrypt_nEPKhPhm
	mov	eax, dword ptr [rip + x.24]
	mov	ecx, dword ptr [rip + y.25]
	lea	edx, [rax - 1]
	imul	edx, eax
	mov	eax, edx
	xor	eax, -2
	and	eax, edx
	sete	bl
	test	eax, eax
	mov	eax, 1816735068
	mov	edx, -613572236
	mov	esi, 1816735068
	je	.LBB9_24

	mov	esi, -613572236
.LBB9_24:                               
	cmp	ecx, 10
	setl	cl
	cmovl	edx, esi
	xor	cl, bl
	jne	.LBB9_1

	mov	eax, edx
	jmp	.LBB9_1
.LBB9_26:                               
	mov	eax, 2057483600
	jmp	.LBB9_1
.LBB9_36:                               
	mov	rcx, qword ptr [rsp + 16]
	mov	rdi, rbp
	mov	rsi, r15
	mov	rdx, r14
	call	_ZN5Botan12_GLOBAL__N_113aes_encrypt_nEPKhPhmRKSt6vectorIjNS_16secure_allocatorIjEEE
	mov	eax, 2057483600
	jmp	.LBB9_1
.LBB9_21:
	add	rsp, 24
	pop	rbx
	pop	r12
	pop	r13
	pop	r14
	pop	r15
	pop	rbp
	ret
.Lfunc_end9:
	.size	_ZNK5Botan7AES_1289encrypt_nEPKhPhm, .Lfunc_end9-_ZNK5Botan7AES_1289encrypt_nEPKhPhm
	.cfi_endproc

	.section	.text._ZNK5Botan18SymmetricAlgorithm14verify_key_setEb,"axG",@progbits,_ZNK5Botan18SymmetricAlgorithm14verify_key_setEb,comdat
	.weak	_ZNK5Botan18SymmetricAlgorithm14verify_key_setEb 
	.p2align	4, 0x90
	.type	_ZNK5Botan18SymmetricAlgorithm14verify_key_setEb,@function
_ZNK5Botan18SymmetricAlgorithm14verify_key_setEb: 
	.cfi_startproc

	push	rbp
.Lcfi69:
	.cfi_def_cfa_offset 16
	push	rbx
.Lcfi70:
	.cfi_def_cfa_offset 24
	push	rax
.Lcfi71:
	.cfi_def_cfa_offset 32
.Lcfi72:
	.cfi_offset rbx, -24
.Lcfi73:
	.cfi_offset rbp, -16
	mov	rbx, rdi
	movzx	eax, sil
	mov	dword ptr [rsp + 4], eax
	mov	eax, 980931108
	mov	ebp, -97670798
	jmp	.LBB10_1
.LBB10_4:                               
	cmp	dword ptr [rsp + 4], 0
	mov	eax, 463914264
	cmove	eax, ebp
	.p2align	4, 0x90
.LBB10_1:                               
	cmp	eax, -97670798
	je	.LBB10_5

	cmp	eax, 463914264
	je	.LBB10_6

	cmp	eax, 980931108
	jne	.LBB10_1
	jmp	.LBB10_4
.LBB10_5:                               
	mov	rdi, rbx
	call	_ZNK5Botan18SymmetricAlgorithm23throw_key_not_set_errorEv
	mov	eax, 463914264
	jmp	.LBB10_1
.LBB10_6:
	add	rsp, 8
	pop	rbx
	pop	rbp
	ret
.Lfunc_end10:
	.size	_ZNK5Botan18SymmetricAlgorithm14verify_key_setEb, .Lfunc_end10-_ZNK5Botan18SymmetricAlgorithm14verify_key_setEb
	.cfi_endproc

	.section	.text._ZNKSt6vectorIjN5Botan16secure_allocatorIjEEE5emptyEv,"axG",@progbits,_ZNKSt6vectorIjN5Botan16secure_allocatorIjEEE5emptyEv,comdat
	.weak	_ZNKSt6vectorIjN5Botan16secure_allocatorIjEEE5emptyEv 
	.p2align	4, 0x90
	.type	_ZNKSt6vectorIjN5Botan16secure_allocatorIjEEE5emptyEv,@function
_ZNKSt6vectorIjN5Botan16secure_allocatorIjEEE5emptyEv: 

	push	rbx
	sub	rsp, 16
	mov	rbx, rdi
	call	_ZNKSt6vectorIjN5Botan16secure_allocatorIjEEE5beginEv
	mov	qword ptr [rsp + 8], rax
	mov	rdi, rbx
	call	_ZNKSt6vectorIjN5Botan16secure_allocatorIjEEE3endEv
	mov	qword ptr [rsp], rax
	lea	rdi, [rsp + 8]
	mov	rsi, rsp
	call	_ZN9__gnu_cxxeqIPKjSt6vectorIjN5Botan16secure_allocatorIjEEEEEbRKNS_17__normal_iteratorIT_T0_EESD_
	add	rsp, 16
	pop	rbx
	ret
.Lfunc_end11:
	.size	_ZNKSt6vectorIjN5Botan16secure_allocatorIjEEE5emptyEv, .Lfunc_end11-_ZNKSt6vectorIjN5Botan16secure_allocatorIjEEE5emptyEv

	.section	.text._ZN5Botan5CPUID10has_hw_aesEv,"axG",@progbits,_ZN5Botan5CPUID10has_hw_aesEv,comdat
	.weak	_ZN5Botan5CPUID10has_hw_aesEv 
	.p2align	4, 0x90
	.type	_ZN5Botan5CPUID10has_hw_aesEv,@function
_ZN5Botan5CPUID10has_hw_aesEv:          
	.cfi_startproc

	jmp	_ZN5Botan5CPUID10has_aes_niEv 
.Lfunc_end12:
	.size	_ZN5Botan5CPUID10has_hw_aesEv, .Lfunc_end12-_ZN5Botan5CPUID10has_hw_aesEv
	.cfi_endproc

	.section	.text._ZN5Botan5CPUID9has_vpermEv,"axG",@progbits,_ZN5Botan5CPUID9has_vpermEv,comdat
	.weak	_ZN5Botan5CPUID9has_vpermEv 
	.p2align	4, 0x90
	.type	_ZN5Botan5CPUID9has_vpermEv,@function
_ZN5Botan5CPUID9has_vpermEv:            
	.cfi_startproc

	jmp	_ZN5Botan5CPUID9has_ssse3Ev 
.Lfunc_end13:
	.size	_ZN5Botan5CPUID9has_vpermEv, .Lfunc_end13-_ZN5Botan5CPUID9has_vpermEv
	.cfi_endproc

	.text
	.p2align	4, 0x90         
	.type	_ZN5Botan12_GLOBAL__N_113aes_encrypt_nEPKhPhmRKSt6vectorIjNS_16secure_allocatorIjEEE,@function
_ZN5Botan12_GLOBAL__N_113aes_encrypt_nEPKhPhmRKSt6vectorIjNS_16secure_allocatorIjEEE: 
	.cfi_startproc

	push	rbp
.Lcfi74:
	.cfi_def_cfa_offset 16
.Lcfi75:
	.cfi_offset rbp, -16
	mov	rbp, rsp
.Lcfi76:
	.cfi_def_cfa_register rbp
	push	r15
	push	r14
	push	r13
	push	r12
	push	rbx
	sub	rsp, 232
.Lcfi77:
	.cfi_offset rbx, -56
.Lcfi78:
	.cfi_offset r12, -48
.Lcfi79:
	.cfi_offset r13, -40
.Lcfi80:
	.cfi_offset r14, -32
.Lcfi81:
	.cfi_offset r15, -24
	mov	r13, rcx
	mov	qword ptr [rbp - 256], rdx 
	mov	qword ptr [rbp - 248], rsi 
	mov	qword ptr [rbp - 240], rdi 
	mov	eax, dword ptr [rip + x.34]
	mov	ecx, dword ptr [rip + y.35]
	mov	edx, eax
	neg	edx
	not	edx
	imul	edx, eax
	mov	eax, edx
	xor	eax, -2
	test	eax, edx
	sete	byte ptr [rbp - 49]
	cmp	ecx, 10
	setl	byte ptr [rbp - 50]
	mov	ecx, -1775276731











	jmp	.LBB14_1
.LBB14_106:                             
	cmovne	eax, esi
	cmp	ecx, -1
	mov	ecx, eax
	cmove	ecx, esi
	cmp	edx, 10
	cmovge	ecx, eax
	.p2align	4, 0x90
.LBB14_1:                               
	cmp	ecx, 477855185
	jle	.LBB14_2

	cmp	ecx, 1296304921
	jle	.LBB14_46

	cmp	ecx, 1667860588
	jle	.LBB14_66

	cmp	ecx, 1896855634
	jle	.LBB14_76

	cmp	ecx, 1919760338
	jg	.LBB14_85

	cmp	ecx, 1896855635
	je	.LBB14_120

	cmp	ecx, 1904857086
	jne	.LBB14_1

	mov	rax, qword ptr [rbp - 48]
	mov	rax, qword ptr [rbp - 48]
	mov	rax, qword ptr [rbp - 48]
	mov	rax, qword ptr [rbp - 48]
	mov	rsi, qword ptr [rbp - 48]
	and	esi, 3
	mov	rdi, r13
	call	_ZNKSt6vectorIjN5Botan16secure_allocatorIjEEEixEm
	mov	eax, dword ptr [rax]
	mov	rcx, qword ptr [rbp - 96]
	mov	rdx, qword ptr [rbp - 48]
	mov	esi, dword ptr [rcx + 4*rdx]
	mov	edi, esi
	not	edi
	and	edi, eax
	not	eax
	and	eax, esi
	or	eax, edi
	mov	dword ptr [rcx + 4*rdx], eax
	mov	rax, qword ptr [rbp - 48]
	mov	rax, qword ptr [rbp - 48]
	mov	rax, qword ptr [rbp - 48]
	mov	rax, qword ptr [rbp - 48]
	mov	rax, qword ptr [rbp - 48]
	mov	ecx, -470695204
	jmp	.LBB14_1
	.p2align	4, 0x90
.LBB14_2:                               
	cmp	ecx, -897588236
	jg	.LBB14_25

	cmp	ecx, -1521632673
	jg	.LBB14_16

	cmp	ecx, -1775276732
	jg	.LBB14_12

	cmp	ecx, -1979071596
	jle	.LBB14_6

	cmp	ecx, -1979071595
	je	.LBB14_105

	cmp	ecx, -1789092879
	jne	.LBB14_1

	mov	rdi, r13
	call	_ZNKSt6vectorIjN5Botan16secure_allocatorIjEEE4sizeEv
	mov	ecx, dword ptr [rip + x.34]
	mov	edi, dword ptr [rip + y.35]
	lea	esi, [rcx - 1]
	imul	esi, ecx
	mov	ecx, esi
	xor	ecx, -2
	and	ecx, esi
	sete	bl
	cmp	edi, 10
	setl	dl
	xor	dl, bl
	mov	edx, 1079384887
	mov	esi, -216539823
	cmovne	edx, esi
	test	ecx, ecx
	mov	ecx, edx
	cmove	ecx, esi
	cmp	edi, 10
	cmovge	ecx, edx
	cmp	rax, 52
	sete	byte ptr [rbp - 52]
	jmp	.LBB14_1
	.p2align	4, 0x90
.LBB14_25:                              
	cmp	ecx, 106579969
	jg	.LBB14_36

	cmp	ecx, -321626663
	jg	.LBB14_31

	cmp	ecx, -897588235
	je	.LBB14_117

	cmp	ecx, -608939430
	je	.LBB14_97

	cmp	ecx, -470695204
	jne	.LBB14_1

	mov	rsi, qword ptr [rbp - 48]
	and	esi, 3
	mov	rdi, r13
	call	_ZNKSt6vectorIjN5Botan16secure_allocatorIjEEEixEm
	mov	eax, dword ptr [rax]
	mov	rcx, qword ptr [rbp - 96]
	mov	rdx, qword ptr [rbp - 48]
	mov	esi, dword ptr [rcx + 4*rdx]
	mov	edi, esi
	not	edi
	and	edi, eax
	not	eax
	and	eax, esi
	or	eax, edi
	mov	dword ptr [rcx + 4*rdx], eax
	mov	eax, dword ptr [rip + x.34]
	mov	edx, dword ptr [rip + y.35]
	lea	ecx, [rax - 1]
	imul	ecx, eax
	not	ecx
	or	ecx, -2
	cmp	ecx, -1
	sete	al
	cmp	edx, 10
	setl	bl
	xor	bl, al
	mov	eax, 1904857086
	mov	esi, 477855186
	cmovne	eax, esi
	cmp	ecx, -1
	mov	ecx, eax
	cmove	ecx, esi
	cmp	edx, 10
	mov	rdx, qword ptr [rbp - 48]
	cmovge	ecx, eax
	inc	rdx
	mov	qword ptr [rbp - 264], rdx
	jmp	.LBB14_1
	.p2align	4, 0x90
.LBB14_46:                              
	cmp	ecx, 667301123
	jg	.LBB14_56

	cmp	ecx, 564911355
	jg	.LBB14_52

	cmp	ecx, 477855186
	je	.LBB14_103

	cmp	ecx, 494127934
	je	.LBB14_102

	cmp	ecx, 510697384
	jne	.LBB14_1

	mov	rax, qword ptr [rbp - 72]
	mov	rax, qword ptr [rbp - 72]
	mov	rax, qword ptr [rbp - 72]
	mov	rax, qword ptr [rbp - 72]
	mov	rax, qword ptr [rbp - 72]
	mov	rax, qword ptr [rbp - 72]
	mov	rax, qword ptr [rbp - 72]
	mov	rax, qword ptr [rbp - 72]
	mov	rax, qword ptr [rbp - 72]
	mov	rax, qword ptr [rbp - 72]
	mov	rcx, qword ptr [rbp - 88]
	mov	rcx, qword ptr [rbp - 88]
	mov	rcx, qword ptr [rbp - 88]
	mov	rcx, qword ptr [rbp - 88]
	movabs	rdx, -3915278698498731043
	sub	rcx, rdx
	lea	rax, [rcx + 8*rax]
	add	rax, rdx
	mov	rcx, qword ptr [rbp - 128]
	mov	eax, dword ptr [rcx + 4*rax]
	mov	rcx, qword ptr [rbp - 96]
	mov	rdx, qword ptr [rbp - 88]
	mov	esi, dword ptr [rcx + 4*rdx]
	mov	edi, esi
	not	edi
	and	edi, eax
	not	eax
	and	eax, esi
	or	eax, edi
	mov	dword ptr [rcx + 4*rdx], eax
	mov	rax, qword ptr [rbp - 88]
	mov	rax, qword ptr [rbp - 88]
	mov	ecx, 667301124
	jmp	.LBB14_1
.LBB14_66:                              
	cmp	ecx, 1569234290
	jg	.LBB14_71

	cmp	ecx, 1296304922
	je	.LBB14_101

	cmp	ecx, 1459884815
	je	.LBB14_114

	cmp	ecx, 1526365627
	jne	.LBB14_1

	mov	rbx, qword ptr [rbp - 120]
	mov	rax, qword ptr [rbp - 128]
	shl	rbx, 5
	add	rbx, rax
	mov	rdi, r13
	call	_ZNKSt6vectorIjN5Botan16secure_allocatorIjEEE4dataEv
	mov	rcx, qword ptr [rbp - 120]
	movabs	rdx, 7021027988440724106
	mov	rsi, rdx
	lea	rdx, [rsi + 4*rcx + 4]
	sub	rdx, rsi
	mov	rdi, rbx
	mov	rsi, rax
	call	_ZN5Botan12_GLOBAL__N_19ks_expandEPjPKjm
	mov	rax, qword ptr [rbp - 120]
	xor	ecx, ecx
	sub	rcx, rax
	mov	r15d, 1
	sub	r15, rcx
	mov	ecx, 603457855
	jmp	.LBB14_1
.LBB14_16:                              
	cmp	ecx, -979933665
	jg	.LBB14_21

	cmp	ecx, -1521632672
	je	.LBB14_109

	cmp	ecx, -1502997995
	je	.LBB14_95

	cmp	ecx, -1098878018
	jne	.LBB14_1

	mov	rdi, r13
	call	_ZNKSt6vectorIjN5Botan16secure_allocatorIjEEE4sizeEv
	movabs	rcx, -6112068027718423457
	sub	rax, rcx
	lea	rax, [rax + rcx - 4]
	shr	rax, 2
	mov	qword ptr [rbp - 80], rax
	mov	rax, qword ptr [rbp - 128]
	mov	qword ptr [rbp - 144], rax
	mov	rax, qword ptr [rbp - 144]
	mov	rdi, qword ptr [rbp - 144]
	xor	esi, esi
	mov	edx, 416
	call	memset
	mov	ecx, 603457855
	xor	r15d, r15d
	jmp	.LBB14_1
.LBB14_36:                              
	cmp	ecx, 284080075
	jg	.LBB14_41

	cmp	ecx, 106579970
	je	.LBB14_89

	cmp	ecx, 109441007
	je	.LBB14_111

	cmp	ecx, 150621738
	jne	.LBB14_1

	mov	rax, qword ptr [rbp - 88]
	mov	ecx, 109441007
	jmp	.LBB14_1
.LBB14_56:                              
	cmp	ecx, 1079384886
	jg	.LBB14_61

	cmp	ecx, 667301124
	je	.LBB14_113

	cmp	ecx, 930074996
	je	.LBB14_98

	cmp	ecx, 1047892441
	jne	.LBB14_1

	movzx	eax, byte ptr [rbp - 53]
	test	al, al
	mov	ecx, -110489924
	mov	eax, 1526365627
	cmovne	ecx, eax
	jmp	.LBB14_1
.LBB14_76:                              
	cmp	ecx, 1667860589
	je	.LBB14_115

	cmp	ecx, 1807305660
	je	.LBB14_94

	cmp	ecx, 1824079259
	jne	.LBB14_1

	movzx	eax, byte ptr [rbp - 51]
	test	al, al
	mov	ecx, -979933664
	jmp	.LBB14_80
.LBB14_12:                              
	cmp	ecx, -1775276731
	je	.LBB14_88

	cmp	ecx, -1768416038
	je	.LBB14_96

	cmp	ecx, -1700403592
	jne	.LBB14_1

	mov	rdi, qword ptr [rbp - 64]
	mov	esi, 8
	call	_ZN5Botan2CT8unpoisonIjEEvPKT_m
	mov	rsi, qword ptr [rbp - 216]
	shl	rsi, 2
	mov	rdx, qword ptr [rbp - 64]
	mov	rdi, qword ptr [rbp - 232]
	call	_ZN5Botan11copy_out_beIjEEvPhmPKT_
	mov	rax, qword ptr [rbp - 152]
	shl	rax, 4
	mov	rcx, qword ptr [rbp - 224]
	add	rcx, rax
	mov	qword ptr [rbp - 176], rcx 
	mov	r14, qword ptr [rbp - 232]
	add	r14, rax
	mov	rax, qword ptr [rbp - 104]
	mov	rax, qword ptr [rax]
	sub	rax, qword ptr [rbp - 152]
	mov	rcx, qword ptr [rbp - 104]
	mov	qword ptr [rcx], rax
	mov	rax, qword ptr [rbp - 160]
	mov	ecx, -1768416038
	jmp	.LBB14_1
.LBB14_31:                              
	cmp	ecx, -321626662
	je	.LBB14_108

	cmp	ecx, -216539823
	je	.LBB14_91

	cmp	ecx, -110489924
	jne	.LBB14_1

	mov	eax, dword ptr [rip + x.34]
	lea	ecx, [rax - 1]
	imul	ecx, eax
	not	ecx
	or	ecx, -2
	cmp	ecx, -1
	sete	al
	mov	ecx, 1645110340
	mov	esi, 1807305660
	cmove	ecx, esi
	cmp	dword ptr [rip + y.35], 10
	setl	dl
	mov	edi, 1645110340
	jmp	.LBB14_35
.LBB14_71:                              
	cmp	ecx, 1569234291
	je	.LBB14_112

	cmp	ecx, 1594563548
	je	.LBB14_107

	cmp	ecx, 1645110340
	jne	.LBB14_1

	mov	rax, qword ptr [rbp - 112]
	mov	rax, qword ptr [rbp - 112]
	mov	qword ptr [rax], 2
	mov	ecx, 1807305660
	jmp	.LBB14_1
.LBB14_21:                              
	cmp	ecx, -979933664
	je	.LBB14_90

	cmp	ecx, -967612761
	je	.LBB14_99

	cmp	ecx, -957389064
	jne	.LBB14_1

	mov	rax, qword ptr [rbp - 72]
	inc	rax
	mov	qword ptr [rbp - 192], rax 
	mov	ecx, -2043389537
	jmp	.LBB14_1
.LBB14_41:                              
	cmp	ecx, 284080076
	je	.LBB14_118

	cmp	ecx, 336831223
	je	.LBB14_116

	cmp	ecx, 451653346
	jne	.LBB14_1

	mov	rdi, r13
	call	_ZNKSt6vectorIjN5Botan16secure_allocatorIjEEE4sizeEv
	cmp	rax, 60
	mov	ecx, -2110106183
	mov	eax, -1098878018
	cmove	ecx, eax
	jmp	.LBB14_1
.LBB14_52:                              
	cmp	ecx, 564911356
	je	.LBB14_110

	cmp	ecx, 603457855
	je	.LBB14_92

	cmp	ecx, 643592560
	jne	.LBB14_1

	movzx	eax, byte ptr [rbp - 55]
	test	al, al
	mov	ecx, -957389064
	mov	eax, 1569234291
	cmovne	ecx, eax
	jmp	.LBB14_1
.LBB14_61:                              
	cmp	ecx, 1079384887
	je	.LBB14_119

	cmp	ecx, 1209946746
	je	.LBB14_100

	cmp	ecx, 1215069263
	jne	.LBB14_1

	mov	rdi, qword ptr [rbp - 64]
	call	_ZN5Botan12_GLOBAL__N_18AES_SBOXEPj
	mov	rdi, qword ptr [rbp - 64]
	call	_ZN5Botan12_GLOBAL__N_110shift_rowsEPj
	mov	rdi, qword ptr [rbp - 64]
	call	_ZN5Botan12_GLOBAL__N_113bit_transposeEPj
	mov	ecx, 1594563548
	jmp	.LBB14_1
.LBB14_85:                              
	cmp	ecx, 1919760339
	je	.LBB14_93

	cmp	ecx, 2100145621
	jne	.LBB14_1

	mov	rax, qword ptr [rbp - 104]
	mov	ecx, -608939430
	jmp	.LBB14_1
.LBB14_6:                               
	cmp	ecx, -2043389537
	jne	.LBB14_7

	mov	rax, qword ptr [rbp - 192] 
	mov	qword ptr [rbp - 72], rax
	mov	rax, qword ptr [rbp - 200]
	mov	rcx, qword ptr [rbp - 72]
	cmp	rcx, rax
	mov	ecx, -1521632672
	mov	eax, -1979071595
	cmove	ecx, eax
	jmp	.LBB14_1
.LBB14_120:                             
	mov	rax, qword ptr [rbp - 80]
	mov	rax, qword ptr [rbp - 80]
	mov	rax, qword ptr [rbp - 80]
	mov	rax, qword ptr [rbp - 80]
	mov	rax, qword ptr [rbp - 80]
	mov	rax, qword ptr [rbp - 80]
	mov	rax, qword ptr [rbp - 80]
	mov	rax, qword ptr [rbp - 80]
	mov	rax, qword ptr [rbp - 80]
	mov	rax, qword ptr [rbp - 80]
	mov	rax, qword ptr [rbp - 120]
	mov	ecx, 1919760339
	jmp	.LBB14_1
.LBB14_105:                             
	mov	eax, dword ptr [rip + x.34]
	mov	edx, dword ptr [rip + y.35]
	lea	ecx, [rax - 1]
	imul	ecx, eax
	not	ecx
	or	ecx, -2
	cmp	ecx, -1
	sete	al
	cmp	edx, 10
	setl	bl
	xor	bl, al
	mov	eax, 1215069263
	mov	esi, 1594563548
	jmp	.LBB14_106
.LBB14_97:                              
	mov	eax, dword ptr [rip + x.34]
	mov	edx, dword ptr [rip + y.35]
	lea	ecx, [rax - 1]
	imul	ecx, eax
	mov	eax, ecx
	xor	eax, -2
	and	eax, ecx
	sete	cl
	cmp	edx, 10
	setl	bl
	xor	bl, cl
	mov	esi, 2100145621
	mov	edi, 930074996
	cmovne	esi, edi
	test	eax, eax
	mov	ecx, esi
	cmove	ecx, edi
	cmp	edx, 10
	mov	rax, qword ptr [rbp - 104]
	cmovge	ecx, esi
	cmp	qword ptr [rax], 0
	setne	byte ptr [rbp - 54]
	jmp	.LBB14_1
.LBB14_103:                             
	mov	ecx, 1209946746
	mov	rax, qword ptr [rbp - 264]
	mov	qword ptr [rbp - 168], rax 
	jmp	.LBB14_1
.LBB14_102:                             
	mov	eax, dword ptr [rip + x.34]
	mov	edx, dword ptr [rip + y.35]
	lea	ecx, [rax - 1]
	imul	ecx, eax
	mov	eax, ecx
	xor	eax, -2
	and	eax, ecx
	sete	cl
	cmp	edx, 10
	setl	bl
	xor	bl, cl
	mov	esi, 1904857086
	mov	edi, -470695204
	cmovne	esi, edi
	test	eax, eax
	mov	ecx, esi
	cmove	ecx, edi
	cmp	edx, 10
	cmovge	ecx, esi
	jmp	.LBB14_1
.LBB14_101:                             
	mov	rdi, qword ptr [rbp - 64]
	call	_ZN5Botan12_GLOBAL__N_113bit_transposeEPj
	mov	ecx, -2043389537
	xor	eax, eax
	mov	qword ptr [rbp - 192], rax 
	jmp	.LBB14_1
.LBB14_114:                             
	mov	ecx, 564911356
	mov	rax, qword ptr [rbp - 272]
	mov	qword ptr [rbp - 184], rax 
	jmp	.LBB14_1
.LBB14_109:                             
	mov	rdi, qword ptr [rbp - 64]
	call	_ZN5Botan12_GLOBAL__N_18AES_SBOXEPj
	mov	rdi, qword ptr [rbp - 64]
	call	_ZN5Botan12_GLOBAL__N_110shift_rowsEPj
	mov	rdi, qword ptr [rbp - 64]
	call	_ZN5Botan12_GLOBAL__N_111mix_columnsEPj
	mov	ecx, 564911356
	xor	eax, eax
	mov	qword ptr [rbp - 184], rax 
	jmp	.LBB14_1
.LBB14_95:                              
	mov	ecx, -1768416038
	mov	rax, qword ptr [rbp - 240] 
	mov	qword ptr [rbp - 176], rax 
	mov	r14, qword ptr [rbp - 248] 
	jmp	.LBB14_1
.LBB14_89:                              
	mov	rax, rsp
	add	rax, -16
	mov	rsp, rax
	mov	qword ptr [rbp - 104], rax
	mov	rax, rsp
	add	rax, -416
	mov	rsp, rax
	mov	qword ptr [rbp - 128], rax
	mov	rax, rsp
	add	rax, -16
	mov	rsp, rax
	mov	qword ptr [rbp - 112], rax
	mov	rax, rsp
	add	rax, -32
	mov	rsp, rax
	mov	qword ptr [rbp - 96], rax
	mov	rax, qword ptr [rbp - 104]
	mov	rcx, qword ptr [rbp - 256] 
	mov	qword ptr [rax], rcx
	mov	rdi, r13
	call	_ZNKSt6vectorIjN5Botan16secure_allocatorIjEEE4sizeEv
	mov	ecx, dword ptr [rip + x.34]
	mov	edi, dword ptr [rip + y.35]
	mov	esi, ecx
	neg	esi
	not	esi
	imul	esi, ecx
	mov	ecx, esi
	xor	ecx, -2
	and	ecx, esi
	sete	bl
	cmp	edi, 10
	setl	dl
	xor	dl, bl
	mov	edx, 284080076
	mov	esi, 1824079259
	cmovne	edx, esi
	test	ecx, ecx
	mov	ecx, edx
	cmove	ecx, esi
	cmp	edi, 10
	cmovge	ecx, edx
	cmp	rax, 44
	sete	byte ptr [rbp - 51]
	jmp	.LBB14_1
.LBB14_111:                             
	mov	eax, dword ptr [rip + x.34]
	mov	edx, dword ptr [rip + y.35]
	mov	ecx, eax
	neg	ecx
	not	ecx
	imul	ecx, eax
	mov	eax, ecx
	xor	eax, -2
	and	eax, ecx
	sete	cl
	cmp	edx, 10
	setl	bl
	xor	bl, cl
	mov	esi, 150621738
	mov	edi, 643592560
	cmovne	esi, edi
	test	eax, eax
	mov	ecx, esi
	cmove	ecx, edi
	cmp	edx, 10
	mov	rax, qword ptr [rbp - 88]
	cmovge	ecx, esi
	cmp	rax, 8
	setne	byte ptr [rbp - 55]
	jmp	.LBB14_1
.LBB14_113:                             
	mov	rax, qword ptr [rbp - 72]
	mov	rcx, qword ptr [rbp - 88]
	lea	rax, [rcx + 8*rax]
	mov	rcx, qword ptr [rbp - 128]
	mov	eax, dword ptr [rcx + 4*rax]
	mov	rcx, qword ptr [rbp - 96]
	mov	rdx, qword ptr [rbp - 88]
	mov	esi, dword ptr [rcx + 4*rdx]
	mov	edi, esi
	not	edi
	and	edi, -646228181
	and	esi, 646228180
	or	esi, edi
	mov	edi, eax
	not	edi
	and	edi, -646228181
	and	eax, 646228180
	or	eax, edi
	xor	eax, esi
	mov	dword ptr [rcx + 4*rdx], eax
	mov	rax, qword ptr [rbp - 88]
	xor	ecx, ecx
	sub	rcx, rax
	mov	eax, 1
	sub	rax, rcx
	mov	qword ptr [rbp - 272], rax
	mov	eax, dword ptr [rip + x.34]
	lea	ecx, [rax - 1]
	imul	ecx, eax
	not	ecx
	or	ecx, -2
	cmp	ecx, -1
	sete	al
	mov	ecx, 510697384
	mov	esi, 1459884815
	cmove	ecx, esi
	cmp	dword ptr [rip + y.35], 10
	setl	dl
	mov	edi, 510697384
.LBB14_35:                              
	cmovge	ecx, edi
	xor	dl, al
	cmovne	ecx, esi
	jmp	.LBB14_1
.LBB14_98:                              
	movzx	eax, byte ptr [rbp - 54]
	test	al, al
	mov	ecx, -897588235
	mov	eax, -967612761
	cmovne	ecx, eax
	jmp	.LBB14_1
.LBB14_115:                             
	mov	qword ptr [rbp - 136], r12
	mov	rax, qword ptr [rbp - 136]
	cmp	rax, 8
	mov	ecx, 336831223
	mov	eax, -1700403592
	cmove	ecx, eax
	jmp	.LBB14_1
.LBB14_94:                              
	mov	rax, qword ptr [rbp - 112]
	mov	qword ptr [rbp - 208], rax
	mov	rax, qword ptr [rbp - 208]
	mov	rax, qword ptr [rbp - 112]
	mov	qword ptr [rax], 2
	mov	eax, dword ptr [rip + x.34]
	lea	ecx, [rax - 1]
	imul	ecx, eax
	mov	eax, ecx
	xor	eax, -2
	and	eax, ecx
	sete	dl
	test	eax, eax
	mov	ecx, 1645110340
	mov	edi, -1502997995
	cmove	ecx, edi
	cmp	dword ptr [rip + y.35], 10
	setl	al
	mov	esi, 1645110340
	cmovge	ecx, esi
	xor	al, dl
	cmovne	ecx, edi
	jmp	.LBB14_1
.LBB14_88:                              
	movzx	eax, byte ptr [rbp - 49]
	movzx	ecx, byte ptr [rbp - 50]
	mov	edx, eax
	xor	dl, cl
	test	cl, cl
	mov	ecx, 284080076
	mov	esi, 106579970
	cmovne	ecx, esi
	test	al, al
	mov	eax, 284080076
	cmove	ecx, eax
	test	dl, dl
	cmovne	ecx, esi
	jmp	.LBB14_1
.LBB14_96:                              
	mov	rax, qword ptr [rbp - 176] 
	mov	qword ptr [rbp - 224], rax
	mov	qword ptr [rbp - 232], r14
	mov	eax, dword ptr [rip + x.34]
	lea	ecx, [rax - 1]
	imul	ecx, eax
	mov	eax, ecx
	xor	eax, -2
	and	eax, ecx
	sete	dl
	test	eax, eax
	mov	ecx, 2100145621
	mov	esi, -608939430
	cmove	ecx, esi
	cmp	dword ptr [rip + y.35], 10
	setl	al
	mov	edi, 2100145621
	cmovge	ecx, edi
	xor	al, dl
	cmovne	ecx, esi
	jmp	.LBB14_1
.LBB14_108:                             
	mov	ecx, 1667860589
	xor	r12d, r12d
	jmp	.LBB14_1
.LBB14_91:                              
	movzx	eax, byte ptr [rbp - 52]
	test	al, al
	mov	ecx, 451653346
.LBB14_80:                              
	mov	eax, -1098878018
	cmovne	ecx, eax
	jmp	.LBB14_1
.LBB14_112:                             
	mov	eax, dword ptr [rip + x.34]
	mov	edx, dword ptr [rip + y.35]
	lea	ecx, [rax - 1]
	imul	ecx, eax
	not	ecx
	or	ecx, -2
	cmp	ecx, -1
	sete	al
	cmp	edx, 10
	setl	bl
	xor	bl, al
	mov	eax, 510697384
	mov	esi, 667301124
	jmp	.LBB14_106
.LBB14_107:                             
	mov	rdi, qword ptr [rbp - 64]
	call	_ZN5Botan12_GLOBAL__N_18AES_SBOXEPj
	mov	rdi, qword ptr [rbp - 64]
	call	_ZN5Botan12_GLOBAL__N_110shift_rowsEPj
	mov	rdi, qword ptr [rbp - 64]
	call	_ZN5Botan12_GLOBAL__N_113bit_transposeEPj
	mov	eax, dword ptr [rip + x.34]
	mov	edx, dword ptr [rip + y.35]
	lea	ecx, [rax - 1]
	imul	ecx, eax
	not	ecx
	or	ecx, -2
	cmp	ecx, -1
	sete	al
	cmp	edx, 10
	setl	bl
	xor	bl, al
	mov	eax, 1215069263
	mov	esi, -321626662
	jmp	.LBB14_106
.LBB14_90:                              
	mov	eax, dword ptr [rip + x.34]
	lea	ecx, [rax - 1]
	imul	ecx, eax
	not	ecx
	or	ecx, -2
	cmp	ecx, -1
	sete	al
	mov	ecx, 1079384887
	mov	edi, -1789092879
	cmove	ecx, edi
	cmp	dword ptr [rip + y.35], 10
	setl	dl
	mov	esi, 1079384887
	cmovge	ecx, esi
	xor	dl, al
	cmovne	ecx, edi
	jmp	.LBB14_1
.LBB14_99:                              
	mov	rdi, qword ptr [rbp - 104]
	mov	rsi, qword ptr [rbp - 112]
	call	_ZSt3minImERKT_S2_S2_
	mov	rax, qword ptr [rax]
	mov	qword ptr [rbp - 152], rax
	mov	rax, qword ptr [rbp - 96]
	mov	qword ptr [rbp - 160], rax
	mov	rax, qword ptr [rbp - 160]
	mov	rax, qword ptr [rbp - 160]
	xorps	xmm0, xmm0
	movaps	xmmword ptr [rax], xmm0
	movaps	xmmword ptr [rax + 16], xmm0
	mov	rax, qword ptr [rbp - 96]
	mov	qword ptr [rbp - 64], rax
	mov	rax, qword ptr [rbp - 152]
	shl	rax, 2
	mov	qword ptr [rbp - 216], rax
	mov	rdi, qword ptr [rbp - 64]
	mov	rdx, qword ptr [rbp - 216]
	mov	rsi, qword ptr [rbp - 224]
	call	_ZN5Botan7load_beIjEEvPT_PKhm
	mov	rdi, qword ptr [rbp - 64]
	mov	esi, 8
	call	_ZN5Botan2CT6poisonIjEEvPKT_m
	mov	ecx, 1209946746
	xor	eax, eax
	mov	qword ptr [rbp - 168], rax 
	jmp	.LBB14_1
.LBB14_118:                             
	mov	rdi, r13
	call	_ZNKSt6vectorIjN5Botan16secure_allocatorIjEEE4sizeEv
	mov	ecx, 106579970
	jmp	.LBB14_1
.LBB14_116:                             
	mov	rax, qword ptr [rbp - 80]
	shl	rax, 2
	mov	rsi, qword ptr [rbp - 136]
	and	esi, 3
	movabs	rcx, -5961435682130841876
	mov	rdx, rcx
	not	rcx
	and	rcx, rax
	not	rax
	and	rax, rdx
	or	rcx, rax
	or	rsi, rdx
	xor	rsi, rcx
	mov	rdi, r13
	call	_ZNKSt6vectorIjN5Botan16secure_allocatorIjEEEixEm
	mov	eax, dword ptr [rax]
	mov	rcx, qword ptr [rbp - 96]
	mov	rdx, qword ptr [rbp - 136]
	mov	esi, dword ptr [rcx + 4*rdx]
	mov	edi, esi
	not	edi
	and	edi, -1722765897
	and	esi, 1722765896
	or	esi, edi
	mov	edi, eax
	not	edi
	and	edi, -1722765897
	and	eax, 1722765896
	or	eax, edi
	xor	eax, esi
	mov	dword ptr [rcx + 4*rdx], eax
	mov	rax, qword ptr [rbp - 136]
	xor	ecx, ecx
	sub	rcx, rax
	mov	r12d, 1
	sub	r12, rcx
	mov	ecx, 1667860589
	jmp	.LBB14_1
.LBB14_110:                             
	mov	eax, dword ptr [rip + x.34]
	mov	edx, dword ptr [rip + y.35]
	lea	ecx, [rax - 1]
	imul	ecx, eax
	mov	eax, ecx
	xor	eax, -2
	and	eax, ecx
	sete	cl
	cmp	edx, 10
	setl	bl
	xor	bl, cl
	mov	esi, 150621738
	mov	edi, 109441007
	cmovne	esi, edi
	test	eax, eax
	mov	ecx, esi
	cmove	ecx, edi
	cmp	edx, 10
	mov	rax, qword ptr [rbp - 184] 
	mov	qword ptr [rbp - 88], rax
	cmovge	ecx, esi
	jmp	.LBB14_1
.LBB14_92:                              
	mov	eax, dword ptr [rip + x.34]
	mov	edx, dword ptr [rip + y.35]
	lea	ecx, [rax - 1]
	imul	ecx, eax
	mov	eax, ecx
	xor	eax, -2
	and	eax, ecx
	sete	cl
	cmp	edx, 10
	setl	bl
	xor	bl, cl
	mov	esi, 1896855635
	mov	edi, 1919760339
	cmovne	esi, edi
	test	eax, eax
	mov	ecx, esi
	cmove	ecx, edi
	cmp	edx, 10
	mov	qword ptr [rbp - 120], r15
	cmovge	ecx, esi
	jmp	.LBB14_1
.LBB14_119:                             
	mov	rdi, r13
	call	_ZNKSt6vectorIjN5Botan16secure_allocatorIjEEE4sizeEv
	mov	ecx, -1789092879
	jmp	.LBB14_1
.LBB14_100:                             
	mov	rax, qword ptr [rbp - 168] 
	mov	qword ptr [rbp - 48], rax
	mov	rax, qword ptr [rbp - 48]
	cmp	rax, 8
	mov	ecx, 494127934
	mov	eax, 1296304922
	cmove	ecx, eax
	jmp	.LBB14_1
.LBB14_93:                              
	mov	eax, dword ptr [rip + x.34]
	mov	edx, dword ptr [rip + y.35]
	lea	ecx, [rax - 1]
	imul	ecx, eax
	not	ecx
	or	ecx, -2
	cmp	ecx, -1
	sete	al
	cmp	edx, 10
	setl	bl
	xor	bl, al
	mov	eax, 1896855635
	mov	esi, 1047892441
	cmovne	eax, esi
	cmp	ecx, -1
	mov	ecx, eax
	cmove	ecx, esi
	cmp	edx, 10
	mov	rdx, qword ptr [rbp - 80]
	cmovge	ecx, eax
	movabs	rax, 6028988003837823002
	sub	rdx, rax
	lea	rax, [rdx + rax - 1]
	mov	qword ptr [rbp - 200], rax
	mov	rax, qword ptr [rbp - 200]
	mov	rdx, qword ptr [rbp - 120]
	cmp	rdx, rax
	setb	byte ptr [rbp - 53]
	jmp	.LBB14_1
.LBB14_7:                               
	cmp	ecx, -2110106183
	jne	.LBB14_1

	mov	edi, .L.str.3
	mov	esi, .L.str.4
	mov	edx, .L__func__._ZN5Botan12_GLOBAL__N_113aes_encrypt_nEPKhPhmRKSt6vectorIjNS_16secure_allocatorIjEEE
	mov	ecx, .L.str.5
	mov	r8d, 520
	call	_ZN5Botan17assertion_failureEPKcS1_S1_S1_i
.LBB14_117:
	mov	rax, qword ptr [rbp - 208]
	mov	rax, qword ptr [rbp - 144]
	lea	rsp, [rbp - 40]
	pop	rbx
	pop	r12
	pop	r13
	pop	r14
	pop	r15
	pop	rbp
	ret
.Lfunc_end14:
	.size	_ZN5Botan12_GLOBAL__N_113aes_encrypt_nEPKhPhmRKSt6vectorIjNS_16secure_allocatorIjEEE, .Lfunc_end14-_ZN5Botan12_GLOBAL__N_113aes_encrypt_nEPKhPhmRKSt6vectorIjNS_16secure_allocatorIjEEE
	.cfi_endproc

	.globl	_ZNK5Botan7AES_1289decrypt_nEPKhPhm 
	.p2align	4, 0x90
	.type	_ZNK5Botan7AES_1289decrypt_nEPKhPhm,@function
_ZNK5Botan7AES_1289decrypt_nEPKhPhm:    
	.cfi_startproc

	push	rbp
.Lcfi82:
	.cfi_def_cfa_offset 16
	push	r15
.Lcfi83:
	.cfi_def_cfa_offset 24
	push	r14
.Lcfi84:
	.cfi_def_cfa_offset 32
	push	r13
.Lcfi85:
	.cfi_def_cfa_offset 40
	push	r12
.Lcfi86:
	.cfi_def_cfa_offset 48
	push	rbx
.Lcfi87:
	.cfi_def_cfa_offset 56
	push	rax
.Lcfi88:
	.cfi_def_cfa_offset 64
.Lcfi89:
	.cfi_offset rbx, -56
.Lcfi90:
	.cfi_offset r12, -48
.Lcfi91:
	.cfi_offset r13, -40
.Lcfi92:
	.cfi_offset r14, -32
.Lcfi93:
	.cfi_offset r15, -24
.Lcfi94:
	.cfi_offset rbp, -16
	mov	r14, rcx
	mov	r15, rdx
	mov	r12, rsi
	mov	rbx, rdi
	lea	rax, [rbx + 32]
	mov	qword ptr [rsp], rax
	mov	rdi, qword ptr [rsp]
	call	_ZNKSt6vectorIjN5Botan16secure_allocatorIjEEE5emptyEv
	xor	al, 1
	movzx	esi, al
	mov	rdi, rbx
	call	_ZNK5Botan18SymmetricAlgorithm14verify_key_setEb
	mov	eax, 544545011
	mov	ebp, -1849558677
	mov	r13d, -2080668785
	jmp	.LBB15_1
.LBB15_9:                               
	call	_ZN5Botan5CPUID10has_hw_aesEv
	test	al, al
	mov	eax, 854960523
	cmovne	eax, r13d
	.p2align	4, 0x90
.LBB15_1:                               
	cmp	eax, 544545010
	jg	.LBB15_6

	cmp	eax, -2080668785
	je	.LBB15_10

	cmp	eax, -1849558677
	je	.LBB15_12

	cmp	eax, -1288743327
	jne	.LBB15_1
	jmp	.LBB15_5
	.p2align	4, 0x90
.LBB15_6:                               
	cmp	eax, 1600654096
	je	.LBB15_13

	cmp	eax, 854960523
	je	.LBB15_11

	cmp	eax, 544545011
	jne	.LBB15_1
	jmp	.LBB15_9
.LBB15_10:                              
	mov	rdi, rbx
	mov	rsi, r12
	mov	rdx, r15
	mov	rcx, r14
	call	_ZNK5Botan7AES_12816hw_aes_decrypt_nEPKhPhm
	mov	eax, -1288743327
	jmp	.LBB15_1
.LBB15_12:                              
	mov	rdi, rbx
	mov	rsi, r12
	mov	rdx, r15
	mov	rcx, r14
	call	_ZNK5Botan7AES_12815vperm_decrypt_nEPKhPhm
	mov	eax, -1288743327
	jmp	.LBB15_1
.LBB15_13:                              
	mov	rcx, qword ptr [rsp]
	mov	rdi, r12
	mov	rsi, r15
	mov	rdx, r14
	call	_ZN5Botan12_GLOBAL__N_113aes_decrypt_nEPKhPhmRKSt6vectorIjNS_16secure_allocatorIjEEE
	mov	eax, -1288743327
	jmp	.LBB15_1
.LBB15_11:                              
	call	_ZN5Botan5CPUID9has_vpermEv
	test	al, al
	mov	eax, 1600654096
	cmovne	eax, ebp
	jmp	.LBB15_1
.LBB15_5:
	add	rsp, 8
	pop	rbx
	pop	r12
	pop	r13
	pop	r14
	pop	r15
	pop	rbp
	ret
.Lfunc_end15:
	.size	_ZNK5Botan7AES_1289decrypt_nEPKhPhm, .Lfunc_end15-_ZNK5Botan7AES_1289decrypt_nEPKhPhm
	.cfi_endproc

	.p2align	4, 0x90         
	.type	_ZN5Botan12_GLOBAL__N_113aes_decrypt_nEPKhPhmRKSt6vectorIjNS_16secure_allocatorIjEEE,@function
_ZN5Botan12_GLOBAL__N_113aes_decrypt_nEPKhPhmRKSt6vectorIjNS_16secure_allocatorIjEEE: 
	.cfi_startproc

	push	rbp
.Lcfi95:
	.cfi_def_cfa_offset 16
	push	r15
.Lcfi96:
	.cfi_def_cfa_offset 24
	push	r14
.Lcfi97:
	.cfi_def_cfa_offset 32
	push	r13
.Lcfi98:
	.cfi_def_cfa_offset 40
	push	r12
.Lcfi99:
	.cfi_def_cfa_offset 48
	push	rbx
.Lcfi100:
	.cfi_def_cfa_offset 56
	sub	rsp, 664
.Lcfi101:
	.cfi_def_cfa_offset 720
.Lcfi102:
	.cfi_offset rbx, -56
.Lcfi103:
	.cfi_offset r12, -48
.Lcfi104:
	.cfi_offset r13, -40
.Lcfi105:
	.cfi_offset r14, -32
.Lcfi106:
	.cfi_offset r15, -24
.Lcfi107:
	.cfi_offset rbp, -16
	mov	r15, rcx
	mov	qword ptr [rsp + 184], rsi 
	mov	qword ptr [rsp + 176], rdi 
	mov	qword ptr [rsp + 48], rdx
	mov	rdi, r15
	call	_ZNKSt6vectorIjN5Botan16secure_allocatorIjEEE4sizeEv
	mov	qword ptr [rsp + 192], rax
	mov	eax, 1535336247










	jmp	.LBB16_1
.LBB16_96:                              
	cmp	ecx, 10
	cmovl	eax, esi
	.p2align	4, 0x90
.LBB16_1:                               
	cmp	eax, -164962809
	jle	.LBB16_2

	cmp	eax, 1261131784
	jg	.LBB16_65

	cmp	eax, 747597046
	jle	.LBB16_48

	cmp	eax, 773661024
	jle	.LBB16_57

	cmp	eax, 773661025
	je	.LBB16_140

	cmp	eax, 1060287238
	je	.LBB16_97

	cmp	eax, 1219493430
	jne	.LBB16_1

	mov	eax, -290469214
	xor	r12d, r12d
	jmp	.LBB16_1
	.p2align	4, 0x90
.LBB16_2:                               
	cmp	eax, -1410906987
	jg	.LBB16_26

	cmp	eax, -1646123138
	jg	.LBB16_13

	cmp	eax, -1933139838
	jle	.LBB16_5

	cmp	eax, -1933139837
	je	.LBB16_110

	cmp	eax, -1776964524
	je	.LBB16_106

	cmp	eax, -1700078195
	jne	.LBB16_1

	mov	rax, qword ptr [rsp + 112] 
	mov	qword ptr [rsp + 24], rax
	mov	rax, qword ptr [rsp + 136]
	mov	rcx, qword ptr [rsp + 24]
	cmp	rcx, rax
	mov	eax, -446979850
	je	.LBB16_1

	mov	eax, 2130691378
	jmp	.LBB16_1
	.p2align	4, 0x90
.LBB16_65:                              
	cmp	eax, 1744863716
	jg	.LBB16_75

	cmp	eax, 1504213282
	jle	.LBB16_67

	cmp	eax, 1504213283
	je	.LBB16_133

	cmp	eax, 1509748059
	je	.LBB16_134

	cmp	eax, 1535336247
	jne	.LBB16_1

	mov	rax, qword ptr [rsp + 192]
	cmp	rax, 44
	mov	eax, -2107785321
	je	.LBB16_1

	mov	eax, 1744863717
	jmp	.LBB16_1
	.p2align	4, 0x90
.LBB16_26:                              
	cmp	eax, -597596515
	jg	.LBB16_38

	cmp	eax, -1094426959
	jle	.LBB16_28

	cmp	eax, -1094426958
	je	.LBB16_103

	cmp	eax, -1065855351
	je	.LBB16_104

	cmp	eax, -647748381
	jne	.LBB16_1

	mov	qword ptr [rsp + 32], rbp
	mov	eax, dword ptr [rip + x.38]
	mov	ecx, dword ptr [rip + y.39]
	mov	edx, eax
	neg	edx
	not	edx
	imul	edx, eax
	mov	eax, edx
	xor	eax, -2
	and	eax, edx
	sete	bl
	test	eax, eax
	mov	eax, 1799547291
	mov	edx, 601308945
	mov	esi, 1799547291
	je	.LBB16_36

	mov	esi, 601308945
.LBB16_36:                              
	cmp	ecx, 10
	setl	cl
	cmovl	edx, esi
	xor	cl, bl
	jne	.LBB16_1

	mov	eax, edx
	jmp	.LBB16_1
.LBB16_48:                              
	cmp	eax, 503376577
	jle	.LBB16_49

	cmp	eax, 503376578
	je	.LBB16_136

	cmp	eax, 601308945
	je	.LBB16_138

	cmp	eax, 699437072
	jne	.LBB16_1

	lea	rax, [rsp + 120]
	mov	qword ptr [rsp + 144], rax
	mov	rax, qword ptr [rsp + 144]
	mov	qword ptr [rsp + 120], 2
	mov	eax, -1065855351
	mov	rcx, qword ptr [rsp + 176] 
	mov	qword ptr [rsp + 104], rcx 
	mov	r13, qword ptr [rsp + 184] 
	jmp	.LBB16_1
.LBB16_75:                              
	cmp	eax, 2000345186
	jle	.LBB16_76

	cmp	eax, 2000345187
	je	.LBB16_109

	cmp	eax, 2008468986
	je	.LBB16_113

	cmp	eax, 2130691378
	jne	.LBB16_1

	mov	eax, dword ptr [rip + x.38]
	mov	ecx, dword ptr [rip + y.39]
	mov	esi, eax
	neg	esi
	not	esi
	imul	esi, eax
	mov	edx, esi
	xor	edx, -2
	and	edx, esi
	sete	al
	cmp	ecx, 10
	setl	bl
	xor	bl, al
	mov	esi, -1646123137
	mov	eax, -1646123137
	jne	.LBB16_88
.LBB16_87:                              
	mov	eax, 489756781
.LBB16_88:                              
	test	edx, edx
	je	.LBB16_96
	jmp	.LBB16_95
.LBB16_13:                              
	cmp	eax, -1537058364
	jle	.LBB16_14

	cmp	eax, -1537058363
	je	.LBB16_91

	cmp	eax, -1531338646
	je	.LBB16_122

	cmp	eax, -1475648472
	jne	.LBB16_1

	mov	rdi, qword ptr [rsp + 8]
	call	_ZN5Botan12_GLOBAL__N_113bit_transposeEPj
	mov	eax, dword ptr [rip + x.38]
	mov	ecx, dword ptr [rip + y.39]
	lea	edx, [rax - 1]
	imul	edx, eax
	not	edx
	or	edx, -2
	cmp	edx, -1
	sete	bl
	mov	eax, 2000345187
	mov	edx, -164962808
	mov	esi, 2000345187
	je	.LBB16_24

	mov	esi, -164962808
.LBB16_24:                              
	cmp	ecx, 10
	setl	cl
	cmovl	edx, esi
	xor	cl, bl
	jne	.LBB16_1

	mov	eax, edx
	jmp	.LBB16_1
.LBB16_38:                              
	cmp	eax, -303772399
	jle	.LBB16_39

	cmp	eax, -303772398
	je	.LBB16_137

	cmp	eax, -290469214
	je	.LBB16_101

	cmp	eax, -245243280
	jne	.LBB16_1

	mov	rax, qword ptr [rsp + 128]
	mov	rcx, qword ptr [rsp + 64]
	and	ecx, 3
	lea	rsi, [rcx + 4*rax]
	mov	rdi, r15
	call	_ZNKSt6vectorIjN5Botan16secure_allocatorIjEEEixEm
	mov	eax, dword ptr [rax]
	mov	rcx, qword ptr [rsp + 64]
	mov	edx, dword ptr [rsp + 4*rcx + 208]
	mov	esi, edx
	not	esi
	and	esi, eax
	not	eax
	and	eax, edx
	or	eax, esi
	mov	dword ptr [rsp + 4*rcx + 208], eax
	mov	rax, qword ptr [rsp + 64]
	xor	ecx, ecx
	sub	rcx, rax
	mov	r14d, 1
	sub	r14, rcx
	mov	eax, 1509748059
	jmp	.LBB16_1
.LBB16_57:                              
	cmp	eax, 747597047
	je	.LBB16_112

	cmp	eax, 768147178
	jne	.LBB16_59

	mov	eax, dword ptr [rip + x.38]
	mov	ecx, dword ptr [rip + y.39]
	lea	edx, [rax - 1]
	imul	edx, eax
	not	edx
	or	edx, -2
	cmp	edx, -1
	sete	bl
	mov	eax, 1261131785
	mov	edx, 773661025
	mov	esi, 1261131785
	je	.LBB16_126

	mov	esi, 773661025
.LBB16_126:                             
	cmp	ecx, 10
	setl	cl
	cmovl	edx, esi
	xor	cl, bl
	jne	.LBB16_1

	mov	eax, edx
	jmp	.LBB16_1
.LBB16_67:                              
	cmp	eax, 1261131785
	je	.LBB16_128

	cmp	eax, 1278625660
	jne	.LBB16_1

	mov	rax, qword ptr [rsp + 40]
	mov	eax, -1410906986
	jmp	.LBB16_1
.LBB16_49:                              
	cmp	eax, -164962808
	je	.LBB16_139

	cmp	eax, 489756781
	jne	.LBB16_1

	mov	rdi, qword ptr [rsp + 8]
	call	_ZN5Botan12_GLOBAL__N_112AES_INV_SBOXEPj
	mov	rdi, qword ptr [rsp + 8]
	call	_ZN5Botan12_GLOBAL__N_114inv_shift_rowsEPj
	mov	rdi, qword ptr [rsp + 8]
	call	_ZN5Botan12_GLOBAL__N_115inv_mix_columnsEPj
	mov	eax, -1646123137
	jmp	.LBB16_1
.LBB16_76:                              
	cmp	eax, 1744863717
	je	.LBB16_89

	cmp	eax, 1799547291
	jne	.LBB16_1

	mov	eax, dword ptr [rip + x.38]
	mov	ecx, dword ptr [rip + y.39]
	lea	esi, [rax - 1]
	imul	esi, eax
	mov	edx, esi
	xor	edx, -2
	and	edx, esi
	sete	al
	cmp	ecx, 10
	setl	bl
	xor	bl, al
	mov	esi, -597596514
	mov	eax, -597596514
	jne	.LBB16_80

	mov	eax, 601308945
.LBB16_80:                              
	test	edx, edx
	je	.LBB16_82

	mov	esi, eax
.LBB16_82:                              
	cmp	ecx, 10
	mov	rcx, qword ptr [rsp + 32]
	cmovl	eax, esi
	cmp	rcx, 8
	setne	byte ptr [rsp + 22]
	jmp	.LBB16_1
.LBB16_5:                               
	cmp	eax, -2107785321
	je	.LBB16_92

	cmp	eax, -1977921710
	jne	.LBB16_1

	mov	rdi, qword ptr [rsp + 8]
	mov	esi, 8
	call	_ZN5Botan2CT8unpoisonIjEEvPKT_m
	mov	rsi, qword ptr [rsp + 152]
	shl	rsi, 2
	mov	rdx, qword ptr [rsp + 8]
	mov	rdi, qword ptr [rsp + 168]
	call	_ZN5Botan11copy_out_beIjEEvPhmPKT_
	mov	rax, qword ptr [rsp + 80]
	shl	rax, 4
	mov	rcx, qword ptr [rsp + 160]
	add	rcx, rax
	mov	qword ptr [rsp + 104], rcx 
	mov	r13, qword ptr [rsp + 168]
	add	r13, rax
	mov	rax, qword ptr [rsp + 80]
	mov	rcx, qword ptr [rsp + 48]
	movabs	rdx, -7771959365581406742
	add	rcx, rdx
	sub	rcx, rax
	sub	rcx, rdx
	mov	qword ptr [rsp + 48], rcx
	mov	rax, qword ptr [rsp + 88]
	mov	eax, -1065855351
	jmp	.LBB16_1
.LBB16_28:                              
	cmp	eax, -1410906986
	je	.LBB16_118

	cmp	eax, -1272121123
	jne	.LBB16_1

	mov	rax, qword ptr [rsp + 24]
	shl	rax, 3
	mov	rcx, qword ptr [rsp + 40]
	neg	rcx
	sub	rax, rcx
	mov	eax, dword ptr [rsp + 4*rax + 240]
	mov	rcx, qword ptr [rsp + 40]
	mov	edx, dword ptr [rsp + 4*rcx + 208]
	mov	esi, edx
	not	esi
	and	esi, -1190867873
	and	edx, 1190867872
	or	edx, esi
	mov	esi, eax
	not	esi
	and	esi, -1190867873
	and	eax, 1190867872
	or	eax, esi
	xor	eax, edx
	mov	dword ptr [rsp + 4*rcx + 208], eax
	mov	rax, qword ptr [rsp + 40]
	inc	rax
	mov	qword ptr [rsp + 96], rax 
	mov	eax, 2008468986
	jmp	.LBB16_1
.LBB16_14:                              
	cmp	eax, -1646123137
	je	.LBB16_111

	cmp	eax, -1626651850
	jne	.LBB16_1

	mov	eax, dword ptr [rip + x.38]
	mov	ecx, dword ptr [rip + y.39]
	lea	edx, [rax - 1]
	imul	edx, eax
	not	edx
	or	edx, -2
	cmp	edx, -1
	sete	al
	cmp	ecx, 10
	setl	bl
	xor	bl, al
	mov	eax, -1475648472
	mov	esi, -1475648472
	jne	.LBB16_18

	mov	esi, -164962808
.LBB16_18:                              
	cmp	edx, -1
	cmovne	eax, esi
	cmp	ecx, 10
	cmovge	eax, esi
	jmp	.LBB16_1
.LBB16_39:                              
	cmp	eax, -597596514
	je	.LBB16_107

	cmp	eax, -446979850
	jne	.LBB16_1

	mov	rdi, qword ptr [rsp + 8]
	call	_ZN5Botan12_GLOBAL__N_112AES_INV_SBOXEPj
	mov	rdi, qword ptr [rsp + 8]
	call	_ZN5Botan12_GLOBAL__N_114inv_shift_rowsEPj
	mov	rdi, qword ptr [rsp + 8]
	call	_ZN5Botan12_GLOBAL__N_113bit_transposeEPj
	mov	eax, 1509748059
	xor	r14d, r14d
	jmp	.LBB16_1
.LBB16_140:                             
	mov	rax, qword ptr [rsp + 24]
	mov	rax, qword ptr [rsp + 24]
	mov	rax, qword ptr [rsp + 24]
	mov	rax, qword ptr [rsp + 24]
	mov	rax, qword ptr [rsp + 24]
	mov	rax, qword ptr [rsp + 24]
	mov	rax, qword ptr [rsp + 24]
	mov	eax, 1261131785
	jmp	.LBB16_1
.LBB16_97:                              
	mov	rdi, r15
	call	_ZNKSt6vectorIjN5Botan16secure_allocatorIjEEE4sizeEv
	add	rax, -4
	shr	rax, 2
	mov	qword ptr [rsp + 128], rax
	lea	rax, [rsp + 240]
	mov	qword ptr [rsp + 72], rax
	mov	rax, qword ptr [rsp + 72]
	mov	rdi, qword ptr [rsp + 72]
	xor	esi, esi
	mov	edx, 416
	call	memset
	mov	eax, dword ptr [rip + x.38]
	mov	ecx, dword ptr [rip + y.39]
	mov	edx, eax
	neg	edx
	not	edx
	imul	edx, eax
	not	edx
	or	edx, -2
	cmp	edx, -1
	sete	bl
	mov	eax, 1219493430
	mov	edx, -303772398
	mov	esi, 1219493430
	je	.LBB16_99

	mov	esi, -303772398
.LBB16_99:                              
	cmp	ecx, 10
	setl	cl
	cmovl	edx, esi
	xor	cl, bl
	jne	.LBB16_1

	mov	eax, edx
	jmp	.LBB16_1
.LBB16_110:                             
	mov	rsi, qword ptr [rsp + 32]
	and	esi, 3
	mov	rdi, r15
	call	_ZNKSt6vectorIjN5Botan16secure_allocatorIjEEEixEm
	mov	eax, dword ptr [rax]
	mov	rcx, qword ptr [rsp + 32]
	mov	edx, dword ptr [rsp + 4*rcx + 208]
	mov	esi, edx
	not	esi
	and	esi, 2121277678
	and	edx, -2121277679
	or	edx, esi
	mov	esi, eax
	not	esi
	and	esi, 2121277678
	and	eax, -2121277679
	or	eax, esi
	xor	eax, edx
	mov	dword ptr [rsp + 4*rcx + 208], eax
	mov	rbp, qword ptr [rsp + 32]
	inc	rbp
	mov	eax, -647748381
	jmp	.LBB16_1
.LBB16_106:                             
	lea	rdi, [rsp + 48]
	lea	rsi, [rsp + 120]
	call	_ZSt3minImERKT_S2_S2_
	mov	rax, qword ptr [rax]
	mov	qword ptr [rsp + 80], rax
	lea	rax, [rsp + 208]
	mov	rcx, rax
	mov	qword ptr [rsp + 88], rcx
	mov	rax, qword ptr [rsp + 88]
	mov	rax, qword ptr [rsp + 88]
	xorps	xmm0, xmm0
	movaps	xmmword ptr [rax], xmm0
	movaps	xmmword ptr [rax + 16], xmm0
	mov	qword ptr [rsp + 8], rcx
	mov	rdi, qword ptr [rsp + 8]
	mov	esi, 8
	call	_ZN5Botan2CT6poisonIjEEvPKT_m
	mov	rax, qword ptr [rsp + 80]
	shl	rax, 2
	mov	qword ptr [rsp + 152], rax
	mov	rdi, qword ptr [rsp + 8]
	mov	rdx, qword ptr [rsp + 152]
	mov	rsi, qword ptr [rsp + 160]
	call	_ZN5Botan7load_beIjEEvPT_PKhm
	mov	eax, -647748381
	xor	ebp, ebp
	jmp	.LBB16_1
.LBB16_133:                             
	mov	eax, -1700078195
	mov	rcx, qword ptr [rsp + 200]
	mov	qword ptr [rsp + 112], rcx 
	jmp	.LBB16_1
.LBB16_134:                             
	mov	qword ptr [rsp + 64], r14
	mov	rax, qword ptr [rsp + 64]
	cmp	rax, 8
	mov	eax, -1977921710
	je	.LBB16_1

	mov	eax, -245243280
	jmp	.LBB16_1
.LBB16_103:                             
	mov	rax, qword ptr [rsp + 56]
	shl	rax, 5
	lea	r12, [rsp + rax + 240]
	mov	rdi, r15
	call	_ZNKSt6vectorIjN5Botan16secure_allocatorIjEEE4dataEv
	mov	rcx, qword ptr [rsp + 56]
	shl	rcx, 2
	movabs	rdx, -6173540138297991013
	sub	rcx, rdx
	lea	rdx, [rcx + rdx + 4]
	mov	rdi, r12
	mov	rsi, rax
	call	_ZN5Botan12_GLOBAL__N_19ks_expandEPjPKjm
	mov	r12, qword ptr [rsp + 56]
	inc	r12
	mov	eax, -290469214
	jmp	.LBB16_1
.LBB16_104:                             
	mov	rax, qword ptr [rsp + 104] 
	mov	qword ptr [rsp + 160], rax
	mov	qword ptr [rsp + 168], r13
	cmp	qword ptr [rsp + 48], 0
	mov	eax, 503376578
	je	.LBB16_1

	mov	eax, -1776964524
	jmp	.LBB16_1
.LBB16_138:                             
	mov	rax, qword ptr [rsp + 32]
	mov	eax, 1799547291
	jmp	.LBB16_1
.LBB16_109:                             
	mov	eax, -1700078195
	xor	ecx, ecx
	mov	qword ptr [rsp + 112], rcx 
	jmp	.LBB16_1
.LBB16_113:                             
	mov	eax, dword ptr [rip + x.38]
	mov	ecx, dword ptr [rip + y.39]
	mov	edx, eax
	neg	edx
	not	edx
	imul	edx, eax
	not	edx
	or	edx, -2
	cmp	edx, -1
	sete	al
	cmp	ecx, 10
	setl	bl
	xor	bl, al
	mov	esi, -1410906986
	mov	eax, -1410906986
	jne	.LBB16_115

	mov	eax, 1278625660
.LBB16_115:                             
	cmp	edx, -1
	je	.LBB16_117

	mov	esi, eax
.LBB16_117:                             
	cmp	ecx, 10
	mov	rcx, qword ptr [rsp + 96] 
	mov	qword ptr [rsp + 40], rcx
	cmovl	eax, esi
	jmp	.LBB16_1
.LBB16_91:                              
	mov	rdi, r15
	call	_ZNKSt6vectorIjN5Botan16secure_allocatorIjEEE4sizeEv
	cmp	rax, 60
	mov	eax, 771826209
	jmp	.LBB16_90
.LBB16_122:                             
	movzx	eax, byte ptr [rsp + 23]
	test	al, al
	mov	eax, -1272121123
	jne	.LBB16_1

	mov	eax, 768147178
	jmp	.LBB16_1
.LBB16_137:                             
	mov	rdi, r15
	call	_ZNKSt6vectorIjN5Botan16secure_allocatorIjEEE4sizeEv
	xor	esi, esi
	mov	edx, 416
	lea	rdi, [rsp + 240]
	call	memset
	mov	eax, 1060287238
	jmp	.LBB16_1
.LBB16_101:                             
	mov	qword ptr [rsp + 56], r12
	mov	rax, qword ptr [rsp + 128]
	xor	ecx, ecx
	sub	rcx, rax
	not	rcx
	mov	qword ptr [rsp + 136], rcx
	mov	rax, qword ptr [rsp + 136]
	mov	rcx, qword ptr [rsp + 56]
	cmp	rcx, rax
	mov	eax, -1094426958
	jb	.LBB16_1

	mov	eax, 699437072
	jmp	.LBB16_1
.LBB16_112:                             
	mov	eax, 2008468986
	xor	ecx, ecx
	mov	qword ptr [rsp + 96], rcx 
	jmp	.LBB16_1
.LBB16_128:                             
	mov	eax, dword ptr [rip + x.38]
	mov	ecx, dword ptr [rip + y.39]
	lea	esi, [rax - 1]
	imul	esi, eax
	mov	edx, esi
	xor	edx, -2
	and	edx, esi
	sete	al
	cmp	ecx, 10
	setl	bl
	xor	bl, al
	mov	esi, 1504213283
	mov	eax, 1504213283
	jne	.LBB16_130

	mov	eax, 773661025
.LBB16_130:                             
	test	edx, edx
	je	.LBB16_132

	mov	esi, eax
.LBB16_132:                             
	cmp	ecx, 10
	mov	rcx, qword ptr [rsp + 24]
	cmovl	eax, esi
	inc	rcx
	mov	qword ptr [rsp + 200], rcx
	jmp	.LBB16_1
.LBB16_139:                             
	mov	rdi, qword ptr [rsp + 8]
	call	_ZN5Botan12_GLOBAL__N_113bit_transposeEPj
	mov	eax, -1475648472
	jmp	.LBB16_1
.LBB16_89:                              
	mov	rdi, r15
	call	_ZNKSt6vectorIjN5Botan16secure_allocatorIjEEE4sizeEv
	cmp	rax, 52
	mov	eax, -1537058363
.LBB16_90:                              
	mov	ecx, -2107785321
	cmove	eax, ecx
	jmp	.LBB16_1
.LBB16_92:                              
	mov	eax, dword ptr [rip + x.38]
	mov	ecx, dword ptr [rip + y.39]
	mov	edx, eax
	neg	edx
	not	edx
	imul	edx, eax
	not	edx
	or	edx, -2
	cmp	edx, -1
	sete	al
	cmp	ecx, 10
	setl	bl
	xor	bl, al
	mov	esi, 1060287238
	mov	eax, 1060287238
	jne	.LBB16_94

	mov	eax, -303772398
.LBB16_94:                              
	cmp	edx, -1
	je	.LBB16_96
.LBB16_95:                              
	mov	esi, eax
	jmp	.LBB16_96
.LBB16_118:                             
	mov	rax, qword ptr [rsp + 40]
	cmp	rax, 8
	setne	byte ptr [rsp + 23]
	mov	eax, dword ptr [rip + x.38]
	mov	ecx, dword ptr [rip + y.39]
	lea	edx, [rax - 1]
	imul	edx, eax
	not	edx
	or	edx, -2
	cmp	edx, -1
	sete	bl
	mov	eax, -1531338646
	mov	edx, 1278625660
	mov	esi, -1531338646
	je	.LBB16_120

	mov	esi, 1278625660
.LBB16_120:                             
	cmp	ecx, 10
	setl	cl
	cmovl	edx, esi
	xor	cl, bl
	jne	.LBB16_1

	mov	eax, edx
	jmp	.LBB16_1
.LBB16_111:                             
	mov	rdi, qword ptr [rsp + 8]
	call	_ZN5Botan12_GLOBAL__N_112AES_INV_SBOXEPj
	mov	rdi, qword ptr [rsp + 8]
	call	_ZN5Botan12_GLOBAL__N_114inv_shift_rowsEPj
	mov	rdi, qword ptr [rsp + 8]
	call	_ZN5Botan12_GLOBAL__N_115inv_mix_columnsEPj
	mov	eax, dword ptr [rip + x.38]
	mov	ecx, dword ptr [rip + y.39]
	lea	esi, [rax - 1]
	imul	esi, eax
	mov	edx, esi
	xor	edx, -2
	and	edx, esi
	sete	al
	cmp	ecx, 10
	setl	bl
	xor	bl, al
	mov	esi, 747597047
	mov	eax, 747597047
	je	.LBB16_87
	jmp	.LBB16_88
.LBB16_107:                             
	movzx	eax, byte ptr [rsp + 22]
	test	al, al
	mov	eax, -1933139837
	jne	.LBB16_1

	mov	eax, -1626651850
	jmp	.LBB16_1
.LBB16_59:                              
	cmp	eax, 771826209
	jne	.LBB16_1

	mov	edi, .L.str.6
	mov	esi, .L.str.4
	mov	edx, .L__func__._ZN5Botan12_GLOBAL__N_113aes_decrypt_nEPKhPhmRKSt6vectorIjNS_16secure_allocatorIjEEE
	mov	ecx, .L.str.5
	mov	r8d, 582
	call	_ZN5Botan17assertion_failureEPKcS1_S1_S1_i
.LBB16_136:
	mov	rax, qword ptr [rsp + 144]
	mov	rax, qword ptr [rsp + 72]
	add	rsp, 664
	pop	rbx
	pop	r12
	pop	r13
	pop	r14
	pop	r15
	pop	rbp
	ret
.Lfunc_end16:
	.size	_ZN5Botan12_GLOBAL__N_113aes_decrypt_nEPKhPhmRKSt6vectorIjNS_16secure_allocatorIjEEE, .Lfunc_end16-_ZN5Botan12_GLOBAL__N_113aes_decrypt_nEPKhPhmRKSt6vectorIjNS_16secure_allocatorIjEEE
	.cfi_endproc

	.globl	_ZN5Botan7AES_12812key_scheduleEPKhm 
	.p2align	4, 0x90
	.type	_ZN5Botan7AES_12812key_scheduleEPKhm,@function
_ZN5Botan7AES_12812key_scheduleEPKhm:   
	.cfi_startproc

	push	rbp
.Lcfi108:
	.cfi_def_cfa_offset 16
	push	r15
.Lcfi109:
	.cfi_def_cfa_offset 24
	push	r14
.Lcfi110:
	.cfi_def_cfa_offset 32
	push	r13
.Lcfi111:
	.cfi_def_cfa_offset 40
	push	r12
.Lcfi112:
	.cfi_def_cfa_offset 48
	push	rbx
.Lcfi113:
	.cfi_def_cfa_offset 56
	push	rax
.Lcfi114:
	.cfi_def_cfa_offset 64
.Lcfi115:
	.cfi_offset rbx, -56
.Lcfi116:
	.cfi_offset r12, -48
.Lcfi117:
	.cfi_offset r13, -40
.Lcfi118:
	.cfi_offset r14, -32
.Lcfi119:
	.cfi_offset r15, -24
.Lcfi120:
	.cfi_offset rbp, -16
	mov	r14, rdx
	mov	rbp, rsi
	mov	r15, rdi
	lea	r12, [r15 + 8]
	lea	r13, [r15 + 32]
	mov	ecx, 914271644
	jmp	.LBB17_1
.LBB17_73:                              
	xor	r8d, r8d
	mov	rdi, rbp
	mov	rsi, r14
	mov	rdx, r12
	mov	rcx, r13
	call	_ZN5Botan12_GLOBAL__N_116aes_key_scheduleEPKhmRSt6vectorIjNS_16secure_allocatorIjEEES7_b
	mov	ecx, -984429412
	.p2align	4, 0x90
.LBB17_1:                               
	cmp	ecx, 685720100
	jg	.LBB17_19

	cmp	ecx, -208888733
	jg	.LBB17_11

	cmp	ecx, -1217671583
	jle	.LBB17_4

	cmp	ecx, -1217671582
	je	.LBB17_48

	cmp	ecx, -984429412
	je	.LBB17_68

	cmp	ecx, -378778806
	jne	.LBB17_1

	mov	ecx, 1270233547
	jmp	.LBB17_1
	.p2align	4, 0x90
.LBB17_19:                              
	cmp	ecx, 1246679824
	jg	.LBB17_31

	cmp	ecx, 812240176
	jle	.LBB17_21

	cmp	ecx, 812240177
	je	.LBB17_59

	cmp	ecx, 914271644
	je	.LBB17_39

	cmp	ecx, 1081180150
	jne	.LBB17_1

	mov	rdi, r15
	mov	rsi, rbp
	mov	rdx, r14
	call	_ZN5Botan7AES_12818vperm_key_scheduleEPKhm
	mov	ecx, 1270233547
	jmp	.LBB17_1
	.p2align	4, 0x90
.LBB17_11:                              
	cmp	ecx, -108894780
	jle	.LBB17_12

	cmp	ecx, -108894779
	je	.LBB17_73

	cmp	ecx, -86908921
	je	.LBB17_65

	cmp	ecx, 611013436
	jne	.LBB17_1

	mov	rdi, r15
	mov	rsi, rbp
	mov	rdx, r14
	call	_ZN5Botan7AES_12818aesni_key_scheduleEPKhm
	mov	ecx, 1487947951
	jmp	.LBB17_1
	.p2align	4, 0x90
.LBB17_31:                              
	cmp	ecx, 1815400040
	jg	.LBB17_36

	cmp	ecx, 1246679825
	je	.LBB17_52

	cmp	ecx, 1487947951
	je	.LBB17_44

	cmp	ecx, 1270233547
	jne	.LBB17_1
	jmp	.LBB17_35
.LBB17_4:                               
	cmp	ecx, -1405901036
	je	.LBB17_64

	cmp	ecx, -1346627782
	jne	.LBB17_1

	mov	ecx, 1270233547
	jmp	.LBB17_1
.LBB17_21:                              
	cmp	ecx, 685720101
	je	.LBB17_40

	cmp	ecx, 749922407
	jne	.LBB17_1

	mov	ecx, dword ptr [rip + x.40]
	mov	eax, dword ptr [rip + y.41]
	mov	edx, ecx
	neg	edx
	not	edx
	imul	edx, ecx
	mov	ecx, edx
	xor	ecx, -2
	and	ecx, edx
	sete	bl
	test	ecx, ecx
	mov	ecx, 812240177
	mov	edx, -173493469
	mov	esi, 812240177
	je	.LBB17_25

	mov	esi, -173493469
.LBB17_25:                              
	cmp	eax, 10
	setl	al
	cmovl	edx, esi
	xor	al, bl
	jne	.LBB17_1

	mov	ecx, edx
	jmp	.LBB17_1
.LBB17_12:                              
	cmp	ecx, -208888732
	je	.LBB17_72

	cmp	ecx, -173493469
	jne	.LBB17_1

	call	_ZN5Botan5CPUID16is_little_endianEv
	movzx	r8d, al
	mov	rdi, rbp
	mov	rsi, r14
	mov	rdx, r12
	mov	rcx, r13
	call	_ZN5Botan12_GLOBAL__N_116aes_key_scheduleEPKhmRSt6vectorIjNS_16secure_allocatorIjEEES7_b
	mov	ecx, 812240177
	jmp	.LBB17_1
.LBB17_36:                              
	cmp	ecx, 1815400041
	je	.LBB17_57

	cmp	ecx, 1999082951
	jne	.LBB17_1

	mov	ecx, 1270233547
	jmp	.LBB17_1
.LBB17_48:                              
	mov	ecx, dword ptr [rip + x.40]
	mov	eax, dword ptr [rip + y.41]
	lea	edx, [rcx - 1]
	imul	edx, ecx
	mov	ecx, edx
	xor	ecx, -2
	and	ecx, edx
	sete	bl
	test	ecx, ecx
	mov	ecx, 1246679825
	mov	edx, -208888732
	mov	esi, 1246679825
	je	.LBB17_50

	mov	esi, -208888732
.LBB17_50:                              
	cmp	eax, 10
	setl	al
	cmovl	edx, esi
	xor	al, bl
	jne	.LBB17_1

	mov	ecx, edx
	jmp	.LBB17_1
.LBB17_68:                              
	xor	r8d, r8d
	mov	rdi, rbp
	mov	rsi, r14
	mov	rdx, r12
	mov	rcx, r13
	call	_ZN5Botan12_GLOBAL__N_116aes_key_scheduleEPKhmRSt6vectorIjNS_16secure_allocatorIjEEES7_b
	mov	ecx, dword ptr [rip + x.40]
	mov	eax, dword ptr [rip + y.41]
	lea	edx, [rcx - 1]
	imul	edx, ecx
	mov	ecx, edx
	xor	ecx, -2
	and	ecx, edx
	sete	bl
	test	ecx, ecx
	mov	ecx, -1346627782
	mov	edx, -108894779
	mov	esi, -1346627782
	je	.LBB17_70

	mov	esi, -108894779
.LBB17_70:                              
	cmp	eax, 10
	setl	al
	cmovl	edx, esi
	xor	al, bl
	jne	.LBB17_1

	mov	ecx, edx
	jmp	.LBB17_1
.LBB17_59:                              
	call	_ZN5Botan5CPUID16is_little_endianEv
	movzx	r8d, al
	mov	rdi, rbp
	mov	rsi, r14
	mov	rdx, r12
	mov	rcx, r13
	call	_ZN5Botan12_GLOBAL__N_116aes_key_scheduleEPKhmRSt6vectorIjNS_16secure_allocatorIjEEES7_b
	mov	ecx, dword ptr [rip + x.40]
	mov	eax, dword ptr [rip + y.41]
	mov	edx, ecx
	neg	edx
	not	edx
	imul	edx, ecx
	not	edx
	or	edx, -2
	cmp	edx, -1
	sete	cl
	cmp	eax, 10
	setl	bl
	xor	bl, cl
	mov	esi, -378778806
	mov	ecx, -378778806
	jne	.LBB17_61

	mov	ecx, -173493469
.LBB17_61:                              
	cmp	edx, -1
	je	.LBB17_63

	mov	esi, ecx
.LBB17_63:                              
	cmp	eax, 10
	cmovl	ecx, esi
	jmp	.LBB17_1
.LBB17_39:                              
	call	_ZN5Botan5CPUID10has_aes_niEv
	test	al, al
	mov	ecx, -1217671582
	mov	eax, 685720101
	cmovne	ecx, eax
	jmp	.LBB17_1
.LBB17_65:                              
	mov	ecx, dword ptr [rip + x.40]
	mov	eax, dword ptr [rip + y.41]
	lea	edx, [rcx - 1]
	imul	edx, ecx
	not	edx
	or	edx, -2
	cmp	edx, -1
	sete	cl
	cmp	eax, 10
	setl	bl
	xor	bl, cl
	mov	ecx, -984429412
	mov	esi, -984429412
	jne	.LBB17_67

	mov	esi, -108894779
.LBB17_67:                              
	cmp	edx, -1
	cmovne	ecx, esi
	cmp	eax, 10
	cmovge	ecx, esi
	jmp	.LBB17_1
.LBB17_44:                              
	mov	rdi, r15
	mov	rsi, rbp
	mov	rdx, r14
	call	_ZN5Botan7AES_12818aesni_key_scheduleEPKhm
	mov	ecx, dword ptr [rip + x.40]
	mov	eax, dword ptr [rip + y.41]
	lea	edx, [rcx - 1]
	imul	edx, ecx
	not	edx
	or	edx, -2
	cmp	edx, -1
	sete	bl
	mov	ecx, 1999082951
	mov	edx, 611013436
	mov	esi, 1999082951
	je	.LBB17_46

	mov	esi, 611013436
.LBB17_46:                              
	cmp	eax, 10
	setl	al
	cmovl	edx, esi
	xor	al, bl
	jne	.LBB17_1

	mov	ecx, edx
	jmp	.LBB17_1
.LBB17_64:                              
	call	_ZN5Botan5CPUID9has_vpermEv
	test	al, al
	mov	ecx, -86908921
	mov	eax, 1081180150
	cmovne	ecx, eax
	jmp	.LBB17_1
.LBB17_40:                              
	mov	ecx, dword ptr [rip + x.40]
	mov	eax, dword ptr [rip + y.41]
	lea	edx, [rcx - 1]
	imul	edx, ecx
	not	edx
	or	edx, -2
	cmp	edx, -1
	sete	bl
	mov	ecx, 1487947951
	mov	edx, 611013436
	mov	esi, 1487947951
	je	.LBB17_42

	mov	esi, 611013436
.LBB17_42:                              
	cmp	eax, 10
	setl	al
	cmovl	edx, esi
	xor	al, bl
	jne	.LBB17_1

	mov	ecx, edx
	jmp	.LBB17_1
.LBB17_72:                              
	call	_ZN5Botan5CPUID10has_hw_aesEv
	mov	ecx, 1246679825
	jmp	.LBB17_1
.LBB17_57:                              
	movzx	eax, byte ptr [rsp + 7]
	test	al, al
	mov	ecx, 749922407
	jne	.LBB17_1

	mov	ecx, -1405901036
	jmp	.LBB17_1
.LBB17_52:                              
	call	_ZN5Botan5CPUID10has_hw_aesEv
	mov	ecx, dword ptr [rip + x.40]
	mov	edx, dword ptr [rip + y.41]
	lea	edi, [rcx - 1]
	imul	edi, ecx
	mov	esi, edi
	xor	esi, -2
	and	esi, edi
	sete	cl
	cmp	edx, 10
	setl	bl
	xor	bl, cl
	mov	edi, 1815400041
	mov	ecx, 1815400041
	jne	.LBB17_54

	mov	ecx, -208888732
.LBB17_54:                              
	test	esi, esi
	je	.LBB17_56

	mov	edi, ecx
.LBB17_56:                              
	cmp	edx, 10
	mov	byte ptr [rsp + 7], al
	cmovl	ecx, edi
	jmp	.LBB17_1
.LBB17_35:
	add	rsp, 8
	pop	rbx
	pop	r12
	pop	r13
	pop	r14
	pop	r15
	pop	rbp
	ret
.Lfunc_end17:
	.size	_ZN5Botan7AES_12812key_scheduleEPKhm, .Lfunc_end17-_ZN5Botan7AES_12812key_scheduleEPKhm
	.cfi_endproc

	.section	.text._ZN5Botan5CPUID10has_aes_niEv,"axG",@progbits,_ZN5Botan5CPUID10has_aes_niEv,comdat
	.weak	_ZN5Botan5CPUID10has_aes_niEv 
	.p2align	4, 0x90
	.type	_ZN5Botan5CPUID10has_aes_niEv,@function
_ZN5Botan5CPUID10has_aes_niEv:          
	.cfi_startproc

	mov	edi, 65536
	jmp	_ZN5Botan5CPUID13has_cpuid_bitENS0_10CPUID_bitsE 
.Lfunc_end18:
	.size	_ZN5Botan5CPUID10has_aes_niEv, .Lfunc_end18-_ZN5Botan5CPUID10has_aes_niEv
	.cfi_endproc

	.text
	.p2align	4, 0x90         
	.type	_ZN5Botan12_GLOBAL__N_116aes_key_scheduleEPKhmRSt6vectorIjNS_16secure_allocatorIjEEES7_b,@function
_ZN5Botan12_GLOBAL__N_116aes_key_scheduleEPKhmRSt6vectorIjNS_16secure_allocatorIjEEES7_b: 
	.cfi_startproc

	push	rbp
.Lcfi121:
	.cfi_def_cfa_offset 16
	push	r15
.Lcfi122:
	.cfi_def_cfa_offset 24
	push	r14
.Lcfi123:
	.cfi_def_cfa_offset 32
	push	r13
.Lcfi124:
	.cfi_def_cfa_offset 40
	push	r12
.Lcfi125:
	.cfi_def_cfa_offset 48
	push	rbx
.Lcfi126:
	.cfi_def_cfa_offset 56
	sub	rsp, 216
.Lcfi127:
	.cfi_def_cfa_offset 272
.Lcfi128:
	.cfi_offset rbx, -56
.Lcfi129:
	.cfi_offset r12, -48
.Lcfi130:
	.cfi_offset r13, -40
.Lcfi131:
	.cfi_offset r14, -32
.Lcfi132:
	.cfi_offset r15, -24
.Lcfi133:
	.cfi_offset rbp, -16
	mov	eax, dword ptr [rip + x.44]
	lea	ebp, [rax - 1]
	imul	ebp, eax
	mov	eax, ebp
	xor	eax, -2
	test	eax, ebp
	sete	byte ptr [rsp + 42]
	mov	eax, dword ptr [rip + y.45]
	cmp	eax, 10
	setl	byte ptr [rsp + 43]
	mov	r14, rcx
	mov	r15, rdx
	mov	r12, rsi
	mov	qword ptr [rsp + 88], rdi 
	mov	rax, r12
	shr	rax, 2
	mov	qword ptr [rsp + 200], rax 
	movabs	rax, 6912712767125538913
	mov	rcx, r12
	sub	rcx, rax
	lea	rax, [rcx + rax + 28]
	mov	qword ptr [rsp + 192], rax 
	test	r8b, r8b
	mov	eax, -651653211
	mov	ecx, -1739724836
	cmovne	ecx, eax
	mov	dword ptr [rsp + 132], ecx 
	mov	ecx, 1938105001

















	jmp	.LBB19_1
.LBB19_13:                              
	cmovne	esi, edi
	test	eax, eax
	mov	ecx, esi
	cmove	ecx, edi
	cmp	edx, 10
	cmovge	ecx, esi
	.p2align	4, 0x90
.LBB19_1:                               
	cmp	ecx, 57562991
	jle	.LBB19_2

	cmp	ecx, 1434998499
	jle	.LBB19_62

	cmp	ecx, 1841419287
	jg	.LBB19_106

	cmp	ecx, 1563949074
	jg	.LBB19_99

	cmp	ecx, 1508701135
	jg	.LBB19_96

	cmp	ecx, 1434998500
	je	.LBB19_126

	cmp	ecx, 1445236292
	jne	.LBB19_1

	mov	eax, dword ptr [rip + x.44]
	mov	edx, dword ptr [rip + y.45]
	lea	ecx, [rax - 1]
	imul	ecx, eax
	mov	eax, ecx
	xor	eax, -2
	and	eax, ecx
	sete	cl
	cmp	edx, 10
	setl	bl
	xor	bl, cl
	mov	esi, -582792605
	mov	edi, 1508701136
	jmp	.LBB19_13
	.p2align	4, 0x90
.LBB19_2:                               
	cmp	ecx, -1191393003
	jg	.LBB19_33

	cmp	ecx, -1682175335
	jle	.LBB19_4

	cmp	ecx, -1464619864
	jg	.LBB19_25

	cmp	ecx, -1601990936
	jg	.LBB19_22

	cmp	ecx, -1682175334
	je	.LBB19_147

	cmp	ecx, -1663084209
	jne	.LBB19_1

	mov	ecx, 2121972497
	mov	rax, qword ptr [rsp + 208]
	mov	qword ptr [rsp + 184], rax 
	jmp	.LBB19_1
	.p2align	4, 0x90
.LBB19_62:                              
	cmp	ecx, 1059032842
	jg	.LBB19_78

	cmp	ecx, 570136776
	jle	.LBB19_64

	cmp	ecx, 794969445
	jg	.LBB19_75

	cmp	ecx, 570136777
	je	.LBB19_139

	cmp	ecx, 672359497
	jne	.LBB19_1

	mov	r13, qword ptr [rsp + 48]
	shl	r13, 2
	mov	rax, qword ptr [rsp + 64]
	movabs	rcx, 4699404311567905506
	sub	r13, rcx
	sub	r13, rax
	add	r13, rcx
	mov	rdi, r15
	mov	rsi, r13
	call	_ZNSt6vectorIjN5Botan16secure_allocatorIjEEEixEm
	mov	ebx, dword ptr [rax]
	mov	rsi, qword ptr [rsp + 64]
	mov	rdi, r14
	call	_ZNSt6vectorIjN5Botan16secure_allocatorIjEEEixEm
	mov	dword ptr [rax], ebx
	movabs	rax, 182709820674688067
	lea	rsi, [rax + r13 + 1]
	sub	rsi, rax
	mov	rdi, r15
	call	_ZNSt6vectorIjN5Botan16secure_allocatorIjEEEixEm
	mov	ebx, dword ptr [rax]
	mov	rax, qword ptr [rsp + 64]
	movabs	rcx, -8825401408605112021
	lea	rsi, [rax + rcx + 1]
	sub	rsi, rcx
	mov	rdi, r14
	call	_ZNSt6vectorIjN5Botan16secure_allocatorIjEEEixEm
	mov	dword ptr [rax], ebx
	mov	rax, r13
	movabs	rcx, 4219688103674836055
	sub	rax, rcx
	lea	rsi, [rax + rcx + 2]
	mov	rdi, r15
	call	_ZNSt6vectorIjN5Botan16secure_allocatorIjEEEixEm
	mov	ebx, dword ptr [rax]
	mov	rsi, qword ptr [rsp + 64]
	add	rsi, 2
	mov	rdi, r14
	call	_ZNSt6vectorIjN5Botan16secure_allocatorIjEEEixEm
	mov	dword ptr [rax], ebx
	neg	r13
	mov	esi, 3
	sub	rsi, r13
	mov	rdi, r15
	call	_ZNSt6vectorIjN5Botan16secure_allocatorIjEEEixEm
	mov	ebx, dword ptr [rax]
	mov	rsi, qword ptr [rsp + 64]
	add	rsi, 3
	mov	rdi, r14
	call	_ZNSt6vectorIjN5Botan16secure_allocatorIjEEEixEm
	mov	dword ptr [rax], ebx
	mov	r13, qword ptr [rsp + 64]
	add	r13, 4
	mov	ecx, 1806422801
	jmp	.LBB19_1
	.p2align	4, 0x90
.LBB19_33:                              
	cmp	ecx, -582792606
	jle	.LBB19_34

	cmp	ecx, -288748531
	jg	.LBB19_54

	cmp	ecx, -359992472
	jg	.LBB19_51

	cmp	ecx, -582792605
	je	.LBB19_148

	cmp	ecx, -475965010
	jne	.LBB19_1

	mov	edi, dword ptr [rsp + 84]
	call	_ZN5Botan12_GLOBAL__N_17SE_wordEj
	mov	dword ptr [rsp + 80], eax 
	mov	ecx, 1264961138
	mov	rax, qword ptr [rsp + 24]
	mov	qword ptr [rsp + 168], rax 
	jmp	.LBB19_1
.LBB19_106:                             
	cmp	ecx, 2016619755
	jg	.LBB19_114

	cmp	ecx, 1938105000
	jg	.LBB19_111

	cmp	ecx, 1841419288
	je	.LBB19_145

	cmp	ecx, 1885904607
	jne	.LBB19_1

	movzx	eax, byte ptr [rsp + 46]
	test	al, al
	mov	ecx, 287278792
	mov	eax, -475965010
	cmovne	ecx, eax
	jmp	.LBB19_1
.LBB19_78:                              
	cmp	ecx, 1248450099
	jle	.LBB19_79

	cmp	ecx, 1264961137
	jg	.LBB19_87

	cmp	ecx, 1248450100
	je	.LBB19_151

	cmp	ecx, 1252649020
	jne	.LBB19_1

	mov	rax, qword ptr [rsp + 16]
	add	rax, 6
	mov	qword ptr [rsp + 48], rax
	mov	rax, qword ptr [rsp + 48]
	mov	rcx, rax
	xor	rcx, 10
	cmp	rax, 10
	sete	al
	mov	rdx, qword ptr [rsp + 48]
	mov	rsi, rdx
	xor	rsi, 12
	cmp	rdx, 12
	sete	dl
	xor	dl, al
	or	rsi, rcx
	sete	al
	mov	rcx, qword ptr [rsp + 48]
	cmp	rcx, 14
	sete	bl
	mov	ecx, -657914288
	mov	esi, -1464619863
	cmove	ecx, esi
	or	al, dl
	mov	edx, -657914288
	cmove	ecx, edx
	xor	al, bl
	cmovne	ecx, esi
	jmp	.LBB19_1
.LBB19_4:                               
	cmp	ecx, -1949347283
	jle	.LBB19_5

	cmp	ecx, -1752514499
	jg	.LBB19_14

	cmp	ecx, -1949347282
	je	.LBB19_143

	cmp	ecx, -1916823759
	jne	.LBB19_1

	mov	eax, dword ptr [rip + x.44]
	mov	edx, dword ptr [rip + y.45]
	lea	ecx, [rax - 1]
	imul	ecx, eax
	mov	eax, ecx
	xor	eax, -2
	and	eax, ecx
	sete	cl
	cmp	edx, 10
	setl	bl
	xor	bl, cl
	mov	esi, -1682175334
	mov	edi, 1563949075
	jmp	.LBB19_13
.LBB19_34:                              
	cmp	ecx, -753028567
	jle	.LBB19_35

	cmp	ecx, -657914289
	jg	.LBB19_43

	cmp	ecx, -753028566
	je	.LBB19_121

	cmp	ecx, -667347038
	jne	.LBB19_1

	mov	eax, dword ptr [rip + x.44]
	mov	ecx, eax
	neg	ecx
	not	ecx
	imul	ecx, eax
	not	ecx
	or	ecx, -2
	cmp	ecx, -1
	sete	al
	mov	ecx, -1966097166
	mov	edi, -1217225873
	cmove	ecx, edi
	cmp	dword ptr [rip + y.45], 10
	setl	dl
	mov	esi, -1966097166
	cmovge	ecx, esi
	xor	dl, al
	cmovne	ecx, edi
	jmp	.LBB19_1
.LBB19_99:                              
	cmp	ecx, 1806422800
	jg	.LBB19_103

	cmp	ecx, 1563949075
	je	.LBB19_130

	cmp	ecx, 1568482634
	jne	.LBB19_1

	mov	ecx, -281588815
	mov	eax, 4
	mov	qword ptr [rsp + 160], rax 
	jmp	.LBB19_1
.LBB19_25:                              
	cmp	ecx, -1252616338
	jg	.LBB19_29

	cmp	ecx, -1464619863
	je	.LBB19_124

	cmp	ecx, -1464390983
	jne	.LBB19_1

	mov	eax, dword ptr [rip + x.44]
	mov	edx, dword ptr [rip + y.45]
	lea	ecx, [rax - 1]
	imul	ecx, eax
	mov	eax, ecx
	xor	eax, -2
	and	eax, ecx
	sete	cl
	cmp	edx, 10
	setl	bl
	xor	bl, cl
	mov	esi, 53608437
	mov	edi, -1571648017
	jmp	.LBB19_13
.LBB19_114:                             
	cmp	ecx, 2092147549
	jg	.LBB19_118

	cmp	ecx, 2016619756
	je	.LBB19_132

	cmp	ecx, 2073188461
	jne	.LBB19_1

	mov	ecx, dword ptr [rsp + 132] 
	jmp	.LBB19_1
.LBB19_64:                              
	cmp	ecx, 287278791
	jle	.LBB19_65

	cmp	ecx, 287278792
	je	.LBB19_134

	cmp	ecx, 399886385
	jne	.LBB19_1

	mov	eax, dword ptr [rip + x.44]
	mov	edx, dword ptr [rip + y.45]
	lea	ecx, [rax - 1]
	imul	ecx, eax
	mov	eax, ecx
	xor	eax, -2
	and	eax, ecx
	sete	cl
	cmp	edx, 10
	setl	bl
	xor	bl, cl
	mov	esi, -989486181
	mov	edi, -1191393002
	cmovne	esi, edi
	test	eax, eax
	mov	ecx, esi
	cmove	ecx, edi
	cmp	edx, 10
	mov	rax, qword ptr [rsp + 176] 
	mov	qword ptr [rsp + 32], rax
	cmovge	ecx, esi
	jmp	.LBB19_1
.LBB19_54:                              
	cmp	ecx, -183200700
	jg	.LBB19_58

	cmp	ecx, -288748530
	je	.LBB19_131

	cmp	ecx, -281588815
	jne	.LBB19_1

	mov	rax, qword ptr [rsp + 160] 
	mov	qword ptr [rsp + 120], rax
	mov	rax, qword ptr [rsp + 48]
	shl	rax, 2
	mov	rcx, qword ptr [rsp + 120]
	cmp	rcx, rax
	mov	ecx, 1543992573
	mov	eax, 2073188461
	cmove	ecx, eax
	jmp	.LBB19_1
.LBB19_79:                              
	cmp	ecx, 1059032843
	je	.LBB19_152

	cmp	ecx, 1130277825
	je	.LBB19_137

	cmp	ecx, 1203483019
	jne	.LBB19_1

	movzx	eax, byte ptr [rsp + 47]
	test	al, al
	mov	ecx, 1568482634
	mov	eax, 672359497
	cmovne	ecx, eax
	jmp	.LBB19_1
.LBB19_5:                               
	cmp	ecx, -2089066766
	je	.LBB19_144

	cmp	ecx, -1966097166
	je	.LBB19_146

	cmp	ecx, -1953361024
	jne	.LBB19_1

	movzx	eax, byte ptr [rsp + 44]
	test	al, al
	mov	ecx, 57562992
	mov	eax, 1252649020
	cmovne	ecx, eax
	jmp	.LBB19_1
.LBB19_35:                              
	cmp	ecx, -1191393002
	je	.LBB19_128

	cmp	ecx, -1112211219
	je	.LBB19_149

	cmp	ecx, -989486181
	jne	.LBB19_1

	mov	rax, qword ptr [rsp + 48]
	mov	rax, qword ptr [rsp + 48]
	mov	rax, qword ptr [rsp + 48]
	mov	rax, qword ptr [rsp + 32]
	mov	ecx, -1191393002
	jmp	.LBB19_1
.LBB19_96:                              
	cmp	ecx, 1508701136
	je	.LBB19_133

	cmp	ecx, 1543992573
	jne	.LBB19_1

	mov	rsi, qword ptr [rsp + 120]
	mov	rdi, r14
	call	_ZNSt6vectorIjN5Botan16secure_allocatorIjEEEixEm
	mov	rdi, rax
	call	_ZN5Botan12_GLOBAL__N_115InvMixColumn_x4EPj
	mov	rax, qword ptr [rsp + 120]
	movabs	rcx, 4867781110086707854
	sub	rax, rcx
	lea	rax, [rax + rcx + 4]
	mov	qword ptr [rsp + 160], rax 
	mov	ecx, -281588815
	jmp	.LBB19_1
.LBB19_22:                              
	cmp	ecx, -1601990935
	je	.LBB19_127

	cmp	ecx, -1571648017
	jne	.LBB19_1

	mov	rsi, qword ptr [rsp + 56]
	mov	rdi, r15
	call	_ZNSt6vectorIjN5Botan16secure_allocatorIjEEEixEm
	mov	edi, dword ptr [rax]
	call	_ZN5Botan13reverse_bytesEj
	mov	ebp, eax
	mov	rsi, qword ptr [rsp + 56]
	mov	rdi, r15
	call	_ZNSt6vectorIjN5Botan16secure_allocatorIjEEEixEm
	mov	dword ptr [rax], ebp
	mov	eax, dword ptr [rip + x.44]
	mov	edx, dword ptr [rip + y.45]
	lea	ecx, [rax - 1]
	imul	ecx, eax
	not	ecx
	or	ecx, -2
	cmp	ecx, -1
	sete	al
	cmp	edx, 10
	setl	bl
	xor	bl, al
	mov	eax, 53608437
	mov	esi, -1663084209
	cmovne	eax, esi
	cmp	ecx, -1
	mov	ecx, eax
	cmove	ecx, esi
	cmp	edx, 10
	cmovge	ecx, eax
	mov	rax, qword ptr [rsp + 56]
	xor	edx, edx
	sub	rdx, rax
	mov	eax, 1
	sub	rax, rdx
	mov	qword ptr [rsp + 208], rax
	jmp	.LBB19_1
.LBB19_75:                              
	cmp	ecx, 794969446
	je	.LBB19_140

	cmp	ecx, 796712769
	jne	.LBB19_1

	mov	rax, qword ptr [rsp + 144] 
	mov	qword ptr [rsp + 72], rax
	mov	rax, qword ptr [rsp + 16]
	mov	rcx, qword ptr [rsp + 72]
	cmp	rcx, rax
	mov	ecx, 2016619756
	mov	eax, -336980786
	cmove	ecx, eax
	jmp	.LBB19_1
.LBB19_51:                              
	cmp	ecx, -359992471
	je	.LBB19_125

	cmp	ecx, -336980786
	jne	.LBB19_1

	mov	rax, qword ptr [rsp + 16]
	xor	ecx, ecx
	sub	rcx, rax
	mov	rax, qword ptr [rsp + 32]
	sub	rax, rcx
	mov	qword ptr [rsp + 176], rax 
	mov	ecx, 399886385
	jmp	.LBB19_1
.LBB19_111:                             
	cmp	ecx, 1938105001
	je	.LBB19_120

	cmp	ecx, 2007310153
	jne	.LBB19_1

	mov	rsi, qword ptr [rsp + 104]
	mov	rdi, r14
	call	_ZNSt6vectorIjN5Botan16secure_allocatorIjEEEixEm
	mov	edi, dword ptr [rax]
	call	_ZN5Botan13reverse_bytesEj
	mov	ebp, eax
	mov	rsi, qword ptr [rsp + 104]
	mov	rdi, r14
	call	_ZNSt6vectorIjN5Botan16secure_allocatorIjEEEixEm
	mov	dword ptr [rax], ebp
	mov	rax, qword ptr [rsp + 104]
	xor	ecx, ecx
	sub	rcx, rax
	mov	eax, 1
	sub	rax, rcx
	mov	qword ptr [rsp + 152], rax 
	mov	ecx, 794969446
	jmp	.LBB19_1
.LBB19_87:                              
	cmp	ecx, 1264961138
	je	.LBB19_135

	cmp	ecx, 1412750207
	jne	.LBB19_1

	movzx	eax, byte ptr [rsp + 45]
	test	al, al
	mov	ecx, -667347038
	mov	eax, -1916823759
	cmovne	ecx, eax
	jmp	.LBB19_1
.LBB19_14:                              
	cmp	ecx, -1752514498
	je	.LBB19_141

	cmp	ecx, -1739724836
	jne	.LBB19_1

	mov	eax, dword ptr [rip + x.44]
	lea	ecx, [rax - 1]
	imul	ecx, eax
	mov	eax, ecx
	xor	eax, -2
	and	eax, ecx
	sete	dl
	test	eax, eax
	mov	ecx, 1059032843
	mov	edi, -1949347282
	cmove	ecx, edi
	cmp	dword ptr [rip + y.45], 10
	setl	al
	mov	esi, 1059032843
	cmovge	ecx, esi
	xor	al, dl
	cmovne	ecx, edi
	jmp	.LBB19_1
.LBB19_43:                              
	cmp	ecx, -657914288
	je	.LBB19_122

	cmp	ecx, -651653211
	jne	.LBB19_1

	mov	ecx, 2121972497
	xor	eax, eax
	mov	qword ptr [rsp + 184], rax 
	jmp	.LBB19_1
.LBB19_103:                             
	cmp	ecx, 1806422801
	je	.LBB19_136

	cmp	ecx, 1828974841
	jne	.LBB19_1

	mov	eax, dword ptr [rip + x.44]
	mov	edx, dword ptr [rip + y.45]
	lea	ecx, [rax - 1]
	imul	ecx, eax
	not	ecx
	or	ecx, -2
	cmp	ecx, -1
	sete	al
	cmp	edx, 10
	setl	bl
	xor	bl, al
	mov	eax, 1248450100
	mov	esi, -1752514498
	jmp	.LBB19_32
.LBB19_29:                              
	cmp	ecx, -1252616337
	je	.LBB19_129

	cmp	ecx, -1217225873
	jne	.LBB19_1

	mov	eax, dword ptr [rip + x.44]
	mov	edx, dword ptr [rip + y.45]
	lea	ecx, [rax - 1]
	imul	ecx, eax
	not	ecx
	or	ecx, -2
	cmp	ecx, -1
	sete	al
	cmp	edx, 10
	setl	bl
	xor	bl, al
	mov	eax, -1966097166
	mov	esi, -1252616337
	jmp	.LBB19_32
.LBB19_118:                             
	cmp	ecx, 2121972497
	jne	.LBB19_119

	mov	rax, qword ptr [rsp + 184] 
	mov	qword ptr [rsp + 56], rax
	mov	rdi, r15
	call	_ZNKSt6vectorIjN5Botan16secure_allocatorIjEEE4sizeEv
	mov	rcx, qword ptr [rsp + 56]
	cmp	rcx, rax
	mov	ecx, -1464390983
	mov	eax, 570136777
	cmove	ecx, eax
	jmp	.LBB19_1
.LBB19_65:                              
	cmp	ecx, 161281122
	jne	.LBB19_66

	mov	ecx, -1739724836
	jmp	.LBB19_1
.LBB19_58:                              
	cmp	ecx, 53608437
	jne	.LBB19_59

	mov	rsi, qword ptr [rsp + 56]
	mov	rdi, r15
	call	_ZNSt6vectorIjN5Botan16secure_allocatorIjEEEixEm
	mov	edi, dword ptr [rax]
	call	_ZN5Botan13reverse_bytesEj
	mov	ebp, eax
	mov	rsi, qword ptr [rsp + 56]
	mov	rdi, r15
	call	_ZNSt6vectorIjN5Botan16secure_allocatorIjEEEixEm
	mov	dword ptr [rax], ebp
	mov	rax, qword ptr [rsp + 56]
	mov	rax, qword ptr [rsp + 56]
	mov	rax, qword ptr [rsp + 56]
	mov	ecx, -1571648017
	jmp	.LBB19_1
.LBB19_126:                             
	mov	ecx, 399886385
	mov	rax, qword ptr [rsp + 16]
	mov	qword ptr [rsp + 176], rax 
	jmp	.LBB19_1
.LBB19_147:                             
	mov	rax, qword ptr [rsp + 16]
	mov	rax, qword ptr [rsp + 32]
	mov	rax, qword ptr [rsp + 16]
	mov	rax, qword ptr [rsp + 32]
	mov	rax, qword ptr [rsp + 16]
	mov	rax, qword ptr [rsp + 16]
	mov	rbp, qword ptr [rsp + 32]
	sub	rbp, rax
	mov	rdi, r15
	mov	rsi, rbp
	call	_ZNSt6vectorIjN5Botan16secure_allocatorIjEEEixEm
	mov	ebx, dword ptr [rax]
	mov	rax, qword ptr [rsp + 16]
	mov	rax, qword ptr [rsp + 16]
	mov	rax, qword ptr [rsp + 16]
	mov	rax, qword ptr [rsp + 16]
	mov	rax, qword ptr [rsp + 16]
	mov	rax, qword ptr [rsp + 16]
	xor	edx, edx
	mov	rax, rbp
	div	qword ptr [rsp + 16]
	mov	eax, dword ptr [4*rax + _ZZN5Botan12_GLOBAL__N_116aes_key_scheduleEPKhmRSt6vectorIjNS_16secure_allocatorIjEEES7_bE2RC]
	mov	ecx, eax
	not	ecx
	and	ecx, -247726500
	and	eax, 247726499
	or	eax, ecx
	mov	ecx, ebx
	not	ecx
	and	ecx, -247726500
	and	ebx, 247726499
	or	ebx, ecx
	xor	ebx, eax
	mov	rax, qword ptr [rsp + 32]
	mov	rax, qword ptr [rsp + 32]
	mov	rax, qword ptr [rsp + 32]
	mov	rax, qword ptr [rsp + 32]
	mov	rax, qword ptr [rsp + 32]
	movabs	rcx, 2171995630174508008
	lea	rsi, [rax + rcx - 1]
	sub	rsi, rcx
	mov	rdi, r15
	call	_ZNSt6vectorIjN5Botan16secure_allocatorIjEEEixEm
	mov	edi, dword ptr [rax]
	call	_ZN5Botan12_GLOBAL__N_17SE_wordEj
	mov	edi, eax
	call	_ZN5Botan4rotlILm8EjEET0_S1_
	mov	ebp, eax
	mov	eax, ebx
	not	eax
	and	eax, ebp
	not	ebp
	and	ebp, ebx
	or	ebp, eax
	mov	rsi, qword ptr [rsp + 32]
	mov	rdi, r15
	call	_ZNSt6vectorIjN5Botan16secure_allocatorIjEEEixEm
	mov	dword ptr [rax], ebp
	mov	ecx, 1563949075
	jmp	.LBB19_1
.LBB19_139:                             
	mov	ecx, 794969446
	xor	eax, eax
	mov	qword ptr [rsp + 152], rax 
	jmp	.LBB19_1
.LBB19_148:                             
	mov	rax, qword ptr [rsp + 16]
	mov	rax, qword ptr [rsp + 24]
	mov	rax, qword ptr [rsp + 16]
	mov	rax, qword ptr [rsp + 16]
	mov	rax, qword ptr [rsp + 24]
	mov	rax, qword ptr [rsp + 16]
	mov	rax, qword ptr [rsp + 24]
	mov	rax, qword ptr [rsp + 24]
	mov	rax, qword ptr [rsp + 16]
	mov	rax, qword ptr [rsp + 16]
	mov	rsi, qword ptr [rsp + 24]
	movabs	rcx, -5408544300796682074
	sub	rsi, rcx
	sub	rsi, rax
	add	rsi, rcx
	mov	rdi, r15
	call	_ZNSt6vectorIjN5Botan16secure_allocatorIjEEEixEm
	mov	ebx, dword ptr [rax]
	mov	rsi, qword ptr [rsp + 24]
	mov	rdi, r15
	call	_ZNSt6vectorIjN5Botan16secure_allocatorIjEEEixEm
	mov	dword ptr [rax], ebx
	mov	rax, qword ptr [rsp + 72]
	movzx	eax, byte ptr [rsp + 15]
	movzx	eax, byte ptr [rsp + 15]
	movzx	eax, byte ptr [rsp + 15]
	movzx	eax, byte ptr [rsp + 15]
	movzx	eax, byte ptr [rsp + 15]
	movzx	eax, byte ptr [rsp + 15]
	movzx	eax, byte ptr [rsp + 15]
	movzx	eax, byte ptr [rsp + 15]
	mov	rax, qword ptr [rsp + 24]
	mov	rax, qword ptr [rsp + 24]
	mov	rax, qword ptr [rsp + 24]
	mov	rax, qword ptr [rsp + 24]
	movabs	rcx, -5971476660235718573
	sub	rax, rcx
	lea	rsi, [rax + rcx - 1]
	mov	rdi, r15
	call	_ZNSt6vectorIjN5Botan16secure_allocatorIjEEEixEm
	mov	ecx, 1508701136
	jmp	.LBB19_1
.LBB19_145:                             
	mov	ecx, -753028566
	jmp	.LBB19_1
.LBB19_151:                             
	mov	ecx, -1752514498
	jmp	.LBB19_1
.LBB19_143:                             
	mov	rdi, r15
	call	_ZNSt6vectorIjN5Botan16secure_allocatorIjEEE4dataEv
	mov	rbp, rax
	mov	rdi, r15
	call	_ZNKSt6vectorIjN5Botan16secure_allocatorIjEEE4sizeEv
	mov	rdi, rbp
	mov	rsi, rax
	call	_ZN5Botan2CT8unpoisonIjEEvPKT_m
	mov	rdi, r14
	call	_ZNSt6vectorIjN5Botan16secure_allocatorIjEEE4dataEv
	mov	rbp, rax
	mov	rdi, r14
	call	_ZNKSt6vectorIjN5Botan16secure_allocatorIjEEE4sizeEv
	mov	rdi, rbp
	mov	rsi, rax
	call	_ZN5Botan2CT8unpoisonIjEEvPKT_m
	mov	rdi, qword ptr [rsp + 88] 
	mov	rsi, r12
	call	_ZN5Botan2CT8unpoisonIhEEvPKT_m
	mov	eax, dword ptr [rip + x.44]
	lea	ecx, [rax - 1]
	imul	ecx, eax
	mov	eax, ecx
	xor	eax, -2
	and	eax, ecx
	sete	dl
	test	eax, eax
	mov	ecx, 1059032843
	mov	esi, -2089066766
	cmove	ecx, esi
	cmp	dword ptr [rip + y.45], 10
	setl	al
	mov	edi, 1059032843
	jmp	.LBB19_123
.LBB19_121:                             
	mov	eax, dword ptr [rip + x.44]
	mov	edx, dword ptr [rip + y.45]
	lea	ecx, [rax - 1]
	imul	ecx, eax
	not	ecx
	or	ecx, -2
	cmp	ecx, -1
	sete	al
	cmp	edx, 10
	setl	bl
	xor	bl, al
	mov	eax, 1841419288
	mov	esi, -1953361024
	cmovne	eax, esi
	cmp	ecx, -1
	mov	ecx, eax
	cmove	ecx, esi
	cmp	edx, 10
	mov	rdx, qword ptr [rsp + 200] 
	mov	qword ptr [rsp + 16], rdx
	mov	rdx, qword ptr [rsp + 16]
	cmovge	ecx, eax
	mov	rax, rdx
	xor	rax, 4
	cmp	rdx, 4
	mov	rdx, qword ptr [rsp + 16]
	sete	bl
	mov	rsi, rdx
	xor	rsi, 6
	cmp	rdx, 6
	sete	dl
	xor	dl, bl
	or	rsi, rax
	mov	rax, qword ptr [rsp + 16]
	sete	bl
	or	bl, dl
	cmp	rax, 8
	sete	byte ptr [rsp + 15]
	movzx	eax, byte ptr [rsp + 15]
	mov	edx, ebx
	and	dl, al
	xor	bl, al
	or	bl, dl
	and	bl, 1
	mov	byte ptr [rsp + 44], bl
	jmp	.LBB19_1
.LBB19_130:                             
	mov	rax, qword ptr [rsp + 16]
	mov	rbp, qword ptr [rsp + 32]
	movabs	rcx, 513573190897979369
	sub	rbp, rcx
	sub	rbp, rax
	add	rbp, rcx
	mov	rdi, r15
	mov	rsi, rbp
	call	_ZNSt6vectorIjN5Botan16secure_allocatorIjEEEixEm
	mov	rbx, r12
	mov	r12d, dword ptr [rax]
	xor	edx, edx
	mov	rax, rbp
	div	qword ptr [rsp + 16]
	mov	eax, dword ptr [4*rax + _ZZN5Botan12_GLOBAL__N_116aes_key_scheduleEPKhmRSt6vectorIjNS_16secure_allocatorIjEEES7_bE2RC]
	mov	ecx, eax
	not	ecx
	and	ecx, 925027298
	and	eax, -925027299
	or	eax, ecx
	mov	ecx, r12d
	not	ecx
	and	ecx, 925027298
	and	r12d, -925027299
	or	r12d, ecx
	xor	r12d, eax
	mov	rax, qword ptr [rsp + 32]
	xor	esi, esi
	sub	rsi, rax
	not	rsi
	mov	rdi, r15
	call	_ZNSt6vectorIjN5Botan16secure_allocatorIjEEEixEm
	mov	edi, dword ptr [rax]
	call	_ZN5Botan12_GLOBAL__N_17SE_wordEj
	mov	edi, eax
	call	_ZN5Botan4rotlILm8EjEET0_S1_
	mov	ebp, eax
	mov	eax, r12d
	not	eax
	and	eax, 1539570480
	and	r12d, -1539570481
	or	r12d, eax
	mov	eax, ebp
	not	eax
	and	eax, 1539570480
	and	ebp, -1539570481
	or	ebp, eax
	xor	ebp, r12d
	mov	r12, rbx
	mov	rsi, qword ptr [rsp + 32]
	mov	rdi, r15
	call	_ZNSt6vectorIjN5Botan16secure_allocatorIjEEEixEm
	mov	dword ptr [rax], ebp
	mov	eax, dword ptr [rip + x.44]
	mov	edx, dword ptr [rip + y.45]
	lea	ecx, [rax - 1]
	imul	ecx, eax
	not	ecx
	or	ecx, -2
	cmp	ecx, -1
	sete	al
	cmp	edx, 10
	setl	bl
	xor	bl, al
	mov	eax, -1682175334
	mov	esi, -288748530
.LBB19_32:                              
	cmovne	eax, esi
	cmp	ecx, -1
	mov	ecx, eax
	cmove	ecx, esi
	cmp	edx, 10
	cmovge	ecx, eax
	jmp	.LBB19_1
.LBB19_124:                             
	mov	rdi, qword ptr [rsp + 88] 
	mov	rsi, r12
	call	_ZN5Botan2CT6poisonIhEEvPKT_m
	mov	rdi, r15
	mov	rbx, qword ptr [rsp + 192] 
	mov	rsi, rbx
	call	_ZNSt6vectorIjN5Botan16secure_allocatorIjEEE6resizeEm
	mov	rdi, r14
	mov	rsi, rbx
	call	_ZNSt6vectorIjN5Botan16secure_allocatorIjEEE6resizeEm
	mov	ecx, -359992471
	xor	eax, eax
	mov	qword ptr [rsp + 136], rax 
	jmp	.LBB19_1
.LBB19_132:                             
	mov	rax, qword ptr [rsp + 32]
	xor	ecx, ecx
	sub	rcx, rax
	mov	rax, qword ptr [rsp + 72]
	sub	rax, rcx
	mov	qword ptr [rsp + 24], rax
	mov	rdi, r15
	call	_ZNKSt6vectorIjN5Botan16secure_allocatorIjEEE4sizeEv
	mov	rcx, qword ptr [rsp + 24]
	cmp	rcx, rax
	mov	ecx, -336980786
	mov	eax, 1445236292
	cmovb	ecx, eax
	jmp	.LBB19_1
.LBB19_134:                             
	mov	rax, qword ptr [rsp + 24]
	mov	qword ptr [rsp + 168], rax 
	mov	ecx, 1264961138
	mov	eax, dword ptr [rsp + 84]
	mov	dword ptr [rsp + 80], eax 
	jmp	.LBB19_1
.LBB19_131:                             
	mov	ecx, 796712769
	mov	eax, 1
	mov	qword ptr [rsp + 144], rax 
	jmp	.LBB19_1
.LBB19_152:                             
	mov	rdi, r15
	call	_ZNSt6vectorIjN5Botan16secure_allocatorIjEEE4dataEv
	mov	rbp, rax
	mov	rdi, r15
	call	_ZNKSt6vectorIjN5Botan16secure_allocatorIjEEE4sizeEv
	mov	rdi, rbp
	mov	rsi, rax
	call	_ZN5Botan2CT8unpoisonIjEEvPKT_m
	mov	rdi, r14
	call	_ZNSt6vectorIjN5Botan16secure_allocatorIjEEE4dataEv
	mov	rbp, rax
	mov	rdi, r14
	call	_ZNKSt6vectorIjN5Botan16secure_allocatorIjEEE4sizeEv
	mov	rdi, rbp
	mov	rsi, rax
	call	_ZN5Botan2CT8unpoisonIjEEvPKT_m
	mov	rdi, qword ptr [rsp + 88] 
	mov	rsi, r12
	call	_ZN5Botan2CT8unpoisonIhEEvPKT_m
	mov	ecx, -1949347282
	jmp	.LBB19_1
.LBB19_137:                             
	mov	eax, dword ptr [rip + x.44]
	mov	edx, dword ptr [rip + y.45]
	mov	ecx, eax
	neg	ecx
	not	ecx
	imul	ecx, eax
	not	ecx
	or	ecx, -2
	cmp	ecx, -1
	sete	al
	cmp	edx, 10
	setl	bl
	xor	bl, al
	mov	eax, -1112211219
	mov	esi, 1203483019
	cmovne	eax, esi
	cmp	ecx, -1
	mov	ecx, eax
	cmove	ecx, esi
	cmp	edx, 10
	mov	rdx, qword ptr [rsp + 112]
	mov	rsi, qword ptr [rsp + 64]
	cmovge	ecx, eax
	cmp	rsi, rdx
	setne	byte ptr [rsp + 47]
	jmp	.LBB19_1
.LBB19_146:                             
	mov	ecx, -1217225873
	jmp	.LBB19_1
.LBB19_128:                             
	mov	eax, dword ptr [rip + x.44]
	mov	edx, dword ptr [rip + y.45]
	lea	ecx, [rax - 1]
	imul	ecx, eax
	mov	eax, ecx
	xor	eax, -2
	and	eax, ecx
	sete	cl
	cmp	edx, 10
	setl	bl
	xor	bl, cl
	mov	esi, -989486181
	mov	edi, 1412750207
	cmovne	esi, edi
	test	eax, eax
	mov	ecx, esi
	cmove	ecx, edi
	cmp	edx, 10
	mov	rax, qword ptr [rsp + 48]
	cmovge	ecx, esi
	shl	rax, 2
	movabs	rdx, 9067714006353747712
	sub	rax, rdx
	lea	rax, [rax + rdx + 4]
	mov	qword ptr [rsp + 112], rax
	mov	rax, qword ptr [rsp + 112]
	mov	rdx, qword ptr [rsp + 32]
	cmp	rdx, rax
	setb	byte ptr [rsp + 45]
	jmp	.LBB19_1
.LBB19_149:                             
	mov	rax, qword ptr [rsp + 112]
	mov	rax, qword ptr [rsp + 64]
	mov	ecx, 1130277825
	jmp	.LBB19_1
.LBB19_133:                             
	mov	rax, qword ptr [rsp + 16]
	mov	rsi, qword ptr [rsp + 24]
	movabs	rcx, 3473878124432260153
	add	rsi, rcx
	sub	rsi, rax
	sub	rsi, rcx
	mov	rdi, r15
	call	_ZNSt6vectorIjN5Botan16secure_allocatorIjEEEixEm
	mov	ebx, dword ptr [rax]
	mov	rsi, qword ptr [rsp + 24]
	mov	rdi, r15
	call	_ZNSt6vectorIjN5Botan16secure_allocatorIjEEEixEm
	mov	dword ptr [rax], ebx
	mov	rax, qword ptr [rsp + 72]
	cmp	rax, 4
	sete	al
	movzx	ecx, byte ptr [rsp + 15]
	xor	al, cl
	not	al
	and	al, cl
	and	al, 1
	mov	byte ptr [rsp + 46], al
	mov	rax, qword ptr [rsp + 24]
	movabs	rcx, 3286044285130470816
	sub	rax, rcx
	lea	rsi, [rax + rcx - 1]
	mov	rdi, r15
	call	_ZNSt6vectorIjN5Botan16secure_allocatorIjEEEixEm
	mov	ecx, dword ptr [rip + x.44]
	mov	edx, dword ptr [rip + y.45]
	lea	esi, [rcx - 1]
	imul	esi, ecx
	not	esi
	or	esi, -2
	cmp	esi, -1
	sete	cl
	cmp	edx, 10
	setl	bl
	xor	bl, cl
	mov	edi, -582792605
	mov	ebp, 1885904607
	cmovne	edi, ebp
	cmp	esi, -1
	mov	ecx, edi
	cmove	ecx, ebp
	cmp	edx, 10
	mov	eax, dword ptr [rax]
	mov	dword ptr [rsp + 84], eax
	cmovge	ecx, edi
	jmp	.LBB19_1
.LBB19_127:                             
	mov	rsi, qword ptr [rsp + 96]
	mov	rdi, qword ptr [rsp + 88] 
	call	_ZN5Botan7load_beIjEET_PKhm
	mov	ebp, eax
	mov	rsi, qword ptr [rsp + 96]
	mov	rdi, r15
	call	_ZNSt6vectorIjN5Botan16secure_allocatorIjEEEixEm
	mov	dword ptr [rax], ebp
	mov	rax, qword ptr [rsp + 96]
	movabs	rcx, 7062338778898225078
	lea	rax, [rax + rcx + 1]
	sub	rax, rcx
	mov	qword ptr [rsp + 136], rax 
	mov	ecx, -359992471
	jmp	.LBB19_1
.LBB19_140:                             
	mov	rax, qword ptr [rsp + 152] 
	mov	qword ptr [rsp + 104], rax
	mov	rdi, r14
	call	_ZNKSt6vectorIjN5Botan16secure_allocatorIjEEE4sizeEv
	mov	rcx, qword ptr [rsp + 104]
	cmp	rcx, rax
	mov	ecx, 2007310153
	mov	eax, 1828974841
	cmove	ecx, eax
	jmp	.LBB19_1
.LBB19_125:                             
	mov	rax, qword ptr [rsp + 136] 
	mov	qword ptr [rsp + 96], rax
	mov	rax, qword ptr [rsp + 16]
	mov	rcx, qword ptr [rsp + 96]
	cmp	rcx, rax
	mov	ecx, -1601990935
	mov	eax, 1434998500
	cmove	ecx, eax
	jmp	.LBB19_1
.LBB19_120:                             
	movzx	eax, byte ptr [rsp + 42]
	movzx	ecx, byte ptr [rsp + 43]
	mov	edx, eax
	xor	dl, cl
	test	cl, cl
	mov	ecx, 1841419288
	mov	esi, -753028566
	cmovne	ecx, esi
	test	al, al
	mov	eax, 1841419288
	cmove	ecx, eax
	test	dl, dl
	cmovne	ecx, esi
	jmp	.LBB19_1
.LBB19_135:                             
	mov	rdi, r15
	mov	rsi, qword ptr [rsp + 168] 
	call	_ZNSt6vectorIjN5Botan16secure_allocatorIjEEEixEm
	mov	ecx, dword ptr [rax]
	mov	esi, dword ptr [rsp + 80] 
	mov	edx, esi
	not	edx
	and	edx, ecx
	not	ecx
	and	ecx, esi
	or	edx, ecx
	mov	dword ptr [rax], edx
	mov	rax, qword ptr [rsp + 72]
	movabs	rcx, -4583781658395383526
	sub	rax, rcx
	lea	rax, [rax + rcx + 1]
	mov	qword ptr [rsp + 144], rax 
	mov	ecx, 796712769
	jmp	.LBB19_1
.LBB19_141:                             
	mov	eax, dword ptr [rip + x.44]
	lea	ecx, [rax - 1]
	imul	ecx, eax
	not	ecx
	or	ecx, -2
	cmp	ecx, -1
	sete	al
	mov	ecx, 1248450100
	mov	esi, 161281122
	cmove	ecx, esi
	cmp	dword ptr [rip + y.45], 10
	setl	dl
	mov	edi, 1248450100
	cmovge	ecx, edi
	xor	dl, al
	cmovne	ecx, esi
	jmp	.LBB19_1
.LBB19_122:                             
	mov	eax, dword ptr [rip + x.44]
	lea	ecx, [rax - 1]
	imul	ecx, eax
	mov	eax, ecx
	xor	eax, -2
	and	eax, ecx
	sete	dl
	test	eax, eax
	mov	ecx, 2092147550
	mov	esi, -183200699
	cmove	ecx, esi
	cmp	dword ptr [rip + y.45], 10
	setl	al
	mov	edi, 2092147550
.LBB19_123:                             
	cmovge	ecx, edi
	xor	al, dl
	cmovne	ecx, esi
	jmp	.LBB19_1
.LBB19_136:                             
	mov	eax, dword ptr [rip + x.44]
	mov	edx, dword ptr [rip + y.45]
	lea	ecx, [rax - 1]
	imul	ecx, eax
	mov	eax, ecx
	xor	eax, -2
	and	eax, ecx
	sete	cl
	cmp	edx, 10
	setl	bl
	xor	bl, cl
	mov	esi, -1112211219
	mov	edi, 1130277825
	cmovne	esi, edi
	test	eax, eax
	mov	ecx, esi
	cmove	ecx, edi
	cmp	edx, 10
	mov	qword ptr [rsp + 64], r13
	cmovge	ecx, esi
	jmp	.LBB19_1
.LBB19_129:                             
	mov	ecx, 1806422801
	xor	r13d, r13d
	jmp	.LBB19_1
.LBB19_119:                             
	cmp	ecx, 2092147550
	jne	.LBB19_1
	jmp	.LBB19_60
.LBB19_66:                              
	cmp	ecx, 57562992
	jne	.LBB19_1
	jmp	.LBB19_67
.LBB19_59:                              
	cmp	ecx, -183200699
	jne	.LBB19_1
.LBB19_60:
	mov	edi, .L.str.9
	mov	esi, .L.str.8
	mov	edx, .L__func__._ZN5Botan12_GLOBAL__N_116aes_key_scheduleEPKhmRSt6vectorIjNS_16secure_allocatorIjEEES7_b
	mov	ecx, .L.str.5
	mov	r8d, 702
	call	_ZN5Botan17assertion_failureEPKcS1_S1_S1_i
.LBB19_144:
	add	rsp, 216
	pop	rbx
	pop	r12
	pop	r13
	pop	r14
	pop	r15
	pop	rbp
	ret
.LBB19_67:
	mov	edi, .L.str.7
	mov	esi, .L.str.8
	mov	edx, .L__func__._ZN5Botan12_GLOBAL__N_116aes_key_scheduleEPKhmRSt6vectorIjNS_16secure_allocatorIjEEES7_b
	mov	ecx, .L.str.5
	mov	r8d, 697
	call	_ZN5Botan17assertion_failureEPKcS1_S1_S1_i
.Lfunc_end19:
	.size	_ZN5Botan12_GLOBAL__N_116aes_key_scheduleEPKhmRSt6vectorIjNS_16secure_allocatorIjEEES7_b, .Lfunc_end19-_ZN5Botan12_GLOBAL__N_116aes_key_scheduleEPKhmRSt6vectorIjNS_16secure_allocatorIjEEES7_b
	.cfi_endproc

	.section	.text._ZN5Botan5CPUID16is_little_endianEv,"axG",@progbits,_ZN5Botan5CPUID16is_little_endianEv,comdat
	.weak	_ZN5Botan5CPUID16is_little_endianEv 
	.p2align	4, 0x90
	.type	_ZN5Botan5CPUID16is_little_endianEv,@function
_ZN5Botan5CPUID16is_little_endianEv:    

	mov	eax, dword ptr [rip + x.46]
	mov	ecx, dword ptr [rip + y.47]
	mov	edx, eax
	neg	edx
	not	edx
	imul	edx, eax
	not	edx
	or	edx, -2
	cmp	edx, -1
	sete	dl
	sete	byte ptr [rsp - 2]
	mov	esi, -326053047
	mov	edi, -435103645
	mov	eax, -435103645
	cmove	eax, esi
	cmp	ecx, 10
	setl	cl
	setl	byte ptr [rsp - 1]
	cmovge	eax, edi
	xor	cl, dl
	cmovne	eax, esi
	mov	edx, -556298825
	mov	esi, 2139910262
	jmp	.LBB20_1
.LBB20_7:                               
	mov	edx, eax
	.p2align	4, 0x90
.LBB20_1:                               
	cmp	edx, -326053048
	jg	.LBB20_5

	cmp	edx, -556298825
	je	.LBB20_8

	cmp	edx, -435103645
	jne	.LBB20_1

	mov	edx, 2139910262
	jmp	.LBB20_1
	.p2align	4, 0x90
.LBB20_5:                               
	cmp	edx, -326053047
	je	.LBB20_9

	cmp	edx, 2139910262
	jne	.LBB20_1
	jmp	.LBB20_7
.LBB20_8:                               
	movzx	edi, byte ptr [rsp - 2]
	movzx	edx, byte ptr [rsp - 1]
	mov	ecx, edi
	xor	cl, dl
	mov	ecx, -435103645
	cmovne	ecx, esi
	test	dl, dl
	mov	edx, ecx
	cmovne	edx, esi
	test	dil, dil
	cmove	edx, ecx
	jmp	.LBB20_1
.LBB20_9:
	mov	al, 1
	ret
.Lfunc_end20:
	.size	_ZN5Botan5CPUID16is_little_endianEv, .Lfunc_end20-_ZN5Botan5CPUID16is_little_endianEv

	.text
	.globl	_ZN5Botan7AES_1285clearEv 
	.p2align	4, 0x90
	.type	_ZN5Botan7AES_1285clearEv,@function
_ZN5Botan7AES_1285clearEv:              
	.cfi_startproc

	push	rbx
.Lcfi134:
	.cfi_def_cfa_offset 16
.Lcfi135:
	.cfi_offset rbx, -16
	mov	rbx, rdi
	lea	rdi, [rbx + 8]
	call	_ZN5Botan3zapIjNS_16secure_allocatorIjEEEEvRSt6vectorIT_T0_E
	add	rbx, 32
	mov	rdi, rbx
	pop	rbx
	jmp	_ZN5Botan3zapIjNS_16secure_allocatorIjEEEEvRSt6vectorIT_T0_E 
.Lfunc_end21:
	.size	_ZN5Botan7AES_1285clearEv, .Lfunc_end21-_ZN5Botan7AES_1285clearEv
	.cfi_endproc

	.section	.text._ZN5Botan3zapIjNS_16secure_allocatorIjEEEEvRSt6vectorIT_T0_E,"axG",@progbits,_ZN5Botan3zapIjNS_16secure_allocatorIjEEEEvRSt6vectorIT_T0_E,comdat
	.weak	_ZN5Botan3zapIjNS_16secure_allocatorIjEEEEvRSt6vectorIT_T0_E 
	.p2align	4, 0x90
	.type	_ZN5Botan3zapIjNS_16secure_allocatorIjEEEEvRSt6vectorIT_T0_E,@function
_ZN5Botan3zapIjNS_16secure_allocatorIjEEEEvRSt6vectorIT_T0_E: 
	.cfi_startproc

	push	rbx
.Lcfi136:
	.cfi_def_cfa_offset 16
.Lcfi137:
	.cfi_offset rbx, -16
	mov	rbx, rdi
	call	_ZN5Botan7zeroiseIjNS_16secure_allocatorIjEEEEvRSt6vectorIT_T0_E
	mov	rdi, rbx
	call	_ZNSt6vectorIjN5Botan16secure_allocatorIjEEE5clearEv
	mov	rdi, rbx
	pop	rbx
	jmp	_ZNSt6vectorIjN5Botan16secure_allocatorIjEEE13shrink_to_fitEv 
.Lfunc_end22:
	.size	_ZN5Botan3zapIjNS_16secure_allocatorIjEEEEvRSt6vectorIT_T0_E, .Lfunc_end22-_ZN5Botan3zapIjNS_16secure_allocatorIjEEEEvRSt6vectorIT_T0_E
	.cfi_endproc

	.text
	.globl	_ZNK5Botan7AES_1929encrypt_nEPKhPhm 
	.p2align	4, 0x90
	.type	_ZNK5Botan7AES_1929encrypt_nEPKhPhm,@function
_ZNK5Botan7AES_1929encrypt_nEPKhPhm:    
	.cfi_startproc

	push	rbp
.Lcfi138:
	.cfi_def_cfa_offset 16
	push	r15
.Lcfi139:
	.cfi_def_cfa_offset 24
	push	r14
.Lcfi140:
	.cfi_def_cfa_offset 32
	push	r13
.Lcfi141:
	.cfi_def_cfa_offset 40
	push	r12
.Lcfi142:
	.cfi_def_cfa_offset 48
	push	rbx
.Lcfi143:
	.cfi_def_cfa_offset 56
	push	rax
.Lcfi144:
	.cfi_def_cfa_offset 64
.Lcfi145:
	.cfi_offset rbx, -56
.Lcfi146:
	.cfi_offset r12, -48
.Lcfi147:
	.cfi_offset r13, -40
.Lcfi148:
	.cfi_offset r14, -32
.Lcfi149:
	.cfi_offset r15, -24
.Lcfi150:
	.cfi_offset rbp, -16
	mov	r14, rcx
	mov	r15, rdx
	mov	r13, rsi
	mov	r12, rdi
	lea	rax, [r12 + 8]
	mov	qword ptr [rsp], rax
	mov	rdi, qword ptr [rsp]
	call	_ZNKSt6vectorIjN5Botan16secure_allocatorIjEEE5emptyEv
	xor	al, 1
	movzx	esi, al
	mov	rdi, r12
	call	_ZNK5Botan18SymmetricAlgorithm14verify_key_setEb
	mov	eax, -1495778007
	mov	ebp, -1329754365
	jmp	.LBB23_1
.LBB23_41:                              
	cmp	ecx, 10
	cmovl	eax, esi
	.p2align	4, 0x90
.LBB23_1:                               
	cmp	eax, -528364007
	jle	.LBB23_2

	cmp	eax, 691918790
	jg	.LBB23_26

	cmp	eax, -305378519
	jg	.LBB23_23

	cmp	eax, -528364006
	je	.LBB23_51

	cmp	eax, -472571681
	jne	.LBB23_1

	call	_ZN5Botan5CPUID9has_vpermEv
	test	al, al
	mov	eax, -1754410289
	cmovne	eax, ebp
	jmp	.LBB23_1
	.p2align	4, 0x90
.LBB23_2:                               
	cmp	eax, -1365662876
	jle	.LBB23_3

	cmp	eax, -1022373081
	jg	.LBB23_12

	cmp	eax, -1365662875
	je	.LBB23_43

	cmp	eax, -1329754365
	jne	.LBB23_1

	mov	eax, dword ptr [rip + x.52]
	mov	ecx, dword ptr [rip + y.53]
	lea	esi, [rax - 1]
	imul	esi, eax
	mov	edx, esi
	xor	edx, -2
	and	edx, esi
	sete	al
	cmp	ecx, 10
	setl	bl
	xor	bl, al
	mov	esi, -1365662875
	mov	eax, -1365662875
	jne	.LBB23_39

	mov	eax, 1693655556
	test	edx, edx
	je	.LBB23_41
	jmp	.LBB23_40
	.p2align	4, 0x90
.LBB23_26:                              
	cmp	eax, 1567037485
	jle	.LBB23_27

	cmp	eax, 1567037486
	je	.LBB23_33

	cmp	eax, 1693655556
	jne	.LBB23_1

	mov	rdi, r12
	mov	rsi, r13
	mov	rdx, r15
	mov	rcx, r14
	call	_ZNK5Botan7AES_19215vperm_encrypt_nEPKhPhm
	mov	eax, -1365662875
	jmp	.LBB23_1
	.p2align	4, 0x90
.LBB23_3:                               
	cmp	eax, -2101181066
	je	.LBB23_37

	cmp	eax, -1754410289
	je	.LBB23_47

	cmp	eax, -1495778007
	jne	.LBB23_1

	call	_ZN5Botan5CPUID10has_hw_aesEv
	test	al, al
	mov	eax, -472571681
	mov	ecx, 1567037486
	cmovne	eax, ecx
	jmp	.LBB23_1
.LBB23_23:                              
	cmp	eax, -305378518
	je	.LBB23_48

	cmp	eax, 456566528
	jne	.LBB23_1

	mov	eax, -558030582
	jmp	.LBB23_1
.LBB23_12:                              
	cmp	eax, -1022373080
	je	.LBB23_50

	cmp	eax, -558030582
	jne	.LBB23_1

	mov	eax, dword ptr [rip + x.52]
	mov	ecx, dword ptr [rip + y.53]
	mov	edx, eax
	neg	edx
	not	edx
	imul	edx, eax
	not	edx
	or	edx, -2
	cmp	edx, -1
	sete	bl
	mov	eax, -305378518
	mov	edx, -528364006
	mov	esi, -305378518
	je	.LBB23_16

	mov	esi, -528364006
.LBB23_16:                              
	cmp	ecx, 10
	setl	cl
	cmovl	edx, esi
	xor	cl, bl
	jne	.LBB23_1

	mov	eax, edx
	jmp	.LBB23_1
.LBB23_27:                              
	cmp	eax, 691918791
	je	.LBB23_42

	cmp	eax, 1371901912
	jne	.LBB23_1
	jmp	.LBB23_29
.LBB23_51:                              
	mov	eax, -305378518
	jmp	.LBB23_1
.LBB23_43:                              
	mov	rdi, r12
	mov	rsi, r13
	mov	rdx, r15
	mov	rcx, r14
	call	_ZNK5Botan7AES_19215vperm_encrypt_nEPKhPhm
	mov	eax, dword ptr [rip + x.52]
	mov	ecx, dword ptr [rip + y.53]
	lea	edx, [rax - 1]
	imul	edx, eax
	mov	eax, edx
	xor	eax, -2
	and	eax, edx
	sete	bl
	test	eax, eax
	mov	eax, 456566528
	mov	edx, 1693655556
	mov	esi, 456566528
	je	.LBB23_45

	mov	esi, 1693655556
.LBB23_45:                              
	cmp	ecx, 10
	setl	cl
	cmovl	edx, esi
	xor	cl, bl
	jne	.LBB23_1

	mov	eax, edx
	jmp	.LBB23_1
.LBB23_33:                              
	mov	eax, dword ptr [rip + x.52]
	mov	ecx, dword ptr [rip + y.53]
	lea	edx, [rax - 1]
	imul	edx, eax
	not	edx
	or	edx, -2
	cmp	edx, -1
	sete	bl
	mov	eax, -2101181066
	mov	edx, -1022373080
	mov	esi, -2101181066
	je	.LBB23_35

	mov	esi, -1022373080
.LBB23_35:                              
	cmp	ecx, 10
	setl	cl
	cmovl	edx, esi
	xor	cl, bl
	jne	.LBB23_1

	mov	eax, edx
	jmp	.LBB23_1
.LBB23_37:                              
	mov	rdi, r12
	mov	rsi, r13
	mov	rdx, r15
	mov	rcx, r14
	call	_ZNK5Botan7AES_19216hw_aes_encrypt_nEPKhPhm
	mov	eax, dword ptr [rip + x.52]
	mov	ecx, dword ptr [rip + y.53]
	lea	esi, [rax - 1]
	imul	esi, eax
	mov	edx, esi
	xor	edx, -2
	and	edx, esi
	sete	al
	cmp	ecx, 10
	setl	bl
	xor	bl, al
	mov	esi, 691918791
	mov	eax, 691918791
	jne	.LBB23_39

	mov	eax, -1022373080
	test	edx, edx
	je	.LBB23_41
	jmp	.LBB23_40
.LBB23_47:                              
	mov	rcx, qword ptr [rsp]
	mov	rdi, r13
	mov	rsi, r15
	mov	rdx, r14
	call	_ZN5Botan12_GLOBAL__N_113aes_encrypt_nEPKhPhmRKSt6vectorIjNS_16secure_allocatorIjEEE
	mov	eax, -558030582
	jmp	.LBB23_1
.LBB23_48:                              
	mov	eax, dword ptr [rip + x.52]
	mov	ecx, dword ptr [rip + y.53]
	lea	esi, [rax - 1]
	imul	esi, eax
	mov	edx, esi
	xor	edx, -2
	and	edx, esi
	sete	al
	cmp	ecx, 10
	setl	bl
	xor	bl, al
	mov	esi, 1371901912
	mov	eax, 1371901912
	jne	.LBB23_39

	mov	eax, -528364006
.LBB23_39:                              
	test	edx, edx
	je	.LBB23_41
.LBB23_40:                              
	mov	esi, eax
	jmp	.LBB23_41
.LBB23_50:                              
	mov	rdi, r12
	mov	rsi, r13
	mov	rdx, r15
	mov	rcx, r14
	call	_ZNK5Botan7AES_19216hw_aes_encrypt_nEPKhPhm
	mov	eax, -2101181066
	jmp	.LBB23_1
.LBB23_42:                              
	mov	eax, -558030582
	jmp	.LBB23_1
.LBB23_29:
	add	rsp, 8
	pop	rbx
	pop	r12
	pop	r13
	pop	r14
	pop	r15
	pop	rbp
	ret
.Lfunc_end23:
	.size	_ZNK5Botan7AES_1929encrypt_nEPKhPhm, .Lfunc_end23-_ZNK5Botan7AES_1929encrypt_nEPKhPhm
	.cfi_endproc

	.globl	_ZNK5Botan7AES_1929decrypt_nEPKhPhm 
	.p2align	4, 0x90
	.type	_ZNK5Botan7AES_1929decrypt_nEPKhPhm,@function
_ZNK5Botan7AES_1929decrypt_nEPKhPhm:    
	.cfi_startproc

	push	rbp
.Lcfi151:
	.cfi_def_cfa_offset 16
	push	r15
.Lcfi152:
	.cfi_def_cfa_offset 24
	push	r14
.Lcfi153:
	.cfi_def_cfa_offset 32
	push	r13
.Lcfi154:
	.cfi_def_cfa_offset 40
	push	r12
.Lcfi155:
	.cfi_def_cfa_offset 48
	push	rbx
.Lcfi156:
	.cfi_def_cfa_offset 56
	sub	rsp, 24
.Lcfi157:
	.cfi_def_cfa_offset 80
.Lcfi158:
	.cfi_offset rbx, -56
.Lcfi159:
	.cfi_offset r12, -48
.Lcfi160:
	.cfi_offset r13, -40
.Lcfi161:
	.cfi_offset r14, -32
.Lcfi162:
	.cfi_offset r15, -24
.Lcfi163:
	.cfi_offset rbp, -16
	mov	eax, dword ptr [rip + x.54]
	lea	ebp, [rax - 1]
	imul	ebp, eax
	not	ebp
	or	ebp, -2
	cmp	ebp, -1
	sete	byte ptr [rsp + 13]
	mov	eax, dword ptr [rip + y.55]
	cmp	eax, 10
	setl	byte ptr [rsp + 14]
	mov	r14, rcx
	mov	r15, rdx
	mov	r12, rsi
	mov	rbp, rdi
	lea	r13, [rbp + 32]
	mov	ecx, -267189424
	jmp	.LBB24_1
.LBB24_26:                              
	mov	rdi, r13
	call	_ZNKSt6vectorIjN5Botan16secure_allocatorIjEEE5emptyEv
	xor	al, 1
	movzx	esi, al
	mov	rdi, rbp
	call	_ZNK5Botan18SymmetricAlgorithm14verify_key_setEb
	call	_ZN5Botan5CPUID10has_hw_aesEv
	mov	ecx, 1873462401
	.p2align	4, 0x90
.LBB24_1:                               
	cmp	ecx, -267189425
	jle	.LBB24_2

	cmp	ecx, 1599103123
	jg	.LBB24_14

	cmp	ecx, -267189424
	je	.LBB24_19

	cmp	ecx, 875185803
	je	.LBB24_24

	cmp	ecx, -171370204
	jne	.LBB24_1
	jmp	.LBB24_13
	.p2align	4, 0x90
.LBB24_2:                               
	cmp	ecx, -879764763
	jg	.LBB24_6

	cmp	ecx, -1665010934
	je	.LBB24_22

	cmp	ecx, -1078314826
	jne	.LBB24_1

	mov	rdi, rbp
	mov	rsi, r12
	mov	rdx, r15
	mov	rcx, r14
	call	_ZNK5Botan7AES_19216hw_aes_decrypt_nEPKhPhm
	mov	ecx, -171370204
	jmp	.LBB24_1
	.p2align	4, 0x90
.LBB24_14:                              
	cmp	ecx, 1599103124
	je	.LBB24_26

	cmp	ecx, 1873462401
	jne	.LBB24_1

	mov	qword ptr [rsp + 16], r13
	mov	rdi, qword ptr [rsp + 16]
	call	_ZNKSt6vectorIjN5Botan16secure_allocatorIjEEE5emptyEv
	xor	al, 1
	movzx	esi, al
	mov	rdi, rbp
	call	_ZNK5Botan18SymmetricAlgorithm14verify_key_setEb
	call	_ZN5Botan5CPUID10has_hw_aesEv
	mov	ecx, dword ptr [rip + x.54]
	mov	edx, dword ptr [rip + y.55]
	lea	esi, [rcx - 1]
	imul	esi, ecx
	not	esi
	or	esi, -2
	cmp	esi, -1
	sete	cl
	cmp	edx, 10
	setl	bl
	xor	bl, cl
	mov	ecx, -1665010934
	mov	edi, -1665010934
	jne	.LBB24_18

	mov	edi, 1599103124
.LBB24_18:                              
	cmp	esi, -1
	cmovne	ecx, edi
	cmp	edx, 10
	mov	byte ptr [rsp + 15], al
	cmovge	ecx, edi
	jmp	.LBB24_1
	.p2align	4, 0x90
.LBB24_6:                               
	cmp	ecx, -879764762
	je	.LBB24_25

	cmp	ecx, -710506922
	jne	.LBB24_1

	mov	rcx, qword ptr [rsp + 16]
	mov	rdi, r12
	mov	rsi, r15
	mov	rdx, r14
	call	_ZN5Botan12_GLOBAL__N_113aes_decrypt_nEPKhPhmRKSt6vectorIjNS_16secure_allocatorIjEEE
	mov	ecx, -171370204
	jmp	.LBB24_1
.LBB24_19:                              
	movzx	edx, byte ptr [rsp + 13]
	movzx	ecx, byte ptr [rsp + 14]
	mov	eax, edx
	xor	al, cl
	test	cl, cl
	mov	esi, 1873462401
	mov	ecx, 1599103124
	mov	edi, 1873462401
	jne	.LBB24_21

	mov	edi, 1599103124
.LBB24_21:                              
	test	dl, dl
	cmovne	ecx, edi
	test	al, al
	cmovne	ecx, esi
	jmp	.LBB24_1
.LBB24_24:                              
	call	_ZN5Botan5CPUID9has_vpermEv
	test	al, al
	mov	ecx, -710506922
	mov	eax, -879764762
	cmovne	ecx, eax
	jmp	.LBB24_1
.LBB24_22:                              
	movzx	eax, byte ptr [rsp + 15]
	test	al, al
	mov	ecx, -1078314826
	jne	.LBB24_1

	mov	ecx, 875185803
	jmp	.LBB24_1
.LBB24_25:                              
	mov	rdi, rbp
	mov	rsi, r12
	mov	rdx, r15
	mov	rcx, r14
	call	_ZNK5Botan7AES_19215vperm_decrypt_nEPKhPhm
	mov	ecx, -171370204
	jmp	.LBB24_1
.LBB24_13:
	add	rsp, 24
	pop	rbx
	pop	r12
	pop	r13
	pop	r14
	pop	r15
	pop	rbp
	ret
.Lfunc_end24:
	.size	_ZNK5Botan7AES_1929decrypt_nEPKhPhm, .Lfunc_end24-_ZNK5Botan7AES_1929decrypt_nEPKhPhm
	.cfi_endproc

	.globl	_ZN5Botan7AES_19212key_scheduleEPKhm 
	.p2align	4, 0x90
	.type	_ZN5Botan7AES_19212key_scheduleEPKhm,@function
_ZN5Botan7AES_19212key_scheduleEPKhm:   
	.cfi_startproc

	push	rbp
.Lcfi164:
	.cfi_def_cfa_offset 16
	push	r15
.Lcfi165:
	.cfi_def_cfa_offset 24
	push	r14
.Lcfi166:
	.cfi_def_cfa_offset 32
	push	r13
.Lcfi167:
	.cfi_def_cfa_offset 40
	push	r12
.Lcfi168:
	.cfi_def_cfa_offset 48
	push	rbx
.Lcfi169:
	.cfi_def_cfa_offset 56
	push	rax
.Lcfi170:
	.cfi_def_cfa_offset 64
.Lcfi171:
	.cfi_offset rbx, -56
.Lcfi172:
	.cfi_offset r12, -48
.Lcfi173:
	.cfi_offset r13, -40
.Lcfi174:
	.cfi_offset r14, -32
.Lcfi175:
	.cfi_offset r15, -24
.Lcfi176:
	.cfi_offset rbp, -16
	mov	r14, rdx
	mov	rbp, rsi
	mov	r15, rdi
	lea	r12, [r15 + 8]
	lea	r13, [r15 + 32]
	mov	eax, 419037386
	jmp	.LBB25_2
.LBB25_1:                               
	cmp	ecx, 10
	cmovl	eax, esi
	.p2align	4, 0x90
.LBB25_2:                               
	cmp	eax, -178715895
	jle	.LBB25_8

	cmp	eax, 607679942
	jle	.LBB25_14

	cmp	eax, 1837855737
	jg	.LBB25_25

	cmp	eax, 704927648
	je	.LBB25_39

	cmp	eax, 1414886947
	je	.LBB25_49

	cmp	eax, 607679943
	jne	.LBB25_2
	jmp	.LBB25_54
	.p2align	4, 0x90
.LBB25_8:                               
	cmp	eax, -799731757
	jg	.LBB25_21

	cmp	eax, -1462070051
	jg	.LBB25_28

	cmp	eax, -1870189038
	je	.LBB25_41

	cmp	eax, -1629319598
	jne	.LBB25_2

	mov	rdi, r15
	mov	rsi, rbp
	mov	rdx, r14
	call	_ZN5Botan7AES_19218vperm_key_scheduleEPKhm
	mov	eax, dword ptr [rip + x.56]
	mov	ecx, dword ptr [rip + y.57]
	lea	esi, [rax - 1]
	imul	esi, eax
	mov	edx, esi
	xor	edx, -2
	and	edx, esi
	sete	al
	cmp	ecx, 10
	setl	bl
	xor	bl, al
	mov	esi, -295479874
	mov	eax, -295479874
	jne	.LBB25_51
	jmp	.LBB25_13
	.p2align	4, 0x90
.LBB25_14:                              
	cmp	eax, 123084232
	jg	.LBB25_33

	cmp	eax, -178715894
	je	.LBB25_42

	cmp	eax, 103562243
	jne	.LBB25_2

	mov	eax, dword ptr [rip + x.56]
	mov	ecx, dword ptr [rip + y.57]
	mov	edx, eax
	neg	edx
	not	edx
	imul	edx, eax
	not	edx
	or	edx, -2
	cmp	edx, -1
	sete	bl
	mov	eax, 1414886947
	mov	edx, -1870189038
	mov	esi, 1414886947
	je	.LBB25_19

	mov	esi, -1870189038
.LBB25_19:                              
	cmp	ecx, 10
	setl	cl
	cmovl	edx, esi
	xor	cl, bl
	jne	.LBB25_2

	mov	eax, edx
	jmp	.LBB25_2
	.p2align	4, 0x90
.LBB25_21:                              
	cmp	eax, -490465796
	jg	.LBB25_36

	cmp	eax, -799731756
	je	.LBB25_44

	cmp	eax, -689183369
	jne	.LBB25_2

	mov	rdi, r15
	mov	rsi, rbp
	mov	rdx, r14
	call	_ZN5Botan7AES_19218aesni_key_scheduleEPKhm
	mov	eax, -178715894
	jmp	.LBB25_2
.LBB25_25:                              
	cmp	eax, 1837855738
	je	.LBB25_53

	cmp	eax, 2062614883
	jne	.LBB25_2

	call	_ZN5Botan5CPUID9has_vpermEv
	test	al, al
	mov	eax, -490465795
	mov	ecx, 704927648
	cmovne	eax, ecx
	jmp	.LBB25_2
.LBB25_28:                              
	cmp	eax, -1462070050
	je	.LBB25_45

	cmp	eax, -1275653425
	jne	.LBB25_2

	mov	eax, dword ptr [rip + x.56]
	mov	ecx, dword ptr [rip + y.57]
	lea	edx, [rax - 1]
	imul	edx, eax
	not	edx
	or	edx, -2
	cmp	edx, -1
	sete	al
	cmp	ecx, 10
	setl	bl
	xor	bl, al
	mov	eax, -178715894
	mov	esi, -178715894
	jne	.LBB25_32

	mov	esi, -689183369
.LBB25_32:                              
	cmp	edx, -1
	cmovne	eax, esi
	cmp	ecx, 10
	cmovge	eax, esi
	jmp	.LBB25_2
.LBB25_33:                              
	cmp	eax, 123084233
	je	.LBB25_46

	cmp	eax, 419037386
	jne	.LBB25_2

	call	_ZN5Botan5CPUID10has_aes_niEv
	test	al, al
	mov	eax, 1837855738
	mov	ecx, -1275653425
	cmovne	eax, ecx
	jmp	.LBB25_2
.LBB25_36:                              
	cmp	eax, -490465795
	je	.LBB25_47

	cmp	eax, -295479874
	jne	.LBB25_2

	mov	eax, 103562243
	jmp	.LBB25_2
.LBB25_39:                              
	mov	eax, dword ptr [rip + x.56]
	mov	ecx, dword ptr [rip + y.57]
	mov	esi, eax
	neg	esi
	not	esi
	imul	esi, eax
	mov	edx, esi
	xor	edx, -2
	and	edx, esi
	sete	al
	cmp	ecx, 10
	setl	bl
	xor	bl, al
	mov	esi, -1629319598
	mov	eax, -1629319598
	jne	.LBB25_51
.LBB25_13:                              
	mov	eax, 123084233
	test	edx, edx
	je	.LBB25_1
	jmp	.LBB25_52
.LBB25_41:                              
	mov	eax, 1414886947
	jmp	.LBB25_2
.LBB25_42:                              
	mov	rdi, r15
	mov	rsi, rbp
	mov	rdx, r14
	call	_ZN5Botan7AES_19218aesni_key_scheduleEPKhm
	mov	eax, dword ptr [rip + x.56]
	mov	ecx, dword ptr [rip + y.57]
	mov	esi, eax
	neg	esi
	not	esi
	imul	esi, eax
	mov	edx, esi
	xor	edx, -2
	and	edx, esi
	sete	al
	cmp	ecx, 10
	setl	bl
	xor	bl, al
	mov	esi, -1462070050
	mov	eax, -1462070050
	jne	.LBB25_51

	mov	eax, -689183369
	test	edx, edx
	je	.LBB25_1
	jmp	.LBB25_52
.LBB25_44:                              
	call	_ZN5Botan5CPUID16is_little_endianEv
	movzx	r8d, al
	jmp	.LBB25_48
.LBB25_45:                              
	mov	eax, 103562243
	jmp	.LBB25_2
.LBB25_46:                              
	mov	rdi, r15
	mov	rsi, rbp
	mov	rdx, r14
	call	_ZN5Botan7AES_19218vperm_key_scheduleEPKhm
	mov	eax, -1629319598
	jmp	.LBB25_2
.LBB25_47:                              
	xor	r8d, r8d
.LBB25_48:                              
	mov	rdi, rbp
	mov	rsi, r14
	mov	rdx, r12
	mov	rcx, r13
	call	_ZN5Botan12_GLOBAL__N_116aes_key_scheduleEPKhmRSt6vectorIjNS_16secure_allocatorIjEEES7_b
	mov	eax, 103562243
	jmp	.LBB25_2
.LBB25_49:                              
	mov	eax, dword ptr [rip + x.56]
	mov	ecx, dword ptr [rip + y.57]
	mov	esi, eax
	neg	esi
	not	esi
	imul	esi, eax
	mov	edx, esi
	xor	edx, -2
	and	edx, esi
	sete	al
	cmp	ecx, 10
	setl	bl
	xor	bl, al
	mov	esi, 607679943
	mov	eax, 607679943
	jne	.LBB25_51

	mov	eax, -1870189038
.LBB25_51:                              
	test	edx, edx
	je	.LBB25_1
.LBB25_52:                              
	mov	esi, eax
	jmp	.LBB25_1
.LBB25_53:                              
	call	_ZN5Botan5CPUID10has_hw_aesEv
	test	al, al
	mov	eax, 2062614883
	mov	ecx, -799731756
	cmovne	eax, ecx
	jmp	.LBB25_2
.LBB25_54:
	add	rsp, 8
	pop	rbx
	pop	r12
	pop	r13
	pop	r14
	pop	r15
	pop	rbp
	ret
.Lfunc_end25:
	.size	_ZN5Botan7AES_19212key_scheduleEPKhm, .Lfunc_end25-_ZN5Botan7AES_19212key_scheduleEPKhm
	.cfi_endproc

	.globl	_ZN5Botan7AES_1925clearEv 
	.p2align	4, 0x90
	.type	_ZN5Botan7AES_1925clearEv,@function
_ZN5Botan7AES_1925clearEv:              
	.cfi_startproc

	push	rbx
.Lcfi177:
	.cfi_def_cfa_offset 16
.Lcfi178:
	.cfi_offset rbx, -16
	mov	rbx, rdi
	lea	rdi, [rbx + 8]
	call	_ZN5Botan3zapIjNS_16secure_allocatorIjEEEEvRSt6vectorIT_T0_E
	add	rbx, 32
	mov	rdi, rbx
	pop	rbx
	jmp	_ZN5Botan3zapIjNS_16secure_allocatorIjEEEEvRSt6vectorIT_T0_E 
.Lfunc_end26:
	.size	_ZN5Botan7AES_1925clearEv, .Lfunc_end26-_ZN5Botan7AES_1925clearEv
	.cfi_endproc

	.globl	_ZNK5Botan7AES_2569encrypt_nEPKhPhm 
	.p2align	4, 0x90
	.type	_ZNK5Botan7AES_2569encrypt_nEPKhPhm,@function
_ZNK5Botan7AES_2569encrypt_nEPKhPhm:    
	.cfi_startproc

	push	rbp
.Lcfi179:
	.cfi_def_cfa_offset 16
	push	r15
.Lcfi180:
	.cfi_def_cfa_offset 24
	push	r14
.Lcfi181:
	.cfi_def_cfa_offset 32
	push	r13
.Lcfi182:
	.cfi_def_cfa_offset 40
	push	r12
.Lcfi183:
	.cfi_def_cfa_offset 48
	push	rbx
.Lcfi184:
	.cfi_def_cfa_offset 56
	sub	rsp, 24
.Lcfi185:
	.cfi_def_cfa_offset 80
.Lcfi186:
	.cfi_offset rbx, -56
.Lcfi187:
	.cfi_offset r12, -48
.Lcfi188:
	.cfi_offset r13, -40
.Lcfi189:
	.cfi_offset r14, -32
.Lcfi190:
	.cfi_offset r15, -24
.Lcfi191:
	.cfi_offset rbp, -16
	mov	eax, dword ptr [rip + x.60]
	lea	ebp, [rax - 1]
	imul	ebp, eax
	not	ebp
	or	ebp, -2
	cmp	ebp, -1
	sete	byte ptr [rsp + 13]
	mov	eax, dword ptr [rip + y.61]
	cmp	eax, 10
	setl	byte ptr [rsp + 14]
	mov	r14, rcx
	mov	r15, rdx
	mov	r12, rsi
	mov	rbp, rdi
	lea	r13, [rbp + 8]
	mov	eax, 748775388
	jmp	.LBB27_1
.LBB27_6:                               
	mov	rdi, rbp
	mov	rsi, r12
	mov	rdx, r15
	mov	rcx, r14
	call	_ZNK5Botan7AES_25615vperm_encrypt_nEPKhPhm
	mov	eax, 1172209867
	.p2align	4, 0x90
.LBB27_1:                               
	cmp	eax, 904523337
	jle	.LBB27_2

	cmp	eax, 1753077830
	jg	.LBB27_25

	cmp	eax, 1172209866
	jg	.LBB27_22

	cmp	eax, 904523338
	je	.LBB27_53

	cmp	eax, 1013107367
	jne	.LBB27_1

	movzx	eax, byte ptr [rsp + 15]
	test	al, al
	mov	eax, 1753077831
	jne	.LBB27_1

	mov	eax, 1829051561
	jmp	.LBB27_1
	.p2align	4, 0x90
.LBB27_2:                               
	cmp	eax, -364740328
	jle	.LBB27_3

	cmp	eax, 512263846
	jg	.LBB27_11

	cmp	eax, -364740327
	je	.LBB27_54

	cmp	eax, -311475595
	jne	.LBB27_1

	mov	eax, 1901430130
	jmp	.LBB27_1
	.p2align	4, 0x90
.LBB27_25:                              
	cmp	eax, 1901430129
	jg	.LBB27_29

	cmp	eax, 1753077831
	je	.LBB27_36

	cmp	eax, 1829051561
	jne	.LBB27_1

	call	_ZN5Botan5CPUID9has_vpermEv
	test	al, al
	mov	eax, 904523338
	mov	ecx, 1932270499
	cmovne	eax, ecx
	jmp	.LBB27_1
	.p2align	4, 0x90
.LBB27_3:                               
	cmp	eax, -1887381407
	je	.LBB27_45

	cmp	eax, -1235125712
	je	.LBB27_32

	cmp	eax, -844090475
	jne	.LBB27_1
	jmp	.LBB27_6
.LBB27_22:                              
	cmp	eax, 1172209867
	je	.LBB27_50

	cmp	eax, 1410241972
	jne	.LBB27_1

	mov	rdi, r13
	call	_ZNKSt6vectorIjN5Botan16secure_allocatorIjEEE5emptyEv
	xor	al, 1
	movzx	esi, al
	mov	rdi, rbp
	call	_ZNK5Botan18SymmetricAlgorithm14verify_key_setEb
	call	_ZN5Botan5CPUID10has_hw_aesEv
	mov	eax, -1235125712
	jmp	.LBB27_1
.LBB27_11:                              
	cmp	eax, 512263847
	je	.LBB27_40

	cmp	eax, 748775388
	jne	.LBB27_1

	movzx	edx, byte ptr [rsp + 13]
	movzx	eax, byte ptr [rsp + 14]
	mov	ecx, edx
	xor	cl, al
	test	al, al
	mov	esi, -1235125712
	mov	eax, 1410241972
	mov	edi, -1235125712
	jne	.LBB27_15

	mov	edi, 1410241972
.LBB27_15:                              
	test	dl, dl
	cmovne	eax, edi
	test	cl, cl
	cmovne	eax, esi
	jmp	.LBB27_1
.LBB27_29:                              
	cmp	eax, 1932270499
	je	.LBB27_46

	cmp	eax, 1901430130
	jne	.LBB27_1
	jmp	.LBB27_31
.LBB27_53:                              
	mov	rcx, qword ptr [rsp + 16]
	mov	rdi, r12
	mov	rsi, r15
	mov	rdx, r14
	call	_ZN5Botan12_GLOBAL__N_113aes_encrypt_nEPKhPhmRKSt6vectorIjNS_16secure_allocatorIjEEE
	mov	eax, 1901430130
	jmp	.LBB27_1
.LBB27_54:                              
	mov	rdi, rbp
	mov	rsi, r12
	mov	rdx, r15
	mov	rcx, r14
	call	_ZNK5Botan7AES_25616hw_aes_encrypt_nEPKhPhm
	mov	eax, 512263847
	jmp	.LBB27_1
.LBB27_36:                              
	mov	eax, dword ptr [rip + x.60]
	mov	ecx, dword ptr [rip + y.61]
	lea	edx, [rax - 1]
	imul	edx, eax
	mov	eax, edx
	xor	eax, -2
	and	eax, edx
	sete	bl
	test	eax, eax
	mov	eax, 512263847
	mov	edx, -364740327
	mov	esi, 512263847
	je	.LBB27_38

	mov	esi, -364740327
.LBB27_38:                              
	cmp	ecx, 10
	setl	cl
	cmovl	edx, esi
	xor	cl, bl
	jne	.LBB27_1

	mov	eax, edx
	jmp	.LBB27_1
.LBB27_45:                              
	mov	eax, 1901430130
	jmp	.LBB27_1
.LBB27_32:                              
	mov	qword ptr [rsp + 16], r13
	mov	rdi, qword ptr [rsp + 16]
	call	_ZNKSt6vectorIjN5Botan16secure_allocatorIjEEE5emptyEv
	xor	al, 1
	movzx	esi, al
	mov	rdi, rbp
	call	_ZNK5Botan18SymmetricAlgorithm14verify_key_setEb
	call	_ZN5Botan5CPUID10has_hw_aesEv
	mov	byte ptr [rsp + 15], al
	mov	eax, dword ptr [rip + x.60]
	mov	ecx, dword ptr [rip + y.61]
	lea	edx, [rax - 1]
	imul	edx, eax
	not	edx
	or	edx, -2
	cmp	edx, -1
	sete	bl
	mov	eax, 1013107367
	mov	edx, 1410241972
	mov	esi, 1013107367
	je	.LBB27_34

	mov	esi, 1410241972
.LBB27_34:                              
	cmp	ecx, 10
	setl	cl
	cmovl	edx, esi
	xor	cl, bl
	jne	.LBB27_1

	mov	eax, edx
	jmp	.LBB27_1
.LBB27_50:                              
	mov	rdi, rbp
	mov	rsi, r12
	mov	rdx, r15
	mov	rcx, r14
	call	_ZNK5Botan7AES_25615vperm_encrypt_nEPKhPhm
	mov	eax, dword ptr [rip + x.60]
	mov	ecx, dword ptr [rip + y.61]
	lea	edx, [rax - 1]
	imul	edx, eax
	not	edx
	or	edx, -2
	cmp	edx, -1
	sete	al
	cmp	ecx, 10
	setl	bl
	xor	bl, al
	mov	eax, -311475595
	mov	esi, -311475595
	jne	.LBB27_52

	mov	esi, -844090475
.LBB27_52:                              
	cmp	edx, -1
	cmovne	eax, esi
	cmp	ecx, 10
	cmovge	eax, esi
	jmp	.LBB27_1
.LBB27_40:                              
	mov	rdi, rbp
	mov	rsi, r12
	mov	rdx, r15
	mov	rcx, r14
	call	_ZNK5Botan7AES_25616hw_aes_encrypt_nEPKhPhm
	mov	eax, dword ptr [rip + x.60]
	mov	ecx, dword ptr [rip + y.61]
	lea	esi, [rax - 1]
	imul	esi, eax
	mov	edx, esi
	xor	edx, -2
	and	edx, esi
	sete	al
	cmp	ecx, 10
	setl	bl
	xor	bl, al
	mov	esi, -1887381407
	mov	eax, -1887381407
	jne	.LBB27_42

	mov	eax, -364740327
.LBB27_42:                              
	test	edx, edx
	je	.LBB27_44

	mov	esi, eax
.LBB27_44:                              
	cmp	ecx, 10
	cmovl	eax, esi
	jmp	.LBB27_1
.LBB27_46:                              
	mov	eax, dword ptr [rip + x.60]
	mov	ecx, dword ptr [rip + y.61]
	lea	edx, [rax - 1]
	imul	edx, eax
	not	edx
	or	edx, -2
	cmp	edx, -1
	sete	bl
	mov	eax, 1172209867
	mov	edx, -844090475
	mov	esi, 1172209867
	je	.LBB27_48

	mov	esi, -844090475
.LBB27_48:                              
	cmp	ecx, 10
	setl	cl
	cmovl	edx, esi
	xor	cl, bl
	jne	.LBB27_1

	mov	eax, edx
	jmp	.LBB27_1
.LBB27_31:
	add	rsp, 24
	pop	rbx
	pop	r12
	pop	r13
	pop	r14
	pop	r15
	pop	rbp
	ret
.Lfunc_end27:
	.size	_ZNK5Botan7AES_2569encrypt_nEPKhPhm, .Lfunc_end27-_ZNK5Botan7AES_2569encrypt_nEPKhPhm
	.cfi_endproc

	.globl	_ZNK5Botan7AES_2569decrypt_nEPKhPhm 
	.p2align	4, 0x90
	.type	_ZNK5Botan7AES_2569decrypt_nEPKhPhm,@function
_ZNK5Botan7AES_2569decrypt_nEPKhPhm:    
	.cfi_startproc

	push	rbp
.Lcfi192:
	.cfi_def_cfa_offset 16
	push	r15
.Lcfi193:
	.cfi_def_cfa_offset 24
	push	r14
.Lcfi194:
	.cfi_def_cfa_offset 32
	push	r13
.Lcfi195:
	.cfi_def_cfa_offset 40
	push	r12
.Lcfi196:
	.cfi_def_cfa_offset 48
	push	rbx
.Lcfi197:
	.cfi_def_cfa_offset 56
	sub	rsp, 24
.Lcfi198:
	.cfi_def_cfa_offset 80
.Lcfi199:
	.cfi_offset rbx, -56
.Lcfi200:
	.cfi_offset r12, -48
.Lcfi201:
	.cfi_offset r13, -40
.Lcfi202:
	.cfi_offset r14, -32
.Lcfi203:
	.cfi_offset r15, -24
.Lcfi204:
	.cfi_offset rbp, -16
	mov	eax, dword ptr [rip + x.62]
	lea	ebp, [rax - 1]
	imul	ebp, eax
	mov	eax, ebp
	xor	eax, -2
	test	eax, ebp
	sete	byte ptr [rsp + 13]
	mov	eax, dword ptr [rip + y.63]
	cmp	eax, 10
	setl	byte ptr [rsp + 14]
	mov	r14, rcx
	mov	r15, rdx
	mov	r12, rsi
	mov	rbp, rdi
	lea	r13, [rbp + 32]
	mov	ecx, 1844335097
	jmp	.LBB28_1
.LBB28_40:                              
	mov	rdi, rbp
	mov	rsi, r12
	mov	rdx, r15
	mov	rcx, r14
	call	_ZNK5Botan7AES_25615vperm_decrypt_nEPKhPhm
	mov	ecx, 602720995
	.p2align	4, 0x90
.LBB28_1:                               
	cmp	ecx, 1291364952
	jg	.LBB28_15

	cmp	ecx, -58764116
	jg	.LBB28_11

	cmp	ecx, -1985690278
	je	.LBB28_40

	cmp	ecx, -1673028947
	je	.LBB28_33

	cmp	ecx, -836440798
	jne	.LBB28_1

	mov	ecx, dword ptr [rip + x.62]
	mov	eax, dword ptr [rip + y.63]
	lea	esi, [rcx - 1]
	imul	esi, ecx
	mov	edx, esi
	xor	edx, -2
	and	edx, esi
	sete	cl
	cmp	eax, 10
	setl	bl
	xor	bl, cl
	mov	esi, 602720995
	mov	ecx, 602720995
	jne	.LBB28_8

	mov	ecx, -1985690278
.LBB28_8:                               
	test	edx, edx
	je	.LBB28_10

	mov	esi, ecx
.LBB28_10:                              
	cmp	eax, 10
	cmovl	ecx, esi
	jmp	.LBB28_1
	.p2align	4, 0x90
.LBB28_15:                              
	cmp	ecx, 1811955302
	jle	.LBB28_16

	cmp	ecx, 1811955303
	je	.LBB28_34

	cmp	ecx, 2035571864
	je	.LBB28_38

	cmp	ecx, 1844335097
	jne	.LBB28_1

	movzx	eax, byte ptr [rsp + 13]
	movzx	edx, byte ptr [rsp + 14]
	mov	ecx, eax
	xor	cl, dl
	mov	ecx, -58764115
	mov	esi, -58764115
	jne	.LBB28_25

	mov	esi, 1291364953
.LBB28_25:                              
	test	dl, dl
	cmove	ecx, esi
	test	al, al
	cmove	ecx, esi
	jmp	.LBB28_1
	.p2align	4, 0x90
.LBB28_11:                              
	cmp	ecx, -58764115
	je	.LBB28_26

	cmp	ecx, 602720995
	je	.LBB28_35

	cmp	ecx, 800540380
	jne	.LBB28_1

	mov	rcx, qword ptr [rsp + 16]
	mov	rdi, r12
	mov	rsi, r15
	mov	rdx, r14
	call	_ZN5Botan12_GLOBAL__N_113aes_decrypt_nEPKhPhmRKSt6vectorIjNS_16secure_allocatorIjEEE
	mov	ecx, 1503013779
	jmp	.LBB28_1
	.p2align	4, 0x90
.LBB28_16:                              
	cmp	ecx, 1291364953
	je	.LBB28_39

	cmp	ecx, 1808465575
	je	.LBB28_31

	cmp	ecx, 1503013779
	jne	.LBB28_1
	jmp	.LBB28_19
.LBB28_33:                              
	mov	rdi, rbp
	mov	rsi, r12
	mov	rdx, r15
	mov	rcx, r14
	call	_ZNK5Botan7AES_25616hw_aes_decrypt_nEPKhPhm
	mov	ecx, 1503013779
	jmp	.LBB28_1
.LBB28_34:                              
	call	_ZN5Botan5CPUID9has_vpermEv
	test	al, al
	mov	ecx, 800540380
	mov	eax, -836440798
	cmovne	ecx, eax
	jmp	.LBB28_1
.LBB28_38:                              
	mov	ecx, 1503013779
	jmp	.LBB28_1
.LBB28_26:                              
	mov	qword ptr [rsp + 16], r13
	mov	rdi, qword ptr [rsp + 16]
	call	_ZNKSt6vectorIjN5Botan16secure_allocatorIjEEE5emptyEv
	xor	al, 1
	movzx	esi, al
	mov	rdi, rbp
	call	_ZNK5Botan18SymmetricAlgorithm14verify_key_setEb
	call	_ZN5Botan5CPUID10has_hw_aesEv
	mov	ecx, dword ptr [rip + x.62]
	mov	edx, dword ptr [rip + y.63]
	lea	edi, [rcx - 1]
	imul	edi, ecx
	mov	esi, edi
	xor	esi, -2
	and	esi, edi
	sete	cl
	cmp	edx, 10
	setl	bl
	xor	bl, cl
	mov	edi, 1808465575
	mov	ecx, 1808465575
	jne	.LBB28_28

	mov	ecx, 1291364953
.LBB28_28:                              
	test	esi, esi
	je	.LBB28_30

	mov	edi, ecx
.LBB28_30:                              
	cmp	edx, 10
	mov	byte ptr [rsp + 15], al
	cmovl	ecx, edi
	jmp	.LBB28_1
.LBB28_35:                              
	mov	rdi, rbp
	mov	rsi, r12
	mov	rdx, r15
	mov	rcx, r14
	call	_ZNK5Botan7AES_25615vperm_decrypt_nEPKhPhm
	mov	ecx, dword ptr [rip + x.62]
	mov	eax, dword ptr [rip + y.63]
	lea	edx, [rcx - 1]
	imul	edx, ecx
	not	edx
	or	edx, -2
	cmp	edx, -1
	sete	cl
	cmp	eax, 10
	setl	bl
	xor	bl, cl
	mov	ecx, 2035571864
	mov	esi, 2035571864
	jne	.LBB28_37

	mov	esi, -1985690278
.LBB28_37:                              
	cmp	edx, -1
	cmovne	ecx, esi
	cmp	eax, 10
	cmovge	ecx, esi
	jmp	.LBB28_1
.LBB28_39:                              
	mov	rdi, r13
	call	_ZNKSt6vectorIjN5Botan16secure_allocatorIjEEE5emptyEv
	xor	al, 1
	movzx	esi, al
	mov	rdi, rbp
	call	_ZNK5Botan18SymmetricAlgorithm14verify_key_setEb
	call	_ZN5Botan5CPUID10has_hw_aesEv
	mov	ecx, -58764115
	jmp	.LBB28_1
.LBB28_31:                              
	movzx	eax, byte ptr [rsp + 15]
	test	al, al
	mov	ecx, -1673028947
	jne	.LBB28_1

	mov	ecx, 1811955303
	jmp	.LBB28_1
.LBB28_19:
	add	rsp, 24
	pop	rbx
	pop	r12
	pop	r13
	pop	r14
	pop	r15
	pop	rbp
	ret
.Lfunc_end28:
	.size	_ZNK5Botan7AES_2569decrypt_nEPKhPhm, .Lfunc_end28-_ZNK5Botan7AES_2569decrypt_nEPKhPhm
	.cfi_endproc

	.globl	_ZN5Botan7AES_25612key_scheduleEPKhm 
	.p2align	4, 0x90
	.type	_ZN5Botan7AES_25612key_scheduleEPKhm,@function
_ZN5Botan7AES_25612key_scheduleEPKhm:   
	.cfi_startproc

	push	rbp
.Lcfi205:
	.cfi_def_cfa_offset 16
	push	r15
.Lcfi206:
	.cfi_def_cfa_offset 24
	push	r14
.Lcfi207:
	.cfi_def_cfa_offset 32
	push	r13
.Lcfi208:
	.cfi_def_cfa_offset 40
	push	r12
.Lcfi209:
	.cfi_def_cfa_offset 48
	push	rbx
.Lcfi210:
	.cfi_def_cfa_offset 56
	push	rax
.Lcfi211:
	.cfi_def_cfa_offset 64
.Lcfi212:
	.cfi_offset rbx, -56
.Lcfi213:
	.cfi_offset r12, -48
.Lcfi214:
	.cfi_offset r13, -40
.Lcfi215:
	.cfi_offset r14, -32
.Lcfi216:
	.cfi_offset r15, -24
.Lcfi217:
	.cfi_offset rbp, -16
	mov	r14, rdx
	mov	rbp, rsi
	mov	r15, rdi
	lea	r12, [r15 + 8]
	lea	r13, [r15 + 32]
	mov	eax, 938686246
	jmp	.LBB29_1
.LBB29_22:                              
	cmp	edx, -1
	cmovne	eax, esi
	cmp	ecx, 10
	cmovge	eax, esi
	.p2align	4, 0x90
.LBB29_1:                               
	cmp	eax, -3026705
	jg	.LBB29_23

	cmp	eax, -394632594
	jg	.LBB29_14

	cmp	eax, -1221555781
	jg	.LBB29_8

	cmp	eax, -1934154967
	je	.LBB29_54

	cmp	eax, -1339069884
	je	.LBB29_56

	cmp	eax, -1564917774
	jne	.LBB29_1
	jmp	.LBB29_7
	.p2align	4, 0x90
.LBB29_23:                              
	cmp	eax, 938686245
	jg	.LBB29_31

	cmp	eax, 83034779
	jg	.LBB29_28

	cmp	eax, -3026704
	je	.LBB29_57

	cmp	eax, 63306825
	jne	.LBB29_1

	mov	rdi, r15
	mov	rsi, rbp
	mov	rdx, r14
	call	_ZN5Botan7AES_25618vperm_key_scheduleEPKhm
	mov	eax, -1934154967
	jmp	.LBB29_1
	.p2align	4, 0x90
.LBB29_14:                              
	cmp	eax, -58493069
	jg	.LBB29_18

	cmp	eax, -394632593
	je	.LBB29_53

	cmp	eax, -189871942
	jne	.LBB29_1

	mov	eax, -1564917774
	jmp	.LBB29_1
	.p2align	4, 0x90
.LBB29_31:                              
	cmp	eax, 1335579621
	jg	.LBB29_38

	cmp	eax, 938686246
	je	.LBB29_44

	cmp	eax, 1248250457
	jne	.LBB29_1

	mov	eax, dword ptr [rip + x.64]
	mov	ecx, dword ptr [rip + y.65]
	lea	edx, [rax - 1]
	imul	edx, eax
	not	edx
	or	edx, -2
	cmp	edx, -1
	sete	bl
	mov	eax, -1934154967
	mov	edx, 63306825
	mov	esi, -1934154967
	je	.LBB29_36

	mov	esi, 63306825
.LBB29_36:                              
	cmp	ecx, 10
	setl	cl
	cmovl	edx, esi
	xor	cl, bl
	jne	.LBB29_1

	mov	eax, edx
	jmp	.LBB29_1
.LBB29_8:                               
	cmp	eax, -1221555780
	je	.LBB29_52

	cmp	eax, -962734349
	jne	.LBB29_1

	mov	eax, dword ptr [rip + x.64]
	mov	ecx, dword ptr [rip + y.65]
	mov	edx, eax
	neg	edx
	not	edx
	imul	edx, eax
	mov	eax, edx
	xor	eax, -2
	and	eax, edx
	sete	bl
	test	eax, eax
	mov	eax, 1653073455
	mov	edx, 221255541
	mov	esi, 1653073455
	je	.LBB29_12

	mov	esi, 221255541
.LBB29_12:                              
	cmp	ecx, 10
	setl	cl
	cmovl	edx, esi
	xor	cl, bl
	jne	.LBB29_1

	mov	eax, edx
	jmp	.LBB29_1
.LBB29_28:                              
	cmp	eax, 83034780
	je	.LBB29_46

	cmp	eax, 221255541
	jne	.LBB29_1

	xor	r8d, r8d
	mov	rdi, rbp
	mov	rsi, r14
	mov	rdx, r12
	mov	rcx, r13
	call	_ZN5Botan12_GLOBAL__N_116aes_key_scheduleEPKhmRSt6vectorIjNS_16secure_allocatorIjEEES7_b
	mov	eax, 1653073455
	jmp	.LBB29_1
.LBB29_18:                              
	cmp	eax, -58493068
	je	.LBB29_50

	cmp	eax, -48605383
	jne	.LBB29_1

	mov	eax, dword ptr [rip + x.64]
	mov	ecx, dword ptr [rip + y.65]
	lea	edx, [rax - 1]
	imul	edx, eax
	not	edx
	or	edx, -2
	cmp	edx, -1
	sete	al
	cmp	ecx, 10
	setl	bl
	xor	bl, al
	mov	eax, 83034780
	mov	esi, 83034780
	jne	.LBB29_22

	mov	esi, -3026704
	jmp	.LBB29_22
.LBB29_38:                              
	cmp	eax, 1335579622
	je	.LBB29_45

	cmp	eax, 1653073455
	jne	.LBB29_1

	xor	r8d, r8d
	mov	rdi, rbp
	mov	rsi, r14
	mov	rdx, r12
	mov	rcx, r13
	call	_ZN5Botan12_GLOBAL__N_116aes_key_scheduleEPKhmRSt6vectorIjNS_16secure_allocatorIjEEES7_b
	mov	eax, dword ptr [rip + x.64]
	mov	ecx, dword ptr [rip + y.65]
	lea	edx, [rax - 1]
	imul	edx, eax
	not	edx
	or	edx, -2
	cmp	edx, -1
	sete	bl
	mov	eax, -1339069884
	mov	edx, 221255541
	mov	esi, -1339069884
	je	.LBB29_42

	mov	esi, 221255541
.LBB29_42:                              
	cmp	ecx, 10
	setl	cl
	cmovl	edx, esi
	xor	cl, bl
	jne	.LBB29_1

	mov	eax, edx
	jmp	.LBB29_1
.LBB29_54:                              
	mov	rdi, r15
	mov	rsi, rbp
	mov	rdx, r14
	call	_ZN5Botan7AES_25618vperm_key_scheduleEPKhm
	mov	eax, dword ptr [rip + x.64]
	mov	ecx, dword ptr [rip + y.65]
	lea	edx, [rax - 1]
	imul	edx, eax
	not	edx
	or	edx, -2
	cmp	edx, -1
	sete	al
	cmp	ecx, 10
	setl	bl
	xor	bl, al
	mov	eax, -189871942
	mov	esi, -189871942
	jne	.LBB29_22

	mov	esi, 63306825
	jmp	.LBB29_22
.LBB29_56:                              
	mov	eax, -1564917774
	jmp	.LBB29_1
.LBB29_57:                              
	call	_ZN5Botan5CPUID10has_hw_aesEv
	mov	eax, 83034780
	jmp	.LBB29_1
.LBB29_53:                              
	call	_ZN5Botan5CPUID9has_vpermEv
	test	al, al
	mov	eax, -962734349
	mov	ecx, 1248250457
	cmovne	eax, ecx
	jmp	.LBB29_1
.LBB29_44:                              
	call	_ZN5Botan5CPUID10has_aes_niEv
	test	al, al
	mov	eax, -48605383
	mov	ecx, 1335579622
	cmovne	eax, ecx
	jmp	.LBB29_1
.LBB29_52:                              
	call	_ZN5Botan5CPUID16is_little_endianEv
	movzx	r8d, al
	mov	rdi, rbp
	mov	rsi, r14
	mov	rdx, r12
	mov	rcx, r13
	call	_ZN5Botan12_GLOBAL__N_116aes_key_scheduleEPKhmRSt6vectorIjNS_16secure_allocatorIjEEES7_b
	mov	eax, -1564917774
	jmp	.LBB29_1
.LBB29_46:                              
	call	_ZN5Botan5CPUID10has_hw_aesEv
	mov	byte ptr [rsp + 7], al
	mov	eax, dword ptr [rip + x.64]
	mov	ecx, dword ptr [rip + y.65]
	mov	edx, eax
	neg	edx
	not	edx
	imul	edx, eax
	mov	eax, edx
	xor	eax, -2
	and	eax, edx
	sete	bl
	test	eax, eax
	mov	eax, -58493068
	mov	edx, -3026704
	mov	esi, -58493068
	je	.LBB29_48

	mov	esi, -3026704
.LBB29_48:                              
	cmp	ecx, 10
	setl	cl
	cmovl	edx, esi
	xor	cl, bl
	jne	.LBB29_1

	mov	eax, edx
	jmp	.LBB29_1
.LBB29_50:                              
	movzx	eax, byte ptr [rsp + 7]
	test	al, al
	mov	eax, -1221555780
	jne	.LBB29_1

	mov	eax, -394632593
	jmp	.LBB29_1
.LBB29_45:                              
	mov	rdi, r15
	mov	rsi, rbp
	mov	rdx, r14
	call	_ZN5Botan7AES_25618aesni_key_scheduleEPKhm
	mov	eax, -1564917774
	jmp	.LBB29_1
.LBB29_7:
	add	rsp, 8
	pop	rbx
	pop	r12
	pop	r13
	pop	r14
	pop	r15
	pop	rbp
	ret
.Lfunc_end29:
	.size	_ZN5Botan7AES_25612key_scheduleEPKhm, .Lfunc_end29-_ZN5Botan7AES_25612key_scheduleEPKhm
	.cfi_endproc

	.globl	_ZN5Botan7AES_2565clearEv 
	.p2align	4, 0x90
	.type	_ZN5Botan7AES_2565clearEv,@function
_ZN5Botan7AES_2565clearEv:              
	.cfi_startproc

	push	rbp
.Lcfi218:
	.cfi_def_cfa_offset 16
	push	r15
.Lcfi219:
	.cfi_def_cfa_offset 24
	push	r14
.Lcfi220:
	.cfi_def_cfa_offset 32
	push	r12
.Lcfi221:
	.cfi_def_cfa_offset 40
	push	rbx
.Lcfi222:
	.cfi_def_cfa_offset 48
	sub	rsp, 16
.Lcfi223:
	.cfi_def_cfa_offset 64
.Lcfi224:
	.cfi_offset rbx, -48
.Lcfi225:
	.cfi_offset r12, -40
.Lcfi226:
	.cfi_offset r14, -32
.Lcfi227:
	.cfi_offset r15, -24
.Lcfi228:
	.cfi_offset rbp, -16
	mov	rbp, rdi
	mov	eax, dword ptr [rip + x.66]
	mov	ecx, dword ptr [rip + y.67]
	lea	edx, [rax - 1]
	imul	edx, eax
	not	edx
	or	edx, -2
	cmp	edx, -1
	sete	byte ptr [rsp + 14]
	cmp	ecx, 10
	setl	byte ptr [rsp + 15]
	lea	r14, [rbp + 8]
	add	rbp, 32
	mov	eax, 458157514
	mov	r15d, 1572469705
	mov	r12d, -495645835
	jmp	.LBB30_1
.LBB30_4:                               
	movzx	ecx, byte ptr [rsp + 14]
	movzx	eax, byte ptr [rsp + 15]
	mov	edx, ecx
	xor	dl, al
	mov	edx, 652719328
	cmovne	edx, r15d
	test	al, al
	mov	eax, edx
	cmovne	eax, r15d
	test	cl, cl
	cmove	eax, edx
	.p2align	4, 0x90
.LBB30_1:                               
	cmp	eax, 652719327
	jg	.LBB30_5

	cmp	eax, -495645835
	je	.LBB30_8

	cmp	eax, 458157514
	jne	.LBB30_1
	jmp	.LBB30_4
	.p2align	4, 0x90
.LBB30_5:                               
	cmp	eax, 652719328
	je	.LBB30_9

	cmp	eax, 1572469705
	jne	.LBB30_1

	mov	rdi, r14
	call	_ZN5Botan3zapIjNS_16secure_allocatorIjEEEEvRSt6vectorIT_T0_E
	mov	rdi, rbp
	call	_ZN5Botan3zapIjNS_16secure_allocatorIjEEEEvRSt6vectorIT_T0_E
	mov	eax, dword ptr [rip + x.66]
	mov	ecx, dword ptr [rip + y.67]
	lea	edx, [rax - 1]
	imul	edx, eax
	mov	eax, edx
	xor	eax, -2
	and	eax, edx
	sete	dl
	cmp	ecx, 10
	setl	bl
	xor	bl, dl
	mov	edx, 652719328
	cmovne	edx, r12d
	test	eax, eax
	mov	eax, edx
	cmove	eax, r12d
	cmp	ecx, 10
	cmovge	eax, edx
	jmp	.LBB30_1
.LBB30_9:                               
	mov	rdi, r14
	call	_ZN5Botan3zapIjNS_16secure_allocatorIjEEEEvRSt6vectorIT_T0_E
	mov	rdi, rbp
	call	_ZN5Botan3zapIjNS_16secure_allocatorIjEEEEvRSt6vectorIT_T0_E
	mov	eax, 1572469705
	jmp	.LBB30_1
.LBB30_8:
	add	rsp, 16
	pop	rbx
	pop	r12
	pop	r14
	pop	r15
	pop	rbp
	ret
.Lfunc_end30:
	.size	_ZN5Botan7AES_2565clearEv, .Lfunc_end30-_ZN5Botan7AES_2565clearEv
	.cfi_endproc

	.section	.text._ZN5Botan7AES_128D2Ev,"axG",@progbits,_ZN5Botan7AES_128D2Ev,comdat
	.weak	_ZN5Botan7AES_128D2Ev   
	.p2align	4, 0x90
	.type	_ZN5Botan7AES_128D2Ev,@function
_ZN5Botan7AES_128D2Ev:                  

	push	rbx
	mov	rbx, rdi
	mov	qword ptr [rbx], _ZTVN5Botan7AES_128E+16
	lea	rdi, [rbx + 32]
	call	_ZNSt6vectorIjN5Botan16secure_allocatorIjEEED2Ev
	lea	rdi, [rbx + 8]
	call	_ZNSt6vectorIjN5Botan16secure_allocatorIjEEED2Ev
	mov	rdi, rbx
	pop	rbx
	jmp	_ZN5Botan18SymmetricAlgorithmD2Ev 
.Lfunc_end31:
	.size	_ZN5Botan7AES_128D2Ev, .Lfunc_end31-_ZN5Botan7AES_128D2Ev

	.section	.text._ZN5Botan7AES_128D0Ev,"axG",@progbits,_ZN5Botan7AES_128D0Ev,comdat
	.weak	_ZN5Botan7AES_128D0Ev   
	.p2align	4, 0x90
	.type	_ZN5Botan7AES_128D0Ev,@function
_ZN5Botan7AES_128D0Ev:                  

	push	rbx
	mov	rbx, rdi
	call	_ZN5Botan7AES_128D2Ev
	mov	rdi, rbx
	pop	rbx
	jmp	_ZdlPv                  
.Lfunc_end32:
	.size	_ZN5Botan7AES_128D0Ev, .Lfunc_end32-_ZN5Botan7AES_128D0Ev

	.section	.text._ZNK5Botan25Block_Cipher_Fixed_ParamsILm16ELm16ELm0ELm1ENS_11BlockCipherEE8key_specEv,"axG",@progbits,_ZNK5Botan25Block_Cipher_Fixed_ParamsILm16ELm16ELm0ELm1ENS_11BlockCipherEE8key_specEv,comdat
	.weak	_ZNK5Botan25Block_Cipher_Fixed_ParamsILm16ELm16ELm0ELm1ENS_11BlockCipherEE8key_specEv 
	.p2align	4, 0x90
	.type	_ZNK5Botan25Block_Cipher_Fixed_ParamsILm16ELm16ELm0ELm1ENS_11BlockCipherEE8key_specEv,@function
_ZNK5Botan25Block_Cipher_Fixed_ParamsILm16ELm16ELm0ELm1ENS_11BlockCipherEE8key_specEv: 
	.cfi_startproc

	push	rbx
.Lcfi229:
	.cfi_def_cfa_offset 16
.Lcfi230:
	.cfi_offset rbx, -16
	mov	rbx, rdi
	mov	esi, 16
	xor	edx, edx
	mov	ecx, 1
	call	_ZN5Botan24Key_Length_SpecificationC2Emmm
	mov	rax, rbx
	pop	rbx
	ret
.Lfunc_end33:
	.size	_ZNK5Botan25Block_Cipher_Fixed_ParamsILm16ELm16ELm0ELm1ENS_11BlockCipherEE8key_specEv, .Lfunc_end33-_ZNK5Botan25Block_Cipher_Fixed_ParamsILm16ELm16ELm0ELm1ENS_11BlockCipherEE8key_specEv
	.cfi_endproc

	.section	.text._ZNK5Botan7AES_1284nameB5cxx11Ev,"axG",@progbits,_ZNK5Botan7AES_1284nameB5cxx11Ev,comdat
	.weak	_ZNK5Botan7AES_1284nameB5cxx11Ev 
	.p2align	4, 0x90
	.type	_ZNK5Botan7AES_1284nameB5cxx11Ev,@function
_ZNK5Botan7AES_1284nameB5cxx11Ev:       
.Lfunc_begin4:
	.cfi_startproc
	.cfi_personality 3, __gxx_personality_v0
	.cfi_lsda 3, .Lexception4

	push	r14
.Lcfi231:
	.cfi_def_cfa_offset 16
	push	rbx
.Lcfi232:
	.cfi_def_cfa_offset 24
	push	rax
.Lcfi233:
	.cfi_def_cfa_offset 32
.Lcfi234:
	.cfi_offset rbx, -24
.Lcfi235:
	.cfi_offset r14, -16
	mov	rbx, rdi
	mov	r14, rsp
	mov	rdi, r14
	call	_ZNSaIcEC2Ev
.Ltmp14:
	mov	esi, .L.str.11
	mov	rdi, rbx
	mov	rdx, r14
	call	_ZNSt7__cxx1112basic_stringIcSt11char_traitsIcESaIcEEC2EPKcRKS3_
.Ltmp15:

	mov	rdi, rsp
	call	_ZNSaIcED2Ev
	mov	rax, rbx
	add	rsp, 8
	pop	rbx
	pop	r14
	ret
.LBB34_2:
.Ltmp16:
	mov	rbx, rax
	mov	rdi, rsp
	call	_ZNSaIcED2Ev
	mov	rdi, rbx
	call	_Unwind_Resume
.Lfunc_end34:
	.size	_ZNK5Botan7AES_1284nameB5cxx11Ev, .Lfunc_end34-_ZNK5Botan7AES_1284nameB5cxx11Ev
	.cfi_endproc
	.section	.gcc_except_table,"a",@progbits
	.p2align	2
GCC_except_table34:
.Lexception4:
	.byte	255                     
	.byte	3                       
	.asciz	"\234"                  
	.byte	3                       
	.byte	26                      
	.long	.Ltmp14-.Lfunc_begin4   
	.long	.Ltmp15-.Ltmp14         
	.long	.Ltmp16-.Lfunc_begin4   
	.byte	0                       
	.long	.Ltmp15-.Lfunc_begin4   
	.long	.Lfunc_end34-.Ltmp15    
	.long	0                       
	.byte	0                       
	.p2align	2

	.section	.text._ZNK5Botan25Block_Cipher_Fixed_ParamsILm16ELm16ELm0ELm1ENS_11BlockCipherEE10block_sizeEv,"axG",@progbits,_ZNK5Botan25Block_Cipher_Fixed_ParamsILm16ELm16ELm0ELm1ENS_11BlockCipherEE10block_sizeEv,comdat
	.weak	_ZNK5Botan25Block_Cipher_Fixed_ParamsILm16ELm16ELm0ELm1ENS_11BlockCipherEE10block_sizeEv 
	.p2align	4, 0x90
	.type	_ZNK5Botan25Block_Cipher_Fixed_ParamsILm16ELm16ELm0ELm1ENS_11BlockCipherEE10block_sizeEv,@function
_ZNK5Botan25Block_Cipher_Fixed_ParamsILm16ELm16ELm0ELm1ENS_11BlockCipherEE10block_sizeEv: 

	mov	eax, 16
	ret
.Lfunc_end35:
	.size	_ZNK5Botan25Block_Cipher_Fixed_ParamsILm16ELm16ELm0ELm1ENS_11BlockCipherEE10block_sizeEv, .Lfunc_end35-_ZNK5Botan25Block_Cipher_Fixed_ParamsILm16ELm16ELm0ELm1ENS_11BlockCipherEE10block_sizeEv

	.section	.text._ZNK5Botan25Block_Cipher_Fixed_ParamsILm16ELm16ELm0ELm1ENS_11BlockCipherEE13encrypt_n_xexEPhPKhm,"axG",@progbits,_ZNK5Botan25Block_Cipher_Fixed_ParamsILm16ELm16ELm0ELm1ENS_11BlockCipherEE13encrypt_n_xexEPhPKhm,comdat
	.weak	_ZNK5Botan25Block_Cipher_Fixed_ParamsILm16ELm16ELm0ELm1ENS_11BlockCipherEE13encrypt_n_xexEPhPKhm 
	.p2align	4, 0x90
	.type	_ZNK5Botan25Block_Cipher_Fixed_ParamsILm16ELm16ELm0ELm1ENS_11BlockCipherEE13encrypt_n_xexEPhPKhm,@function
_ZNK5Botan25Block_Cipher_Fixed_ParamsILm16ELm16ELm0ELm1ENS_11BlockCipherEE13encrypt_n_xexEPhPKhm: 
	.cfi_startproc

	push	r15
.Lcfi236:
	.cfi_def_cfa_offset 16
	push	r14
.Lcfi237:
	.cfi_def_cfa_offset 24
	push	r13
.Lcfi238:
	.cfi_def_cfa_offset 32
	push	r12
.Lcfi239:
	.cfi_def_cfa_offset 40
	push	rbx
.Lcfi240:
	.cfi_def_cfa_offset 48
.Lcfi241:
	.cfi_offset rbx, -48
.Lcfi242:
	.cfi_offset r12, -40
.Lcfi243:
	.cfi_offset r13, -32
.Lcfi244:
	.cfi_offset r14, -24
.Lcfi245:
	.cfi_offset r15, -16
	mov	r15, rcx
	mov	r14, rdx
	mov	rbx, rsi
	mov	r12, rdi
	mov	r13, r15
	shl	r13, 4
	mov	rdi, rbx
	mov	rsi, r14
	mov	rdx, r13
	call	_ZN5Botan7xor_bufEPhPKhm
	mov	rax, qword ptr [r12]
	mov	rdi, r12
	mov	rsi, rbx
	mov	rdx, rbx
	mov	rcx, r15
	call	qword ptr [rax + 72]
	mov	rdi, rbx
	mov	rsi, r14
	mov	rdx, r13
	pop	rbx
	pop	r12
	pop	r13
	pop	r14
	pop	r15
	jmp	_ZN5Botan7xor_bufEPhPKhm 
.Lfunc_end36:
	.size	_ZNK5Botan25Block_Cipher_Fixed_ParamsILm16ELm16ELm0ELm1ENS_11BlockCipherEE13encrypt_n_xexEPhPKhm, .Lfunc_end36-_ZNK5Botan25Block_Cipher_Fixed_ParamsILm16ELm16ELm0ELm1ENS_11BlockCipherEE13encrypt_n_xexEPhPKhm
	.cfi_endproc

	.section	.text._ZNK5Botan25Block_Cipher_Fixed_ParamsILm16ELm16ELm0ELm1ENS_11BlockCipherEE13decrypt_n_xexEPhPKhm,"axG",@progbits,_ZNK5Botan25Block_Cipher_Fixed_ParamsILm16ELm16ELm0ELm1ENS_11BlockCipherEE13decrypt_n_xexEPhPKhm,comdat
	.weak	_ZNK5Botan25Block_Cipher_Fixed_ParamsILm16ELm16ELm0ELm1ENS_11BlockCipherEE13decrypt_n_xexEPhPKhm 
	.p2align	4, 0x90
	.type	_ZNK5Botan25Block_Cipher_Fixed_ParamsILm16ELm16ELm0ELm1ENS_11BlockCipherEE13decrypt_n_xexEPhPKhm,@function
_ZNK5Botan25Block_Cipher_Fixed_ParamsILm16ELm16ELm0ELm1ENS_11BlockCipherEE13decrypt_n_xexEPhPKhm: 
	.cfi_startproc

	push	rbp
.Lcfi246:
	.cfi_def_cfa_offset 16
	push	r15
.Lcfi247:
	.cfi_def_cfa_offset 24
	push	r14
.Lcfi248:
	.cfi_def_cfa_offset 32
	push	r13
.Lcfi249:
	.cfi_def_cfa_offset 40
	push	r12
.Lcfi250:
	.cfi_def_cfa_offset 48
	push	rbx
.Lcfi251:
	.cfi_def_cfa_offset 56
	push	rax
.Lcfi252:
	.cfi_def_cfa_offset 64
.Lcfi253:
	.cfi_offset rbx, -56
.Lcfi254:
	.cfi_offset r12, -48
.Lcfi255:
	.cfi_offset r13, -40
.Lcfi256:
	.cfi_offset r14, -32
.Lcfi257:
	.cfi_offset r15, -24
.Lcfi258:
	.cfi_offset rbp, -16
	mov	r14, rcx
	mov	r15, rdx
	mov	rbx, rsi
	mov	r12, rdi
	mov	eax, dword ptr [rip + x.78]
	mov	ecx, dword ptr [rip + y.79]
	mov	edx, eax
	neg	edx
	not	edx
	imul	edx, eax
	not	edx
	or	edx, -2
	cmp	edx, -1
	sete	byte ptr [rsp + 6]
	cmp	ecx, 10
	setl	byte ptr [rsp + 7]
	mov	r13, r14
	shl	r13, 4
	mov	eax, 764854152
	mov	ebp, -1454854093
	jmp	.LBB37_1
.LBB37_7:                               
	movzx	ecx, byte ptr [rsp + 6]
	movzx	eax, byte ptr [rsp + 7]
	mov	edx, ecx
	xor	dl, al
	mov	edx, 1029841720
	cmovne	edx, ebp
	test	al, al
	mov	eax, edx
	cmovne	eax, ebp
	test	cl, cl
	cmove	eax, edx
	.p2align	4, 0x90
.LBB37_1:                               
	cmp	eax, 764854151
	jg	.LBB37_5

	cmp	eax, -1454854093
	je	.LBB37_8

	cmp	eax, 314390806
	jne	.LBB37_1
	jmp	.LBB37_4
	.p2align	4, 0x90
.LBB37_5:                               
	cmp	eax, 1029841720
	je	.LBB37_9

	cmp	eax, 764854152
	jne	.LBB37_1
	jmp	.LBB37_7
.LBB37_8:                               
	mov	rdi, rbx
	mov	rsi, r15
	mov	rdx, r13
	call	_ZN5Botan7xor_bufEPhPKhm
	mov	rax, qword ptr [r12]
	mov	rdi, r12
	mov	rsi, rbx
	mov	rdx, rbx
	mov	rcx, r14
	call	qword ptr [rax + 80]
	mov	rdi, rbx
	mov	rsi, r15
	mov	rdx, r13
	call	_ZN5Botan7xor_bufEPhPKhm
	mov	eax, dword ptr [rip + x.78]
	lea	ecx, [rax - 1]
	imul	ecx, eax
	mov	eax, ecx
	xor	eax, -2
	and	eax, ecx
	sete	cl
	test	eax, eax
	mov	eax, 1029841720
	mov	esi, 314390806
	cmove	eax, esi
	cmp	dword ptr [rip + y.79], 10
	setl	dl
	mov	edi, 1029841720
	cmovge	eax, edi
	xor	dl, cl
	cmovne	eax, esi
	jmp	.LBB37_1
.LBB37_9:                               
	mov	rdi, rbx
	mov	rsi, r15
	mov	rdx, r13
	call	_ZN5Botan7xor_bufEPhPKhm
	mov	rax, qword ptr [r12]
	mov	rdi, r12
	mov	rsi, rbx
	mov	rdx, rbx
	mov	rcx, r14
	call	qword ptr [rax + 80]
	mov	rdi, rbx
	mov	rsi, r15
	mov	rdx, r13
	call	_ZN5Botan7xor_bufEPhPKhm
	mov	eax, -1454854093
	jmp	.LBB37_1
.LBB37_4:
	add	rsp, 8
	pop	rbx
	pop	r12
	pop	r13
	pop	r14
	pop	r15
	pop	rbp
	ret
.Lfunc_end37:
	.size	_ZNK5Botan25Block_Cipher_Fixed_ParamsILm16ELm16ELm0ELm1ENS_11BlockCipherEE13decrypt_n_xexEPhPKhm, .Lfunc_end37-_ZNK5Botan25Block_Cipher_Fixed_ParamsILm16ELm16ELm0ELm1ENS_11BlockCipherEE13decrypt_n_xexEPhPKhm
	.cfi_endproc

	.section	.text._ZNK5Botan7AES_12810new_objectEv,"axG",@progbits,_ZNK5Botan7AES_12810new_objectEv,comdat
	.weak	_ZNK5Botan7AES_12810new_objectEv 
	.p2align	4, 0x90
	.type	_ZNK5Botan7AES_12810new_objectEv,@function
_ZNK5Botan7AES_12810new_objectEv:       
	.cfi_startproc

	push	rbp
.Lcfi259:
	.cfi_def_cfa_offset 16
.Lcfi260:
	.cfi_offset rbp, -16
	mov	rbp, rsp
.Lcfi261:
	.cfi_def_cfa_register rbp
	push	r15
	push	r14
	push	r13
	push	r12
	push	rbx
	push	rax
.Lcfi262:
	.cfi_offset rbx, -56
.Lcfi263:
	.cfi_offset r12, -48
.Lcfi264:
	.cfi_offset r13, -40
.Lcfi265:
	.cfi_offset r14, -32
.Lcfi266:
	.cfi_offset r15, -24
	mov	r14, rdi
	mov	eax, dword ptr [rip + x.80]
	lea	ecx, [rax - 1]
	imul	ecx, eax
	mov	eax, ecx
	xor	eax, -2
	test	eax, ecx
	sete	byte ptr [rbp - 41]
	mov	eax, dword ptr [rip + y.81]
	cmp	eax, 10
	setl	byte ptr [rbp - 42]
	mov	eax, -1555714064
	mov	r15d, -538255784
	mov	r12d, 736574142
	mov	r13d, -1308741450
	jmp	.LBB38_1
.LBB38_8:                               
	movzx	ecx, byte ptr [rbp - 41]
	movzx	eax, byte ptr [rbp - 42]
	mov	edx, ecx
	xor	dl, al
	mov	edx, 736574142
	cmovne	edx, r15d
	test	al, al
	mov	eax, edx
	cmovne	eax, r15d
	test	cl, cl
	cmove	eax, edx
	.p2align	4, 0x90
.LBB38_1:                               
	cmp	eax, -538255785
	jg	.LBB38_5

	cmp	eax, -1555714064
	je	.LBB38_8

	cmp	eax, -1308741450
	jne	.LBB38_1
	jmp	.LBB38_4
	.p2align	4, 0x90
.LBB38_5:                               
	cmp	eax, -538255784
	je	.LBB38_9

	cmp	eax, 736574142
	jne	.LBB38_1

	mov	rbx, rsp
	add	rbx, -16
	mov	rsp, rbx
	mov	rdi, rbx
	call	_ZSt11make_uniqueIN5Botan7AES_128EJEENSt9_MakeUniqIT_E15__single_objectEDpOT0_
	mov	rdi, r14
	mov	rsi, rbx
	call	_ZNSt10unique_ptrIN5Botan11BlockCipherESt14default_deleteIS1_EEC2INS0_7AES_128ES2_IS6_EvEEOS_IT_T0_E
	mov	rdi, rbx
	call	_ZNSt10unique_ptrIN5Botan7AES_128ESt14default_deleteIS1_EED2Ev
	mov	eax, -538255784
	jmp	.LBB38_1
.LBB38_9:                               
	mov	rbx, rsp
	add	rbx, -16
	mov	rsp, rbx
	mov	rdi, rbx
	call	_ZSt11make_uniqueIN5Botan7AES_128EJEENSt9_MakeUniqIT_E15__single_objectEDpOT0_
	mov	rdi, r14
	mov	rsi, rbx
	call	_ZNSt10unique_ptrIN5Botan11BlockCipherESt14default_deleteIS1_EEC2INS0_7AES_128ES2_IS6_EvEEOS_IT_T0_E
	mov	rdi, rbx
	call	_ZNSt10unique_ptrIN5Botan7AES_128ESt14default_deleteIS1_EED2Ev
	mov	eax, dword ptr [rip + x.80]
	mov	ecx, eax
	neg	ecx
	not	ecx
	imul	ecx, eax
	mov	eax, ecx
	xor	eax, -2
	and	eax, ecx
	sete	cl
	test	eax, eax
	mov	eax, 736574142
	cmove	eax, r13d
	cmp	dword ptr [rip + y.81], 10
	setl	dl
	cmovge	eax, r12d
	xor	dl, cl
	cmovne	eax, r13d
	jmp	.LBB38_1
.LBB38_4:
	mov	rax, r14
	lea	rsp, [rbp - 40]
	pop	rbx
	pop	r12
	pop	r13
	pop	r14
	pop	r15
	pop	rbp
	ret
.Lfunc_end38:
	.size	_ZNK5Botan7AES_12810new_objectEv, .Lfunc_end38-_ZNK5Botan7AES_12810new_objectEv
	.cfi_endproc

	.section	.text._ZN5Botan7AES_192D2Ev,"axG",@progbits,_ZN5Botan7AES_192D2Ev,comdat
	.weak	_ZN5Botan7AES_192D2Ev   
	.p2align	4, 0x90
	.type	_ZN5Botan7AES_192D2Ev,@function
_ZN5Botan7AES_192D2Ev:                  

	push	rbx
	mov	rbx, rdi
	mov	qword ptr [rbx], _ZTVN5Botan7AES_192E+16
	lea	rdi, [rbx + 32]
	call	_ZNSt6vectorIjN5Botan16secure_allocatorIjEEED2Ev
	lea	rdi, [rbx + 8]
	call	_ZNSt6vectorIjN5Botan16secure_allocatorIjEEED2Ev
	mov	rdi, rbx
	pop	rbx
	jmp	_ZN5Botan18SymmetricAlgorithmD2Ev 
.Lfunc_end39:
	.size	_ZN5Botan7AES_192D2Ev, .Lfunc_end39-_ZN5Botan7AES_192D2Ev

	.section	.text._ZN5Botan7AES_192D0Ev,"axG",@progbits,_ZN5Botan7AES_192D0Ev,comdat
	.weak	_ZN5Botan7AES_192D0Ev   
	.p2align	4, 0x90
	.type	_ZN5Botan7AES_192D0Ev,@function
_ZN5Botan7AES_192D0Ev:                  

	push	rbp
	push	r15
	push	r14
	push	rbx
	push	rax
	mov	rbx, rdi
	mov	eax, dword ptr [rip + x.84]
	lea	ecx, [rax - 1]
	imul	ecx, eax
	not	ecx
	or	ecx, -2
	cmp	ecx, -1
	sete	byte ptr [rsp + 6]
	mov	eax, dword ptr [rip + y.85]
	cmp	eax, 10
	setl	byte ptr [rsp + 7]
	mov	eax, 353471732
	mov	r15d, 989361939
	mov	r14d, -685130030
	mov	ebp, -499711843
	jmp	.LBB40_1
.LBB40_7:                               
	movzx	ecx, byte ptr [rsp + 6]
	movzx	eax, byte ptr [rsp + 7]
	mov	edx, ecx
	xor	dl, al
	mov	edx, -685130030
	cmovne	edx, ebp
	test	al, al
	mov	eax, edx
	cmovne	eax, ebp
	test	cl, cl
	cmove	eax, edx
	.p2align	4, 0x90
.LBB40_1:                               
	cmp	eax, 353471731
	jg	.LBB40_5

	cmp	eax, -685130030
	je	.LBB40_9

	cmp	eax, -499711843
	jne	.LBB40_1

	mov	rdi, rbx
	call	_ZN5Botan7AES_192D2Ev
	mov	rdi, rbx
	call	_ZdlPv
	mov	eax, dword ptr [rip + x.84]
	lea	ecx, [rax - 1]
	imul	ecx, eax
	not	ecx
	or	ecx, -2
	cmp	ecx, -1
	sete	cl
	mov	eax, -685130030
	cmove	eax, r15d
	cmp	dword ptr [rip + y.85], 10
	setl	dl
	cmovge	eax, r14d
	xor	dl, cl
	cmovne	eax, r15d
	jmp	.LBB40_1
	.p2align	4, 0x90
.LBB40_5:                               
	cmp	eax, 989361939
	je	.LBB40_8

	cmp	eax, 353471732
	jne	.LBB40_1
	jmp	.LBB40_7
.LBB40_9:                               
	mov	rdi, rbx
	call	_ZN5Botan7AES_192D2Ev
	mov	rdi, rbx
	call	_ZdlPv
	mov	eax, -499711843
	jmp	.LBB40_1
.LBB40_8:
	add	rsp, 8
	pop	rbx
	pop	r14
	pop	r15
	pop	rbp
	ret
.Lfunc_end40:
	.size	_ZN5Botan7AES_192D0Ev, .Lfunc_end40-_ZN5Botan7AES_192D0Ev

	.section	.text._ZNK5Botan25Block_Cipher_Fixed_ParamsILm16ELm24ELm0ELm1ENS_11BlockCipherEE8key_specEv,"axG",@progbits,_ZNK5Botan25Block_Cipher_Fixed_ParamsILm16ELm24ELm0ELm1ENS_11BlockCipherEE8key_specEv,comdat
	.weak	_ZNK5Botan25Block_Cipher_Fixed_ParamsILm16ELm24ELm0ELm1ENS_11BlockCipherEE8key_specEv 
	.p2align	4, 0x90
	.type	_ZNK5Botan25Block_Cipher_Fixed_ParamsILm16ELm24ELm0ELm1ENS_11BlockCipherEE8key_specEv,@function
_ZNK5Botan25Block_Cipher_Fixed_ParamsILm16ELm24ELm0ELm1ENS_11BlockCipherEE8key_specEv: 
	.cfi_startproc

	push	rbx
.Lcfi267:
	.cfi_def_cfa_offset 16
.Lcfi268:
	.cfi_offset rbx, -16
	mov	rbx, rdi
	mov	esi, 24
	xor	edx, edx
	mov	ecx, 1
	call	_ZN5Botan24Key_Length_SpecificationC2Emmm
	mov	rax, rbx
	pop	rbx
	ret
.Lfunc_end41:
	.size	_ZNK5Botan25Block_Cipher_Fixed_ParamsILm16ELm24ELm0ELm1ENS_11BlockCipherEE8key_specEv, .Lfunc_end41-_ZNK5Botan25Block_Cipher_Fixed_ParamsILm16ELm24ELm0ELm1ENS_11BlockCipherEE8key_specEv
	.cfi_endproc

	.section	.text._ZNK5Botan7AES_1924nameB5cxx11Ev,"axG",@progbits,_ZNK5Botan7AES_1924nameB5cxx11Ev,comdat
	.weak	_ZNK5Botan7AES_1924nameB5cxx11Ev 
	.p2align	4, 0x90
	.type	_ZNK5Botan7AES_1924nameB5cxx11Ev,@function
_ZNK5Botan7AES_1924nameB5cxx11Ev:       
.Lfunc_begin5:
	.cfi_startproc
	.cfi_personality 3, __gxx_personality_v0
	.cfi_lsda 3, .Lexception5

	push	r14
.Lcfi269:
	.cfi_def_cfa_offset 16
	push	rbx
.Lcfi270:
	.cfi_def_cfa_offset 24
	push	rax
.Lcfi271:
	.cfi_def_cfa_offset 32
.Lcfi272:
	.cfi_offset rbx, -24
.Lcfi273:
	.cfi_offset r14, -16
	mov	rbx, rdi
	mov	r14, rsp
	mov	rdi, r14
	call	_ZNSaIcEC2Ev
.Ltmp17:
	mov	esi, .L.str.12
	mov	rdi, rbx
	mov	rdx, r14
	call	_ZNSt7__cxx1112basic_stringIcSt11char_traitsIcESaIcEEC2EPKcRKS3_
.Ltmp18:

	mov	rdi, rsp
	call	_ZNSaIcED2Ev
	mov	rax, rbx
	add	rsp, 8
	pop	rbx
	pop	r14
	ret
.LBB42_2:
.Ltmp19:
	mov	rbx, rax
	mov	rdi, rsp
	call	_ZNSaIcED2Ev
	mov	rdi, rbx
	call	_Unwind_Resume
.Lfunc_end42:
	.size	_ZNK5Botan7AES_1924nameB5cxx11Ev, .Lfunc_end42-_ZNK5Botan7AES_1924nameB5cxx11Ev
	.cfi_endproc
	.section	.gcc_except_table,"a",@progbits
	.p2align	2
GCC_except_table42:
.Lexception5:
	.byte	255                     
	.byte	3                       
	.asciz	"\234"                  
	.byte	3                       
	.byte	26                      
	.long	.Ltmp17-.Lfunc_begin5   
	.long	.Ltmp18-.Ltmp17         
	.long	.Ltmp19-.Lfunc_begin5   
	.byte	0                       
	.long	.Ltmp18-.Lfunc_begin5   
	.long	.Lfunc_end42-.Ltmp18    
	.long	0                       
	.byte	0                       
	.p2align	2

	.section	.text._ZNK5Botan25Block_Cipher_Fixed_ParamsILm16ELm24ELm0ELm1ENS_11BlockCipherEE10block_sizeEv,"axG",@progbits,_ZNK5Botan25Block_Cipher_Fixed_ParamsILm16ELm24ELm0ELm1ENS_11BlockCipherEE10block_sizeEv,comdat
	.weak	_ZNK5Botan25Block_Cipher_Fixed_ParamsILm16ELm24ELm0ELm1ENS_11BlockCipherEE10block_sizeEv 
	.p2align	4, 0x90
	.type	_ZNK5Botan25Block_Cipher_Fixed_ParamsILm16ELm24ELm0ELm1ENS_11BlockCipherEE10block_sizeEv,@function
_ZNK5Botan25Block_Cipher_Fixed_ParamsILm16ELm24ELm0ELm1ENS_11BlockCipherEE10block_sizeEv: 

	mov	eax, dword ptr [rip + x.88]
	mov	ecx, dword ptr [rip + y.89]
	lea	edx, [rax - 1]
	imul	edx, eax
	mov	esi, edx
	xor	esi, -2
	and	esi, edx
	sete	byte ptr [rsp - 2]
	sete	al
	cmp	ecx, 10
	setl	dl
	xor	dl, al
	mov	eax, 445333683
	mov	edx, -838580298
	cmovne	edx, eax
	test	esi, esi
	cmovne	eax, edx
	cmp	ecx, 10
	setl	byte ptr [rsp - 1]
	mov	r8d, -838580298
	cmovge	eax, edx
	mov	esi, -1227178302
	mov	edi, 718634651
	jmp	.LBB43_1
.LBB43_7:                               
	mov	esi, eax
	.p2align	4, 0x90
.LBB43_1:                               
	cmp	esi, 445333682
	jg	.LBB43_5

	cmp	esi, -1227178302
	je	.LBB43_8

	cmp	esi, -838580298
	jne	.LBB43_1

	mov	esi, 718634651
	jmp	.LBB43_1
	.p2align	4, 0x90
.LBB43_5:                               
	cmp	esi, 445333683
	je	.LBB43_9

	cmp	esi, 718634651
	jne	.LBB43_1
	jmp	.LBB43_7
.LBB43_8:                               
	movzx	r9d, byte ptr [rsp - 2]
	movzx	edx, byte ptr [rsp - 1]
	mov	ecx, r9d
	xor	cl, dl
	test	dl, dl
	mov	esi, -838580298
	cmovne	esi, edi
	test	r9b, r9b
	cmove	esi, r8d
	test	cl, cl
	cmovne	esi, edi
	jmp	.LBB43_1
.LBB43_9:
	mov	eax, 16
	ret
.Lfunc_end43:
	.size	_ZNK5Botan25Block_Cipher_Fixed_ParamsILm16ELm24ELm0ELm1ENS_11BlockCipherEE10block_sizeEv, .Lfunc_end43-_ZNK5Botan25Block_Cipher_Fixed_ParamsILm16ELm24ELm0ELm1ENS_11BlockCipherEE10block_sizeEv

	.section	.text._ZNK5Botan25Block_Cipher_Fixed_ParamsILm16ELm24ELm0ELm1ENS_11BlockCipherEE13encrypt_n_xexEPhPKhm,"axG",@progbits,_ZNK5Botan25Block_Cipher_Fixed_ParamsILm16ELm24ELm0ELm1ENS_11BlockCipherEE13encrypt_n_xexEPhPKhm,comdat
	.weak	_ZNK5Botan25Block_Cipher_Fixed_ParamsILm16ELm24ELm0ELm1ENS_11BlockCipherEE13encrypt_n_xexEPhPKhm 
	.p2align	4, 0x90
	.type	_ZNK5Botan25Block_Cipher_Fixed_ParamsILm16ELm24ELm0ELm1ENS_11BlockCipherEE13encrypt_n_xexEPhPKhm,@function
_ZNK5Botan25Block_Cipher_Fixed_ParamsILm16ELm24ELm0ELm1ENS_11BlockCipherEE13encrypt_n_xexEPhPKhm: 
	.cfi_startproc

	push	rbp
.Lcfi274:
	.cfi_def_cfa_offset 16
	push	r15
.Lcfi275:
	.cfi_def_cfa_offset 24
	push	r14
.Lcfi276:
	.cfi_def_cfa_offset 32
	push	r13
.Lcfi277:
	.cfi_def_cfa_offset 40
	push	r12
.Lcfi278:
	.cfi_def_cfa_offset 48
	push	rbx
.Lcfi279:
	.cfi_def_cfa_offset 56
	push	rax
.Lcfi280:
	.cfi_def_cfa_offset 64
.Lcfi281:
	.cfi_offset rbx, -56
.Lcfi282:
	.cfi_offset r12, -48
.Lcfi283:
	.cfi_offset r13, -40
.Lcfi284:
	.cfi_offset r14, -32
.Lcfi285:
	.cfi_offset r15, -24
.Lcfi286:
	.cfi_offset rbp, -16
	mov	r14, rcx
	mov	r15, rdx
	mov	rbx, rsi
	mov	r12, rdi
	mov	eax, dword ptr [rip + x.90]
	mov	ecx, dword ptr [rip + y.91]
	lea	edx, [rax - 1]
	imul	edx, eax
	mov	eax, edx
	xor	eax, -2
	test	eax, edx
	sete	byte ptr [rsp + 6]
	cmp	ecx, 10
	setl	byte ptr [rsp + 7]
	mov	r13, r14
	shl	r13, 4
	mov	eax, 389290835
	mov	ebp, 804532874
	jmp	.LBB44_1
.LBB44_4:                               
	movzx	ecx, byte ptr [rsp + 6]
	movzx	eax, byte ptr [rsp + 7]
	mov	edx, ecx
	xor	dl, al
	test	al, al
	mov	eax, -309940060
	mov	esi, 965380173
	cmovne	eax, esi
	test	cl, cl
	mov	ecx, -309940060
	cmove	eax, ecx
	test	dl, dl
	cmovne	eax, esi
	.p2align	4, 0x90
.LBB44_1:                               
	cmp	eax, 804532873
	jg	.LBB44_5

	cmp	eax, -309940060
	je	.LBB44_9

	cmp	eax, 389290835
	jne	.LBB44_1
	jmp	.LBB44_4
	.p2align	4, 0x90
.LBB44_5:                               
	cmp	eax, 804532874
	je	.LBB44_8

	cmp	eax, 965380173
	jne	.LBB44_1

	mov	rdi, rbx
	mov	rsi, r15
	mov	rdx, r13
	call	_ZN5Botan7xor_bufEPhPKhm
	mov	rax, qword ptr [r12]
	mov	rdi, r12
	mov	rsi, rbx
	mov	rdx, rbx
	mov	rcx, r14
	call	qword ptr [rax + 72]
	mov	rdi, rbx
	mov	rsi, r15
	mov	rdx, r13
	call	_ZN5Botan7xor_bufEPhPKhm
	mov	eax, dword ptr [rip + x.90]
	lea	ecx, [rax - 1]
	imul	ecx, eax
	mov	eax, ecx
	xor	eax, -2
	and	eax, ecx
	sete	cl
	test	eax, eax
	mov	eax, -309940060
	cmove	eax, ebp
	cmp	dword ptr [rip + y.91], 10
	setl	dl
	mov	esi, -309940060
	cmovge	eax, esi
	xor	dl, cl
	cmovne	eax, ebp
	jmp	.LBB44_1
.LBB44_9:                               
	mov	rdi, rbx
	mov	rsi, r15
	mov	rdx, r13
	call	_ZN5Botan7xor_bufEPhPKhm
	mov	rax, qword ptr [r12]
	mov	rdi, r12
	mov	rsi, rbx
	mov	rdx, rbx
	mov	rcx, r14
	call	qword ptr [rax + 72]
	mov	rdi, rbx
	mov	rsi, r15
	mov	rdx, r13
	call	_ZN5Botan7xor_bufEPhPKhm
	mov	eax, 965380173
	jmp	.LBB44_1
.LBB44_8:
	add	rsp, 8
	pop	rbx
	pop	r12
	pop	r13
	pop	r14
	pop	r15
	pop	rbp
	ret
.Lfunc_end44:
	.size	_ZNK5Botan25Block_Cipher_Fixed_ParamsILm16ELm24ELm0ELm1ENS_11BlockCipherEE13encrypt_n_xexEPhPKhm, .Lfunc_end44-_ZNK5Botan25Block_Cipher_Fixed_ParamsILm16ELm24ELm0ELm1ENS_11BlockCipherEE13encrypt_n_xexEPhPKhm
	.cfi_endproc

	.section	.text._ZNK5Botan25Block_Cipher_Fixed_ParamsILm16ELm24ELm0ELm1ENS_11BlockCipherEE13decrypt_n_xexEPhPKhm,"axG",@progbits,_ZNK5Botan25Block_Cipher_Fixed_ParamsILm16ELm24ELm0ELm1ENS_11BlockCipherEE13decrypt_n_xexEPhPKhm,comdat
	.weak	_ZNK5Botan25Block_Cipher_Fixed_ParamsILm16ELm24ELm0ELm1ENS_11BlockCipherEE13decrypt_n_xexEPhPKhm 
	.p2align	4, 0x90
	.type	_ZNK5Botan25Block_Cipher_Fixed_ParamsILm16ELm24ELm0ELm1ENS_11BlockCipherEE13decrypt_n_xexEPhPKhm,@function
_ZNK5Botan25Block_Cipher_Fixed_ParamsILm16ELm24ELm0ELm1ENS_11BlockCipherEE13decrypt_n_xexEPhPKhm: 
	.cfi_startproc

	push	rbp
.Lcfi287:
	.cfi_def_cfa_offset 16
	push	r15
.Lcfi288:
	.cfi_def_cfa_offset 24
	push	r14
.Lcfi289:
	.cfi_def_cfa_offset 32
	push	r13
.Lcfi290:
	.cfi_def_cfa_offset 40
	push	r12
.Lcfi291:
	.cfi_def_cfa_offset 48
	push	rbx
.Lcfi292:
	.cfi_def_cfa_offset 56
	push	rax
.Lcfi293:
	.cfi_def_cfa_offset 64
.Lcfi294:
	.cfi_offset rbx, -56
.Lcfi295:
	.cfi_offset r12, -48
.Lcfi296:
	.cfi_offset r13, -40
.Lcfi297:
	.cfi_offset r14, -32
.Lcfi298:
	.cfi_offset r15, -24
.Lcfi299:
	.cfi_offset rbp, -16
	mov	r14, rcx
	mov	r15, rdx
	mov	rbx, rsi
	mov	r12, rdi
	mov	eax, dword ptr [rip + x.92]
	mov	ecx, dword ptr [rip + y.93]
	mov	edx, eax
	neg	edx
	not	edx
	imul	edx, eax
	mov	eax, edx
	xor	eax, -2
	test	eax, edx
	sete	byte ptr [rsp + 6]
	cmp	ecx, 10
	setl	byte ptr [rsp + 7]
	mov	r13, r14
	shl	r13, 4
	mov	eax, -1356426299
	mov	ebp, 1430976514
	jmp	.LBB45_1
.LBB45_8:                               
	movzx	ecx, byte ptr [rsp + 6]
	movzx	eax, byte ptr [rsp + 7]
	mov	edx, ecx
	xor	dl, al
	mov	edx, 449758378
	mov	esi, 646834553
	cmovne	edx, esi
	test	al, al
	mov	eax, edx
	cmovne	eax, esi
	test	cl, cl
	cmove	eax, edx
	.p2align	4, 0x90
.LBB45_1:                               
	cmp	eax, 646834552
	jle	.LBB45_2

	cmp	eax, 646834553
	je	.LBB45_9

	cmp	eax, 1430976514
	jne	.LBB45_1
	jmp	.LBB45_7
	.p2align	4, 0x90
.LBB45_2:                               
	cmp	eax, -1356426299
	je	.LBB45_8

	cmp	eax, 449758378
	jne	.LBB45_1

	mov	rdi, rbx
	mov	rsi, r15
	mov	rdx, r13
	call	_ZN5Botan7xor_bufEPhPKhm
	mov	rax, qword ptr [r12]
	mov	rdi, r12
	mov	rsi, rbx
	mov	rdx, rbx
	mov	rcx, r14
	call	qword ptr [rax + 80]
	mov	rdi, rbx
	mov	rsi, r15
	mov	rdx, r13
	call	_ZN5Botan7xor_bufEPhPKhm
	mov	eax, 646834553
	jmp	.LBB45_1
.LBB45_9:                               
	mov	rdi, rbx
	mov	rsi, r15
	mov	rdx, r13
	call	_ZN5Botan7xor_bufEPhPKhm
	mov	rax, qword ptr [r12]
	mov	rdi, r12
	mov	rsi, rbx
	mov	rdx, rbx
	mov	rcx, r14
	call	qword ptr [rax + 80]
	mov	rdi, rbx
	mov	rsi, r15
	mov	rdx, r13
	call	_ZN5Botan7xor_bufEPhPKhm
	mov	eax, dword ptr [rip + x.92]
	lea	ecx, [rax - 1]
	imul	ecx, eax
	mov	eax, ecx
	xor	eax, -2
	and	eax, ecx
	sete	cl
	test	eax, eax
	mov	eax, 449758378
	cmove	eax, ebp
	cmp	dword ptr [rip + y.93], 10
	setl	dl
	mov	esi, 449758378
	cmovge	eax, esi
	xor	dl, cl
	cmovne	eax, ebp
	jmp	.LBB45_1
.LBB45_7:
	add	rsp, 8
	pop	rbx
	pop	r12
	pop	r13
	pop	r14
	pop	r15
	pop	rbp
	ret
.Lfunc_end45:
	.size	_ZNK5Botan25Block_Cipher_Fixed_ParamsILm16ELm24ELm0ELm1ENS_11BlockCipherEE13decrypt_n_xexEPhPKhm, .Lfunc_end45-_ZNK5Botan25Block_Cipher_Fixed_ParamsILm16ELm24ELm0ELm1ENS_11BlockCipherEE13decrypt_n_xexEPhPKhm
	.cfi_endproc

	.section	.text._ZNK5Botan7AES_19210new_objectEv,"axG",@progbits,_ZNK5Botan7AES_19210new_objectEv,comdat
	.weak	_ZNK5Botan7AES_19210new_objectEv 
	.p2align	4, 0x90
	.type	_ZNK5Botan7AES_19210new_objectEv,@function
_ZNK5Botan7AES_19210new_objectEv:       
	.cfi_startproc

	push	rbp
.Lcfi300:
	.cfi_def_cfa_offset 16
.Lcfi301:
	.cfi_offset rbp, -16
	mov	rbp, rsp
.Lcfi302:
	.cfi_def_cfa_register rbp
	push	r15
	push	r14
	push	r13
	push	r12
	push	rbx
	push	rax
.Lcfi303:
	.cfi_offset rbx, -56
.Lcfi304:
	.cfi_offset r12, -48
.Lcfi305:
	.cfi_offset r13, -40
.Lcfi306:
	.cfi_offset r14, -32
.Lcfi307:
	.cfi_offset r15, -24
	mov	r14, rdi
	mov	eax, dword ptr [rip + x.94]
	mov	ecx, eax
	neg	ecx
	not	ecx
	imul	ecx, eax
	not	ecx
	or	ecx, -2
	cmp	ecx, -1
	sete	byte ptr [rbp - 41]
	mov	eax, dword ptr [rip + y.95]
	cmp	eax, 10
	setl	byte ptr [rbp - 42]
	mov	eax, 1758336224
	mov	r15d, 1407699446
	mov	r12d, 483746307
	mov	r13d, 1086584852
	jmp	.LBB46_1
.LBB46_7:                               
	movzx	ecx, byte ptr [rbp - 41]
	movzx	eax, byte ptr [rbp - 42]
	mov	edx, ecx
	xor	dl, al
	mov	edx, 483746307
	cmovne	edx, r13d
	test	al, al
	mov	eax, edx
	cmovne	eax, r13d
	test	cl, cl
	cmove	eax, edx
	.p2align	4, 0x90
.LBB46_1:                               
	mov	ecx, eax
	and	ecx, 2147483647
	cmp	ecx, 1407699445
	jg	.LBB46_5

	cmp	ecx, 483746307
	je	.LBB46_9

	cmp	ecx, 1086584852
	jne	.LBB46_1

	mov	rbx, rsp
	add	rbx, -16
	mov	rsp, rbx
	mov	rdi, rbx
	call	_ZSt11make_uniqueIN5Botan7AES_192EJEENSt9_MakeUniqIT_E15__single_objectEDpOT0_
	mov	rdi, r14
	mov	rsi, rbx
	call	_ZNSt10unique_ptrIN5Botan11BlockCipherESt14default_deleteIS1_EEC2INS0_7AES_192ES2_IS6_EvEEOS_IT_T0_E
	mov	rdi, rbx
	call	_ZNSt10unique_ptrIN5Botan7AES_192ESt14default_deleteIS1_EED2Ev
	mov	eax, dword ptr [rip + x.94]
	lea	ecx, [rax - 1]
	imul	ecx, eax
	not	ecx
	or	ecx, -2
	cmp	ecx, -1
	sete	cl
	mov	eax, 483746307
	cmove	eax, r15d
	cmp	dword ptr [rip + y.95], 10
	setl	dl
	cmovge	eax, r12d
	xor	dl, cl
	cmovne	eax, r15d
	jmp	.LBB46_1
	.p2align	4, 0x90
.LBB46_5:                               
	cmp	ecx, 1407699446
	je	.LBB46_8

	cmp	ecx, 1758336224
	jne	.LBB46_1
	jmp	.LBB46_7
.LBB46_9:                               
	mov	rbx, rsp
	add	rbx, -16
	mov	rsp, rbx
	mov	rdi, rbx
	call	_ZSt11make_uniqueIN5Botan7AES_192EJEENSt9_MakeUniqIT_E15__single_objectEDpOT0_
	mov	rdi, r14
	mov	rsi, rbx
	call	_ZNSt10unique_ptrIN5Botan11BlockCipherESt14default_deleteIS1_EEC2INS0_7AES_192ES2_IS6_EvEEOS_IT_T0_E
	mov	rdi, rbx
	call	_ZNSt10unique_ptrIN5Botan7AES_192ESt14default_deleteIS1_EED2Ev
	mov	eax, 1086584852
	jmp	.LBB46_1
.LBB46_8:
	mov	rax, r14
	lea	rsp, [rbp - 40]
	pop	rbx
	pop	r12
	pop	r13
	pop	r14
	pop	r15
	pop	rbp
	ret
.Lfunc_end46:
	.size	_ZNK5Botan7AES_19210new_objectEv, .Lfunc_end46-_ZNK5Botan7AES_19210new_objectEv
	.cfi_endproc

	.section	.text._ZN5Botan7AES_256D2Ev,"axG",@progbits,_ZN5Botan7AES_256D2Ev,comdat
	.weak	_ZN5Botan7AES_256D2Ev   
	.p2align	4, 0x90
	.type	_ZN5Botan7AES_256D2Ev,@function
_ZN5Botan7AES_256D2Ev:                  

	push	rbx
	mov	rbx, rdi
	mov	qword ptr [rbx], _ZTVN5Botan7AES_256E+16
	lea	rdi, [rbx + 32]
	call	_ZNSt6vectorIjN5Botan16secure_allocatorIjEEED2Ev
	lea	rdi, [rbx + 8]
	call	_ZNSt6vectorIjN5Botan16secure_allocatorIjEEED2Ev
	mov	rdi, rbx
	pop	rbx
	jmp	_ZN5Botan18SymmetricAlgorithmD2Ev 
.Lfunc_end47:
	.size	_ZN5Botan7AES_256D2Ev, .Lfunc_end47-_ZN5Botan7AES_256D2Ev

	.section	.text._ZN5Botan7AES_256D0Ev,"axG",@progbits,_ZN5Botan7AES_256D0Ev,comdat
	.weak	_ZN5Botan7AES_256D0Ev   
	.p2align	4, 0x90
	.type	_ZN5Botan7AES_256D0Ev,@function
_ZN5Botan7AES_256D0Ev:                  

	push	rbx
	mov	rbx, rdi
	call	_ZN5Botan7AES_256D2Ev
	mov	rdi, rbx
	pop	rbx
	jmp	_ZdlPv                  
.Lfunc_end48:
	.size	_ZN5Botan7AES_256D0Ev, .Lfunc_end48-_ZN5Botan7AES_256D0Ev

	.section	.text._ZNK5Botan25Block_Cipher_Fixed_ParamsILm16ELm32ELm0ELm1ENS_11BlockCipherEE8key_specEv,"axG",@progbits,_ZNK5Botan25Block_Cipher_Fixed_ParamsILm16ELm32ELm0ELm1ENS_11BlockCipherEE8key_specEv,comdat
	.weak	_ZNK5Botan25Block_Cipher_Fixed_ParamsILm16ELm32ELm0ELm1ENS_11BlockCipherEE8key_specEv 
	.p2align	4, 0x90
	.type	_ZNK5Botan25Block_Cipher_Fixed_ParamsILm16ELm32ELm0ELm1ENS_11BlockCipherEE8key_specEv,@function
_ZNK5Botan25Block_Cipher_Fixed_ParamsILm16ELm32ELm0ELm1ENS_11BlockCipherEE8key_specEv: 
	.cfi_startproc

	push	rbp
.Lcfi308:
	.cfi_def_cfa_offset 16
	push	r15
.Lcfi309:
	.cfi_def_cfa_offset 24
	push	r14
.Lcfi310:
	.cfi_def_cfa_offset 32
	push	r12
.Lcfi311:
	.cfi_def_cfa_offset 40
	push	rbx
.Lcfi312:
	.cfi_def_cfa_offset 48
	sub	rsp, 16
.Lcfi313:
	.cfi_def_cfa_offset 64
.Lcfi314:
	.cfi_offset rbx, -48
.Lcfi315:
	.cfi_offset r12, -40
.Lcfi316:
	.cfi_offset r14, -32
.Lcfi317:
	.cfi_offset r15, -24
.Lcfi318:
	.cfi_offset rbp, -16
	mov	rbp, rdi
	mov	eax, dword ptr [rip + x.100]
	lea	ecx, [rax - 1]
	imul	ecx, eax
	not	ecx
	or	ecx, -2
	cmp	ecx, -1
	sete	byte ptr [rsp + 14]
	mov	eax, dword ptr [rip + y.101]
	cmp	eax, 10
	setl	byte ptr [rsp + 15]
	mov	eax, 960756367
	mov	r15d, -337179301
	mov	r14d, -613157955
	mov	r12d, 1587481305
	jmp	.LBB49_1
.LBB49_7:                               
	movzx	ecx, byte ptr [rsp + 14]
	movzx	eax, byte ptr [rsp + 15]
	mov	edx, ecx
	xor	dl, al
	test	al, al
	mov	eax, -613157955
	cmovne	eax, r12d
	test	cl, cl
	cmove	eax, r14d
	test	dl, dl
	cmovne	eax, r12d
	.p2align	4, 0x90
.LBB49_1:                               
	cmp	eax, 960756366
	jg	.LBB49_5

	cmp	eax, -613157955
	je	.LBB49_9

	cmp	eax, -337179301
	jne	.LBB49_1
	jmp	.LBB49_4
	.p2align	4, 0x90
.LBB49_5:                               
	cmp	eax, 1587481305
	je	.LBB49_8

	cmp	eax, 960756367
	jne	.LBB49_1
	jmp	.LBB49_7
.LBB49_9:                               
	mov	esi, 32
	xor	edx, edx
	mov	ecx, 1
	mov	rdi, rbp
	call	_ZN5Botan24Key_Length_SpecificationC2Emmm
	mov	eax, 1587481305
	jmp	.LBB49_1
.LBB49_8:                               
	mov	esi, 32
	xor	edx, edx
	mov	ecx, 1
	mov	rdi, rbp
	call	_ZN5Botan24Key_Length_SpecificationC2Emmm
	mov	eax, dword ptr [rip + x.100]
	mov	ecx, dword ptr [rip + y.101]
	mov	edx, eax
	neg	edx
	not	edx
	imul	edx, eax
	mov	eax, edx
	xor	eax, -2
	and	eax, edx
	sete	dl
	cmp	ecx, 10
	setl	bl
	xor	bl, dl
	mov	edx, -613157955
	cmovne	edx, r15d
	test	eax, eax
	mov	eax, edx
	cmove	eax, r15d
	cmp	ecx, 10
	cmovge	eax, edx
	jmp	.LBB49_1
.LBB49_4:
	mov	rax, rbp
	add	rsp, 16
	pop	rbx
	pop	r12
	pop	r14
	pop	r15
	pop	rbp
	ret
.Lfunc_end49:
	.size	_ZNK5Botan25Block_Cipher_Fixed_ParamsILm16ELm32ELm0ELm1ENS_11BlockCipherEE8key_specEv, .Lfunc_end49-_ZNK5Botan25Block_Cipher_Fixed_ParamsILm16ELm32ELm0ELm1ENS_11BlockCipherEE8key_specEv
	.cfi_endproc

	.section	.text._ZNK5Botan7AES_2564nameB5cxx11Ev,"axG",@progbits,_ZNK5Botan7AES_2564nameB5cxx11Ev,comdat
	.weak	_ZNK5Botan7AES_2564nameB5cxx11Ev 
	.p2align	4, 0x90
	.type	_ZNK5Botan7AES_2564nameB5cxx11Ev,@function
_ZNK5Botan7AES_2564nameB5cxx11Ev:       
.Lfunc_begin6:
	.cfi_startproc
	.cfi_personality 3, __gxx_personality_v0
	.cfi_lsda 3, .Lexception6

	push	r14
.Lcfi319:
	.cfi_def_cfa_offset 16
	push	rbx
.Lcfi320:
	.cfi_def_cfa_offset 24
	push	rax
.Lcfi321:
	.cfi_def_cfa_offset 32
.Lcfi322:
	.cfi_offset rbx, -24
.Lcfi323:
	.cfi_offset r14, -16
	mov	rbx, rdi
	mov	r14, rsp
	mov	rdi, r14
	call	_ZNSaIcEC2Ev
.Ltmp20:
	mov	esi, .L.str.13
	mov	rdi, rbx
	mov	rdx, r14
	call	_ZNSt7__cxx1112basic_stringIcSt11char_traitsIcESaIcEEC2EPKcRKS3_
.Ltmp21:

	mov	rdi, rsp
	call	_ZNSaIcED2Ev
	mov	rax, rbx
	add	rsp, 8
	pop	rbx
	pop	r14
	ret
.LBB50_2:
.Ltmp22:
	mov	rbx, rax
	mov	rdi, rsp
	call	_ZNSaIcED2Ev
	mov	rdi, rbx
	call	_Unwind_Resume
.Lfunc_end50:
	.size	_ZNK5Botan7AES_2564nameB5cxx11Ev, .Lfunc_end50-_ZNK5Botan7AES_2564nameB5cxx11Ev
	.cfi_endproc
	.section	.gcc_except_table,"a",@progbits
	.p2align	2
GCC_except_table50:
.Lexception6:
	.byte	255                     
	.byte	3                       
	.asciz	"\234"                  
	.byte	3                       
	.byte	26                      
	.long	.Ltmp20-.Lfunc_begin6   
	.long	.Ltmp21-.Ltmp20         
	.long	.Ltmp22-.Lfunc_begin6   
	.byte	0                       
	.long	.Ltmp21-.Lfunc_begin6   
	.long	.Lfunc_end50-.Ltmp21    
	.long	0                       
	.byte	0                       
	.p2align	2

	.section	.text._ZNK5Botan25Block_Cipher_Fixed_ParamsILm16ELm32ELm0ELm1ENS_11BlockCipherEE10block_sizeEv,"axG",@progbits,_ZNK5Botan25Block_Cipher_Fixed_ParamsILm16ELm32ELm0ELm1ENS_11BlockCipherEE10block_sizeEv,comdat
	.weak	_ZNK5Botan25Block_Cipher_Fixed_ParamsILm16ELm32ELm0ELm1ENS_11BlockCipherEE10block_sizeEv 
	.p2align	4, 0x90
	.type	_ZNK5Botan25Block_Cipher_Fixed_ParamsILm16ELm32ELm0ELm1ENS_11BlockCipherEE10block_sizeEv,@function
_ZNK5Botan25Block_Cipher_Fixed_ParamsILm16ELm32ELm0ELm1ENS_11BlockCipherEE10block_sizeEv: 

	mov	eax, dword ptr [rip + x.102]
	mov	esi, dword ptr [rip + y.103]
	lea	ecx, [rax - 1]
	imul	ecx, eax
	mov	eax, ecx
	xor	eax, -2
	and	eax, ecx
	sete	dl
	sete	byte ptr [rsp - 2]
	test	eax, eax
	mov	edi, 1580077273
	mov	r8d, -1747298274
	mov	ecx, -1747298274
	cmove	ecx, edi
	cmp	esi, 10
	setl	al
	setl	byte ptr [rsp - 1]
	cmovge	ecx, r8d
	xor	al, dl
	cmovne	ecx, edi
	mov	esi, -38674957
	mov	edi, 29109029
	jmp	.LBB51_1
.LBB51_6:                               
	mov	esi, ecx
	.p2align	4, 0x90
.LBB51_1:                               
	cmp	esi, 29109028
	jle	.LBB51_2

	cmp	esi, 29109029
	je	.LBB51_6

	cmp	esi, 1580077273
	jne	.LBB51_1
	jmp	.LBB51_8
	.p2align	4, 0x90
.LBB51_2:                               
	cmp	esi, -1747298274
	je	.LBB51_9

	cmp	esi, -38674957
	jne	.LBB51_1

	movzx	r9d, byte ptr [rsp - 2]
	movzx	edx, byte ptr [rsp - 1]
	mov	eax, r9d
	xor	al, dl
	test	dl, dl
	mov	esi, -1747298274
	cmovne	esi, edi
	test	r9b, r9b
	cmove	esi, r8d
	test	al, al
	cmovne	esi, edi
	jmp	.LBB51_1
.LBB51_9:                               
	mov	esi, 29109029
	jmp	.LBB51_1
.LBB51_8:
	mov	eax, 16
	ret
.Lfunc_end51:
	.size	_ZNK5Botan25Block_Cipher_Fixed_ParamsILm16ELm32ELm0ELm1ENS_11BlockCipherEE10block_sizeEv, .Lfunc_end51-_ZNK5Botan25Block_Cipher_Fixed_ParamsILm16ELm32ELm0ELm1ENS_11BlockCipherEE10block_sizeEv

	.section	.text._ZNK5Botan25Block_Cipher_Fixed_ParamsILm16ELm32ELm0ELm1ENS_11BlockCipherEE13encrypt_n_xexEPhPKhm,"axG",@progbits,_ZNK5Botan25Block_Cipher_Fixed_ParamsILm16ELm32ELm0ELm1ENS_11BlockCipherEE13encrypt_n_xexEPhPKhm,comdat
	.weak	_ZNK5Botan25Block_Cipher_Fixed_ParamsILm16ELm32ELm0ELm1ENS_11BlockCipherEE13encrypt_n_xexEPhPKhm 
	.p2align	4, 0x90
	.type	_ZNK5Botan25Block_Cipher_Fixed_ParamsILm16ELm32ELm0ELm1ENS_11BlockCipherEE13encrypt_n_xexEPhPKhm,@function
_ZNK5Botan25Block_Cipher_Fixed_ParamsILm16ELm32ELm0ELm1ENS_11BlockCipherEE13encrypt_n_xexEPhPKhm: 
	.cfi_startproc

	push	r15
.Lcfi324:
	.cfi_def_cfa_offset 16
	push	r14
.Lcfi325:
	.cfi_def_cfa_offset 24
	push	r13
.Lcfi326:
	.cfi_def_cfa_offset 32
	push	r12
.Lcfi327:
	.cfi_def_cfa_offset 40
	push	rbx
.Lcfi328:
	.cfi_def_cfa_offset 48
.Lcfi329:
	.cfi_offset rbx, -48
.Lcfi330:
	.cfi_offset r12, -40
.Lcfi331:
	.cfi_offset r13, -32
.Lcfi332:
	.cfi_offset r14, -24
.Lcfi333:
	.cfi_offset r15, -16
	mov	r15, rcx
	mov	r14, rdx
	mov	rbx, rsi
	mov	r12, rdi
	mov	r13, r15
	shl	r13, 4
	mov	rdi, rbx
	mov	rsi, r14
	mov	rdx, r13
	call	_ZN5Botan7xor_bufEPhPKhm
	mov	rax, qword ptr [r12]
	mov	rdi, r12
	mov	rsi, rbx
	mov	rdx, rbx
	mov	rcx, r15
	call	qword ptr [rax + 72]
	mov	rdi, rbx
	mov	rsi, r14
	mov	rdx, r13
	pop	rbx
	pop	r12
	pop	r13
	pop	r14
	pop	r15
	jmp	_ZN5Botan7xor_bufEPhPKhm 
.Lfunc_end52:
	.size	_ZNK5Botan25Block_Cipher_Fixed_ParamsILm16ELm32ELm0ELm1ENS_11BlockCipherEE13encrypt_n_xexEPhPKhm, .Lfunc_end52-_ZNK5Botan25Block_Cipher_Fixed_ParamsILm16ELm32ELm0ELm1ENS_11BlockCipherEE13encrypt_n_xexEPhPKhm
	.cfi_endproc

	.section	.text._ZNK5Botan25Block_Cipher_Fixed_ParamsILm16ELm32ELm0ELm1ENS_11BlockCipherEE13decrypt_n_xexEPhPKhm,"axG",@progbits,_ZNK5Botan25Block_Cipher_Fixed_ParamsILm16ELm32ELm0ELm1ENS_11BlockCipherEE13decrypt_n_xexEPhPKhm,comdat
	.weak	_ZNK5Botan25Block_Cipher_Fixed_ParamsILm16ELm32ELm0ELm1ENS_11BlockCipherEE13decrypt_n_xexEPhPKhm 
	.p2align	4, 0x90
	.type	_ZNK5Botan25Block_Cipher_Fixed_ParamsILm16ELm32ELm0ELm1ENS_11BlockCipherEE13decrypt_n_xexEPhPKhm,@function
_ZNK5Botan25Block_Cipher_Fixed_ParamsILm16ELm32ELm0ELm1ENS_11BlockCipherEE13decrypt_n_xexEPhPKhm: 
	.cfi_startproc

	push	rbp
.Lcfi334:
	.cfi_def_cfa_offset 16
	push	r15
.Lcfi335:
	.cfi_def_cfa_offset 24
	push	r14
.Lcfi336:
	.cfi_def_cfa_offset 32
	push	r13
.Lcfi337:
	.cfi_def_cfa_offset 40
	push	r12
.Lcfi338:
	.cfi_def_cfa_offset 48
	push	rbx
.Lcfi339:
	.cfi_def_cfa_offset 56
	push	rax
.Lcfi340:
	.cfi_def_cfa_offset 64
.Lcfi341:
	.cfi_offset rbx, -56
.Lcfi342:
	.cfi_offset r12, -48
.Lcfi343:
	.cfi_offset r13, -40
.Lcfi344:
	.cfi_offset r14, -32
.Lcfi345:
	.cfi_offset r15, -24
.Lcfi346:
	.cfi_offset rbp, -16
	mov	r14, rcx
	mov	r15, rdx
	mov	rbx, rsi
	mov	r12, rdi
	mov	eax, dword ptr [rip + x.106]
	mov	ecx, dword ptr [rip + y.107]
	lea	edx, [rax - 1]
	imul	edx, eax
	not	edx
	or	edx, -2
	cmp	edx, -1
	sete	byte ptr [rsp + 6]
	cmp	ecx, 10
	setl	byte ptr [rsp + 7]
	mov	r13, r14
	shl	r13, 4
	mov	eax, 1302353164
	mov	ebp, -1587911132
	jmp	.LBB53_1
.LBB53_4:                               
	movzx	ecx, byte ptr [rsp + 6]
	movzx	eax, byte ptr [rsp + 7]
	mov	edx, ecx
	xor	dl, al
	mov	edx, 1784187418
	mov	esi, 1847399181
	cmovne	edx, esi
	test	al, al
	mov	eax, edx
	cmovne	eax, esi
	test	cl, cl
	cmove	eax, edx
	.p2align	4, 0x90
.LBB53_1:                               
	cmp	eax, 1784187417
	jg	.LBB53_5

	cmp	eax, -1587911132
	je	.LBB53_8

	cmp	eax, 1302353164
	jne	.LBB53_1
	jmp	.LBB53_4
	.p2align	4, 0x90
.LBB53_5:                               
	cmp	eax, 1784187418
	je	.LBB53_9

	cmp	eax, 1847399181
	jne	.LBB53_1

	mov	rdi, rbx
	mov	rsi, r15
	mov	rdx, r13
	call	_ZN5Botan7xor_bufEPhPKhm
	mov	rax, qword ptr [r12]
	mov	rdi, r12
	mov	rsi, rbx
	mov	rdx, rbx
	mov	rcx, r14
	call	qword ptr [rax + 80]
	mov	rdi, rbx
	mov	rsi, r15
	mov	rdx, r13
	call	_ZN5Botan7xor_bufEPhPKhm
	mov	eax, dword ptr [rip + x.106]
	lea	ecx, [rax - 1]
	imul	ecx, eax
	mov	eax, ecx
	xor	eax, -2
	and	eax, ecx
	sete	cl
	test	eax, eax
	mov	eax, 1784187418
	cmove	eax, ebp
	cmp	dword ptr [rip + y.107], 10
	setl	dl
	mov	esi, 1784187418
	cmovge	eax, esi
	xor	dl, cl
	cmovne	eax, ebp
	jmp	.LBB53_1
.LBB53_9:                               
	mov	rdi, rbx
	mov	rsi, r15
	mov	rdx, r13
	call	_ZN5Botan7xor_bufEPhPKhm
	mov	rax, qword ptr [r12]
	mov	rdi, r12
	mov	rsi, rbx
	mov	rdx, rbx
	mov	rcx, r14
	call	qword ptr [rax + 80]
	mov	rdi, rbx
	mov	rsi, r15
	mov	rdx, r13
	call	_ZN5Botan7xor_bufEPhPKhm
	mov	eax, 1847399181
	jmp	.LBB53_1
.LBB53_8:
	add	rsp, 8
	pop	rbx
	pop	r12
	pop	r13
	pop	r14
	pop	r15
	pop	rbp
	ret
.Lfunc_end53:
	.size	_ZNK5Botan25Block_Cipher_Fixed_ParamsILm16ELm32ELm0ELm1ENS_11BlockCipherEE13decrypt_n_xexEPhPKhm, .Lfunc_end53-_ZNK5Botan25Block_Cipher_Fixed_ParamsILm16ELm32ELm0ELm1ENS_11BlockCipherEE13decrypt_n_xexEPhPKhm
	.cfi_endproc

	.section	.text._ZNK5Botan7AES_25610new_objectEv,"axG",@progbits,_ZNK5Botan7AES_25610new_objectEv,comdat
	.weak	_ZNK5Botan7AES_25610new_objectEv 
	.p2align	4, 0x90
	.type	_ZNK5Botan7AES_25610new_objectEv,@function
_ZNK5Botan7AES_25610new_objectEv:       
	.cfi_startproc

	push	r14
.Lcfi347:
	.cfi_def_cfa_offset 16
	push	rbx
.Lcfi348:
	.cfi_def_cfa_offset 24
	push	rax
.Lcfi349:
	.cfi_def_cfa_offset 32
.Lcfi350:
	.cfi_offset rbx, -24
.Lcfi351:
	.cfi_offset r14, -16
	mov	rbx, rdi
	mov	r14, rsp
	mov	rdi, r14
	call	_ZSt11make_uniqueIN5Botan7AES_256EJEENSt9_MakeUniqIT_E15__single_objectEDpOT0_
	mov	rdi, rbx
	mov	rsi, r14
	call	_ZNSt10unique_ptrIN5Botan11BlockCipherESt14default_deleteIS1_EEC2INS0_7AES_256ES2_IS6_EvEEOS_IT_T0_E
	mov	rdi, r14
	call	_ZNSt10unique_ptrIN5Botan7AES_256ESt14default_deleteIS1_EED2Ev
	mov	rax, rbx
	add	rsp, 8
	pop	rbx
	pop	r14
	ret
.Lfunc_end54:
	.size	_ZNK5Botan7AES_25610new_objectEv, .Lfunc_end54-_ZNK5Botan7AES_25610new_objectEv
	.cfi_endproc

	.section	.text._ZN5Botan5CPUID9has_ssse3Ev,"axG",@progbits,_ZN5Botan5CPUID9has_ssse3Ev,comdat
	.weak	_ZN5Botan5CPUID9has_ssse3Ev 
	.p2align	4, 0x90
	.type	_ZN5Botan5CPUID9has_ssse3Ev,@function
_ZN5Botan5CPUID9has_ssse3Ev:            
	.cfi_startproc

	mov	edi, 2
	jmp	_ZN5Botan5CPUID13has_cpuid_bitENS0_10CPUID_bitsE 
.Lfunc_end55:
	.size	_ZN5Botan5CPUID9has_ssse3Ev, .Lfunc_end55-_ZN5Botan5CPUID9has_ssse3Ev
	.cfi_endproc

	.section	.text._ZN5Botan5CPUID13has_cpuid_bitENS0_10CPUID_bitsE,"axG",@progbits,_ZN5Botan5CPUID13has_cpuid_bitENS0_10CPUID_bitsE,comdat
	.weak	_ZN5Botan5CPUID13has_cpuid_bitENS0_10CPUID_bitsE 
	.p2align	4, 0x90
	.type	_ZN5Botan5CPUID13has_cpuid_bitENS0_10CPUID_bitsE,@function
_ZN5Botan5CPUID13has_cpuid_bitENS0_10CPUID_bitsE: 
	.cfi_startproc

	push	rbx
.Lcfi352:
	.cfi_def_cfa_offset 16
.Lcfi353:
	.cfi_offset rbx, -16
	mov	rbx, rdi
	call	_ZN5Botan5CPUID5stateEv
	mov	rdi, rax
	mov	rsi, rbx
	pop	rbx
	jmp	_ZNK5Botan5CPUID10CPUID_Data7has_bitEm 
.Lfunc_end56:
	.size	_ZN5Botan5CPUID13has_cpuid_bitENS0_10CPUID_bitsE, .Lfunc_end56-_ZN5Botan5CPUID13has_cpuid_bitENS0_10CPUID_bitsE
	.cfi_endproc

	.section	.text._ZN5Botan5CPUID5stateEv,"axG",@progbits,_ZN5Botan5CPUID5stateEv,comdat
	.weak	_ZN5Botan5CPUID5stateEv 
	.p2align	4, 0x90
	.type	_ZN5Botan5CPUID5stateEv,@function
_ZN5Botan5CPUID5stateEv:                
.Lfunc_begin7:
	.cfi_startproc
	.cfi_personality 3, __gxx_personality_v0
	.cfi_lsda 3, .Lexception7

	push	rbx
.Lcfi354:
	.cfi_def_cfa_offset 16
.Lcfi355:
	.cfi_offset rbx, -16
	mov	al, byte ptr [rip + _ZGVZN5Botan5CPUID5stateEvE7g_cpuid]
	test	al, al
	jne	.LBB57_4

	mov	edi, _ZGVZN5Botan5CPUID5stateEvE7g_cpuid
	call	__cxa_guard_acquire
	test	eax, eax
	je	.LBB57_4

.Ltmp23:
	mov	edi, _ZZN5Botan5CPUID5stateEvE7g_cpuid
	call	_ZN5Botan5CPUID10CPUID_DataC1Ev
.Ltmp24:

	mov	edi, _ZGVZN5Botan5CPUID5stateEvE7g_cpuid
	call	__cxa_guard_release
.LBB57_4:
	mov	eax, _ZZN5Botan5CPUID5stateEvE7g_cpuid
	pop	rbx
	ret
.LBB57_5:
.Ltmp25:
	mov	rbx, rax
	mov	edi, _ZGVZN5Botan5CPUID5stateEvE7g_cpuid
	call	__cxa_guard_abort
	mov	rdi, rbx
	call	_Unwind_Resume
.Lfunc_end57:
	.size	_ZN5Botan5CPUID5stateEv, .Lfunc_end57-_ZN5Botan5CPUID5stateEv
	.cfi_endproc
	.section	.gcc_except_table,"a",@progbits
	.p2align	2
GCC_except_table57:
.Lexception7:
	.byte	255                     
	.byte	3                       
	.asciz	"\234"                  
	.byte	3                       
	.byte	26                      
	.long	.Ltmp23-.Lfunc_begin7   
	.long	.Ltmp24-.Ltmp23         
	.long	.Ltmp25-.Lfunc_begin7   
	.byte	0                       
	.long	.Ltmp24-.Lfunc_begin7   
	.long	.Lfunc_end57-.Ltmp24    
	.long	0                       
	.byte	0                       
	.p2align	2

	.section	.text._ZNK5Botan5CPUID10CPUID_Data7has_bitEm,"axG",@progbits,_ZNK5Botan5CPUID10CPUID_Data7has_bitEm,comdat
	.weak	_ZNK5Botan5CPUID10CPUID_Data7has_bitEm 
	.p2align	4, 0x90
	.type	_ZNK5Botan5CPUID10CPUID_Data7has_bitEm,@function
_ZNK5Botan5CPUID10CPUID_Data7has_bitEm: 

	mov	rax, qword ptr [rdi]
	not	rax
	mov	rcx, rsi
	not	rcx
	or	rcx, rax
	not	rcx
	cmp	rcx, rsi
	sete	al
	ret
.Lfunc_end58:
	.size	_ZNK5Botan5CPUID10CPUID_Data7has_bitEm, .Lfunc_end58-_ZNK5Botan5CPUID10CPUID_Data7has_bitEm

	.section	.text._ZNKSt6vectorIjN5Botan16secure_allocatorIjEEE4sizeEv,"axG",@progbits,_ZNKSt6vectorIjN5Botan16secure_allocatorIjEEE4sizeEv,comdat
	.weak	_ZNKSt6vectorIjN5Botan16secure_allocatorIjEEE4sizeEv 
	.p2align	4, 0x90
	.type	_ZNKSt6vectorIjN5Botan16secure_allocatorIjEEE4sizeEv,@function
_ZNKSt6vectorIjN5Botan16secure_allocatorIjEEE4sizeEv: 

	mov	rax, qword ptr [rdi + 8]
	movabs	rcx, -2305309146260371575
	sub	rax, rcx
	sub	rax, qword ptr [rdi]
	add	rax, rcx
	sar	rax, 2
	ret
.Lfunc_end59:
	.size	_ZNKSt6vectorIjN5Botan16secure_allocatorIjEEE4sizeEv, .Lfunc_end59-_ZNKSt6vectorIjN5Botan16secure_allocatorIjEEE4sizeEv

	.text
	.p2align	4, 0x90         
	.type	_ZN5Botan12_GLOBAL__N_19ks_expandEPjPKjm,@function
_ZN5Botan12_GLOBAL__N_19ks_expandEPjPKjm: 

	push	rbp
	push	r15
	push	r14
	push	r13
	push	r12
	push	rbx
	sub	rsp, 24
	mov	r14, rdi
	mov	eax, dword ptr [rip + x.118]
	mov	ecx, dword ptr [rip + y.119]
	lea	edi, [rax - 1]
	imul	edi, eax
	not	edi
	or	edi, -2
	cmp	edi, -1
	sete	byte ptr [rsp + 6]
	cmp	ecx, 10
	setl	byte ptr [rsp + 7]
	mov	eax, -908794238
	movabs	r9, 4146635043641528674
	mov	r10d, 1886618605
	mov	r8d, 1278612178
	mov	r11d, -1974741275

	jmp	.LBB60_1
.LBB60_14:                              
	mov	rax, qword ptr [rsp + 8]
	add	rax, rdx
	mov	eax, dword ptr [rsi + 4*rax]
	mov	rcx, qword ptr [rsp + 8]
	mov	dword ptr [r14 + 4*rcx], eax
	mov	rax, qword ptr [rsp + 8]
	sub	rax, r9
	lea	rdi, [rax + r9 + 1]
	mov	eax, -740310187
	.p2align	4, 0x90
.LBB60_1:                               
	cmp	eax, -740310188
	jle	.LBB60_2

	cmp	eax, 1516212610
	jg	.LBB60_10

	cmp	eax, -740310187
	je	.LBB60_13

	cmp	eax, 1278612178
	jne	.LBB60_1
	jmp	.LBB60_9
	.p2align	4, 0x90
.LBB60_2:                               
	cmp	eax, -1974741275
	je	.LBB60_15

	cmp	eax, -1775970452
	je	.LBB60_14

	cmp	eax, -908794238
	jne	.LBB60_1

	movzx	ebx, byte ptr [rsp + 6]
	movzx	eax, byte ptr [rsp + 7]
	mov	ecx, ebx
	xor	cl, al
	mov	ecx, 1516212611
	cmovne	ecx, r10d
	test	al, al
	mov	eax, ecx
	cmovne	eax, r10d
	test	bl, bl
	cmove	eax, ecx
	jmp	.LBB60_1
	.p2align	4, 0x90
.LBB60_10:                              
	cmp	eax, 1516212611
	je	.LBB60_16

	cmp	eax, 1886618605
	jne	.LBB60_1

	mov	ebx, dword ptr [rip + x.118]
	mov	ebp, dword ptr [rip + y.119]
	mov	eax, ebx
	neg	eax
	not	eax
	imul	eax, ebx
	mov	ebx, eax
	xor	ebx, -2
	and	ebx, eax
	sete	al
	cmp	ebp, 10
	setl	cl
	xor	cl, al
	mov	ecx, 1516212611
	cmovne	ecx, r11d
	test	ebx, ebx
	mov	eax, ecx
	cmove	eax, r11d
	cmp	ebp, 10
	cmovge	eax, ecx
	jmp	.LBB60_1
.LBB60_13:                              
	mov	qword ptr [rsp + 8], rdi
	mov	rax, qword ptr [rsp + 8]
	cmp	rax, 4
	mov	eax, -1775970452
	cmove	eax, r8d
	jmp	.LBB60_1
.LBB60_15:                              
	mov	eax, -740310187
	xor	edi, edi
	jmp	.LBB60_1
.LBB60_16:                              
	mov	eax, 1886618605
	jmp	.LBB60_1
.LBB60_9:
	lea	r15, [r14 + 4]
	mov	edx, 1431655765
	mov	ecx, 1
	mov	rdi, r15
	mov	rsi, r14
	call	_ZN5Botan9swap_bitsIjEEvRT_S2_S1_m
	lea	rbx, [r14 + 12]
	lea	r12, [r14 + 8]
	mov	edx, 1431655765
	mov	ecx, 1
	mov	rdi, rbx
	mov	rsi, r12
	call	_ZN5Botan9swap_bitsIjEEvRT_S2_S1_m
	mov	edx, 858993459
	mov	ecx, 2
	mov	rdi, r12
	mov	rsi, r14
	call	_ZN5Botan9swap_bitsIjEEvRT_S2_S1_m
	mov	edx, 858993459
	mov	ecx, 2
	mov	rdi, rbx
	mov	rsi, r15
	call	_ZN5Botan9swap_bitsIjEEvRT_S2_S1_m
	movups	xmm0, xmmword ptr [r14]
	lea	rdi, [r14 + 16]
	movups	xmmword ptr [r14 + 16], xmm0
	lea	r13, [r14 + 20]
	lea	rbp, [r14 + 24]
	lea	rax, [r14 + 28]
	mov	qword ptr [rsp + 16], rax 
	mov	edx, 252645135
	mov	ecx, 4
	mov	rsi, r14
	call	_ZN5Botan9swap_bitsIjEEvRT_S2_S1_m
	mov	edx, 252645135
	mov	ecx, 4
	mov	rdi, r13
	mov	rsi, r15
	call	_ZN5Botan9swap_bitsIjEEvRT_S2_S1_m
	mov	edx, 252645135
	mov	ecx, 4
	mov	rdi, rbp
	mov	rsi, r12
	call	_ZN5Botan9swap_bitsIjEEvRT_S2_S1_m
	mov	edx, 252645135
	mov	ecx, 4
	mov	rdi, qword ptr [rsp + 16] 
	mov	rsi, rbx
	add	rsp, 24
	pop	rbx
	pop	r12
	pop	r13
	pop	r14
	pop	r15
	pop	rbp
	jmp	_ZN5Botan9swap_bitsIjEEvRT_S2_S1_m 
.Lfunc_end60:
	.size	_ZN5Botan12_GLOBAL__N_19ks_expandEPjPKjm, .Lfunc_end60-_ZN5Botan12_GLOBAL__N_19ks_expandEPjPKjm

	.section	.text._ZNKSt6vectorIjN5Botan16secure_allocatorIjEEE4dataEv,"axG",@progbits,_ZNKSt6vectorIjN5Botan16secure_allocatorIjEEE4dataEv,comdat
	.weak	_ZNKSt6vectorIjN5Botan16secure_allocatorIjEEE4dataEv 
	.p2align	4, 0x90
	.type	_ZNKSt6vectorIjN5Botan16secure_allocatorIjEEE4dataEv,@function
_ZNKSt6vectorIjN5Botan16secure_allocatorIjEEE4dataEv: 

	push	rbp
	push	r15
	push	r14
	push	rbx
	sub	rsp, 24
	mov	rbx, rdi
	mov	eax, dword ptr [rip + x.120]
	lea	ecx, [rax - 1]
	imul	ecx, eax
	not	ecx
	or	ecx, -2
	cmp	ecx, -1
	sete	byte ptr [rsp + 14]
	mov	eax, dword ptr [rip + y.121]
	cmp	eax, 10
	setl	byte ptr [rsp + 15]
	mov	eax, 1201720834
	mov	r15d, -1626925457
	mov	r14d, 1247436751
	mov	ebp, 684548168
	jmp	.LBB61_1
.LBB61_7:                               
	movzx	ecx, byte ptr [rsp + 14]
	movzx	eax, byte ptr [rsp + 15]
	mov	edx, ecx
	xor	dl, al
	mov	edx, 1247436751
	cmovne	edx, ebp
	test	al, al
	mov	eax, edx
	cmovne	eax, ebp
	test	cl, cl
	cmove	eax, edx
	.p2align	4, 0x90
.LBB61_1:                               
	cmp	eax, 1201720833
	jg	.LBB61_5

	cmp	eax, -1626925457
	je	.LBB61_8

	cmp	eax, 684548168
	jne	.LBB61_1

	mov	rsi, qword ptr [rbx]
	mov	rdi, rbx
	call	_ZNKSt6vectorIjN5Botan16secure_allocatorIjEEE11_M_data_ptrIjEEPT_S6_
	mov	qword ptr [rsp + 16], rax
	mov	eax, dword ptr [rip + x.120]
	lea	ecx, [rax - 1]
	imul	ecx, eax
	not	ecx
	or	ecx, -2
	cmp	ecx, -1
	sete	cl
	mov	eax, 1247436751
	cmove	eax, r15d
	cmp	dword ptr [rip + y.121], 10
	setl	dl
	cmovge	eax, r14d
	xor	dl, cl
	cmovne	eax, r15d
	jmp	.LBB61_1
	.p2align	4, 0x90
.LBB61_5:                               
	cmp	eax, 1247436751
	je	.LBB61_9

	cmp	eax, 1201720834
	jne	.LBB61_1
	jmp	.LBB61_7
.LBB61_9:                               
	mov	rsi, qword ptr [rbx]
	mov	rdi, rbx
	call	_ZNKSt6vectorIjN5Botan16secure_allocatorIjEEE11_M_data_ptrIjEEPT_S6_
	mov	eax, 684548168
	jmp	.LBB61_1
.LBB61_8:
	mov	rax, qword ptr [rsp + 16]
	add	rsp, 24
	pop	rbx
	pop	r14
	pop	r15
	pop	rbp
	ret
.Lfunc_end61:
	.size	_ZNKSt6vectorIjN5Botan16secure_allocatorIjEEE4dataEv, .Lfunc_end61-_ZNKSt6vectorIjN5Botan16secure_allocatorIjEEE4dataEv

	.section	.text._ZSt3minImERKT_S2_S2_,"axG",@progbits,_ZSt3minImERKT_S2_S2_,comdat
	.weak	_ZSt3minImERKT_S2_S2_   
	.p2align	4, 0x90
	.type	_ZSt3minImERKT_S2_S2_,@function
_ZSt3minImERKT_S2_S2_:                  

	push	rbp
	push	rbx
	mov	eax, dword ptr [rip + x.122]
	mov	r8d, dword ptr [rip + y.123]
	lea	ecx, [rax - 1]
	imul	ecx, eax
	mov	eax, ecx
	xor	eax, -2
	and	eax, ecx
	sete	cl
	sete	byte ptr [rsp - 3]
	cmp	r8d, 10
	setl	dl
	xor	dl, cl
	mov	ebp, -705496170
	mov	edx, 115991503
	cmovne	edx, ebp
	test	eax, eax
	cmovne	ebp, edx
	cmp	r8d, 10
	setl	byte ptr [rsp - 2]
	mov	r8, qword ptr [rsi]
	mov	r11, qword ptr [rdi]
	cmovge	ebp, edx
	mov	edx, -958167299
	mov	r9d, 1139143054
	mov	r10d, 45801332

	jmp	.LBB62_1
.LBB62_5:                               
	mov	edx, -198845457
	mov	rax, rdi
	.p2align	4, 0x90
.LBB62_1:                               
	cmp	edx, -198845458
	jle	.LBB62_2

	cmp	edx, 115991502
	jg	.LBB62_10

	cmp	edx, -198845457
	je	.LBB62_14

	cmp	edx, 45801332
	jne	.LBB62_1

	mov	edx, -198845457
	mov	rax, rsi
	jmp	.LBB62_1
	.p2align	4, 0x90
.LBB62_2:                               
	cmp	edx, -958167299
	je	.LBB62_16

	cmp	edx, -705496170
	je	.LBB62_13

	cmp	edx, -507631104
	jne	.LBB62_1
	jmp	.LBB62_5
	.p2align	4, 0x90
.LBB62_10:                              
	cmp	edx, 115991503
	je	.LBB62_15

	cmp	edx, 1139143054
	jne	.LBB62_1

	cmp	r8, r11
	setb	byte ptr [rsp - 1]
	mov	edx, ebp
	jmp	.LBB62_1
.LBB62_16:                              
	movzx	ecx, byte ptr [rsp - 3]
	movzx	edx, byte ptr [rsp - 2]
	mov	ebx, ecx
	xor	bl, dl
	mov	ebx, 115991503
	cmovne	ebx, r9d
	test	dl, dl
	mov	edx, ebx
	cmovne	edx, r9d
	test	cl, cl
	cmove	edx, ebx
	jmp	.LBB62_1
.LBB62_13:                              
	movzx	ecx, byte ptr [rsp - 1]
	test	cl, cl
	mov	edx, -507631104
	cmovne	edx, r10d
	jmp	.LBB62_1
.LBB62_15:                              
	mov	edx, 1139143054
	jmp	.LBB62_1
.LBB62_14:
	pop	rbx
	pop	rbp
	ret
.Lfunc_end62:
	.size	_ZSt3minImERKT_S2_S2_, .Lfunc_end62-_ZSt3minImERKT_S2_S2_

	.section	.text._ZN5Botan7load_beIjEEvPT_PKhm,"axG",@progbits,_ZN5Botan7load_beIjEEvPT_PKhm,comdat
	.weak	_ZN5Botan7load_beIjEEvPT_PKhm 
	.p2align	4, 0x90
	.type	_ZN5Botan7load_beIjEEvPT_PKhm,@function
_ZN5Botan7load_beIjEEvPT_PKhm:          
	.cfi_startproc

	push	rbp
.Lcfi356:
	.cfi_def_cfa_offset 16
	push	r15
.Lcfi357:
	.cfi_def_cfa_offset 24
	push	r14
.Lcfi358:
	.cfi_def_cfa_offset 32
	push	r13
.Lcfi359:
	.cfi_def_cfa_offset 40
	push	r12
.Lcfi360:
	.cfi_def_cfa_offset 48
	push	rbx
.Lcfi361:
	.cfi_def_cfa_offset 56
	sub	rsp, 56
.Lcfi362:
	.cfi_def_cfa_offset 112
.Lcfi363:
	.cfi_offset rbx, -56
.Lcfi364:
	.cfi_offset r12, -48
.Lcfi365:
	.cfi_offset r13, -40
.Lcfi366:
	.cfi_offset r14, -32
.Lcfi367:
	.cfi_offset r15, -24
.Lcfi368:
	.cfi_offset rbp, -16
	mov	r13, rdx
	mov	qword ptr [rsp + 32], rsi 
	mov	r15, rdi
	test	r13, r13
	mov	eax, 585682433
	mov	ebp, -866045069
	cmove	ebp, eax
	mov	rax, r13
	xor	rax, -4
	and	rax, r13
	mov	qword ptr [rsp + 48], rax 
	mov	eax, -1933835492


	jmp	.LBB63_1
.LBB63_43:                              
	cmovne	esi, edi
	cmp	edx, -1
	mov	eax, esi
	cmove	eax, edi
	cmp	ecx, 10
	cmovge	eax, esi
	.p2align	4, 0x90
.LBB63_1:                               
	mov	ecx, eax
	cmp	ecx, 513262251
	jg	.LBB63_20

	cmp	ecx, -866045070
	jle	.LBB63_3

	cmp	ecx, -586338719
	jle	.LBB63_12

	cmp	ecx, -586338718
	je	.LBB63_40

	cmp	ecx, 245018859
	je	.LBB63_46

	cmp	ecx, 478182618
	mov	eax, ecx
	jne	.LBB63_1

	movzx	eax, byte ptr [rsp + 7]
	test	al, al
	mov	eax, 1776036773
	mov	ecx, 602902156
	cmovne	eax, ecx
	jmp	.LBB63_1
	.p2align	4, 0x90
.LBB63_20:                              
	cmp	ecx, 710883399
	jg	.LBB63_29

	cmp	ecx, 585682432
	jle	.LBB63_22

	cmp	ecx, 585682433
	je	.LBB63_47

	cmp	ecx, 602902156
	je	.LBB63_44

	cmp	ecx, 707839481
	mov	eax, ecx
	jne	.LBB63_1

	mov	rax, qword ptr [rsp + 16]
	mov	rax, qword ptr [rsp + 8]
	mov	eax, -586338718
	jmp	.LBB63_1
	.p2align	4, 0x90
.LBB63_3:                               
	cmp	ecx, -1689021970
	jle	.LBB63_4

	cmp	ecx, -1689021969
	je	.LBB63_42

	cmp	ecx, -1243937455
	je	.LBB63_50

	cmp	ecx, -995262986
	mov	eax, ecx
	jne	.LBB63_1

	mov	eax, -601792697
	jmp	.LBB63_1
	.p2align	4, 0x90
.LBB63_29:                              
	cmp	ecx, 1776036772
	jle	.LBB63_30

	cmp	ecx, 1776036773
	je	.LBB63_41

	cmp	ecx, 1862194835
	je	.LBB63_39

	cmp	ecx, 2023426671
	mov	eax, ecx
	jne	.LBB63_1

	mov	qword ptr [rsp + 24], r14
	mov	rax, qword ptr [rsp + 40]
	mov	rcx, qword ptr [rsp + 24]
	cmp	rcx, rax
	mov	eax, 245018859
	mov	ecx, 513262252
	cmove	eax, ecx
	jmp	.LBB63_1
.LBB63_12:                              
	cmp	ecx, -866045069
	je	.LBB63_37

	cmp	ecx, -601792697
	je	.LBB63_48

	cmp	ecx, -626618126
	mov	eax, ecx
	jne	.LBB63_1
	jmp	.LBB63_15
.LBB63_22:                              
	cmp	ecx, 513262252
	je	.LBB63_45

	cmp	ecx, 581166935
	mov	eax, ecx
	jne	.LBB63_1

	mov	eax, -1867145553
	xor	r12d, r12d
	jmp	.LBB63_1
.LBB63_4:                               
	cmp	ecx, -1933835492
	mov	eax, ebp
	je	.LBB63_1

	cmp	ecx, -1867145553
	mov	eax, ecx
	jne	.LBB63_1

	mov	qword ptr [rsp + 8], r12
	mov	eax, dword ptr [rip + x.124]
	lea	ecx, [rax - 1]
	imul	ecx, eax
	not	ecx
	or	ecx, -2
	cmp	ecx, -1
	sete	cl
	mov	eax, 707839481
	mov	esi, -586338718
	cmove	eax, esi
	cmp	dword ptr [rip + y.125], 10
	setl	dl
	mov	edi, 707839481
	jmp	.LBB63_38
.LBB63_30:                              
	cmp	ecx, 710883400
	je	.LBB63_49

	cmp	ecx, 1423859605
	mov	eax, ecx
	jne	.LBB63_1

	mov	eax, 2023426671
	xor	r14d, r14d
	jmp	.LBB63_1
.LBB63_40:                              
	mov	rax, qword ptr [rsp + 16]
	mov	rcx, qword ptr [rsp + 8]
	cmp	rcx, rax
	setne	byte ptr [rsp + 7]
	mov	eax, dword ptr [rip + x.124]
	lea	ecx, [rax - 1]
	imul	ecx, eax
	not	ecx
	or	ecx, -2
	cmp	ecx, -1
	sete	cl
	mov	eax, 707839481
	mov	edi, 478182618
	cmove	eax, edi
	cmp	dword ptr [rip + y.125], 10
	setl	dl
	mov	esi, 707839481
	cmovge	eax, esi
	xor	dl, cl
	cmovne	eax, edi
	jmp	.LBB63_1
.LBB63_46:                              
	xor	eax, eax
	sub	rax, qword ptr [rsp + 16]
	sub	rax, qword ptr [rsp + 24]
	shl	rax, 2
	mov	rbx, r15
	sub	rbx, rax
	mov	edi, dword ptr [rbx]
	call	_ZN5Botan13reverse_bytesEj
	mov	dword ptr [rbx], eax
	mov	rax, qword ptr [rsp + 24]
	movabs	rcx, -8112172986680241760
	lea	r14, [rax + rcx + 1]
	sub	r14, rcx
	mov	eax, 2023426671
	jmp	.LBB63_1
.LBB63_47:                              
	mov	eax, dword ptr [rip + x.124]
	mov	ecx, dword ptr [rip + y.125]
	lea	edx, [rax - 1]
	imul	edx, eax
	mov	eax, edx
	xor	eax, -2
	and	eax, edx
	sete	dl
	cmp	ecx, 10
	setl	bl
	xor	bl, dl
	mov	edx, -995262986
	mov	esi, -601792697
	cmovne	edx, esi
	test	eax, eax
	mov	eax, edx
	cmove	eax, esi
	cmp	ecx, 10
	cmovge	eax, edx
	jmp	.LBB63_1
.LBB63_44:                              
	mov	rax, qword ptr [rsp + 8]
	lea	rdi, [r15 + 4*rax]
	call	_ZN5Botan7bswap_4IjEEvPT_
	mov	r12, qword ptr [rsp + 8]
	add	r12, 4
	mov	eax, -1867145553
	jmp	.LBB63_1
.LBB63_42:                              
	mov	eax, dword ptr [rip + x.124]
	mov	ecx, dword ptr [rip + y.125]
	lea	edx, [rax - 1]
	imul	edx, eax
	not	edx
	or	edx, -2
	cmp	edx, -1
	sete	al
	cmp	ecx, 10
	setl	bl
	xor	bl, al
	mov	esi, -1243937455
	mov	edi, 1423859605
	jmp	.LBB63_43
.LBB63_50:                              
	mov	eax, -1689021969
	jmp	.LBB63_1
.LBB63_41:                              
	mov	eax, dword ptr [rip + x.124]
	mov	ecx, dword ptr [rip + y.125]
	mov	edx, eax
	neg	edx
	not	edx
	imul	edx, eax
	not	edx
	or	edx, -2
	cmp	edx, -1
	sete	al
	cmp	ecx, 10
	setl	bl
	xor	bl, al
	mov	esi, -1243937455
	mov	edi, -1689021969
	jmp	.LBB63_43
.LBB63_39:                              
	mov	rdi, r15
	mov	rsi, qword ptr [rsp + 32] 
	mov	rdx, r13
	call	_ZN5Botan13typecast_copyIjEEvPT_PKhm
	mov	eax, dword ptr [rip + x.124]
	mov	ecx, dword ptr [rip + y.125]
	mov	edx, eax
	neg	edx
	not	edx
	imul	edx, eax
	mov	eax, edx
	xor	eax, -2
	and	eax, edx
	sete	dl
	cmp	ecx, 10
	setl	bl
	xor	bl, dl
	mov	edx, 710883400
	mov	esi, 581166935
	cmovne	edx, esi
	test	eax, eax
	mov	eax, edx
	cmove	eax, esi
	cmp	ecx, 10
	mov	rcx, qword ptr [rsp + 48] 
	mov	qword ptr [rsp + 40], rcx
	cmovge	eax, edx
	mov	rcx, r13
	sub	rcx, qword ptr [rsp + 40]
	mov	qword ptr [rsp + 16], rcx
	jmp	.LBB63_1
.LBB63_37:                              
	mov	eax, dword ptr [rip + x.124]
	mov	ecx, eax
	neg	ecx
	not	ecx
	imul	ecx, eax
	not	ecx
	or	ecx, -2
	cmp	ecx, -1
	sete	cl
	mov	eax, 710883400
	mov	esi, 1862194835
	cmove	eax, esi
	cmp	dword ptr [rip + y.125], 10
	setl	dl
	mov	edi, 710883400
.LBB63_38:                              
	cmovge	eax, edi
	xor	dl, cl
	cmovne	eax, esi
	jmp	.LBB63_1
.LBB63_48:                              
	mov	eax, dword ptr [rip + x.124]
	mov	ecx, dword ptr [rip + y.125]
	lea	edx, [rax - 1]
	imul	edx, eax
	not	edx
	or	edx, -2
	cmp	edx, -1
	sete	al
	cmp	ecx, 10
	setl	bl
	xor	bl, al
	mov	esi, -995262986
	mov	edi, -626618126
	jmp	.LBB63_43
.LBB63_45:                              
	mov	eax, 585682433
	jmp	.LBB63_1
.LBB63_49:                              
	mov	rdi, r15
	mov	rsi, qword ptr [rsp + 32] 
	mov	rdx, r13
	call	_ZN5Botan13typecast_copyIjEEvPT_PKhm
	mov	eax, 1862194835
	jmp	.LBB63_1
.LBB63_15:
	add	rsp, 56
	pop	rbx
	pop	r12
	pop	r13
	pop	r14
	pop	r15
	pop	rbp
	ret
.Lfunc_end63:
	.size	_ZN5Botan7load_beIjEEvPT_PKhm, .Lfunc_end63-_ZN5Botan7load_beIjEEvPT_PKhm
	.cfi_endproc

	.section	.text._ZN5Botan2CT6poisonIjEEvPKT_m,"axG",@progbits,_ZN5Botan2CT6poisonIjEEvPKT_m,comdat
	.weak	_ZN5Botan2CT6poisonIjEEvPKT_m 
	.p2align	4, 0x90
	.type	_ZN5Botan2CT6poisonIjEEvPKT_m,@function
_ZN5Botan2CT6poisonIjEEvPKT_m:          

	mov	eax, dword ptr [rip + x.126]
	mov	ecx, dword ptr [rip + y.127]
	lea	edx, [rax - 1]
	imul	edx, eax
	mov	esi, edx
	xor	esi, -2
	and	esi, edx
	sete	byte ptr [rsp - 2]
	sete	al
	cmp	ecx, 10
	setl	dl
	xor	dl, al
	mov	edi, -1441814759
	mov	edx, 2120780710
	cmovne	edx, edi
	test	esi, esi
	cmovne	edi, edx
	cmp	ecx, 10
	setl	byte ptr [rsp - 1]
	cmovge	edi, edx
	mov	edx, 513329254
	mov	esi, -621668035
	jmp	.LBB64_1
.LBB64_4:                               
	mov	edx, edi
	.p2align	4, 0x90
.LBB64_1:                               
	cmp	edx, 513329253
	jg	.LBB64_5

	cmp	edx, -1441814759
	je	.LBB64_8

	cmp	edx, -621668035
	jne	.LBB64_1
	jmp	.LBB64_4
	.p2align	4, 0x90
.LBB64_5:                               
	cmp	edx, 2120780710
	je	.LBB64_9

	cmp	edx, 513329254
	jne	.LBB64_1

	movzx	eax, byte ptr [rsp - 2]
	movzx	edx, byte ptr [rsp - 1]
	mov	ecx, eax
	xor	cl, dl
	mov	ecx, 2120780710
	cmovne	ecx, esi
	test	dl, dl
	mov	edx, ecx
	cmovne	edx, esi
	test	al, al
	cmove	edx, ecx
	jmp	.LBB64_1
.LBB64_9:                               
	mov	edx, -621668035
	jmp	.LBB64_1
.LBB64_8:
	ret
.Lfunc_end64:
	.size	_ZN5Botan2CT6poisonIjEEvPKT_m, .Lfunc_end64-_ZN5Botan2CT6poisonIjEEvPKT_m

	.section	.text._ZNKSt6vectorIjN5Botan16secure_allocatorIjEEEixEm,"axG",@progbits,_ZNKSt6vectorIjN5Botan16secure_allocatorIjEEEixEm,comdat
	.weak	_ZNKSt6vectorIjN5Botan16secure_allocatorIjEEEixEm 
	.p2align	4, 0x90
	.type	_ZNKSt6vectorIjN5Botan16secure_allocatorIjEEEixEm,@function
_ZNKSt6vectorIjN5Botan16secure_allocatorIjEEEixEm: 

	mov	eax, dword ptr [rip + x.128]
	mov	r8d, dword ptr [rip + y.129]
	lea	edx, [rax - 1]
	imul	edx, eax
	mov	ecx, edx
	xor	ecx, -2
	and	ecx, edx
	sete	byte ptr [rsp - 10]
	sete	al
	cmp	r8d, 10
	setl	dl
	xor	dl, al
	mov	eax, 1940838793
	mov	edx, -748372546
	cmovne	edx, eax
	test	ecx, ecx
	cmovne	eax, edx
	cmp	r8d, 10
	setl	byte ptr [rsp - 9]
	cmovge	eax, edx
	mov	edx, 760632445
	mov	r8d, 1971878327
	shl	rsi, 2
	jmp	.LBB65_1
.LBB65_4:                               
	movzx	r9d, byte ptr [rsp - 10]
	movzx	edx, byte ptr [rsp - 9]
	mov	ecx, r9d
	xor	cl, dl
	mov	ecx, -748372546
	cmovne	ecx, r8d
	test	dl, dl
	mov	edx, ecx
	cmovne	edx, r8d
	test	r9b, r9b
	cmove	edx, ecx
	.p2align	4, 0x90
.LBB65_1:                               
	cmp	edx, 1940838792
	jg	.LBB65_5

	cmp	edx, -748372546
	je	.LBB65_9

	cmp	edx, 760632445
	jne	.LBB65_1
	jmp	.LBB65_4
	.p2align	4, 0x90
.LBB65_5:                               
	cmp	edx, 1940838793
	je	.LBB65_8

	cmp	edx, 1971878327
	jne	.LBB65_1

	mov	rcx, qword ptr [rdi]
	add	rcx, rsi
	mov	qword ptr [rsp - 8], rcx
	mov	edx, eax
	jmp	.LBB65_1
.LBB65_9:                               
	mov	edx, 1971878327
	jmp	.LBB65_1
.LBB65_8:
	mov	rax, qword ptr [rsp - 8]
	ret
.Lfunc_end65:
	.size	_ZNKSt6vectorIjN5Botan16secure_allocatorIjEEEixEm, .Lfunc_end65-_ZNKSt6vectorIjN5Botan16secure_allocatorIjEEEixEm

	.text
	.p2align	4, 0x90         
	.type	_ZN5Botan12_GLOBAL__N_113bit_transposeEPj,@function
_ZN5Botan12_GLOBAL__N_113bit_transposeEPj: 

	push	rbp
	push	r15
	push	r14
	push	r13
	push	r12
	push	rbx
	sub	rsp, 40
	mov	rbx, rdi
	lea	rdi, [rbx + 4]
	mov	qword ptr [rsp + 24], rdi 
	mov	edx, 1431655765
	mov	ecx, 1
	mov	rsi, rbx
	call	_ZN5Botan9swap_bitsIjEEvRT_S2_S1_m
	lea	r12, [rbx + 12]
	lea	rbp, [rbx + 8]
	mov	edx, 1431655765
	mov	ecx, 1
	mov	rdi, r12
	mov	qword ptr [rsp + 16], r12 
	mov	rsi, rbp
	mov	qword ptr [rsp + 32], rbp 
	call	_ZN5Botan9swap_bitsIjEEvRT_S2_S1_m
	lea	rdi, [rbx + 20]
	mov	qword ptr [rsp + 8], rdi 
	lea	r15, [rbx + 16]
	mov	edx, 1431655765
	mov	ecx, 1
	mov	rsi, r15
	call	_ZN5Botan9swap_bitsIjEEvRT_S2_S1_m
	lea	r13, [rbx + 28]
	lea	r14, [rbx + 24]
	mov	edx, 1431655765
	mov	ecx, 1
	mov	rdi, r13
	mov	rsi, r14
	call	_ZN5Botan9swap_bitsIjEEvRT_S2_S1_m
	mov	edx, 858993459
	mov	ecx, 2
	mov	rdi, rbp
	mov	rsi, rbx
	call	_ZN5Botan9swap_bitsIjEEvRT_S2_S1_m
	mov	edx, 858993459
	mov	ecx, 2
	mov	rdi, r12
	mov	r12, qword ptr [rsp + 24] 
	mov	rsi, r12
	call	_ZN5Botan9swap_bitsIjEEvRT_S2_S1_m
	mov	edx, 858993459
	mov	ecx, 2
	mov	rdi, r14
	mov	rsi, r15
	call	_ZN5Botan9swap_bitsIjEEvRT_S2_S1_m
	mov	edx, 858993459
	mov	ecx, 2
	mov	rdi, r13
	mov	rbp, qword ptr [rsp + 8] 
	mov	rsi, rbp
	call	_ZN5Botan9swap_bitsIjEEvRT_S2_S1_m
	mov	edx, 252645135
	mov	ecx, 4
	mov	rdi, r15
	mov	rsi, rbx
	call	_ZN5Botan9swap_bitsIjEEvRT_S2_S1_m
	mov	edx, 252645135
	mov	ecx, 4
	mov	rdi, rbp
	mov	rsi, r12
	call	_ZN5Botan9swap_bitsIjEEvRT_S2_S1_m
	mov	edx, 252645135
	mov	ecx, 4
	mov	rdi, r14
	mov	rsi, qword ptr [rsp + 32] 
	call	_ZN5Botan9swap_bitsIjEEvRT_S2_S1_m
	mov	edx, 252645135
	mov	ecx, 4
	mov	rdi, r13
	mov	rsi, qword ptr [rsp + 16] 
	add	rsp, 40
	pop	rbx
	pop	r12
	pop	r13
	pop	r14
	pop	r15
	pop	rbp
	jmp	_ZN5Botan9swap_bitsIjEEvRT_S2_S1_m 
.Lfunc_end66:
	.size	_ZN5Botan12_GLOBAL__N_113bit_transposeEPj, .Lfunc_end66-_ZN5Botan12_GLOBAL__N_113bit_transposeEPj

	.p2align	4, 0x90         
	.type	_ZN5Botan12_GLOBAL__N_18AES_SBOXEPj,@function
_ZN5Botan12_GLOBAL__N_18AES_SBOXEPj:    

	push	rbp
	push	r15
	push	r14
	push	r13
	push	r12
	push	rbx
	mov	ebx, dword ptr [rdi]
	mov	r8d, dword ptr [rdi + 12]
	mov	r14d, dword ptr [rdi + 20]
	mov	r13d, dword ptr [rdi + 24]
	mov	r10, rdi
	mov	edx, r14d
	not	edx
	mov	ecx, edx
	mov	ebp, edx
	mov	dword ptr [rsp - 88], ebp 
	and	ecx, -597554105
	mov	edx, r14d
	and	edx, 597554104
	or	edx, ecx
	mov	ecx, r8d
	not	ecx
	mov	esi, ecx
	and	esi, -597554105
	mov	edi, r8d
	and	edi, 597554104
	or	edi, esi
	xor	edi, edx
	mov	dword ptr [rsp - 68], edi 
	mov	r11d, r13d
	not	r11d
	mov	edx, ebx
	and	edx, r11d
	mov	esi, ebx
	not	esi
	mov	r9d, r13d
	and	r9d, esi
	or	r9d, edx
	mov	edx, ecx
	and	edx, 1364536436
	mov	edi, r8d
	and	edi, -1364536437
	or	edi, edx
	mov	edx, esi
	mov	dword ptr [rsp - 96], esi 
	and	edx, 1364536436
	mov	r15d, ebx
	and	r15d, -1364536437
	or	r15d, edx
	xor	r15d, edi
	mov	edx, ebp
	and	edx, -426896745
	mov	edi, r14d
	and	edi, 426896744
	or	edi, edx
	mov	edx, esi
	and	edx, -426896745
	mov	r12d, ebx
	mov	dword ptr [rsp - 24], ebx 
	and	r12d, 426896744
	or	r12d, edx
	mov	qword ptr [rsp - 8], r10 
	mov	eax, dword ptr [r10 + 8]
	xor	r12d, edi
	mov	edx, eax
	not	edx
	mov	esi, dword ptr [r10 + 4]
	mov	dword ptr [rsp - 92], esi 
	and	edx, esi
	mov	edi, esi
	not	edi
	mov	dword ptr [rsp - 80], edi 
	and	eax, edi
	or	eax, edx
	mov	dword ptr [rsp - 44], eax 
	mov	esi, dword ptr [r10 + 28]
	mov	dword ptr [rsp - 72], esi 
	mov	edx, esi
	not	edx
	mov	dword ptr [rsp - 56], edx 
	and	edx, -278596204
	mov	edi, esi
	and	edi, 278596203
	or	edi, edx
	mov	r10d, eax
	not	r10d
	mov	edx, r10d
	and	edx, -278596204
	mov	esi, eax
	and	esi, 278596203
	or	esi, edx
	xor	esi, edi
	mov	edi, esi
	not	edi
	mov	edx, edi
	mov	ebp, edi
	and	edx, -1579755587
	mov	edi, esi
	and	edi, 1579755586
	or	edi, edx
	and	ecx, -1579755587
	and	r8d, 1579755586
	or	r8d, ecx
	xor	r8d, edi
	mov	dword ptr [rsp - 52], r8d 
	mov	r8d, esi
	and	esi, r11d
	and	r13d, ebp
	or	esi, r13d
	mov	eax, esi
	not	eax
	mov	ecx, eax
	mov	dword ptr [rsp - 40], eax 
	mov	dword ptr [rsp - 12], ebp 
	or	ecx, ebp
	mov	r13d, ecx
	and	ecx, r9d
	mov	dword ptr [rsp - 48], ecx 
	mov	ecx, r9d
	not	r9d
	mov	dword ptr [rsp - 76], r9d 
	mov	edi, dword ptr [rsp - 68] 
	mov	edx, edi
	and	edx, r9d
	not	edi
	mov	dword ptr [rsp - 68], edi 
	and	ecx, edi
	or	ecx, edx
	mov	edx, ebp
	and	edx, -849244385
	and	r8d, 849244384
	or	r8d, edx
	mov	edx, dword ptr [rsp - 96] 
	and	edx, -849244385
	and	ebx, 849244384
	or	ebx, edx
	xor	ebx, r8d
	mov	dword ptr [rsp - 64], ebx 
	mov	edx, eax
	and	edx, 174498716
	and	esi, -174498717
	or	esi, edx
	mov	eax, r12d
	not	eax
	mov	edx, eax
	mov	r9d, eax
	and	edx, 174498716
	mov	eax, r12d
	and	eax, -174498717
	or	eax, edx
	xor	eax, esi
	mov	dword ptr [rsp - 84], eax 
	mov	eax, ecx
	not	eax
	mov	dword ptr [rsp - 60], eax 
	mov	edx, eax
	and	edx, -462463521
	and	ecx, 462463520
	or	ecx, edx
	mov	rdx, qword ptr [rsp - 8] 
	mov	edi, dword ptr [rdx + 16]
	mov	edx, edi
	not	edx
	and	edx, -462463521
	and	edi, 462463520
	or	edi, edx
	xor	edi, ecx
	mov	ecx, edi
	not	ecx
	mov	esi, dword ptr [rsp - 92] 
	and	esi, ecx
	and	ecx, -319132861
	mov	edx, edi
	and	edx, 319132860
	or	edx, ecx
	mov	eax, dword ptr [rsp - 88] 
	and	eax, -319132861
	and	r14d, 319132860
	or	r14d, eax
	xor	r14d, edx
	and	edi, dword ptr [rsp - 80] 
	or	edi, esi
	mov	edx, r14d
	not	edx
	mov	dword ptr [rsp - 36], edx 
	mov	eax, dword ptr [rsp - 72] 
	mov	ecx, eax
	and	ecx, edx
	mov	esi, r14d
	mov	r8d, dword ptr [rsp - 56] 
	and	esi, r8d
	or	esi, ecx
	mov	dword ptr [rsp - 92], esi 
	mov	ecx, edx
	and	ecx, -2028532302
	and	r14d, 2028532301
	or	r14d, ecx
	mov	ecx, r10d
	and	ecx, -2028532302
	mov	ebx, dword ptr [rsp - 44] 
	mov	esi, ebx
	and	esi, 2028532301
	or	esi, ecx
	xor	esi, r14d
	mov	edx, edi
	not	edx
	mov	ecx, edx
	and	ecx, 1081261294
	mov	ebp, edi
	and	ebp, -1081261295
	or	ebp, ecx
	mov	r11d, r15d
	not	r11d
	mov	r14d, r11d
	mov	dword ptr [rsp - 20], r11d 
	and	r14d, 1081261294
	and	r15d, -1081261295
	or	r15d, r14d
	xor	r15d, ebp
	mov	ebp, r15d
	not	ebp
	mov	ecx, ebp
	mov	r14d, ebp
	and	ecx, 692576892
	mov	ebp, r15d
	and	ebp, -692576893
	or	ebp, ecx
	mov	ecx, r8d
	and	ecx, 692576892
	and	eax, -692576893
	or	eax, ecx
	xor	eax, ebp
	mov	dword ptr [rsp - 72], eax 
	mov	eax, dword ptr [rsp - 52] 
	mov	ecx, eax
	xor	ecx, r8d
	and	ecx, eax
	mov	ebp, ecx
	not	ebp
	and	ebp, -1252756792
	and	ecx, 1252756791
	or	ecx, ebp
	mov	dword ptr [rsp - 16], r9d 
	mov	ebp, r9d
	and	ebp, -1252756792
	and	r12d, 1252756791
	or	r12d, ebp
	xor	r12d, ecx
	mov	ecx, esi
	xor	ecx, r9d
	and	ecx, esi
	mov	r8d, r12d
	not	r8d
	and	r8d, esi
	mov	ebp, esi
	not	esi
	mov	dword ptr [rsp - 80], esi 
	and	esi, -122412837
	and	ebp, 122412836
	or	ebp, esi
	and	r10d, r15d
	mov	r9d, r15d
	xor	r9d, r11d
	and	r9d, r15d
	mov	dword ptr [rsp - 32], r14d 
	mov	esi, r14d
	and	esi, -122412837
	and	r15d, 122412836
	or	r15d, esi
	xor	r15d, ebp
	and	ebx, r14d
	or	r10d, ebx
	mov	dword ptr [rsp - 28], r10d 
	not	r15d
	mov	dword ptr [rsp - 44], r15d 
	or	r15d, dword ptr [rsp - 68] 
	mov	esi, r15d
	not	esi
	and	r15d, -107532428
	and	esi, 107532427
	or	esi, r15d
	mov	ebx, r9d
	not	ebx
	mov	r10d, ebx
	and	r10d, -107532428
	mov	r14d, r9d
	and	r14d, 107532427
	or	r14d, r10d
	xor	r14d, esi
	mov	esi, ecx
	not	esi
	and	esi, 1698615919
	and	ecx, -1698615920
	or	ecx, esi
	and	ebx, 1698615919
	and	r9d, -1698615920
	or	r9d, ebx
	xor	r9d, ecx
	mov	ecx, dword ptr [rsp - 36] 
	or	ecx, dword ptr [rsp - 60] 
	mov	esi, ecx
	not	esi
	and	edi, ecx
	and	edx, esi
	or	edx, edi
	mov	edi, edx
	not	edi
	and	edi, 639406391
	and	edx, -639406392
	or	edx, edi
	mov	edi, dword ptr [rsp - 92] 
	not	edi
	mov	dword ptr [rsp - 92], edi 
	mov	eax, dword ptr [rsp - 84] 
	not	eax
	mov	dword ptr [rsp - 84], eax 
	mov	ebx, edi
	or	ebx, eax
	mov	edi, ebx
	not	edi
	and	ebx, 639406391
	and	edi, -639406392
	or	edi, ebx
	xor	edi, edx
	mov	edx, edi
	not	edx
	and	edx, -1245013470
	and	edi, 1245013469
	or	edi, edx
	mov	r11d, r14d
	not	r11d
	mov	edx, r11d
	and	edx, -1245013470
	mov	ebp, r14d
	and	ebp, 1245013469
	or	ebp, edx
	xor	ebp, edi
	and	r12d, dword ptr [rsp - 80] 
	or	r12d, r8d
	mov	edx, r12d
	not	edx
	and	edx, 2070495305
	and	r12d, -2070495306
	or	r12d, edx
	and	ecx, 2070495305
	and	esi, -2070495306
	or	esi, ecx
	xor	esi, r12d
	mov	ecx, esi
	not	ecx
	and	ecx, -142300529
	and	esi, 142300528
	or	esi, ecx
	not	r13d
	mov	r8d, dword ptr [rsp - 76] 
	and	r13d, r8d
	or	r13d, dword ptr [rsp - 48] 
	mov	edi, dword ptr [rsp - 28] 
	mov	eax, edi
	not	eax
	mov	ecx, r13d
	not	ecx
	and	ecx, edi
	and	r13d, eax
	mov	edx, eax
	mov	dword ptr [rsp - 88], edx 
	or	r13d, ecx
	mov	ecx, edx
	and	ecx, -1886937669
	and	edi, 1886937668
	or	edi, ecx
	mov	eax, dword ptr [rsp - 96] 
	and	eax, -1886937669
	mov	ebx, dword ptr [rsp - 24] 
	and	ebx, 1886937668
	or	ebx, eax
	xor	ebx, edi
	mov	ecx, edx
	or	ecx, r8d
	mov	r8d, r13d
	and	r13d, ecx
	mov	edx, ebx
	and	ebx, ecx
	not	ecx
	not	edx
	and	edx, ecx
	or	ebx, edx
	mov	edx, ebx
	not	edx
	and	edx, 249190204
	and	ebx, -249190205
	or	ebx, edx
	mov	edx, dword ptr [rsp - 72] 
	not	edx
	mov	dword ptr [rsp - 72], edx 
	mov	eax, dword ptr [rsp - 64] 
	not	eax
	mov	dword ptr [rsp - 64], eax 
	mov	edi, edx
	or	edi, eax
	mov	edx, edi
	not	edx
	and	edi, 249190204
	and	edx, -249190205
	or	edx, edi
	xor	edx, ebx
	mov	edi, edx
	not	edi
	and	edi, r9d
	mov	r10d, r9d
	not	r9d
	and	edx, r9d
	and	r9d, -142300529
	and	r10d, 142300528
	or	r10d, r9d
	xor	r10d, esi
	not	r8d
	and	r8d, ecx
	or	r13d, r8d
	mov	ecx, r13d
	not	ecx
	and	ecx, 940491370
	and	r13d, -940491371
	or	r13d, ecx
	and	r11d, 940491370
	and	r14d, -940491371
	or	r14d, r11d
	xor	r14d, r13d
	or	edx, edi
	mov	r9d, ebp
	not	r9d
	mov	eax, r10d
	and	eax, r9d
	mov	r15d, r10d
	not	r15d
	and	ebp, r15d
	or	ebp, eax
	mov	eax, r14d
	not	eax
	or	r9d, eax
	mov	ecx, eax
	mov	dword ptr [rsp - 96], ecx 
	mov	r11d, r9d
	not	r11d
	mov	eax, r9d
	and	eax, -350271686
	mov	edi, r11d
	and	edi, 350271685
	or	edi, eax
	mov	r8d, edx
	not	r8d
	mov	eax, r8d
	and	eax, -350271686
	mov	ebx, edx
	and	ebx, 350271685
	or	ebx, eax
	xor	ebx, edi
	mov	r12d, ebx
	not	r12d
	mov	r13d, ebp
	not	r13d
	mov	edi, r12d
	or	edi, r13d
	mov	eax, r10d
	and	eax, edi
	not	edi
	and	edi, r15d
	or	edi, eax
	mov	eax, ecx
	and	eax, 1592560000
	mov	ecx, r14d
	and	ecx, -1592560001
	or	ecx, eax
	mov	esi, r8d
	and	esi, 1592560000
	mov	eax, edx
	and	eax, -1592560001
	or	eax, esi
	xor	eax, ecx
	and	r10d, r9d
	and	r15d, r11d
	or	r15d, r10d
	xor	eax, r15d
	not	eax
	and	eax, r15d
	mov	ecx, eax
	not	ecx
	and	edx, ecx
	mov	r10d, eax
	and	r10d, r8d
	or	r10d, edx
	mov	esi, r10d
	not	esi
	mov	dword ptr [rsp - 48], esi 
	mov	edx, r14d
	and	edx, esi
	mov	r15d, r10d
	and	r15d, dword ptr [rsp - 96] 
	or	r15d, edx
	and	ecx, r11d
	and	eax, r9d
	or	eax, ecx
	not	eax
	or	eax, r8d
	mov	r9d, eax
	not	r9d
	mov	ecx, r15d
	not	ecx
	and	ecx, r9d
	and	r15d, eax
	or	r15d, ecx
	mov	ecx, eax
	and	ecx, 1886438162
	mov	edx, r9d
	and	edx, -1886438163
	or	edx, ecx
	and	r12d, 1886438162
	and	ebx, -1886438163
	or	ebx, r12d
	xor	ebx, edx
	mov	r12d, edi
	not	r12d
	mov	ecx, ebx
	xor	ecx, r12d
	and	ecx, ebx
	mov	edx, ecx
	not	edx
	and	edx, ebp
	and	ecx, r13d
	or	ecx, edx
	mov	r8d, ecx
	not	r8d
	mov	edx, dword ptr [rsp - 84] 
	xor	edx, r15d
	and	edx, r15d
	mov	dword ptr [rsp - 84], edx 
	mov	edx, r15d
	and	r15d, r8d
	not	edx
	mov	esi, ecx
	and	esi, edx
	or	esi, r15d
	mov	ebp, dword ptr [rsp - 56] 
	xor	ebp, r10d
	and	ebp, r10d
	mov	r11d, ebp
	and	r10d, r12d
	mov	r13d, edi
	mov	r15d, dword ptr [rsp - 48] 
	and	r13d, r15d
	or	r13d, r10d
	mov	ebp, dword ptr [rsp - 40] 
	xor	ebp, ecx
	and	ebp, ecx
	mov	dword ptr [rsp - 40], ebp 
	mov	ebp, r8d
	and	ebp, 249390950
	and	ecx, -249390951
	or	ecx, ebp
	mov	ebp, r12d
	and	ebp, 249390950
	and	edi, -249390951
	or	edi, ebp
	xor	edi, ecx
	and	eax, r14d
	and	r9d, dword ptr [rsp - 96] 
	or	r9d, eax
	mov	eax, dword ptr [rsp - 80] 
	xor	eax, esi
	and	eax, esi
	mov	dword ptr [rsp - 80], eax 
	mov	eax, esi
	not	esi
	mov	ecx, r13d
	and	ecx, esi
	mov	ebp, esi
	not	r13d
	and	eax, r13d
	or	eax, ecx
	or	edx, dword ptr [rsp - 92] 
	or	r8d, dword ptr [rsp - 12] 
	mov	ecx, dword ptr [rsp - 68] 
	xor	ecx, eax
	and	ecx, eax
	mov	esi, eax
	not	esi
	or	esi, dword ptr [rsp - 44] 
	mov	eax, dword ptr [rsp - 36] 
	xor	eax, r9d
	and	eax, r9d
	mov	ebx, eax
	not	r9d
	or	r9d, dword ptr [rsp - 60] 
	mov	eax, dword ptr [rsp - 52] 
	not	eax
	or	eax, r15d
	mov	dword ptr [rsp - 52], eax 
	mov	eax, dword ptr [rsp - 88] 
	xor	eax, edi
	and	eax, edi
	mov	r15d, eax
	mov	r14d, dword ptr [rsp - 76] 
	xor	r14d, edi
	and	r14d, edi
	or	dword ptr [rsp - 72], r12d 
	or	r12d, dword ptr [rsp - 64] 
	or	dword ptr [rsp - 32], r13d 
	or	r13d, dword ptr [rsp - 20] 
	or	ebp, dword ptr [rsp - 16] 
	mov	dword ptr [rsp - 64], ebp 
	mov	edi, r13d
	not	edi
	mov	dword ptr [rsp - 92], edi 
	mov	eax, ecx
	not	eax
	and	eax, edi
	and	ecx, r13d
	or	ecx, eax
	mov	dword ptr [rsp - 68], ecx 
	mov	ebp, ecx
	not	ebp
	mov	dword ptr [rsp - 60], ebp 
	mov	edi, dword ptr [rsp - 84] 
	mov	eax, edi
	and	eax, ebp
	not	edi
	and	edi, ecx
	or	edi, eax
	mov	dword ptr [rsp - 84], edi 
	mov	eax, r9d
	not	eax
	mov	ecx, edi
	not	ecx
	mov	dword ptr [rsp - 96], ecx 
	and	eax, ecx
	and	r9d, edi
	or	r9d, eax
	mov	r10d, r11d
	mov	eax, r10d
	not	r10d
	and	r10d, ebx
	mov	edi, edx
	and	edx, ebx
	mov	ecx, ebx
	not	ecx
	and	eax, ecx
	or	r10d, eax
	not	edi
	and	ecx, edi
	or	ecx, edx
	mov	eax, r8d
	not	eax
	mov	dword ptr [rsp - 88], r15d 
	mov	r11d, r15d
	not	r11d
	and	eax, r11d
	and	r8d, r15d
	or	r8d, eax
	mov	dword ptr [rsp - 76], r14d 
	mov	eax, r14d
	not	eax
	mov	dword ptr [rsp - 56], eax 
	and	eax, -868840509
	and	r14d, 868840508
	or	r14d, eax
	mov	eax, r10d
	not	eax
	mov	edi, eax
	and	edi, -868840509
	mov	ebx, r10d
	and	ebx, 868840508
	or	ebx, edi
	xor	ebx, r14d
	mov	edi, esi
	not	edi
	and	esi, r8d
	mov	ebp, r8d
	not	ebp
	and	edi, ebp
	or	edi, esi
	mov	edx, ebx
	not	edx
	mov	esi, dword ptr [rsp - 80] 
	and	edx, esi
	not	esi
	and	esi, ebx
	or	esi, edx
	mov	edx, esi
	not	edx
	and	edx, 479056139
	and	esi, -479056140
	or	esi, edx
	mov	edx, edi
	not	edx
	mov	ebx, edx
	and	ebx, 479056139
	mov	r15d, edi
	and	r15d, -479056140
	or	r15d, ebx
	xor	r15d, esi
	mov	ebx, ecx
	not	ebx
	and	ebx, 299583910
	and	ecx, -299583911
	or	ecx, ebx
	and	ebp, 299583910
	and	r8d, -299583911
	or	r8d, ebp
	xor	r8d, ecx
	mov	ecx, dword ptr [rsp - 72] 
	and	r10d, ecx
	not	ecx
	and	eax, ecx
	or	r10d, eax
	mov	eax, r10d
	not	eax
	and	eax, 1326251768
	and	r10d, -1326251769
	or	r10d, eax
	and	r11d, 1326251768
	mov	eax, dword ptr [rsp - 88] 
	and	eax, -1326251769
	or	eax, r11d
	xor	eax, r10d
	mov	ebp, eax
	mov	eax, r8d
	not	eax
	and	eax, -897749963
	and	r8d, 897749962
	or	r8d, eax
	mov	ecx, r9d
	not	ecx
	mov	eax, ecx
	and	eax, -897749963
	mov	r11d, r9d
	and	r11d, 897749962
	or	r11d, eax
	xor	r11d, r8d
	mov	eax, dword ptr [rsp - 32] 
	and	edi, eax
	not	eax
	and	edx, eax
	or	edi, edx
	mov	r14d, r15d
	not	r14d
	mov	edx, r14d
	and	edx, 135687907
	mov	esi, r15d
	and	esi, -135687908
	or	esi, edx
	mov	edx, r12d
	not	edx
	and	r12d, 135687907
	and	edx, -135687908
	or	edx, r12d
	xor	edx, esi
	mov	esi, dword ptr [rsp - 60] 
	and	esi, -1900405400
	mov	eax, dword ptr [rsp - 68] 
	and	eax, 1900405399
	or	eax, esi
	mov	esi, dword ptr [rsp - 40] 
	mov	r12d, esi
	not	r12d
	and	esi, -1900405400
	and	r12d, 1900405399
	or	r12d, esi
	xor	r12d, eax
	mov	esi, r12d
	not	esi
	mov	dword ptr [rsp - 88], ebp 
	and	esi, ebp
	mov	r8d, ebp
	not	r8d
	and	r12d, r8d
	or	r12d, esi
	mov	ebp, r12d
	not	ebp
	mov	esi, ebp
	and	esi, 2127705590
	mov	ebx, r12d
	and	ebx, -2127705591
	or	ebx, esi
	mov	eax, dword ptr [rsp - 56] 
	and	eax, 2127705590
	mov	esi, dword ptr [rsp - 76] 
	and	esi, -2127705591
	or	esi, eax
	xor	esi, ebx
	mov	dword ptr [rsp - 76], esi 
	mov	ebx, dword ptr [rsp - 84] 
	mov	esi, dword ptr [rsp - 52] 
	and	ebx, esi
	not	esi
	mov	eax, dword ptr [rsp - 96] 
	and	eax, esi
	or	ebx, eax
	and	ecx, -1952387861
	and	r9d, 1952387860
	or	r9d, ecx
	mov	ecx, edi
	not	ecx
	mov	esi, ecx
	and	esi, -1952387861
	mov	r10d, edi
	and	r10d, 1952387860
	or	r10d, esi
	xor	r10d, r9d
	and	ebp, -389684557
	and	r12d, 389684556
	or	r12d, ebp
	and	r14d, -389684557
	and	r15d, 389684556
	or	r15d, r14d
	xor	r15d, r12d
	mov	eax, r11d
	not	eax
	mov	esi, dword ptr [rsp - 88] 
	and	esi, eax
	and	r8d, r11d
	or	r8d, esi
	and	eax, -1925710916
	mov	esi, r11d
	and	esi, 1925710915
	or	esi, eax
	mov	ebp, edi
	and	ebp, -1925710916
	mov	eax, ecx
	and	eax, 1925710915
	or	eax, ebp
	xor	eax, esi
	mov	ebp, dword ptr [rsp - 64] 
	mov	esi, ebp
	not	esi
	and	ebp, -1789816189
	and	esi, 1789816188
	or	esi, ebp
	mov	ebp, dword ptr [rsp - 92] 
	and	ebp, -1789816189
	and	r13d, 1789816188
	or	r13d, ebp
	xor	r13d, esi
	mov	esi, r13d
	not	esi
	and	esi, -691557695
	and	r13d, 691557694
	or	r13d, esi
	and	ecx, -691557695
	and	edi, 691557694
	or	edi, ecx
	xor	edi, r13d
	mov	ecx, edi
	not	ecx
	and	ecx, 1200006594
	and	edi, -1200006595
	or	edi, ecx
	mov	ecx, edx
	not	ecx
	mov	esi, ecx
	and	esi, 1200006594
	mov	ebp, edx
	and	ebp, -1200006595
	or	ebp, esi
	xor	ebp, edi
	mov	esi, ebx
	not	esi
	and	esi, -1408239337
	and	ebx, 1408239336
	or	ebx, esi
	and	ecx, -1408239337
	and	edx, 1408239336
	or	edx, ecx
	xor	edx, ebx
	mov	rcx, qword ptr [rsp - 8] 
	mov	dword ptr [rcx], r10d
	mov	dword ptr [rcx + 4], eax
	mov	dword ptr [rcx + 8], ebp
	mov	dword ptr [rcx + 12], r11d
	mov	dword ptr [rcx + 16], r8d
	mov	dword ptr [rcx + 20], edx
	mov	dword ptr [rcx + 24], r15d
	mov	eax, dword ptr [rsp - 76] 
	mov	dword ptr [rcx + 28], eax
	pop	rbx
	pop	r12
	pop	r13
	pop	r14
	pop	r15
	pop	rbp
	ret
.Lfunc_end67:
	.size	_ZN5Botan12_GLOBAL__N_18AES_SBOXEPj, .Lfunc_end67-_ZN5Botan12_GLOBAL__N_18AES_SBOXEPj

	.p2align	4, 0x90         
	.type	_ZN5Botan12_GLOBAL__N_110shift_rowsEPj,@function
_ZN5Botan12_GLOBAL__N_110shift_rowsEPj: 

	push	rbp
	push	r15
	push	r14
	push	r13
	push	r12
	push	rbx
	sub	rsp, 24
	mov	r14, rdi
	movabs	r13, 1190437560772592837
	mov	eax, dword ptr [rip + x.134]
	mov	ecx, dword ptr [rip + y.135]
	lea	edx, [rax - 1]
	imul	edx, eax
	mov	eax, edx
	xor	eax, -2
	test	eax, edx
	sete	byte ptr [rsp + 13]
	cmp	ecx, 10
	setl	byte ptr [rsp + 14]
	mov	ecx, 495179893
	mov	r8d, -1775534214
	mov	r15d, -660785821

	jmp	.LBB68_1
.LBB68_28:                              
	cmove	ecx, esi
	cmp	dword ptr [rip + y.135], 10
	setl	al
	cmovge	ecx, r8d
	xor	al, dl
	cmovne	ecx, esi
	.p2align	4, 0x90
.LBB68_1:                               
	cmp	ecx, -1189480381
	jle	.LBB68_2

	cmp	ecx, 573616008
	jle	.LBB68_12

	cmp	ecx, 918833612
	jle	.LBB68_17

	cmp	ecx, 918833613
	je	.LBB68_23

	cmp	ecx, 1812874378
	jne	.LBB68_1

	movzx	eax, byte ptr [rsp + 15]
	test	al, al
	mov	ecx, -1189480380
	mov	eax, -1206735304
	cmovne	ecx, eax
	jmp	.LBB68_1
	.p2align	4, 0x90
.LBB68_2:                               
	cmp	ecx, -1303908361
	jg	.LBB68_7

	cmp	ecx, -1961889367
	je	.LBB68_29

	cmp	ecx, -1905916444
	je	.LBB68_31

	cmp	ecx, -1775534214
	jne	.LBB68_1

	mov	ecx, -1961889367
	jmp	.LBB68_1
	.p2align	4, 0x90
.LBB68_12:                              
	cmp	ecx, -1189480380
	je	.LBB68_27

	cmp	ecx, -660785821
	je	.LBB68_24

	cmp	ecx, 495179893
	jne	.LBB68_1

	movzx	ebx, byte ptr [rsp + 13]
	movzx	ecx, byte ptr [rsp + 14]
	mov	edx, ebx
	xor	dl, cl
	mov	edx, 691625270
	mov	eax, 918833613
	cmovne	edx, eax
	test	cl, cl
	mov	ecx, edx
	cmovne	ecx, eax
	test	bl, bl
	cmove	ecx, edx
	jmp	.LBB68_1
	.p2align	4, 0x90
.LBB68_7:                               
	cmp	ecx, -1303908360
	je	.LBB68_25

	cmp	ecx, -1217491134
	je	.LBB68_26

	cmp	ecx, -1206735304
	jne	.LBB68_1

	mov	r12, qword ptr [rsp + 16]
	mov	eax, dword ptr [r14 + 4*r12]
	shl	rax, 32
	mov	rbp, qword ptr [rsp + 16]
	mov	ecx, dword ptr [r14 + 4*rbp + 4]
	mov	rdx, rax
	not	rdx
	mov	rdi, r13
	not	rdi
	and	rax, rdi
	and	rdi, rcx
	not	rcx
	and	rdx, r13
	or	rax, rdx
	and	rcx, r13
	or	rdi, rcx
	xor	rdi, rax
	mov	edx, 2
	movabs	rsi, 9626297317864209
	call	_ZN5Botan16bit_permute_stepImEET_S1_S1_m
	mov	edx, 1
	mov	rdi, rax
	movabs	rsi, 23925738098196565
	call	_ZN5Botan16bit_permute_stepImEET_S1_S1_m
	mov	r8d, -1775534214
	mov	rcx, rax
	shr	rcx, 32
	mov	dword ptr [r14 + 4*r12], ecx
	mov	dword ptr [r14 + 4*rbp + 4], eax
	mov	rax, qword ptr [rsp + 16]
	movabs	rcx, -167058764634193280
	lea	rdi, [rax + rcx + 2]
	sub	rdi, rcx
	mov	ecx, -1303908360
	jmp	.LBB68_1
.LBB68_17:                              
	cmp	ecx, 691625270
	je	.LBB68_30

	cmp	ecx, 573616009
	jne	.LBB68_1
	jmp	.LBB68_19
.LBB68_23:                              
	mov	ecx, dword ptr [rip + x.134]
	lea	edx, [rcx - 1]
	imul	edx, ecx
	mov	ecx, edx
	xor	ecx, -2
	and	ecx, edx
	sete	dl
	test	ecx, ecx
	mov	ecx, 691625270
	cmove	ecx, r15d
	cmp	dword ptr [rip + y.135], 10
	setl	bl
	mov	eax, 691625270
	cmovge	ecx, eax
	xor	bl, dl
	cmovne	ecx, r15d
	jmp	.LBB68_1
.LBB68_29:                              
	mov	eax, dword ptr [rip + x.134]
	lea	ecx, [rax - 1]
	imul	ecx, eax
	mov	eax, ecx
	xor	eax, -2
	and	eax, ecx
	sete	dl
	test	eax, eax
	mov	ecx, -1775534214
	mov	esi, 573616009
	jmp	.LBB68_28
.LBB68_31:                              
	mov	rax, qword ptr [rsp + 16]
	mov	ecx, -1217491134
	jmp	.LBB68_1
.LBB68_27:                              
	mov	eax, dword ptr [rip + x.134]
	lea	ecx, [rax - 1]
	imul	ecx, eax
	mov	eax, ecx
	xor	eax, -2
	and	eax, ecx
	sete	dl
	test	eax, eax
	mov	ecx, -1775534214
	mov	esi, -1961889367
	jmp	.LBB68_28
.LBB68_24:                              
	mov	ecx, -1303908360
	xor	edi, edi
	jmp	.LBB68_1
.LBB68_25:                              
	mov	qword ptr [rsp + 16], rdi
	mov	ecx, dword ptr [rip + x.134]
	lea	edx, [rcx - 1]
	imul	edx, ecx
	not	edx
	or	edx, -2
	cmp	edx, -1
	sete	dl
	mov	ecx, -1905916444
	mov	eax, -1217491134
	cmove	ecx, eax
	cmp	dword ptr [rip + y.135], 10
	setl	bl
	mov	esi, -1905916444
	cmovge	ecx, esi
	xor	bl, dl
	cmovne	ecx, eax
	jmp	.LBB68_1
.LBB68_26:                              
	mov	ecx, dword ptr [rip + x.134]
	mov	edx, dword ptr [rip + y.135]
	lea	esi, [rcx - 1]
	imul	esi, ecx
	mov	ecx, esi
	xor	ecx, -2
	and	ecx, esi
	sete	bl
	cmp	edx, 10
	setl	al
	xor	al, bl
	mov	eax, -1905916444
	mov	esi, 1812874378
	cmovne	eax, esi
	test	ecx, ecx
	mov	ecx, eax
	cmove	ecx, esi
	cmp	edx, 10
	mov	rdx, qword ptr [rsp + 16]
	cmovge	ecx, eax
	cmp	rdx, 8
	setne	byte ptr [rsp + 15]
	jmp	.LBB68_1
.LBB68_30:                              
	mov	ecx, 918833613
	jmp	.LBB68_1
.LBB68_19:
	add	rsp, 24
	pop	rbx
	pop	r12
	pop	r13
	pop	r14
	pop	r15
	pop	rbp
	ret
.Lfunc_end68:
	.size	_ZN5Botan12_GLOBAL__N_110shift_rowsEPj, .Lfunc_end68-_ZN5Botan12_GLOBAL__N_110shift_rowsEPj

	.p2align	4, 0x90         
	.type	_ZN5Botan12_GLOBAL__N_111mix_columnsEPj,@function
_ZN5Botan12_GLOBAL__N_111mix_columnsEPj: 

	push	rbp
	push	r15
	push	r14
	push	r13
	push	r12
	push	rbx
	sub	rsp, 56
	mov	r14, rdi
	lea	rax, [rsp + 16]
	mov	qword ptr [rsp + 8], rax
	mov	rax, qword ptr [rsp + 8]
	mov	eax, dword ptr [r14 + 4]
	mov	dword ptr [rsp + 16], eax
	mov	eax, dword ptr [r14 + 8]
	mov	dword ptr [rsp + 20], eax
	mov	eax, dword ptr [r14 + 12]
	mov	dword ptr [rsp + 24], eax
	mov	eax, dword ptr [r14]
	mov	edx, dword ptr [r14 + 16]
	mov	ecx, eax
	not	ecx
	mov	esi, ecx
	and	esi, -1659276785
	mov	edi, eax
	and	edi, 1659276784
	or	edi, esi
	mov	esi, edx
	not	esi
	and	esi, -1659276785
	and	edx, 1659276784
	or	edx, esi
	xor	edx, edi
	mov	dword ptr [rsp + 28], edx
	mov	edx, dword ptr [r14 + 20]
	mov	esi, edx
	not	esi
	and	esi, 609882705
	and	edx, -609882706
	or	edx, esi
	mov	esi, ecx
	and	esi, 609882705
	mov	edi, eax
	and	edi, -609882706
	or	edi, esi
	xor	edi, edx
	mov	dword ptr [rsp + 32], edi
	mov	edx, dword ptr [r14 + 24]
	mov	dword ptr [rsp + 36], edx
	mov	edx, dword ptr [r14 + 28]
	mov	esi, edx
	not	esi
	and	esi, 683674877
	and	edx, -683674878
	or	edx, esi
	and	ecx, 683674877
	mov	esi, eax
	and	esi, -683674878
	or	esi, ecx
	xor	esi, edx
	mov	dword ptr [rsp + 40], esi
	mov	dword ptr [rsp + 44], eax
	xor	r15d, r15d
	jmp	.LBB69_1
	.p2align	4, 0x90
.LBB69_13:                              
	mov	r15, qword ptr [rsp + 48]
.LBB69_1:                               

	mov	eax, -1458192221
	jmp	.LBB69_2
.LBB69_11:                              
	mov	qword ptr [rsp], r15
	mov	rax, qword ptr [rsp]
	cmp	rax, 8
	mov	eax, 432838236
	mov	ecx, -802921774
	cmove	eax, ecx
	.p2align	4, 0x90
.LBB69_2:                               

	cmp	eax, 1185707515
	jg	.LBB69_7

	cmp	eax, -1458192221
	je	.LBB69_11

	cmp	eax, -802921774
	je	.LBB69_12

	cmp	eax, 432838236
	jne	.LBB69_2

	mov	eax, dword ptr [rip + x.136]
	lea	ecx, [rax - 1]
	imul	ecx, eax
	not	ecx
	or	ecx, -2
	cmp	ecx, -1
	sete	cl
	mov	eax, 1603816260
	mov	esi, 2025524947
	cmove	eax, esi
	cmp	dword ptr [rip + y.137], 10
	setl	dl
	mov	edi, 1603816260
	cmovge	eax, edi
	xor	dl, cl
	cmovne	eax, esi
	jmp	.LBB69_2
	.p2align	4, 0x90
.LBB69_7:                               
	cmp	eax, 1185707516
	je	.LBB69_13

	cmp	eax, 1603816260
	je	.LBB69_14

	cmp	eax, 2025524947
	jne	.LBB69_2

	mov	r12, qword ptr [rsp]
	mov	edi, dword ptr [r14 + 4*r12]
	mov	rax, qword ptr [rsp]
	mov	ebx, dword ptr [rsp + 4*rax + 16]
	mov	ebp, ebx
	not	ebp
	mov	eax, edi
	and	eax, ebp
	mov	r13d, edi
	not	r13d
	and	r13d, ebx
	or	r13d, eax
	call	_ZN5Botan4rotrILm8EjEET0_S1_
	and	ebp, eax
	not	eax
	and	eax, ebx
	or	ebp, eax
	mov	edi, dword ptr [r14 + 4*r12]
	call	_ZN5Botan4rotrILm16EjEET0_S1_
	mov	ebx, eax
	mov	eax, ebp
	not	eax
	and	eax, -594954755
	and	ebp, 594954754
	or	ebp, eax
	mov	eax, ebx
	not	eax
	and	eax, -594954755
	and	ebx, 594954754
	or	ebx, eax
	xor	ebx, ebp
	mov	edi, r13d
	call	_ZN5Botan4rotrILm24EjEET0_S1_
	mov	ecx, ebx
	not	ecx
	and	ecx, eax
	not	eax
	and	eax, ebx
	or	eax, ecx
	mov	dword ptr [r14 + 4*r12], eax
	mov	eax, dword ptr [rip + x.136]
	mov	ecx, dword ptr [rip + y.137]
	mov	edx, eax
	neg	edx
	not	edx
	imul	edx, eax
	not	edx
	or	edx, -2
	cmp	edx, -1
	sete	al
	cmp	ecx, 10
	setl	bl
	xor	bl, al
	mov	esi, 1603816260
	mov	edi, 1185707516
	cmovne	esi, edi
	cmp	edx, -1
	mov	eax, esi
	cmove	eax, edi
	cmp	ecx, 10
	mov	rcx, qword ptr [rsp]
	movabs	rdx, -7775535342775944536
	lea	rcx, [rcx + rdx + 1]
	cmovge	eax, esi
	sub	rcx, rdx
	mov	qword ptr [rsp + 48], rcx
	jmp	.LBB69_2
.LBB69_14:                              
	mov	r12, qword ptr [rsp]
	mov	edi, dword ptr [r14 + 4*r12]
	mov	rax, qword ptr [rsp]
	mov	ebx, dword ptr [rsp + 4*rax + 16]
	mov	r13d, ebx
	not	r13d
	mov	eax, edi
	and	eax, r13d
	mov	ebp, edi
	not	ebp
	and	ebp, ebx
	or	ebp, eax
	call	_ZN5Botan4rotrILm8EjEET0_S1_
	and	r13d, eax
	not	eax
	and	eax, ebx
	or	r13d, eax
	mov	edi, dword ptr [r14 + 4*r12]
	call	_ZN5Botan4rotrILm16EjEET0_S1_
	mov	ebx, eax
	mov	eax, r13d
	not	eax
	and	eax, -555919684
	and	r13d, 555919683
	or	r13d, eax
	mov	eax, ebx
	not	eax
	and	eax, -555919684
	and	ebx, 555919683
	or	ebx, eax
	xor	ebx, r13d
	mov	edi, ebp
	call	_ZN5Botan4rotrILm24EjEET0_S1_
	mov	ecx, ebx
	not	ecx
	and	ecx, -387833632
	and	ebx, 387833631
	or	ebx, ecx
	mov	ecx, eax
	not	ecx
	and	ecx, -387833632
	and	eax, 387833631
	or	eax, ecx
	xor	eax, ebx
	mov	dword ptr [r14 + 4*r12], eax
	mov	rax, qword ptr [rsp]
	mov	rax, qword ptr [rsp]
	mov	eax, 2025524947
	jmp	.LBB69_2
.LBB69_12:
	mov	rax, qword ptr [rsp + 8]
	add	rsp, 56
	pop	rbx
	pop	r12
	pop	r13
	pop	r14
	pop	r15
	pop	rbp
	ret
.Lfunc_end69:
	.size	_ZN5Botan12_GLOBAL__N_111mix_columnsEPj, .Lfunc_end69-_ZN5Botan12_GLOBAL__N_111mix_columnsEPj

	.section	.text._ZN5Botan2CT8unpoisonIjEEvPKT_m,"axG",@progbits,_ZN5Botan2CT8unpoisonIjEEvPKT_m,comdat
	.weak	_ZN5Botan2CT8unpoisonIjEEvPKT_m 
	.p2align	4, 0x90
	.type	_ZN5Botan2CT8unpoisonIjEEvPKT_m,@function
_ZN5Botan2CT8unpoisonIjEEvPKT_m:        

	mov	eax, dword ptr [rip + x.138]
	mov	ecx, dword ptr [rip + y.139]
	mov	edx, eax
	neg	edx
	not	edx
	imul	edx, eax
	mov	eax, edx
	xor	eax, -2
	and	eax, edx
	sete	dl
	sete	byte ptr [rsp - 2]
	test	eax, eax
	mov	esi, 61865006
	mov	edi, 421574058
	mov	eax, 421574058
	cmove	eax, esi
	cmp	ecx, 10
	setl	cl
	setl	byte ptr [rsp - 1]
	cmovge	eax, edi
	xor	cl, dl
	cmovne	eax, esi
	mov	edx, -679036973
	mov	esi, -1043657771
	jmp	.LBB70_1
.LBB70_3:                               
	mov	edx, eax
	.p2align	4, 0x90
.LBB70_1:                               
	cmp	edx, 61865005
	jg	.LBB70_4

	cmp	edx, -1043657771
	je	.LBB70_3

	cmp	edx, -679036973
	jne	.LBB70_1

	movzx	edi, byte ptr [rsp - 2]
	movzx	edx, byte ptr [rsp - 1]
	mov	ecx, edi
	xor	cl, dl
	mov	ecx, 421574058
	cmovne	ecx, esi
	test	dl, dl
	mov	edx, ecx
	cmovne	edx, esi
	test	dil, dil
	cmove	edx, ecx
	jmp	.LBB70_1
	.p2align	4, 0x90
.LBB70_4:                               
	cmp	edx, 61865006
	je	.LBB70_9

	cmp	edx, 421574058
	jne	.LBB70_1

	mov	edx, -1043657771
	jmp	.LBB70_1
.LBB70_9:
	ret
.Lfunc_end70:
	.size	_ZN5Botan2CT8unpoisonIjEEvPKT_m, .Lfunc_end70-_ZN5Botan2CT8unpoisonIjEEvPKT_m

	.section	.text._ZN5Botan11copy_out_beIjEEvPhmPKT_,"axG",@progbits,_ZN5Botan11copy_out_beIjEEvPhmPKT_,comdat
	.weak	_ZN5Botan11copy_out_beIjEEvPhmPKT_ 
	.p2align	4, 0x90
	.type	_ZN5Botan11copy_out_beIjEEvPhmPKT_,@function
_ZN5Botan11copy_out_beIjEEvPhmPKT_:     
	.cfi_startproc

	push	rbp
.Lcfi369:
	.cfi_def_cfa_offset 16
	push	r15
.Lcfi370:
	.cfi_def_cfa_offset 24
	push	r14
.Lcfi371:
	.cfi_def_cfa_offset 32
	push	r13
.Lcfi372:
	.cfi_def_cfa_offset 40
	push	r12
.Lcfi373:
	.cfi_def_cfa_offset 48
	push	rbx
.Lcfi374:
	.cfi_def_cfa_offset 56
	sub	rsp, 56
.Lcfi375:
	.cfi_def_cfa_offset 112
.Lcfi376:
	.cfi_offset rbx, -56
.Lcfi377:
	.cfi_offset r12, -48
.Lcfi378:
	.cfi_offset r13, -40
.Lcfi379:
	.cfi_offset r14, -32
.Lcfi380:
	.cfi_offset r15, -24
.Lcfi381:
	.cfi_offset rbp, -16
	mov	r13, rdx
	mov	r15, rsi
	mov	r14, rdi
	movabs	rbp, 1610547155663048109
	mov	eax, 1435725070

	jmp	.LBB71_1
.LBB71_58:                              
	mov	rax, qword ptr [rsp + 8]
	mov	rax, qword ptr [rsp + 8]
	mov	rax, qword ptr [rsp + 8]
	mov	rax, qword ptr [rsp + 8]
	mov	rax, qword ptr [rsp + 8]
	mov	rax, qword ptr [rsp + 8]
	mov	rax, qword ptr [rsp + 8]
	mov	rax, qword ptr [rsp + 8]
	mov	rdi, rax
	xor	rdi, -8
	and	rdi, rax
	mov	rax, qword ptr [rsp + 32]
	mov	esi, dword ptr [rax]
	call	_ZN5Botan8get_byteIjEEhmT_
	mov	rcx, qword ptr [rsp + 40]
	mov	rdx, qword ptr [rsp + 8]
	mov	byte ptr [rcx + rdx], al
	mov	rax, qword ptr [rsp + 8]
	mov	rax, qword ptr [rsp + 8]
	mov	rax, qword ptr [rsp + 8]
	mov	rax, qword ptr [rsp + 8]
	mov	rax, qword ptr [rsp + 8]
	mov	rax, qword ptr [rsp + 8]
	mov	eax, -1952371444
	.p2align	4, 0x90
.LBB71_1:                               
	cmp	eax, -612506452
	jle	.LBB71_2

	cmp	eax, 1216033315
	jle	.LBB71_15

	cmp	eax, 1456562558
	jg	.LBB71_34

	cmp	eax, 1216033316
	je	.LBB71_41

	cmp	eax, 1435725070
	jne	.LBB71_1

	mov	eax, dword ptr [rip + x.140]
	mov	ecx, dword ptr [rip + y.141]
	lea	edx, [rax - 1]
	imul	edx, eax
	mov	esi, edx
	xor	esi, -2
	and	esi, edx
	sete	al
	cmp	ecx, 10
	setl	dl
	xor	dl, al
	mov	edx, 1216033316
	mov	eax, 1216033316
	jne	.LBB71_31

	mov	eax, -1576915151
.LBB71_31:                              
	test	esi, esi
	je	.LBB71_33

	mov	edx, eax
.LBB71_33:                              
	cmp	ecx, 10
	mov	qword ptr [rsp + 32], r13
	mov	qword ptr [rsp + 24], r15
	mov	qword ptr [rsp + 40], r14
	cmovl	eax, edx
	jmp	.LBB71_1
	.p2align	4, 0x90
.LBB71_2:                               
	cmp	eax, -1805415794
	jle	.LBB71_3

	cmp	eax, -1458782385
	jg	.LBB71_11

	cmp	eax, -1805415793
	je	.LBB71_47

	cmp	eax, -1576915151
	jne	.LBB71_1

	mov	rax, qword ptr [rsp + 24]
	mov	eax, 1216033316
	jmp	.LBB71_1
	.p2align	4, 0x90
.LBB71_15:                              
	cmp	eax, -358306146
	jg	.LBB71_23

	cmp	eax, -612506451
	je	.LBB71_48

	cmp	eax, -388305436
	jne	.LBB71_1

	mov	eax, dword ptr [rip + x.140]
	mov	ecx, dword ptr [rip + y.141]
	mov	esi, eax
	neg	esi
	not	esi
	imul	esi, eax
	mov	edx, esi
	xor	edx, -2
	and	edx, esi
	sete	al
	cmp	ecx, 10
	setl	bl
	xor	bl, al
	mov	esi, -1952371444
	mov	eax, -1952371444
	jne	.LBB71_20

	mov	eax, -2075908144
.LBB71_20:                              
	test	edx, edx
	je	.LBB71_22

	mov	esi, eax
.LBB71_22:                              
	cmp	ecx, 10
	cmovl	eax, esi
	jmp	.LBB71_1
	.p2align	4, 0x90
.LBB71_3:                               
	cmp	eax, -2075908144
	je	.LBB71_58

	cmp	eax, -1952371444
	je	.LBB71_54

	cmp	eax, -1868171853
	jne	.LBB71_1

	mov	eax, 1690375323
	xor	r12d, r12d
	jmp	.LBB71_1
.LBB71_34:                              
	cmp	eax, 1456562559
	je	.LBB71_57

	cmp	eax, 1690375323
	jne	.LBB71_1

	mov	eax, dword ptr [rip + x.140]
	mov	ecx, dword ptr [rip + y.141]
	mov	esi, eax
	neg	esi
	not	esi
	imul	esi, eax
	mov	edx, esi
	xor	edx, -2
	and	edx, esi
	sete	al
	cmp	ecx, 10
	setl	bl
	xor	bl, al
	mov	esi, -612506451
	mov	eax, -612506451
	jne	.LBB71_38

	mov	eax, 1456562559
.LBB71_38:                              
	test	edx, edx
	je	.LBB71_40

	mov	esi, eax
.LBB71_40:                              
	cmp	ecx, 10
	mov	qword ptr [rsp + 8], r12
	cmovl	eax, esi
	jmp	.LBB71_1
.LBB71_11:                              
	cmp	eax, -1458782384
	je	.LBB71_45

	cmp	eax, -752477038
	jne	.LBB71_1

	mov	eax, 1690375323
	mov	r12, qword ptr [rsp + 48]
	jmp	.LBB71_1
.LBB71_23:                              
	cmp	eax, -358306145
	je	.LBB71_52

	cmp	eax, 335974633
	jne	.LBB71_1
	jmp	.LBB71_25
.LBB71_41:                              
	mov	rax, qword ptr [rsp + 24]
	cmp	rax, 3
	seta	byte ptr [rsp + 22]
	mov	eax, dword ptr [rip + x.140]
	mov	ecx, dword ptr [rip + y.141]
	mov	edx, eax
	neg	edx
	not	edx
	imul	edx, eax
	not	edx
	or	edx, -2
	cmp	edx, -1
	sete	bl
	mov	eax, -1458782384
	mov	edx, -1576915151
	mov	esi, -1458782384
	je	.LBB71_43

	mov	esi, -1576915151
.LBB71_43:                              
	cmp	ecx, 10
	setl	cl
	cmovl	edx, esi
	xor	cl, bl
	jne	.LBB71_1

	mov	eax, edx
	jmp	.LBB71_1
.LBB71_47:                              
	mov	rax, qword ptr [rsp + 32]
	mov	edi, dword ptr [rax]
	mov	rsi, qword ptr [rsp + 40]
	call	_ZN5Botan8store_beEjPh
	mov	r14, qword ptr [rsp + 40]
	add	r14, 4
	mov	rax, qword ptr [rsp + 24]
	movabs	rcx, -1887616531785795224
	lea	r15, [rax + rcx - 4]
	sub	r15, rcx
	mov	r13, qword ptr [rsp + 32]
	add	r13, 4
	mov	eax, 1435725070
	jmp	.LBB71_1
.LBB71_48:                              
	mov	rax, qword ptr [rsp + 24]
	mov	rcx, qword ptr [rsp + 8]
	cmp	rcx, rax
	setne	byte ptr [rsp + 23]
	mov	eax, dword ptr [rip + x.140]
	mov	ecx, dword ptr [rip + y.141]
	lea	edx, [rax - 1]
	imul	edx, eax
	not	edx
	or	edx, -2
	cmp	edx, -1
	sete	bl
	mov	eax, -358306145
	mov	edx, 1456562559
	mov	esi, -358306145
	je	.LBB71_50

	mov	esi, 1456562559
.LBB71_50:                              
	cmp	ecx, 10
	setl	cl
	cmovl	edx, esi
	xor	cl, bl
	jne	.LBB71_1

	mov	eax, edx
	jmp	.LBB71_1
.LBB71_54:                              
	mov	rdi, qword ptr [rsp + 8]
	movabs	rax, -3898012196536366693
	mov	rcx, rax
	not	eax
	or	eax, ecx
	and	edi, eax
	and	edi, 7
	mov	rax, qword ptr [rsp + 32]
	mov	esi, dword ptr [rax]
	call	_ZN5Botan8get_byteIjEEhmT_
	mov	rcx, qword ptr [rsp + 40]
	mov	rdx, qword ptr [rsp + 8]
	mov	byte ptr [rcx + rdx], al
	mov	eax, dword ptr [rip + x.140]
	mov	ecx, dword ptr [rip + y.141]
	lea	edx, [rax - 1]
	imul	edx, eax
	not	edx
	or	edx, -2
	cmp	edx, -1
	sete	al
	cmp	ecx, 10
	setl	bl
	xor	bl, al
	mov	eax, -752477038
	mov	esi, -752477038
	jne	.LBB71_56

	mov	esi, -2075908144
.LBB71_56:                              
	cmp	edx, -1
	cmovne	eax, esi
	cmp	ecx, 10
	mov	rcx, qword ptr [rsp + 8]
	lea	rcx, [rcx + rbp + 1]
	cmovge	eax, esi
	sub	rcx, rbp
	mov	qword ptr [rsp + 48], rcx
	jmp	.LBB71_1
.LBB71_57:                              
	mov	rax, qword ptr [rsp + 24]
	mov	rax, qword ptr [rsp + 8]
	mov	eax, -612506451
	jmp	.LBB71_1
.LBB71_45:                              
	movzx	eax, byte ptr [rsp + 22]
	test	al, al
	mov	eax, -1805415793
	jne	.LBB71_1

	mov	eax, -1868171853
	jmp	.LBB71_1
.LBB71_52:                              
	movzx	eax, byte ptr [rsp + 23]
	test	al, al
	mov	eax, -388305436
	jne	.LBB71_1

	mov	eax, 335974633
	jmp	.LBB71_1
.LBB71_25:
	add	rsp, 56
	pop	rbx
	pop	r12
	pop	r13
	pop	r14
	pop	r15
	pop	rbp
	ret
.Lfunc_end71:
	.size	_ZN5Botan11copy_out_beIjEEvPhmPKT_, .Lfunc_end71-_ZN5Botan11copy_out_beIjEEvPhmPKT_
	.cfi_endproc

	.section	.text._ZN5Botan9swap_bitsIjEEvRT_S2_S1_m,"axG",@progbits,_ZN5Botan9swap_bitsIjEEvRT_S2_S1_m,comdat
	.weak	_ZN5Botan9swap_bitsIjEEvRT_S2_S1_m 
	.p2align	4, 0x90
	.type	_ZN5Botan9swap_bitsIjEEvRT_S2_S1_m,@function
_ZN5Botan9swap_bitsIjEEvRT_S2_S1_m:     

	mov	r8d, dword ptr [rdi]
	mov	r9d, r8d
	shr	r9d, cl
	mov	eax, dword ptr [rsi]
	mov	r10d, r9d
	not	r10d
	and	r10d, eax
	not	eax
	and	eax, r9d
	or	eax, r10d
	not	eax
	not	edx
	or	edx, eax
	mov	r9d, edx
	not	r9d
	mov	eax, r9d

	shl	eax, cl
	mov	ecx, eax
	not	ecx
	and	ecx, 1719947743
	and	eax, -1719947744
	or	eax, ecx
	mov	ecx, r8d
	not	ecx
	and	ecx, 1719947743
	and	r8d, -1719947744
	or	r8d, ecx
	xor	r8d, eax
	mov	dword ptr [rdi], r8d
	mov	eax, dword ptr [rsi]
	mov	ecx, eax
	not	ecx
	and	ecx, 41738928
	and	eax, -41738929
	or	eax, ecx
	and	edx, 41738928
	and	r9d, -41738929
	or	r9d, edx
	xor	r9d, eax
	mov	dword ptr [rsi], r9d
	ret
.Lfunc_end72:
	.size	_ZN5Botan9swap_bitsIjEEvRT_S2_S1_m, .Lfunc_end72-_ZN5Botan9swap_bitsIjEEvRT_S2_S1_m

	.section	.text._ZNKSt6vectorIjN5Botan16secure_allocatorIjEEE11_M_data_ptrIjEEPT_S6_,"axG",@progbits,_ZNKSt6vectorIjN5Botan16secure_allocatorIjEEE11_M_data_ptrIjEEPT_S6_,comdat
	.weak	_ZNKSt6vectorIjN5Botan16secure_allocatorIjEEE11_M_data_ptrIjEEPT_S6_ 
	.p2align	4, 0x90
	.type	_ZNKSt6vectorIjN5Botan16secure_allocatorIjEEE11_M_data_ptrIjEEPT_S6_,@function
_ZNKSt6vectorIjN5Botan16secure_allocatorIjEEE11_M_data_ptrIjEEPT_S6_: 

	mov	eax, dword ptr [rip + x.144]
	mov	ecx, dword ptr [rip + y.145]
	lea	edx, [rax - 1]
	imul	edx, eax
	not	edx
	or	edx, -2
	cmp	edx, -1
	sete	dl
	sete	byte ptr [rsp - 2]
	mov	edi, -712407407
	mov	r8d, -1499160914
	mov	eax, -1499160914
	cmove	eax, edi
	cmp	ecx, 10
	setl	cl
	setl	byte ptr [rsp - 1]
	cmovge	eax, r8d
	xor	cl, dl
	cmovne	eax, edi
	mov	edx, 635654765
	mov	edi, 1618659060
	jmp	.LBB73_1
.LBB73_6:                               
	mov	edx, eax
	.p2align	4, 0x90
.LBB73_1:                               
	cmp	edx, 635654764
	jg	.LBB73_5

	cmp	edx, -1499160914
	je	.LBB73_9

	cmp	edx, -712407407
	jne	.LBB73_1
	jmp	.LBB73_4
	.p2align	4, 0x90
.LBB73_5:                               
	cmp	edx, 1618659060
	je	.LBB73_6

	cmp	edx, 635654765
	jne	.LBB73_1

	movzx	r8d, byte ptr [rsp - 2]
	movzx	edx, byte ptr [rsp - 1]
	mov	ecx, r8d
	xor	cl, dl
	mov	ecx, -1499160914
	cmovne	ecx, edi
	test	dl, dl
	mov	edx, ecx
	cmovne	edx, edi
	test	r8b, r8b
	cmove	edx, ecx
	jmp	.LBB73_1
.LBB73_9:                               
	mov	edx, 1618659060
	jmp	.LBB73_1
.LBB73_4:
	mov	rax, rsi
	ret
.Lfunc_end73:
	.size	_ZNKSt6vectorIjN5Botan16secure_allocatorIjEEE11_M_data_ptrIjEEPT_S6_, .Lfunc_end73-_ZNKSt6vectorIjN5Botan16secure_allocatorIjEEE11_M_data_ptrIjEEPT_S6_

	.section	.text._ZN5Botan13typecast_copyIjEEvPT_PKhm,"axG",@progbits,_ZN5Botan13typecast_copyIjEEvPT_PKhm,comdat
	.weak	_ZN5Botan13typecast_copyIjEEvPT_PKhm 
	.p2align	4, 0x90
	.type	_ZN5Botan13typecast_copyIjEEvPT_PKhm,@function
_ZN5Botan13typecast_copyIjEEvPT_PKhm:   

	shl	rdx, 2
	jmp	memcpy                  
.Lfunc_end74:
	.size	_ZN5Botan13typecast_copyIjEEvPT_PKhm, .Lfunc_end74-_ZN5Botan13typecast_copyIjEEvPT_PKhm

	.section	.text._ZN5Botan7bswap_4IjEEvPT_,"axG",@progbits,_ZN5Botan7bswap_4IjEEvPT_,comdat
	.weak	_ZN5Botan7bswap_4IjEEvPT_ 
	.p2align	4, 0x90
	.type	_ZN5Botan7bswap_4IjEEvPT_,@function
_ZN5Botan7bswap_4IjEEvPT_:              
	.cfi_startproc

	push	rbx
.Lcfi382:
	.cfi_def_cfa_offset 16
.Lcfi383:
	.cfi_offset rbx, -16
	mov	rbx, rdi
	mov	edi, dword ptr [rbx]
	call	_ZN5Botan13reverse_bytesEj
	mov	dword ptr [rbx], eax
	mov	edi, dword ptr [rbx + 4]
	call	_ZN5Botan13reverse_bytesEj
	mov	dword ptr [rbx + 4], eax
	mov	edi, dword ptr [rbx + 8]
	call	_ZN5Botan13reverse_bytesEj
	mov	dword ptr [rbx + 8], eax
	mov	edi, dword ptr [rbx + 12]
	call	_ZN5Botan13reverse_bytesEj
	mov	dword ptr [rbx + 12], eax
	pop	rbx
	ret
.Lfunc_end75:
	.size	_ZN5Botan7bswap_4IjEEvPT_, .Lfunc_end75-_ZN5Botan7bswap_4IjEEvPT_
	.cfi_endproc

	.section	.text._ZN5Botan13reverse_bytesEj,"axG",@progbits,_ZN5Botan13reverse_bytesEj,comdat
	.weak	_ZN5Botan13reverse_bytesEj 
	.p2align	4, 0x90
	.type	_ZN5Botan13reverse_bytesEj,@function
_ZN5Botan13reverse_bytesEj:             

	bswap	edi
	mov	eax, edi
	ret
.Lfunc_end76:
	.size	_ZN5Botan13reverse_bytesEj, .Lfunc_end76-_ZN5Botan13reverse_bytesEj

	.section	.text._ZN5Botan16bit_permute_stepImEET_S1_S1_m,"axG",@progbits,_ZN5Botan16bit_permute_stepImEET_S1_S1_m,comdat
	.weak	_ZN5Botan16bit_permute_stepImEET_S1_S1_m 
	.p2align	4, 0x90
	.type	_ZN5Botan16bit_permute_stepImEET_S1_S1_m,@function
_ZN5Botan16bit_permute_stepImEET_S1_S1_m: 

	mov	rcx, rdx
	mov	rax, rdi
	shr	rax, cl
	mov	rdx, rax
	not	rdx
	and	rdx, rdi
	mov	r8, rdi
	not	r8
	and	rax, r8
	or	rax, rdx
	xor	rsi, rax
	not	rsi
	and	rsi, rax
	mov	r9, rsi
	not	r9
	movabs	rdx, 9209645568227878932
	and	r9, rdx
	and	r8, rdx
	not	rdx
	mov	rax, rsi
	and	rax, rdx
	or	rax, r9
	and	rdx, rdi
	or	rdx, r8
	xor	rdx, rax

	shl	rsi, cl
	mov	rcx, rdx
	not	rcx
	movabs	rax, 6749098388811261255
	and	rcx, rax
	mov	rdi, rsi
	not	rdi
	and	rdi, rax
	not	rax
	and	rdx, rax
	or	rdx, rcx
	and	rax, rsi
	or	rax, rdi
	xor	rax, rdx
	ret
.Lfunc_end77:
	.size	_ZN5Botan16bit_permute_stepImEET_S1_S1_m, .Lfunc_end77-_ZN5Botan16bit_permute_stepImEET_S1_S1_m

	.section	.text._ZN5Botan4rotrILm8EjEET0_S1_,"axG",@progbits,_ZN5Botan4rotrILm8EjEET0_S1_,comdat
	.weak	_ZN5Botan4rotrILm8EjEET0_S1_ 
	.p2align	4, 0x90
	.type	_ZN5Botan4rotrILm8EjEET0_S1_,@function
_ZN5Botan4rotrILm8EjEET0_S1_:           

	mov	eax, edi
	shr	eax, 8
	shl	edi, 24
	mov	ecx, eax
	not	ecx
	mov	edx, edi
	not	edx
	and	ecx, -1650613308
	and	eax, 6446139
	lea	eax, [rax + rcx]
	and	edx, -1650613308
	and	edi, 1644167168
	or	edi, edx
	xor	eax, edi
	ret
.Lfunc_end78:
	.size	_ZN5Botan4rotrILm8EjEET0_S1_, .Lfunc_end78-_ZN5Botan4rotrILm8EjEET0_S1_

	.section	.text._ZN5Botan4rotrILm16EjEET0_S1_,"axG",@progbits,_ZN5Botan4rotrILm16EjEET0_S1_,comdat
	.weak	_ZN5Botan4rotrILm16EjEET0_S1_ 
	.p2align	4, 0x90
	.type	_ZN5Botan4rotrILm16EjEET0_S1_,@function
_ZN5Botan4rotrILm16EjEET0_S1_:          

	rol	edi, 16
	mov	eax, edi
	ret
.Lfunc_end79:
	.size	_ZN5Botan4rotrILm16EjEET0_S1_, .Lfunc_end79-_ZN5Botan4rotrILm16EjEET0_S1_

	.section	.text._ZN5Botan4rotrILm24EjEET0_S1_,"axG",@progbits,_ZN5Botan4rotrILm24EjEET0_S1_,comdat
	.weak	_ZN5Botan4rotrILm24EjEET0_S1_ 
	.p2align	4, 0x90
	.type	_ZN5Botan4rotrILm24EjEET0_S1_,@function
_ZN5Botan4rotrILm24EjEET0_S1_:          

	mov	eax, dword ptr [rip + x.158]
	mov	ecx, dword ptr [rip + y.159]
	lea	edx, [rax - 1]
	imul	edx, eax
	mov	esi, edx
	xor	esi, -2
	and	esi, edx
	sete	al
	sete	byte ptr [rsp - 6]
	cmp	ecx, 10
	setl	dl
	xor	dl, al
	mov	r8d, 527339344
	mov	edx, -1814001555
	cmovne	edx, r8d
	test	esi, esi
	cmovne	r8d, edx
	cmp	ecx, 10
	setl	byte ptr [rsp - 5]
	cmovge	r8d, edx
	mov	ecx, edi
	shr	ecx, 24
	shl	edi, 8
	mov	edx, ecx
	not	edx
	mov	esi, edi
	not	esi
	and	edx, -352048499
	and	ecx, 114
	or	ecx, edx
	and	esi, -352048499
	and	edi, 352048384
	or	edi, esi
	xor	edi, ecx
	mov	edx, 1536687936
	mov	esi, -1751966328
	jmp	.LBB80_1
.LBB80_7:                               
	movzx	eax, byte ptr [rsp - 6]
	movzx	edx, byte ptr [rsp - 5]
	mov	ecx, eax
	xor	cl, dl
	mov	ecx, -1814001555
	cmovne	ecx, esi
	test	dl, dl
	mov	edx, ecx
	cmovne	edx, esi
	test	al, al
	cmove	edx, ecx
	.p2align	4, 0x90
.LBB80_1:                               
	cmp	edx, 527339343
	jg	.LBB80_5

	cmp	edx, -1814001555
	je	.LBB80_9

	cmp	edx, -1751966328
	jne	.LBB80_1

	mov	dword ptr [rsp - 4], edi
	mov	edx, r8d
	jmp	.LBB80_1
	.p2align	4, 0x90
.LBB80_5:                               
	cmp	edx, 527339344
	je	.LBB80_8

	cmp	edx, 1536687936
	jne	.LBB80_1
	jmp	.LBB80_7
.LBB80_9:                               
	mov	edx, -1751966328
	jmp	.LBB80_1
.LBB80_8:
	mov	eax, dword ptr [rsp - 4]
	ret
.Lfunc_end80:
	.size	_ZN5Botan4rotrILm24EjEET0_S1_, .Lfunc_end80-_ZN5Botan4rotrILm24EjEET0_S1_

	.section	.text._ZN5Botan8store_beEjPh,"axG",@progbits,_ZN5Botan8store_beEjPh,comdat
	.weak	_ZN5Botan8store_beEjPh  
	.p2align	4, 0x90
	.type	_ZN5Botan8store_beEjPh,@function
_ZN5Botan8store_beEjPh:                 
	.cfi_startproc

	push	rbx
.Lcfi384:
	.cfi_def_cfa_offset 16
.Lcfi385:
	.cfi_offset rbx, -16
	mov	rbx, rsi
	call	_ZN5Botan13reverse_bytesEj
	mov	rdi, rbx
	mov	esi, eax
	pop	rbx
	jmp	_ZN5Botan13typecast_copyIjEEvPhT_ 
.Lfunc_end81:
	.size	_ZN5Botan8store_beEjPh, .Lfunc_end81-_ZN5Botan8store_beEjPh
	.cfi_endproc

	.section	.text._ZN5Botan8get_byteIjEEhmT_,"axG",@progbits,_ZN5Botan8get_byteIjEEhmT_,comdat
	.weak	_ZN5Botan8get_byteIjEEhmT_ 
	.p2align	4, 0x90
	.type	_ZN5Botan8get_byteIjEEhmT_,@function
_ZN5Botan8get_byteIjEEhmT_:             

	lea	ecx, [8*rdi]
	not	ecx
	and	cl, 24

	shr	esi, cl
	mov	eax, esi
	ret
.Lfunc_end82:
	.size	_ZN5Botan8get_byteIjEEhmT_, .Lfunc_end82-_ZN5Botan8get_byteIjEEhmT_

	.section	.text._ZN5Botan13typecast_copyIjEEvPhT_,"axG",@progbits,_ZN5Botan13typecast_copyIjEEvPhT_,comdat
	.weak	_ZN5Botan13typecast_copyIjEEvPhT_ 
	.p2align	4, 0x90
	.type	_ZN5Botan13typecast_copyIjEEvPhT_,@function
_ZN5Botan13typecast_copyIjEEvPhT_:      
	.cfi_startproc

	push	rax
.Lcfi386:
	.cfi_def_cfa_offset 16
	mov	dword ptr [rsp + 4], esi
	lea	rsi, [rsp + 4]
	mov	edx, 1
	call	_ZN5Botan13typecast_copyIjEEvPhPT_m
	pop	rax
	ret
.Lfunc_end83:
	.size	_ZN5Botan13typecast_copyIjEEvPhT_, .Lfunc_end83-_ZN5Botan13typecast_copyIjEEvPhT_
	.cfi_endproc

