	.text
	.intel_syntax noprefix
	.file	"/mnt/c/Users/Adam/Developer/CryptoFunctionDetection/crypto_implementations/botan/src/lib/block/aes/aes.cpp"
	.globl	_ZNK5Botan7AES_1288providerB5cxx11Ev 
	.p2align	4, 0x90
	.type	_ZNK5Botan7AES_1288providerB5cxx11Ev,@function
_ZNK5Botan7AES_1288providerB5cxx11Ev:   
.Lfunc_begin0:
	.cfi_startproc
	.cfi_personality 3, __gxx_personality_v0
	.cfi_lsda 3, .Lexception0

	push	r14
.Lcfi0:
	.cfi_def_cfa_offset 16
	push	rbx
.Lcfi1:
	.cfi_def_cfa_offset 24
	sub	rsp, 24
.Lcfi2:
	.cfi_def_cfa_offset 48
.Lcfi3:
	.cfi_offset rbx, -24
.Lcfi4:
	.cfi_offset r14, -16
	mov	r14, rdi
	call	_ZN5Botan12_GLOBAL__N_112aes_providerEv
.Ltmp0:
	lea	rdx, [rsp + 16]
	mov	rdi, r14
	mov	rsi, rax
	call	_ZNSt7__cxx1112basic_stringIcSt11char_traitsIcESaIcEEC2EPKcRKS3_
.Ltmp1:

	mov	eax, dword ptr [rip + x.514]
	mov	ecx, dword ptr [rip + y.515]
	mov	edx, eax
	neg	edx
	not	edx
	imul	edx, eax
	mov	esi, edx
	xor	esi, -2
	and	esi, edx
	sete	byte ptr [rsp + 14]
	sete	al
	cmp	ecx, 10
	setl	dl
	xor	dl, al
	mov	eax, -2103045563
	mov	edx, 914226498
	cmovne	edx, eax
	test	esi, esi
	cmovne	eax, edx
	cmp	ecx, 10
	setl	byte ptr [rsp + 15]
	mov	r8d, 914226498
	cmovge	eax, edx
	mov	esi, -1807760696
	mov	edi, 280270388
	jmp	.LBB0_2
.LBB0_7:                                
	mov	esi, eax
	.p2align	4, 0x90
.LBB0_2:                                
	cmp	esi, 280270387
	jg	.LBB0_6

	cmp	esi, -2103045563
	je	.LBB0_10

	cmp	esi, -1807760696
	jne	.LBB0_2

	movzx	ebx, byte ptr [rsp + 14]
	movzx	edx, byte ptr [rsp + 15]
	mov	ecx, ebx
	xor	cl, dl
	test	dl, dl
	mov	esi, 914226498
	cmovne	esi, edi
	test	bl, bl
	cmove	esi, r8d
	test	cl, cl
	cmovne	esi, edi
	jmp	.LBB0_2
	.p2align	4, 0x90
.LBB0_6:                                
	cmp	esi, 280270388
	je	.LBB0_7

	cmp	esi, 914226498
	jne	.LBB0_2

	mov	esi, 280270388
	jmp	.LBB0_2
.LBB0_10:
	mov	rax, r14
	add	rsp, 24
	pop	rbx
	pop	r14
	ret
.LBB0_11:
.Ltmp2:
	mov	ecx, dword ptr [rip + x.514]
	mov	esi, dword ptr [rip + y.515]
	mov	edx, ecx
	neg	edx
	not	edx
	imul	edx, ecx
	not	edx
	or	edx, -2
	cmp	edx, -1
	sete	r8b
	sete	byte ptr [rsp + 12]
	mov	edi, -2103045563
	mov	r9d, 914226498
	mov	r10d, 914226498
	cmove	r10d, edi
	cmp	esi, 10
	setl	bl
	setl	byte ptr [rsp + 13]
	cmovge	r10d, r9d
	xor	bl, r8b
	cmovne	r10d, edi
	mov	edi, -1807760696
	mov	esi, 280270388
	jmp	.LBB0_12
	.p2align	4, 0x90
.LBB0_18:                               
	movzx	edx, byte ptr [rsp + 12]
	movzx	ecx, byte ptr [rsp + 13]
	mov	ebx, edx
	xor	bl, cl
	test	cl, cl
	mov	edi, 914226498
	cmovne	edi, esi
	test	dl, dl
	cmove	edi, r9d
	test	bl, bl
	cmovne	edi, esi
.LBB0_12:                               
	cmp	edi, 280270387
	jle	.LBB0_13

	cmp	edi, 280270388
	je	.LBB0_17

	cmp	edi, 914226498
	jne	.LBB0_12

	mov	edi, 280270388
	jmp	.LBB0_12
	.p2align	4, 0x90
.LBB0_13:                               
	cmp	edi, -1807760696
	je	.LBB0_18

	cmp	edi, -2103045563
	jne	.LBB0_12
	jmp	.LBB0_15
	.p2align	4, 0x90
.LBB0_17:                               
	mov	edi, r10d
	jmp	.LBB0_12
.LBB0_15:
	mov	rdi, rax
	call	_Unwind_Resume
.Lfunc_end0:
	.size	_ZNK5Botan7AES_1288providerB5cxx11Ev, .Lfunc_end0-_ZNK5Botan7AES_1288providerB5cxx11Ev
	.cfi_endproc
	.section	.gcc_except_table,"a",@progbits
	.p2align	2
GCC_except_table0:
.Lexception0:
	.byte	255                     
	.byte	3                       
	.byte	41                      
	.byte	3                       
	.byte	39                      
	.long	.Lfunc_begin0-.Lfunc_begin0 
	.long	.Ltmp0-.Lfunc_begin0    
	.long	0                       
	.byte	0                       
	.long	.Ltmp0-.Lfunc_begin0    
	.long	.Ltmp1-.Ltmp0           
	.long	.Ltmp2-.Lfunc_begin0    
	.byte	0                       
	.long	.Ltmp1-.Lfunc_begin0    
	.long	.Lfunc_end0-.Ltmp1      
	.long	0                       
	.byte	0                       
	.p2align	2

	.text
	.p2align	4, 0x90         
	.type	_ZN5Botan12_GLOBAL__N_112aes_providerEv,@function
_ZN5Botan12_GLOBAL__N_112aes_providerEv: 
	.cfi_startproc

	push	rbp
.Lcfi5:
	.cfi_def_cfa_offset 16
	push	r14
.Lcfi6:
	.cfi_def_cfa_offset 24
	push	rbx
.Lcfi7:
	.cfi_def_cfa_offset 32
	sub	rsp, 16
.Lcfi8:
	.cfi_def_cfa_offset 48
.Lcfi9:
	.cfi_offset rbx, -32
.Lcfi10:
	.cfi_offset r14, -24
.Lcfi11:
	.cfi_offset rbp, -16
	mov	eax, 472720751
	mov	r14d, -1168546117

	jmp	.LBB1_1
.LBB1_43:                               
	cmp	edx, -1
	cmovne	eax, esi
	cmp	ecx, 10
	cmovge	eax, esi
	.p2align	4, 0x90
.LBB1_1:                                
	cmp	eax, 725547354
	jle	.LBB1_2

	cmp	eax, 1606397718
	jg	.LBB1_30

	cmp	eax, 1115450266
	jg	.LBB1_27

	cmp	eax, 725547355
	je	.LBB1_52

	cmp	eax, 1072467443
	jne	.LBB1_1

	mov	eax, dword ptr [rip + x]
	mov	ecx, dword ptr [rip + y]
	mov	esi, eax
	neg	esi
	not	esi
	imul	esi, eax
	mov	edx, esi
	xor	edx, -2
	and	edx, esi
	sete	al
	cmp	ecx, 10
	setl	bl
	xor	bl, al
	mov	esi, -517848536
	mov	eax, -517848536
	jne	.LBB1_24

	mov	eax, 153492703
.LBB1_24:                               
	test	edx, edx
	je	.LBB1_26

	mov	esi, eax
.LBB1_26:                               
	cmp	ecx, 10
	cmovl	eax, esi
	jmp	.LBB1_1
	.p2align	4, 0x90
.LBB1_2:                                
	cmp	eax, -517848537
	jle	.LBB1_3

	cmp	eax, 153492702
	jg	.LBB1_15

	cmp	eax, -517848536
	je	.LBB1_51

	cmp	eax, -490529370
	jne	.LBB1_1

	movzx	eax, byte ptr [rsp + 15]
	test	al, al
	mov	eax, -1586349281
	jne	.LBB1_1

	mov	eax, 1487545769
	jmp	.LBB1_1
	.p2align	4, 0x90
.LBB1_30:                               
	cmp	eax, 1815810415
	jg	.LBB1_34

	cmp	eax, 1606397719
	je	.LBB1_44

	cmp	eax, 1679674793
	jne	.LBB1_1

	mov	eax, 1115450267
	jmp	.LBB1_1
	.p2align	4, 0x90
.LBB1_3:                                
	cmp	eax, -1586349281
	je	.LBB1_47

	cmp	eax, -1168546117
	je	.LBB1_37

	cmp	eax, -945301270
	jne	.LBB1_1

	mov	edi, 2
	call	_ZN5Botan5CPUID13has_cpuid_bitENS0_10CPUID_bitsE
	mov	byte ptr [rsp + 15], al
	mov	eax, dword ptr [rip + x]
	mov	ecx, dword ptr [rip + y]
	lea	edx, [rax - 1]
	imul	edx, eax
	not	edx
	or	edx, -2
	cmp	edx, -1
	sete	bl
	mov	eax, -490529370
	mov	edx, 725547355
	mov	esi, -490529370
	je	.LBB1_8

	mov	esi, 725547355
.LBB1_8:                                
	cmp	ecx, 10
	setl	cl
	cmovl	edx, esi
	xor	cl, bl
	jne	.LBB1_1

	mov	eax, edx
	jmp	.LBB1_1
.LBB1_27:                               
	cmp	eax, 1115450267
	je	.LBB1_41

	cmp	eax, 1487545769
	jne	.LBB1_1

	mov	eax, 2087353467
	mov	ebp, .L.str.2
	jmp	.LBB1_1
.LBB1_15:                               
	cmp	eax, 153492703
	je	.LBB1_53

	cmp	eax, 472720751
	jne	.LBB1_1

	mov	edi, 65536
	call	_ZN5Botan5CPUID13has_cpuid_bitENS0_10CPUID_bitsE
	test	al, al
	mov	eax, 1815810416
	cmovne	eax, r14d
	jmp	.LBB1_1
.LBB1_34:                               
	cmp	eax, 1815810416
	je	.LBB1_45

	cmp	eax, 2087353467
	jne	.LBB1_1
	jmp	.LBB1_36
.LBB1_52:                               
	mov	edi, 2
	call	_ZN5Botan5CPUID13has_cpuid_bitENS0_10CPUID_bitsE
	mov	eax, -945301270
	jmp	.LBB1_1
.LBB1_51:                               
	mov	eax, 2087353467
	mov	ebp, .L.str.1
	jmp	.LBB1_1
.LBB1_44:                               
	mov	eax, 2087353467
	mov	ebp, .L.str
	jmp	.LBB1_1
.LBB1_47:                               
	mov	eax, dword ptr [rip + x]
	mov	ecx, dword ptr [rip + y]
	lea	edx, [rax - 1]
	imul	edx, eax
	not	edx
	or	edx, -2
	cmp	edx, -1
	sete	bl
	mov	eax, 1072467443
	mov	edx, 153492703
	mov	esi, 1072467443
	je	.LBB1_49

	mov	esi, 153492703
.LBB1_49:                               
	cmp	ecx, 10
	setl	cl
	cmovl	edx, esi
	xor	cl, bl
	jne	.LBB1_1

	mov	eax, edx
	jmp	.LBB1_1
.LBB1_37:                               
	mov	eax, dword ptr [rip + x]
	mov	ecx, dword ptr [rip + y]
	lea	edx, [rax - 1]
	imul	edx, eax
	mov	eax, edx
	xor	eax, -2
	and	eax, edx
	sete	bl
	test	eax, eax
	mov	eax, 1115450267
	mov	edx, 1679674793
	mov	esi, 1115450267
	je	.LBB1_39

	mov	esi, 1679674793
.LBB1_39:                               
	cmp	ecx, 10
	setl	cl
	cmovl	edx, esi
	xor	cl, bl
	jne	.LBB1_1

	mov	eax, edx
	jmp	.LBB1_1
.LBB1_41:                               
	mov	eax, dword ptr [rip + x]
	mov	ecx, dword ptr [rip + y]
	lea	edx, [rax - 1]
	imul	edx, eax
	not	edx
	or	edx, -2
	cmp	edx, -1
	sete	al
	cmp	ecx, 10
	setl	bl
	xor	bl, al
	mov	eax, 1606397719
	mov	esi, 1606397719
	jne	.LBB1_43

	mov	esi, 1679674793
	jmp	.LBB1_43
.LBB1_53:                               
	mov	eax, 1072467443
	jmp	.LBB1_1
.LBB1_45:                               
	mov	eax, dword ptr [rip + x]
	mov	ecx, dword ptr [rip + y]
	lea	edx, [rax - 1]
	imul	edx, eax
	not	edx
	or	edx, -2
	cmp	edx, -1
	sete	al
	cmp	ecx, 10
	setl	bl
	xor	bl, al
	mov	eax, -945301270
	mov	esi, -945301270
	jne	.LBB1_43

	mov	esi, 725547355
	jmp	.LBB1_43
.LBB1_36:
	mov	rax, rbp
	add	rsp, 16
	pop	rbx
	pop	r14
	pop	rbp
	ret
.Lfunc_end1:
	.size	_ZN5Botan12_GLOBAL__N_112aes_providerEv, .Lfunc_end1-_ZN5Botan12_GLOBAL__N_112aes_providerEv
	.cfi_endproc

	.section	.text._ZNSt7__cxx1112basic_stringIcSt11char_traitsIcESaIcEEC2EPKcRKS3_,"axG",@progbits,_ZNSt7__cxx1112basic_stringIcSt11char_traitsIcESaIcEEC2EPKcRKS3_,comdat
	.weak	_ZNSt7__cxx1112basic_stringIcSt11char_traitsIcESaIcEEC2EPKcRKS3_ 
	.p2align	4, 0x90
	.type	_ZNSt7__cxx1112basic_stringIcSt11char_traitsIcESaIcEEC2EPKcRKS3_,@function
_ZNSt7__cxx1112basic_stringIcSt11char_traitsIcESaIcEEC2EPKcRKS3_: 
.Lfunc_begin1:
	.cfi_startproc
	.cfi_personality 3, __gxx_personality_v0
	.cfi_lsda 3, .Lexception1

	push	rbp
.Lcfi12:
	.cfi_def_cfa_offset 16
	push	r15
.Lcfi13:
	.cfi_def_cfa_offset 24
	push	r14
.Lcfi14:
	.cfi_def_cfa_offset 32
	push	r13
.Lcfi15:
	.cfi_def_cfa_offset 40
	push	r12
.Lcfi16:
	.cfi_def_cfa_offset 48
	push	rbx
.Lcfi17:
	.cfi_def_cfa_offset 56
	push	rax
.Lcfi18:
	.cfi_def_cfa_offset 64
.Lcfi19:
	.cfi_offset rbx, -56
.Lcfi20:
	.cfi_offset r12, -48
.Lcfi21:
	.cfi_offset r13, -40
.Lcfi22:
	.cfi_offset r14, -32
.Lcfi23:
	.cfi_offset r15, -24
.Lcfi24:
	.cfi_offset rbp, -16
	mov	r15, rsi
	mov	r14, rdi
	lea	rdi, [r14 + 16]
	call	_ZSt9addressofIcEPT_RS0_
	mov	qword ptr [r14], rax
	test	r15, r15
	je	.LBB2_1

.Ltmp3:
	mov	rdi, r15
	call	_ZNSt11char_traitsIcE6lengthEPKc
	mov	rbx, rax
.Ltmp4:
	jmp	.LBB2_3
.LBB2_1:
	mov	rbx, -1
.LBB2_3:
	add	rbx, r15
	mov	eax, dword ptr [rip + x.534]
	lea	ecx, [rax - 1]
	imul	ecx, eax
	mov	eax, ecx
	xor	eax, -2
	test	eax, ecx
	sete	byte ptr [rsp + 6]
	mov	eax, dword ptr [rip + y.535]
	cmp	eax, 10
	setl	byte ptr [rsp + 7]
	mov	r13d, -1192819110
	mov	ebp, 1848108149
	mov	r12d, 1639080571
	jmp	.LBB2_4
.LBB2_25:                               
	movzx	eax, byte ptr [rsp + 6]
	movzx	ecx, byte ptr [rsp + 7]
	mov	edx, eax
	xor	dl, cl
	test	cl, cl
	mov	r13d, 1639080571
	cmovne	r13d, ebp
	test	al, al
	cmove	r13d, r12d
	test	dl, dl
	cmovne	r13d, ebp
	.p2align	4, 0x90
.LBB2_4:                                
	cmp	r13d, 1639080570
	jg	.LBB2_8

	cmp	r13d, -1192819110
	je	.LBB2_25

	cmp	r13d, 1624064163
	jne	.LBB2_4
	jmp	.LBB2_7
	.p2align	4, 0x90
.LBB2_8:                                
	cmp	r13d, 1639080571
	je	.LBB2_12

	cmp	r13d, 1848108149
	jne	.LBB2_4

.Ltmp8:
	mov	rdi, r14
	mov	rsi, r15
	mov	rdx, rbx
	call	_ZNSt7__cxx1112basic_stringIcSt11char_traitsIcESaIcEE12_M_constructIPKcEEvT_S8_St20forward_iterator_tag
.Ltmp9:

	mov	eax, dword ptr [rip + x.534]
	lea	ecx, [rax - 1]
	imul	ecx, eax
	mov	eax, ecx
	xor	eax, -2
	and	eax, ecx
	sete	cl
	test	eax, eax
	mov	r13d, 1639080571
	mov	edx, 1624064163
	cmove	r13d, edx
	cmp	dword ptr [rip + y.535], 10
	setl	al
	cmovge	r13d, r12d
	xor	al, cl
	cmovne	r13d, edx
	jmp	.LBB2_4
.LBB2_12:                               
	mov	r13d, 1848108149
.Ltmp6:
	mov	rdi, r14
	mov	rsi, r15
	mov	rdx, rbx
	call	_ZNSt7__cxx1112basic_stringIcSt11char_traitsIcESaIcEE12_M_constructIPKcEEvT_S8_St20forward_iterator_tag
.Ltmp7:
	jmp	.LBB2_4
.LBB2_7:
	add	rsp, 8
	pop	rbx
	pop	r12
	pop	r13
	pop	r14
	pop	r15
	pop	rbp
	ret
.LBB2_14:
.Ltmp5:
	jmp	.LBB2_15
.LBB2_13:
.Ltmp10:
.LBB2_15:
	mov	ecx, dword ptr [rip + x.514]
	mov	edx, dword ptr [rip + y.515]
	lea	esi, [rcx - 1]
	imul	esi, ecx
	not	esi
	or	esi, -2
	cmp	esi, -1
	sete	cl
	cmp	edx, 10
	setl	bl
	xor	bl, cl
	mov	ebp, -2103045563
	mov	edi, 914226498
	cmovne	edi, ebp
	cmp	esi, -1
	sete	byte ptr [rsp + 4]
	cmovne	ebp, edi
	cmp	edx, 10
	setl	byte ptr [rsp + 5]
	mov	r8d, 914226498
	cmovge	ebp, edi
	mov	edi, -1807760696
	mov	esi, 280270388
	jmp	.LBB2_16
	.p2align	4, 0x90
.LBB2_22:                               
	movzx	ecx, byte ptr [rsp + 4]
	movzx	edx, byte ptr [rsp + 5]
	mov	ebx, ecx
	xor	bl, dl
	test	dl, dl
	mov	edi, 914226498
	cmovne	edi, esi
	test	cl, cl
	cmove	edi, r8d
	test	bl, bl
	cmovne	edi, esi
.LBB2_16:                               
	cmp	edi, 280270387
	jle	.LBB2_17

	cmp	edi, 280270388
	je	.LBB2_21

	cmp	edi, 914226498
	jne	.LBB2_16

	mov	edi, 280270388
	jmp	.LBB2_16
	.p2align	4, 0x90
.LBB2_17:                               
	cmp	edi, -1807760696
	je	.LBB2_22

	cmp	edi, -2103045563
	jne	.LBB2_16
	jmp	.LBB2_19
	.p2align	4, 0x90
.LBB2_21:                               
	mov	edi, ebp
	jmp	.LBB2_16
.LBB2_19:
	mov	rdi, rax
	call	_Unwind_Resume
.Lfunc_end2:
	.size	_ZNSt7__cxx1112basic_stringIcSt11char_traitsIcESaIcEEC2EPKcRKS3_, .Lfunc_end2-_ZNSt7__cxx1112basic_stringIcSt11char_traitsIcESaIcEEC2EPKcRKS3_
	.cfi_endproc
	.section	.gcc_except_table,"a",@progbits
	.p2align	2
GCC_except_table2:
.Lexception1:
	.byte	255                     
	.byte	3                       
	.byte	41                      
	.byte	3                       
	.byte	39                      
	.long	.Ltmp3-.Lfunc_begin1    
	.long	.Ltmp4-.Ltmp3           
	.long	.Ltmp5-.Lfunc_begin1    
	.byte	0                       
	.long	.Ltmp8-.Lfunc_begin1    
	.long	.Ltmp7-.Ltmp8           
	.long	.Ltmp10-.Lfunc_begin1   
	.byte	0                       
	.long	.Ltmp7-.Lfunc_begin1    
	.long	.Lfunc_end2-.Ltmp7      
	.long	0                       
	.byte	0                       
	.p2align	2

	.text
	.globl	_ZNK5Botan7AES_1928providerB5cxx11Ev 
	.p2align	4, 0x90
	.type	_ZNK5Botan7AES_1928providerB5cxx11Ev,@function
_ZNK5Botan7AES_1928providerB5cxx11Ev:   
.Lfunc_begin2:
	.cfi_startproc
	.cfi_personality 3, __gxx_personality_v0
	.cfi_lsda 3, .Lexception2

	push	r14
.Lcfi25:
	.cfi_def_cfa_offset 16
	push	rbx
.Lcfi26:
	.cfi_def_cfa_offset 24
	sub	rsp, 24
.Lcfi27:
	.cfi_def_cfa_offset 48
.Lcfi28:
	.cfi_offset rbx, -24
.Lcfi29:
	.cfi_offset r14, -16
	mov	r14, rdi
	call	_ZN5Botan12_GLOBAL__N_112aes_providerEv
.Ltmp11:
	lea	rdx, [rsp + 16]
	mov	rdi, r14
	mov	rsi, rax
	call	_ZNSt7__cxx1112basic_stringIcSt11char_traitsIcESaIcEEC2EPKcRKS3_
.Ltmp12:

	mov	eax, dword ptr [rip + x.514]
	mov	ecx, dword ptr [rip + y.515]
	lea	edx, [rax - 1]
	imul	edx, eax
	mov	esi, edx
	xor	esi, -2
	and	esi, edx
	sete	byte ptr [rsp + 14]
	sete	al
	cmp	ecx, 10
	setl	dl
	xor	dl, al
	mov	eax, -2103045563
	mov	edx, 914226498
	cmovne	edx, eax
	test	esi, esi
	cmovne	eax, edx
	cmp	ecx, 10
	setl	byte ptr [rsp + 15]
	mov	r8d, 914226498
	cmovge	eax, edx
	mov	esi, -1807760696
	mov	edi, 280270388
	jmp	.LBB3_2
.LBB3_7:                                
	mov	esi, eax
	.p2align	4, 0x90
.LBB3_2:                                
	cmp	esi, 280270387
	jg	.LBB3_6

	cmp	esi, -2103045563
	je	.LBB3_10

	cmp	esi, -1807760696
	jne	.LBB3_2

	movzx	ebx, byte ptr [rsp + 14]
	movzx	edx, byte ptr [rsp + 15]
	mov	ecx, ebx
	xor	cl, dl
	test	dl, dl
	mov	esi, 914226498
	cmovne	esi, edi
	test	bl, bl
	cmove	esi, r8d
	test	cl, cl
	cmovne	esi, edi
	jmp	.LBB3_2
	.p2align	4, 0x90
.LBB3_6:                                
	cmp	esi, 280270388
	je	.LBB3_7

	cmp	esi, 914226498
	jne	.LBB3_2

	mov	esi, 280270388
	jmp	.LBB3_2
.LBB3_10:
	mov	rax, r14
	add	rsp, 24
	pop	rbx
	pop	r14
	ret
.LBB3_11:
.Ltmp13:
	mov	ecx, dword ptr [rip + x.514]
	mov	edx, dword ptr [rip + y.515]
	mov	esi, ecx
	neg	esi
	not	esi
	imul	esi, ecx
	mov	ecx, esi
	xor	ecx, -2
	and	ecx, esi
	sete	bl
	sete	byte ptr [rsp + 12]
	test	ecx, ecx
	mov	esi, -2103045563
	mov	ecx, 914226498
	mov	r8d, 914226498
	cmove	r8d, esi
	cmp	edx, 10
	setl	dl
	setl	byte ptr [rsp + 13]
	cmovge	r8d, ecx
	xor	dl, bl
	cmovne	r8d, esi
	mov	esi, -1807760696
	mov	edi, 280270388
	jmp	.LBB3_12
	.p2align	4, 0x90
.LBB3_18:                               
	movzx	edx, byte ptr [rsp + 12]
	movzx	ecx, byte ptr [rsp + 13]
	mov	ebx, edx
	xor	bl, cl
	mov	ebx, 914226498
	cmovne	ebx, edi
	test	cl, cl
	mov	esi, ebx
	cmovne	esi, edi
	test	dl, dl
	cmove	esi, ebx
.LBB3_12:                               
	cmp	esi, 280270387
	jle	.LBB3_13

	cmp	esi, 280270388
	je	.LBB3_17

	cmp	esi, 914226498
	jne	.LBB3_12

	mov	esi, 280270388
	jmp	.LBB3_12
	.p2align	4, 0x90
.LBB3_13:                               
	cmp	esi, -1807760696
	je	.LBB3_18

	cmp	esi, -2103045563
	jne	.LBB3_12
	jmp	.LBB3_15
	.p2align	4, 0x90
.LBB3_17:                               
	mov	esi, r8d
	jmp	.LBB3_12
.LBB3_15:
	mov	rdi, rax
	call	_Unwind_Resume
.Lfunc_end3:
	.size	_ZNK5Botan7AES_1928providerB5cxx11Ev, .Lfunc_end3-_ZNK5Botan7AES_1928providerB5cxx11Ev
	.cfi_endproc
	.section	.gcc_except_table,"a",@progbits
	.p2align	2
GCC_except_table3:
.Lexception2:
	.byte	255                     
	.byte	3                       
	.byte	41                      
	.byte	3                       
	.byte	39                      
	.long	.Lfunc_begin2-.Lfunc_begin2 
	.long	.Ltmp11-.Lfunc_begin2   
	.long	0                       
	.byte	0                       
	.long	.Ltmp11-.Lfunc_begin2   
	.long	.Ltmp12-.Ltmp11         
	.long	.Ltmp13-.Lfunc_begin2   
	.byte	0                       
	.long	.Ltmp12-.Lfunc_begin2   
	.long	.Lfunc_end3-.Ltmp12     
	.long	0                       
	.byte	0                       
	.p2align	2

	.text
	.globl	_ZNK5Botan7AES_2568providerB5cxx11Ev 
	.p2align	4, 0x90
	.type	_ZNK5Botan7AES_2568providerB5cxx11Ev,@function
_ZNK5Botan7AES_2568providerB5cxx11Ev:   
.Lfunc_begin3:
	.cfi_startproc
	.cfi_personality 3, __gxx_personality_v0
	.cfi_lsda 3, .Lexception3

	push	r14
.Lcfi30:
	.cfi_def_cfa_offset 16
	push	rbx
.Lcfi31:
	.cfi_def_cfa_offset 24
	sub	rsp, 24
.Lcfi32:
	.cfi_def_cfa_offset 48
.Lcfi33:
	.cfi_offset rbx, -24
.Lcfi34:
	.cfi_offset r14, -16
	mov	r14, rdi
	call	_ZN5Botan12_GLOBAL__N_112aes_providerEv
.Ltmp14:
	lea	rdx, [rsp + 16]
	mov	rdi, r14
	mov	rsi, rax
	call	_ZNSt7__cxx1112basic_stringIcSt11char_traitsIcESaIcEEC2EPKcRKS3_
.Ltmp15:

	mov	eax, dword ptr [rip + x.514]
	mov	ecx, dword ptr [rip + y.515]
	mov	edx, eax
	neg	edx
	not	edx
	imul	edx, eax
	not	edx
	or	edx, -2
	cmp	edx, -1
	sete	al
	cmp	ecx, 10
	setl	bl
	xor	bl, al
	mov	eax, -2103045563
	mov	esi, 914226498
	cmovne	esi, eax
	cmp	edx, -1
	sete	byte ptr [rsp + 14]
	cmovne	eax, esi
	cmp	ecx, 10
	setl	byte ptr [rsp + 15]
	cmovge	eax, esi
	mov	edx, -1807760696
	mov	esi, 280270388
	jmp	.LBB4_2
.LBB4_7:                                
	mov	edx, eax
	.p2align	4, 0x90
.LBB4_2:                                
	cmp	edx, 280270387
	jg	.LBB4_6

	cmp	edx, -2103045563
	je	.LBB4_10

	cmp	edx, -1807760696
	jne	.LBB4_2

	movzx	ecx, byte ptr [rsp + 14]
	movzx	edx, byte ptr [rsp + 15]
	mov	ebx, ecx
	xor	bl, dl
	mov	edi, 914226498
	cmovne	edi, esi
	test	dl, dl
	mov	edx, edi
	cmovne	edx, esi
	test	cl, cl
	cmove	edx, edi
	jmp	.LBB4_2
	.p2align	4, 0x90
.LBB4_6:                                
	cmp	edx, 280270388
	je	.LBB4_7

	cmp	edx, 914226498
	jne	.LBB4_2

	mov	edx, 280270388
	jmp	.LBB4_2
.LBB4_10:
	mov	rax, r14
	add	rsp, 24
	pop	rbx
	pop	r14
	ret
.LBB4_11:
.Ltmp16:
	mov	ecx, dword ptr [rip + x.514]
	mov	edx, dword ptr [rip + y.515]
	lea	esi, [rcx - 1]
	imul	esi, ecx
	not	esi
	or	esi, -2
	cmp	esi, -1
	sete	cl
	cmp	edx, 10
	setl	bl
	xor	bl, cl
	mov	r9d, -2103045563
	mov	edi, 914226498
	cmovne	edi, r9d
	cmp	esi, -1
	sete	byte ptr [rsp + 12]
	cmovne	r9d, edi
	cmp	edx, 10
	setl	byte ptr [rsp + 13]
	mov	r8d, 914226498
	cmovge	r9d, edi
	mov	edi, -1807760696
	mov	esi, 280270388
	jmp	.LBB4_12
	.p2align	4, 0x90
.LBB4_18:                               
	movzx	ecx, byte ptr [rsp + 12]
	movzx	edx, byte ptr [rsp + 13]
	mov	ebx, ecx
	xor	bl, dl
	test	dl, dl
	mov	edi, 914226498
	cmovne	edi, esi
	test	cl, cl
	cmove	edi, r8d
	test	bl, bl
	cmovne	edi, esi
.LBB4_12:                               
	cmp	edi, 280270387
	jle	.LBB4_13

	cmp	edi, 280270388
	je	.LBB4_17

	cmp	edi, 914226498
	jne	.LBB4_12

	mov	edi, 280270388
	jmp	.LBB4_12
	.p2align	4, 0x90
.LBB4_13:                               
	cmp	edi, -1807760696
	je	.LBB4_18

	cmp	edi, -2103045563
	jne	.LBB4_12
	jmp	.LBB4_15
	.p2align	4, 0x90
.LBB4_17:                               
	mov	edi, r9d
	jmp	.LBB4_12
.LBB4_15:
	mov	rdi, rax
	call	_Unwind_Resume
.Lfunc_end4:
	.size	_ZNK5Botan7AES_2568providerB5cxx11Ev, .Lfunc_end4-_ZNK5Botan7AES_2568providerB5cxx11Ev
	.cfi_endproc
	.section	.gcc_except_table,"a",@progbits
	.p2align	2
GCC_except_table4:
.Lexception3:
	.byte	255                     
	.byte	3                       
	.byte	41                      
	.byte	3                       
	.byte	39                      
	.long	.Lfunc_begin3-.Lfunc_begin3 
	.long	.Ltmp14-.Lfunc_begin3   
	.long	0                       
	.byte	0                       
	.long	.Ltmp14-.Lfunc_begin3   
	.long	.Ltmp15-.Ltmp14         
	.long	.Ltmp16-.Lfunc_begin3   
	.byte	0                       
	.long	.Ltmp15-.Lfunc_begin3   
	.long	.Lfunc_end4-.Ltmp15     
	.long	0                       
	.byte	0                       
	.p2align	2

	.text
	.globl	_ZNK5Botan7AES_12811parallelismEv 
	.p2align	4, 0x90
	.type	_ZNK5Botan7AES_12811parallelismEv,@function
_ZNK5Botan7AES_12811parallelismEv:      
	.cfi_startproc

	push	rbp
.Lcfi35:
	.cfi_def_cfa_offset 16
	push	r14
.Lcfi36:
	.cfi_def_cfa_offset 24
	push	rbx
.Lcfi37:
	.cfi_def_cfa_offset 32
	sub	rsp, 16
.Lcfi38:
	.cfi_def_cfa_offset 48
.Lcfi39:
	.cfi_offset rbx, -32
.Lcfi40:
	.cfi_offset r14, -24
.Lcfi41:
	.cfi_offset rbp, -16
	mov	eax, dword ptr [rip + x.16]
	lea	ecx, [rax - 1]
	imul	ecx, eax
	not	ecx
	or	ecx, -2
	cmp	ecx, -1
	sete	byte ptr [rsp + 6]
	mov	eax, dword ptr [rip + y.17]
	cmp	eax, 10
	setl	byte ptr [rsp + 7]
	mov	eax, -444571443
	mov	ebx, -1054055650
	mov	r14d, 1002977302
	mov	ebp, -1632295949
	jmp	.LBB5_1
.LBB5_7:                                
	movzx	ecx, byte ptr [rsp + 6]
	movzx	eax, byte ptr [rsp + 7]
	mov	edx, ecx
	xor	dl, al
	mov	edx, 1002977302
	cmovne	edx, ebp
	test	al, al
	mov	eax, edx
	cmovne	eax, ebp
	test	cl, cl
	cmove	eax, edx
	.p2align	4, 0x90
.LBB5_1:                                
	cmp	eax, -444571444
	jg	.LBB5_5

	cmp	eax, -1632295949
	je	.LBB5_8

	cmp	eax, -1054055650
	jne	.LBB5_1
	jmp	.LBB5_4
	.p2align	4, 0x90
.LBB5_5:                                
	cmp	eax, 1002977302
	je	.LBB5_9

	cmp	eax, -444571443
	jne	.LBB5_1
	jmp	.LBB5_7
.LBB5_8:                                
	call	_ZN5Botan12_GLOBAL__N_115aes_parallelismEv
	mov	qword ptr [rsp + 8], rax
	mov	eax, dword ptr [rip + x.16]
	lea	ecx, [rax - 1]
	imul	ecx, eax
	not	ecx
	or	ecx, -2
	cmp	ecx, -1
	sete	cl
	mov	eax, 1002977302
	cmove	eax, ebx
	cmp	dword ptr [rip + y.17], 10
	setl	dl
	cmovge	eax, r14d
	xor	dl, cl
	cmovne	eax, ebx
	jmp	.LBB5_1
.LBB5_9:                                
	call	_ZN5Botan12_GLOBAL__N_115aes_parallelismEv
	mov	eax, -1632295949
	jmp	.LBB5_1
.LBB5_4:
	mov	rax, qword ptr [rsp + 8]
	add	rsp, 16
	pop	rbx
	pop	r14
	pop	rbp
	ret
.Lfunc_end5:
	.size	_ZNK5Botan7AES_12811parallelismEv, .Lfunc_end5-_ZNK5Botan7AES_12811parallelismEv
	.cfi_endproc

	.p2align	4, 0x90         
	.type	_ZN5Botan12_GLOBAL__N_115aes_parallelismEv,@function
_ZN5Botan12_GLOBAL__N_115aes_parallelismEv: 
	.cfi_startproc

	push	rbp
.Lcfi42:
	.cfi_def_cfa_offset 16
	push	r15
.Lcfi43:
	.cfi_def_cfa_offset 24
	push	r14
.Lcfi44:
	.cfi_def_cfa_offset 32
	push	r13
.Lcfi45:
	.cfi_def_cfa_offset 40
	push	r12
.Lcfi46:
	.cfi_def_cfa_offset 48
	push	rbx
.Lcfi47:
	.cfi_def_cfa_offset 56
	push	rax
.Lcfi48:
	.cfi_def_cfa_offset 64
.Lcfi49:
	.cfi_offset rbx, -56
.Lcfi50:
	.cfi_offset r12, -48
.Lcfi51:
	.cfi_offset r13, -40
.Lcfi52:
	.cfi_offset r14, -32
.Lcfi53:
	.cfi_offset r15, -24
.Lcfi54:
	.cfi_offset rbp, -16
	mov	eax, 1609899613
	mov	r15d, 1340824141
	mov	r14d, -724867182
	mov	r13d, -1016663493
	mov	r12d, 1268376663

	jmp	.LBB6_1
.LBB6_14:                               
	mov	eax, 1211282060
	mov	ebp, 2
	.p2align	4, 0x90
.LBB6_1:                                
	cmp	eax, 1211282059
	jle	.LBB6_2

	cmp	eax, 1340824140
	jg	.LBB6_10

	cmp	eax, 1211282060
	je	.LBB6_15

	cmp	eax, 1268376663
	jne	.LBB6_1

	mov	eax, 1211282060
	mov	ebp, 4
	jmp	.LBB6_1
	.p2align	4, 0x90
.LBB6_2:                                
	cmp	eax, -1016663493
	je	.LBB6_14

	cmp	eax, -724867182
	je	.LBB6_16

	cmp	eax, 240975468
	jne	.LBB6_1

	mov	eax, dword ptr [rip + x.18]
	mov	ecx, dword ptr [rip + y.19]
	lea	edx, [rax - 1]
	imul	edx, eax
	mov	eax, edx
	xor	eax, -2
	and	eax, edx
	sete	dl
	cmp	ecx, 10
	setl	bl
	xor	bl, dl
	mov	edx, -724867182
	cmovne	edx, r15d
	test	eax, eax
	mov	eax, edx
	cmove	eax, r15d
	cmp	ecx, 10
	cmovge	eax, edx
	jmp	.LBB6_1
	.p2align	4, 0x90
.LBB6_10:                               
	cmp	eax, 1340824141
	je	.LBB6_13

	cmp	eax, 1609899613
	jne	.LBB6_1

	mov	edi, 65536
	call	_ZN5Botan5CPUID13has_cpuid_bitENS0_10CPUID_bitsE
	test	al, al
	mov	eax, 240975468
	cmovne	eax, r12d
	jmp	.LBB6_1
.LBB6_16:                               
	mov	edi, 2
	call	_ZN5Botan5CPUID13has_cpuid_bitENS0_10CPUID_bitsE
	mov	eax, 1340824141
	jmp	.LBB6_1
.LBB6_13:                               
	mov	edi, 2
	call	_ZN5Botan5CPUID13has_cpuid_bitENS0_10CPUID_bitsE
	mov	eax, dword ptr [rip + x.18]
	lea	ecx, [rax - 1]
	imul	ecx, eax
	not	ecx
	or	ecx, -2
	cmp	ecx, -1
	sete	cl
	mov	eax, -724867182
	cmove	eax, r13d
	cmp	dword ptr [rip + y.19], 10
	setl	dl
	cmovge	eax, r14d
	xor	dl, cl
	cmovne	eax, r13d
	jmp	.LBB6_1
.LBB6_15:
	mov	rax, rbp
	add	rsp, 8
	pop	rbx
	pop	r12
	pop	r13
	pop	r14
	pop	r15
	pop	rbp
	ret
.Lfunc_end6:
	.size	_ZN5Botan12_GLOBAL__N_115aes_parallelismEv, .Lfunc_end6-_ZN5Botan12_GLOBAL__N_115aes_parallelismEv
	.cfi_endproc

	.globl	_ZNK5Botan7AES_19211parallelismEv 
	.p2align	4, 0x90
	.type	_ZNK5Botan7AES_19211parallelismEv,@function
_ZNK5Botan7AES_19211parallelismEv:      
	.cfi_startproc

	jmp	_ZN5Botan12_GLOBAL__N_115aes_parallelismEv 
.Lfunc_end7:
	.size	_ZNK5Botan7AES_19211parallelismEv, .Lfunc_end7-_ZNK5Botan7AES_19211parallelismEv
	.cfi_endproc

	.globl	_ZNK5Botan7AES_25611parallelismEv 
	.p2align	4, 0x90
	.type	_ZNK5Botan7AES_25611parallelismEv,@function
_ZNK5Botan7AES_25611parallelismEv:      
	.cfi_startproc

	push	rbp
.Lcfi55:
	.cfi_def_cfa_offset 16
	push	r15
.Lcfi56:
	.cfi_def_cfa_offset 24
	push	r14
.Lcfi57:
	.cfi_def_cfa_offset 32
	push	rbx
.Lcfi58:
	.cfi_def_cfa_offset 40
	sub	rsp, 24
.Lcfi59:
	.cfi_def_cfa_offset 64
.Lcfi60:
	.cfi_offset rbx, -40
.Lcfi61:
	.cfi_offset r14, -32
.Lcfi62:
	.cfi_offset r15, -24
.Lcfi63:
	.cfi_offset rbp, -16
	mov	eax, dword ptr [rip + x.22]
	lea	ecx, [rax - 1]
	imul	ecx, eax
	not	ecx
	or	ecx, -2
	cmp	ecx, -1
	sete	byte ptr [rsp + 14]
	mov	eax, dword ptr [rip + y.23]
	cmp	eax, 10
	setl	byte ptr [rsp + 15]
	mov	ecx, 512975350
	mov	r15d, 1712705150
	mov	r14d, 1528988950
	mov	ebp, -1053902397
	jmp	.LBB8_1
.LBB8_4:                                
	movzx	eax, byte ptr [rsp + 14]
	movzx	ecx, byte ptr [rsp + 15]
	mov	edx, eax
	xor	dl, cl
	test	cl, cl
	mov	ecx, 1528988950
	cmovne	ecx, r15d
	test	al, al
	cmove	ecx, r14d
	test	dl, dl
	cmovne	ecx, r15d
	.p2align	4, 0x90
.LBB8_1:                                
	cmp	ecx, 1528988949
	jg	.LBB8_5

	cmp	ecx, -1053902397
	je	.LBB8_8

	cmp	ecx, 512975350
	jne	.LBB8_1
	jmp	.LBB8_4
	.p2align	4, 0x90
.LBB8_5:                                
	cmp	ecx, 1528988950
	je	.LBB8_9

	cmp	ecx, 1712705150
	jne	.LBB8_1

	call	_ZN5Botan12_GLOBAL__N_115aes_parallelismEv
	mov	ecx, dword ptr [rip + x.22]
	mov	edx, dword ptr [rip + y.23]
	lea	esi, [rcx - 1]
	imul	esi, ecx
	not	esi
	or	esi, -2
	cmp	esi, -1
	sete	cl
	cmp	edx, 10
	setl	bl
	xor	bl, cl
	mov	edi, 1528988950
	cmovne	edi, ebp
	cmp	esi, -1
	mov	ecx, edi
	cmove	ecx, ebp
	cmp	edx, 10
	mov	qword ptr [rsp + 16], rax
	cmovge	ecx, edi
	jmp	.LBB8_1
.LBB8_9:                                
	call	_ZN5Botan12_GLOBAL__N_115aes_parallelismEv
	mov	ecx, 1712705150
	jmp	.LBB8_1
.LBB8_8:
	mov	rax, qword ptr [rsp + 16]
	add	rsp, 24
	pop	rbx
	pop	r14
	pop	r15
	pop	rbp
	ret
.Lfunc_end8:
	.size	_ZNK5Botan7AES_25611parallelismEv, .Lfunc_end8-_ZNK5Botan7AES_25611parallelismEv
	.cfi_endproc

	.globl	_ZNK5Botan7AES_1289encrypt_nEPKhPhm 
	.p2align	4, 0x90
	.type	_ZNK5Botan7AES_1289encrypt_nEPKhPhm,@function
_ZNK5Botan7AES_1289encrypt_nEPKhPhm:    
	.cfi_startproc

	push	rbp
.Lcfi64:
	.cfi_def_cfa_offset 16
	push	r15
.Lcfi65:
	.cfi_def_cfa_offset 24
	push	r14
.Lcfi66:
	.cfi_def_cfa_offset 32
	push	r13
.Lcfi67:
	.cfi_def_cfa_offset 40
	push	r12
.Lcfi68:
	.cfi_def_cfa_offset 48
	push	rbx
.Lcfi69:
	.cfi_def_cfa_offset 56
	sub	rsp, 24
.Lcfi70:
	.cfi_def_cfa_offset 80
.Lcfi71:
	.cfi_offset rbx, -56
.Lcfi72:
	.cfi_offset r12, -48
.Lcfi73:
	.cfi_offset r13, -40
.Lcfi74:
	.cfi_offset r14, -32
.Lcfi75:
	.cfi_offset r15, -24
.Lcfi76:
	.cfi_offset rbp, -16
	mov	eax, dword ptr [rip + x.24]
	lea	ebp, [rax - 1]
	imul	ebp, eax
	not	ebp
	or	ebp, -2
	cmp	ebp, -1
	sete	byte ptr [rsp + 9]
	mov	eax, dword ptr [rip + y.25]
	cmp	eax, 10
	setl	byte ptr [rsp + 10]
	mov	r14, rcx
	mov	r15, rdx
	mov	r12, rsi
	mov	rbp, rdi
	lea	r13, [rbp + 8]
	mov	eax, 22124747
	mov	ebx, 1837750050
	jmp	.LBB9_1
.LBB9_39:                               
	mov	rdi, rbp
	mov	rsi, r12
	mov	rdx, r15
	mov	rcx, r14
	call	_ZNK5Botan7AES_12816hw_aes_encrypt_nEPKhPhm
	mov	eax, -1151816675
	.p2align	4, 0x90
.LBB9_1:                                


	cmp	eax, -186331147
	jg	.LBB9_11

	cmp	eax, -1096498835
	jg	.LBB9_7

	cmp	eax, -1909200101
	je	.LBB9_27

	cmp	eax, -1151816675
	je	.LBB9_29

	cmp	eax, -1124093218
	jne	.LBB9_1

	mov	rdi, rbp
	mov	rsi, r12
	mov	rdx, r15
	mov	rcx, r14
	call	_ZNK5Botan7AES_12815vperm_encrypt_nEPKhPhm
	mov	eax, 2086048784
	jmp	.LBB9_1
	.p2align	4, 0x90
.LBB9_11:                               
	cmp	eax, 723075388
	jg	.LBB9_16

	cmp	eax, -186331146
	je	.LBB9_39

	cmp	eax, -118013709
	je	.LBB9_32

	cmp	eax, 22124747
	jne	.LBB9_1

	mov	cl, byte ptr [rsp + 9]
	mov	al, byte ptr [rsp + 10]
	mov	edx, ecx
	xor	dl, al
	mov	edx, -118013709
	mov	esi, 723075389
	cmovne	edx, esi
	test	al, al
	mov	eax, edx
	cmovne	eax, esi
	test	cl, cl
	cmove	eax, edx
	jmp	.LBB9_1
	.p2align	4, 0x90
.LBB9_7:                                
	cmp	eax, -1096498834
	je	.LBB9_31

	cmp	eax, -1028666996
	je	.LBB9_30

	cmp	eax, -781422420
	jne	.LBB9_1

	mov	eax, 2086048784
	jmp	.LBB9_1
	.p2align	4, 0x90
.LBB9_16:                               
	cmp	eax, 723075389
	je	.LBB9_20

	cmp	eax, 1058428751
	je	.LBB9_28

	cmp	eax, 2086048784
	jne	.LBB9_1
	jmp	.LBB9_19
.LBB9_27:                               
	mov	al, byte ptr [rsp + 11]
	test	al, al
	mov	eax, -1028666996
	mov	ecx, 1058428751
	cmovne	eax, ecx
	jmp	.LBB9_1
.LBB9_29:                               
	mov	rdi, rbp
	mov	rsi, r12
	mov	rdx, r15
	mov	rcx, r14
	call	_ZNK5Botan7AES_12816hw_aes_encrypt_nEPKhPhm
	mov	eax, dword ptr [rip + x.24]
	lea	ecx, [rax - 1]
	imul	ecx, eax
	mov	eax, ecx
	xor	eax, -2
	and	eax, ecx
	sete	cl
	test	eax, eax
	mov	eax, -186331146
	mov	esi, -781422420
	cmove	eax, esi
	cmp	dword ptr [rip + y.25], 10
	setl	dl
	mov	edi, -186331146
	cmovge	eax, edi
	xor	dl, cl
	cmovne	eax, esi
	jmp	.LBB9_1
.LBB9_32:                               
	mov	rdi, r13
	call	_ZNKSt6vectorIjN5Botan16secure_allocatorIjEEE5emptyEv
	xor	al, 1
	movzx	eax, al
	mov	dword ptr [rsp + 12], eax
	mov	eax, 42528849
	jmp	.LBB9_33
.LBB9_31:                               
	mov	rcx, qword ptr [rsp + 16]
	mov	rdi, r12
	mov	rsi, r15
	mov	rdx, r14
	call	_ZN5Botan12_GLOBAL__N_113aes_encrypt_nEPKhPhmRKSt6vectorIjNS_16secure_allocatorIjEEE
	mov	eax, 2086048784
	jmp	.LBB9_1
.LBB9_30:                               
	mov	edi, 2
	call	_ZN5Botan5CPUID13has_cpuid_bitENS0_10CPUID_bitsE
	test	al, al
	mov	eax, -1096498834
	mov	ecx, -1124093218
	cmovne	eax, ecx
	jmp	.LBB9_1
.LBB9_20:                               
	mov	qword ptr [rsp + 16], r13
	mov	rdi, qword ptr [rsp + 16]
	call	_ZNKSt6vectorIjN5Botan16secure_allocatorIjEEE5emptyEv
	xor	al, 1
	movzx	eax, al
	mov	dword ptr [rsp + 12], eax
	mov	eax, 42528849
	jmp	.LBB9_21
.LBB9_28:                               
	mov	eax, dword ptr [rip + x.24]
	mov	ecx, dword ptr [rip + y.25]
	lea	edx, [rax - 1]
	imul	edx, eax
	not	edx
	or	edx, -2
	cmp	edx, -1
	sete	al
	cmp	ecx, 10
	setl	bl
	xor	bl, al
	mov	ebx, 1837750050
	mov	esi, -186331146
	mov	edi, -1151816675
	cmovne	esi, edi
	cmp	edx, -1
	mov	eax, esi
	cmove	eax, edi
	cmp	ecx, 10
	cmovge	eax, esi
	jmp	.LBB9_1
.LBB9_36:                               
	cmp	dword ptr [rsp + 12], 0
	mov	eax, 820142868
	cmove	eax, ebx
	.p2align	4, 0x90
.LBB9_33:                               

	mov	ecx, eax
	and	ecx, 2147483647
	cmp	ecx, 1837750050
	je	.LBB9_37

	cmp	ecx, 820142868
	je	.LBB9_38

	cmp	ecx, 42528849
	jne	.LBB9_33
	jmp	.LBB9_36
.LBB9_37:                               
	mov	rdi, rbp
	call	_ZNK5Botan18SymmetricAlgorithm23throw_key_not_set_errorEv
	mov	eax, 820142868
	jmp	.LBB9_33
.LBB9_24:                               
	cmp	dword ptr [rsp + 12], 0
	mov	eax, 820142868
	cmove	eax, ebx
	.p2align	4, 0x90
.LBB9_21:                               

	mov	ecx, eax
	and	ecx, 2147483647
	cmp	ecx, 1837750050
	je	.LBB9_25

	cmp	ecx, 820142868
	je	.LBB9_26

	cmp	ecx, 42528849
	jne	.LBB9_21
	jmp	.LBB9_24
.LBB9_25:                               
	mov	rdi, rbp
	call	_ZNK5Botan18SymmetricAlgorithm23throw_key_not_set_errorEv
	mov	eax, 820142868
	jmp	.LBB9_21
.LBB9_38:                               
	mov	edi, 65536
	call	_ZN5Botan5CPUID13has_cpuid_bitENS0_10CPUID_bitsE
	mov	eax, 723075389
	jmp	.LBB9_1
.LBB9_26:                               
	mov	edi, 65536
	call	_ZN5Botan5CPUID13has_cpuid_bitENS0_10CPUID_bitsE
	mov	byte ptr [rsp + 11], al
	mov	eax, dword ptr [rip + x.24]
	lea	ecx, [rax - 1]
	imul	ecx, eax
	not	ecx
	or	ecx, -2
	cmp	ecx, -1
	sete	cl
	mov	eax, -118013709
	mov	edi, -1909200101
	cmove	eax, edi
	cmp	dword ptr [rip + y.25], 10
	setl	dl
	mov	esi, -118013709
	cmovge	eax, esi
	xor	dl, cl
	cmovne	eax, edi
	jmp	.LBB9_1
.LBB9_19:
	add	rsp, 24
	pop	rbx
	pop	r12
	pop	r13
	pop	r14
	pop	r15
	pop	rbp
	ret
.Lfunc_end9:
	.size	_ZNK5Botan7AES_1289encrypt_nEPKhPhm, .Lfunc_end9-_ZNK5Botan7AES_1289encrypt_nEPKhPhm
	.cfi_endproc

	.section	.text._ZNKSt6vectorIjN5Botan16secure_allocatorIjEEE5emptyEv,"axG",@progbits,_ZNKSt6vectorIjN5Botan16secure_allocatorIjEEE5emptyEv,comdat
	.weak	_ZNKSt6vectorIjN5Botan16secure_allocatorIjEEE5emptyEv 
	.p2align	4, 0x90
	.type	_ZNKSt6vectorIjN5Botan16secure_allocatorIjEEE5emptyEv,@function
_ZNKSt6vectorIjN5Botan16secure_allocatorIjEEE5emptyEv: 

	push	rbp
	push	r15
	push	r14
	push	r13
	push	r12
	push	rbx
	mov	eax, dword ptr [rip + x.600]
	mov	esi, dword ptr [rip + y.601]
	mov	dword ptr [rsp - 8], esi 
	lea	r11d, [rax - 1]
	imul	r11d, eax
	mov	r13d, r11d
	xor	r13d, -2
	mov	eax, r13d
	and	eax, r11d
	sete	cl
	cmp	esi, 10
	setl	dl
	xor	dl, cl
	mov	r9d, 1294578909
	mov	ecx, 1062267350
	cmovne	ecx, r9d
	test	eax, eax
	cmovne	r9d, ecx
	cmp	esi, 10
	mov	eax, dword ptr [rip + x.28]
	cmovge	r9d, ecx
	lea	ecx, [rax - 1]
	imul	ecx, eax
	mov	eax, ecx
	xor	eax, -2
	and	eax, ecx
	sete	sil
	mov	edx, dword ptr [rip + x.602]
	mov	ecx, dword ptr [rip + y.603]
	sete	byte ptr [rsp - 19]
	lea	r14d, [rdx - 1]
	imul	r14d, edx
	mov	r8d, r14d
	xor	r8d, -2
	mov	edx, r8d
	and	edx, r14d
	sete	bl
	test	edx, edx
	mov	edx, -747378839
	mov	r15d, 1622612844
	mov	r10d, 1622612844
	cmove	r10d, edx
	mov	dword ptr [rsp - 4], ecx 
	cmp	ecx, 10
	setl	cl
	cmovge	r10d, r15d
	xor	cl, bl
	mov	ecx, dword ptr [rip + y.29]
	cmovne	r10d, edx
	test	eax, eax
	mov	eax, 2000684359
	mov	ebx, 489682948
	cmove	ebx, eax
	cmp	ecx, 10
	mov	edx, 489682948
	setl	byte ptr [rsp - 18]
	setl	cl
	cmovge	ebx, edx
	xor	cl, sil
	cmovne	ebx, eax
	mov	ecx, -993891015
	jmp	.LBB10_1
	.p2align	4, 0x90
.LBB10_44:                              
	mov	al, byte ptr [rsp - 16]
	mov	ecx, 745801339
.LBB10_1:                               





	mov	ebp, 44391302
	jmp	.LBB10_2
.LBB10_13:                              
	mov	al, byte ptr [rsp - 19]
	mov	cl, byte ptr [rsp - 18]
	mov	edx, eax
	xor	dl, cl
	test	cl, cl
	mov	ecx, 489682948
	mov	esi, 745801339
	cmovne	ecx, esi
	test	al, al
	mov	eax, 489682948
	cmove	ecx, eax
	test	dl, dl
	cmovne	ecx, esi
	.p2align	4, 0x90
.LBB10_2:                               



	cmp	ecx, 745801338
	jle	.LBB10_3

	cmp	ecx, 745801339
	je	.LBB10_14

	cmp	ecx, 2000684359
	jne	.LBB10_2
	jmp	.LBB10_12
	.p2align	4, 0x90
.LBB10_3:                               
	cmp	ecx, -993891015
	je	.LBB10_13

	cmp	ecx, 489682948
	jne	.LBB10_2
	jmp	.LBB10_5
.LBB10_14:                              
	test	r8d, r14d
	sete	byte ptr [rsp - 21]
	cmp	dword ptr [rsp - 4], 10 
	setl	byte ptr [rsp - 20]
	mov	ecx, 400395118
	jmp	.LBB10_15
.LBB10_21:                              
	movzx	eax, byte ptr [rsp - 21]
	movzx	ecx, byte ptr [rsp - 20]
	mov	edx, eax
	xor	dl, cl
	test	cl, cl
	mov	ecx, 1622612844
	cmovne	ecx, ebp
	test	al, al
	mov	eax, 1622612844
	cmove	ecx, eax
	test	dl, dl
	cmovne	ecx, ebp
	.p2align	4, 0x90
.LBB10_15:                              


	cmp	ecx, 400395117
	jg	.LBB10_19

	cmp	ecx, -747378839
	je	.LBB10_23

	cmp	ecx, 44391302
	jne	.LBB10_15

	mov	rax, qword ptr [rdi]
	mov	qword ptr [rsp - 16], rax
	mov	ecx, r10d
	jmp	.LBB10_15
	.p2align	4, 0x90
.LBB10_19:                              
	cmp	ecx, 1622612844
	je	.LBB10_22

	cmp	ecx, 400395118
	jne	.LBB10_15
	jmp	.LBB10_21
.LBB10_22:                              
	mov	ecx, 44391302
	jmp	.LBB10_15
.LBB10_23:                              
	test	r13d, r11d
	mov	r15, qword ptr [rsp - 16]
	mov	r12, qword ptr [rdi + 8]
	sete	byte ptr [rsp - 21]
	cmp	dword ptr [rsp - 8], 10 
	setl	byte ptr [rsp - 20]
	mov	ecx, 206713551
	jmp	.LBB10_24
.LBB10_45:                              
	movzx	eax, byte ptr [rsp - 21]
	movzx	ecx, byte ptr [rsp - 20]
	mov	edx, eax
	xor	dl, cl
	test	cl, cl
	mov	ecx, 1062267350
	mov	esi, 1968730159
	cmovne	ecx, esi
	test	al, al
	mov	eax, 1062267350
	cmove	ecx, eax
	test	dl, dl
	cmovne	ecx, esi
	.p2align	4, 0x90
.LBB10_24:                              


	mov	eax, ecx
	and	eax, 2147483647
	cmp	eax, 1294578908
	jg	.LBB10_28

	cmp	eax, 206713551
	je	.LBB10_45

	cmp	eax, 1062267350
	jne	.LBB10_24

	mov	ecx, 1968730159
	jmp	.LBB10_24
	.p2align	4, 0x90
.LBB10_28:                              
	cmp	eax, 1294578909
	je	.LBB10_31

	cmp	eax, 1968730159
	jne	.LBB10_24

	cmp	r12, r15
	sete	byte ptr [rsp - 16]
	mov	ecx, r9d
	jmp	.LBB10_24
.LBB10_31:                              
	mov	al, byte ptr [rsp - 16]
	mov	byte ptr [rsp - 17], al
	mov	ecx, ebx
	jmp	.LBB10_2
	.p2align	4, 0x90
.LBB10_5:                               
	test	r8d, r14d
	sete	byte ptr [rsp - 21]
	cmp	dword ptr [rsp - 4], 10 
	setl	byte ptr [rsp - 20]
	mov	ecx, 400395118
	jmp	.LBB10_6
.LBB10_34:                              
	movzx	eax, byte ptr [rsp - 21]
	movzx	ecx, byte ptr [rsp - 20]
	mov	edx, eax
	xor	dl, cl
	test	cl, cl
	mov	ecx, 1622612844
	cmovne	ecx, ebp
	test	al, al
	mov	eax, 1622612844
	cmove	ecx, eax
	test	dl, dl
	cmovne	ecx, ebp
	.p2align	4, 0x90
.LBB10_6:                               

	cmp	ecx, 400395117
	jg	.LBB10_32

	cmp	ecx, -747378839
	je	.LBB10_36

	cmp	ecx, 44391302
	jne	.LBB10_6

	mov	rax, qword ptr [rdi]
	mov	qword ptr [rsp - 16], rax
	mov	ecx, r10d
	jmp	.LBB10_6
	.p2align	4, 0x90
.LBB10_32:                              
	cmp	ecx, 1622612844
	je	.LBB10_35

	cmp	ecx, 400395118
	jne	.LBB10_6
	jmp	.LBB10_34
.LBB10_35:                              
	mov	ecx, 44391302
	jmp	.LBB10_6
	.p2align	4, 0x90
.LBB10_36:                              
	test	r13d, r11d
	mov	rbp, qword ptr [rsp - 16]
	mov	r12, qword ptr [rdi + 8]
	sete	byte ptr [rsp - 21]
	cmp	dword ptr [rsp - 8], 10 
	setl	byte ptr [rsp - 20]
	mov	esi, 206713551
	jmp	.LBB10_37
.LBB10_46:                              
	movzx	ecx, byte ptr [rsp - 21]
	movzx	edx, byte ptr [rsp - 20]
	mov	eax, ecx
	xor	al, dl
	mov	eax, 1062267350
	mov	r15d, 1968730159
	cmovne	eax, r15d
	test	dl, dl
	mov	esi, eax
	cmovne	esi, r15d
	test	cl, cl
	cmove	esi, eax
	.p2align	4, 0x90
.LBB10_37:                              

	mov	eax, esi
	and	eax, 2147483647
	cmp	eax, 1294578908
	jg	.LBB10_41

	cmp	eax, 206713551
	je	.LBB10_46

	cmp	eax, 1062267350
	jne	.LBB10_37

	mov	esi, 1968730159
	jmp	.LBB10_37
	.p2align	4, 0x90
.LBB10_41:                              
	cmp	eax, 1294578909
	je	.LBB10_44

	cmp	eax, 1968730159
	jne	.LBB10_37

	cmp	r12, rbp
	sete	byte ptr [rsp - 16]
	mov	esi, r9d
	jmp	.LBB10_37
.LBB10_12:
	mov	al, byte ptr [rsp - 17]
	pop	rbx
	pop	r12
	pop	r13
	pop	r14
	pop	r15
	pop	rbp
	ret
.Lfunc_end10:
	.size	_ZNKSt6vectorIjN5Botan16secure_allocatorIjEEE5emptyEv, .Lfunc_end10-_ZNKSt6vectorIjN5Botan16secure_allocatorIjEEE5emptyEv

	.text
	.p2align	4, 0x90         
	.type	_ZN5Botan12_GLOBAL__N_113aes_encrypt_nEPKhPhmRKSt6vectorIjNS_16secure_allocatorIjEEE,@function
_ZN5Botan12_GLOBAL__N_113aes_encrypt_nEPKhPhmRKSt6vectorIjNS_16secure_allocatorIjEEE: 
	.cfi_startproc

	push	rbp
.Lcfi77:
	.cfi_def_cfa_offset 16
	push	r15
.Lcfi78:
	.cfi_def_cfa_offset 24
	push	r14
.Lcfi79:
	.cfi_def_cfa_offset 32
	push	r13
.Lcfi80:
	.cfi_def_cfa_offset 40
	push	r12
.Lcfi81:
	.cfi_def_cfa_offset 48
	push	rbx
.Lcfi82:
	.cfi_def_cfa_offset 56
	sub	rsp, 760
.Lcfi83:
	.cfi_def_cfa_offset 816
.Lcfi84:
	.cfi_offset rbx, -56
.Lcfi85:
	.cfi_offset r12, -48
.Lcfi86:
	.cfi_offset r13, -40
.Lcfi87:
	.cfi_offset r14, -32
.Lcfi88:
	.cfi_offset r15, -24
.Lcfi89:
	.cfi_offset rbp, -16
	mov	qword ptr [rsp + 288], rsi 
	mov	qword ptr [rsp + 280], rdi 
	mov	qword ptr [rsp + 96], rdx 
	mov	qword ptr [rsp + 104], rdx
	movabs	rax, -3210321858032146816
	mov	rdx, qword ptr [rcx + 8]
	add	rdx, rax
	mov	qword ptr [rsp + 72], rcx 
	sub	rdx, qword ptr [rcx]
	sub	rdx, rax
	sar	rdx, 2
	mov	qword ptr [rsp + 296], rdx
	mov	eax, -899629654
	movabs	rcx, 5775524668945578936
	not	rcx
	mov	qword ptr [rsp + 272], rcx 
	lea	r15, [rsp + 88]
	lea	r13, [rsp + 104]













	jmp	.LBB11_1
.LBB11_168:                             
	cmovge	eax, esi
	xor	dl, cl
	cmovne	eax, edi
	.p2align	4, 0x90
.LBB11_1:                               










	cmp	eax, 326656951
	jg	.LBB11_42

	cmp	eax, -858887279
	jle	.LBB11_3

	cmp	eax, -244312995
	jg	.LBB11_33

	cmp	eax, -799865406
	jg	.LBB11_29

	cmp	eax, -858887278
	je	.LBB11_169

	cmp	eax, -839891341
	je	.LBB11_175

	cmp	eax, -819333719
	jne	.LBB11_1

	mov	eax, dword ptr [rip + x.34]
	mov	ecx, dword ptr [rip + y.35]
	mov	edx, eax
	neg	edx
	not	edx
	imul	edx, eax
	mov	eax, edx
	xor	eax, -2
	and	eax, edx
	sete	dl
	cmp	ecx, 10
	setl	bl
	xor	bl, dl
	mov	edx, 523663520
	mov	esi, 471181591
	cmovne	edx, esi
	test	eax, eax
	mov	eax, edx
	cmove	eax, esi
	cmp	ecx, 10
	cmovge	eax, edx
	jmp	.LBB11_1
	.p2align	4, 0x90
.LBB11_42:                              
	cmp	eax, 1230391506
	jle	.LBB11_43

	cmp	eax, 1591183436
	jg	.LBB11_76

	cmp	eax, 1484522079
	jg	.LBB11_67

	cmp	eax, 1230391507
	je	.LBB11_176

	cmp	eax, 1295456572
	je	.LBB11_89

	cmp	eax, 1450651221
	jne	.LBB11_1

	mov	eax, -317150489
	xor	ecx, ecx
	mov	qword ptr [rsp + 232], rcx 
	jmp	.LBB11_1
	.p2align	4, 0x90
.LBB11_3:                               
	cmp	eax, -1554491004
	jle	.LBB11_4

	cmp	eax, -1140377665
	jg	.LBB11_18

	cmp	eax, -1554491003
	je	.LBB11_112

	cmp	eax, -1518362609
	je	.LBB11_108

	cmp	eax, -1201441070
	jne	.LBB11_1

	mov	rax, qword ptr [rsp + 208] 
	mov	qword ptr [rsp + 8], rax
	mov	rax, qword ptr [rsp + 40]
	xor	ecx, ecx
	sub	rcx, rax
	not	rcx
	mov	qword ptr [rsp + 128], rcx
	mov	rax, qword ptr [rsp + 128]
	mov	rcx, qword ptr [rsp + 8]
	cmp	rcx, rax
	mov	eax, 320886847
	mov	ecx, 1728234477
	cmovb	eax, ecx
	jmp	.LBB11_1
	.p2align	4, 0x90
.LBB11_43:                              
	cmp	eax, 940197834
	jle	.LBB11_44

	cmp	eax, 1039921288
	jg	.LBB11_57

	cmp	eax, 940197835
	je	.LBB11_202

	cmp	eax, 987599049
	je	.LBB11_88

	cmp	eax, 1024577551
	jne	.LBB11_1

	mov	rax, qword ptr [rsp + 128]
	mov	rax, qword ptr [rsp + 80]
	mov	eax, -1554491003
	jmp	.LBB11_1
.LBB11_33:                              
	cmp	eax, 236388552
	jg	.LBB11_38

	cmp	eax, -244312994
	je	.LBB11_167

	cmp	eax, -136978984
	je	.LBB11_85

	cmp	eax, 19129584
	jne	.LBB11_1

	mov	eax, dword ptr [rip + x.34]
	mov	ecx, dword ptr [rip + y.35]
	lea	edx, [rax - 1]
	imul	edx, eax
	not	edx
	or	edx, -2
	cmp	edx, -1
	sete	al
	cmp	ecx, 10
	setl	bl
	xor	bl, al
	mov	esi, 940197835
	mov	edi, 1230391507
	cmovne	esi, edi
	cmp	edx, -1
	mov	eax, esi
	cmove	eax, edi
	cmp	ecx, 10
	cmovge	eax, esi
	jmp	.LBB11_1
.LBB11_76:                              
	cmp	eax, 1755569636
	jg	.LBB11_81

	cmp	eax, 1591183437
	je	.LBB11_110

	cmp	eax, 1653360594
	je	.LBB11_86

	cmp	eax, 1728234477
	jne	.LBB11_1

	mov	eax, dword ptr [rip + x.34]
	mov	ecx, eax
	neg	ecx
	not	ecx
	imul	ecx, eax
	mov	eax, ecx
	xor	eax, -2
	and	eax, ecx
	sete	cl
	test	eax, eax
	mov	eax, 1541149977
	mov	edi, -1561332902
	cmove	eax, edi
	cmp	dword ptr [rip + y.35], 10
	setl	dl
	mov	esi, 1541149977
	jmp	.LBB11_168
.LBB11_4:                               
	cmp	eax, -1860113753
	jle	.LBB11_5

	cmp	eax, -1860113752
	je	.LBB11_172

	cmp	eax, -1718829545
	je	.LBB11_170

	cmp	eax, -1561332902
	jne	.LBB11_1

	mov	rax, qword ptr [rsp + 8]
	shl	rax, 5
	lea	rdi, [rsp + rax + 336]
	mov	rax, qword ptr [rsp + 72] 
	mov	rsi, qword ptr [rax]
	mov	rax, qword ptr [rsp + 8]
	movabs	rcx, -220013532466152758
	lea	rdx, [rcx + 4*rax + 4]
	sub	rdx, rcx
	call	_ZN5Botan12_GLOBAL__N_19ks_expandEPjPKjm
	mov	eax, dword ptr [rip + x.34]
	mov	ecx, dword ptr [rip + y.35]
	lea	edx, [rax - 1]
	imul	edx, eax
	not	edx
	or	edx, -2
	cmp	edx, -1
	sete	al
	cmp	ecx, 10
	setl	bl
	xor	bl, al
	mov	esi, 1541149977
	mov	edi, 987599049
	cmovne	esi, edi
	cmp	edx, -1
	mov	eax, esi
	cmove	eax, edi
	cmp	ecx, 10
	mov	rcx, qword ptr [rsp + 8]
	cmovge	eax, esi
	inc	rcx
	mov	qword ptr [rsp + 304], rcx
	jmp	.LBB11_1
.LBB11_44:                              
	cmp	eax, 471181590
	jle	.LBB11_45

	cmp	eax, 471181591
	je	.LBB11_109

	cmp	eax, 523663520
	je	.LBB11_199

	cmp	eax, 928901350
	jne	.LBB11_1

	mov	eax, dword ptr [rip + x.34]
	mov	ecx, dword ptr [rip + y.35]
	lea	edx, [rax - 1]
	imul	edx, eax
	mov	eax, edx
	xor	eax, -2
	and	eax, edx
	sete	dl
	cmp	ecx, 10
	setl	bl
	xor	bl, dl
	mov	edx, 344660996
	mov	esi, 1755569637
	cmovne	edx, esi
	test	eax, eax
	mov	eax, edx
	cmove	eax, esi
	cmp	ecx, 10
	cmovge	eax, edx
	cmp	qword ptr [rsp + 96], 0 
	setne	byte ptr [rsp + 22]
	jmp	.LBB11_1
.LBB11_18:                              
	cmp	eax, -1140377664
	je	.LBB11_171

	cmp	eax, -1133906156
	je	.LBB11_174

	cmp	eax, -899629654
	jne	.LBB11_1

	mov	rax, qword ptr [rsp + 296]
	cmp	rax, 44
	mov	eax, -136978984
	jmp	.LBB11_22
.LBB11_29:                              
	cmp	eax, -799865405
	je	.LBB11_114

	cmp	eax, -718432513
	je	.LBB11_87

	cmp	eax, -317150489
	jne	.LBB11_1

	mov	rax, qword ptr [rsp + 232] 
	mov	qword ptr [rsp + 24], rax
	mov	rax, qword ptr [rsp + 24]
	cmp	rax, 8
	mov	eax, -819333719
	mov	ecx, -1518362609
	cmove	eax, ecx
	jmp	.LBB11_1
.LBB11_57:                              
	cmp	eax, 1039921289
	je	.LBB11_178

	cmp	eax, 1162686386
	je	.LBB11_201

	cmp	eax, 1215595570
	jne	.LBB11_1

	mov	rax, qword ptr [rsp + 40]
	shl	rax, 2
	mov	rcx, qword ptr [rsp + 56]
	mov	rdx, rcx
	xor	rdx, -4
	and	rdx, rcx
	mov	rcx, rdx
	and	rcx, rax
	xor	rdx, rax
	or	rdx, rcx
	mov	rax, qword ptr [rsp + 72] 
	mov	rax, qword ptr [rax]
	mov	eax, dword ptr [rax + 4*rdx]
	mov	rcx, qword ptr [rsp + 56]
	mov	edx, dword ptr [rsp + 4*rcx + 160]
	mov	esi, edx
	not	esi
	and	esi, eax
	not	eax
	and	eax, edx
	or	eax, esi
	mov	dword ptr [rsp + 4*rcx + 160], eax
	mov	rax, qword ptr [rsp + 56]
	xor	ecx, ecx
	sub	rcx, rax
	mov	eax, 1
	sub	rax, rcx
	mov	qword ptr [rsp + 328], rax
	mov	eax, dword ptr [rip + x.34]
	lea	ecx, [rax - 1]
	imul	ecx, eax
	mov	eax, ecx
	xor	eax, -2
	and	eax, ecx
	sete	cl
	test	eax, eax
	mov	eax, 1162686386
	mov	esi, -1133906156
	cmove	eax, esi
	cmp	dword ptr [rip + y.35], 10
	setl	dl
	mov	edi, 1162686386
	jmp	.LBB11_92
.LBB11_38:                              
	cmp	eax, 236388553
	je	.LBB11_140

	cmp	eax, 302909093
	je	.LBB11_113

	cmp	eax, 320886847
	jne	.LBB11_1

	mov	qword ptr [rsp + 240], r15
	mov	rax, qword ptr [rsp + 240]
	mov	qword ptr [rsp + 88], 2
	mov	eax, 1295456572
	mov	rcx, qword ptr [rsp + 280] 
	mov	qword ptr [rsp + 216], rcx 
	mov	rcx, qword ptr [rsp + 288] 
	mov	qword ptr [rsp + 224], rcx 
	jmp	.LBB11_1
.LBB11_67:                              
	cmp	eax, 1484522080
	je	.LBB11_111

	cmp	eax, 1541149977
	je	.LBB11_177

	cmp	eax, 1554199008
	jne	.LBB11_1

	mov	rax, qword ptr [rsp + 88]
	mov	qword ptr [rsp + 32], rax
	mov	rax, qword ptr [rsp + 96] 
	mov	qword ptr [rsp + 64], rax
	mov	eax, dword ptr [rip + x.122]
	lea	ecx, [rax - 1]
	imul	ecx, eax
	mov	eax, ecx
	xor	eax, -2
	test	eax, ecx
	sete	al
	cmp	dword ptr [rip + y.123], 10
	setl	cl
	mov	edx, ecx
	and	dl, al
	xor	cl, al
	or	cl, dl
	mov	eax, 1119632240
	mov	ecx, -1537269979
	cmovne	eax, ecx
	mov	ecx, 1119632240
	mov	edx, -1501698044
	cmovne	ecx, edx
	mov	edx, -175418724
	mov	esi, 1344099410
	cmovne	edx, esi
	mov	esi, -175418724
	mov	edi, -1441340875
	cmovne	esi, edi
	mov	ebx, 1962321552

	jmp	.LBB11_71
.LBB11_96:                              
	mov	ebx, 1344099410
	.p2align	4, 0x90
.LBB11_71:                              

	mov	ebp, ebx
	cmp	ebp, 375291873
	jg	.LBB11_97

	cmp	ebp, -1441340876
	jle	.LBB11_73

	cmp	ebp, -1441340875
	je	.LBB11_107

	cmp	ebp, -218825286
	mov	ebx, eax
	je	.LBB11_71

	cmp	ebp, -175418724
	mov	ebx, ebp
	jne	.LBB11_71
	jmp	.LBB11_96
	.p2align	4, 0x90
.LBB11_97:                              
	cmp	ebp, 1344099409
	jle	.LBB11_98

	cmp	ebp, 1344099410
	mov	ebx, esi
	je	.LBB11_71

	cmp	ebp, 1962321552
	je	.LBB11_105

	cmp	ebp, 1935620248
	mov	ebx, ebp
	jne	.LBB11_71
	jmp	.LBB11_104
	.p2align	4, 0x90
.LBB11_98:                              
	cmp	ebp, 375291874
	mov	ebx, edx
	je	.LBB11_71

	cmp	ebp, 1119632240
	mov	ebx, ebp
	jne	.LBB11_71

	mov	ebx, -1537269979
	jmp	.LBB11_71
	.p2align	4, 0x90
.LBB11_73:                              
	cmp	ebp, -1537269979
	mov	ebx, ecx
	je	.LBB11_71

	cmp	ebp, -1501698044
	mov	ebx, ebp
	jne	.LBB11_71

	mov	ebx, 1935620248
	mov	rdi, r15
	jmp	.LBB11_71
.LBB11_105:                             
	mov	rbp, qword ptr [rsp + 32]
	cmp	rbp, qword ptr [rsp + 64]
	mov	ebx, -218825286
	jb	.LBB11_71

	mov	ebx, 375291874
	jmp	.LBB11_71
.LBB11_107:                             
	mov	ebx, 1935620248
	mov	rdi, r13
	jmp	.LBB11_71
.LBB11_81:                              
	cmp	eax, 1755569637
	je	.LBB11_90

	cmp	eax, 1925050337
	je	.LBB11_173

	cmp	eax, 2033665199
	jne	.LBB11_1

	mov	rax, qword ptr [rsp + 80]
	shl	rax, 3
	mov	rcx, qword ptr [rsp + 112]
	movabs	rdx, 1868527154380067397
	sub	rax, rdx
	add	rax, rcx
	add	rax, rdx
	mov	eax, dword ptr [rsp + 4*rax + 336]
	mov	rcx, qword ptr [rsp + 112]
	mov	edx, dword ptr [rsp + 4*rcx + 160]
	mov	esi, edx
	not	esi
	and	esi, eax
	not	eax
	and	eax, edx
	or	eax, esi
	mov	dword ptr [rsp + 4*rcx + 160], eax
	mov	rax, qword ptr [rsp + 112]
	movabs	rcx, 2114446191150616597
	sub	rax, rcx
	lea	rax, [rax + rcx + 1]
	mov	qword ptr [rsp + 200], rax 
	mov	eax, -2021720182
	jmp	.LBB11_1
.LBB11_5:                               
	cmp	eax, -2021720182
	je	.LBB11_166

	cmp	eax, -2007209536
	jne	.LBB11_7

	mov	rax, qword ptr [rsp + 80]
	mov	rax, qword ptr [rsp + 80]
	mov	rax, qword ptr [rsp + 80]
	mov	rax, qword ptr [rsp + 80]
	mov	eax, -858887278
	jmp	.LBB11_1
.LBB11_45:                              
	cmp	eax, 326656952
	je	.LBB11_91

	cmp	eax, 344660996
	jne	.LBB11_1

	mov	eax, 928901350
	jmp	.LBB11_1
.LBB11_112:                             
	mov	rax, qword ptr [rsp + 128]
	mov	rcx, qword ptr [rsp + 80]
	cmp	rcx, rax
	setne	byte ptr [rsp + 23]
	mov	eax, dword ptr [rip + x.34]
	mov	ecx, eax
	neg	ecx
	not	ecx
	imul	ecx, eax
	mov	eax, ecx
	xor	eax, -2
	and	eax, ecx
	sete	cl
	test	eax, eax
	mov	eax, 1024577551
	mov	esi, 302909093
	cmove	eax, esi
	cmp	dword ptr [rip + y.35], 10
	setl	dl
	mov	edi, 1024577551
	jmp	.LBB11_92
.LBB11_108:                             
	mov	r8, qword ptr [rsp + 48]
	mov	eax, dword ptr [r8]
	mov	r9d, dword ptr [r8 + 4]
	mov	edx, r9d
	shr	edx
	mov	ecx, edx
	not	ecx
	and	ecx, -988667184
	and	edx, 988667183
	or	edx, ecx
	mov	ecx, eax
	not	ecx
	mov	edi, ecx
	and	edi, -988667184
	mov	esi, eax
	and	esi, 988667183
	or	esi, edi
	xor	esi, edx
	mov	edx, esi
	not	edx
	or	edx, -1431655766
	and	esi, 1431655765
	lea	ebp, [rsi + rsi]
	mov	edi, ebp
	not	edi
	and	edi, -992196816
	and	ebp, 706914442
	or	ebp, edi
	mov	edi, r9d
	not	edi
	and	edi, -992196816
	and	r9d, 992196815
	or	r9d, edi
	xor	r9d, ebp
	and	edx, eax
	and	esi, ecx
	or	esi, edx
	mov	r10d, dword ptr [r8 + 12]
	mov	ebp, r10d
	shr	ebp
	mov	edx, dword ptr [r8 + 8]
	mov	edi, ebp
	not	edi
	and	edi, edx
	mov	ecx, edx
	not	ecx
	and	ebp, ecx
	or	ebp, edi
	mov	edi, ebp
	not	edi
	or	edi, -2013100022
	mov	eax, ebp
	and	eax, 1431655765
	add	eax, eax
	mov	ebx, eax
	not	ebx
	and	ebx, 90579187
	and	eax, -1433892344
	or	eax, ebx
	mov	ebx, r10d
	not	ebx
	and	ebx, 90579187
	and	r10d, -90579188
	or	r10d, ebx
	xor	r10d, eax
	and	edi, -598222770
	and	ebp, 16778513
	or	ebp, edi
	and	ecx, -598222770
	and	edx, 598222769
	or	edx, ecx
	xor	edx, ebp
	mov	ebp, dword ptr [r8 + 20]
	mov	edi, ebp
	shr	edi
	mov	r11d, dword ptr [r8 + 16]
	mov	eax, edi
	not	eax
	and	eax, 726865696
	and	edi, 1420617951
	or	edi, eax
	mov	eax, r11d
	not	eax
	mov	ebx, eax
	and	ebx, 726865696
	mov	ecx, r11d
	and	ecx, -726865697
	or	ecx, ebx
	xor	ecx, edi
	mov	edi, ecx
	not	edi
	or	edi, -1434443262
	mov	ebx, ecx
	and	ebx, 1431655765
	add	ebx, ebx
	mov	r15d, ebx
	not	r15d
	and	r15d, -1690854525
	and	ebx, 545792040
	or	ebx, r15d
	mov	r15d, ebp
	not	r15d
	and	r15d, -1690854525
	and	ebp, 1690854524
	or	ebp, r15d
	xor	ebp, ebx
	and	edi, -1433066990
	and	ecx, 1430279493
	or	ecx, edi
	and	eax, -1433066990
	and	r11d, 1433066989
	or	r11d, eax
	xor	r11d, ecx
	mov	r15d, dword ptr [r8 + 28]
	mov	edi, r15d
	shr	edi
	mov	qword ptr [rsp + 264], r12 
	mov	r14d, dword ptr [r8 + 24]
	mov	eax, edi
	not	eax
	and	eax, 874470442
	and	edi, 1273013205
	or	edi, eax
	mov	ecx, r14d
	not	ecx
	mov	ebx, ecx
	and	ebx, 874470442
	mov	eax, r14d
	and	eax, -874470443
	or	eax, ebx
	xor	eax, edi
	mov	edi, eax
	not	edi
	or	edi, -1431655766
	and	eax, 1431655765
	lea	r13d, [rax + rax]
	mov	ebx, r13d
	not	ebx
	and	ebx, 1456033431
	and	r13d, -1474125784
	or	r13d, ebx
	mov	ebx, r15d
	not	ebx
	and	ebx, 1456033431
	and	r15d, -1456033432
	or	r15d, ebx
	xor	r15d, r13d
	and	edi, r14d
	and	eax, ecx
	or	eax, edi
	mov	edi, edx
	shr	edi, 2
	mov	ecx, edi
	not	ecx
	and	ecx, -1085834431
	and	edi, 12092606
	or	edi, ecx
	mov	r14d, esi
	not	r14d
	mov	ebx, r14d
	and	ebx, -1085834431
	mov	ecx, esi
	and	ecx, 1085834430
	or	ecx, ebx
	xor	ecx, edi
	mov	ebx, ecx
	xor	ebx, -858993460
	and	ebx, ecx
	lea	ecx, [4*rbx]
	mov	edi, ecx
	not	edi
	and	edi, edx
	not	edx
	and	edx, ecx
	or	edx, edi
	mov	ecx, ebx
	not	ecx
	and	ecx, -2010701057
	and	ebx, 2010701056
	or	ebx, ecx
	and	r14d, -2010701057
	and	esi, 2010701056
	or	esi, r14d
	xor	esi, ebx
	mov	r14d, r10d
	shr	r14d, 2
	mov	edi, r14d
	not	edi
	and	edi, r9d
	mov	r13d, r9d
	not	r13d
	and	r14d, r13d
	or	r14d, edi
	mov	edi, r14d
	not	edi
	or	edi, -858993460
	and	r14d, 858993459
	lea	ebx, [4*r14]
	mov	ecx, ebx
	not	ecx
	and	ecx, -1982777722
	and	ebx, 1141688392
	or	ebx, ecx
	mov	ecx, r10d
	not	ecx
	and	ecx, -1982777722
	and	r10d, 1982777721
	or	r10d, ecx
	xor	r10d, ebx
	and	edi, r9d
	and	r14d, r13d
	or	r14d, edi
	mov	ebx, eax
	shr	ebx, 2
	mov	ecx, ebx
	not	ecx
	and	ecx, r11d
	mov	r9d, r11d
	not	r9d
	and	ebx, r9d
	or	ebx, ecx
	mov	r13d, ebx
	not	r13d
	or	r13d, -858993460
	and	ebx, 858993459
	lea	ecx, [4*rbx]
	mov	edi, ecx
	not	edi
	and	edi, 1106872964
	and	ecx, -1945877432
	or	ecx, edi
	mov	edi, eax
	not	edi
	and	edi, 1106872964
	and	eax, -1106872965
	or	eax, edi
	xor	eax, ecx
	and	r13d, r11d
	and	ebx, r9d
	or	ebx, r13d
	mov	ecx, r15d
	shr	ecx, 2
	mov	edi, ecx
	not	edi
	and	edi, -399633992
	and	ecx, 399633991
	or	ecx, edi
	mov	r9d, ebp
	not	r9d
	mov	edi, r9d
	and	edi, -399633992
	mov	r11d, ebp
	and	r11d, 399633991
	or	r11d, edi
	xor	r11d, ecx
	mov	r13d, r11d
	not	r13d
	or	r13d, -930839552
	mov	edi, r11d
	and	edi, 858993459
	shl	edi, 2
	mov	ecx, edi
	not	ecx
	and	ecx, -1118251807
	and	edi, 1082394636
	or	edi, ecx
	mov	ecx, r15d
	not	ecx
	and	ecx, -1118251807
	and	r15d, 1118251806
	or	r15d, ecx
	xor	r15d, edi
	and	r13d, -343632848
	and	r11d, 271786755
	or	r11d, r13d
	and	r9d, -343632848
	and	ebp, 343632847
	or	ebp, r9d
	xor	ebp, r11d
	mov	ecx, ebx
	shr	ecx, 4
	mov	edi, ecx
	not	edi
	and	edi, -284593283
	and	ecx, 16157826
	or	ecx, edi
	mov	r9d, esi
	not	r9d
	mov	edi, r9d
	and	edi, -284593283
	mov	r11d, esi
	and	r11d, 284593282
	or	r11d, edi
	xor	r11d, ecx
	mov	r13d, r11d
	not	r13d
	or	r13d, 537952272
	mov	edi, r11d
	and	edi, 252645135
	shl	edi, 4
	mov	ecx, edi
	not	ecx
	and	ecx, ebx
	not	ebx
	and	ebx, edi
	or	ebx, ecx
	mov	dword ptr [r8 + 16], ebx
	and	r13d, 723354648
	and	r11d, 67242759
	or	r11d, r13d
	lea	r13, [rsp + 104]
	and	r9d, 723354648
	and	esi, -723354649
	or	esi, r9d
	xor	esi, r11d
	mov	dword ptr [r8], esi
	mov	ecx, ebp
	shr	ecx, 4
	mov	esi, ecx
	not	esi
	and	esi, r14d
	mov	edi, r14d
	not	edi
	and	ecx, edi
	or	ecx, esi
	mov	esi, ecx
	xor	esi, -252645136
	and	esi, ecx
	mov	ebx, esi
	shl	ebx, 4
	mov	ecx, ebx
	not	ecx
	and	ecx, ebp
	not	ebp
	and	ebp, ebx
	or	ebp, ecx
	mov	dword ptr [r8 + 20], ebp
	mov	ecx, esi
	not	ecx
	and	ecx, r14d
	mov	r12, qword ptr [rsp + 264] 
	and	esi, edi
	or	esi, ecx
	mov	dword ptr [r8 + 4], esi
	mov	esi, eax
	shr	esi, 4
	mov	ecx, esi
	not	ecx
	and	ecx, 318604575
	and	esi, 218266336
	or	esi, ecx
	mov	ecx, edx
	not	ecx
	mov	edi, ecx
	and	edi, 318604575
	mov	ebp, edx
	and	ebp, -318604576
	or	ebp, edi
	xor	ebp, esi
	mov	esi, ebp
	xor	esi, -252645136
	and	esi, ebp
	mov	ebp, esi
	shl	ebp, 4
	mov	edi, ebp
	not	edi
	and	edi, eax
	not	eax
	and	eax, ebp
	or	eax, edi
	mov	dword ptr [r8 + 24], eax
	mov	eax, esi
	not	eax
	and	eax, -2103805618
	and	esi, 2103805617
	or	esi, eax
	and	ecx, -2103805618
	and	edx, 2103805617
	or	edx, ecx
	xor	edx, esi
	mov	dword ptr [r8 + 8], edx
	mov	edx, r15d
	shr	edx, 4
	mov	ecx, edx
	not	ecx
	and	ecx, r10d
	mov	eax, r10d
	not	eax
	and	edx, eax
	or	edx, ecx
	mov	ecx, edx
	xor	ecx, -252645136
	and	ecx, edx
	mov	edx, ecx
	shl	edx, 4
	mov	esi, edx
	not	esi
	and	esi, -82926727
	and	edx, 82926720
	or	edx, esi
	mov	esi, r15d
	not	esi
	and	esi, -82926727
	and	r15d, 82926726
	or	r15d, esi
	xor	r15d, edx
	mov	dword ptr [r8 + 28], r15d
	lea	r15, [rsp + 88]
	mov	edx, ecx
	not	edx
	and	edx, -3610825
	and	ecx, 3610824
	or	ecx, edx
	and	eax, -3610825
	and	r10d, 3610824
	or	r10d, eax
	xor	r10d, ecx
	mov	dword ptr [r8 + 12], r10d
	mov	eax, 1484522080
	xor	ecx, ecx
	mov	qword ptr [rsp + 192], rcx 
	jmp	.LBB11_1
.LBB11_172:                             
	mov	rax, qword ptr [rsp + 48]
	mov	rsi, qword ptr [rsp + 248]
	shl	rsi, 2
	mov	rdx, qword ptr [rsp + 48]
	mov	rdi, qword ptr [rsp + 256]
	call	_ZN5Botan11copy_out_beIjEEvPhmPKT_
	mov	rax, qword ptr [rsp + 136]
	shl	rax, 4
	mov	rcx, qword ptr [rsp + 152]
	add	rcx, rax
	mov	qword ptr [rsp + 216], rcx 
	add	rax, qword ptr [rsp + 256]
	mov	qword ptr [rsp + 224], rax 
	mov	rax, qword ptr [rsp + 96] 
	sub	rax, qword ptr [rsp + 136]
	mov	qword ptr [rsp + 96], rax 
	mov	qword ptr [rsp + 104], rax
	mov	rax, qword ptr [rsp + 144]
	mov	eax, 1295456572
	jmp	.LBB11_1
.LBB11_171:                             
	mov	qword ptr [rsp + 56], r12
	mov	rax, qword ptr [rsp + 56]
	cmp	rax, 8
	mov	eax, 1925050337
	mov	ecx, -1860113752
	cmove	eax, ecx
	jmp	.LBB11_1
.LBB11_174:                             
	mov	eax, -1140377664
	mov	r12, qword ptr [rsp + 328]
	jmp	.LBB11_1
.LBB11_169:                             
	mov	eax, dword ptr [rip + x.34]
	mov	ecx, dword ptr [rip + y.35]
	lea	edx, [rax - 1]
	imul	edx, eax
	not	edx
	or	edx, -2
	cmp	edx, -1
	sete	al
	cmp	ecx, 10
	setl	bl
	xor	bl, al
	mov	esi, -2007209536
	mov	edi, -1718829545
	cmovne	esi, edi
	cmp	edx, -1
	mov	eax, esi
	cmove	eax, edi
	cmp	ecx, 10
	mov	rcx, qword ptr [rsp + 80]
	movabs	rdx, -2840186561068777479
	lea	rcx, [rcx + rdx + 1]
	cmovge	eax, esi
	sub	rcx, rdx
	mov	qword ptr [rsp + 320], rcx
	jmp	.LBB11_1
.LBB11_175:                             
	mov	eax, dword ptr [rip + x.34]
	mov	ecx, dword ptr [rip + y.35]
	lea	edx, [rax - 1]
	imul	edx, eax
	not	edx
	or	edx, -2
	cmp	edx, -1
	sete	al
	cmp	ecx, 10
	setl	bl
	xor	bl, al
	mov	esi, 940197835
	mov	edi, 19129584
	cmovne	esi, edi
	cmp	edx, -1
	mov	eax, esi
	cmove	eax, edi
	cmp	ecx, 10
	mov	rcx, qword ptr [rsp + 240]
	mov	rcx, qword ptr [rsp + 120]
	cmovge	eax, esi
	jmp	.LBB11_1
.LBB11_89:                              
	mov	rax, qword ptr [rsp + 216] 
	mov	qword ptr [rsp + 152], rax
	mov	rax, qword ptr [rsp + 224] 
	mov	qword ptr [rsp + 256], rax
	mov	eax, dword ptr [rip + x.34]
	lea	ecx, [rax - 1]
	imul	ecx, eax
	not	ecx
	or	ecx, -2
	cmp	ecx, -1
	sete	cl
	mov	eax, 344660996
	mov	edi, 928901350
	cmove	eax, edi
	cmp	dword ptr [rip + y.35], 10
	setl	dl
	mov	esi, 344660996
	jmp	.LBB11_168
.LBB11_202:                             
	mov	eax, 19129584
	jmp	.LBB11_1
.LBB11_88:                              
	mov	eax, -1201441070
	mov	rcx, qword ptr [rsp + 304]
	mov	qword ptr [rsp + 208], rcx 
	jmp	.LBB11_1
.LBB11_167:                             
	mov	eax, dword ptr [rip + x.34]
	mov	ecx, eax
	neg	ecx
	not	ecx
	imul	ecx, eax
	not	ecx
	or	ecx, -2
	cmp	ecx, -1
	sete	cl
	mov	eax, -2007209536
	mov	edi, -858887278
	cmove	eax, edi
	cmp	dword ptr [rip + y.35], 10
	setl	dl
	mov	esi, -2007209536
	jmp	.LBB11_168
.LBB11_85:                              
	mov	rdx, qword ptr [rsp + 72] 
	mov	rax, qword ptr [rdx + 8]
	movabs	rcx, -5895947769690731173
	sub	rax, rcx
	sub	rax, qword ptr [rdx]
	movabs	rcx, 5895947769690731381
	cmp	rax, rcx
	mov	eax, 1653360594
	jmp	.LBB11_22
.LBB11_110:                             
	mov	eax, -317150489
	mov	rcx, qword ptr [rsp + 312]
	mov	qword ptr [rsp + 232], rcx 
	jmp	.LBB11_1
.LBB11_86:                              
	mov	rdx, qword ptr [rsp + 72] 
	mov	rax, qword ptr [rdx + 8]
	movabs	rcx, -2003754956619755539
	sub	rax, rcx
	sub	rax, qword ptr [rdx]
	movabs	rcx, 2003754956619755779
	cmp	rax, rcx
	mov	eax, -2128177015
.LBB11_22:                              
	mov	ecx, -718432513
	cmove	eax, ecx
	jmp	.LBB11_1
.LBB11_170:                             
	mov	eax, 1484522080
	mov	rcx, qword ptr [rsp + 320]
	mov	qword ptr [rsp + 192], rcx 
	jmp	.LBB11_1
.LBB11_109:                             
	mov	rax, qword ptr [rsp + 24]
	mov	rcx, rax
	movabs	rdx, 4611686018427387900
	xor	rcx, rdx
	and	rcx, rax
	mov	rax, qword ptr [rsp + 72] 
	mov	rax, qword ptr [rax]
	mov	eax, dword ptr [rax + 4*rcx]
	mov	rcx, qword ptr [rsp + 24]
	mov	edx, dword ptr [rsp + 4*rcx + 160]
	mov	esi, edx
	not	esi
	and	esi, eax
	not	eax
	and	eax, edx
	or	eax, esi
	mov	dword ptr [rsp + 4*rcx + 160], eax
	mov	eax, dword ptr [rip + x.34]
	mov	ecx, dword ptr [rip + y.35]
	mov	edx, eax
	neg	edx
	not	edx
	imul	edx, eax
	not	edx
	or	edx, -2
	cmp	edx, -1
	sete	al
	cmp	ecx, 10
	setl	bl
	xor	bl, al
	mov	esi, 523663520
	mov	edi, 1591183437
	cmovne	esi, edi
	cmp	edx, -1
	mov	eax, esi
	cmove	eax, edi
	cmp	ecx, 10
	cmovge	eax, esi
	mov	rcx, qword ptr [rsp + 24]
	xor	edx, edx
	sub	rdx, rcx
	mov	ecx, 1
	sub	rcx, rdx
	mov	qword ptr [rsp + 312], rcx
	jmp	.LBB11_1
.LBB11_199:                             
	mov	rax, qword ptr [rsp + 24]
	mov	rax, qword ptr [rsp + 24]
	mov	rax, qword ptr [rsp + 24]
	mov	rax, qword ptr [rsp + 24]
	mov	rax, qword ptr [rsp + 24]
	mov	rcx, rax
	movabs	rdx, 4611686018427387900
	xor	rcx, rdx
	and	rcx, rax
	mov	rax, qword ptr [rsp + 72] 
	mov	rax, qword ptr [rax]
	mov	eax, dword ptr [rax + 4*rcx]
	mov	rcx, qword ptr [rsp + 24]
	mov	edx, dword ptr [rsp + 4*rcx + 160]
	mov	esi, edx
	not	esi
	and	esi, -78164244
	and	edx, 78164243
	or	edx, esi
	mov	esi, eax
	not	esi
	and	esi, -78164244
	and	eax, 78164243
	or	eax, esi
	xor	eax, edx
	mov	dword ptr [rsp + 4*rcx + 160], eax
	mov	rax, qword ptr [rsp + 24]
	mov	rax, qword ptr [rsp + 24]
	mov	rax, qword ptr [rsp + 24]
	mov	eax, 471181591
	jmp	.LBB11_1
.LBB11_114:                             
	mov	rdi, qword ptr [rsp + 48]
	call	_ZN5Botan12_GLOBAL__N_18AES_SBOXEPj
	mov	r10, qword ptr [rsp + 48]
	xor	ecx, ecx
	jmp	.LBB11_115
.LBB11_87:                              
	mov	rdx, qword ptr [rsp + 72] 
	mov	rax, qword ptr [rdx + 8]
	movabs	rcx, -5992363255656250289
	add	rax, rcx
	sub	rax, qword ptr [rdx]
	sub	rax, rcx
	sar	rax, 2
	movabs	rcx, 7243424991329833243
	lea	rax, [rax + rcx - 4]
	sub	rax, rcx
	shr	rax, 2
	mov	qword ptr [rsp + 40], rax
	lea	rax, [rsp + 336]
	mov	qword ptr [rsp + 120], rax
	mov	rax, qword ptr [rsp + 120]
	mov	rdi, qword ptr [rsp + 120]
	xor	esi, esi
	mov	edx, 416
	call	memset
	mov	eax, -1201441070
	xor	ecx, ecx
	mov	qword ptr [rsp + 208], rcx 
	jmp	.LBB11_1
.LBB11_178:                             
	mov	rax, qword ptr [rsp + 88]
	mov	qword ptr [rsp + 32], rax
	mov	rax, qword ptr [rsp + 96] 
	mov	qword ptr [rsp + 64], rax
	mov	eax, dword ptr [rip + x.122]
	mov	ecx, eax
	neg	ecx
	not	ecx
	imul	ecx, eax
	mov	eax, ecx
	xor	eax, -2
	test	eax, ecx
	sete	al
	cmp	dword ptr [rip + y.123], 10
	setl	cl
	mov	edx, ecx
	and	dl, al
	xor	cl, al
	or	cl, dl
	mov	eax, 1119632240
	mov	ecx, -1537269979
	cmovne	eax, ecx
	mov	ecx, 1119632240
	mov	edx, -1501698044
	cmovne	ecx, edx
	mov	edx, -175418724
	mov	esi, 1344099410
	cmovne	edx, esi
	mov	esi, -175418724
	mov	edi, -1441340875
	cmovne	esi, edi
	mov	ebx, 1962321552

	jmp	.LBB11_179
.LBB11_191:                             
	mov	ebx, -1537269979
	.p2align	4, 0x90
.LBB11_179:                             

	mov	ebp, ebx
	cmp	ebp, 375291873
	jg	.LBB11_188

	cmp	ebp, -1441340876
	jle	.LBB11_181

	cmp	ebp, -1441340875
	je	.LBB11_198

	cmp	ebp, -218825286
	mov	ebx, eax
	je	.LBB11_179

	cmp	ebp, -175418724
	mov	ebx, ebp
	jne	.LBB11_179

	mov	ebx, 1344099410
	jmp	.LBB11_179
	.p2align	4, 0x90
.LBB11_188:                             
	cmp	ebp, 1344099409
	jle	.LBB11_189

	cmp	ebp, 1344099410
	mov	ebx, esi
	je	.LBB11_179

	cmp	ebp, 1962321552
	je	.LBB11_196

	cmp	ebp, 1935620248
	mov	ebx, ebp
	jne	.LBB11_179
	jmp	.LBB11_195
	.p2align	4, 0x90
.LBB11_181:                             
	cmp	ebp, -1537269979
	mov	ebx, ecx
	je	.LBB11_179

	cmp	ebp, -1501698044
	mov	ebx, ebp
	jne	.LBB11_179

	mov	ebx, 1935620248
	mov	rdi, r15
	jmp	.LBB11_179
	.p2align	4, 0x90
.LBB11_189:                             
	cmp	ebp, 375291874
	mov	ebx, edx
	je	.LBB11_179

	cmp	ebp, 1119632240
	mov	ebx, ebp
	jne	.LBB11_179
	jmp	.LBB11_191
.LBB11_196:                             
	mov	rbp, qword ptr [rsp + 32]
	cmp	rbp, qword ptr [rsp + 64]
	mov	ebx, -218825286
	jb	.LBB11_179

	mov	ebx, 375291874
	jmp	.LBB11_179
.LBB11_198:                             
	mov	ebx, 1935620248
	mov	rdi, r13
	jmp	.LBB11_179
.LBB11_201:                             
	mov	rax, qword ptr [rsp + 40]
	mov	rax, qword ptr [rsp + 40]
	mov	rax, qword ptr [rsp + 40]
	mov	rax, qword ptr [rsp + 40]
	mov	rax, qword ptr [rsp + 40]
	mov	rax, qword ptr [rsp + 40]
	mov	rax, qword ptr [rsp + 40]
	mov	rax, qword ptr [rsp + 40]
	mov	rax, qword ptr [rsp + 40]
	shl	rax, 2
	mov	rcx, qword ptr [rsp + 56]
	mov	rcx, qword ptr [rsp + 56]
	mov	rcx, rax
	not	rcx
	mov	rdx, qword ptr [rsp + 56]
	movabs	rsi, 1163838650518191032
	or	rdx, rsi
	movabs	rdi, 1163838650518191035
	and	rdx, rdi
	and	rcx, rsi
	and	rax, qword ptr [rsp + 272] 
	or	rax, rcx
	xor	rax, rdx
	mov	rcx, qword ptr [rsp + 72] 
	mov	rcx, qword ptr [rcx]
	mov	eax, dword ptr [rcx + 4*rax]
	mov	rcx, qword ptr [rsp + 56]
	mov	edx, dword ptr [rsp + 4*rcx + 160]
	mov	esi, edx
	not	esi
	and	esi, eax
	not	eax
	and	eax, edx
	or	eax, esi
	mov	dword ptr [rsp + 4*rcx + 160], eax
	mov	rax, qword ptr [rsp + 56]
	mov	rax, qword ptr [rsp + 56]
	mov	rax, qword ptr [rsp + 56]
	mov	eax, 1215595570
	jmp	.LBB11_1
.LBB11_140:                             
	mov	rdi, qword ptr [rsp + 48]
	call	_ZN5Botan12_GLOBAL__N_18AES_SBOXEPj
	mov	r9, qword ptr [rsp + 48]
	xor	eax, eax
	jmp	.LBB11_141
.LBB11_113:                             
	mov	al, byte ptr [rsp + 23]
	test	al, al
	mov	eax, -799865405
	mov	ecx, 236388553
	cmovne	eax, ecx
	jmp	.LBB11_1
.LBB11_111:                             
	mov	rax, qword ptr [rsp + 192] 
	mov	qword ptr [rsp + 80], rax
	mov	eax, dword ptr [rip + x.34]
	lea	ecx, [rax - 1]
	imul	ecx, eax
	mov	eax, ecx
	xor	eax, -2
	and	eax, ecx
	sete	cl
	test	eax, eax
	mov	eax, 1024577551
	mov	edi, -1554491003
	cmove	eax, edi
	cmp	dword ptr [rip + y.35], 10
	setl	dl
	mov	esi, 1024577551
	jmp	.LBB11_168
.LBB11_177:                             
	mov	rax, qword ptr [rsp + 8]
	mov	rax, qword ptr [rsp + 8]
	mov	rax, qword ptr [rsp + 8]
	mov	rax, qword ptr [rsp + 8]
	mov	rax, qword ptr [rsp + 8]
	mov	rax, qword ptr [rsp + 8]
	mov	rax, qword ptr [rsp + 8]
	mov	rax, qword ptr [rsp + 8]
	shl	rax, 5
	lea	rdi, [rsp + rax + 336]
	mov	rax, qword ptr [rsp + 72] 
	mov	rsi, qword ptr [rax]
	mov	rax, qword ptr [rsp + 8]
	mov	rax, qword ptr [rsp + 8]
	mov	rax, qword ptr [rsp + 8]
	lea	rdx, [4*rax + 4]
	call	_ZN5Botan12_GLOBAL__N_19ks_expandEPjPKjm
	mov	rax, qword ptr [rsp + 8]
	mov	eax, -1561332902
	jmp	.LBB11_1
.LBB11_104:                             
	mov	rax, qword ptr [rdi]
	mov	qword ptr [rsp + 136], rax
	lea	rax, [rsp + 160]
	mov	rcx, rax
	mov	qword ptr [rsp + 144], rcx
	mov	rax, qword ptr [rsp + 144]
	mov	rax, qword ptr [rsp + 144]
	xorps	xmm0, xmm0
	movaps	xmmword ptr [rax + 16], xmm0
	movaps	xmmword ptr [rax], xmm0
	mov	qword ptr [rsp + 48], rcx
	mov	rax, qword ptr [rsp + 136]
	shl	rax, 2
	mov	qword ptr [rsp + 248], rax
	mov	rdi, qword ptr [rsp + 48]
	mov	rdx, qword ptr [rsp + 248]
	mov	rsi, qword ptr [rsp + 152]
	call	_ZN5Botan7load_beIjEEvPT_PKhm
	mov	eax, dword ptr [rip + x.34]
	mov	ecx, dword ptr [rip + y.35]
	lea	edx, [rax - 1]
	imul	edx, eax
	mov	eax, edx
	xor	eax, -2
	and	eax, edx
	sete	dl
	cmp	ecx, 10
	setl	bl
	xor	bl, dl
	mov	edx, 1039921289
	mov	esi, 1450651221
	cmovne	edx, esi
	test	eax, eax
	mov	eax, edx
	cmove	eax, esi
	cmp	ecx, 10
	mov	rcx, qword ptr [rsp + 48]
	cmovge	eax, edx
	jmp	.LBB11_1
.LBB11_90:                              
	mov	al, byte ptr [rsp + 22]
	test	al, al
	mov	eax, -839891341
	mov	ecx, 326656952
	cmovne	eax, ecx
	jmp	.LBB11_1
.LBB11_173:                             
	mov	eax, dword ptr [rip + x.34]
	mov	ecx, eax
	neg	ecx
	not	ecx
	imul	ecx, eax
	not	ecx
	or	ecx, -2
	cmp	ecx, -1
	sete	cl
	mov	eax, 1162686386
	mov	edi, 1215595570
	cmove	eax, edi
	cmp	dword ptr [rip + y.35], 10
	setl	dl
	mov	esi, 1162686386
	jmp	.LBB11_168
.LBB11_166:                             
	mov	rax, qword ptr [rsp + 200] 
	mov	qword ptr [rsp + 112], rax
	mov	rax, qword ptr [rsp + 112]
	cmp	rax, 8
	mov	eax, 2033665199
	mov	ecx, -244312994
	cmove	eax, ecx
	jmp	.LBB11_1
.LBB11_91:                              
	mov	eax, dword ptr [rip + x.34]
	lea	ecx, [rax - 1]
	imul	ecx, eax
	not	ecx
	or	ecx, -2
	cmp	ecx, -1
	sete	cl
	mov	eax, 1039921289
	mov	esi, 1554199008
	cmove	eax, esi
	cmp	dword ptr [rip + y.35], 10
	setl	dl
	mov	edi, 1039921289
.LBB11_92:                              
	cmovge	eax, edi
	xor	dl, cl
	cmovne	eax, esi
	jmp	.LBB11_1
.LBB11_195:                             
	mov	rdx, qword ptr [rdi]
	xorps	xmm0, xmm0
	movaps	xmmword ptr [rsp + 176], xmm0
	movaps	xmmword ptr [rsp + 160], xmm0
	shl	rdx, 2
	mov	rsi, qword ptr [rsp + 152]
	lea	rdi, [rsp + 160]
	call	_ZN5Botan7load_beIjEEvPT_PKhm
	mov	eax, 1554199008
	jmp	.LBB11_1
	.p2align	4, 0x90
.LBB11_136:                             
	mov	rax, qword ptr [rsp + 64]
	mov	rcx, rax
	shr	rcx, 32
	mov	dword ptr [r10 + 4*r8], ecx
	mov	dword ptr [r10 + 4*r9], eax
	mov	rax, qword ptr [rsp + 32]
	movabs	rcx, 6985901533252975864
	mov	rdx, rcx
	lea	rcx, [rax + rdx + 2]
	sub	rcx, rdx
.LBB11_115:                             




	mov	edx, 1172576661
	jmp	.LBB11_116
.LBB11_119:                             
	mov	qword ptr [rsp + 32], rcx
	mov	rdx, qword ptr [rsp + 32]
	cmp	rdx, 8
	mov	edx, -1848755654
	mov	eax, 1276275180
	cmove	edx, eax
	.p2align	4, 0x90
.LBB11_116:                             


	cmp	edx, -1848755654
	je	.LBB11_120

	cmp	edx, 1276275180
	je	.LBB11_139

	cmp	edx, 1172576661
	jne	.LBB11_116
	jmp	.LBB11_119
	.p2align	4, 0x90
.LBB11_120:                             
	mov	r8, qword ptr [rsp + 32]
	mov	esi, dword ptr [r10 + 4*r8]
	shl	rsi, 32
	mov	rcx, qword ptr [rsp + 32]
	mov	rdi, rcx
	neg	rdi
	not	rcx
	mov	r9d, 1
	sub	r9, rdi
	shl	rcx, 2
	neg	rcx
	mov	edx, dword ptr [r10 + rcx]
	or	rdx, rsi
	mov	esi, dword ptr [rip + x.152]
	mov	r14d, dword ptr [rip + y.153]
	lea	ebp, [rsi - 1]
	imul	ebp, esi
	mov	esi, ebp
	not	esi
	or	esi, -2
	and	ebp, 1
	mov	rcx, rdx
	shr	rcx, 2
	mov	rax, rcx
	not	rax
	and	rax, rdx
	mov	rbx, rdx
	not	rbx
	and	rcx, rbx
	or	rcx, rax
	not	rcx
	movabs	rax, 9626297317864209
	not	rax
	or	rax, rcx
	and	rdx, rax
	not	rax
	and	rbx, rax
	or	rbx, rdx
	shl	rax, 2
	mov	rdx, rbx
	not	rdx
	movabs	rcx, -6513223752082338227
	mov	rdi, rcx
	and	rdx, rdi
	not	rcx
	and	rbx, rcx
	or	rbx, rdx
	and	rcx, rax
	not	rax
	and	rax, rdi
	or	rcx, rax
	xor	rcx, rbx
	cmp	esi, -1
	sete	al
	sete	byte ptr [rsp + 6]
	mov	esi, 1988151136
	mov	edi, 2111902940
	cmove	esi, edi
	cmp	r14d, 10
	setl	dl
	setl	byte ptr [rsp + 7]
	mov	ebx, 1988151136
	cmovge	esi, ebx
	xor	dl, al
	cmovne	esi, edi
	mov	ebx, -564980344
	jmp	.LBB11_121
.LBB11_132:                             
	movzx	r11d, byte ptr [rsp + 6]
	movzx	edx, byte ptr [rsp + 7]
	mov	eax, r11d
	xor	al, dl
	mov	eax, 1988151136
	mov	edi, 1762584481
	cmovne	eax, edi
	test	dl, dl
	mov	ebx, eax
	cmovne	ebx, edi
	test	r11b, r11b
	cmove	ebx, eax
	.p2align	4, 0x90
.LBB11_121:                             


	cmp	ebx, 1988151135
	jle	.LBB11_122

	cmp	ebx, 1988151136
	je	.LBB11_133

	cmp	ebx, 2111902940
	jne	.LBB11_121
	jmp	.LBB11_127
	.p2align	4, 0x90
.LBB11_122:                             
	cmp	ebx, -564980344
	je	.LBB11_132

	cmp	ebx, 1762584481
	jne	.LBB11_121

	mov	qword ptr [rsp + 64], rcx
	mov	ebx, esi
	jmp	.LBB11_121
.LBB11_133:                             
	mov	ebx, 1762584481
	jmp	.LBB11_121
	.p2align	4, 0x90
.LBB11_127:                             
	test	ebp, ebp
	mov	rcx, qword ptr [rsp + 64]
	sete	byte ptr [rsp + 6]
	cmp	r14d, 10
	setl	byte ptr [rsp + 7]
	mov	rax, rcx
	shr	rax
	mov	rdx, rax
	not	rdx
	movabs	rdi, 3642781836666288005
	mov	rbx, rdi
	and	rdx, rbx
	mov	rbp, rbx
	not	rbp
	and	rax, rbp
	or	rax, rdx
	mov	rdx, rcx
	not	rdx
	mov	rdi, rdx
	and	rdi, rbx
	and	rbp, rcx
	or	rbp, rdi
	xor	rbp, rax
	not	rbp
	movabs	rdi, 23925738098196565
	not	rdi
	or	rdi, rbp
	and	rcx, rdi
	not	rdi
	and	rdx, rdi
	or	rdx, rcx
	add	rdi, rdi
	mov	rax, rdx
	not	rax
	and	rax, rdi
	not	rdi
	and	rdi, rdx
	or	rdi, rax
	mov	ecx, -564980344
	jmp	.LBB11_128
.LBB11_137:                             
	movzx	eax, byte ptr [rsp + 6]
	movzx	ecx, byte ptr [rsp + 7]
	mov	edx, eax
	xor	dl, cl
	test	cl, cl
	mov	ecx, 1988151136
	mov	ebp, 1762584481
	cmovne	ecx, ebp
	test	al, al
	mov	eax, 1988151136
	cmove	ecx, eax
	test	dl, dl
	cmovne	ecx, ebp
	.p2align	4, 0x90
.LBB11_128:                             


	cmp	ecx, 1988151135
	jle	.LBB11_129

	cmp	ecx, 1988151136
	je	.LBB11_138

	cmp	ecx, 2111902940
	jne	.LBB11_128
	jmp	.LBB11_136
	.p2align	4, 0x90
.LBB11_129:                             
	cmp	ecx, -564980344
	je	.LBB11_137

	cmp	ecx, 1762584481
	jne	.LBB11_128

	mov	qword ptr [rsp + 64], rdi
	mov	ecx, esi
	jmp	.LBB11_128
.LBB11_138:                             
	mov	ecx, 1762584481
	jmp	.LBB11_128
.LBB11_139:                             
	mov	r8, qword ptr [rsp + 48]
	mov	ecx, dword ptr [r8]
	mov	r10d, dword ptr [r8 + 4]
	mov	eax, r10d
	shr	eax
	mov	esi, eax
	not	esi
	and	esi, ecx
	mov	edx, ecx
	not	edx
	and	eax, edx
	or	eax, esi
	mov	esi, eax
	not	esi
	or	esi, -1431655766
	and	eax, 1431655765
	lea	ebp, [rax + rax]
	mov	edi, ebp
	not	edi
	and	edi, -1985165870
	and	ebp, 570567208
	or	ebp, edi
	mov	edi, r10d
	not	edi
	and	edi, -1985165870
	and	r10d, 1985165869
	or	r10d, edi
	xor	r10d, ebp
	and	esi, ecx
	and	eax, edx
	or	eax, esi
	mov	r11d, dword ptr [r8 + 12]
	mov	edi, r11d
	shr	edi
	mov	r14d, dword ptr [r8 + 8]
	mov	esi, edi
	not	esi
	and	esi, r14d
	mov	ecx, r14d
	not	ecx
	and	edi, ecx
	or	edi, esi
	mov	esi, edi
	xor	esi, -1431655766
	and	esi, edi
	lea	ebp, [rsi + rsi]
	mov	edi, ebp
	not	edi
	and	edi, r11d
	not	r11d
	and	r11d, ebp
	or	r11d, edi
	mov	edi, esi
	not	edi
	and	edi, -1225551769
	and	esi, 1225551768
	or	esi, edi
	and	ecx, -1225551769
	and	r14d, 1225551768
	or	r14d, ecx
	xor	r14d, esi
	mov	r9d, dword ptr [r8 + 20]
	mov	edi, r9d
	shr	edi
	mov	ebp, dword ptr [r8 + 16]
	mov	ecx, edi
	not	ecx
	and	ecx, -1418861587
	and	edi, 1418861586
	or	edi, ecx
	mov	ecx, ebp
	not	ecx
	mov	ebx, ecx
	and	ebx, -1418861587
	mov	esi, ebp
	and	esi, 1418861586
	or	esi, ebx
	xor	esi, edi
	mov	edi, esi
	not	edi
	or	edi, -1440710008
	mov	ebx, esi
	and	ebx, 1431655765
	add	ebx, ebx
	mov	edx, ebx
	not	edx
	and	edx, -1509378530
	and	ebx, 144836768
	or	ebx, edx
	mov	edx, r9d
	not	edx
	and	edx, -1509378530
	and	r9d, 1509378529
	or	r9d, edx
	xor	r9d, ebx
	and	edi, -1440705844
	and	esi, 1431651601
	or	esi, edi
	and	ecx, -1440705844
	and	ebp, 1440705843
	or	ebp, ecx
	xor	ebp, esi
	mov	r15d, dword ptr [r8 + 28]
	mov	edi, r15d
	shr	edi
	mov	r13d, dword ptr [r8 + 24]
	mov	edx, edi
	not	edx
	and	edx, r13d
	mov	ebx, r13d
	not	ebx
	and	edi, ebx
	or	edi, edx
	mov	edx, edi
	not	edx
	or	edx, -1431655766
	and	edi, 1431655765
	lea	ecx, [rdi + rdi]
	mov	esi, ecx
	not	esi
	and	esi, r15d
	not	r15d
	and	r15d, ecx
	or	r15d, esi
	and	edx, r13d
	and	edi, ebx
	or	edi, edx
	mov	edx, r14d
	shr	edx, 2
	mov	ecx, edx
	not	ecx
	and	ecx, -2030969031
	and	edx, 957227206
	or	edx, ecx
	mov	ecx, eax
	not	ecx
	mov	esi, ecx
	and	esi, -2030969031
	mov	r13d, eax
	and	r13d, 2030969030
	or	r13d, esi
	xor	r13d, edx
	mov	edx, r13d
	not	edx
	or	edx, -858993460
	and	r13d, 858993459
	lea	ebx, [4*r13]
	mov	esi, ebx
	not	esi
	and	esi, -2123978986
	and	ebx, 1283999944
	or	ebx, esi
	mov	esi, r14d
	not	esi
	and	esi, -2123978986
	and	r14d, 2123978985
	or	r14d, esi
	xor	r14d, ebx
	and	edx, eax
	and	r13d, ecx
	or	r13d, edx
	mov	ecx, r11d
	shr	ecx, 2
	mov	eax, ecx
	not	eax
	and	eax, r10d
	mov	edx, r10d
	not	edx
	and	ecx, edx
	or	ecx, eax
	mov	eax, ecx
	xor	eax, -858993460
	and	eax, ecx
	lea	ecx, [4*rax]
	mov	esi, ecx
	not	esi
	and	esi, r11d
	not	r11d
	and	r11d, ecx
	or	r11d, esi
	mov	ecx, eax
	not	ecx
	and	ecx, r10d
	and	eax, edx
	or	eax, ecx
	mov	ecx, edi
	shr	ecx, 2
	mov	edx, ecx
	not	edx
	and	edx, 120154043
	and	ecx, 953587780
	or	ecx, edx
	mov	r10d, ebp
	not	r10d
	mov	edx, r10d
	and	edx, 120154043
	mov	esi, ebp
	and	esi, -120154044
	or	esi, edx
	xor	esi, ecx
	mov	ecx, esi
	xor	ecx, -858993460
	and	ecx, esi
	lea	edx, [4*rcx]
	mov	esi, edx
	not	esi
	and	esi, 1900269715
	and	edx, -1900269716
	or	edx, esi
	mov	esi, edi
	not	esi
	and	esi, 1900269715
	and	edi, -1900269716
	or	edi, esi
	xor	edi, edx
	mov	edx, ecx
	not	edx
	and	edx, 1689675408
	and	ecx, -1689675409
	or	ecx, edx
	and	r10d, 1689675408
	and	ebp, -1689675409
	or	ebp, r10d
	xor	ebp, ecx
	mov	ecx, r15d
	shr	ecx, 2
	mov	edx, ecx
	not	edx
	and	edx, -222716725
	and	ecx, 222716724
	or	ecx, edx
	mov	edx, r9d
	not	edx
	mov	esi, edx
	and	esi, -222716725
	mov	ebx, r9d
	and	ebx, 222716724
	or	ebx, esi
	xor	ebx, ecx
	mov	ecx, ebx
	xor	ecx, -858993460
	and	ecx, ebx
	lea	ebx, [4*rcx]
	mov	esi, ebx
	not	esi
	and	esi, r15d
	not	r15d
	and	r15d, ebx
	or	r15d, esi
	mov	esi, ecx
	not	esi
	and	esi, r9d
	and	ecx, edx
	or	ecx, esi
	mov	edx, ebp
	shr	edx, 4
	mov	esi, edx
	not	esi
	and	esi, r13d
	mov	r9d, r13d
	not	r9d
	and	edx, r9d
	or	edx, esi
	mov	esi, edx
	xor	esi, -252645136
	and	esi, edx
	mov	ebx, esi
	shl	ebx, 4
	mov	edx, ebx
	not	edx
	and	edx, ebp
	not	ebp
	and	ebp, ebx
	or	ebp, edx
	mov	dword ptr [r8 + 16], ebp
	mov	edx, esi
	not	edx
	and	edx, r13d
	lea	r13, [rsp + 104]
	and	esi, r9d
	or	esi, edx
	mov	dword ptr [r8], esi
	mov	ebp, ecx
	shr	ebp, 4
	mov	edx, ebp
	not	edx
	and	edx, eax
	mov	r9d, eax
	not	r9d
	and	ebp, r9d
	or	ebp, edx
	mov	edx, ebp
	not	edx
	or	edx, -252645136
	and	ebp, 252645135
	mov	esi, ebp
	shl	esi, 4
	mov	ebx, esi
	not	ebx
	and	ebx, 992699788
	and	esi, -1060073360
	or	esi, ebx
	mov	ebx, ecx
	not	ebx
	and	ebx, 992699788
	and	ecx, -992699789
	or	ecx, ebx
	xor	ecx, esi
	mov	dword ptr [r8 + 20], ecx
	and	edx, eax
	and	ebp, r9d
	or	ebp, edx
	mov	dword ptr [r8 + 4], ebp
	mov	edx, edi
	shr	edx, 4
	mov	eax, edx
	not	eax
	and	eax, -615004606
	and	edx, 78133693
	or	edx, eax
	mov	eax, r14d
	not	eax
	mov	esi, eax
	and	esi, -615004606
	mov	ecx, r14d
	and	ecx, 615004605
	or	ecx, esi
	xor	ecx, edx
	mov	edx, ecx
	not	edx
	or	edx, 6336752
	mov	esi, ecx
	and	esi, 252645135
	shl	esi, 4
	mov	ebp, esi
	not	ebp
	and	ebp, 105372275
	and	esi, -256892800
	or	esi, ebp
	mov	ebp, edi
	not	ebp
	and	ebp, 105372275
	and	edi, -105372276
	or	edi, ebp
	xor	edi, esi
	mov	dword ptr [r8 + 24], edi
	and	edx, 224507120
	and	ecx, 34474767
	or	ecx, edx
	and	eax, 224507120
	and	r14d, -224507121
	or	r14d, eax
	xor	r14d, ecx
	mov	dword ptr [r8 + 8], r14d
	mov	ecx, r15d
	shr	ecx, 4
	mov	eax, ecx
	not	eax
	and	eax, 634492920
	and	ecx, 170813447
	or	ecx, eax
	mov	eax, r11d
	not	eax
	mov	edx, eax
	and	edx, 634492920
	mov	esi, r11d
	and	esi, -634492921
	or	esi, edx
	xor	esi, ecx
	mov	ecx, esi
	xor	ecx, -252645136
	and	ecx, esi
	mov	edx, ecx
	shl	edx, 4
	mov	esi, edx
	not	esi
	and	esi, r15d
	not	r15d
	and	r15d, edx
	or	r15d, esi
	mov	dword ptr [r8 + 28], r15d
	lea	r15, [rsp + 88]
	mov	edx, ecx
	not	edx
	and	edx, -1931693980
	and	ecx, 1931693979
	or	ecx, edx
	and	eax, -1931693980
	and	r11d, 1931693979
	or	r11d, eax
	xor	r11d, ecx
	mov	dword ptr [r8 + 12], r11d
	mov	eax, -1140377664
	xor	r12d, r12d
	jmp	.LBB11_1
	.p2align	4, 0x90
.LBB11_162:                             
	mov	rax, qword ptr [rsp + 64]
	mov	rcx, rax
	shr	rcx, 32
	mov	dword ptr [r9 + 4*r8], ecx
	mov	dword ptr [r9 + 4*r11], eax
	mov	rax, qword ptr [rsp + 32]
	movabs	rcx, -3674613443111226296
	sub	rax, rcx
	lea	rax, [rax + rcx + 2]
.LBB11_141:                             




	mov	ecx, 1172576661
	jmp	.LBB11_142
.LBB11_145:                             
	mov	qword ptr [rsp + 32], rax
	mov	rcx, qword ptr [rsp + 32]
	cmp	rcx, 8
	mov	ecx, -1848755654
	mov	edx, 1276275180
	cmove	ecx, edx
	.p2align	4, 0x90
.LBB11_142:                             


	cmp	ecx, -1848755654
	je	.LBB11_146

	cmp	ecx, 1276275180
	je	.LBB11_165

	cmp	ecx, 1172576661
	jne	.LBB11_142
	jmp	.LBB11_145
	.p2align	4, 0x90
.LBB11_146:                             
	mov	r8, qword ptr [rsp + 32]
	mov	ecx, dword ptr [r9 + 4*r8]
	mov	rax, qword ptr [rsp + 32]
	mov	rdx, rax
	not	rdx
	shl	rdx, 2
	neg	rdx
	mov	esi, dword ptr [r9 + rdx]
	mov	edx, dword ptr [rip + x.152]
	mov	r10d, dword ptr [rip + y.153]
	lea	ebp, [rdx - 1]
	imul	ebp, edx
	mov	r15d, ebp
	xor	r15d, -2
	cmp	r10d, 10
	setl	r11b
	setl	byte ptr [rsp + 7]
	mov	ebx, r15d
	and	ebx, ebp
	sete	dl
	sete	byte ptr [rsp + 6]
	xor	dl, r11b
	mov	edx, 1988151136
	mov	edi, 2111902940
	cmovne	edx, edi
	test	ebx, ebx
	mov	r14d, edx
	cmove	r14d, edi
	cmp	r10d, 10
	cmovge	r14d, edx
	shl	rcx, 32
	or	rcx, rsi
	neg	rax
	mov	r11d, 1
	sub	r11, rax
	mov	rdx, rcx
	shr	rdx, 2
	mov	rsi, rdx
	not	rsi
	movabs	rax, 1288892718912624727
	mov	rdi, rax
	mov	rbx, rdi
	not	rbx
	mov	rax, rcx
	not	rax
	and	rsi, rdi
	and	rdx, rbx
	or	rdx, rsi
	mov	rsi, rax
	and	rsi, rdi
	and	rbx, rcx
	or	rbx, rsi
	xor	rbx, rdx
	mov	rdx, rbx
	movabs	rsi, 9626297317864209
	xor	rdx, rsi
	not	rdx
	and	rdx, rbx
	mov	rsi, rdx
	not	rsi
	movabs	r13, 4332397327416823204
	mov	rbx, r13
	not	rbx
	and	rsi, r13
	mov	rdi, rdx
	and	rdi, rbx
	or	rdi, rsi
	and	rbx, rcx
	and	rax, r13
	lea	r13, [rsp + 104]
	or	rbx, rax
	xor	rbx, rdi
	shl	rdx, 2
	mov	rcx, rdx
	not	rcx
	and	rcx, rbx
	not	rbx
	and	rbx, rdx
	or	rcx, rbx
	mov	eax, -564980344
	jmp	.LBB11_147
.LBB11_158:                             
	movzx	ebx, byte ptr [rsp + 6]
	movzx	eax, byte ptr [rsp + 7]
	mov	edx, ebx
	xor	dl, al
	test	al, al
	mov	eax, 1988151136
	mov	edi, 1762584481
	cmovne	eax, edi
	test	bl, bl
	mov	esi, 1988151136
	cmove	eax, esi
	test	dl, dl
	cmovne	eax, edi
	.p2align	4, 0x90
.LBB11_147:                             


	cmp	eax, 1988151135
	jle	.LBB11_148

	cmp	eax, 1988151136
	je	.LBB11_159

	cmp	eax, 2111902940
	jne	.LBB11_147
	jmp	.LBB11_153
	.p2align	4, 0x90
.LBB11_148:                             
	cmp	eax, -564980344
	je	.LBB11_158

	cmp	eax, 1762584481
	jne	.LBB11_147

	mov	qword ptr [rsp + 64], rcx
	mov	eax, r14d
	jmp	.LBB11_147
.LBB11_159:                             
	mov	eax, 1762584481
	jmp	.LBB11_147
	.p2align	4, 0x90
.LBB11_153:                             
	test	r15d, ebp
	mov	rax, qword ptr [rsp + 64]
	sete	byte ptr [rsp + 6]
	cmp	r10d, 10
	setl	byte ptr [rsp + 7]
	mov	rcx, rax
	shr	rcx
	mov	rdx, rcx
	not	rdx
	movabs	rsi, -5889585545177430883
	mov	rbp, rsi
	and	rdx, rbp
	not	rsi
	and	rcx, rsi
	or	rcx, rdx
	mov	rdi, rax
	not	rdi
	mov	rdx, rdi
	and	rdx, rbp
	and	rsi, rax
	or	rsi, rdx
	xor	rsi, rcx
	mov	rdx, rsi
	movabs	rcx, 23925738098196565
	xor	rdx, rcx
	not	rdx
	and	rdx, rsi
	mov	rcx, rdx
	not	rcx
	and	rcx, rax
	and	rdi, rdx
	or	rdi, rcx
	add	rdx, rdx
	mov	rax, rdi
	not	rax
	movabs	rcx, 2244030054630189214
	mov	rsi, rcx
	and	rax, rsi
	not	rcx
	and	rdi, rcx
	or	rdi, rax
	and	rcx, rdx
	not	rdx
	and	rdx, rsi
	or	rcx, rdx
	xor	rcx, rdi
	mov	eax, -564980344
	lea	r15, [rsp + 88]
	jmp	.LBB11_154
.LBB11_163:                             
	movzx	ebx, byte ptr [rsp + 6]
	movzx	eax, byte ptr [rsp + 7]
	mov	edx, ebx
	xor	dl, al
	mov	edx, 1988151136
	mov	esi, 1762584481
	cmovne	edx, esi
	test	al, al
	mov	eax, edx
	cmovne	eax, esi
	test	bl, bl
	cmove	eax, edx
	.p2align	4, 0x90
.LBB11_154:                             


	cmp	eax, 1988151135
	jle	.LBB11_155

	cmp	eax, 1988151136
	je	.LBB11_164

	cmp	eax, 2111902940
	jne	.LBB11_154
	jmp	.LBB11_162
	.p2align	4, 0x90
.LBB11_155:                             
	cmp	eax, -564980344
	je	.LBB11_163

	cmp	eax, 1762584481
	jne	.LBB11_154

	mov	qword ptr [rsp + 64], rcx
	mov	eax, r14d
	jmp	.LBB11_154
.LBB11_164:                             
	mov	eax, 1762584481
	jmp	.LBB11_154
.LBB11_165:                             
	mov	rdi, qword ptr [rsp + 48]
	call	_ZN5Botan12_GLOBAL__N_111mix_columnsEPj
	mov	eax, -2021720182
	xor	ecx, ecx
	mov	qword ptr [rsp + 200], rcx 
	jmp	.LBB11_1
.LBB11_7:                               
	cmp	eax, -2128177015
	jne	.LBB11_1

	mov	edi, .L.str.3
	mov	esi, .L.str.4
	mov	edx, .L__func__._ZN5Botan12_GLOBAL__N_113aes_encrypt_nEPKhPhmRKSt6vectorIjNS_16secure_allocatorIjEEE
	mov	ecx, .L.str.5
	mov	r8d, 520
	call	_ZN5Botan17assertion_failureEPKcS1_S1_S1_i
.LBB11_176:
	add	rsp, 760
	pop	rbx
	pop	r12
	pop	r13
	pop	r14
	pop	r15
	pop	rbp
	ret
.Lfunc_end11:
	.size	_ZN5Botan12_GLOBAL__N_113aes_encrypt_nEPKhPhmRKSt6vectorIjNS_16secure_allocatorIjEEE, .Lfunc_end11-_ZN5Botan12_GLOBAL__N_113aes_encrypt_nEPKhPhmRKSt6vectorIjNS_16secure_allocatorIjEEE
	.cfi_endproc

	.globl	_ZNK5Botan7AES_1289decrypt_nEPKhPhm 
	.p2align	4, 0x90
	.type	_ZNK5Botan7AES_1289decrypt_nEPKhPhm,@function
_ZNK5Botan7AES_1289decrypt_nEPKhPhm:    
	.cfi_startproc

	push	rbp
.Lcfi90:
	.cfi_def_cfa_offset 16
	push	r15
.Lcfi91:
	.cfi_def_cfa_offset 24
	push	r14
.Lcfi92:
	.cfi_def_cfa_offset 32
	push	r13
.Lcfi93:
	.cfi_def_cfa_offset 40
	push	r12
.Lcfi94:
	.cfi_def_cfa_offset 48
	push	rbx
.Lcfi95:
	.cfi_def_cfa_offset 56
	sub	rsp, 24
.Lcfi96:
	.cfi_def_cfa_offset 80
.Lcfi97:
	.cfi_offset rbx, -56
.Lcfi98:
	.cfi_offset r12, -48
.Lcfi99:
	.cfi_offset r13, -40
.Lcfi100:
	.cfi_offset r14, -32
.Lcfi101:
	.cfi_offset r15, -24
.Lcfi102:
	.cfi_offset rbp, -16
	mov	r14, rcx
	mov	r15, rdx
	mov	r13, rsi
	mov	r12, rdi
	lea	rax, [r12 + 32]
	mov	qword ptr [rsp + 8], rax
	mov	rdi, qword ptr [rsp + 8]
	call	_ZNKSt6vectorIjN5Botan16secure_allocatorIjEEE5emptyEv
	xor	al, 1
	movzx	eax, al
	mov	dword ptr [rsp + 20], eax
	mov	eax, 42528849
	mov	ebp, 1837750050
	jmp	.LBB12_1
.LBB12_4:                               
	cmp	dword ptr [rsp + 20], 0
	mov	eax, 820142868
	cmove	eax, ebp
	.p2align	4, 0x90
.LBB12_1:                               
	mov	ecx, eax
	and	ecx, 2147483647
	cmp	ecx, 1837750050
	je	.LBB12_5

	cmp	ecx, 820142868
	je	.LBB12_6

	cmp	ecx, 42528849
	jne	.LBB12_1
	jmp	.LBB12_4
.LBB12_5:                               
	mov	rdi, r12
	call	_ZNK5Botan18SymmetricAlgorithm23throw_key_not_set_errorEv
	mov	eax, 820142868
	jmp	.LBB12_1
.LBB12_6:
	mov	eax, 1053891649
	mov	ebp, 1194455926
	jmp	.LBB12_7
.LBB12_25:                              
	mov	rcx, qword ptr [rsp + 8]
	mov	rdi, r13
	mov	rsi, r15
	mov	rdx, r14
	call	_ZN5Botan12_GLOBAL__N_113aes_decrypt_nEPKhPhmRKSt6vectorIjNS_16secure_allocatorIjEEE
	mov	eax, 1876589631
	.p2align	4, 0x90
.LBB12_7:                               
	cmp	eax, 1194455925
	jg	.LBB12_16

	cmp	eax, 981461070
	jle	.LBB12_9

	cmp	eax, 1050427909
	je	.LBB12_33

	cmp	eax, 1053891649
	je	.LBB12_26

	cmp	eax, 981461071
	jne	.LBB12_7
	jmp	.LBB12_15
	.p2align	4, 0x90
.LBB12_16:                              
	cmp	eax, 1876589630
	jg	.LBB12_23

	cmp	eax, 1194455926
	je	.LBB12_27

	cmp	eax, 1533054444
	jne	.LBB12_7

	mov	eax, dword ptr [rip + x.36]
	mov	ecx, dword ptr [rip + y.37]
	lea	edx, [rax - 1]
	imul	edx, eax
	not	edx
	or	edx, -2
	cmp	edx, -1
	sete	bl
	mov	eax, 1876589631
	mov	edx, 1911188679
	mov	esi, 1876589631
	je	.LBB12_21

	mov	esi, 1911188679
.LBB12_21:                              
	cmp	ecx, 10
	setl	cl
	cmovl	edx, esi
	xor	cl, bl
	jne	.LBB12_7

	mov	eax, edx
	jmp	.LBB12_7
	.p2align	4, 0x90
.LBB12_9:                               
	cmp	eax, -607958035
	je	.LBB12_28

	cmp	eax, -533532538
	jne	.LBB12_7

	mov	rdi, r12
	mov	rsi, r13
	mov	rdx, r15
	mov	rcx, r14
	call	_ZNK5Botan7AES_12815vperm_decrypt_nEPKhPhm
	mov	eax, 981461071
	jmp	.LBB12_7
	.p2align	4, 0x90
.LBB12_23:                              
	cmp	eax, 1876589631
	je	.LBB12_29

	cmp	eax, 1911188679
	jne	.LBB12_7
	jmp	.LBB12_25
.LBB12_33:                              
	mov	eax, 981461071
	jmp	.LBB12_7
.LBB12_26:                              
	mov	edi, 65536
	call	_ZN5Botan5CPUID13has_cpuid_bitENS0_10CPUID_bitsE
	test	al, al
	mov	eax, -607958035
	cmovne	eax, ebp
	jmp	.LBB12_7
.LBB12_27:                              
	mov	rdi, r12
	mov	rsi, r13
	mov	rdx, r15
	mov	rcx, r14
	call	_ZNK5Botan7AES_12816hw_aes_decrypt_nEPKhPhm
	mov	eax, 981461071
	jmp	.LBB12_7
.LBB12_28:                              
	mov	edi, 2
	call	_ZN5Botan5CPUID13has_cpuid_bitENS0_10CPUID_bitsE
	test	al, al
	mov	eax, 1533054444
	mov	ecx, -533532538
	cmovne	eax, ecx
	jmp	.LBB12_7
.LBB12_29:                              
	mov	rcx, qword ptr [rsp + 8]
	mov	rdi, r13
	mov	rsi, r15
	mov	rdx, r14
	call	_ZN5Botan12_GLOBAL__N_113aes_decrypt_nEPKhPhmRKSt6vectorIjNS_16secure_allocatorIjEEE
	mov	eax, dword ptr [rip + x.36]
	mov	ecx, dword ptr [rip + y.37]
	mov	edx, eax
	neg	edx
	not	edx
	imul	edx, eax
	mov	eax, edx
	xor	eax, -2
	and	eax, edx
	sete	bl
	test	eax, eax
	mov	eax, 1050427909
	mov	edx, 1911188679
	mov	esi, 1050427909
	je	.LBB12_31

	mov	esi, 1911188679
.LBB12_31:                              
	cmp	ecx, 10
	setl	cl
	cmovl	edx, esi
	xor	cl, bl
	jne	.LBB12_7

	mov	eax, edx
	jmp	.LBB12_7
.LBB12_15:
	add	rsp, 24
	pop	rbx
	pop	r12
	pop	r13
	pop	r14
	pop	r15
	pop	rbp
	ret
.Lfunc_end12:
	.size	_ZNK5Botan7AES_1289decrypt_nEPKhPhm, .Lfunc_end12-_ZNK5Botan7AES_1289decrypt_nEPKhPhm
	.cfi_endproc

	.p2align	4, 0x90         
	.type	_ZN5Botan12_GLOBAL__N_113aes_decrypt_nEPKhPhmRKSt6vectorIjNS_16secure_allocatorIjEEE,@function
_ZN5Botan12_GLOBAL__N_113aes_decrypt_nEPKhPhmRKSt6vectorIjNS_16secure_allocatorIjEEE: 
	.cfi_startproc

	push	rbp
.Lcfi103:
	.cfi_def_cfa_offset 16
	push	r15
.Lcfi104:
	.cfi_def_cfa_offset 24
	push	r14
.Lcfi105:
	.cfi_def_cfa_offset 32
	push	r13
.Lcfi106:
	.cfi_def_cfa_offset 40
	push	r12
.Lcfi107:
	.cfi_def_cfa_offset 48
	push	rbx
.Lcfi108:
	.cfi_def_cfa_offset 56
	sub	rsp, 744
.Lcfi109:
	.cfi_def_cfa_offset 800
.Lcfi110:
	.cfi_offset rbx, -56
.Lcfi111:
	.cfi_offset r12, -48
.Lcfi112:
	.cfi_offset r13, -40
.Lcfi113:
	.cfi_offset r14, -32
.Lcfi114:
	.cfi_offset r15, -24
.Lcfi115:
	.cfi_offset rbp, -16
	mov	r14, rcx
	mov	qword ptr [rsp + 272], rsi 
	mov	qword ptr [rsp + 264], rdi 
	mov	qword ptr [rsp + 64], rdx
	mov	rax, qword ptr [r14 + 8]
	movabs	rcx, 251494203271501628
	sub	rax, rcx
	sub	rax, qword ptr [r14]
	add	rax, rcx
	sar	rax, 2
	mov	qword ptr [rsp + 280], rax
	mov	eax, 1820916454














	jmp	.LBB13_1
.LBB13_127:                             
	cmovge	eax, edi
	xor	dl, cl
	cmovne	eax, esi
	.p2align	4, 0x90
.LBB13_1:                               

















	cmp	eax, 499644597
	jle	.LBB13_2

	cmp	eax, 1101941746
	jle	.LBB13_45

	cmp	eax, 1657350947
	jle	.LBB13_75

	cmp	eax, 1872239049
	jle	.LBB13_85

	cmp	eax, 2051196913
	jg	.LBB13_94

	cmp	eax, 1872239050
	je	.LBB13_101

	cmp	eax, 1916857814
	jne	.LBB13_1

	mov	rax, qword ptr [rsp + 16]
	mov	rax, qword ptr [rsp + 72]
	mov	rax, qword ptr [rsp + 72]
	mov	rsi, qword ptr [rsp + 72]
	shl	rsi, 2
	mov	rdx, qword ptr [rsp + 16]
	mov	rdi, qword ptr [rsp + 104]
	call	_ZN5Botan11copy_out_beIjEEvPhmPKT_
	mov	rax, qword ptr [rsp + 24]
	mov	rax, qword ptr [rsp + 24]
	mov	rax, qword ptr [rsp + 24]
	mov	rax, qword ptr [rsp + 24]
	mov	rax, qword ptr [rsp + 24]
	mov	rax, qword ptr [rsp + 144]
	mov	rax, qword ptr [rsp + 104]
	mov	rax, qword ptr [rsp + 24]
	mov	rax, qword ptr [rsp + 24]
	mov	rax, qword ptr [rsp + 24]
	mov	rax, qword ptr [rsp + 24]
	mov	rax, qword ptr [rsp + 24]
	mov	rax, qword ptr [rsp + 24]
	mov	rax, qword ptr [rsp + 24]
	mov	rax, qword ptr [rsp + 24]
	mov	rax, qword ptr [rsp + 24]
	mov	rax, qword ptr [rsp + 24]
	mov	rcx, qword ptr [rsp + 64]
	movabs	rdx, -2087285603277846920
	add	rcx, rdx
	sub	rcx, rax
	sub	rcx, rdx
	mov	qword ptr [rsp + 64], rcx
	mov	rax, qword ptr [rsp + 96]
	mov	eax, -1771714032
	jmp	.LBB13_1
	.p2align	4, 0x90
.LBB13_2:                               
	cmp	eax, -128891894
	jg	.LBB13_25

	cmp	eax, -1493527288
	jle	.LBB13_4

	cmp	eax, -1086173585
	jg	.LBB13_21

	cmp	eax, -1409223853
	jg	.LBB13_18

	cmp	eax, -1493527287
	je	.LBB13_124

	cmp	eax, -1422877923
	jne	.LBB13_1

	mov	rax, qword ptr [rsp + 88]
	mov	rax, qword ptr [rsp + 88]
	mov	rax, qword ptr [rsp + 80]
	mov	eax, -1519459824
	jmp	.LBB13_1
	.p2align	4, 0x90
.LBB13_25:                              
	cmp	eax, 160962040
	jg	.LBB13_35

	cmp	eax, -12871442
	jg	.LBB13_31

	cmp	eax, -128891893
	je	.LBB13_100

	cmp	eax, -77476032
	je	.LBB13_179

	cmp	eax, -42976833
	jne	.LBB13_1

	lea	rax, [rsp + 128]
	mov	qword ptr [rsp + 216], rax
	mov	rax, qword ptr [rsp + 216]
	mov	qword ptr [rsp + 128], 2
	mov	eax, 848570253
	mov	rcx, qword ptr [rsp + 264] 
	mov	qword ptr [rsp + 200], rcx 
	mov	rcx, qword ptr [rsp + 272] 
	mov	qword ptr [rsp + 192], rcx 
	jmp	.LBB13_1
	.p2align	4, 0x90
.LBB13_45:                              
	cmp	eax, 823402950
	jg	.LBB13_60

	cmp	eax, 619786875
	jg	.LBB13_56

	cmp	eax, 499644598
	je	.LBB13_184

	cmp	eax, 537048235
	je	.LBB13_187

	cmp	eax, 602511894
	jne	.LBB13_1

	mov	rax, qword ptr [rsp + 128]
	mov	qword ptr [rsp + 8], rax
	mov	rax, qword ptr [rsp + 64]
	mov	qword ptr [rsp + 32], rax
	mov	eax, dword ptr [rip + x.122]
	lea	ecx, [rax - 1]
	imul	ecx, eax
	not	ecx
	or	ecx, -2
	cmp	ecx, -1
	setne	al
	cmp	dword ptr [rip + y.123], 9
	setg	cl
	mov	edx, ecx
	xor	dl, al
	or	cl, al
	xor	cl, 1
	or	cl, dl
	mov	eax, 1119632240
	mov	ecx, -1537269979
	cmovne	eax, ecx
	mov	ecx, 1119632240
	mov	edx, -1501698044
	cmovne	ecx, edx
	mov	edx, -175418724
	mov	esi, 1344099410
	cmovne	edx, esi
	mov	esi, -175418724
	mov	edi, -1441340875
	cmovne	esi, edi
	mov	ebx, 1962321552

	jmp	.LBB13_51
.LBB13_75:                              
	cmp	eax, 1435803466
	jg	.LBB13_80

	cmp	eax, 1101941747
	je	.LBB13_189

	cmp	eax, 1167280028
	je	.LBB13_125

	cmp	eax, 1392717727
	jne	.LBB13_1

	mov	rax, qword ptr [rsp + 88]
	shl	rax, 2
	mov	rcx, qword ptr [rsp + 120]
	mov	rdx, rcx
	xor	rdx, -4
	and	rdx, rcx
	mov	rcx, rdx
	and	rcx, rax
	xor	rdx, rax
	or	rdx, rcx
	mov	rax, qword ptr [r14]
	mov	eax, dword ptr [rax + 4*rdx]
	mov	rcx, qword ptr [rsp + 120]
	mov	edx, dword ptr [rsp + 4*rcx + 224]
	mov	esi, edx
	not	esi
	and	esi, -1257669815
	and	edx, 1257669814
	or	edx, esi
	mov	esi, eax
	not	esi
	and	esi, -1257669815
	and	eax, 1257669814
	or	eax, esi
	xor	eax, edx
	mov	dword ptr [rsp + 4*rcx + 224], eax
	mov	rax, qword ptr [rsp + 120]
	inc	rax
	mov	qword ptr [rsp + 176], rax 
	mov	eax, -12871441
	jmp	.LBB13_1
.LBB13_4:                               
	cmp	eax, -1644343514
	jg	.LBB13_9

	cmp	eax, -1953597761
	je	.LBB13_155

	cmp	eax, -1939043705
	je	.LBB13_120

	cmp	eax, -1771714032
	jne	.LBB13_1

	mov	rax, qword ptr [rsp + 16]
	mov	rsi, qword ptr [rsp + 72]
	shl	rsi, 2
	mov	rdx, qword ptr [rsp + 16]
	mov	rdi, qword ptr [rsp + 104]
	call	_ZN5Botan11copy_out_beIjEEvPhmPKT_
	mov	rax, qword ptr [rsp + 24]
	shl	rax, 4
	mov	rcx, qword ptr [rsp + 144]
	add	rcx, rax
	mov	qword ptr [rsp + 304], rcx
	add	rax, qword ptr [rsp + 104]
	mov	qword ptr [rsp + 312], rax
	mov	rax, qword ptr [rsp + 64]
	mov	rcx, qword ptr [rsp + 24]
	movabs	rdx, -5529228681511933031
	sub	rax, rdx
	sub	rax, rcx
	add	rax, rdx
	mov	qword ptr [rsp + 64], rax
	mov	rax, qword ptr [rsp + 96]
	mov	eax, dword ptr [rip + x.38]
	lea	ecx, [rax - 1]
	imul	ecx, eax
	not	ecx
	or	ecx, -2
	cmp	ecx, -1
	sete	cl
	mov	eax, 1916857814
	mov	esi, -1086173584
	cmove	eax, esi
	cmp	dword ptr [rip + y.39], 10
	setl	dl
	mov	edi, 1916857814
	jmp	.LBB13_127
.LBB13_35:                              
	cmp	eax, 382743422
	jg	.LBB13_40

	cmp	eax, 160962041
	je	.LBB13_98

	cmp	eax, 213300046
	je	.LBB13_102

	cmp	eax, 369027114
	jne	.LBB13_1

	mov	r8, qword ptr [rsp + 16]
	mov	eax, dword ptr [r8]
	mov	r9d, dword ptr [r8 + 4]
	mov	esi, r9d
	shr	esi
	mov	ecx, esi
	not	ecx
	and	ecx, eax
	mov	edx, eax
	not	edx
	and	esi, edx
	or	esi, ecx
	mov	ecx, esi
	not	ecx
	or	ecx, -1431655766
	and	esi, 1431655765
	lea	ebp, [rsi + rsi]
	mov	edi, ebp
	not	edi
	and	edi, r9d
	not	r9d
	and	r9d, ebp
	or	r9d, edi
	and	ecx, eax
	and	esi, edx
	or	esi, ecx
	mov	r11d, dword ptr [r8 + 12]
	mov	eax, r11d
	shr	eax
	mov	ecx, dword ptr [r8 + 8]
	mov	edx, eax
	not	edx
	and	edx, ecx
	mov	edi, ecx
	not	edi
	and	eax, edi
	or	eax, edx
	mov	edx, eax
	xor	edx, -1431655766
	and	edx, eax
	lea	ebp, [rdx + rdx]
	mov	eax, ebp
	not	eax
	and	eax, r11d
	not	r11d
	and	r11d, ebp
	or	r11d, eax
	mov	eax, edx
	not	eax
	and	eax, ecx
	and	edx, edi
	or	edx, eax
	mov	ebp, dword ptr [r8 + 20]
	mov	ecx, ebp
	shr	ecx
	mov	r10d, dword ptr [r8 + 16]
	mov	eax, ecx
	not	eax
	and	eax, -932955839
	and	ecx, 932955838
	or	ecx, eax
	mov	eax, r10d
	not	eax
	mov	edi, eax
	and	edi, -932955839
	mov	ebx, r10d
	and	ebx, 932955838
	or	ebx, edi
	xor	ebx, ecx
	mov	ecx, ebx
	xor	ecx, -1431655766
	and	ecx, ebx
	lea	edi, [rcx + rcx]
	mov	ebx, edi
	not	ebx
	and	ebx, -960526192
	and	edi, 960526190
	or	edi, ebx
	mov	ebx, ebp
	not	ebx
	and	ebx, -960526192
	and	ebp, 960526191
	or	ebp, ebx
	xor	ebp, edi
	mov	edi, ecx
	not	edi
	and	edi, -753839726
	and	ecx, 753839725
	or	ecx, edi
	and	eax, -753839726
	and	r10d, 753839725
	or	r10d, eax
	xor	r10d, ecx
	mov	r15d, dword ptr [r8 + 28]
	mov	edi, r15d
	shr	edi
	mov	r13d, dword ptr [r8 + 24]
	mov	eax, edi
	not	eax
	and	eax, -1839773134
	and	edi, 1839773133
	or	edi, eax
	mov	ebx, r13d
	not	ebx
	mov	eax, ebx
	and	eax, -1839773134
	mov	ecx, r13d
	and	ecx, 1839773133
	or	ecx, eax
	xor	ecx, edi
	mov	eax, ecx
	not	eax
	or	eax, 571122216
	mov	edi, ecx
	and	edi, 1431655765
	add	edi, edi
	mov	r12d, edi
	not	r12d
	and	r12d, r15d
	not	r15d
	and	r15d, edi
	or	r15d, r12d
	and	eax, 588949304
	and	ecx, 1413828677
	or	ecx, eax
	and	ebx, 588949304
	and	r13d, -588949305
	or	r13d, ebx
	xor	r13d, ecx
	mov	edi, edx
	shr	edi, 2
	mov	eax, edi
	not	eax
	and	eax, -128215038
	and	edi, 128215037
	or	edi, eax
	mov	r12d, esi
	not	r12d
	mov	ebx, r12d
	and	ebx, -128215038
	mov	ecx, esi
	and	ecx, 128215037
	or	ecx, ebx
	xor	ecx, edi
	mov	edi, ecx
	not	edi
	or	edi, -1946121020
	mov	ebx, ecx
	and	ebx, 858993459
	shl	ebx, 2
	mov	eax, ebx
	not	eax
	and	eax, edx
	not	edx
	and	edx, ebx
	or	edx, eax
	and	edi, -1372409883
	and	ecx, 285282322
	or	ecx, edi
	and	r12d, -1372409883
	and	esi, 1372409882
	or	esi, r12d
	xor	esi, ecx
	mov	r12d, r11d
	shr	r12d, 2
	mov	edi, r12d
	not	edi
	and	edi, r9d
	mov	ecx, r9d
	not	ecx
	and	r12d, ecx
	or	r12d, edi
	mov	edi, r12d
	not	edi
	or	edi, -858993460
	and	r12d, 858993459
	lea	eax, [4*r12]
	mov	ebx, eax
	not	ebx
	and	ebx, 2104321478
	and	eax, -2139060216
	or	eax, ebx
	mov	ebx, r11d
	not	ebx
	and	ebx, 2104321478
	and	r11d, -2104321479
	or	r11d, ebx
	xor	r11d, eax
	and	edi, r9d
	and	r12d, ecx
	or	r12d, edi
	mov	ecx, r13d
	shr	ecx, 2
	mov	eax, ecx
	not	eax
	and	eax, r10d
	mov	r9d, r10d
	not	r9d
	and	ecx, r9d
	or	ecx, eax
	mov	eax, ecx
	not	eax
	or	eax, -858993460
	and	ecx, 858993459
	lea	edi, [4*rcx]
	mov	ebx, edi
	not	ebx
	and	ebx, 931196985
	and	edi, -934540092
	or	edi, ebx
	mov	ebx, r13d
	not	ebx
	and	ebx, 931196985
	and	r13d, -931196986
	or	r13d, ebx
	xor	r13d, edi
	and	eax, r10d
	and	ecx, r9d
	or	ecx, eax
	mov	eax, r15d
	shr	eax, 2
	mov	edi, eax
	not	edi
	and	edi, 1263470794
	and	eax, 884012853
	or	eax, edi
	mov	r9d, ebp
	not	r9d
	mov	edi, r9d
	and	edi, 1263470794
	mov	r10d, ebp
	and	r10d, -1263470795
	or	r10d, edi
	xor	r10d, eax
	mov	eax, r10d
	not	eax
	or	eax, -871872376
	mov	edi, r10d
	and	edi, 858993459
	shl	edi, 2
	mov	ebx, edi
	not	ebx
	and	ebx, r15d
	not	r15d
	and	r15d, edi
	or	r15d, ebx
	and	eax, -855091048
	and	r10d, 842212131
	or	r10d, eax
	and	r9d, -855091048
	and	ebp, 855091047
	or	ebp, r9d
	xor	ebp, r10d
	mov	eax, ecx
	shr	eax, 4
	mov	edi, eax
	not	edi
	and	edi, -37831720
	and	eax, 37831719
	or	eax, edi
	mov	r9d, esi
	not	r9d
	mov	edi, r9d
	and	edi, -37831720
	mov	ebx, esi
	and	ebx, 37831719
	or	ebx, edi
	xor	ebx, eax
	mov	eax, ebx
	xor	eax, -252645136
	and	eax, ebx
	mov	ebx, eax
	shl	ebx, 4
	mov	edi, ebx
	not	edi
	and	edi, ecx
	not	ecx
	and	ecx, ebx
	or	ecx, edi
	mov	dword ptr [r8 + 16], ecx
	mov	ecx, eax
	not	ecx
	and	ecx, esi
	and	eax, r9d
	or	eax, ecx
	mov	dword ptr [r8], eax
	mov	eax, ebp
	shr	eax, 4
	mov	ecx, eax
	not	ecx
	and	ecx, r12d
	mov	esi, r12d
	not	esi
	and	eax, esi
	or	eax, ecx
	mov	ecx, eax
	xor	ecx, -252645136
	and	ecx, eax
	mov	eax, ecx
	shl	eax, 4
	mov	edi, eax
	not	edi
	and	edi, ebp
	not	ebp
	and	ebp, eax
	or	ebp, edi
	mov	dword ptr [r8 + 20], ebp
	mov	eax, ecx
	not	eax
	and	eax, r12d
	and	ecx, esi
	or	ecx, eax
	mov	dword ptr [r8 + 4], ecx
	mov	ecx, r13d
	shr	ecx, 4
	mov	esi, ecx
	not	esi
	and	esi, edx
	mov	eax, edx
	not	eax
	and	ecx, eax
	or	ecx, esi
	mov	esi, ecx
	xor	esi, -252645136
	and	esi, ecx
	mov	ecx, esi
	shl	ecx, 4
	mov	edi, ecx
	not	edi
	and	edi, r13d
	not	r13d
	and	r13d, ecx
	or	r13d, edi
	mov	dword ptr [r8 + 24], r13d
	mov	ecx, esi
	not	ecx
	and	ecx, -678037231
	and	esi, 678037230
	or	esi, ecx
	and	eax, -678037231
	and	edx, 678037230
	or	edx, eax
	xor	edx, esi
	mov	dword ptr [r8 + 8], edx
	mov	eax, r15d
	shr	eax, 4
	mov	edx, eax
	not	edx
	and	edx, r11d
	mov	ecx, r11d
	not	ecx
	and	eax, ecx
	or	eax, edx
	mov	edx, eax
	not	edx
	or	edx, -521129856
	mov	esi, eax
	and	esi, 252645135
	shl	esi, 4
	mov	edi, esi
	not	edi
	and	edi, -428849523
	and	esi, 276869232
	or	esi, edi
	mov	edi, r15d
	not	edi
	and	edi, -428849523
	and	r15d, 428849522
	or	r15d, edi
	xor	r15d, esi
	mov	dword ptr [r8 + 28], r15d
	and	edx, -285853299
	and	eax, 17368578
	or	eax, edx
	and	ecx, -285853299
	and	r11d, 285853298
	or	r11d, ecx
	xor	r11d, eax
	mov	dword ptr [r8 + 12], r11d
	mov	eax, 1167280028
	xor	ecx, ecx
	mov	qword ptr [rsp + 152], rcx 
	jmp	.LBB13_1
.LBB13_60:                              
	cmp	eax, 1062121768
	jg	.LBB13_65

	cmp	eax, 823402951
	je	.LBB13_178

	cmp	eax, 848570253
	je	.LBB13_104

	cmp	eax, 975454850
	jne	.LBB13_1

	mov	rax, qword ptr [rsp + 40]
	cmp	rax, 8
	setne	byte ptr [rsp + 55]
	mov	eax, dword ptr [rip + x.38]
	mov	ecx, eax
	neg	ecx
	not	ecx
	imul	ecx, eax
	not	ecx
	or	ecx, -2
	cmp	ecx, -1
	sete	cl
	mov	eax, 99225926
	mov	edi, 1657350948
	cmove	eax, edi
	cmp	dword ptr [rip + y.39], 10
	setl	dl
	mov	esi, 99225926
	jmp	.LBB13_182
.LBB13_112:                             
	mov	ebx, -1537269979
	.p2align	4, 0x90
.LBB13_51:                              

	mov	ebp, ebx
	cmp	ebp, 375291873
	jg	.LBB13_109

	cmp	ebp, -1441340876
	jle	.LBB13_53

	cmp	ebp, -1441340875
	je	.LBB13_119

	cmp	ebp, -218825286
	mov	ebx, eax
	je	.LBB13_51

	cmp	ebp, -175418724
	mov	ebx, ebp
	jne	.LBB13_51

	mov	ebx, 1344099410
	jmp	.LBB13_51
	.p2align	4, 0x90
.LBB13_109:                             
	cmp	ebp, 1344099409
	jle	.LBB13_110

	cmp	ebp, 1344099410
	mov	ebx, esi
	je	.LBB13_51

	cmp	ebp, 1962321552
	je	.LBB13_117

	cmp	ebp, 1935620248
	mov	ebx, ebp
	jne	.LBB13_51
	jmp	.LBB13_116
	.p2align	4, 0x90
.LBB13_53:                              
	cmp	ebp, -1537269979
	mov	ebx, ecx
	je	.LBB13_51

	cmp	ebp, -1501698044
	mov	ebx, ebp
	jne	.LBB13_51

	mov	ebx, 1935620248
	lea	rdi, [rsp + 128]
	jmp	.LBB13_51
	.p2align	4, 0x90
.LBB13_110:                             
	cmp	ebp, 375291874
	mov	ebx, edx
	je	.LBB13_51

	cmp	ebp, 1119632240
	mov	ebx, ebp
	jne	.LBB13_51
	jmp	.LBB13_112
.LBB13_117:                             
	mov	rbp, qword ptr [rsp + 8]
	cmp	rbp, qword ptr [rsp + 32]
	mov	ebx, -218825286
	jb	.LBB13_51

	mov	ebx, 375291874
	jmp	.LBB13_51
.LBB13_119:                             
	mov	ebx, 1935620248
	lea	rdi, [rsp + 64]
	jmp	.LBB13_51
.LBB13_85:                              
	cmp	eax, 1657350948
	je	.LBB13_121

	cmp	eax, 1676406376
	je	.LBB13_154

	cmp	eax, 1820916454
	jne	.LBB13_1

	mov	rax, qword ptr [rsp + 280]
	cmp	rax, 44
	mov	eax, 2051196914
	jmp	.LBB13_89
.LBB13_80:                              
	cmp	eax, 1435803467
	je	.LBB13_185

	cmp	eax, 1465856027
	je	.LBB13_122

	cmp	eax, 1593825466
	jne	.LBB13_1

	mov	rax, qword ptr [rsp + 40]
	and	eax, 3
	mov	rcx, qword ptr [r14]
	mov	eax, dword ptr [rcx + 4*rax]
	mov	rcx, qword ptr [rsp + 40]
	mov	edx, dword ptr [rsp + 4*rcx + 224]
	mov	esi, edx
	not	esi
	and	esi, eax
	not	eax
	and	eax, edx
	or	eax, esi
	mov	dword ptr [rsp + 4*rcx + 224], eax
	mov	eax, dword ptr [rip + x.38]
	mov	ecx, dword ptr [rip + y.39]
	lea	edx, [rax - 1]
	imul	edx, eax
	mov	eax, edx
	xor	eax, -2
	and	eax, edx
	sete	dl
	cmp	ecx, 10
	setl	bl
	xor	bl, dl
	mov	edx, -1125592920
	mov	esi, -1493527287
	cmovne	edx, esi
	test	eax, eax
	mov	eax, edx
	cmove	eax, esi
	cmp	ecx, 10
	mov	rcx, qword ptr [rsp + 40]
	movabs	rsi, -1140148847269732565
	lea	rcx, [rcx + rsi + 1]
	cmovge	eax, edx
	sub	rcx, rsi
	mov	qword ptr [rsp + 288], rcx
	jmp	.LBB13_1
.LBB13_21:                              
	cmp	eax, -1086173584
	je	.LBB13_183

	cmp	eax, -1068043282
	je	.LBB13_126

	cmp	eax, -918998255
	jne	.LBB13_1

	mov	rax, qword ptr [rsp + 56]
	mov	rcx, qword ptr [rsp + 112]
	lea	rax, [rcx + 8*rax]
	mov	eax, dword ptr [rsp + 4*rax + 320]
	mov	rcx, qword ptr [rsp + 112]
	mov	edx, dword ptr [rsp + 4*rcx + 224]
	mov	esi, edx
	not	esi
	and	esi, eax
	not	eax
	and	eax, edx
	or	eax, esi
	mov	dword ptr [rsp + 4*rcx + 224], eax
	mov	rax, qword ptr [rsp + 112]
	inc	rax
	mov	qword ptr [rsp + 184], rax 
	mov	eax, 1062469499
	jmp	.LBB13_1
.LBB13_31:                              
	cmp	eax, -12871441
	je	.LBB13_180

	cmp	eax, 59043832
	je	.LBB13_99

	cmp	eax, 99225926
	jne	.LBB13_1

	mov	rax, qword ptr [rsp + 40]
	mov	eax, 975454850
	jmp	.LBB13_1
.LBB13_56:                              
	cmp	eax, 619786876
	je	.LBB13_241

	cmp	eax, 782166103
	je	.LBB13_128

	cmp	eax, 808689951
	jne	.LBB13_1

	mov	eax, 1167280028
	mov	rcx, qword ptr [rsp + 296]
	mov	qword ptr [rsp + 152], rcx 
	jmp	.LBB13_1
.LBB13_9:                               
	cmp	eax, -1644343513
	je	.LBB13_181

	cmp	eax, -1531488007
	je	.LBB13_242

	cmp	eax, -1519459824
	jne	.LBB13_1

	mov	rax, qword ptr [rsp + 88]
	dec	rax
	mov	qword ptr [rsp + 208], rax
	mov	rax, qword ptr [rsp + 208]
	mov	rcx, qword ptr [rsp + 80]
	cmp	rcx, rax
	setb	byte ptr [rsp + 54]
	mov	eax, dword ptr [rip + x.38]
	lea	ecx, [rax - 1]
	imul	ecx, eax
	mov	eax, ecx
	xor	eax, -2
	and	eax, ecx
	sete	cl
	test	eax, eax
	mov	eax, -1422877923
	mov	esi, 213300046
	cmove	eax, esi
	cmp	dword ptr [rip + y.39], 10
	setl	dl
	mov	edi, -1422877923
	jmp	.LBB13_127
.LBB13_40:                              
	cmp	eax, 382743423
	je	.LBB13_215

	cmp	eax, 426246934
	je	.LBB13_186

	cmp	eax, 458487602
	jne	.LBB13_1

	mov	eax, 1062469499
	xor	ecx, ecx
	mov	qword ptr [rsp + 184], rcx 
	jmp	.LBB13_1
.LBB13_65:                              
	cmp	eax, 1062121769
	je	.LBB13_103

	cmp	eax, 1062469499
	je	.LBB13_177

	cmp	eax, 1064907566
	jne	.LBB13_1

	mov	rdi, qword ptr [rsp + 16]
	call	_ZN5Botan12_GLOBAL__N_112AES_INV_SBOXEPj
	mov	r10, qword ptr [rsp + 16]
	xor	eax, eax
	jmp	.LBB13_69
.LBB13_94:                              
	cmp	eax, 2051196914
	je	.LBB13_97

	cmp	eax, 2083696924
	jne	.LBB13_1

	mov	rax, qword ptr [rsp + 168] 
	mov	qword ptr [rsp + 80], rax
	mov	eax, dword ptr [rip + x.38]
	mov	ecx, eax
	neg	ecx
	not	ecx
	imul	ecx, eax
	mov	eax, ecx
	xor	eax, -2
	and	eax, ecx
	sete	cl
	test	eax, eax
	mov	eax, -1422877923
	mov	edi, -1519459824
	cmove	eax, edi
	cmp	dword ptr [rip + y.39], 10
	setl	dl
	mov	esi, -1422877923
	jmp	.LBB13_182
.LBB13_18:                              
	cmp	eax, -1125592920
	jne	.LBB13_19

	mov	rax, qword ptr [rsp + 40]
	mov	rax, qword ptr [rsp + 40]
	mov	rax, qword ptr [rsp + 40]
	mov	rax, qword ptr [rsp + 40]
	mov	rax, qword ptr [rsp + 40]
	mov	rax, qword ptr [rsp + 40]
	mov	rax, qword ptr [rsp + 40]
	and	eax, 3
	mov	rcx, qword ptr [r14]
	mov	eax, dword ptr [rcx + 4*rax]
	mov	rcx, qword ptr [rsp + 40]
	mov	edx, dword ptr [rsp + 4*rcx + 224]
	mov	esi, edx
	not	esi
	and	esi, 1256550236
	and	edx, -1256550237
	or	edx, esi
	mov	esi, eax
	not	esi
	and	esi, 1256550236
	and	eax, -1256550237
	or	eax, esi
	xor	eax, edx
	mov	dword ptr [rsp + 4*rcx + 224], eax
	mov	rax, qword ptr [rsp + 40]
	mov	rax, qword ptr [rsp + 40]
	mov	rax, qword ptr [rsp + 40]
	mov	eax, 1593825466
	jmp	.LBB13_1
.LBB13_101:                             
	mov	rax, qword ptr [r14 + 8]
	movabs	rcx, -276303535329852566
	sub	rax, rcx
	sub	rax, qword ptr [r14]
	add	rax, rcx
	sar	rax, 2
	neg	rax
	mov	rcx, -4
	sub	rcx, rax
	shr	rcx, 2
	mov	qword ptr [rsp + 88], rcx
	lea	rax, [rsp + 320]
	mov	qword ptr [rsp + 136], rax
	mov	rax, qword ptr [rsp + 136]
	mov	rdi, qword ptr [rsp + 136]
	xor	esi, esi
	mov	edx, 416
	call	memset
	mov	eax, 2083696924
	xor	ecx, ecx
	mov	qword ptr [rsp + 168], rcx 
	jmp	.LBB13_1
.LBB13_124:                             
	mov	eax, -1939043705
	mov	rcx, qword ptr [rsp + 288]
	mov	qword ptr [rsp + 160], rcx 
	jmp	.LBB13_1
.LBB13_100:                             
	mov	al, byte ptr [rsp + 53]
	test	al, al
	mov	eax, -1409223852
	mov	ecx, 1872239050
	cmovne	eax, ecx
	jmp	.LBB13_1
.LBB13_179:                             
	mov	eax, dword ptr [rip + x.38]
	mov	ecx, dword ptr [rip + y.39]
	lea	edx, [rax - 1]
	imul	edx, eax
	not	edx
	or	edx, -2
	cmp	edx, -1
	sete	al
	cmp	ecx, 10
	setl	bl
	xor	bl, al
	mov	esi, 619786876
	mov	edi, 808689951
	cmovne	esi, edi
	cmp	edx, -1
	mov	eax, esi
	cmove	eax, edi
	cmp	ecx, 10
	mov	rcx, qword ptr [rsp + 56]
	cmovge	eax, esi
	movabs	rdx, -6665439893209882724
	sub	rcx, rdx
	lea	rcx, [rcx + rdx + 1]
	mov	qword ptr [rsp + 296], rcx
	jmp	.LBB13_1
.LBB13_184:                             
	mov	rax, qword ptr [rsp + 216]
	mov	rax, qword ptr [rsp + 136]
	mov	eax, dword ptr [rip + x.38]
	lea	ecx, [rax - 1]
	imul	ecx, eax
	mov	eax, ecx
	xor	eax, -2
	and	eax, ecx
	sete	cl
	test	eax, eax
	mov	eax, -1531488007
	mov	esi, 1435803467
	cmove	eax, esi
	cmp	dword ptr [rip + y.39], 10
	setl	dl
	mov	edi, -1531488007
	jmp	.LBB13_127
.LBB13_187:                             
	mov	eax, 59043832
	jmp	.LBB13_1
.LBB13_189:                             
	mov	rdi, qword ptr [rsp + 16]
	call	_ZN5Botan12_GLOBAL__N_112AES_INV_SBOXEPj
	mov	r10, qword ptr [rsp + 16]
	xor	ecx, ecx
	jmp	.LBB13_190
.LBB13_125:                             
	mov	rax, qword ptr [rsp + 152] 
	mov	qword ptr [rsp + 56], rax
	mov	rax, qword ptr [rsp + 208]
	mov	rcx, qword ptr [rsp + 56]
	cmp	rcx, rax
	mov	eax, -1953597761
	mov	ecx, -1068043282
	cmove	eax, ecx
	jmp	.LBB13_1
.LBB13_155:                             
	mov	eax, dword ptr [rip + x.38]
	mov	ecx, dword ptr [rip + y.39]
	lea	edx, [rax - 1]
	imul	edx, eax
	not	edx
	or	edx, -2
	cmp	edx, -1
	sete	al
	cmp	ecx, 10
	setl	bl
	xor	bl, al
	mov	esi, 382743423
	mov	edi, 1064907566
	jmp	.LBB13_156
.LBB13_120:                             
	mov	rax, qword ptr [rsp + 160] 
	mov	qword ptr [rsp + 40], rax
	mov	eax, dword ptr [rip + x.38]
	mov	ecx, eax
	neg	ecx
	not	ecx
	imul	ecx, eax
	not	ecx
	or	ecx, -2
	cmp	ecx, -1
	sete	cl
	mov	eax, 99225926
	mov	esi, 975454850
	cmove	eax, esi
	cmp	dword ptr [rip + y.39], 10
	setl	dl
	mov	edi, 99225926
	jmp	.LBB13_127
.LBB13_98:                              
	mov	eax, dword ptr [rip + x.38]
	mov	ecx, dword ptr [rip + y.39]
	mov	edx, eax
	neg	edx
	not	edx
	imul	edx, eax
	mov	eax, edx
	xor	eax, -2
	and	eax, edx
	sete	dl
	cmp	ecx, 10
	setl	bl
	xor	bl, dl
	mov	edx, 537048235
	mov	esi, 59043832
	jmp	.LBB13_123
.LBB13_102:                             
	mov	al, byte ptr [rsp + 54]
	test	al, al
	mov	eax, -42976833
	mov	ecx, 1062121769
	cmovne	eax, ecx
	jmp	.LBB13_1
.LBB13_178:                             
	mov	eax, dword ptr [rip + x.38]
	mov	ecx, dword ptr [rip + y.39]
	lea	edx, [rax - 1]
	imul	edx, eax
	mov	eax, edx
	xor	eax, -2
	and	eax, edx
	sete	dl
	cmp	ecx, 10
	setl	bl
	xor	bl, dl
	mov	edx, 619786876
	mov	esi, -77476032
	jmp	.LBB13_123
.LBB13_104:                             
	mov	rax, qword ptr [rsp + 200] 
	mov	qword ptr [rsp + 144], rax
	mov	rax, qword ptr [rsp + 192] 
	mov	qword ptr [rsp + 104], rax
	cmp	qword ptr [rsp + 64], 0
	mov	eax, 602511894
	mov	ecx, 499644598
	cmove	eax, ecx
	jmp	.LBB13_1
.LBB13_116:                             
	mov	rax, qword ptr [rdi]
	mov	qword ptr [rsp + 24], rax
	lea	rax, [rsp + 224]
	mov	rcx, rax
	mov	qword ptr [rsp + 96], rcx
	mov	rax, qword ptr [rsp + 96]
	mov	rax, qword ptr [rsp + 96]
	xorps	xmm0, xmm0
	movaps	xmmword ptr [rax + 16], xmm0
	movaps	xmmword ptr [rax], xmm0
	mov	qword ptr [rsp + 16], rcx
	mov	rax, qword ptr [rsp + 16]
	mov	rax, qword ptr [rsp + 24]
	shl	rax, 2
	mov	qword ptr [rsp + 72], rax
	mov	rdi, qword ptr [rsp + 16]
	mov	rdx, qword ptr [rsp + 72]
	mov	rsi, qword ptr [rsp + 144]
	call	_ZN5Botan7load_beIjEEvPT_PKhm
	mov	eax, -1939043705
	xor	ecx, ecx
	mov	qword ptr [rsp + 160], rcx 
	jmp	.LBB13_1
.LBB13_121:                             
	mov	al, byte ptr [rsp + 55]
	test	al, al
	mov	eax, 369027114
	mov	ecx, 1465856027
	cmovne	eax, ecx
	jmp	.LBB13_1
.LBB13_154:                             
	mov	eax, -12871441
	xor	ecx, ecx
	mov	qword ptr [rsp + 176], rcx 
	jmp	.LBB13_1
.LBB13_185:                             
	mov	eax, dword ptr [rip + x.38]
	mov	ecx, eax
	neg	ecx
	not	ecx
	imul	ecx, eax
	mov	eax, ecx
	xor	eax, -2
	and	eax, ecx
	sete	cl
	test	eax, eax
	mov	eax, -1531488007
	mov	edi, 426246934
	cmove	eax, edi
	cmp	dword ptr [rip + y.39], 10
	setl	dl
	mov	esi, -1531488007
	jmp	.LBB13_182
.LBB13_122:                             
	mov	eax, dword ptr [rip + x.38]
	mov	ecx, dword ptr [rip + y.39]
	lea	edx, [rax - 1]
	imul	edx, eax
	mov	eax, edx
	xor	eax, -2
	and	eax, edx
	sete	dl
	cmp	ecx, 10
	setl	bl
	xor	bl, dl
	mov	edx, -1125592920
	mov	esi, 1593825466
.LBB13_123:                             
	cmovne	edx, esi
	test	eax, eax
	mov	eax, edx
	cmove	eax, esi
	cmp	ecx, 10
	cmovge	eax, edx
	jmp	.LBB13_1
.LBB13_183:                             
	mov	rax, qword ptr [rsp + 304]
	mov	qword ptr [rsp + 200], rax 
	mov	eax, 848570253
	mov	rcx, qword ptr [rsp + 312]
	mov	qword ptr [rsp + 192], rcx 
	jmp	.LBB13_1
.LBB13_126:                             
	mov	eax, dword ptr [rip + x.38]
	lea	ecx, [rax - 1]
	imul	ecx, eax
	not	ecx
	or	ecx, -2
	cmp	ecx, -1
	sete	cl
	mov	eax, 1101941747
	mov	esi, 782166103
	cmove	eax, esi
	cmp	dword ptr [rip + y.39], 10
	setl	dl
	mov	edi, 1101941747
	jmp	.LBB13_127
.LBB13_180:                             
	mov	rax, qword ptr [rsp + 176] 
	mov	qword ptr [rsp + 120], rax
	mov	rax, qword ptr [rsp + 120]
	cmp	rax, 8
	mov	eax, 1392717727
	mov	ecx, -1644343513
	cmove	eax, ecx
	jmp	.LBB13_1
.LBB13_99:                              
	mov	rax, qword ptr [r14 + 8]
	movabs	rcx, -5822072115588684647
	add	rax, rcx
	sub	rax, qword ptr [r14]
	sub	rax, rcx
	cmp	rax, 240
	sete	byte ptr [rsp + 53]
	mov	eax, dword ptr [rip + x.38]
	lea	ecx, [rax - 1]
	imul	ecx, eax
	mov	eax, ecx
	xor	eax, -2
	and	eax, ecx
	sete	cl
	test	eax, eax
	mov	eax, 537048235
	mov	esi, -128891893
	cmove	eax, esi
	cmp	dword ptr [rip + y.39], 10
	setl	dl
	mov	edi, 537048235
	jmp	.LBB13_127
.LBB13_241:                             
	mov	rax, qword ptr [rsp + 56]
	mov	rax, qword ptr [rsp + 56]
	mov	rax, qword ptr [rsp + 56]
	mov	rax, qword ptr [rsp + 56]
	mov	rax, qword ptr [rsp + 56]
	mov	rax, qword ptr [rsp + 56]
	mov	rax, qword ptr [rsp + 56]
	mov	rax, qword ptr [rsp + 56]
	mov	eax, -77476032
	jmp	.LBB13_1
.LBB13_128:                             
	mov	rdi, qword ptr [rsp + 16]
	call	_ZN5Botan12_GLOBAL__N_112AES_INV_SBOXEPj
	mov	r10, qword ptr [rsp + 16]
	xor	ecx, ecx
	jmp	.LBB13_129
.LBB13_181:                             
	mov	eax, dword ptr [rip + x.38]
	lea	ecx, [rax - 1]
	imul	ecx, eax
	not	ecx
	or	ecx, -2
	cmp	ecx, -1
	sete	cl
	mov	eax, 1916857814
	mov	edi, -1771714032
	cmove	eax, edi
	cmp	dword ptr [rip + y.39], 10
	setl	dl
	mov	esi, 1916857814
	jmp	.LBB13_182
.LBB13_242:                             
	mov	eax, 1435803467
	jmp	.LBB13_1
.LBB13_215:                             
	mov	rdi, qword ptr [rsp + 16]
	call	_ZN5Botan12_GLOBAL__N_112AES_INV_SBOXEPj
	mov	r9, qword ptr [rsp + 16]
	xor	eax, eax
	jmp	.LBB13_216
.LBB13_103:                             
	mov	rax, qword ptr [rsp + 80]
	shl	rax, 5
	lea	rdi, [rsp + rax + 320]
	mov	rsi, qword ptr [r14]
	mov	rax, qword ptr [rsp + 80]
	lea	rdx, [4*rax + 4]
	call	_ZN5Botan12_GLOBAL__N_19ks_expandEPjPKjm
	mov	rax, qword ptr [rsp + 80]
	xor	ecx, ecx
	sub	rcx, rax
	mov	eax, 1
	sub	rax, rcx
	mov	qword ptr [rsp + 168], rax 
	mov	eax, 2083696924
	jmp	.LBB13_1
.LBB13_177:                             
	mov	rax, qword ptr [rsp + 184] 
	mov	qword ptr [rsp + 112], rax
	mov	rax, qword ptr [rsp + 112]
	cmp	rax, 8
	mov	eax, -918998255
	mov	ecx, 823402951
	cmove	eax, ecx
	jmp	.LBB13_1
.LBB13_97:                              
	mov	rax, qword ptr [r14 + 8]
	movabs	rcx, -9134597378118678522
	sub	rax, rcx
	sub	rax, qword ptr [r14]
	movabs	rcx, 9134597378118678730
	cmp	rax, rcx
	mov	eax, 160962041
.LBB13_89:                              
	mov	ecx, 1872239050
	cmove	eax, ecx
	jmp	.LBB13_1
	.p2align	4, 0x90
.LBB13_173:                             
	mov	rax, qword ptr [rsp + 32]
	mov	rcx, rax
	shr	rcx, 32
	mov	dword ptr [r10 + 4*r8], ecx
	mov	dword ptr [r10 + 4*r9], eax
	mov	rax, qword ptr [rsp + 8]
	add	rax, 2
.LBB13_69:                              




	mov	ecx, 2081299199
	jmp	.LBB13_70
.LBB13_73:                              
	mov	qword ptr [rsp + 8], rax
	mov	rcx, qword ptr [rsp + 8]
	cmp	rcx, 8
	mov	ecx, 1433127781
	mov	edx, 2128240561
	cmove	ecx, edx
	.p2align	4, 0x90
.LBB13_70:                              


	mov	edx, ecx
	and	edx, 1073741823
	cmp	edx, 359385957
	je	.LBB13_157

	cmp	edx, 1054498737
	je	.LBB13_176

	cmp	edx, 1007557375
	jne	.LBB13_70
	jmp	.LBB13_73
	.p2align	4, 0x90
.LBB13_157:                             
	mov	r8, qword ptr [rsp + 8]
	mov	ecx, dword ptr [r10 + 4*r8]
	mov	rax, qword ptr [rsp + 8]
	movabs	rdx, 7880503500978580376
	sub	rax, rdx
	lea	r9, [rax + rdx + 1]
	mov	eax, dword ptr [r10 + 4*r9]
	mov	edx, dword ptr [rip + x.152]
	mov	r11d, dword ptr [rip + y.153]
	lea	r13d, [rdx - 1]
	imul	r13d, edx
	mov	r15d, r13d
	xor	r15d, -2
	cmp	r11d, 10
	setl	dl
	setl	byte ptr [rsp + 7]
	mov	esi, r15d
	and	esi, r13d
	sete	bl
	sete	byte ptr [rsp + 6]
	xor	bl, dl
	mov	edx, 1988151136
	mov	edi, 2111902940
	cmovne	edx, edi
	test	esi, esi
	mov	r12d, edx
	cmove	r12d, edi
	cmp	r11d, 10
	cmovge	r12d, edx
	shl	rcx, 32
	mov	rdi, rcx
	not	rdi
	movabs	rdx, 4363231393413792422
	mov	rsi, rdx
	not	rdx
	and	rcx, rdx
	and	rdx, rax
	not	rax
	and	rdi, rsi
	or	rcx, rdi
	and	rax, rsi
	or	rdx, rax
	xor	rdx, rcx
	mov	rcx, rdx
	shr	rcx
	mov	rax, rcx
	not	rax
	mov	rbx, rdx
	not	rbx
	and	rax, rdx
	and	rcx, rbx
	or	rcx, rax
	mov	rax, rcx
	movabs	rsi, 23925738098196565
	xor	rax, rsi
	not	rax
	and	rax, rcx
	mov	rcx, rax
	not	rcx
	movabs	rsi, 389188242445656943
	mov	rbp, rsi
	mov	rdi, rbp
	not	rdi
	and	rcx, rbp
	mov	rsi, rax
	and	rsi, rdi
	or	rsi, rcx
	and	rdi, rdx
	and	rbx, rbp
	or	rdi, rbx
	xor	rdi, rsi
	mov	rdx, rdi
	not	rdx
	movabs	rcx, -3905168920013030660
	mov	rsi, rcx
	not	rcx
	and	rdx, rsi
	and	rdi, rcx
	or	rdi, rdx
	add	rax, rax
	and	rcx, rax
	not	rax
	and	rax, rsi
	or	rcx, rax
	xor	rcx, rdi
	mov	eax, -564980344
	jmp	.LBB13_158
.LBB13_169:                             
	movzx	ebx, byte ptr [rsp + 6]
	movzx	eax, byte ptr [rsp + 7]
	mov	edx, ebx
	xor	dl, al
	mov	edx, 1988151136
	mov	esi, 1762584481
	cmovne	edx, esi
	test	al, al
	mov	eax, edx
	cmovne	eax, esi
	test	bl, bl
	cmove	eax, edx
	.p2align	4, 0x90
.LBB13_158:                             


	cmp	eax, 1988151135
	jle	.LBB13_159

	cmp	eax, 1988151136
	je	.LBB13_170

	cmp	eax, 2111902940
	jne	.LBB13_158
	jmp	.LBB13_164
	.p2align	4, 0x90
.LBB13_159:                             
	cmp	eax, -564980344
	je	.LBB13_169

	cmp	eax, 1762584481
	jne	.LBB13_158

	mov	qword ptr [rsp + 32], rcx
	mov	eax, r12d
	jmp	.LBB13_158
.LBB13_170:                             
	mov	eax, 1762584481
	jmp	.LBB13_158
	.p2align	4, 0x90
.LBB13_164:                             
	test	r15d, r13d
	mov	rax, qword ptr [rsp + 32]
	sete	byte ptr [rsp + 6]
	cmp	r11d, 10
	setl	byte ptr [rsp + 7]
	mov	rcx, rax
	shr	rcx, 2
	mov	rdx, rcx
	not	rdx
	and	rdx, rax
	mov	rsi, rax
	not	rsi
	and	rcx, rsi
	or	rcx, rdx
	mov	rdi, rcx
	movabs	rdx, 9626297317864209
	xor	rdi, rdx
	not	rdi
	and	rdi, rcx
	mov	rcx, rdi
	not	rcx
	movabs	rdx, 3169244404160826986
	mov	rbx, rdx
	and	rcx, rbx
	not	rdx
	mov	rbp, rdi
	and	rbp, rdx
	or	rbp, rcx
	and	rsi, rbx
	and	rdx, rax
	or	rdx, rsi
	xor	rdx, rbp
	shl	rdi, 2
	mov	rax, rdx
	not	rax
	and	rax, rdi
	not	rdi
	and	rdi, rdx
	or	rdi, rax
	mov	eax, -564980344
	jmp	.LBB13_165
.LBB13_174:                             
	movzx	ecx, byte ptr [rsp + 6]
	movzx	eax, byte ptr [rsp + 7]
	mov	edx, ecx
	xor	dl, al
	mov	edx, 1988151136
	mov	esi, 1762584481
	cmovne	edx, esi
	test	al, al
	mov	eax, edx
	cmovne	eax, esi
	test	cl, cl
	cmove	eax, edx
	.p2align	4, 0x90
.LBB13_165:                             


	cmp	eax, 1988151135
	jle	.LBB13_166

	cmp	eax, 1988151136
	je	.LBB13_175

	cmp	eax, 2111902940
	jne	.LBB13_165
	jmp	.LBB13_173
	.p2align	4, 0x90
.LBB13_166:                             
	cmp	eax, -564980344
	je	.LBB13_174

	cmp	eax, 1762584481
	jne	.LBB13_165

	mov	qword ptr [rsp + 32], rdi
	mov	eax, r12d
	jmp	.LBB13_165
.LBB13_175:                             
	mov	eax, 1762584481
	jmp	.LBB13_165
.LBB13_176:                             
	mov	rdi, qword ptr [rsp + 16]
	call	_ZN5Botan12_GLOBAL__N_115inv_mix_columnsEPj
	mov	eax, dword ptr [rip + x.38]
	lea	ecx, [rax - 1]
	imul	ecx, eax
	mov	eax, ecx
	xor	eax, -2
	and	eax, ecx
	sete	cl
	test	eax, eax
	mov	eax, 382743423
	mov	edi, 458487602
	cmove	eax, edi
	cmp	dword ptr [rip + y.39], 10
	setl	dl
	mov	esi, 382743423
.LBB13_182:                             
	cmovge	eax, esi
	xor	dl, cl
	cmovne	eax, edi
	jmp	.LBB13_1
	.p2align	4, 0x90
.LBB13_211:                             
	mov	rax, qword ptr [rsp + 32]
	mov	rcx, rax
	shr	rcx, 32
	mov	dword ptr [r10 + 4*r8], ecx
	mov	dword ptr [r10 + 4*r9], eax
	mov	rax, qword ptr [rsp + 8]
	movabs	rcx, 4801852724473140615
	sub	rax, rcx
	lea	rcx, [rax + rcx + 2]
.LBB13_190:                             




	mov	edx, 2081299199
	jmp	.LBB13_191
.LBB13_194:                             
	mov	qword ptr [rsp + 8], rcx
	mov	rdx, qword ptr [rsp + 8]
	cmp	rdx, 8
	mov	edx, 1433127781
	mov	eax, 2128240561
	cmove	edx, eax
	.p2align	4, 0x90
.LBB13_191:                             


	mov	esi, edx
	and	esi, 1073741823
	cmp	esi, 359385957
	je	.LBB13_195

	cmp	esi, 1054498737
	je	.LBB13_214

	cmp	esi, 1007557375
	jne	.LBB13_191
	jmp	.LBB13_194
	.p2align	4, 0x90
.LBB13_195:                             
	mov	r8, qword ptr [rsp + 8]
	mov	ecx, dword ptr [r10 + 4*r8]
	mov	rdx, qword ptr [rsp + 8]
	movabs	rax, 6041804401901417087
	sub	rdx, rax
	lea	r9, [rdx + rax + 1]
	mov	edi, dword ptr [r10 + 4*r9]
	mov	esi, dword ptr [rip + x.152]
	mov	r11d, dword ptr [rip + y.153]
	lea	ebp, [rsi - 1]
	imul	ebp, esi
	mov	r15d, ebp
	xor	r15d, -2
	mov	esi, r15d
	and	esi, ebp
	sete	al
	sete	byte ptr [rsp + 6]
	cmp	r11d, 10
	setl	dl
	xor	dl, al
	mov	eax, 1988151136
	mov	edx, 2111902940
	cmovne	eax, edx
	test	esi, esi
	mov	esi, eax
	cmove	esi, edx
	cmp	r11d, 10
	setl	byte ptr [rsp + 7]
	cmovge	esi, eax
	shl	rcx, 32
	or	rcx, rdi
	mov	rax, rcx
	shr	rax
	mov	rdx, rax
	not	rdx
	mov	rdi, rcx
	not	rdi
	and	rdx, rcx
	and	rax, rdi
	or	rax, rdx
	not	rax
	movabs	rdx, 23925738098196565
	not	rdx
	or	rdx, rax
	and	rcx, rdx
	not	rdx
	and	rdi, rdx
	or	rdi, rcx
	add	rdx, rdx
	mov	rcx, rdx
	not	rcx
	and	rcx, rdi
	not	rdi
	and	rdi, rdx
	or	rcx, rdi
	mov	edx, -564980344
	jmp	.LBB13_196
.LBB13_207:                             
	movzx	ebx, byte ptr [rsp + 6]
	movzx	edx, byte ptr [rsp + 7]
	mov	eax, ebx
	xor	al, dl
	mov	eax, 1988151136
	mov	edi, 1762584481
	cmovne	eax, edi
	test	dl, dl
	mov	edx, eax
	cmovne	edx, edi
	test	bl, bl
	cmove	edx, eax
	.p2align	4, 0x90
.LBB13_196:                             


	cmp	edx, 1988151135
	jle	.LBB13_197

	cmp	edx, 1988151136
	je	.LBB13_208

	cmp	edx, 2111902940
	jne	.LBB13_196
	jmp	.LBB13_202
	.p2align	4, 0x90
.LBB13_197:                             
	cmp	edx, -564980344
	je	.LBB13_207

	cmp	edx, 1762584481
	jne	.LBB13_196

	mov	qword ptr [rsp + 32], rcx
	mov	edx, esi
	jmp	.LBB13_196
.LBB13_208:                             
	mov	edx, 1762584481
	jmp	.LBB13_196
	.p2align	4, 0x90
.LBB13_202:                             
	test	r15d, ebp
	mov	rbx, qword ptr [rsp + 32]
	sete	byte ptr [rsp + 6]
	cmp	r11d, 10
	setl	byte ptr [rsp + 7]
	mov	rcx, rbx
	shr	rcx, 2
	mov	rdx, rcx
	not	rdx
	and	rdx, rbx
	mov	rax, rbx
	not	rax
	and	rcx, rax
	or	rcx, rdx
	not	rcx
	movabs	rdi, 9626297317864209
	not	rdi
	or	rdi, rcx
	and	rbx, rdi
	not	rdi
	and	rax, rdi
	or	rax, rbx
	shl	rdi, 2
	mov	rcx, rax
	not	rcx
	and	rcx, rdi
	not	rdi
	and	rdi, rax
	or	rdi, rcx
	mov	ecx, -564980344
	jmp	.LBB13_203
.LBB13_212:                             
	movzx	eax, byte ptr [rsp + 6]
	movzx	ecx, byte ptr [rsp + 7]
	mov	edx, eax
	xor	dl, cl
	test	cl, cl
	mov	ecx, 1988151136
	mov	ebp, 1762584481
	cmovne	ecx, ebp
	test	al, al
	mov	eax, 1988151136
	cmove	ecx, eax
	test	dl, dl
	cmovne	ecx, ebp
	.p2align	4, 0x90
.LBB13_203:                             


	cmp	ecx, 1988151135
	jle	.LBB13_204

	cmp	ecx, 1988151136
	je	.LBB13_213

	cmp	ecx, 2111902940
	jne	.LBB13_203
	jmp	.LBB13_211
	.p2align	4, 0x90
.LBB13_204:                             
	cmp	ecx, -564980344
	je	.LBB13_212

	cmp	ecx, 1762584481
	jne	.LBB13_203

	mov	qword ptr [rsp + 32], rdi
	mov	ecx, esi
	jmp	.LBB13_203
.LBB13_213:                             
	mov	ecx, 1762584481
	jmp	.LBB13_203
.LBB13_214:                             
	mov	r8, qword ptr [rsp + 16]
	mov	eax, dword ptr [r8]
	mov	r10d, dword ptr [r8 + 4]
	mov	ecx, r10d
	shr	ecx
	mov	edx, ecx
	not	edx
	and	edx, 502839540
	and	ecx, 1644644107
	or	ecx, edx
	mov	edx, eax
	not	edx
	mov	esi, edx
	and	esi, 502839540
	mov	r13d, eax
	and	r13d, -502839541
	or	r13d, esi
	xor	r13d, ecx
	mov	ecx, r13d
	not	ecx
	or	ecx, -1431655766
	and	r13d, 1431655765
	lea	esi, [r13 + r13]
	mov	edi, esi
	not	edi
	and	edi, r10d
	not	r10d
	and	r10d, esi
	or	r10d, edi
	and	ecx, eax
	and	r13d, edx
	or	r13d, ecx
	mov	r15d, dword ptr [r8 + 12]
	mov	esi, r15d
	shr	esi
	mov	eax, dword ptr [r8 + 8]
	mov	edi, esi
	not	edi
	and	edi, eax
	mov	edx, eax
	not	edx
	and	esi, edx
	or	esi, edi
	mov	r11d, esi
	xor	r11d, -1431655766
	and	r11d, esi
	lea	esi, [r11 + r11]
	mov	edi, esi
	not	edi
	and	edi, -463922714
	and	esi, 463922712
	or	esi, edi
	mov	edi, r15d
	not	edi
	and	edi, -463922714
	and	r15d, 463922713
	or	r15d, edi
	xor	r15d, esi
	mov	esi, r11d
	not	esi
	and	esi, eax
	and	r11d, edx
	or	r11d, esi
	mov	r9d, dword ptr [r8 + 20]
	mov	edx, r9d
	shr	edx
	mov	eax, dword ptr [r8 + 16]
	mov	edi, edx
	not	edi
	and	edi, eax
	mov	esi, eax
	not	esi
	and	edx, esi
	or	edx, edi
	mov	edi, edx
	not	edi
	or	edi, -1431655766
	and	edx, 1431655765
	lea	ecx, [rdx + rdx]
	mov	ebx, ecx
	not	ebx
	and	ebx, 1740873676
	and	ecx, -2010636254
	or	ecx, ebx
	mov	ebx, r9d
	not	ebx
	and	ebx, 1740873676
	and	r9d, -1740873677
	or	r9d, ebx
	xor	r9d, ecx
	and	edi, eax
	and	edx, esi
	or	edx, edi
	mov	r12d, dword ptr [r8 + 28]
	mov	edi, r12d
	shr	edi
	mov	esi, dword ptr [r8 + 24]
	mov	ecx, edi
	not	ecx
	and	ecx, esi
	mov	ebx, esi
	not	ebx
	and	edi, ebx
	or	edi, ecx
	mov	ecx, edi
	not	ecx
	or	ecx, -1968535542
	mov	eax, edi
	and	eax, 1431655765
	add	eax, eax
	mov	ebp, eax
	not	ebp
	and	ebp, -1944425507
	and	eax, 580943906
	or	eax, ebp
	mov	ebp, r12d
	not	ebp
	and	ebp, -1944425507
	and	r12d, 1944425506
	or	r12d, ebp
	xor	r12d, eax
	and	ecx, -805647093
	and	edi, 268767316
	or	edi, ecx
	and	ebx, -805647093
	and	esi, 805647092
	or	esi, ebx
	xor	esi, edi
	mov	ecx, r11d
	shr	ecx, 2
	mov	edi, ecx
	not	edi
	and	edi, r13d
	mov	eax, r13d
	not	eax
	and	ecx, eax
	or	ecx, edi
	mov	ebx, ecx
	xor	ebx, -858993460
	and	ebx, ecx
	lea	ecx, [4*rbx]
	mov	edi, ecx
	not	edi
	and	edi, r11d
	not	r11d
	and	r11d, ecx
	or	r11d, edi
	mov	ecx, ebx
	not	ecx
	and	ecx, 450646303
	and	ebx, -450646304
	or	ebx, ecx
	and	eax, 450646303
	and	r13d, -450646304
	or	r13d, eax
	xor	r13d, ebx
	mov	eax, r15d
	shr	eax, 2
	mov	ecx, eax
	not	ecx
	and	ecx, r10d
	mov	ebx, r10d
	not	ebx
	and	eax, ebx
	or	eax, ecx
	mov	ecx, eax
	not	ecx
	or	ecx, 214223944
	mov	edi, eax
	and	edi, 858993459
	shl	edi, 2
	mov	ebp, edi
	not	ebp
	and	ebp, -1746362981
	and	edi, 1208238148
	or	edi, ebp
	mov	ebp, r15d
	not	ebp
	and	ebp, -1746362981
	and	r15d, 1746362980
	or	r15d, ebp
	xor	r15d, edi
	and	ecx, 754241384
	and	eax, 318976019
	or	eax, ecx
	and	ebx, 754241384
	and	r10d, -754241385
	or	r10d, ebx
	xor	r10d, eax
	mov	ecx, esi
	shr	ecx, 2
	mov	eax, ecx
	not	eax
	and	eax, 770847683
	and	ecx, 302894140
	or	ecx, eax
	mov	ebx, edx
	not	ebx
	mov	edi, ebx
	and	edi, 770847683
	mov	eax, edx
	and	eax, -770847684
	or	eax, edi
	xor	eax, ecx
	mov	ecx, eax
	not	ecx
	or	ecx, -858993460
	and	eax, 858993459
	lea	edi, [4*rax]
	mov	ebp, edi
	not	ebp
	and	ebp, -212239338
	and	edi, 210010312
	or	edi, ebp
	mov	ebp, esi
	not	ebp
	and	ebp, -212239338
	and	esi, 212239337
	or	esi, ebp
	xor	esi, edi
	and	ecx, edx
	and	eax, ebx
	or	eax, ecx
	mov	ecx, r12d
	shr	ecx, 2
	mov	edx, ecx
	not	edx
	and	edx, -764320201
	and	ecx, 764320200
	or	ecx, edx
	mov	ebx, r9d
	not	ebx
	mov	edi, ebx
	and	edi, -764320201
	mov	edx, r9d
	and	edx, 764320200
	or	edx, edi
	xor	edx, ecx
	mov	ecx, edx
	not	ecx
	or	ecx, -858993460
	and	edx, 858993459
	lea	edi, [4*rdx]
	mov	ebp, edi
	not	ebp
	and	ebp, 343430355
	and	edi, -930838516
	or	edi, ebp
	mov	ebp, r12d
	not	ebp
	and	ebp, 343430355
	and	r12d, -343430356
	or	r12d, ebp
	xor	r12d, edi
	and	ecx, r9d
	and	edx, ebx
	or	edx, ecx
	mov	ecx, eax
	shr	ecx, 4
	mov	edi, ecx
	not	edi
	and	edi, r13d
	mov	r9d, r13d
	not	r9d
	and	ecx, r9d
	or	ecx, edi
	mov	ebx, ecx
	xor	ebx, -252645136
	and	ebx, ecx
	mov	ecx, ebx
	shl	ecx, 4
	mov	edi, ecx
	not	edi
	and	edi, 2116733603
	and	ecx, -2116733616
	or	ecx, edi
	mov	edi, eax
	not	edi
	and	edi, 2116733603
	and	eax, -2116733604
	or	eax, edi
	xor	eax, ecx
	mov	dword ptr [r8 + 16], eax
	mov	eax, ebx
	not	eax
	and	eax, r13d
	and	ebx, r9d
	or	ebx, eax
	mov	dword ptr [r8], ebx
	mov	ecx, edx
	shr	ecx, 4
	mov	eax, ecx
	not	eax
	and	eax, -2070151383
	and	ecx, 191103190
	or	ecx, eax
	mov	eax, r10d
	not	eax
	mov	edi, eax
	and	edi, -2070151383
	mov	ebx, r10d
	and	ebx, 2070151382
	or	ebx, edi
	xor	ebx, ecx
	mov	ebp, ebx
	xor	ebp, -252645136
	and	ebp, ebx
	mov	ecx, ebp
	shl	ecx, 4
	mov	edi, ecx
	not	edi
	and	edi, -2153938
	and	ecx, 2153936
	or	ecx, edi
	mov	edi, edx
	not	edi
	and	edi, -2153938
	and	edx, 2153937
	or	edx, edi
	xor	edx, ecx
	mov	dword ptr [r8 + 20], edx
	mov	ecx, ebp
	not	ecx
	and	ecx, r10d
	and	ebp, eax
	or	ebp, ecx
	mov	dword ptr [r8 + 4], ebp
	mov	ecx, esi
	shr	ecx, 4
	mov	eax, ecx
	not	eax
	and	eax, -1574956537
	and	ecx, 232779256
	or	ecx, eax
	mov	eax, r11d
	not	eax
	mov	edx, eax
	and	edx, -1574956537
	mov	edi, r11d
	and	edi, 1574956536
	or	edi, edx
	xor	edi, ecx
	mov	edx, edi
	xor	edx, -252645136
	and	edx, edi
	mov	ecx, edx
	shl	ecx, 4
	mov	edi, ecx
	not	edi
	and	edi, -251935574
	and	ecx, 251935568
	or	ecx, edi
	mov	edi, esi
	not	edi
	and	edi, -251935574
	and	esi, 251935573
	or	esi, edi
	xor	esi, ecx
	mov	dword ptr [r8 + 24], esi
	mov	ecx, edx
	not	ecx
	and	ecx, r11d
	and	edx, eax
	or	edx, ecx
	mov	dword ptr [r8 + 8], edx
	mov	ecx, r12d
	shr	ecx, 4
	mov	eax, ecx
	not	eax
	and	eax, -1637128859
	and	ecx, 26516122
	or	ecx, eax
	mov	eax, r15d
	not	eax
	mov	esi, eax
	and	esi, -1637128859
	mov	edx, r15d
	and	edx, 1637128858
	or	edx, esi
	xor	edx, ecx
	mov	ecx, edx
	not	ecx
	or	ecx, -798986000
	mov	esi, edx
	and	esi, 252645135
	shl	esi, 4
	mov	edi, esi
	not	edi
	and	edi, 294195249
	and	esi, -529473344
	or	esi, edi
	mov	edi, r12d
	not	edi
	and	edi, 294195249
	and	r12d, -294195250
	or	r12d, edi
	xor	r12d, esi
	mov	dword ptr [r8 + 28], r12d
	and	ecx, -597591818
	and	edx, 51250953
	or	edx, ecx
	and	eax, -597591818
	and	r15d, 597591817
	or	r15d, eax
	xor	r15d, edx
	mov	dword ptr [r8 + 12], r15d
	mov	eax, 782166103
	jmp	.LBB13_1
	.p2align	4, 0x90
.LBB13_150:                             
	mov	rax, qword ptr [rsp + 32]
	mov	rcx, rax
	shr	rcx, 32
	mov	dword ptr [r10 + 4*r8], ecx
	mov	dword ptr [r10 + 4*r9], eax
	mov	rax, qword ptr [rsp + 8]
	movabs	rcx, -2535113995227144976
	mov	rdx, rcx
	lea	rcx, [rax + rdx + 2]
	sub	rcx, rdx
.LBB13_129:                             




	mov	edx, 2081299199
	jmp	.LBB13_130
.LBB13_133:                             
	mov	qword ptr [rsp + 8], rcx
	mov	rdx, qword ptr [rsp + 8]
	cmp	rdx, 8
	mov	edx, 1433127781
	mov	eax, 2128240561
	cmove	edx, eax
	.p2align	4, 0x90
.LBB13_130:                             


	mov	esi, edx
	and	esi, 1073741823
	cmp	esi, 359385957
	je	.LBB13_134

	cmp	esi, 1054498737
	je	.LBB13_153

	cmp	esi, 1007557375
	jne	.LBB13_130
	jmp	.LBB13_133
	.p2align	4, 0x90
.LBB13_134:                             
	mov	r8, qword ptr [rsp + 8]
	mov	ecx, dword ptr [r10 + 4*r8]
	shl	rcx, 32
	mov	rdx, qword ptr [rsp + 8]
	movabs	rax, -1149236836255675629
	sub	rdx, rax
	lea	r9, [rdx + rax + 1]
	mov	edi, dword ptr [r10 + 4*r9]
	mov	rbp, rcx
	not	rbp
	movabs	rax, -5010963857020188833
	mov	rsi, rax
	not	rsi
	and	rcx, rsi
	and	rsi, rdi
	not	rdi
	and	rbp, rax
	or	rcx, rbp
	and	rdi, rax
	or	rsi, rdi
	xor	rsi, rcx
	mov	ecx, dword ptr [rip + x.152]
	mov	r11d, dword ptr [rip + y.153]
	mov	edi, ecx
	neg	edi
	not	edi
	imul	edi, ecx
	mov	ebp, edi
	not	ebp
	or	ebp, -2
	and	edi, 1
	mov	rcx, rsi
	shr	rcx
	mov	rbx, rcx
	not	rbx
	and	rbx, rsi
	mov	rax, rsi
	not	rax
	and	rcx, rax
	or	rcx, rbx
	not	rcx
	movabs	rbx, 23925738098196565
	not	rbx
	or	rbx, rcx
	and	rsi, rbx
	not	rbx
	and	rax, rbx
	or	rax, rsi
	add	rbx, rbx
	mov	rcx, rax
	not	rcx
	and	rcx, rbx
	not	rbx
	and	rbx, rax
	or	rbx, rcx
	cmp	ebp, -1
	sete	al
	sete	byte ptr [rsp + 6]
	mov	r15d, 1988151136
	mov	edx, 2111902940
	cmove	r15d, edx
	cmp	r11d, 10
	setl	cl
	setl	byte ptr [rsp + 7]
	mov	ebp, 1988151136
	cmovge	r15d, ebp
	xor	cl, al
	cmovne	r15d, edx
	mov	ebp, -564980344
	jmp	.LBB13_135
.LBB13_146:                             
	movzx	edx, byte ptr [rsp + 6]
	movzx	ecx, byte ptr [rsp + 7]
	mov	eax, edx
	xor	al, cl
	mov	eax, 1988151136
	mov	esi, 1762584481
	cmovne	eax, esi
	test	cl, cl
	mov	ebp, eax
	cmovne	ebp, esi
	test	dl, dl
	cmove	ebp, eax
	.p2align	4, 0x90
.LBB13_135:                             


	cmp	ebp, 1988151135
	jle	.LBB13_136

	cmp	ebp, 1988151136
	je	.LBB13_147

	cmp	ebp, 2111902940
	jne	.LBB13_135
	jmp	.LBB13_141
	.p2align	4, 0x90
.LBB13_136:                             
	cmp	ebp, -564980344
	je	.LBB13_146

	cmp	ebp, 1762584481
	jne	.LBB13_135

	mov	qword ptr [rsp + 32], rbx
	mov	ebp, r15d
	jmp	.LBB13_135
.LBB13_147:                             
	mov	ebp, 1762584481
	jmp	.LBB13_135
	.p2align	4, 0x90
.LBB13_141:                             
	test	edi, edi
	mov	rbx, qword ptr [rsp + 32]
	sete	byte ptr [rsp + 6]
	cmp	r11d, 10
	setl	byte ptr [rsp + 7]
	mov	rcx, rbx
	shr	rcx, 2
	mov	rdx, rcx
	not	rdx
	and	rdx, rbx
	mov	rax, rbx
	not	rax
	and	rcx, rax
	or	rcx, rdx
	mov	rdi, rcx
	movabs	rdx, 9626297317864209
	xor	rdi, rdx
	not	rdi
	and	rdi, rcx
	mov	rcx, rdi
	not	rcx
	and	rcx, rbx
	and	rax, rdi
	or	rax, rcx
	shl	rdi, 2
	mov	rcx, rax
	not	rcx
	and	rcx, rdi
	not	rdi
	and	rdi, rax
	or	rdi, rcx
	mov	ecx, -564980344
	jmp	.LBB13_142
.LBB13_151:                             
	movzx	eax, byte ptr [rsp + 6]
	movzx	ecx, byte ptr [rsp + 7]
	mov	edx, eax
	xor	dl, cl
	test	cl, cl
	mov	ecx, 1988151136
	mov	esi, 1762584481
	cmovne	ecx, esi
	test	al, al
	mov	eax, 1988151136
	cmove	ecx, eax
	test	dl, dl
	cmovne	ecx, esi
	.p2align	4, 0x90
.LBB13_142:                             


	cmp	ecx, 1988151135
	jle	.LBB13_143

	cmp	ecx, 1988151136
	je	.LBB13_152

	cmp	ecx, 2111902940
	jne	.LBB13_142
	jmp	.LBB13_150
	.p2align	4, 0x90
.LBB13_143:                             
	cmp	ecx, -564980344
	je	.LBB13_151

	cmp	ecx, 1762584481
	jne	.LBB13_142

	mov	qword ptr [rsp + 32], rdi
	mov	ecx, r15d
	jmp	.LBB13_142
.LBB13_152:                             
	mov	ecx, 1762584481
	jmp	.LBB13_142
.LBB13_153:                             
	mov	r8, qword ptr [rsp + 16]
	mov	r15d, dword ptr [r8]
	mov	r10d, dword ptr [r8 + 4]
	mov	ecx, r10d
	shr	ecx
	mov	esi, ecx
	not	esi
	and	esi, r15d
	mov	edx, r15d
	not	edx
	and	ecx, edx
	or	ecx, esi
	mov	esi, ecx
	not	esi
	or	esi, 715164170
	mov	edi, ecx
	and	edi, 1431655765
	add	edi, edi
	mov	ebp, edi
	not	ebp
	and	ebp, r10d
	not	r10d
	and	r10d, edi
	or	r10d, ebp
	and	esi, 2062600734
	and	ecx, 84219201
	or	ecx, esi
	and	edx, 2062600734
	and	r15d, -2062600735
	or	r15d, edx
	xor	r15d, ecx
	mov	r11d, dword ptr [r8 + 12]
	mov	ecx, r11d
	shr	ecx
	mov	edx, dword ptr [r8 + 8]
	mov	esi, ecx
	not	esi
	and	esi, edx
	mov	edi, edx
	not	edi
	and	ecx, edi
	or	ecx, esi
	mov	r12d, ecx
	xor	r12d, -1431655766
	and	r12d, ecx
	lea	ebp, [r12 + r12]
	mov	ecx, ebp
	not	ecx
	and	ecx, r11d
	not	r11d
	and	r11d, ebp
	or	r11d, ecx
	mov	ecx, r12d
	not	ecx
	and	ecx, edx
	and	r12d, edi
	or	r12d, ecx
	mov	r9d, dword ptr [r8 + 20]
	mov	ebx, r9d
	shr	ebx
	mov	ecx, dword ptr [r8 + 16]
	mov	edi, ebx
	not	edi
	and	edi, ecx
	mov	edx, ecx
	not	edx
	and	ebx, edx
	or	ebx, edi
	mov	edi, ebx
	not	edi
	or	edi, -1431655766
	and	ebx, 1431655765
	lea	eax, [rbx + rbx]
	mov	ebp, eax
	not	ebp
	and	ebp, 564083553
	and	eax, -1977581430
	or	eax, ebp
	mov	ebp, r9d
	not	ebp
	and	ebp, 564083553
	and	r9d, -564083554
	or	r9d, ebp
	xor	r9d, eax
	and	edi, ecx
	and	ebx, edx
	or	ebx, edi
	mov	r13d, dword ptr [r8 + 28]
	mov	eax, r13d
	shr	eax
	mov	esi, dword ptr [r8 + 24]
	mov	edx, eax
	not	edx
	and	edx, -763122247
	and	eax, 763122246
	or	eax, edx
	mov	ecx, esi
	not	ecx
	mov	edx, ecx
	and	edx, -763122247
	mov	ebp, esi
	and	ebp, 763122246
	or	ebp, edx
	xor	ebp, eax
	mov	eax, ebp
	not	eax
	or	eax, 170567816
	mov	edx, ebp
	and	edx, 1431655765
	add	edx, edx
	mov	edi, edx
	not	edi
	and	edi, -1180379403
	and	edx, 34220042
	or	edx, edi
	mov	edi, r13d
	not	edi
	and	edi, -1180379403
	and	r13d, 1180379402
	or	r13d, edi
	xor	r13d, edx
	and	eax, 443476189
	and	ebp, 1158747392
	or	ebp, eax
	and	ecx, 443476189
	and	esi, -443476190
	or	esi, ecx
	xor	esi, ebp
	mov	eax, r12d
	shr	eax, 2
	mov	ecx, eax
	not	ecx
	and	ecx, 1483343081
	and	eax, 664140566
	or	eax, ecx
	mov	ebp, r15d
	not	ebp
	mov	ecx, ebp
	and	ecx, 1483343081
	mov	edi, r15d
	and	edi, -1483343082
	or	edi, ecx
	xor	edi, eax
	mov	edx, edi
	xor	edx, -858993460
	and	edx, edi
	lea	eax, [4*rdx]
	mov	ecx, eax
	not	ecx
	and	ecx, 283612946
	and	eax, -283612948
	or	eax, ecx
	mov	ecx, r12d
	not	ecx
	and	ecx, 283612946
	and	r12d, -283612947
	or	r12d, ecx
	xor	r12d, eax
	mov	eax, edx
	not	eax
	and	eax, r15d
	and	edx, ebp
	or	edx, eax
	mov	ecx, r11d
	shr	ecx, 2
	mov	edi, ecx
	not	edi
	and	edi, r10d
	mov	eax, r10d
	not	eax
	and	ecx, eax
	or	ecx, edi
	mov	ebp, ecx
	xor	ebp, -858993460
	and	ebp, ecx
	lea	ecx, [4*rbp]
	mov	edi, ecx
	not	edi
	and	edi, r11d
	not	r11d
	and	r11d, ecx
	or	r11d, edi
	mov	ecx, ebp
	not	ecx
	and	ecx, 553136730
	and	ebp, -553136731
	or	ebp, ecx
	and	eax, 553136730
	and	r10d, -553136731
	or	r10d, eax
	xor	r10d, ebp
	mov	ecx, esi
	shr	ecx, 2
	mov	eax, ecx
	not	eax
	and	eax, 1259830812
	and	ecx, 887652835
	or	ecx, eax
	mov	r15d, ebx
	not	r15d
	mov	edi, r15d
	and	edi, 1259830812
	mov	ebp, ebx
	and	ebp, -1259830813
	or	ebp, edi
	xor	ebp, ecx
	mov	ecx, ebp
	not	ecx
	or	ecx, 213909644
	mov	edi, ebp
	and	edi, 858993459
	shl	edi, 2
	mov	eax, edi
	not	eax
	and	eax, esi
	not	esi
	and	esi, edi
	or	esi, eax
	and	ecx, 1037115788
	and	ebp, 35787315
	or	ebp, ecx
	and	r15d, 1037115788
	and	ebx, -1037115789
	or	ebx, r15d
	xor	ebx, ebp
	mov	ecx, r13d
	shr	ecx, 2
	mov	eax, ecx
	not	eax
	and	eax, -356116495
	and	ecx, 356116494
	or	ecx, eax
	mov	r15d, r9d
	not	r15d
	mov	ebp, r15d
	and	ebp, -356116495
	mov	eax, r9d
	and	eax, 356116494
	or	eax, ebp
	xor	eax, ecx
	mov	ecx, eax
	not	ecx
	or	ecx, -858993460
	and	eax, 858993459
	lea	edi, [4*rax]
	mov	ebp, edi
	not	ebp
	and	ebp, r13d
	not	r13d
	and	r13d, edi
	or	r13d, ebp
	and	ecx, r9d
	and	eax, r15d
	or	eax, ecx
	mov	ecx, ebx
	shr	ecx, 4
	mov	edi, ecx
	not	edi
	and	edi, edx
	mov	r9d, edx
	not	r9d
	and	ecx, r9d
	or	ecx, edi
	mov	ebp, ecx
	xor	ebp, -252645136
	and	ebp, ecx
	mov	ecx, ebp
	shl	ecx, 4
	mov	edi, ecx
	not	edi
	and	edi, 65258400
	and	ecx, -65258416
	or	ecx, edi
	mov	edi, ebx
	not	edi
	and	edi, 65258400
	and	ebx, -65258401
	or	ebx, edi
	xor	ebx, ecx
	mov	dword ptr [r8 + 16], ebx
	mov	ecx, ebp
	not	ecx
	and	ecx, edx
	and	ebp, r9d
	or	ebp, ecx
	mov	dword ptr [r8], ebp
	mov	ecx, eax
	shr	ecx, 4
	mov	edi, ecx
	not	edi
	and	edi, r10d
	mov	edx, r10d
	not	edx
	and	ecx, edx
	or	ecx, edi
	mov	ebp, ecx
	xor	ebp, -252645136
	and	ebp, ecx
	mov	ecx, ebp
	shl	ecx, 4
	mov	edi, ecx
	not	edi
	and	edi, 1386810754
	and	ecx, -1386810768
	or	ecx, edi
	mov	edi, eax
	not	edi
	and	edi, 1386810754
	and	eax, -1386810755
	or	eax, edi
	xor	eax, ecx
	mov	dword ptr [r8 + 20], eax
	mov	eax, ebp
	not	eax
	and	eax, r10d
	and	ebp, edx
	or	ebp, eax
	mov	dword ptr [r8 + 4], ebp
	mov	eax, esi
	shr	eax, 4
	mov	ecx, eax
	not	ecx
	and	ecx, r12d
	mov	edx, r12d
	not	edx
	and	eax, edx
	or	eax, ecx
	mov	ecx, eax
	not	ecx
	or	ecx, -2143272816
	mov	edi, eax
	and	edi, 252645135
	shl	edi, 4
	mov	ebp, edi
	not	ebp
	and	ebp, -1035518045
	and	edi, 816889936
	or	edi, ebp
	mov	ebp, esi
	not	ebp
	and	ebp, -1035518045
	and	esi, 1035518044
	or	esi, ebp
	xor	esi, edi
	mov	dword ptr [r8 + 24], esi
	and	ecx, -1907603049
	and	eax, 16975368
	or	eax, ecx
	and	edx, -1907603049
	and	r12d, 1907603048
	or	r12d, edx
	xor	r12d, eax
	mov	dword ptr [r8 + 8], r12d
	mov	ecx, r13d
	shr	ecx, 4
	mov	eax, ecx
	not	eax
	and	eax, 1252362665
	and	ecx, 89814614
	or	ecx, eax
	mov	eax, r11d
	not	eax
	mov	edx, eax
	and	edx, 1252362665
	mov	esi, r11d
	and	esi, -1252362666
	or	esi, edx
	xor	esi, ecx
	mov	ecx, esi
	xor	ecx, -252645136
	and	ecx, esi
	mov	edx, ecx
	shl	edx, 4
	mov	esi, edx
	not	esi
	and	esi, r13d
	not	r13d
	and	r13d, edx
	or	r13d, esi
	mov	dword ptr [r8 + 28], r13d
	mov	edx, ecx
	not	edx
	and	edx, 1905295087
	and	ecx, -1905295088
	or	ecx, edx
	and	eax, 1905295087
	and	r11d, -1905295088
	or	r11d, eax
	xor	r11d, ecx
	mov	dword ptr [r8 + 12], r11d
	mov	eax, dword ptr [rip + x.38]
	mov	ecx, dword ptr [rip + y.39]
	lea	edx, [rax - 1]
	imul	edx, eax
	not	edx
	or	edx, -2
	cmp	edx, -1
	sete	al
	cmp	ecx, 10
	setl	bl
	xor	bl, al
	mov	esi, 1101941747
	mov	edi, 1676406376
.LBB13_156:                             
	cmovne	esi, edi
	cmp	edx, -1
	mov	eax, esi
	cmove	eax, edi
	cmp	ecx, 10
	cmovge	eax, esi
	jmp	.LBB13_1
	.p2align	4, 0x90
.LBB13_237:                             
	mov	rax, qword ptr [rsp + 32]
	mov	rcx, rax
	shr	rcx, 32
	mov	dword ptr [r9 + 4*r8], ecx
	mov	dword ptr [r9 + 4*r10], eax
	mov	rax, qword ptr [rsp + 8]
	movabs	rcx, 1024952277476525620
	lea	rax, [rax + rcx + 2]
	sub	rax, rcx
.LBB13_216:                             




	mov	ecx, 2081299199
	jmp	.LBB13_217
.LBB13_220:                             
	mov	qword ptr [rsp + 8], rax
	mov	rcx, qword ptr [rsp + 8]
	cmp	rcx, 8
	mov	ecx, 1433127781
	mov	edx, 2128240561
	cmove	ecx, edx
	.p2align	4, 0x90
.LBB13_217:                             


	mov	edx, ecx
	and	edx, 1073741823
	cmp	edx, 359385957
	je	.LBB13_221

	cmp	edx, 1054498737
	je	.LBB13_240

	cmp	edx, 1007557375
	jne	.LBB13_217
	jmp	.LBB13_220
	.p2align	4, 0x90
.LBB13_221:                             
	mov	r8, qword ptr [rsp + 8]
	mov	eax, dword ptr [r9 + 4*r8]
	shl	rax, 32
	mov	rcx, qword ptr [rsp + 8]
	movabs	rdx, -5097209375918916093
	lea	r10, [rcx + rdx + 1]
	sub	r10, rdx
	mov	edx, dword ptr [r9 + 4*r10]
	mov	rsi, rax
	not	rsi
	movabs	rcx, -818706864581924879
	mov	rdi, rcx
	not	rcx
	and	rax, rcx
	and	rcx, rdx
	not	rdx
	and	rsi, rdi
	or	rax, rsi
	and	rdx, rdi
	or	rcx, rdx
	xor	rcx, rax
	mov	eax, dword ptr [rip + x.152]
	mov	edi, eax
	neg	edi
	not	edi
	imul	edi, eax
	mov	r15d, edi
	xor	r15d, -2
	mov	r12d, r15d
	and	r12d, edi
	sete	r11b
	sete	byte ptr [rsp + 6]
	mov	rax, rcx
	shr	rax
	mov	rdx, rax
	not	rdx
	movabs	rsi, -5706381585432500007
	and	rdx, rsi
	mov	rbx, rsi
	not	rbx
	and	rax, rbx
	or	rax, rdx
	mov	rbp, rcx
	not	rbp
	mov	rdx, rbp
	and	rdx, rsi
	and	rbx, rcx
	or	rbx, rdx
	xor	rbx, rax
	mov	rax, rbx
	movabs	rdx, 23925738098196565
	xor	rax, rdx
	not	rax
	and	rax, rbx
	mov	rbx, rax
	not	rbx
	movabs	rdx, -6780640901497817801
	mov	r13, rdx
	and	rbx, r13
	not	rdx
	mov	rsi, rax
	and	rsi, rdx
	or	rsi, rbx
	and	rdx, rcx
	and	rbp, r13
	or	rdx, rbp
	xor	rdx, rsi
	mov	rsi, rdx
	not	rsi
	movabs	rcx, 8406293093801417963
	mov	rbx, rcx
	and	rsi, rbx
	not	rcx
	and	rdx, rcx
	or	rdx, rsi
	add	rax, rax
	and	rcx, rax
	not	rax
	and	rax, rbx
	or	rcx, rax
	xor	rcx, rdx
	mov	r13d, dword ptr [rip + y.153]
	test	r12d, r12d
	mov	esi, 1988151136
	mov	eax, 2111902940
	cmove	esi, eax
	cmp	r13d, 10
	setl	dl
	setl	byte ptr [rsp + 7]
	mov	ebx, 1988151136
	cmovge	esi, ebx
	xor	dl, r11b
	cmovne	esi, eax
	mov	ebx, -564980344
	jmp	.LBB13_222
.LBB13_233:                             
	movzx	eax, byte ptr [rsp + 6]
	movzx	ebx, byte ptr [rsp + 7]
	mov	edx, eax
	xor	dl, bl
	mov	edx, 1988151136
	mov	ebp, 1762584481
	cmovne	edx, ebp
	test	bl, bl
	mov	ebx, edx
	cmovne	ebx, ebp
	test	al, al
	cmove	ebx, edx
	.p2align	4, 0x90
.LBB13_222:                             


	cmp	ebx, 1988151135
	jle	.LBB13_223

	cmp	ebx, 1988151136
	je	.LBB13_234

	cmp	ebx, 2111902940
	jne	.LBB13_222
	jmp	.LBB13_228
	.p2align	4, 0x90
.LBB13_223:                             
	cmp	ebx, -564980344
	je	.LBB13_233

	cmp	ebx, 1762584481
	jne	.LBB13_222

	mov	qword ptr [rsp + 32], rcx
	mov	ebx, esi
	jmp	.LBB13_222
.LBB13_234:                             
	mov	ebx, 1762584481
	jmp	.LBB13_222
	.p2align	4, 0x90
.LBB13_228:                             
	test	r15d, edi
	mov	rax, qword ptr [rsp + 32]
	sete	byte ptr [rsp + 6]
	cmp	r13d, 10
	setl	byte ptr [rsp + 7]
	mov	rdx, rax
	shr	rdx, 2
	mov	rdi, rdx
	not	rdi
	and	rdi, rax
	mov	rcx, rax
	not	rcx
	and	rdx, rcx
	or	rdx, rdi
	not	rdx
	movabs	rdi, 9626297317864209
	not	rdi
	or	rdi, rdx
	and	rax, rdi
	not	rdi
	and	rcx, rdi
	or	rcx, rax
	shl	rdi, 2
	mov	rdx, rcx
	not	rdx
	movabs	rax, 2671954471096963785
	mov	rbp, rax
	and	rdx, rbp
	not	rax
	and	rcx, rax
	or	rcx, rdx
	and	rax, rdi
	not	rdi
	and	rdi, rbp
	or	rax, rdi
	xor	rax, rcx
	mov	ecx, -564980344
	jmp	.LBB13_229
.LBB13_238:                             
	movzx	ebx, byte ptr [rsp + 6]
	movzx	ecx, byte ptr [rsp + 7]
	mov	edx, ebx
	xor	dl, cl
	mov	edx, 1988151136
	mov	edi, 1762584481
	cmovne	edx, edi
	test	cl, cl
	mov	ecx, edx
	cmovne	ecx, edi
	test	bl, bl
	cmove	ecx, edx
	.p2align	4, 0x90
.LBB13_229:                             


	cmp	ecx, 1988151135
	jle	.LBB13_230

	cmp	ecx, 1988151136
	je	.LBB13_239

	cmp	ecx, 2111902940
	jne	.LBB13_229
	jmp	.LBB13_237
	.p2align	4, 0x90
.LBB13_230:                             
	cmp	ecx, -564980344
	je	.LBB13_238

	cmp	ecx, 1762584481
	jne	.LBB13_229

	mov	qword ptr [rsp + 32], rax
	mov	ecx, esi
	jmp	.LBB13_229
.LBB13_239:                             
	mov	ecx, 1762584481
	jmp	.LBB13_229
.LBB13_240:                             
	mov	rdi, qword ptr [rsp + 16]
	call	_ZN5Botan12_GLOBAL__N_115inv_mix_columnsEPj
	mov	eax, 1064907566
	jmp	.LBB13_1
.LBB13_19:                              
	cmp	eax, -1409223852
	jne	.LBB13_1

	mov	edi, .L.str.6
	mov	esi, .L.str.4
	mov	edx, .L__func__._ZN5Botan12_GLOBAL__N_113aes_decrypt_nEPKhPhmRKSt6vectorIjNS_16secure_allocatorIjEEE
	mov	ecx, .L.str.5
	mov	r8d, 582
	call	_ZN5Botan17assertion_failureEPKcS1_S1_S1_i
.LBB13_186:
	add	rsp, 744
	pop	rbx
	pop	r12
	pop	r13
	pop	r14
	pop	r15
	pop	rbp
	ret
.Lfunc_end13:
	.size	_ZN5Botan12_GLOBAL__N_113aes_decrypt_nEPKhPhmRKSt6vectorIjNS_16secure_allocatorIjEEE, .Lfunc_end13-_ZN5Botan12_GLOBAL__N_113aes_decrypt_nEPKhPhmRKSt6vectorIjNS_16secure_allocatorIjEEE
	.cfi_endproc

	.globl	_ZN5Botan7AES_12812key_scheduleEPKhm 
	.p2align	4, 0x90
	.type	_ZN5Botan7AES_12812key_scheduleEPKhm,@function
_ZN5Botan7AES_12812key_scheduleEPKhm:   
	.cfi_startproc

	push	rbp
.Lcfi116:
	.cfi_def_cfa_offset 16
	push	r15
.Lcfi117:
	.cfi_def_cfa_offset 24
	push	r14
.Lcfi118:
	.cfi_def_cfa_offset 32
	push	r13
.Lcfi119:
	.cfi_def_cfa_offset 40
	push	r12
.Lcfi120:
	.cfi_def_cfa_offset 48
	push	rbx
.Lcfi121:
	.cfi_def_cfa_offset 56
	push	rax
.Lcfi122:
	.cfi_def_cfa_offset 64
.Lcfi123:
	.cfi_offset rbx, -56
.Lcfi124:
	.cfi_offset r12, -48
.Lcfi125:
	.cfi_offset r13, -40
.Lcfi126:
	.cfi_offset r14, -32
.Lcfi127:
	.cfi_offset r15, -24
.Lcfi128:
	.cfi_offset rbp, -16
	mov	r14, rdx
	mov	rbp, rsi
	mov	r15, rdi
	lea	r12, [r15 + 8]
	lea	r13, [r15 + 32]
	mov	eax, -1930673097
	jmp	.LBB14_1
.LBB14_30:                              
	mov	r8d, 1
	mov	rdi, rbp
	mov	rsi, r14
	mov	rdx, r12
	mov	rcx, r13
	call	_ZN5Botan12_GLOBAL__N_116aes_key_scheduleEPKhmRSt6vectorIjNS_16secure_allocatorIjEEES7_b
	mov	eax, -1330854698
	.p2align	4, 0x90
.LBB14_1:                               
	cmp	eax, -199897240
	jg	.LBB14_17

	cmp	eax, -1747403763
	jle	.LBB14_3

	cmp	eax, -580597883
	jg	.LBB14_14

	cmp	eax, -1747403762
	je	.LBB14_36

	cmp	eax, -1330854698
	jne	.LBB14_1

	mov	r8d, 1
	mov	rdi, rbp
	mov	rsi, r14
	mov	rdx, r12
	mov	rcx, r13
	call	_ZN5Botan12_GLOBAL__N_116aes_key_scheduleEPKhmRSt6vectorIjNS_16secure_allocatorIjEEES7_b
	mov	eax, dword ptr [rip + x.40]
	mov	ecx, dword ptr [rip + y.41]
	lea	edx, [rax - 1]
	imul	edx, eax
	mov	eax, edx
	xor	eax, -2
	and	eax, edx
	sete	bl
	test	eax, eax
	mov	eax, 1964656445
	mov	edx, 2016452544
	mov	esi, 1964656445
	je	.LBB14_12

	mov	esi, 2016452544
.LBB14_12:                              
	cmp	ecx, 10
	setl	cl
	cmovl	edx, esi
	xor	cl, bl
	jne	.LBB14_1

	mov	eax, edx
	jmp	.LBB14_1
	.p2align	4, 0x90
.LBB14_17:                              
	cmp	eax, 1964656444
	jg	.LBB14_27

	cmp	eax, 657084186
	jg	.LBB14_24

	cmp	eax, -199897239
	je	.LBB14_42

	cmp	eax, -154580063
	jne	.LBB14_1

	mov	eax, dword ptr [rip + x.40]
	mov	ecx, dword ptr [rip + y.41]
	lea	edx, [rax - 1]
	imul	edx, eax
	not	edx
	or	edx, -2
	cmp	edx, -1
	sete	al
	cmp	ecx, 10
	setl	bl
	xor	bl, al
	mov	eax, -1933021124
	mov	esi, -1933021124
	jne	.LBB14_23

	mov	esi, 1986040790
.LBB14_23:                              
	cmp	edx, -1
	cmovne	eax, esi
	cmp	ecx, 10
	cmovge	eax, esi
	jmp	.LBB14_1
	.p2align	4, 0x90
.LBB14_3:                               
	cmp	eax, -2096741847
	je	.LBB14_43

	cmp	eax, -1933021124
	je	.LBB14_31

	cmp	eax, -1930673097
	jne	.LBB14_1

	mov	edi, 65536
	call	_ZN5Botan5CPUID13has_cpuid_bitENS0_10CPUID_bitsE
	test	al, al
	mov	eax, -329238116
	mov	ecx, -154580063
	cmovne	eax, ecx
	jmp	.LBB14_1
	.p2align	4, 0x90
.LBB14_27:                              
	cmp	eax, 1964656445
	je	.LBB14_40

	cmp	eax, 1986040790
	je	.LBB14_44

	cmp	eax, 2016452544
	jne	.LBB14_1
	jmp	.LBB14_30
.LBB14_14:                              
	cmp	eax, -580597882
	je	.LBB14_41

	cmp	eax, -329238116
	jne	.LBB14_1

	mov	edi, 65536
	call	_ZN5Botan5CPUID13has_cpuid_bitENS0_10CPUID_bitsE
	test	al, al
	mov	eax, -580597882
	mov	ecx, -1747403762
	cmovne	eax, ecx
	jmp	.LBB14_1
.LBB14_24:                              
	cmp	eax, 1290127921
	je	.LBB14_35

	cmp	eax, 657084187
	jne	.LBB14_1
	jmp	.LBB14_26
.LBB14_36:                              
	mov	eax, dword ptr [rip + x.40]
	mov	ecx, dword ptr [rip + y.41]
	lea	edx, [rax - 1]
	imul	edx, eax
	mov	eax, edx
	xor	eax, -2
	and	eax, edx
	sete	bl
	test	eax, eax
	mov	eax, -1330854698
	mov	edx, 2016452544
	mov	esi, -1330854698
	je	.LBB14_38

	mov	esi, 2016452544
.LBB14_38:                              
	cmp	ecx, 10
	setl	cl
	cmovl	edx, esi
	xor	cl, bl
	jne	.LBB14_1

	mov	eax, edx
	jmp	.LBB14_1
.LBB14_42:                              
	mov	rdi, r15
	mov	rsi, rbp
	mov	rdx, r14
	call	_ZN5Botan7AES_12818vperm_key_scheduleEPKhm
	mov	eax, 657084187
	jmp	.LBB14_1
.LBB14_43:                              
	xor	r8d, r8d
	mov	rdi, rbp
	mov	rsi, r14
	mov	rdx, r12
	mov	rcx, r13
	call	_ZN5Botan12_GLOBAL__N_116aes_key_scheduleEPKhmRSt6vectorIjNS_16secure_allocatorIjEEES7_b
	mov	eax, 657084187
	jmp	.LBB14_1
.LBB14_31:                              
	mov	rdi, r15
	mov	rsi, rbp
	mov	rdx, r14
	call	_ZN5Botan7AES_12818aesni_key_scheduleEPKhm
	mov	eax, dword ptr [rip + x.40]
	mov	ecx, dword ptr [rip + y.41]
	lea	edx, [rax - 1]
	imul	edx, eax
	not	edx
	or	edx, -2
	cmp	edx, -1
	sete	bl
	mov	eax, 1290127921
	mov	edx, 1986040790
	mov	esi, 1290127921
	je	.LBB14_33

	mov	esi, 1986040790
.LBB14_33:                              
	cmp	ecx, 10
	setl	cl
	cmovl	edx, esi
	xor	cl, bl
	jne	.LBB14_1

	mov	eax, edx
	jmp	.LBB14_1
.LBB14_40:                              
	mov	eax, 657084187
	jmp	.LBB14_1
.LBB14_44:                              
	mov	rdi, r15
	mov	rsi, rbp
	mov	rdx, r14
	call	_ZN5Botan7AES_12818aesni_key_scheduleEPKhm
	mov	eax, -1933021124
	jmp	.LBB14_1
.LBB14_41:                              
	mov	edi, 2
	call	_ZN5Botan5CPUID13has_cpuid_bitENS0_10CPUID_bitsE
	test	al, al
	mov	eax, -2096741847
	mov	ecx, -199897239
	cmovne	eax, ecx
	jmp	.LBB14_1
.LBB14_35:                              
	mov	eax, 657084187
	jmp	.LBB14_1
.LBB14_26:
	add	rsp, 8
	pop	rbx
	pop	r12
	pop	r13
	pop	r14
	pop	r15
	pop	rbp
	ret
.Lfunc_end14:
	.size	_ZN5Botan7AES_12812key_scheduleEPKhm, .Lfunc_end14-_ZN5Botan7AES_12812key_scheduleEPKhm
	.cfi_endproc

	.section	.rodata.cst16,"aM",@progbits,16
	.p2align	4               
.LCPI15_0:
	.zero	16,254
.LCPI15_1:
	.zero	16,1
.LCPI15_2:
	.long	27                      
	.long	27                      
	.long	27                      
	.long	27                      
.LCPI15_3:
	.long	3999243537              
	.long	3999243537              
	.long	3999243537              
	.long	3999243537              
.LCPI15_4:
	.long	295723758               
	.long	295723758               
	.long	295723758               
	.long	295723758               
.LCPI15_5:
	.long	1623781329              
	.long	1623781329              
	.long	1623781329              
	.long	1623781329              
.LCPI15_6:
	.long	2671185966              
	.long	2671185966              
	.long	2671185966              
	.long	2671185966              
.LCPI15_7:
	.long	943110291               
	.long	943110291               
	.long	943110291               
	.long	943110291               
.LCPI15_8:
	.long	3351857004              
	.long	3351857004              
	.long	3351857004              
	.long	3351857004              
.LCPI15_9:
	.long	4089546674              
	.long	4089546674              
	.long	4089546674              
	.long	4089546674              
.LCPI15_10:
	.long	205420621               
	.long	205420621               
	.long	205420621               
	.long	205420621               
.LCPI15_11:
	.long	3700939324              
	.long	3700939324              
	.long	3700939324              
	.long	3700939324              
.LCPI15_12:
	.long	594027971               
	.long	594027971               
	.long	594027971               
	.long	594027971               
.LCPI15_13:
	.long	2875889752              
	.long	2875889752              
	.long	2875889752              
	.long	2875889752              
.LCPI15_14:
	.long	1419077543              
	.long	1419077543              
	.long	1419077543              
	.long	1419077543              
.LCPI15_15:
	.long	4208240592              
	.long	4208240592              
	.long	4208240592              
	.long	4208240592              
.LCPI15_16:
	.long	86726703                
	.long	86726703                
	.long	86726703                
	.long	86726703                
.LCPI15_17:
	.long	4040660943              
	.long	4040660943              
	.long	4040660943              
	.long	4040660943              
.LCPI15_18:
	.long	254306352               
	.long	254306352               
	.long	254306352               
	.long	254306352               
.LCPI15_19:
	.long	3309298276              
	.long	3309298276              
	.long	3309298276              
	.long	3309298276              
.LCPI15_20:
	.long	985669019               
	.long	985669019               
	.long	985669019               
	.long	985669019               
.LCPI15_21:
	.long	929386069               
	.long	929386069               
	.long	929386069               
	.long	929386069               
.LCPI15_22:
	.long	3365581226              
	.long	3365581226              
	.long	3365581226              
	.long	3365581226              
.LCPI15_23:
	.long	2128857068              
	.long	2128857068              
	.long	2128857068              
	.long	2128857068              
.LCPI15_24:
	.long	2166110227              
	.long	2166110227              
	.long	2166110227              
	.long	2166110227              
.LCPI15_25:
	.long	3445215961              
	.long	3445215961              
	.long	3445215961              
	.long	3445215961              
.LCPI15_26:
	.long	849751334               
	.long	849751334               
	.long	849751334               
	.long	849751334               
.LCPI15_27:
	.long	4264103866              
	.long	4264103866              
	.long	4264103866              
	.long	4264103866              
.LCPI15_28:
	.long	30863429                
	.long	30863429                
	.long	30863429                
	.long	30863429                
.LCPI15_29:
	.long	2012857147              
	.long	2012857147              
	.long	2012857147              
	.long	2012857147              
.LCPI15_30:
	.long	2282110148              
	.long	2282110148              
	.long	2282110148              
	.long	2282110148              
.LCPI15_31:
	.long	1364772301              
	.long	1364772301              
	.long	1364772301              
	.long	1364772301              
.LCPI15_32:
	.long	2930194994              
	.long	2930194994              
	.long	2930194994              
	.long	2930194994              
	.text
	.p2align	4, 0x90
	.type	_ZN5Botan12_GLOBAL__N_116aes_key_scheduleEPKhmRSt6vectorIjNS_16secure_allocatorIjEEES7_b,@function
_ZN5Botan12_GLOBAL__N_116aes_key_scheduleEPKhmRSt6vectorIjNS_16secure_allocatorIjEEES7_b: 
	.cfi_startproc

	push	rbp
.Lcfi129:
	.cfi_def_cfa_offset 16
	push	r15
.Lcfi130:
	.cfi_def_cfa_offset 24
	push	r14
.Lcfi131:
	.cfi_def_cfa_offset 32
	push	r13
.Lcfi132:
	.cfi_def_cfa_offset 40
	push	r12
.Lcfi133:
	.cfi_def_cfa_offset 48
	push	rbx
.Lcfi134:
	.cfi_def_cfa_offset 56
	sub	rsp, 216
.Lcfi135:
	.cfi_def_cfa_offset 272
.Lcfi136:
	.cfi_offset rbx, -56
.Lcfi137:
	.cfi_offset r12, -48
.Lcfi138:
	.cfi_offset r13, -40
.Lcfi139:
	.cfi_offset r14, -32
.Lcfi140:
	.cfi_offset r15, -24
.Lcfi141:
	.cfi_offset rbp, -16
	mov	r14, rcx
	mov	r12, rdx
	mov	r15, rdi
	mov	rax, rsi
	shr	rax, 2
	mov	qword ptr [rsp + 8], rax
	mov	rax, qword ptr [rsp + 8]
	cmp	rax, 4
	sete	al
	mov	rcx, qword ptr [rsp + 8]
	cmp	rcx, 6
	sete	cl
	mov	edx, eax
	and	dl, cl
	xor	al, cl
	or	al, dl
	mov	byte ptr [rsp + 44], al
	mov	rax, qword ptr [rsp + 8]
	cmp	rax, 8
	sete	byte ptr [rsp + 7]
	movabs	rax, -4341194977578437117
	sub	rsi, rax
	lea	rax, [rsi + rax + 28]
	mov	qword ptr [rsp + 184], rax 
	test	r8b, r8b
	mov	eax, 1790591217
	mov	ecx, -855699039
	cmovne	ecx, eax
	mov	dword ptr [rsp + 112], ecx 
	mov	ecx, 252245044

















	jmp	.LBB15_1
.LBB15_61:                              
	cmovne	esi, edi
	test	eax, eax
	mov	ecx, esi
	cmove	ecx, edi
	cmp	edx, 10
	cmovge	ecx, esi
	.p2align	4, 0x90
.LBB15_1:                               
	cmp	ecx, 311553903
	jle	.LBB15_2

	cmp	ecx, 1465628762
	jle	.LBB15_66

	cmp	ecx, 1851558805
	jg	.LBB15_111

	cmp	ecx, 1589891314
	jg	.LBB15_103

	cmp	ecx, 1536967776
	jg	.LBB15_100

	cmp	ecx, 1465628763
	je	.LBB15_132

	cmp	ecx, 1499855498
	jne	.LBB15_1

	mov	rdi, r12
	mov	rbx, qword ptr [rsp + 184] 
	mov	rsi, rbx
	call	_ZNSt6vectorIjN5Botan16secure_allocatorIjEEE6resizeEm
	mov	rdi, r14
	mov	rsi, rbx
	call	_ZNSt6vectorIjN5Botan16secure_allocatorIjEEE6resizeEm
	mov	ecx, 839110248
	xor	eax, eax
	mov	qword ptr [rsp + 120], rax 
	jmp	.LBB15_1
	.p2align	4, 0x90
.LBB15_2:                               
	cmp	ecx, -777052525
	jg	.LBB15_35

	cmp	ecx, -1171430203
	jle	.LBB15_4

	cmp	ecx, -1038666270
	jle	.LBB15_20

	cmp	ecx, -900804479
	jle	.LBB15_28

	cmp	ecx, -855699039
	je	.LBB15_154

	cmp	ecx, -781459335
	jne	.LBB15_33

	movzx	eax, byte ptr [rsp + 45]
	test	al, al
	mov	ecx, -1820857191
	mov	eax, 1499855498
	cmovne	ecx, eax
	jmp	.LBB15_1
	.p2align	4, 0x90
.LBB15_66:                              
	cmp	ecx, 790313985
	jle	.LBB15_67

	cmp	ecx, 1062026805
	jg	.LBB15_87

	cmp	ecx, 839110247
	jg	.LBB15_84

	cmp	ecx, 790313986
	je	.LBB15_149

	cmp	ecx, 819489673
	jne	.LBB15_1

	mov	rax, qword ptr [rsp + 64]
	mov	rcx, qword ptr [r14]
	movdqu	xmm0, xmmword ptr [rcx + 4*rax]
	movdqa	xmm2, xmm0
	paddd	xmm2, xmm2
	movdqa	xmm11, xmm2
	movdqa	xmm5, xmmword ptr [rip + .LCPI15_1] 
	movdqa	xmm9, xmm5
	pxor	xmm11, xmm9
	pand	xmm11, xmm2
	movdqa	xmm2, xmm0
	psrld	xmm2, 7
	pcmpeqd	xmm6, xmm6
	pxor	xmm2, xmm6
	movdqa	xmm7, xmmword ptr [rip + .LCPI15_0] 
	movdqa	xmm8, xmm7
	por	xmm2, xmm8
	pxor	xmm2, xmm6
	pshufd	xmm3, xmm2, 245         
	movdqa	xmm7, xmmword ptr [rip + .LCPI15_2] 
	movdqa	xmm10, xmm7
	pmuludq	xmm2, xmm10
	pshufd	xmm2, xmm2, 232         
	pmuludq	xmm3, xmm10
	pshufd	xmm3, xmm3, 232         
	punpckldq	xmm2, xmm3      
	movdqa	xmm3, xmm2
	movdqa	xmm4, xmmword ptr [rip + .LCPI15_3] 
	pandn	xmm3, xmm4
	movdqa	xmm5, xmmword ptr [rip + .LCPI15_4] 
	pand	xmm2, xmm5
	por	xmm2, xmm3
	movdqa	xmm3, xmm11
	pandn	xmm3, xmm4
	pand	xmm11, xmm5
	por	xmm11, xmm3
	pxor	xmm11, xmm2
	movdqa	xmm2, xmm11
	paddd	xmm2, xmm2
	pxor	xmm2, xmm6
	por	xmm2, xmm9
	movdqa	xmm3, xmm11
	psrld	xmm3, 7
	pxor	xmm3, xmm6
	por	xmm3, xmm8
	pxor	xmm3, xmm6
	pshufd	xmm4, xmm3, 245         
	pmuludq	xmm3, xmm10
	pshufd	xmm3, xmm3, 232         
	pmuludq	xmm4, xmm10
	pshufd	xmm4, xmm4, 232         
	punpckldq	xmm3, xmm4      
	movdqa	xmm4, xmm3
	movdqa	xmm5, xmmword ptr [rip + .LCPI15_5] 
	pandn	xmm4, xmm5
	movdqa	xmm7, xmmword ptr [rip + .LCPI15_6] 
	pand	xmm3, xmm7
	por	xmm3, xmm4
	movdqa	xmm4, xmm2
	pand	xmm4, xmm5
	pandn	xmm2, xmm7
	por	xmm2, xmm4
	pxor	xmm2, xmm3
	movdqa	xmm3, xmm2
	paddd	xmm3, xmm3
	pxor	xmm3, xmm6
	por	xmm3, xmm9
	movdqa	xmm4, xmm2
	psrld	xmm4, 7
	movdqa	xmm5, xmm4
	pxor	xmm5, xmm8
	pand	xmm5, xmm4
	pshufd	xmm4, xmm5, 245         
	pmuludq	xmm5, xmm10
	pshufd	xmm5, xmm5, 232         
	pmuludq	xmm4, xmm10
	pshufd	xmm4, xmm4, 232         
	punpckldq	xmm5, xmm4      
	movdqa	xmm4, xmm5
	pxor	xmm4, xmm6
	pand	xmm5, xmm3
	pandn	xmm3, xmm4
	por	xmm3, xmm5
	movdqa	xmm4, xmm3
	movdqa	xmm5, xmmword ptr [rip + .LCPI15_7] 
	movdqa	xmm6, xmm5
	pandn	xmm4, xmm6
	movdqa	xmm5, xmm3
	movdqa	xmm7, xmmword ptr [rip + .LCPI15_8] 
	pand	xmm5, xmm7
	por	xmm5, xmm4
	movdqa	xmm4, xmm0
	pandn	xmm4, xmm6
	pand	xmm0, xmm7
	por	xmm0, xmm4
	pxor	xmm0, xmm5
	movdqa	xmm4, xmm0
	movdqa	xmm5, xmmword ptr [rip + .LCPI15_9] 
	movdqa	xmm7, xmm5
	pandn	xmm4, xmm7
	movdqa	xmm5, xmm0
	movdqa	xmm6, xmmword ptr [rip + .LCPI15_10] 
	movdqa	xmm8, xmm6
	pand	xmm5, xmm8
	por	xmm5, xmm4
	movdqa	xmm6, xmm11
	pandn	xmm6, xmm7
	movdqa	xmm4, xmm11
	pand	xmm4, xmm8
	por	xmm4, xmm6
	pxor	xmm4, xmm5
	movdqa	xmm5, xmm0
	movdqa	xmm6, xmmword ptr [rip + .LCPI15_11] 
	movdqa	xmm8, xmm6
	pandn	xmm5, xmm8
	movdqa	xmm6, xmm0
	movdqa	xmm7, xmmword ptr [rip + .LCPI15_12] 
	movdqa	xmm9, xmm7
	pand	xmm6, xmm9
	por	xmm6, xmm5
	movdqa	xmm7, xmm2
	pandn	xmm7, xmm8
	movdqa	xmm5, xmm2
	pand	xmm5, xmm9
	por	xmm5, xmm7
	pxor	xmm5, xmm6
	movdqa	xmm6, xmm0
	psrld	xmm6, 8
	pslld	xmm0, 24
	por	xmm0, xmm6
	movdqa	xmm6, xmm5
	psrld	xmm6, 16
	pslld	xmm5, 16
	por	xmm5, xmm6
	movdqa	xmm6, xmm4
	psrld	xmm6, 24
	pslld	xmm4, 8
	movdqa	xmm7, xmm6
	movdqa	xmm1, xmmword ptr [rip + .LCPI15_13] 
	movdqa	xmm8, xmm1
	pandn	xmm7, xmm8
	movdqa	xmm1, xmmword ptr [rip + .LCPI15_14] 
	pand	xmm6, xmm1
	por	xmm6, xmm7
	movdqa	xmm7, xmm4
	pandn	xmm7, xmm8
	pand	xmm4, xmm1
	por	xmm4, xmm7
	pxor	xmm4, xmm6
	movdqa	xmm6, xmm2
	movdqa	xmm1, xmmword ptr [rip + .LCPI15_15] 
	pandn	xmm6, xmm1
	movdqa	xmm7, xmmword ptr [rip + .LCPI15_16] 
	pand	xmm2, xmm7
	por	xmm2, xmm6
	movdqa	xmm6, xmm11
	pandn	xmm6, xmm1
	pand	xmm11, xmm7
	por	xmm11, xmm6
	pxor	xmm11, xmm2
	movdqa	xmm2, xmm11
	pandn	xmm2, xmm3
	pandn	xmm3, xmm11
	por	xmm3, xmm2
	movdqa	xmm1, xmm3
	pandn	xmm1, xmm0
	pandn	xmm0, xmm3
	por	xmm0, xmm1
	movdqa	xmm1, xmm0
	movdqa	xmm2, xmmword ptr [rip + .LCPI15_17] 
	pandn	xmm1, xmm2
	movdqa	xmm3, xmmword ptr [rip + .LCPI15_18] 
	pand	xmm0, xmm3
	por	xmm0, xmm1
	movdqa	xmm1, xmm5
	pandn	xmm1, xmm2
	pand	xmm5, xmm3
	por	xmm5, xmm1
	pxor	xmm5, xmm0
	movdqa	xmm0, xmm5
	pandn	xmm0, xmm4
	pandn	xmm4, xmm5
	por	xmm4, xmm0
	movdqu	xmmword ptr [rcx + 4*rax], xmm4
	mov	rax, qword ptr [rsp + 64]
	movabs	rcx, 3784483628176211436
	sub	rax, rcx
	lea	rax, [rax + rcx + 4]
	mov	qword ptr [rsp + 208], rax
	mov	eax, dword ptr [rip + x.44]
	lea	ecx, [rax - 1]
	imul	ecx, eax
	not	ecx
	or	ecx, -2
	cmp	ecx, -1
	sete	al
	mov	ecx, -1642164957
	mov	edi, 342778442
	cmove	ecx, edi
	cmp	dword ptr [rip + y.45], 10
	setl	dl
	mov	esi, -1642164957
	jmp	.LBB15_119
	.p2align	4, 0x90
.LBB15_35:                              
	cmp	ecx, -277410962
	jle	.LBB15_36

	cmp	ecx, 71170160
	jg	.LBB15_57

	cmp	ecx, -31690297
	jg	.LBB15_54

	cmp	ecx, -277410961
	je	.LBB15_145

	cmp	ecx, -90272826
	jne	.LBB15_1

	mov	eax, dword ptr [rip + x.44]
	lea	ecx, [rax - 1]
	imul	ecx, eax
	not	ecx
	or	ecx, -2
	cmp	ecx, -1
	sete	al
	mov	ecx, -777052524
	mov	esi, 73727035
	cmove	ecx, esi
	cmp	dword ptr [rip + y.45], 10
	setl	dl
	mov	edi, -777052524
	jmp	.LBB15_53
.LBB15_111:                             
	cmp	ecx, 1931902959
	jg	.LBB15_120

	cmp	ecx, 1881396838
	jg	.LBB15_116

	cmp	ecx, 1851558806
	je	.LBB15_143

	cmp	ecx, 1877557416
	jne	.LBB15_1

	mov	ecx, dword ptr [rsp + 112] 
	jmp	.LBB15_1
.LBB15_4:                               
	cmp	ecx, -1559694484
	jle	.LBB15_5

	cmp	ecx, -1360237107
	jg	.LBB15_16

	cmp	ecx, -1559694483
	je	.LBB15_153

	cmp	ecx, -1549223685
	jne	.LBB15_1

	mov	rax, qword ptr [rsp + 8]
	mov	rcx, qword ptr [rsp + 32]
	movabs	rdx, -7703048651363372541
	add	rcx, rdx
	sub	rcx, rax
	sub	rcx, rdx
	mov	rdi, qword ptr [r12]
	mov	ecx, dword ptr [rdi + 4*rcx]
	mov	rdx, qword ptr [rsp + 32]
	mov	dword ptr [rdi + 4*rdx], ecx
	mov	ecx, dword ptr [rip + x.44]
	mov	edx, dword ptr [rip + y.45]
	lea	esi, [rcx - 1]
	imul	esi, ecx
	mov	ecx, esi
	xor	ecx, -2
	and	ecx, esi
	sete	bl
	cmp	edx, 10
	setl	al
	xor	al, bl
	mov	eax, -1171430202
	mov	esi, 2008173935
	cmovne	eax, esi
	test	ecx, ecx
	mov	ecx, eax
	cmove	ecx, esi
	cmp	edx, 10
	mov	rdx, qword ptr [rsp + 80]
	cmovge	ecx, eax
	cmp	rdx, 4
	movzx	eax, byte ptr [rsp + 7]
	sete	dl
	xor	dl, al
	not	dl
	and	dl, al
	and	dl, 1
	mov	byte ptr [rsp + 47], dl
	mov	rax, qword ptr [rsp + 32]
	movabs	rdx, 6655277242769211071
	sub	rax, rdx
	lea	rax, [rax + rdx - 1]
	mov	eax, dword ptr [rdi + 4*rax]
	mov	dword ptr [rsp + 60], eax
	jmp	.LBB15_1
.LBB15_67:                              
	cmp	ecx, 472705385
	jle	.LBB15_68

	cmp	ecx, 682451901
	jg	.LBB15_76

	cmp	ecx, 472705386
	je	.LBB15_141

	cmp	ecx, 625423049
	jne	.LBB15_1

	mov	eax, dword ptr [rip + x.44]
	mov	edx, dword ptr [rip + y.45]
	lea	ecx, [rax - 1]
	imul	ecx, eax
	mov	eax, ecx
	xor	eax, -2
	and	eax, ecx
	sete	cl
	cmp	edx, 10
	setl	bl
	xor	bl, cl
	mov	esi, -1642164957
	mov	edi, 819489673
	jmp	.LBB15_61
.LBB15_36:                              
	cmp	ecx, -352039116
	jle	.LBB15_37

	cmp	ecx, -318484616
	jg	.LBB15_45

	cmp	ecx, -352039115
	je	.LBB15_128

	cmp	ecx, -323401753
	jne	.LBB15_1

	mov	ecx, -1156996921
	mov	rax, qword ptr [rsp + 200]
	mov	qword ptr [rsp + 144], rax 
	jmp	.LBB15_1
.LBB15_103:                             
	cmp	ecx, 1781786991
	jg	.LBB15_108

	cmp	ecx, 1589891315
	je	.LBB15_139

	cmp	ecx, 1739525961
	jne	.LBB15_1

	mov	eax, dword ptr [rip + x.44]
	lea	ecx, [rax - 1]
	imul	ecx, eax
	mov	eax, ecx
	xor	eax, -2
	and	eax, ecx
	sete	dl
	test	eax, eax
	mov	ecx, -1038666269
	mov	edi, -352039115
	cmove	ecx, edi
	cmp	dword ptr [rip + y.45], 10
	setl	al
	mov	esi, -1038666269
	jmp	.LBB15_107
.LBB15_20:                              
	cmp	ecx, -1100577671
	jg	.LBB15_24

	cmp	ecx, -1171430202
	je	.LBB15_160

	cmp	ecx, -1156996921
	jne	.LBB15_1

	mov	rax, qword ptr [rsp + 144] 
	mov	qword ptr [rsp + 16], rax
	mov	rax, qword ptr [rsp + 176]
	mov	rcx, qword ptr [rsp + 16]
	cmp	rcx, rax
	mov	ecx, -948451597
	mov	eax, -1189664262
	cmove	ecx, eax
	jmp	.LBB15_1
.LBB15_87:                              
	cmp	ecx, 1147151996
	jg	.LBB15_91

	cmp	ecx, 1062026806
	je	.LBB15_148

	cmp	ecx, 1127438761
	jne	.LBB15_1

	mov	ecx, -1156996921
	xor	eax, eax
	mov	qword ptr [rsp + 144], rax 
	jmp	.LBB15_1
.LBB15_57:                              
	cmp	ecx, 252245043
	jg	.LBB15_62

	cmp	ecx, 71170161
	je	.LBB15_144

	cmp	ecx, 73727035
	jne	.LBB15_1

	mov	eax, dword ptr [rip + x.44]
	mov	edx, dword ptr [rip + y.45]
	lea	ecx, [rax - 1]
	imul	ecx, eax
	mov	eax, ecx
	xor	eax, -2
	and	eax, ecx
	sete	cl
	cmp	edx, 10
	setl	bl
	xor	bl, cl
	mov	esi, -777052524
	mov	edi, 1127438761
	jmp	.LBB15_61
.LBB15_120:                             
	cmp	ecx, 2037026696
	jg	.LBB15_124

	cmp	ecx, 1931902960
	je	.LBB15_147

	cmp	ecx, 2008173935
	jne	.LBB15_1

	movzx	eax, byte ptr [rsp + 47]
	test	al, al
	mov	ecx, 311553904
	mov	eax, 1923024697
	cmovne	ecx, eax
	jmp	.LBB15_1
.LBB15_5:                               
	cmp	ecx, -1732986582
	jle	.LBB15_6

	cmp	ecx, -1732986581
	je	.LBB15_161

	cmp	ecx, -1642164957
	jne	.LBB15_1

	mov	rax, qword ptr [rsp + 64]
	mov	rcx, qword ptr [r14]
	movdqu	xmm0, xmmword ptr [rcx + 4*rax]
	movdqa	xmm2, xmm0
	paddd	xmm2, xmm2
	movdqa	xmm11, xmm2
	movdqa	xmm7, xmmword ptr [rip + .LCPI15_1] 
	movdqa	xmm8, xmm7
	pxor	xmm11, xmm8
	pand	xmm11, xmm2
	movdqa	xmm2, xmm0
	psrld	xmm2, 7
	movdqa	xmm3, xmm2
	movdqa	xmm6, xmmword ptr [rip + .LCPI15_0] 
	movdqa	xmm9, xmm6
	pxor	xmm3, xmm9
	pand	xmm3, xmm2
	pshufd	xmm2, xmm3, 245         
	movdqa	xmm7, xmmword ptr [rip + .LCPI15_2] 
	pmuludq	xmm3, xmm7
	pshufd	xmm3, xmm3, 232         
	pmuludq	xmm2, xmm7
	pshufd	xmm2, xmm2, 232         
	punpckldq	xmm3, xmm2      
	movdqa	xmm2, xmm3
	pandn	xmm2, xmm11
	pandn	xmm11, xmm3
	por	xmm11, xmm2
	movdqa	xmm2, xmm11
	paddd	xmm2, xmm2
	pcmpeqd	xmm10, xmm10
	pxor	xmm2, xmm10
	por	xmm2, xmm8
	movdqa	xmm3, xmm11
	psrld	xmm3, 7
	movdqa	xmm4, xmm3
	pxor	xmm4, xmm9
	pand	xmm4, xmm3
	pshufd	xmm3, xmm4, 245         
	pmuludq	xmm4, xmm7
	pshufd	xmm4, xmm4, 232         
	pmuludq	xmm3, xmm7
	pshufd	xmm3, xmm3, 232         
	punpckldq	xmm4, xmm3      
	movdqa	xmm3, xmm4
	movdqa	xmm6, xmmword ptr [rip + .LCPI15_19] 
	pandn	xmm3, xmm6
	movdqa	xmm5, xmmword ptr [rip + .LCPI15_20] 
	pand	xmm4, xmm5
	por	xmm4, xmm3
	movdqa	xmm3, xmm2
	pand	xmm3, xmm6
	pandn	xmm2, xmm5
	por	xmm2, xmm3
	pxor	xmm2, xmm4
	movdqa	xmm3, xmm2
	paddd	xmm3, xmm3
	pxor	xmm3, xmm10
	por	xmm3, xmm8
	movdqa	xmm4, xmm2
	psrld	xmm4, 7
	movdqa	xmm5, xmm4
	pxor	xmm5, xmm9
	pand	xmm5, xmm4
	pshufd	xmm4, xmm5, 245         
	pmuludq	xmm5, xmm7
	pshufd	xmm5, xmm5, 232         
	pmuludq	xmm4, xmm7
	pshufd	xmm4, xmm4, 232         
	punpckldq	xmm5, xmm4      
	movdqa	xmm4, xmm5
	movdqa	xmm6, xmmword ptr [rip + .LCPI15_21] 
	pandn	xmm4, xmm6
	movdqa	xmm7, xmmword ptr [rip + .LCPI15_22] 
	pand	xmm5, xmm7
	por	xmm5, xmm4
	movdqa	xmm4, xmm3
	pand	xmm4, xmm6
	pandn	xmm3, xmm7
	por	xmm3, xmm4
	pxor	xmm3, xmm5
	movdqa	xmm4, xmm3
	pandn	xmm4, xmm0
	pandn	xmm0, xmm3
	por	xmm0, xmm4
	movdqa	xmm5, xmm0
	pandn	xmm5, xmm11
	movdqa	xmm4, xmm11
	pandn	xmm4, xmm0
	por	xmm4, xmm5
	movdqa	xmm5, xmm0
	movdqa	xmm6, xmmword ptr [rip + .LCPI15_23] 
	movdqa	xmm8, xmm6
	pandn	xmm5, xmm8
	movdqa	xmm6, xmm0
	movdqa	xmm7, xmmword ptr [rip + .LCPI15_24] 
	movdqa	xmm9, xmm7
	pand	xmm6, xmm9
	por	xmm6, xmm5
	movdqa	xmm7, xmm2
	pandn	xmm7, xmm8
	movdqa	xmm5, xmm2
	pand	xmm5, xmm9
	por	xmm5, xmm7
	pxor	xmm5, xmm6
	movdqa	xmm6, xmm0
	psrld	xmm6, 8
	pslld	xmm0, 24
	movdqa	xmm7, xmm6
	movdqa	xmm1, xmmword ptr [rip + .LCPI15_25] 
	movdqa	xmm8, xmm1
	pandn	xmm7, xmm8
	movdqa	xmm1, xmmword ptr [rip + .LCPI15_26] 
	pand	xmm6, xmm1
	por	xmm6, xmm7
	movdqa	xmm7, xmm0
	pandn	xmm7, xmm8
	pand	xmm0, xmm1
	por	xmm0, xmm7
	pxor	xmm0, xmm6
	movdqa	xmm6, xmm5
	psrld	xmm6, 16
	pslld	xmm5, 16
	movdqa	xmm7, xmm6
	movdqa	xmm1, xmmword ptr [rip + .LCPI15_27] 
	movdqa	xmm8, xmm1
	pandn	xmm7, xmm8
	movdqa	xmm1, xmmword ptr [rip + .LCPI15_28] 
	pand	xmm6, xmm1
	por	xmm6, xmm7
	movdqa	xmm7, xmm5
	pandn	xmm7, xmm8
	pand	xmm5, xmm1
	por	xmm5, xmm7
	pxor	xmm5, xmm6
	movdqa	xmm6, xmm4
	psrld	xmm6, 24
	pslld	xmm4, 8
	movdqa	xmm7, xmm6
	movdqa	xmm1, xmmword ptr [rip + .LCPI15_29] 
	movdqa	xmm8, xmm1
	pandn	xmm7, xmm8
	movdqa	xmm1, xmmword ptr [rip + .LCPI15_30] 
	pand	xmm6, xmm1
	por	xmm6, xmm7
	movdqa	xmm7, xmm4
	pandn	xmm7, xmm8
	pand	xmm4, xmm1
	por	xmm4, xmm7
	pxor	xmm4, xmm6
	movdqa	xmm6, xmm2
	movdqa	xmm1, xmmword ptr [rip + .LCPI15_31] 
	pandn	xmm6, xmm1
	movdqa	xmm7, xmmword ptr [rip + .LCPI15_32] 
	pand	xmm2, xmm7
	por	xmm2, xmm6
	movdqa	xmm6, xmm11
	pandn	xmm6, xmm1
	pand	xmm11, xmm7
	por	xmm11, xmm6
	pxor	xmm11, xmm2
	movdqa	xmm2, xmm11
	pandn	xmm2, xmm3
	pandn	xmm3, xmm11
	por	xmm3, xmm2
	movdqa	xmm1, xmm3
	pandn	xmm1, xmm0
	pandn	xmm0, xmm3
	por	xmm0, xmm1
	movdqa	xmm1, xmm0
	pandn	xmm1, xmm5
	pandn	xmm5, xmm0
	por	xmm5, xmm1
	movdqa	xmm0, xmm5
	pandn	xmm0, xmm4
	pandn	xmm4, xmm5
	por	xmm4, xmm0
	movdqu	xmmword ptr [rcx + 4*rax], xmm4
	mov	rax, qword ptr [rsp + 64]
	mov	rax, qword ptr [rsp + 64]
	mov	ecx, 819489673
	jmp	.LBB15_1
.LBB15_68:                              
	cmp	ecx, 311553904
	je	.LBB15_146

	cmp	ecx, 342778442
	je	.LBB15_150

	cmp	ecx, 451516136
	jne	.LBB15_1

	mov	eax, dword ptr [rip + x.44]
	mov	edx, dword ptr [rip + y.45]
	lea	ecx, [rax - 1]
	imul	ecx, eax
	mov	eax, ecx
	xor	eax, -2
	and	eax, ecx
	sete	cl
	cmp	edx, 10
	setl	bl
	xor	bl, cl
	mov	esi, 1147151997
	mov	edi, -1100577670
	jmp	.LBB15_61
.LBB15_37:                              
	cmp	ecx, -777052524
	je	.LBB15_157

	cmp	ecx, -741857111
	je	.LBB15_134

	cmp	ecx, -372663221
	jne	.LBB15_1

	mov	rax, qword ptr [rsp + 24]
	mov	rcx, qword ptr [rsp + 80]
	movabs	rdx, -8201432772771978145
	sub	rcx, rdx
	add	rcx, rax
	add	rcx, rdx
	mov	qword ptr [rsp + 32], rcx
	mov	rax, qword ptr [r12 + 8]
	movabs	rcx, -833939253729426206
	add	rax, rcx
	sub	rax, qword ptr [r12]
	sub	rax, rcx
	sar	rax, 2
	mov	rcx, qword ptr [rsp + 32]
	cmp	rcx, rax
	mov	ecx, -1892302990
	mov	eax, 1851558806
	cmovb	ecx, eax
	jmp	.LBB15_1
.LBB15_100:                             
	cmp	ecx, 1536967777
	je	.LBB15_133

	cmp	ecx, 1581067872
	jne	.LBB15_1

	mov	rax, qword ptr [rsp + 72]
	mov	eax, dword ptr [r15 + 4*rax]
	bswap	eax
	mov	rcx, qword ptr [rsp + 72]
	mov	rdx, qword ptr [r12]
	mov	dword ptr [rdx + 4*rcx], eax
	mov	rax, qword ptr [rsp + 72]
	movabs	rcx, -3855626202218651243
	lea	rax, [rax + rcx + 1]
	sub	rax, rcx
	mov	qword ptr [rsp + 120], rax 
	mov	ecx, 839110248
	jmp	.LBB15_1
.LBB15_28:                              
	cmp	ecx, -1038666269
	je	.LBB15_155

	cmp	ecx, -948451597
	jne	.LBB15_1

	mov	eax, dword ptr [rip + x.44]
	mov	edx, dword ptr [rip + y.45]
	lea	ecx, [rax - 1]
	imul	ecx, eax
	mov	eax, ecx
	xor	eax, -2
	and	eax, ecx
	sete	cl
	cmp	edx, 10
	setl	bl
	xor	bl, cl
	mov	esi, 784172825
	mov	edi, 1062026806
	jmp	.LBB15_61
.LBB15_84:                              
	cmp	ecx, 839110248
	je	.LBB15_131

	cmp	ecx, 940314049
	jne	.LBB15_1

	mov	rax, qword ptr [rsp + 96]
	mov	rcx, qword ptr [r12]
	mov	eax, dword ptr [rcx + 4*rax]
	bswap	eax
	mov	rdx, qword ptr [rsp + 96]
	mov	dword ptr [rcx + 4*rdx], eax
	mov	rax, qword ptr [rsp + 96]
	movabs	rcx, 4650726766969417603
	lea	rax, [rax + rcx + 1]
	sub	rax, rcx
	mov	qword ptr [rsp + 128], rax 
	mov	ecx, -31690296
	jmp	.LBB15_1
.LBB15_54:                              
	cmp	ecx, -31690296
	je	.LBB15_151

	cmp	ecx, -28567243
	jne	.LBB15_1

	movzx	eax, byte ptr [rsp + 46]
	test	al, al
	mov	ecx, 1536967777
	mov	eax, 1581067872
	cmovne	ecx, eax
	jmp	.LBB15_1
.LBB15_116:                             
	cmp	ecx, 1881396839
	je	.LBB15_152

	cmp	ecx, 1923024697
	jne	.LBB15_1

	mov	eax, dword ptr [rip + x.44]
	lea	ecx, [rax - 1]
	imul	ecx, eax
	not	ecx
	or	ecx, -2
	cmp	ecx, -1
	sete	al
	mov	ecx, -1732986581
	mov	edi, 71170161
	cmove	ecx, edi
	cmp	dword ptr [rip + y.45], 10
	setl	dl
	mov	esi, -1732986581
.LBB15_119:                             
	cmovge	ecx, esi
	xor	dl, al
	cmovne	ecx, edi
	jmp	.LBB15_1
.LBB15_76:                              
	cmp	ecx, 682451902
	je	.LBB15_142

	cmp	ecx, 784172825
	jne	.LBB15_1

	mov	rax, qword ptr [rsp + 48]
	mov	rax, qword ptr [rsp + 48]
	mov	rcx, qword ptr [rsp + 16]
	mov	rcx, qword ptr [rsp + 16]
	mov	rcx, qword ptr [rsp + 16]
	mov	rcx, qword ptr [rsp + 16]
	mov	rcx, qword ptr [rsp + 16]
	mov	rcx, qword ptr [rsp + 16]
	movabs	rdx, -277166432841291415
	mov	rsi, rdx
	lea	rdx, [rsi + 4*rax]
	sub	rdx, rcx
	sub	rdx, rsi
	mov	rcx, qword ptr [r12]
	mov	esi, dword ptr [rcx + 4*rdx]
	mov	rdi, qword ptr [rsp + 16]
	mov	rax, qword ptr [r14]
	mov	dword ptr [rax + 4*rdi], esi
	mov	rsi, rdx
	movabs	rdi, 4006853147820390190
	sub	rsi, rdi
	lea	rsi, [rsi + rdi + 1]
	mov	esi, dword ptr [rcx + 4*rsi]
	mov	rdi, qword ptr [rsp + 16]
	mov	rdi, qword ptr [rsp + 16]
	movabs	rbp, -2735536490696285666
	sub	rdi, rbp
	lea	rdi, [rdi + rbp + 1]
	mov	dword ptr [rax + 4*rdi], esi
	lea	rsi, [4*rdx]
	movabs	rdi, 939514100884811175
	sub	rdx, rdi
	lea	rdx, [rdx + rdi + 2]
	mov	edx, dword ptr [rcx + 4*rdx]
	mov	rdi, qword ptr [rsp + 16]
	mov	rdi, qword ptr [rsp + 16]
	mov	rdi, qword ptr [rsp + 16]
	mov	rdi, qword ptr [rsp + 16]
	mov	rdi, qword ptr [rsp + 16]
	mov	rdi, qword ptr [rsp + 16]
	shl	rdi, 2
	mov	rbp, -8
	sub	rbp, rdi
	neg	rbp
	mov	dword ptr [rax + rbp], edx
	mov	rdx, -12
	sub	rdx, rsi
	neg	rdx
	mov	ecx, dword ptr [rcx + rdx]
	mov	rdx, qword ptr [rsp + 16]
	mov	rdx, qword ptr [rsp + 16]
	mov	rdx, qword ptr [rsp + 16]
	mov	rdx, qword ptr [rsp + 16]
	mov	rdx, qword ptr [rsp + 16]
	mov	rdx, qword ptr [rsp + 16]
	mov	rdx, qword ptr [rsp + 16]
	mov	rdx, qword ptr [rsp + 16]
	mov	rdx, qword ptr [rsp + 16]
	mov	rdx, qword ptr [rsp + 16]
	mov	rdx, qword ptr [rsp + 16]
	mov	dword ptr [rax + 4*rdx + 12], ecx
	mov	rax, qword ptr [rsp + 16]
	mov	rax, qword ptr [rsp + 16]
	mov	rax, qword ptr [rsp + 16]
	mov	rax, qword ptr [rsp + 16]
	mov	rax, qword ptr [rsp + 16]
	mov	ecx, 1062026806
	jmp	.LBB15_1
.LBB15_45:                              
	cmp	ecx, -318484615
	je	.LBB15_156

	cmp	ecx, -316775902
	jne	.LBB15_1

	mov	ecx, 1881396839
	xor	eax, eax
	mov	qword ptr [rsp + 152], rax 
	jmp	.LBB15_1
.LBB15_108:                             
	cmp	ecx, 1781786992
	je	.LBB15_137

	cmp	ecx, 1790591217
	jne	.LBB15_1

	mov	ecx, -31690296
	xor	eax, eax
	mov	qword ptr [rsp + 128], rax 
	jmp	.LBB15_1
.LBB15_24:                              
	cmp	ecx, -1100577670
	je	.LBB15_138

	cmp	ecx, -1052530185
	jne	.LBB15_1

	mov	qword ptr [rsp + 80], r13
	mov	rax, qword ptr [rsp + 8]
	mov	rcx, qword ptr [rsp + 80]
	cmp	rcx, rax
	mov	ecx, -372663221
	mov	eax, -1892302990
	cmove	ecx, eax
	jmp	.LBB15_1
.LBB15_91:                              
	cmp	ecx, 1147151997
	je	.LBB15_158

	cmp	ecx, 1376887924
	jne	.LBB15_1

	mov	rax, qword ptr [rsp + 8]
	mov	rax, qword ptr [rsp + 72]
	mov	ecx, 1465628763
	jmp	.LBB15_1
.LBB15_62:                              
	cmp	ecx, 252245044
	je	.LBB15_127

	cmp	ecx, 290242767
	jne	.LBB15_1

	mov	eax, dword ptr [rip + x.44]
	mov	edx, dword ptr [rip + y.45]
	mov	ecx, eax
	neg	ecx
	not	ecx
	imul	ecx, eax
	mov	eax, ecx
	xor	eax, -2
	and	eax, ecx
	sete	cl
	cmp	edx, 10
	setl	bl
	xor	bl, cl
	mov	esi, -1783886508
	mov	edi, -900804478
	jmp	.LBB15_61
.LBB15_124:                             
	cmp	ecx, 2037026697
	je	.LBB15_136

	cmp	ecx, 2137732689
	jne	.LBB15_1

	mov	rax, qword ptr [rsp + 104]
	mov	rcx, qword ptr [r14]
	mov	eax, dword ptr [rcx + 4*rax]
	bswap	eax
	mov	rdx, qword ptr [rsp + 104]
	mov	dword ptr [rcx + 4*rdx], eax
	mov	rax, qword ptr [rsp + 104]
	inc	rax
	mov	qword ptr [rsp + 152], rax 
	mov	ecx, 1881396839
	jmp	.LBB15_1
.LBB15_16:                              
	cmp	ecx, -1360237106
	je	.LBB15_159

	cmp	ecx, -1189664262
	jne	.LBB15_1

	mov	ecx, 790313986
	mov	eax, 4
	mov	qword ptr [rsp + 160], rax 
	jmp	.LBB15_1
.LBB15_6:                               
	cmp	ecx, -1892302990
	jne	.LBB15_7

	mov	eax, dword ptr [rip + x.44]
	mov	ecx, eax
	neg	ecx
	not	ecx
	imul	ecx, eax
	not	ecx
	or	ecx, -2
	cmp	ecx, -1
	sete	al
	mov	ecx, -1360237106
	mov	esi, 472705386
	cmove	ecx, esi
	cmp	dword ptr [rip + y.45], 10
	setl	dl
	mov	edi, -1360237106
.LBB15_53:                              
	cmovge	ecx, edi
	xor	dl, al
	cmovne	ecx, esi
	jmp	.LBB15_1
.LBB15_132:                             
	mov	rax, qword ptr [rsp + 8]
	mov	rcx, qword ptr [rsp + 72]
	cmp	rcx, rax
	setne	byte ptr [rsp + 46]
	mov	eax, dword ptr [rip + x.44]
	lea	ecx, [rax - 1]
	imul	ecx, eax
	mov	eax, ecx
	xor	eax, -2
	and	eax, ecx
	sete	dl
	test	eax, eax
	mov	ecx, 1376887924
	mov	edi, -28567243
	cmove	ecx, edi
	cmp	dword ptr [rip + y.45], 10
	setl	al
	mov	esi, 1376887924
	jmp	.LBB15_107
.LBB15_149:                             
	mov	rax, qword ptr [rsp + 160] 
	mov	qword ptr [rsp + 64], rax
	mov	rax, qword ptr [rsp + 48]
	shl	rax, 2
	mov	rcx, qword ptr [rsp + 64]
	cmp	rcx, rax
	mov	ecx, 625423049
	mov	eax, 1877557416
	cmove	ecx, eax
	jmp	.LBB15_1
.LBB15_145:                             
	mov	rax, qword ptr [rsp + 32]
	mov	qword ptr [rsp + 168], rax 
	mov	ecx, 1931902960
	mov	eax, dword ptr [rsp + 116]
	mov	dword ptr [rsp + 92], eax 
	jmp	.LBB15_1
.LBB15_143:                             
	mov	eax, dword ptr [rip + x.44]
	mov	ecx, eax
	neg	ecx
	not	ecx
	imul	ecx, eax
	mov	eax, ecx
	xor	eax, -2
	and	eax, ecx
	sete	dl
	test	eax, eax
	mov	ecx, -1171430202
	mov	edi, -1549223685
	cmove	ecx, edi
	cmp	dword ptr [rip + y.45], 10
	setl	al
	mov	esi, -1171430202
	jmp	.LBB15_107
.LBB15_153:                             
	mov	ecx, -855699039
	jmp	.LBB15_1
.LBB15_141:                             
	mov	rax, qword ptr [rsp + 8]
	mov	rcx, qword ptr [rsp + 24]
	movabs	rdx, -5810064094735394024
	sub	rcx, rdx
	add	rcx, rax
	add	rcx, rdx
	mov	qword ptr [rsp + 192], rcx
	mov	eax, dword ptr [rip + x.44]
	lea	ecx, [rax - 1]
	imul	ecx, eax
	mov	eax, ecx
	xor	eax, -2
	and	eax, ecx
	sete	dl
	test	eax, eax
	mov	ecx, -1360237106
	mov	edi, 682451902
	cmove	ecx, edi
	cmp	dword ptr [rip + y.45], 10
	setl	al
	mov	esi, -1360237106
.LBB15_107:                             
	cmovge	ecx, esi
	xor	al, dl
	cmovne	ecx, edi
	jmp	.LBB15_1
.LBB15_128:                             
	mov	eax, dword ptr [rip + x.44]
	mov	edx, dword ptr [rip + y.45]
	lea	ecx, [rax - 1]
	imul	ecx, eax
	mov	eax, ecx
	xor	eax, -2
	and	eax, ecx
	sete	cl
	cmp	edx, 10
	setl	bl
	xor	bl, cl
	mov	esi, -1038666269
	mov	edi, -781459335
	cmovne	esi, edi
	test	eax, eax
	mov	ecx, esi
	cmove	ecx, edi
	cmp	edx, 10
	mov	rax, qword ptr [rsp + 8]
	movabs	rdx, -5471050747463580350
	lea	rax, [rax + rdx + 6]
	cmovge	ecx, esi
	sub	rax, rdx
	mov	qword ptr [rsp + 48], rax
	mov	rax, qword ptr [rsp + 48]
	cmp	rax, 10
	mov	rax, qword ptr [rsp + 48]
	sete	dl
	cmp	rax, 12
	mov	rsi, qword ptr [rsp + 48]
	sete	bl
	mov	eax, edx
	and	al, bl
	xor	dl, bl
	or	dl, al
	cmp	rsi, 14
	setne	al
	sete	bl
	xor	bl, dl
	not	dl
	or	dl, al
	not	dl
	or	dl, bl
	and	dl, 1
	mov	byte ptr [rsp + 45], dl
	jmp	.LBB15_1
.LBB15_139:                             
	mov	ecx, -1052530185
	mov	r13d, 1
	jmp	.LBB15_1
.LBB15_160:                             
	mov	rax, qword ptr [rsp + 8]
	mov	rax, qword ptr [rsp + 32]
	mov	rax, qword ptr [rsp + 32]
	mov	rax, qword ptr [rsp + 8]
	mov	rax, qword ptr [rsp + 8]
	mov	rax, qword ptr [rsp + 32]
	mov	rax, qword ptr [rsp + 8]
	mov	rax, qword ptr [rsp + 32]
	mov	rax, qword ptr [rsp + 8]
	mov	rax, qword ptr [rsp + 8]
	mov	rcx, qword ptr [rsp + 32]
	sub	rcx, rax
	mov	rax, qword ptr [r12]
	mov	ecx, dword ptr [rax + 4*rcx]
	mov	rdx, qword ptr [rsp + 32]
	mov	dword ptr [rax + 4*rdx], ecx
	mov	rax, qword ptr [rsp + 80]
	movzx	eax, byte ptr [rsp + 7]
	movzx	eax, byte ptr [rsp + 7]
	movzx	eax, byte ptr [rsp + 7]
	movzx	eax, byte ptr [rsp + 7]
	mov	rax, qword ptr [rsp + 32]
	mov	rax, qword ptr [rsp + 32]
	mov	rax, qword ptr [rsp + 32]
	mov	rax, qword ptr [rsp + 32]
	mov	ecx, -1549223685
	jmp	.LBB15_1
.LBB15_148:                             
	mov	rax, qword ptr [rsp + 48]
	shl	rax, 2
	mov	rcx, qword ptr [rsp + 16]
	sub	rax, rcx
	mov	rcx, qword ptr [r12]
	lea	rdx, [4*rax]
	mov	esi, dword ptr [rcx + 4*rax]
	mov	rdi, qword ptr [rsp + 16]
	mov	rbp, qword ptr [r14]
	mov	dword ptr [rbp + 4*rdi], esi
	mov	rsi, -4
	sub	rsi, rdx
	neg	rsi
	mov	esi, dword ptr [rcx + rsi]
	mov	rdi, qword ptr [rsp + 16]
	movabs	rbx, -8016030835683558254
	lea	rdi, [rdi + rbx + 1]
	sub	rdi, rbx
	mov	dword ptr [rbp + 4*rdi], esi
	movabs	rsi, -8445647232284886351
	sub	rax, rsi
	lea	rax, [rax + rsi + 2]
	mov	eax, dword ptr [rcx + 4*rax]
	mov	rsi, qword ptr [rsp + 16]
	movabs	rdi, 5602507633522659816
	lea	rsi, [rsi + rdi + 2]
	sub	rsi, rdi
	mov	dword ptr [rbp + 4*rsi], eax
	mov	rax, -12
	sub	rax, rdx
	neg	rax
	mov	eax, dword ptr [rcx + rax]
	mov	rcx, qword ptr [rsp + 16]
	movabs	rdx, -6551572547493929819
	lea	rcx, [rcx + rdx + 3]
	sub	rcx, rdx
	mov	dword ptr [rbp + 4*rcx], eax
	mov	eax, dword ptr [rip + x.44]
	mov	edx, dword ptr [rip + y.45]
	mov	ecx, eax
	neg	ecx
	not	ecx
	imul	ecx, eax
	not	ecx
	or	ecx, -2
	cmp	ecx, -1
	sete	al
	cmp	edx, 10
	setl	bl
	xor	bl, al
	mov	eax, 784172825
	mov	esi, -323401753
	cmovne	eax, esi
	cmp	ecx, -1
	mov	ecx, eax
	cmove	ecx, esi
	cmp	edx, 10
	mov	rdx, qword ptr [rsp + 16]
	movabs	rsi, -327098613648758166
	lea	rdx, [rdx + rsi + 4]
	cmovge	ecx, eax
	sub	rdx, rsi
	mov	qword ptr [rsp + 200], rdx
	jmp	.LBB15_1
.LBB15_144:                             
	mov	edi, dword ptr [rsp + 60]
	call	_ZN5Botan12_GLOBAL__N_17SE_wordEj
	mov	ecx, dword ptr [rip + x.44]
	mov	edi, dword ptr [rip + y.45]
	lea	esi, [rcx - 1]
	imul	esi, ecx
	mov	ecx, esi
	xor	ecx, -2
	and	ecx, esi
	sete	bl
	cmp	edi, 10
	setl	dl
	xor	dl, bl
	mov	edx, -1732986581
	mov	esi, -277410961
	cmovne	edx, esi
	test	ecx, ecx
	mov	ecx, edx
	cmove	ecx, esi
	cmp	edi, 10
	mov	dword ptr [rsp + 116], eax
	cmovge	ecx, edx
	jmp	.LBB15_1
.LBB15_147:                             
	mov	rax, qword ptr [r12]
	mov	rdi, qword ptr [rsp + 168] 
	mov	ecx, dword ptr [rax + 4*rdi]
	mov	edx, ecx
	not	edx
	and	edx, -118218039
	and	ecx, 118218038
	or	ecx, edx
	mov	esi, dword ptr [rsp + 92] 
	mov	edx, esi
	not	edx
	and	edx, -118218039
	and	esi, 118218038
	or	esi, edx
	xor	esi, ecx
	mov	dword ptr [rax + 4*rdi], esi
	mov	rax, qword ptr [rsp + 80]
	movabs	rcx, -7721700441747986592
	lea	r13, [rax + rcx + 1]
	sub	r13, rcx
	mov	ecx, -1052530185
	jmp	.LBB15_1
.LBB15_161:                             
	mov	edi, dword ptr [rsp + 60]
	call	_ZN5Botan12_GLOBAL__N_17SE_wordEj
	mov	ecx, 71170161
	jmp	.LBB15_1
.LBB15_146:                             
	mov	rax, qword ptr [rsp + 32]
	mov	qword ptr [rsp + 168], rax 
	mov	ecx, 1931902960
	mov	eax, dword ptr [rsp + 60]
	mov	dword ptr [rsp + 92], eax 
	jmp	.LBB15_1
.LBB15_150:                             
	mov	ecx, 790313986
	mov	rax, qword ptr [rsp + 208]
	mov	qword ptr [rsp + 160], rax 
	jmp	.LBB15_1
.LBB15_157:                             
	mov	ecx, 73727035
	jmp	.LBB15_1
.LBB15_134:                             
	mov	eax, dword ptr [rip + x.44]
	mov	edx, dword ptr [rip + y.45]
	lea	ecx, [rax - 1]
	imul	ecx, eax
	not	ecx
	or	ecx, -2
	cmp	ecx, -1
	sete	al
	cmp	edx, 10
	setl	bl
	xor	bl, al
	mov	eax, -318484615
	mov	esi, 2037026697
	jmp	.LBB15_135
.LBB15_133:                             
	mov	eax, dword ptr [rip + x.44]
	mov	edx, dword ptr [rip + y.45]
	mov	ecx, eax
	neg	ecx
	not	ecx
	imul	ecx, eax
	mov	eax, ecx
	xor	eax, -2
	and	eax, ecx
	sete	cl
	cmp	edx, 10
	setl	bl
	xor	bl, cl
	mov	esi, -318484615
	mov	edi, -741857111
	jmp	.LBB15_61
.LBB15_155:                             
	mov	rax, qword ptr [rsp + 8]
	mov	rax, qword ptr [rsp + 8]
	mov	rax, qword ptr [rsp + 8]
	mov	rax, qword ptr [rsp + 8]
	mov	rax, qword ptr [rsp + 8]
	mov	rax, qword ptr [rsp + 8]
	mov	rax, qword ptr [rsp + 8]
	mov	rax, qword ptr [rsp + 8]
	mov	rax, qword ptr [rsp + 8]
	mov	ecx, -352039115
	jmp	.LBB15_1
.LBB15_131:                             
	mov	eax, dword ptr [rip + x.44]
	mov	edx, dword ptr [rip + y.45]
	lea	ecx, [rax - 1]
	imul	ecx, eax
	not	ecx
	or	ecx, -2
	cmp	ecx, -1
	sete	al
	cmp	edx, 10
	setl	bl
	xor	bl, al
	mov	eax, 1376887924
	mov	esi, 1465628763
	cmovne	eax, esi
	cmp	ecx, -1
	mov	ecx, eax
	cmove	ecx, esi
	cmp	edx, 10
	mov	rdx, qword ptr [rsp + 120] 
	mov	qword ptr [rsp + 72], rdx
	cmovge	ecx, eax
	jmp	.LBB15_1
.LBB15_151:                             
	mov	rax, qword ptr [rsp + 128] 
	mov	qword ptr [rsp + 96], rax
	mov	rax, qword ptr [r12 + 8]
	sub	rax, qword ptr [r12]
	sar	rax, 2
	mov	rcx, qword ptr [rsp + 96]
	cmp	rcx, rax
	mov	ecx, 940314049
	mov	eax, -316775902
	cmove	ecx, eax
	jmp	.LBB15_1
.LBB15_152:                             
	mov	rax, qword ptr [rsp + 152] 
	mov	qword ptr [rsp + 104], rax
	mov	rax, qword ptr [r14 + 8]
	movabs	rcx, -3351861260877527811
	sub	rax, rcx
	sub	rax, qword ptr [r14]
	add	rax, rcx
	sar	rax, 2
	mov	rcx, qword ptr [rsp + 104]
	cmp	rcx, rax
	mov	ecx, 2137732689
	mov	eax, -1559694483
	cmove	ecx, eax
	jmp	.LBB15_1
.LBB15_142:                             
	mov	ecx, 1781786992
	mov	rax, qword ptr [rsp + 192]
	mov	qword ptr [rsp + 136], rax 
	jmp	.LBB15_1
.LBB15_156:                             
	mov	ecx, -741857111
	jmp	.LBB15_1
.LBB15_137:                             
	mov	rax, qword ptr [rsp + 136] 
	mov	qword ptr [rsp + 24], rax
	mov	rax, qword ptr [rsp + 48]
	shl	rax, 2
	movabs	rcx, -6680502717642178859
	sub	rax, rcx
	lea	rax, [rax + rcx + 4]
	mov	qword ptr [rsp + 176], rax
	mov	rax, qword ptr [rsp + 176]
	mov	rcx, qword ptr [rsp + 24]
	cmp	rcx, rax
	mov	ecx, -90272826
	mov	eax, 451516136
	cmovb	ecx, eax
	jmp	.LBB15_1
.LBB15_138:                             
	mov	rcx, qword ptr [rsp + 8]
	mov	rax, qword ptr [rsp + 24]
	movabs	rdx, 7709227789592074247
	sub	rax, rdx
	sub	rax, rcx
	add	rax, rdx
	mov	rcx, qword ptr [r12]
	mov	rbx, r15
	mov	r15d, dword ptr [rcx + 4*rax]
	xor	edx, edx
	div	qword ptr [rsp + 8]
	mov	eax, dword ptr [4*rax + _ZZN5Botan12_GLOBAL__N_116aes_key_scheduleEPKhmRSt6vectorIjNS_16secure_allocatorIjEEES7_bE2RC]
	mov	edx, eax
	not	edx
	and	edx, r15d
	not	r15d
	and	r15d, eax
	or	r15d, edx
	mov	rax, qword ptr [rsp + 24]
	mov	edi, dword ptr [rcx + 4*rax - 4]
	call	_ZN5Botan12_GLOBAL__N_17SE_wordEj
	mov	ecx, eax
	shl	ecx, 8
	shr	eax, 24
	mov	edx, ecx
	not	edx
	mov	esi, eax
	not	esi
	and	edx, -843732860
	and	ecx, 843732736
	or	ecx, edx
	and	esi, -843732860
	and	eax, 123
	or	eax, esi
	xor	eax, ecx
	mov	ecx, r15d
	not	ecx
	and	ecx, -1600116082
	and	r15d, 1600116081
	or	r15d, ecx
	mov	ecx, eax
	not	ecx
	and	ecx, -1600116082
	and	eax, 1600116081
	or	eax, ecx
	xor	eax, r15d
	mov	r15, rbx
	mov	rcx, qword ptr [rsp + 24]
	mov	rdx, qword ptr [r12]
	mov	dword ptr [rdx + 4*rcx], eax
	mov	eax, dword ptr [rip + x.44]
	mov	edx, dword ptr [rip + y.45]
	lea	ecx, [rax - 1]
	imul	ecx, eax
	not	ecx
	or	ecx, -2
	cmp	ecx, -1
	sete	al
	cmp	edx, 10
	setl	bl
	xor	bl, al
	mov	eax, 1147151997
	mov	esi, 1589891315
.LBB15_135:                             
	cmovne	eax, esi
	cmp	ecx, -1
	mov	ecx, eax
	cmove	ecx, esi
	cmp	edx, 10
	cmovge	ecx, eax
	jmp	.LBB15_1
.LBB15_158:                             
	mov	rax, qword ptr [rsp + 8]
	mov	rax, qword ptr [rsp + 24]
	mov	rax, qword ptr [rsp + 8]
	mov	rax, qword ptr [rsp + 8]
	mov	rax, qword ptr [rsp + 24]
	mov	rax, qword ptr [rsp + 8]
	mov	rcx, qword ptr [rsp + 8]
	mov	rax, qword ptr [rsp + 24]
	movabs	rdx, 1630511503117535696
	add	rax, rdx
	sub	rax, rcx
	sub	rax, rdx
	mov	rcx, qword ptr [r12]
	mov	ebp, dword ptr [rcx + 4*rax]
	mov	rdx, qword ptr [rsp + 8]
	mov	rdx, qword ptr [rsp + 8]
	mov	rdx, qword ptr [rsp + 8]
	mov	rdx, qword ptr [rsp + 8]
	mov	rdx, qword ptr [rsp + 8]
	xor	edx, edx
	div	qword ptr [rsp + 8]
	mov	eax, dword ptr [4*rax + _ZZN5Botan12_GLOBAL__N_116aes_key_scheduleEPKhmRSt6vectorIjNS_16secure_allocatorIjEEES7_bE2RC]
	mov	edx, eax
	not	edx
	and	edx, -595276976
	and	eax, 595276975
	or	eax, edx
	mov	edx, ebp
	not	edx
	and	edx, -595276976
	and	ebp, 595276975
	or	ebp, edx
	xor	ebp, eax
	mov	rax, qword ptr [rsp + 24]
	mov	rax, qword ptr [rsp + 24]
	mov	rax, qword ptr [rsp + 24]
	mov	rax, qword ptr [rsp + 24]
	mov	rax, qword ptr [rsp + 24]
	mov	rax, qword ptr [rsp + 24]
	movabs	rdx, -8443592069702084216
	sub	rax, rdx
	lea	rax, [rax + rdx - 1]
	mov	edi, dword ptr [rcx + 4*rax]
	call	_ZN5Botan12_GLOBAL__N_17SE_wordEj
	rol	eax, 8
	mov	ecx, ebp
	not	ecx
	and	ecx, eax
	not	eax
	and	eax, ebp
	or	eax, ecx
	mov	rcx, qword ptr [rsp + 24]
	mov	rdx, qword ptr [r12]
	mov	dword ptr [rdx + 4*rcx], eax
	mov	ecx, -1100577670
	jmp	.LBB15_1
.LBB15_127:                             
	movzx	eax, byte ptr [rsp + 44]
	movzx	ecx, byte ptr [rsp + 7]
	mov	edx, eax
	xor	dl, cl
	test	cl, cl
	mov	ecx, 290242767
	mov	esi, 1739525961
	cmovne	ecx, esi
	test	al, al
	mov	eax, 290242767
	cmove	ecx, eax
	test	dl, dl
	cmovne	ecx, esi
	jmp	.LBB15_1
.LBB15_136:                             
	mov	ecx, 1781786992
	mov	rax, qword ptr [rsp + 8]
	mov	qword ptr [rsp + 136], rax 
	jmp	.LBB15_1
.LBB15_159:                             
	mov	rax, qword ptr [rsp + 8]
	mov	rax, qword ptr [rsp + 24]
	mov	rax, qword ptr [rsp + 24]
	mov	rax, qword ptr [rsp + 8]
	mov	rax, qword ptr [rsp + 8]
	mov	rax, qword ptr [rsp + 24]
	mov	rax, qword ptr [rsp + 8]
	mov	rax, qword ptr [rsp + 24]
	mov	rax, qword ptr [rsp + 8]
	mov	rax, qword ptr [rsp + 8]
	mov	rax, qword ptr [rsp + 24]
	mov	ecx, 472705386
	jmp	.LBB15_1
.LBB15_7:                               
	cmp	ecx, -1820857191
	je	.LBB15_130

	cmp	ecx, -1783886508
	jne	.LBB15_1
	jmp	.LBB15_34
.LBB15_33:                              
	cmp	ecx, -900804478
	jne	.LBB15_1
.LBB15_34:
	mov	edi, .L.str.7
	mov	esi, .L.str.8
	mov	edx, .L__func__._ZN5Botan12_GLOBAL__N_116aes_key_scheduleEPKhmRSt6vectorIjNS_16secure_allocatorIjEEES7_b
	mov	ecx, .L.str.5
	mov	r8d, 697
	call	_ZN5Botan17assertion_failureEPKcS1_S1_S1_i
.LBB15_154:
	add	rsp, 216
	pop	rbx
	pop	r12
	pop	r13
	pop	r14
	pop	r15
	pop	rbp
	ret
.LBB15_130:
	mov	edi, .L.str.9
	mov	esi, .L.str.8
	mov	edx, .L__func__._ZN5Botan12_GLOBAL__N_116aes_key_scheduleEPKhmRSt6vectorIjNS_16secure_allocatorIjEEES7_b
	mov	ecx, .L.str.5
	mov	r8d, 702
	call	_ZN5Botan17assertion_failureEPKcS1_S1_S1_i
.Lfunc_end15:
	.size	_ZN5Botan12_GLOBAL__N_116aes_key_scheduleEPKhmRSt6vectorIjNS_16secure_allocatorIjEEES7_b, .Lfunc_end15-_ZN5Botan12_GLOBAL__N_116aes_key_scheduleEPKhmRSt6vectorIjNS_16secure_allocatorIjEEES7_b
	.cfi_endproc

	.globl	_ZN5Botan7AES_1285clearEv 
	.p2align	4, 0x90
	.type	_ZN5Botan7AES_1285clearEv,@function
_ZN5Botan7AES_1285clearEv:              
	.cfi_startproc

	push	rbp
.Lcfi142:
	.cfi_def_cfa_offset 16
	push	r15
.Lcfi143:
	.cfi_def_cfa_offset 24
	push	r14
.Lcfi144:
	.cfi_def_cfa_offset 32
	push	r12
.Lcfi145:
	.cfi_def_cfa_offset 40
	push	rbx
.Lcfi146:
	.cfi_def_cfa_offset 48
	sub	rsp, 16
.Lcfi147:
	.cfi_def_cfa_offset 64
.Lcfi148:
	.cfi_offset rbx, -48
.Lcfi149:
	.cfi_offset r12, -40
.Lcfi150:
	.cfi_offset r14, -32
.Lcfi151:
	.cfi_offset r15, -24
.Lcfi152:
	.cfi_offset rbp, -16
	mov	rbx, rdi
	mov	eax, dword ptr [rip + x.48]
	mov	ecx, dword ptr [rip + y.49]
	lea	edx, [rax - 1]
	imul	edx, eax
	not	edx
	or	edx, -2
	cmp	edx, -1
	sete	byte ptr [rsp + 14]
	cmp	ecx, 10
	setl	byte ptr [rsp + 15]
	lea	r14, [rbx + 8]
	add	rbx, 32
	mov	eax, -618887250
	mov	r12d, -227521216
	mov	r15d, -19312443
	mov	ebp, 360235662
	jmp	.LBB16_1
.LBB16_8:                               
	movzx	ecx, byte ptr [rsp + 14]
	movzx	eax, byte ptr [rsp + 15]
	mov	edx, ecx
	xor	dl, al
	mov	edx, -19312443
	cmovne	edx, r12d
	test	al, al
	mov	eax, edx
	cmovne	eax, r12d
	test	cl, cl
	cmove	eax, edx
	.p2align	4, 0x90
.LBB16_1:                               
	cmp	eax, -19312444
	jle	.LBB16_2

	cmp	eax, -19312443
	je	.LBB16_9

	cmp	eax, 360235662
	jne	.LBB16_1
	jmp	.LBB16_7
	.p2align	4, 0x90
.LBB16_2:                               
	cmp	eax, -618887250
	je	.LBB16_8

	cmp	eax, -227521216
	jne	.LBB16_1

	mov	rdi, r14
	call	_ZN5Botan3zapIjNS_16secure_allocatorIjEEEEvRSt6vectorIT_T0_E
	mov	rdi, rbx
	call	_ZN5Botan3zapIjNS_16secure_allocatorIjEEEEvRSt6vectorIT_T0_E
	mov	eax, dword ptr [rip + x.48]
	lea	ecx, [rax - 1]
	imul	ecx, eax
	not	ecx
	or	ecx, -2
	cmp	ecx, -1
	sete	cl
	mov	eax, -19312443
	cmove	eax, ebp
	cmp	dword ptr [rip + y.49], 10
	setl	dl
	cmovge	eax, r15d
	xor	dl, cl
	cmovne	eax, ebp
	jmp	.LBB16_1
.LBB16_9:                               
	mov	rdi, r14
	call	_ZN5Botan3zapIjNS_16secure_allocatorIjEEEEvRSt6vectorIT_T0_E
	mov	rdi, rbx
	call	_ZN5Botan3zapIjNS_16secure_allocatorIjEEEEvRSt6vectorIT_T0_E
	mov	eax, -227521216
	jmp	.LBB16_1
.LBB16_7:
	add	rsp, 16
	pop	rbx
	pop	r12
	pop	r14
	pop	r15
	pop	rbp
	ret
.Lfunc_end16:
	.size	_ZN5Botan7AES_1285clearEv, .Lfunc_end16-_ZN5Botan7AES_1285clearEv
	.cfi_endproc

	.section	.text._ZN5Botan3zapIjNS_16secure_allocatorIjEEEEvRSt6vectorIT_T0_E,"axG",@progbits,_ZN5Botan3zapIjNS_16secure_allocatorIjEEEEvRSt6vectorIT_T0_E,comdat
	.weak	_ZN5Botan3zapIjNS_16secure_allocatorIjEEEEvRSt6vectorIT_T0_E 
	.p2align	4, 0x90
	.type	_ZN5Botan3zapIjNS_16secure_allocatorIjEEEEvRSt6vectorIT_T0_E,@function
_ZN5Botan3zapIjNS_16secure_allocatorIjEEEEvRSt6vectorIT_T0_E: 
.Lfunc_begin4:
	.cfi_startproc
	.cfi_personality 3, __gxx_personality_v0
	.cfi_lsda 3, .Lexception4

	push	rbp
.Lcfi153:
	.cfi_def_cfa_offset 16
	push	r15
.Lcfi154:
	.cfi_def_cfa_offset 24
	push	r14
.Lcfi155:
	.cfi_def_cfa_offset 32
	push	r13
.Lcfi156:
	.cfi_def_cfa_offset 40
	push	r12
.Lcfi157:
	.cfi_def_cfa_offset 48
	push	rbx
.Lcfi158:
	.cfi_def_cfa_offset 56
	push	rax
.Lcfi159:
	.cfi_def_cfa_offset 64
.Lcfi160:
	.cfi_offset rbx, -56
.Lcfi161:
	.cfi_offset r12, -48
.Lcfi162:
	.cfi_offset r13, -40
.Lcfi163:
	.cfi_offset r14, -32
.Lcfi164:
	.cfi_offset r15, -24
.Lcfi165:
	.cfi_offset rbp, -16
	mov	r12, rdi
	mov	r14, qword ptr [r12]
	mov	r15, qword ptr [r12 + 8]
	mov	eax, dword ptr [rip + x.616]
	lea	ecx, [rax - 1]
	imul	ecx, eax
	not	ecx
	or	ecx, -2
	cmp	ecx, -1
	sete	byte ptr [rsp + 6]
	mov	eax, dword ptr [rip + y.617]
	cmp	eax, 10
	setl	byte ptr [rsp + 7]
	sub	r15, r14
	mov	eax, -910769281
	mov	ebx, -1617254994
	cmove	ebx, eax
	mov	eax, -417770535
	mov	ebp, 1396249782
	mov	r13d, -45264655
	jmp	.LBB17_1
.LBB17_13:                              
	mov	cl, byte ptr [rsp + 6]
	mov	al, byte ptr [rsp + 7]
	mov	edx, ecx
	xor	dl, al
	mov	edx, 733464223
	cmovne	edx, ebp
	test	al, al
	mov	eax, edx
	cmovne	eax, ebp
	test	cl, cl
	cmove	eax, edx
	.p2align	4, 0x90
.LBB17_1:                               


	cmp	eax, 733464222
	jg	.LBB17_6

	cmp	eax, -417770535
	je	.LBB17_13

	cmp	eax, -45264655
	jne	.LBB17_1
	jmp	.LBB17_4
	.p2align	4, 0x90
.LBB17_6:                               
	cmp	eax, 1396249782
	je	.LBB17_14

	cmp	eax, 733464223
	jne	.LBB17_1

	mov	eax, -310496795
	jmp	.LBB17_9
.LBB17_14:                              
	mov	eax, -310496795
	jmp	.LBB17_15
.LBB17_21:                              
	xor	esi, esi
	mov	rdi, r14
	mov	rdx, r15
	call	memset
	mov	eax, -910769281
	.p2align	4, 0x90
.LBB17_9:                               

	mov	ecx, eax
	and	ecx, 2147483647
	cmp	ecx, 530228654
	je	.LBB17_21

	cmp	ecx, 1236714367
	je	.LBB17_20

	cmp	ecx, 1836986853
	jne	.LBB17_9

	mov	eax, ebx
	jmp	.LBB17_9
.LBB17_20:                              
	mov	eax, 1396249782
	jmp	.LBB17_1
.LBB17_23:                              
	xor	esi, esi
	mov	rdi, r14
	mov	rdx, r15
	call	memset
	mov	eax, -910769281
	.p2align	4, 0x90
.LBB17_15:                              

	mov	ecx, eax
	and	ecx, 2147483647
	cmp	ecx, 530228654
	je	.LBB17_23

	cmp	ecx, 1236714367
	je	.LBB17_19

	cmp	ecx, 1836986853
	jne	.LBB17_15

	mov	eax, ebx
	jmp	.LBB17_15
.LBB17_19:                              
	mov	eax, dword ptr [rip + x.616]
	mov	ecx, eax
	neg	ecx
	not	ecx
	imul	ecx, eax
	not	ecx
	or	ecx, -2
	cmp	ecx, -1
	sete	cl
	mov	eax, 733464223
	cmove	eax, r13d
	cmp	dword ptr [rip + y.617], 10
	setl	dl
	mov	esi, 733464223
	cmovge	eax, esi
	xor	dl, cl
	cmovne	eax, r13d
	jmp	.LBB17_1
.LBB17_4:
	mov	rbx, qword ptr [r12]
	mov	rsi, qword ptr [r12 + 8]
.Ltmp17:
	mov	rdi, rbx
	mov	rdx, r12
	call	_ZSt8_DestroyIPjN5Botan16secure_allocatorIjEEEvT_S4_RT0_
.Ltmp18:

	mov	qword ptr [r12 + 8], rbx
	mov	rdi, r12
	add	rsp, 8
	pop	rbx
	pop	r12
	pop	r13
	pop	r14
	pop	r15
	pop	rbp
	jmp	_ZNSt6vectorIjN5Botan16secure_allocatorIjEEE16_M_shrink_to_fitEv 
.LBB17_22:
.Ltmp19:
	mov	rdi, rax
	call	__clang_call_terminate
.Lfunc_end17:
	.size	_ZN5Botan3zapIjNS_16secure_allocatorIjEEEEvRSt6vectorIT_T0_E, .Lfunc_end17-_ZN5Botan3zapIjNS_16secure_allocatorIjEEEEvRSt6vectorIT_T0_E
	.cfi_endproc
	.section	.gcc_except_table,"a",@progbits
	.p2align	2
GCC_except_table17:
.Lexception4:
	.byte	255                     
	.byte	3                       
	.asciz	"\242\200\200"          
	.byte	3                       
	.byte	26                      
	.long	.Lfunc_begin4-.Lfunc_begin4 
	.long	.Ltmp17-.Lfunc_begin4   
	.long	0                       
	.byte	0                       
	.long	.Ltmp17-.Lfunc_begin4   
	.long	.Ltmp18-.Ltmp17         
	.long	.Ltmp19-.Lfunc_begin4   
	.byte	1                       
	.byte	1                       

	.byte	0                       

	.long	0                       
	.p2align	2

	.text
	.globl	_ZNK5Botan7AES_1929encrypt_nEPKhPhm 
	.p2align	4, 0x90
	.type	_ZNK5Botan7AES_1929encrypt_nEPKhPhm,@function
_ZNK5Botan7AES_1929encrypt_nEPKhPhm:    
	.cfi_startproc

	push	rbp
.Lcfi166:
	.cfi_def_cfa_offset 16
	push	r15
.Lcfi167:
	.cfi_def_cfa_offset 24
	push	r14
.Lcfi168:
	.cfi_def_cfa_offset 32
	push	r13
.Lcfi169:
	.cfi_def_cfa_offset 40
	push	r12
.Lcfi170:
	.cfi_def_cfa_offset 48
	push	rbx
.Lcfi171:
	.cfi_def_cfa_offset 56
	sub	rsp, 24
.Lcfi172:
	.cfi_def_cfa_offset 80
.Lcfi173:
	.cfi_offset rbx, -56
.Lcfi174:
	.cfi_offset r12, -48
.Lcfi175:
	.cfi_offset r13, -40
.Lcfi176:
	.cfi_offset r14, -32
.Lcfi177:
	.cfi_offset r15, -24
.Lcfi178:
	.cfi_offset rbp, -16
	mov	r14, rcx
	mov	r15, rdx
	mov	r12, rsi
	mov	rbp, rdi
	mov	eax, dword ptr [rip + x.52]
	mov	ecx, dword ptr [rip + y.53]
	lea	edx, [rax - 1]
	imul	edx, eax
	not	edx
	or	edx, -2
	cmp	edx, -1
	sete	byte ptr [rsp + 9]
	cmp	ecx, 10
	setl	byte ptr [rsp + 10]
	lea	r13, [rbp + 8]
	mov	ecx, -1389750744
	jmp	.LBB18_1
.LBB18_44:                              
	cmovge	ecx, esi
	xor	dl, al
	cmovne	ecx, edi
	.p2align	4, 0x90
.LBB18_1:                               


	cmp	ecx, -173157479
	jle	.LBB18_2

	cmp	ecx, 320631855
	jg	.LBB18_30

	cmp	ecx, 213078105
	jg	.LBB18_27

	cmp	ecx, -173157478
	je	.LBB18_45

	cmp	ecx, -64166664
	jne	.LBB18_1

	mov	eax, dword ptr [rip + x.52]
	lea	ecx, [rax - 1]
	imul	ecx, eax
	not	ecx
	or	ecx, -2
	cmp	ecx, -1
	sete	al
	mov	ecx, -567674243
	mov	esi, 1292230251
	cmove	ecx, esi
	cmp	dword ptr [rip + y.53], 10
	setl	dl
	mov	edi, -567674243
	cmovge	ecx, edi
	xor	dl, al
	cmovne	ecx, esi
	jmp	.LBB18_1
	.p2align	4, 0x90
.LBB18_2:                               
	cmp	ecx, -567674244
	jle	.LBB18_3

	cmp	ecx, -457592406
	jg	.LBB18_15

	cmp	ecx, -567674243
	je	.LBB18_49

	cmp	ecx, -519298024
	jne	.LBB18_1

	mov	rdi, rbp
	mov	rsi, r12
	mov	rdx, r15
	mov	rcx, r14
	call	_ZNK5Botan7AES_19216hw_aes_encrypt_nEPKhPhm
	mov	ecx, 343832954
	jmp	.LBB18_1
	.p2align	4, 0x90
.LBB18_30:                              
	cmp	ecx, 484182941
	jle	.LBB18_31

	cmp	ecx, 484182942
	je	.LBB18_42

	cmp	ecx, 1292230251
	jne	.LBB18_1

	mov	rdi, rbp
	mov	rsi, r12
	mov	rdx, r15
	mov	rcx, r14
	call	_ZNK5Botan7AES_19215vperm_encrypt_nEPKhPhm
	mov	eax, dword ptr [rip + x.52]
	lea	ecx, [rax - 1]
	imul	ecx, eax
	not	ecx
	or	ecx, -2
	cmp	ecx, -1
	sete	al
	mov	ecx, -567674243
	mov	edi, 484182942
	cmove	ecx, edi
	cmp	dword ptr [rip + y.53], 10
	setl	dl
	mov	esi, -567674243
	jmp	.LBB18_44
	.p2align	4, 0x90
.LBB18_3:                               
	cmp	ecx, -1389750744
	je	.LBB18_37

	cmp	ecx, -1265944657
	je	.LBB18_46

	cmp	ecx, -603476265
	jne	.LBB18_1

	mov	qword ptr [rsp + 16], r13
	mov	rdi, qword ptr [rsp + 16]
	call	_ZNKSt6vectorIjN5Botan16secure_allocatorIjEEE5emptyEv
	xor	al, 1
	movzx	eax, al
	mov	dword ptr [rsp + 12], eax
	mov	eax, 42528849
	jmp	.LBB18_7
.LBB18_27:                              
	cmp	ecx, 213078106
	je	.LBB18_41

	cmp	ecx, 280518154
	jne	.LBB18_1

	mov	rcx, qword ptr [rsp + 16]
	mov	rdi, r12
	mov	rsi, r15
	mov	rdx, r14
	call	_ZN5Botan12_GLOBAL__N_113aes_encrypt_nEPKhPhmRKSt6vectorIjNS_16secure_allocatorIjEEE
	mov	ecx, -173157478
	jmp	.LBB18_1
.LBB18_15:                              
	cmp	ecx, -457592405
	je	.LBB18_40

	cmp	ecx, -205220398
	jne	.LBB18_1

	mov	rdi, r13
	call	_ZNKSt6vectorIjN5Botan16secure_allocatorIjEEE5emptyEv
	xor	al, 1
	movzx	eax, al
	mov	dword ptr [rsp + 12], eax
	mov	eax, 42528849
	jmp	.LBB18_18
.LBB18_31:                              
	cmp	ecx, 320631856
	je	.LBB18_43

	cmp	ecx, 343832954
	jne	.LBB18_1
	jmp	.LBB18_33
.LBB18_45:                              
	mov	rcx, qword ptr [rsp + 16]
	mov	rdi, r12
	mov	rsi, r15
	mov	rdx, r14
	call	_ZN5Botan12_GLOBAL__N_113aes_encrypt_nEPKhPhmRKSt6vectorIjNS_16secure_allocatorIjEEE
	mov	eax, dword ptr [rip + x.52]
	mov	edx, dword ptr [rip + y.53]
	lea	ecx, [rax - 1]
	imul	ecx, eax
	not	ecx
	or	ecx, -2
	cmp	ecx, -1
	sete	al
	cmp	edx, 10
	setl	bl
	xor	bl, al
	mov	eax, 280518154
	mov	esi, -1265944657
	cmovne	eax, esi
	cmp	ecx, -1
	mov	ecx, eax
	cmove	ecx, esi
	cmp	edx, 10
	cmovge	ecx, eax
	jmp	.LBB18_1
.LBB18_49:                              
	mov	rdi, rbp
	mov	rsi, r12
	mov	rdx, r15
	mov	rcx, r14
	call	_ZNK5Botan7AES_19215vperm_encrypt_nEPKhPhm
	mov	ecx, 1292230251
	jmp	.LBB18_1
.LBB18_42:                              
	mov	ecx, 343832954
	jmp	.LBB18_1
.LBB18_37:                              
	mov	al, byte ptr [rsp + 9]
	mov	cl, byte ptr [rsp + 10]
	mov	edx, eax
	xor	dl, cl
	test	cl, cl
	mov	ecx, -205220398
	mov	esi, -603476265
	cmovne	ecx, esi
	test	al, al
	mov	eax, -205220398
	cmove	ecx, eax
	test	dl, dl
	cmovne	ecx, esi
	jmp	.LBB18_1
.LBB18_46:                              
	mov	ecx, 343832954
	jmp	.LBB18_1
.LBB18_10:                              
	cmp	dword ptr [rsp + 12], 0
	mov	eax, 820142868
	mov	ecx, 1837750050
	cmove	eax, ecx
	.p2align	4, 0x90
.LBB18_7:                               

	mov	ecx, eax
	and	ecx, 2147483647
	cmp	ecx, 1837750050
	je	.LBB18_38

	cmp	ecx, 820142868
	je	.LBB18_39

	cmp	ecx, 42528849
	jne	.LBB18_7
	jmp	.LBB18_10
.LBB18_38:                              
	mov	rdi, rbp
	call	_ZNK5Botan18SymmetricAlgorithm23throw_key_not_set_errorEv
	mov	eax, 820142868
	jmp	.LBB18_7
.LBB18_41:                              
	mov	edi, 2
	call	_ZN5Botan5CPUID13has_cpuid_bitENS0_10CPUID_bitsE
	test	al, al
	mov	ecx, 320631856
	mov	eax, -64166664
	cmovne	ecx, eax
	jmp	.LBB18_1
.LBB18_40:                              
	mov	al, byte ptr [rsp + 11]
	test	al, al
	mov	ecx, 213078106
	mov	eax, -519298024
	cmovne	ecx, eax
	jmp	.LBB18_1
.LBB18_21:                              
	cmp	dword ptr [rsp + 12], 0
	mov	eax, 820142868
	mov	ecx, 1837750050
	cmove	eax, ecx
	.p2align	4, 0x90
.LBB18_18:                              

	mov	ecx, eax
	and	ecx, 2147483647
	cmp	ecx, 1837750050
	je	.LBB18_47

	cmp	ecx, 820142868
	je	.LBB18_48

	cmp	ecx, 42528849
	jne	.LBB18_18
	jmp	.LBB18_21
.LBB18_47:                              
	mov	rdi, rbp
	call	_ZNK5Botan18SymmetricAlgorithm23throw_key_not_set_errorEv
	mov	eax, 820142868
	jmp	.LBB18_18
.LBB18_43:                              
	mov	eax, dword ptr [rip + x.52]
	lea	ecx, [rax - 1]
	imul	ecx, eax
	not	ecx
	or	ecx, -2
	cmp	ecx, -1
	sete	al
	mov	ecx, 280518154
	mov	edi, -173157478
	cmove	ecx, edi
	cmp	dword ptr [rip + y.53], 10
	setl	dl
	mov	esi, 280518154
	jmp	.LBB18_44
.LBB18_39:                              
	mov	edi, 65536
	call	_ZN5Botan5CPUID13has_cpuid_bitENS0_10CPUID_bitsE
	mov	ecx, dword ptr [rip + x.52]
	mov	edi, dword ptr [rip + y.53]
	lea	esi, [rcx - 1]
	imul	esi, ecx
	mov	ecx, esi
	xor	ecx, -2
	and	ecx, esi
	sete	bl
	cmp	edi, 10
	setl	dl
	xor	dl, bl
	mov	edx, -205220398
	mov	esi, -457592405
	cmovne	edx, esi
	test	ecx, ecx
	mov	ecx, edx
	cmove	ecx, esi
	cmp	edi, 10
	mov	byte ptr [rsp + 11], al
	cmovge	ecx, edx
	jmp	.LBB18_1
.LBB18_48:                              
	mov	edi, 65536
	call	_ZN5Botan5CPUID13has_cpuid_bitENS0_10CPUID_bitsE
	mov	ecx, -603476265
	jmp	.LBB18_1
.LBB18_33:
	add	rsp, 24
	pop	rbx
	pop	r12
	pop	r13
	pop	r14
	pop	r15
	pop	rbp
	ret
.Lfunc_end18:
	.size	_ZNK5Botan7AES_1929encrypt_nEPKhPhm, .Lfunc_end18-_ZNK5Botan7AES_1929encrypt_nEPKhPhm
	.cfi_endproc

	.globl	_ZNK5Botan7AES_1929decrypt_nEPKhPhm 
	.p2align	4, 0x90
	.type	_ZNK5Botan7AES_1929decrypt_nEPKhPhm,@function
_ZNK5Botan7AES_1929decrypt_nEPKhPhm:    
	.cfi_startproc

	push	rbp
.Lcfi179:
	.cfi_def_cfa_offset 16
	push	r15
.Lcfi180:
	.cfi_def_cfa_offset 24
	push	r14
.Lcfi181:
	.cfi_def_cfa_offset 32
	push	r13
.Lcfi182:
	.cfi_def_cfa_offset 40
	push	r12
.Lcfi183:
	.cfi_def_cfa_offset 48
	push	rbx
.Lcfi184:
	.cfi_def_cfa_offset 56
	sub	rsp, 24
.Lcfi185:
	.cfi_def_cfa_offset 80
.Lcfi186:
	.cfi_offset rbx, -56
.Lcfi187:
	.cfi_offset r12, -48
.Lcfi188:
	.cfi_offset r13, -40
.Lcfi189:
	.cfi_offset r14, -32
.Lcfi190:
	.cfi_offset r15, -24
.Lcfi191:
	.cfi_offset rbp, -16
	mov	r14, rcx
	mov	r15, rdx
	mov	r12, rsi
	mov	rbp, rdi
	mov	eax, dword ptr [rip + x.54]
	mov	ecx, dword ptr [rip + y.55]
	lea	edx, [rax - 1]
	imul	edx, eax
	mov	eax, edx
	xor	eax, -2
	test	eax, edx
	sete	byte ptr [rsp + 9]
	cmp	ecx, 10
	setl	byte ptr [rsp + 10]
	lea	r13, [rbp + 32]
	mov	eax, -1481159831
	jmp	.LBB19_1
.LBB19_22:                              
	cmovge	eax, edi
	xor	dl, cl
	cmovne	eax, esi
	.p2align	4, 0x90
.LBB19_1:                               


	cmp	eax, 26000289
	jg	.LBB19_26

	cmp	eax, -1371240403
	jg	.LBB19_18

	cmp	eax, -1481159832
	jg	.LBB19_11

	cmp	eax, -1994041503
	je	.LBB19_41

	cmp	eax, -1869350171
	jne	.LBB19_1

	mov	qword ptr [rsp + 16], r13
	mov	rdi, qword ptr [rsp + 16]
	call	_ZNKSt6vectorIjN5Botan16secure_allocatorIjEEE5emptyEv
	xor	al, 1
	movzx	eax, al
	mov	dword ptr [rsp + 12], eax
	mov	eax, 42528849
	jmp	.LBB19_7
	.p2align	4, 0x90
.LBB19_26:                              
	cmp	eax, 817627531
	jle	.LBB19_27

	cmp	eax, 1211019682
	jg	.LBB19_35

	cmp	eax, 817627532
	je	.LBB19_44

	cmp	eax, 860916938
	jne	.LBB19_1

	mov	eax, -1033921126
	jmp	.LBB19_1
	.p2align	4, 0x90
.LBB19_18:                              
	cmp	eax, -1033921127
	jg	.LBB19_23

	cmp	eax, -1371240402
	je	.LBB19_45

	cmp	eax, -1255046589
	jne	.LBB19_1

	mov	eax, dword ptr [rip + x.54]
	lea	ecx, [rax - 1]
	imul	ecx, eax
	mov	eax, ecx
	xor	eax, -2
	and	eax, ecx
	sete	cl
	test	eax, eax
	mov	eax, -225308401
	mov	esi, 2015939491
	cmove	eax, esi
	cmp	dword ptr [rip + y.55], 10
	setl	dl
	mov	edi, -225308401
	jmp	.LBB19_22
	.p2align	4, 0x90
.LBB19_27:                              
	cmp	eax, 26000290
	je	.LBB19_43

	cmp	eax, 343555782
	je	.LBB19_48

	cmp	eax, 642187016
	jne	.LBB19_1

	mov	edi, 2
	call	_ZN5Botan5CPUID13has_cpuid_bitENS0_10CPUID_bitsE
	test	al, al
	mov	eax, -1255046589
	mov	ecx, -1371240402
	cmovne	eax, ecx
	jmp	.LBB19_1
.LBB19_11:                              
	cmp	eax, -1481159831
	je	.LBB19_38

	cmp	eax, -1415224610
	jne	.LBB19_1

	mov	rdi, r13
	call	_ZNKSt6vectorIjN5Botan16secure_allocatorIjEEE5emptyEv
	xor	al, 1
	movzx	eax, al
	mov	dword ptr [rsp + 12], eax
	mov	eax, 42528849
	jmp	.LBB19_14
.LBB19_35:                              
	cmp	eax, 1211019683
	je	.LBB19_42

	cmp	eax, 2015939491
	jne	.LBB19_1

	mov	rcx, qword ptr [rsp + 16]
	mov	rdi, r12
	mov	rsi, r15
	mov	rdx, r14
	call	_ZN5Botan12_GLOBAL__N_113aes_decrypt_nEPKhPhmRKSt6vectorIjNS_16secure_allocatorIjEEE
	mov	eax, dword ptr [rip + x.54]
	lea	ecx, [rax - 1]
	imul	ecx, eax
	mov	eax, ecx
	xor	eax, -2
	and	eax, ecx
	sete	cl
	test	eax, eax
	mov	eax, -225308401
	mov	edi, 860916938
	cmove	eax, edi
	cmp	dword ptr [rip + y.55], 10
	setl	dl
	mov	esi, -225308401
	cmovge	eax, esi
	xor	dl, cl
	cmovne	eax, edi
	jmp	.LBB19_1
.LBB19_23:                              
	cmp	eax, -225308401
	je	.LBB19_49

	cmp	eax, -1033921126
	jne	.LBB19_1
	jmp	.LBB19_25
.LBB19_41:                              
	mov	al, byte ptr [rsp + 11]
	test	al, al
	mov	eax, 642187016
	mov	ecx, 1211019683
	cmovne	eax, ecx
	jmp	.LBB19_1
.LBB19_10:                              
	cmp	dword ptr [rsp + 12], 0
	mov	eax, 820142868
	mov	ecx, 1837750050
	cmove	eax, ecx
	.p2align	4, 0x90
.LBB19_7:                               

	mov	ecx, eax
	and	ecx, 2147483647
	cmp	ecx, 1837750050
	je	.LBB19_39

	cmp	ecx, 820142868
	je	.LBB19_40

	cmp	ecx, 42528849
	jne	.LBB19_7
	jmp	.LBB19_10
.LBB19_39:                              
	mov	rdi, rbp
	call	_ZNK5Botan18SymmetricAlgorithm23throw_key_not_set_errorEv
	mov	eax, 820142868
	jmp	.LBB19_7
.LBB19_44:                              
	mov	eax, -1033921126
	jmp	.LBB19_1
.LBB19_45:                              
	mov	rdi, rbp
	mov	rsi, r12
	mov	rdx, r15
	mov	rcx, r14
	call	_ZNK5Botan7AES_19215vperm_decrypt_nEPKhPhm
	mov	eax, -1033921126
	jmp	.LBB19_1
.LBB19_43:                              
	mov	rdi, rbp
	mov	rsi, r12
	mov	rdx, r15
	mov	rcx, r14
	call	_ZNK5Botan7AES_19216hw_aes_decrypt_nEPKhPhm
	mov	eax, dword ptr [rip + x.54]
	mov	ecx, dword ptr [rip + y.55]
	lea	edx, [rax - 1]
	imul	edx, eax
	not	edx
	or	edx, -2
	cmp	edx, -1
	sete	al
	cmp	ecx, 10
	setl	bl
	xor	bl, al
	mov	esi, 343555782
	mov	edi, 817627532
	cmovne	esi, edi
	cmp	edx, -1
	mov	eax, esi
	cmove	eax, edi
	cmp	ecx, 10
	cmovge	eax, esi
	jmp	.LBB19_1
.LBB19_48:                              
	mov	rdi, rbp
	mov	rsi, r12
	mov	rdx, r15
	mov	rcx, r14
	call	_ZNK5Botan7AES_19216hw_aes_decrypt_nEPKhPhm
	mov	eax, 26000290
	jmp	.LBB19_1
.LBB19_38:                              
	mov	cl, byte ptr [rsp + 9]
	mov	al, byte ptr [rsp + 10]
	mov	edx, ecx
	xor	dl, al
	mov	edx, -1415224610
	mov	esi, -1869350171
	cmovne	edx, esi
	test	al, al
	mov	eax, edx
	cmovne	eax, esi
	test	cl, cl
	cmove	eax, edx
	jmp	.LBB19_1
.LBB19_17:                              
	cmp	dword ptr [rsp + 12], 0
	mov	eax, 820142868
	mov	ecx, 1837750050
	cmove	eax, ecx
	.p2align	4, 0x90
.LBB19_14:                              

	mov	ecx, eax
	and	ecx, 2147483647
	cmp	ecx, 1837750050
	je	.LBB19_46

	cmp	ecx, 820142868
	je	.LBB19_47

	cmp	ecx, 42528849
	jne	.LBB19_14
	jmp	.LBB19_17
.LBB19_46:                              
	mov	rdi, rbp
	call	_ZNK5Botan18SymmetricAlgorithm23throw_key_not_set_errorEv
	mov	eax, 820142868
	jmp	.LBB19_14
.LBB19_42:                              
	mov	eax, dword ptr [rip + x.54]
	mov	ecx, dword ptr [rip + y.55]
	lea	edx, [rax - 1]
	imul	edx, eax
	mov	eax, edx
	xor	eax, -2
	and	eax, edx
	sete	dl
	cmp	ecx, 10
	setl	bl
	xor	bl, dl
	mov	edx, 343555782
	mov	esi, 26000290
	cmovne	edx, esi
	test	eax, eax
	mov	eax, edx
	cmove	eax, esi
	cmp	ecx, 10
	cmovge	eax, edx
	jmp	.LBB19_1
.LBB19_49:                              
	mov	rcx, qword ptr [rsp + 16]
	mov	rdi, r12
	mov	rsi, r15
	mov	rdx, r14
	call	_ZN5Botan12_GLOBAL__N_113aes_decrypt_nEPKhPhmRKSt6vectorIjNS_16secure_allocatorIjEEE
	mov	eax, 2015939491
	jmp	.LBB19_1
.LBB19_40:                              
	mov	edi, 65536
	call	_ZN5Botan5CPUID13has_cpuid_bitENS0_10CPUID_bitsE
	mov	byte ptr [rsp + 11], al
	mov	eax, dword ptr [rip + x.54]
	lea	ecx, [rax - 1]
	imul	ecx, eax
	mov	eax, ecx
	xor	eax, -2
	and	eax, ecx
	sete	cl
	test	eax, eax
	mov	eax, -1415224610
	mov	esi, -1994041503
	cmove	eax, esi
	cmp	dword ptr [rip + y.55], 10
	setl	dl
	mov	edi, -1415224610
	jmp	.LBB19_22
.LBB19_47:                              
	mov	edi, 65536
	call	_ZN5Botan5CPUID13has_cpuid_bitENS0_10CPUID_bitsE
	mov	eax, -1869350171
	jmp	.LBB19_1
.LBB19_25:
	add	rsp, 24
	pop	rbx
	pop	r12
	pop	r13
	pop	r14
	pop	r15
	pop	rbp
	ret
.Lfunc_end19:
	.size	_ZNK5Botan7AES_1929decrypt_nEPKhPhm, .Lfunc_end19-_ZNK5Botan7AES_1929decrypt_nEPKhPhm
	.cfi_endproc

	.globl	_ZN5Botan7AES_19212key_scheduleEPKhm 
	.p2align	4, 0x90
	.type	_ZN5Botan7AES_19212key_scheduleEPKhm,@function
_ZN5Botan7AES_19212key_scheduleEPKhm:   
	.cfi_startproc

	push	rbp
.Lcfi192:
	.cfi_def_cfa_offset 16
	push	r15
.Lcfi193:
	.cfi_def_cfa_offset 24
	push	r14
.Lcfi194:
	.cfi_def_cfa_offset 32
	push	r13
.Lcfi195:
	.cfi_def_cfa_offset 40
	push	r12
.Lcfi196:
	.cfi_def_cfa_offset 48
	push	rbx
.Lcfi197:
	.cfi_def_cfa_offset 56
	push	rax
.Lcfi198:
	.cfi_def_cfa_offset 64
.Lcfi199:
	.cfi_offset rbx, -56
.Lcfi200:
	.cfi_offset r12, -48
.Lcfi201:
	.cfi_offset r13, -40
.Lcfi202:
	.cfi_offset r14, -32
.Lcfi203:
	.cfi_offset r15, -24
.Lcfi204:
	.cfi_offset rbp, -16
	mov	r14, rdx
	mov	rbp, rsi
	mov	r15, rdi
	lea	r12, [r15 + 8]
	lea	r13, [r15 + 32]
	mov	eax, 69149102
	jmp	.LBB20_1
.LBB20_30:                              
	mov	rdi, rbp
	mov	rsi, r14
	mov	rdx, r12
	mov	rcx, r13
	call	_ZN5Botan12_GLOBAL__N_116aes_key_scheduleEPKhmRSt6vectorIjNS_16secure_allocatorIjEEES7_b
	mov	eax, -54709469
	.p2align	4, 0x90
.LBB20_1:                               
	cmp	eax, -150557215
	jg	.LBB20_21

	cmp	eax, -1346724599
	jle	.LBB20_3

	cmp	eax, -427558807
	jg	.LBB20_15

	cmp	eax, -1346724598
	je	.LBB20_36

	cmp	eax, -873681012
	jne	.LBB20_1

	movzx	eax, byte ptr [rsp + 7]
	test	al, al
	mov	eax, 2063174031
	jne	.LBB20_1

	mov	eax, -1485559847
	jmp	.LBB20_1
	.p2align	4, 0x90
.LBB20_21:                              
	cmp	eax, 925500070
	jle	.LBB20_22

	cmp	eax, 2063174030
	jg	.LBB20_31

	cmp	eax, 925500071
	je	.LBB20_35

	cmp	eax, 1084804822
	jne	.LBB20_1

	mov	r8d, 1
	jmp	.LBB20_30
	.p2align	4, 0x90
.LBB20_3:                               
	cmp	eax, -1756950306
	je	.LBB20_34

	cmp	eax, -1485559847
	je	.LBB20_41

	cmp	eax, -1481009515
	jne	.LBB20_1

	mov	eax, dword ptr [rip + x.56]
	mov	ecx, dword ptr [rip + y.57]
	lea	edx, [rax - 1]
	imul	edx, eax
	not	edx
	or	edx, -2
	cmp	edx, -1
	sete	bl
	mov	eax, -1346724598
	mov	edx, -427558806
	mov	esi, -1346724598
	je	.LBB20_8

	mov	esi, -427558806
.LBB20_8:                               
	cmp	ecx, 10
	setl	cl
	cmovl	edx, esi
	xor	cl, bl
	jne	.LBB20_1

	mov	eax, edx
	jmp	.LBB20_1
	.p2align	4, 0x90
.LBB20_22:                              
	cmp	eax, -150557214
	je	.LBB20_48

	cmp	eax, -54709469
	je	.LBB20_42

	cmp	eax, 69149102
	jne	.LBB20_1

	mov	edi, 65536
	call	_ZN5Botan5CPUID13has_cpuid_bitENS0_10CPUID_bitsE
	test	al, al
	mov	eax, 925500071
	mov	ecx, -1756950306
	cmovne	eax, ecx
	jmp	.LBB20_1
.LBB20_15:                              
	cmp	eax, -427558806
	je	.LBB20_47

	cmp	eax, -323059393
	jne	.LBB20_1

	mov	eax, dword ptr [rip + x.56]
	mov	ecx, dword ptr [rip + y.57]
	mov	edx, eax
	neg	edx
	not	edx
	imul	edx, eax
	not	edx
	or	edx, -2
	cmp	edx, -1
	sete	bl
	mov	eax, 2084831322
	mov	edx, -150557214
	mov	esi, 2084831322
	je	.LBB20_19

	mov	esi, -150557214
.LBB20_19:                              
	cmp	ecx, 10
	setl	cl
	cmovl	edx, esi
	xor	cl, bl
	jne	.LBB20_1

	mov	eax, edx
	jmp	.LBB20_1
.LBB20_31:                              
	cmp	eax, 2063174031
	je	.LBB20_40

	cmp	eax, 2084831322
	jne	.LBB20_1
	jmp	.LBB20_33
.LBB20_36:                              
	mov	edi, 2
	call	_ZN5Botan5CPUID13has_cpuid_bitENS0_10CPUID_bitsE
	mov	byte ptr [rsp + 7], al
	mov	eax, dword ptr [rip + x.56]
	mov	ecx, dword ptr [rip + y.57]
	lea	edx, [rax - 1]
	imul	edx, eax
	mov	eax, edx
	xor	eax, -2
	and	eax, edx
	sete	bl
	test	eax, eax
	mov	eax, -873681012
	mov	edx, -427558806
	mov	esi, -873681012
	je	.LBB20_38

	mov	esi, -427558806
.LBB20_38:                              
	cmp	ecx, 10
	setl	cl
	cmovl	edx, esi
	xor	cl, bl
	jne	.LBB20_1

	mov	eax, edx
	jmp	.LBB20_1
.LBB20_35:                              
	mov	edi, 65536
	call	_ZN5Botan5CPUID13has_cpuid_bitENS0_10CPUID_bitsE
	test	al, al
	mov	eax, -1481009515
	mov	ecx, 1084804822
	cmovne	eax, ecx
	jmp	.LBB20_1
.LBB20_34:                              
	mov	rdi, r15
	mov	rsi, rbp
	mov	rdx, r14
	call	_ZN5Botan7AES_19218aesni_key_scheduleEPKhm
	mov	eax, -54709469
	jmp	.LBB20_1
.LBB20_41:                              
	xor	r8d, r8d
	jmp	.LBB20_30
.LBB20_48:                              
	mov	eax, -323059393
	jmp	.LBB20_1
.LBB20_42:                              
	mov	eax, dword ptr [rip + x.56]
	mov	ecx, dword ptr [rip + y.57]
	lea	esi, [rax - 1]
	imul	esi, eax
	mov	edx, esi
	xor	edx, -2
	and	edx, esi
	sete	al
	cmp	ecx, 10
	setl	bl
	xor	bl, al
	mov	esi, -323059393
	mov	eax, -323059393
	jne	.LBB20_44

	mov	eax, -150557214
.LBB20_44:                              
	test	edx, edx
	je	.LBB20_46

	mov	esi, eax
.LBB20_46:                              
	cmp	ecx, 10
	cmovl	eax, esi
	jmp	.LBB20_1
.LBB20_47:                              
	mov	edi, 2
	call	_ZN5Botan5CPUID13has_cpuid_bitENS0_10CPUID_bitsE
	mov	eax, -1346724598
	jmp	.LBB20_1
.LBB20_40:                              
	mov	rdi, r15
	mov	rsi, rbp
	mov	rdx, r14
	call	_ZN5Botan7AES_19218vperm_key_scheduleEPKhm
	mov	eax, -54709469
	jmp	.LBB20_1
.LBB20_33:
	add	rsp, 8
	pop	rbx
	pop	r12
	pop	r13
	pop	r14
	pop	r15
	pop	rbp
	ret
.Lfunc_end20:
	.size	_ZN5Botan7AES_19212key_scheduleEPKhm, .Lfunc_end20-_ZN5Botan7AES_19212key_scheduleEPKhm
	.cfi_endproc

	.globl	_ZN5Botan7AES_1925clearEv 
	.p2align	4, 0x90
	.type	_ZN5Botan7AES_1925clearEv,@function
_ZN5Botan7AES_1925clearEv:              
	.cfi_startproc

	push	rbx
.Lcfi205:
	.cfi_def_cfa_offset 16
.Lcfi206:
	.cfi_offset rbx, -16
	mov	rbx, rdi
	lea	rdi, [rbx + 8]
	call	_ZN5Botan3zapIjNS_16secure_allocatorIjEEEEvRSt6vectorIT_T0_E
	add	rbx, 32
	mov	rdi, rbx
	pop	rbx
	jmp	_ZN5Botan3zapIjNS_16secure_allocatorIjEEEEvRSt6vectorIT_T0_E 
.Lfunc_end21:
	.size	_ZN5Botan7AES_1925clearEv, .Lfunc_end21-_ZN5Botan7AES_1925clearEv
	.cfi_endproc

	.globl	_ZNK5Botan7AES_2569encrypt_nEPKhPhm 
	.p2align	4, 0x90
	.type	_ZNK5Botan7AES_2569encrypt_nEPKhPhm,@function
_ZNK5Botan7AES_2569encrypt_nEPKhPhm:    
	.cfi_startproc

	push	rbp
.Lcfi207:
	.cfi_def_cfa_offset 16
	push	r15
.Lcfi208:
	.cfi_def_cfa_offset 24
	push	r14
.Lcfi209:
	.cfi_def_cfa_offset 32
	push	r13
.Lcfi210:
	.cfi_def_cfa_offset 40
	push	r12
.Lcfi211:
	.cfi_def_cfa_offset 48
	push	rbx
.Lcfi212:
	.cfi_def_cfa_offset 56
	sub	rsp, 24
.Lcfi213:
	.cfi_def_cfa_offset 80
.Lcfi214:
	.cfi_offset rbx, -56
.Lcfi215:
	.cfi_offset r12, -48
.Lcfi216:
	.cfi_offset r13, -40
.Lcfi217:
	.cfi_offset r14, -32
.Lcfi218:
	.cfi_offset r15, -24
.Lcfi219:
	.cfi_offset rbp, -16
	mov	r14, rcx
	mov	r15, rdx
	mov	r12, rsi
	mov	rbx, rdi
	lea	rax, [rbx + 8]
	mov	qword ptr [rsp + 16], rax
	mov	rdi, qword ptr [rsp + 16]
	call	_ZNKSt6vectorIjN5Botan16secure_allocatorIjEEE5emptyEv
	xor	al, 1
	movzx	eax, al
	mov	dword ptr [rsp + 12], eax
	mov	eax, 42528849
	mov	ebp, 1837750050
	jmp	.LBB22_1
.LBB22_4:                               
	cmp	dword ptr [rsp + 12], 0
	mov	eax, 820142868
	cmove	eax, ebp
	.p2align	4, 0x90
.LBB22_1:                               
	mov	ecx, eax
	and	ecx, 2147483647
	cmp	ecx, 1837750050
	je	.LBB22_5

	cmp	ecx, 820142868
	je	.LBB22_6

	cmp	ecx, 42528849
	jne	.LBB22_1
	jmp	.LBB22_4
.LBB22_5:                               
	mov	rdi, rbx
	call	_ZNK5Botan18SymmetricAlgorithm23throw_key_not_set_errorEv
	mov	eax, 820142868
	jmp	.LBB22_1
.LBB22_6:
	mov	eax, -1113306075
	mov	r13d, 494670450
	mov	ebp, -1245938726
	jmp	.LBB22_7
.LBB22_11:                              
	mov	edi, 65536
	call	_ZN5Botan5CPUID13has_cpuid_bitENS0_10CPUID_bitsE
	test	al, al
	mov	eax, 428279884
	cmovne	eax, r13d
	.p2align	4, 0x90
.LBB22_7:                               
	cmp	eax, -457097974
	jg	.LBB22_12

	cmp	eax, -2106253410
	je	.LBB22_19

	cmp	eax, -1245938726
	je	.LBB22_17

	cmp	eax, -1113306075
	jne	.LBB22_7
	jmp	.LBB22_11
	.p2align	4, 0x90
.LBB22_12:                              
	cmp	eax, -457097973
	je	.LBB22_18

	cmp	eax, 428279884
	je	.LBB22_16

	cmp	eax, 494670450
	jne	.LBB22_7

	mov	rdi, rbx
	mov	rsi, r12
	mov	rdx, r15
	mov	rcx, r14
	call	_ZNK5Botan7AES_25616hw_aes_encrypt_nEPKhPhm
	mov	eax, -2106253410
	jmp	.LBB22_7
.LBB22_17:                              
	mov	rdi, rbx
	mov	rsi, r12
	mov	rdx, r15
	mov	rcx, r14
	call	_ZNK5Botan7AES_25615vperm_encrypt_nEPKhPhm
	mov	eax, -2106253410
	jmp	.LBB22_7
.LBB22_18:                              
	mov	rcx, qword ptr [rsp + 16]
	mov	rdi, r12
	mov	rsi, r15
	mov	rdx, r14
	call	_ZN5Botan12_GLOBAL__N_113aes_encrypt_nEPKhPhmRKSt6vectorIjNS_16secure_allocatorIjEEE
	mov	eax, -2106253410
	jmp	.LBB22_7
.LBB22_16:                              
	mov	edi, 2
	call	_ZN5Botan5CPUID13has_cpuid_bitENS0_10CPUID_bitsE
	test	al, al
	mov	eax, -457097973
	cmovne	eax, ebp
	jmp	.LBB22_7
.LBB22_19:
	add	rsp, 24
	pop	rbx
	pop	r12
	pop	r13
	pop	r14
	pop	r15
	pop	rbp
	ret
.Lfunc_end22:
	.size	_ZNK5Botan7AES_2569encrypt_nEPKhPhm, .Lfunc_end22-_ZNK5Botan7AES_2569encrypt_nEPKhPhm
	.cfi_endproc

	.globl	_ZNK5Botan7AES_2569decrypt_nEPKhPhm 
	.p2align	4, 0x90
	.type	_ZNK5Botan7AES_2569decrypt_nEPKhPhm,@function
_ZNK5Botan7AES_2569decrypt_nEPKhPhm:    
	.cfi_startproc

	push	rbp
.Lcfi220:
	.cfi_def_cfa_offset 16
	push	r15
.Lcfi221:
	.cfi_def_cfa_offset 24
	push	r14
.Lcfi222:
	.cfi_def_cfa_offset 32
	push	r13
.Lcfi223:
	.cfi_def_cfa_offset 40
	push	r12
.Lcfi224:
	.cfi_def_cfa_offset 48
	push	rbx
.Lcfi225:
	.cfi_def_cfa_offset 56
	sub	rsp, 24
.Lcfi226:
	.cfi_def_cfa_offset 80
.Lcfi227:
	.cfi_offset rbx, -56
.Lcfi228:
	.cfi_offset r12, -48
.Lcfi229:
	.cfi_offset r13, -40
.Lcfi230:
	.cfi_offset r14, -32
.Lcfi231:
	.cfi_offset r15, -24
.Lcfi232:
	.cfi_offset rbp, -16
	mov	eax, dword ptr [rip + x.62]
	lea	ebp, [rax - 1]
	imul	ebp, eax
	not	ebp
	or	ebp, -2
	cmp	ebp, -1
	sete	byte ptr [rsp + 9]
	mov	eax, dword ptr [rip + y.63]
	cmp	eax, 10
	setl	byte ptr [rsp + 10]
	mov	r14, rcx
	mov	r15, rdx
	mov	r12, rsi
	mov	rbp, rdi
	lea	r13, [rbp + 32]
	mov	ecx, 1183978158
	mov	ebx, -1543346820
	jmp	.LBB23_1
.LBB23_39:                              
	mov	ecx, -1137076898
	.p2align	4, 0x90
.LBB23_1:                               


	cmp	ecx, 725239206
	jg	.LBB23_15

	cmp	ecx, -1137076899
	jg	.LBB23_7

	cmp	ecx, -2118046862
	je	.LBB23_30

	cmp	ecx, -1543346820
	je	.LBB23_39

	cmp	ecx, -1203732316
	jne	.LBB23_1

	mov	edi, 2
	call	_ZN5Botan5CPUID13has_cpuid_bitENS0_10CPUID_bitsE
	test	al, al
	mov	ecx, -603625705
	mov	eax, 1893618352
	cmovne	ecx, eax
	jmp	.LBB23_1
	.p2align	4, 0x90
.LBB23_15:                              
	cmp	ecx, 1442643080
	jle	.LBB23_16

	cmp	ecx, 1442643081
	je	.LBB23_32

	cmp	ecx, 1823366155
	je	.LBB23_28

	cmp	ecx, 1893618352
	jne	.LBB23_1

	mov	rdi, rbp
	mov	rsi, r12
	mov	rdx, r15
	mov	rcx, r14
	call	_ZNK5Botan7AES_25615vperm_decrypt_nEPKhPhm
	mov	ecx, -2118046862
	jmp	.LBB23_1
	.p2align	4, 0x90
.LBB23_7:                               
	cmp	ecx, -1137076898
	je	.LBB23_31

	cmp	ecx, -603625705
	je	.LBB23_29

	cmp	ecx, 645408351
	jne	.LBB23_1

	mov	qword ptr [rsp + 16], r13
	mov	rdi, qword ptr [rsp + 16]
	call	_ZNKSt6vectorIjN5Botan16secure_allocatorIjEEE5emptyEv
	xor	al, 1
	movzx	eax, al
	mov	dword ptr [rsp + 12], eax
	mov	eax, 42528849
	jmp	.LBB23_11
	.p2align	4, 0x90
.LBB23_16:                              
	cmp	ecx, 1183978158
	je	.LBB23_24

	cmp	ecx, 1439470799
	je	.LBB23_27

	cmp	ecx, 725239207
	jne	.LBB23_1
	jmp	.LBB23_19
.LBB23_30:                              
	mov	eax, dword ptr [rip + x.62]
	lea	ecx, [rax - 1]
	imul	ecx, eax
	mov	eax, ecx
	xor	eax, -2
	and	eax, ecx
	sete	dl
	test	eax, eax
	mov	ecx, -1543346820
	mov	esi, -1137076898
	cmove	ecx, esi
	cmp	dword ptr [rip + y.63], 10
	setl	al
	cmovge	ecx, ebx
	xor	al, dl
	cmovne	ecx, esi
	jmp	.LBB23_1
.LBB23_32:                              
	mov	rdi, r13
	call	_ZNKSt6vectorIjN5Botan16secure_allocatorIjEEE5emptyEv
	xor	al, 1
	movzx	eax, al
	mov	dword ptr [rsp + 12], eax
	mov	eax, 42528849
	jmp	.LBB23_33
.LBB23_28:                              
	mov	rdi, rbp
	mov	rsi, r12
	mov	rdx, r15
	mov	rcx, r14
	call	_ZNK5Botan7AES_25616hw_aes_decrypt_nEPKhPhm
	mov	ecx, -2118046862
	jmp	.LBB23_1
.LBB23_31:                              
	mov	eax, dword ptr [rip + x.62]
	lea	ecx, [rax - 1]
	imul	ecx, eax
	not	ecx
	or	ecx, -2
	cmp	ecx, -1
	sete	al
	mov	ecx, -1543346820
	mov	esi, 725239207
	cmove	ecx, esi
	cmp	dword ptr [rip + y.63], 10
	setl	dl
	cmovge	ecx, ebx
	xor	dl, al
	cmovne	ecx, esi
	jmp	.LBB23_1
.LBB23_29:                              
	mov	rcx, qword ptr [rsp + 16]
	mov	rdi, r12
	mov	rsi, r15
	mov	rdx, r14
	call	_ZN5Botan12_GLOBAL__N_113aes_decrypt_nEPKhPhmRKSt6vectorIjNS_16secure_allocatorIjEEE
	mov	ecx, -2118046862
	jmp	.LBB23_1
.LBB23_14:                              
	cmp	dword ptr [rsp + 12], 0
	mov	eax, 820142868
	mov	ecx, 1837750050
	cmove	eax, ecx
	.p2align	4, 0x90
.LBB23_11:                              

	mov	ecx, eax
	and	ecx, 2147483647
	cmp	ecx, 1837750050
	je	.LBB23_25

	cmp	ecx, 820142868
	je	.LBB23_26

	cmp	ecx, 42528849
	jne	.LBB23_11
	jmp	.LBB23_14
.LBB23_25:                              
	mov	rdi, rbp
	call	_ZNK5Botan18SymmetricAlgorithm23throw_key_not_set_errorEv
	mov	eax, 820142868
	jmp	.LBB23_11
.LBB23_24:                              
	mov	al, byte ptr [rsp + 9]
	mov	cl, byte ptr [rsp + 10]
	mov	edx, eax
	xor	dl, cl
	test	cl, cl
	mov	ecx, 1442643081
	mov	esi, 645408351
	cmovne	ecx, esi
	test	al, al
	mov	eax, 1442643081
	cmove	ecx, eax
	test	dl, dl
	cmovne	ecx, esi
	jmp	.LBB23_1
.LBB23_27:                              
	mov	al, byte ptr [rsp + 11]
	test	al, al
	mov	ecx, -1203732316
	mov	eax, 1823366155
	cmovne	ecx, eax
	jmp	.LBB23_1
.LBB23_36:                              
	cmp	dword ptr [rsp + 12], 0
	mov	eax, 820142868
	mov	ecx, 1837750050
	cmove	eax, ecx
	.p2align	4, 0x90
.LBB23_33:                              

	mov	ecx, eax
	and	ecx, 2147483647
	cmp	ecx, 1837750050
	je	.LBB23_37

	cmp	ecx, 820142868
	je	.LBB23_38

	cmp	ecx, 42528849
	jne	.LBB23_33
	jmp	.LBB23_36
.LBB23_37:                              
	mov	rdi, rbp
	call	_ZNK5Botan18SymmetricAlgorithm23throw_key_not_set_errorEv
	mov	eax, 820142868
	jmp	.LBB23_33
.LBB23_26:                              
	mov	edi, 65536
	call	_ZN5Botan5CPUID13has_cpuid_bitENS0_10CPUID_bitsE
	mov	ecx, dword ptr [rip + x.62]
	mov	edi, dword ptr [rip + y.63]
	lea	esi, [rcx - 1]
	imul	esi, ecx
	mov	ecx, esi
	xor	ecx, -2
	and	ecx, esi
	sete	bl
	cmp	edi, 10
	setl	dl
	xor	dl, bl
	mov	ebx, -1543346820
	mov	edx, 1442643081
	mov	esi, 1439470799
	cmovne	edx, esi
	test	ecx, ecx
	mov	ecx, edx
	cmove	ecx, esi
	cmp	edi, 10
	mov	byte ptr [rsp + 11], al
	cmovge	ecx, edx
	jmp	.LBB23_1
.LBB23_38:                              
	mov	edi, 65536
	call	_ZN5Botan5CPUID13has_cpuid_bitENS0_10CPUID_bitsE
	mov	ecx, 645408351
	jmp	.LBB23_1
.LBB23_19:
	add	rsp, 24
	pop	rbx
	pop	r12
	pop	r13
	pop	r14
	pop	r15
	pop	rbp
	ret
.Lfunc_end23:
	.size	_ZNK5Botan7AES_2569decrypt_nEPKhPhm, .Lfunc_end23-_ZNK5Botan7AES_2569decrypt_nEPKhPhm
	.cfi_endproc

	.globl	_ZN5Botan7AES_25612key_scheduleEPKhm 
	.p2align	4, 0x90
	.type	_ZN5Botan7AES_25612key_scheduleEPKhm,@function
_ZN5Botan7AES_25612key_scheduleEPKhm:   
	.cfi_startproc

	push	rbp
.Lcfi233:
	.cfi_def_cfa_offset 16
	push	r15
.Lcfi234:
	.cfi_def_cfa_offset 24
	push	r14
.Lcfi235:
	.cfi_def_cfa_offset 32
	push	r13
.Lcfi236:
	.cfi_def_cfa_offset 40
	push	r12
.Lcfi237:
	.cfi_def_cfa_offset 48
	push	rbx
.Lcfi238:
	.cfi_def_cfa_offset 56
	push	rax
.Lcfi239:
	.cfi_def_cfa_offset 64
.Lcfi240:
	.cfi_offset rbx, -56
.Lcfi241:
	.cfi_offset r12, -48
.Lcfi242:
	.cfi_offset r13, -40
.Lcfi243:
	.cfi_offset r14, -32
.Lcfi244:
	.cfi_offset r15, -24
.Lcfi245:
	.cfi_offset rbp, -16
	mov	r14, rdx
	mov	rbp, rsi
	mov	r15, rdi
	lea	r12, [r15 + 8]
	lea	r13, [r15 + 32]
	mov	ecx, -1461291877
	jmp	.LBB24_1
.LBB24_26:                              
	cmp	edx, -1
	cmovne	ecx, esi
	cmp	eax, 10
	cmovge	ecx, esi
	.p2align	4, 0x90
.LBB24_1:                               
	cmp	ecx, -181784238
	jg	.LBB24_20

	cmp	ecx, -528360304
	jg	.LBB24_12

	cmp	ecx, -1461291878
	jle	.LBB24_4

	cmp	ecx, -1461291877
	je	.LBB24_43

	cmp	ecx, -1368574416
	je	.LBB24_51

	cmp	ecx, -688917283
	jne	.LBB24_1

	mov	ecx, dword ptr [rip + x.64]
	mov	eax, dword ptr [rip + y.65]
	lea	edx, [rcx - 1]
	imul	edx, ecx
	not	edx
	or	edx, -2
	cmp	edx, -1
	sete	cl
	cmp	eax, 10
	setl	bl
	xor	bl, cl
	mov	ecx, 840876092
	mov	esi, 840876092
	jne	.LBB24_26

	mov	esi, -509533939
	jmp	.LBB24_26
	.p2align	4, 0x90
.LBB24_20:                              
	cmp	ecx, 840876091
	jle	.LBB24_21

	cmp	ecx, 1311625313
	jle	.LBB24_32

	cmp	ecx, 1311625314
	je	.LBB24_64

	cmp	ecx, 1360485229
	je	.LBB24_45

	cmp	ecx, 2052530469
	jne	.LBB24_1

	mov	r8d, 1
	mov	rdi, rbp
	mov	rsi, r14
	mov	rdx, r12
	mov	rcx, r13
	call	_ZN5Botan12_GLOBAL__N_116aes_key_scheduleEPKhmRSt6vectorIjNS_16secure_allocatorIjEEES7_b
	mov	ecx, dword ptr [rip + x.64]
	mov	eax, dword ptr [rip + y.65]
	lea	edx, [rcx - 1]
	imul	edx, ecx
	not	edx
	or	edx, -2
	cmp	edx, -1
	sete	bl
	mov	ecx, -1515556304
	mov	edx, -208192650
	mov	esi, -1515556304
	je	.LBB24_41

	mov	esi, -208192650
.LBB24_41:                              
	cmp	eax, 10
	setl	al
	cmovl	edx, esi
	xor	al, bl
	jne	.LBB24_1

	mov	ecx, edx
	jmp	.LBB24_1
	.p2align	4, 0x90
.LBB24_12:                              
	cmp	ecx, -468888437
	jle	.LBB24_13

	cmp	ecx, -468888436
	je	.LBB24_44

	cmp	ecx, -263503559
	je	.LBB24_55

	cmp	ecx, -208192650
	jne	.LBB24_1

	mov	r8d, 1
	mov	rdi, rbp
	mov	rsi, r14
	mov	rdx, r12
	mov	rcx, r13
	call	_ZN5Botan12_GLOBAL__N_116aes_key_scheduleEPKhmRSt6vectorIjNS_16secure_allocatorIjEEES7_b
	mov	ecx, 2052530469
	jmp	.LBB24_1
	.p2align	4, 0x90
.LBB24_21:                              
	cmp	ecx, 381931150
	jle	.LBB24_22

	cmp	ecx, 745376004
	je	.LBB24_68

	cmp	ecx, 833387153
	je	.LBB24_69

	cmp	ecx, 381931151
	jne	.LBB24_1
	jmp	.LBB24_30
.LBB24_4:                               
	cmp	ecx, -1930891310
	je	.LBB24_61

	cmp	ecx, -1515556304
	jne	.LBB24_1

	mov	ecx, -181784237
	jmp	.LBB24_1
.LBB24_32:                              
	cmp	ecx, 840876092
	je	.LBB24_46

	cmp	ecx, 985765907
	jne	.LBB24_1

	movzx	eax, byte ptr [rsp + 7]
	test	al, al
	mov	ecx, -1368574416
	jne	.LBB24_1

	mov	ecx, -1930891310
	jmp	.LBB24_1
.LBB24_13:                              
	cmp	ecx, -528360303
	je	.LBB24_60

	cmp	ecx, -509533939
	jne	.LBB24_1

	mov	edi, 2
	call	_ZN5Botan5CPUID13has_cpuid_bitENS0_10CPUID_bitsE
	mov	ecx, 840876092
	jmp	.LBB24_1
.LBB24_22:                              
	cmp	ecx, -181784237
	je	.LBB24_62

	cmp	ecx, -172740117
	jne	.LBB24_1

	mov	ecx, dword ptr [rip + x.64]
	mov	eax, dword ptr [rip + y.65]
	lea	edx, [rcx - 1]
	imul	edx, ecx
	not	edx
	or	edx, -2
	cmp	edx, -1
	sete	cl
	cmp	eax, 10
	setl	bl
	xor	bl, cl
	mov	ecx, 2052530469
	mov	esi, 2052530469
	jne	.LBB24_26

	mov	esi, -208192650
	jmp	.LBB24_26
.LBB24_43:                              
	mov	edi, 65536
	call	_ZN5Botan5CPUID13has_cpuid_bitENS0_10CPUID_bitsE
	test	al, al
	mov	ecx, 1360485229
	mov	eax, -468888436
	cmovne	ecx, eax
	jmp	.LBB24_1
.LBB24_51:                              
	mov	ecx, dword ptr [rip + x.64]
	mov	eax, dword ptr [rip + y.65]
	lea	edx, [rcx - 1]
	imul	edx, ecx
	mov	ecx, edx
	xor	ecx, -2
	and	ecx, edx
	sete	bl
	test	ecx, ecx
	mov	ecx, -263503559
	mov	edx, 745376004
	mov	esi, -263503559
	je	.LBB24_53

	mov	esi, 745376004
.LBB24_53:                              
	cmp	eax, 10
	setl	al
	cmovl	edx, esi
	xor	al, bl
	jne	.LBB24_1

	mov	ecx, edx
	jmp	.LBB24_1
.LBB24_64:                              
	mov	ecx, dword ptr [rip + x.64]
	mov	eax, dword ptr [rip + y.65]
	lea	edx, [rcx - 1]
	imul	edx, ecx
	not	edx
	or	edx, -2
	cmp	edx, -1
	sete	bl
	mov	ecx, 381931151
	mov	edx, 833387153
	mov	esi, 381931151
	je	.LBB24_66

	mov	esi, 833387153
.LBB24_66:                              
	cmp	eax, 10
	setl	al
	cmovl	edx, esi
	xor	al, bl
	jne	.LBB24_1

	mov	ecx, edx
	jmp	.LBB24_1
.LBB24_45:                              
	mov	edi, 65536
	call	_ZN5Botan5CPUID13has_cpuid_bitENS0_10CPUID_bitsE
	test	al, al
	mov	ecx, -688917283
	mov	eax, -172740117
	cmovne	ecx, eax
	jmp	.LBB24_1
.LBB24_44:                              
	mov	rdi, r15
	mov	rsi, rbp
	mov	rdx, r14
	call	_ZN5Botan7AES_25618aesni_key_scheduleEPKhm
	mov	ecx, -181784237
	jmp	.LBB24_1
.LBB24_55:                              
	mov	rdi, r15
	mov	rsi, rbp
	mov	rdx, r14
	call	_ZN5Botan7AES_25618vperm_key_scheduleEPKhm
	mov	ecx, dword ptr [rip + x.64]
	mov	eax, dword ptr [rip + y.65]
	mov	esi, ecx
	neg	esi
	not	esi
	imul	esi, ecx
	mov	edx, esi
	xor	edx, -2
	and	edx, esi
	sete	cl
	cmp	eax, 10
	setl	bl
	xor	bl, cl
	mov	esi, -528360303
	mov	ecx, -528360303
	jne	.LBB24_57

	mov	ecx, 745376004
	test	edx, edx
	jne	.LBB24_58
	jmp	.LBB24_59
.LBB24_69:                              
	mov	ecx, 1311625314
	jmp	.LBB24_1
.LBB24_62:                              
	mov	ecx, dword ptr [rip + x.64]
	mov	eax, dword ptr [rip + y.65]
	lea	esi, [rcx - 1]
	imul	esi, ecx
	mov	edx, esi
	xor	edx, -2
	and	edx, esi
	sete	cl
	cmp	eax, 10
	setl	bl
	xor	bl, cl
	mov	esi, 1311625314
	mov	ecx, 1311625314
	jne	.LBB24_57

	mov	ecx, 833387153
.LBB24_57:                              
	test	edx, edx
	je	.LBB24_59
.LBB24_58:                              
	mov	esi, ecx
.LBB24_59:                              
	cmp	eax, 10
	cmovl	ecx, esi
	jmp	.LBB24_1
.LBB24_68:                              
	mov	rdi, r15
	mov	rsi, rbp
	mov	rdx, r14
	call	_ZN5Botan7AES_25618vperm_key_scheduleEPKhm
	mov	ecx, -263503559
	jmp	.LBB24_1
.LBB24_61:                              
	xor	r8d, r8d
	mov	rdi, rbp
	mov	rsi, r14
	mov	rdx, r12
	mov	rcx, r13
	call	_ZN5Botan12_GLOBAL__N_116aes_key_scheduleEPKhmRSt6vectorIjNS_16secure_allocatorIjEEES7_b
	mov	ecx, -181784237
	jmp	.LBB24_1
.LBB24_46:                              
	mov	edi, 2
	call	_ZN5Botan5CPUID13has_cpuid_bitENS0_10CPUID_bitsE
	mov	ecx, dword ptr [rip + x.64]
	mov	edx, dword ptr [rip + y.65]
	lea	edi, [rcx - 1]
	imul	edi, ecx
	mov	esi, edi
	xor	esi, -2
	and	esi, edi
	sete	cl
	cmp	edx, 10
	setl	bl
	xor	bl, cl
	mov	edi, 985765907
	mov	ecx, 985765907
	jne	.LBB24_48

	mov	ecx, -509533939
.LBB24_48:                              
	test	esi, esi
	je	.LBB24_50

	mov	edi, ecx
.LBB24_50:                              
	cmp	edx, 10
	mov	byte ptr [rsp + 7], al
	cmovl	ecx, edi
	jmp	.LBB24_1
.LBB24_60:                              
	mov	ecx, -181784237
	jmp	.LBB24_1
.LBB24_30:
	add	rsp, 8
	pop	rbx
	pop	r12
	pop	r13
	pop	r14
	pop	r15
	pop	rbp
	ret
.Lfunc_end24:
	.size	_ZN5Botan7AES_25612key_scheduleEPKhm, .Lfunc_end24-_ZN5Botan7AES_25612key_scheduleEPKhm
	.cfi_endproc

	.globl	_ZN5Botan7AES_2565clearEv 
	.p2align	4, 0x90
	.type	_ZN5Botan7AES_2565clearEv,@function
_ZN5Botan7AES_2565clearEv:              
	.cfi_startproc

	push	rbp
.Lcfi246:
	.cfi_def_cfa_offset 16
	push	r15
.Lcfi247:
	.cfi_def_cfa_offset 24
	push	r14
.Lcfi248:
	.cfi_def_cfa_offset 32
	push	r12
.Lcfi249:
	.cfi_def_cfa_offset 40
	push	rbx
.Lcfi250:
	.cfi_def_cfa_offset 48
	sub	rsp, 16
.Lcfi251:
	.cfi_def_cfa_offset 64
.Lcfi252:
	.cfi_offset rbx, -48
.Lcfi253:
	.cfi_offset r12, -40
.Lcfi254:
	.cfi_offset r14, -32
.Lcfi255:
	.cfi_offset r15, -24
.Lcfi256:
	.cfi_offset rbp, -16
	mov	rbp, rdi
	mov	eax, dword ptr [rip + x.66]
	mov	ecx, dword ptr [rip + y.67]
	lea	edx, [rax - 1]
	imul	edx, eax
	not	edx
	or	edx, -2
	cmp	edx, -1
	sete	byte ptr [rsp + 14]
	cmp	ecx, 10
	setl	byte ptr [rsp + 15]
	lea	r14, [rbp + 8]
	add	rbp, 32
	mov	eax, 110233154
	mov	r15d, 1273842042
	mov	r12d, -1990689483
	jmp	.LBB25_1
.LBB25_4:                               
	movzx	ecx, byte ptr [rsp + 14]
	movzx	eax, byte ptr [rsp + 15]
	mov	edx, ecx
	xor	dl, al
	mov	edx, 234309550
	cmovne	edx, r15d
	test	al, al
	mov	eax, edx
	cmovne	eax, r15d
	test	cl, cl
	cmove	eax, edx
	.p2align	4, 0x90
.LBB25_1:                               
	cmp	eax, 234309549
	jg	.LBB25_5

	cmp	eax, -1990689483
	je	.LBB25_8

	cmp	eax, 110233154
	jne	.LBB25_1
	jmp	.LBB25_4
	.p2align	4, 0x90
.LBB25_5:                               
	cmp	eax, 234309550
	je	.LBB25_9

	cmp	eax, 1273842042
	jne	.LBB25_1

	mov	rdi, r14
	call	_ZN5Botan3zapIjNS_16secure_allocatorIjEEEEvRSt6vectorIT_T0_E
	mov	rdi, rbp
	call	_ZN5Botan3zapIjNS_16secure_allocatorIjEEEEvRSt6vectorIT_T0_E
	mov	eax, dword ptr [rip + x.66]
	mov	ecx, dword ptr [rip + y.67]
	lea	edx, [rax - 1]
	imul	edx, eax
	mov	eax, edx
	xor	eax, -2
	and	eax, edx
	sete	dl
	cmp	ecx, 10
	setl	bl
	xor	bl, dl
	mov	edx, 234309550
	cmovne	edx, r12d
	test	eax, eax
	mov	eax, edx
	cmove	eax, r12d
	cmp	ecx, 10
	cmovge	eax, edx
	jmp	.LBB25_1
.LBB25_9:                               
	mov	rdi, r14
	call	_ZN5Botan3zapIjNS_16secure_allocatorIjEEEEvRSt6vectorIT_T0_E
	mov	rdi, rbp
	call	_ZN5Botan3zapIjNS_16secure_allocatorIjEEEEvRSt6vectorIT_T0_E
	mov	eax, 1273842042
	jmp	.LBB25_1
.LBB25_8:
	add	rsp, 16
	pop	rbx
	pop	r12
	pop	r14
	pop	r15
	pop	rbp
	ret
.Lfunc_end25:
	.size	_ZN5Botan7AES_2565clearEv, .Lfunc_end25-_ZN5Botan7AES_2565clearEv
	.cfi_endproc

	.section	.text._ZN5Botan7AES_128D2Ev,"axG",@progbits,_ZN5Botan7AES_128D2Ev,comdat
	.weak	_ZN5Botan7AES_128D2Ev   
	.p2align	4, 0x90
	.type	_ZN5Botan7AES_128D2Ev,@function
_ZN5Botan7AES_128D2Ev:                  

	push	rbx
	sub	rsp, 16
	mov	rbx, rdi
	mov	qword ptr [rbx], _ZTVN5Botan7AES_128E+16
	lea	rdi, [rbx + 32]
	call	_ZNSt6vectorIjN5Botan16secure_allocatorIjEEED2Ev
	add	rbx, 8
	mov	rdi, rbx
	call	_ZNSt6vectorIjN5Botan16secure_allocatorIjEEED2Ev
	mov	eax, dword ptr [rip + x.444]
	mov	ecx, dword ptr [rip + y.445]
	lea	edx, [rax - 1]
	imul	edx, eax
	not	edx
	or	edx, -2
	cmp	edx, -1
	sete	al
	cmp	ecx, 10
	setl	bl
	xor	bl, al
	mov	eax, 990551841
	mov	esi, -1894145610
	cmovne	esi, eax
	cmp	edx, -1
	sete	byte ptr [rsp + 14]
	cmovne	eax, esi
	cmp	ecx, 10
	setl	byte ptr [rsp + 15]
	cmovge	eax, esi
	mov	edx, -155428281
	mov	esi, -293446175
	jmp	.LBB26_1
.LBB26_4:                               
	mov	edx, eax
	.p2align	4, 0x90
.LBB26_1:                               
	cmp	edx, -155428282
	jg	.LBB26_5

	cmp	edx, -1894145610
	je	.LBB26_8

	cmp	edx, -293446175
	jne	.LBB26_1
	jmp	.LBB26_4
	.p2align	4, 0x90
.LBB26_5:                               
	cmp	edx, 990551841
	je	.LBB26_9

	cmp	edx, -155428281
	jne	.LBB26_1

	movzx	ecx, byte ptr [rsp + 14]
	movzx	edx, byte ptr [rsp + 15]
	mov	ebx, ecx
	xor	bl, dl
	mov	edi, -1894145610
	cmovne	edi, esi
	test	dl, dl
	mov	edx, edi
	cmovne	edx, esi
	test	cl, cl
	cmove	edx, edi
	jmp	.LBB26_1
.LBB26_8:                               
	mov	edx, -293446175
	jmp	.LBB26_1
.LBB26_9:
	add	rsp, 16
	pop	rbx
	ret
.Lfunc_end26:
	.size	_ZN5Botan7AES_128D2Ev, .Lfunc_end26-_ZN5Botan7AES_128D2Ev

	.section	.text._ZN5Botan7AES_128D0Ev,"axG",@progbits,_ZN5Botan7AES_128D0Ev,comdat
	.weak	_ZN5Botan7AES_128D0Ev   
	.p2align	4, 0x90
	.type	_ZN5Botan7AES_128D0Ev,@function
_ZN5Botan7AES_128D0Ev:                  

	push	r14
	push	rbx
	push	rax
	mov	r14, rdi
	mov	qword ptr [r14], _ZTVN5Botan7AES_128E+16
	lea	rdi, [r14 + 32]
	call	_ZNSt6vectorIjN5Botan16secure_allocatorIjEEED2Ev
	lea	rdi, [r14 + 8]
	call	_ZNSt6vectorIjN5Botan16secure_allocatorIjEEED2Ev
	mov	eax, dword ptr [rip + x.444]
	mov	ecx, dword ptr [rip + y.445]
	lea	edx, [rax - 1]
	imul	edx, eax
	not	edx
	or	edx, -2
	cmp	edx, -1
	sete	al
	cmp	ecx, 10
	setl	bl
	xor	bl, al
	mov	eax, 990551841
	mov	esi, -1894145610
	cmovne	esi, eax
	cmp	edx, -1
	sete	byte ptr [rsp + 6]
	cmovne	eax, esi
	cmp	ecx, 10
	setl	byte ptr [rsp + 7]
	cmovge	eax, esi
	mov	edx, -155428281
	mov	esi, -293446175
	jmp	.LBB27_1
.LBB27_4:                               
	mov	edx, eax
	.p2align	4, 0x90
.LBB27_1:                               
	cmp	edx, -155428282
	jg	.LBB27_5

	cmp	edx, -1894145610
	je	.LBB27_8

	cmp	edx, -293446175
	jne	.LBB27_1
	jmp	.LBB27_4
	.p2align	4, 0x90
.LBB27_5:                               
	cmp	edx, 990551841
	je	.LBB27_9

	cmp	edx, -155428281
	jne	.LBB27_1

	movzx	ecx, byte ptr [rsp + 6]
	movzx	edx, byte ptr [rsp + 7]
	mov	ebx, ecx
	xor	bl, dl
	mov	edi, -1894145610
	cmovne	edi, esi
	test	dl, dl
	mov	edx, edi
	cmovne	edx, esi
	test	cl, cl
	cmove	edx, edi
	jmp	.LBB27_1
.LBB27_8:                               
	mov	edx, -293446175
	jmp	.LBB27_1
.LBB27_9:
	mov	rdi, r14
	add	rsp, 8
	pop	rbx
	pop	r14
	jmp	_ZdlPv                  
.Lfunc_end27:
	.size	_ZN5Botan7AES_128D0Ev, .Lfunc_end27-_ZN5Botan7AES_128D0Ev

	.section	.rodata.cst16,"aM",@progbits,16
	.p2align	4               
.LCPI28_0:
	.quad	16                      
	.quad	16                      
	.section	.text._ZNK5Botan25Block_Cipher_Fixed_ParamsILm16ELm16ELm0ELm1ENS_11BlockCipherEE8key_specEv,"axG",@progbits,_ZNK5Botan25Block_Cipher_Fixed_ParamsILm16ELm16ELm0ELm1ENS_11BlockCipherEE8key_specEv,comdat
	.weak	_ZNK5Botan25Block_Cipher_Fixed_ParamsILm16ELm16ELm0ELm1ENS_11BlockCipherEE8key_specEv
	.p2align	4, 0x90
	.type	_ZNK5Botan25Block_Cipher_Fixed_ParamsILm16ELm16ELm0ELm1ENS_11BlockCipherEE8key_specEv,@function
_ZNK5Botan25Block_Cipher_Fixed_ParamsILm16ELm16ELm0ELm1ENS_11BlockCipherEE8key_specEv: 
	.cfi_startproc

	movaps	xmm0, xmmword ptr [rip + .LCPI28_0] 
	movups	xmmword ptr [rdi], xmm0
	mov	qword ptr [rdi + 16], 1
	mov	rax, rdi
	ret
.Lfunc_end28:
	.size	_ZNK5Botan25Block_Cipher_Fixed_ParamsILm16ELm16ELm0ELm1ENS_11BlockCipherEE8key_specEv, .Lfunc_end28-_ZNK5Botan25Block_Cipher_Fixed_ParamsILm16ELm16ELm0ELm1ENS_11BlockCipherEE8key_specEv
	.cfi_endproc

	.section	.text._ZNK5Botan7AES_1284nameB5cxx11Ev,"axG",@progbits,_ZNK5Botan7AES_1284nameB5cxx11Ev,comdat
	.weak	_ZNK5Botan7AES_1284nameB5cxx11Ev 
	.p2align	4, 0x90
	.type	_ZNK5Botan7AES_1284nameB5cxx11Ev,@function
_ZNK5Botan7AES_1284nameB5cxx11Ev:       
.Lfunc_begin5:
	.cfi_startproc
	.cfi_personality 3, __gxx_personality_v0
	.cfi_lsda 3, .Lexception5

	push	r14
.Lcfi257:
	.cfi_def_cfa_offset 16
	push	rbx
.Lcfi258:
	.cfi_def_cfa_offset 24
	sub	rsp, 24
.Lcfi259:
	.cfi_def_cfa_offset 48
.Lcfi260:
	.cfi_offset rbx, -24
.Lcfi261:
	.cfi_offset r14, -16
	mov	r14, rdi
.Ltmp20:
	lea	rdx, [rsp + 16]
	mov	esi, .L.str.11
	call	_ZNSt7__cxx1112basic_stringIcSt11char_traitsIcESaIcEEC2EPKcRKS3_
.Ltmp21:

	mov	eax, dword ptr [rip + x.514]
	mov	ecx, dword ptr [rip + y.515]
	mov	edx, eax
	neg	edx
	not	edx
	imul	edx, eax
	not	edx
	or	edx, -2
	cmp	edx, -1
	sete	al
	cmp	ecx, 10
	setl	bl
	xor	bl, al
	mov	eax, -2103045563
	mov	esi, 914226498
	cmovne	esi, eax
	cmp	edx, -1
	sete	byte ptr [rsp + 14]
	cmovne	eax, esi
	cmp	ecx, 10
	setl	byte ptr [rsp + 15]
	mov	r8d, 914226498
	cmovge	eax, esi
	mov	esi, -1807760696
	mov	edi, 280270388
	jmp	.LBB29_2
.LBB29_7:                               
	mov	esi, eax
	.p2align	4, 0x90
.LBB29_2:                               
	cmp	esi, 280270387
	jg	.LBB29_6

	cmp	esi, -2103045563
	je	.LBB29_10

	cmp	esi, -1807760696
	jne	.LBB29_2

	movzx	edx, byte ptr [rsp + 14]
	movzx	ecx, byte ptr [rsp + 15]
	mov	ebx, edx
	xor	bl, cl
	test	cl, cl
	mov	esi, 914226498
	cmovne	esi, edi
	test	dl, dl
	cmove	esi, r8d
	test	bl, bl
	cmovne	esi, edi
	jmp	.LBB29_2
	.p2align	4, 0x90
.LBB29_6:                               
	cmp	esi, 280270388
	je	.LBB29_7

	cmp	esi, 914226498
	jne	.LBB29_2

	mov	esi, 280270388
	jmp	.LBB29_2
.LBB29_10:
	mov	rax, r14
	add	rsp, 24
	pop	rbx
	pop	r14
	ret
.LBB29_11:
.Ltmp22:
	mov	ecx, dword ptr [rip + x.514]
	mov	edx, dword ptr [rip + y.515]
	lea	esi, [rcx - 1]
	imul	esi, ecx
	mov	edi, esi
	xor	edi, -2
	and	edi, esi
	sete	byte ptr [rsp + 12]
	sete	cl
	cmp	edx, 10
	setl	bl
	xor	bl, cl
	mov	r9d, -2103045563
	mov	esi, 914226498
	cmovne	esi, r9d
	test	edi, edi
	cmovne	r9d, esi
	cmp	edx, 10
	setl	byte ptr [rsp + 13]
	mov	r8d, 914226498
	cmovge	r9d, esi
	mov	edi, -1807760696
	mov	esi, 280270388
	jmp	.LBB29_12
	.p2align	4, 0x90
.LBB29_18:                              
	movzx	ecx, byte ptr [rsp + 12]
	movzx	edx, byte ptr [rsp + 13]
	mov	ebx, ecx
	xor	bl, dl
	test	dl, dl
	mov	edi, 914226498
	cmovne	edi, esi
	test	cl, cl
	cmove	edi, r8d
	test	bl, bl
	cmovne	edi, esi
.LBB29_12:                              
	cmp	edi, 280270387
	jle	.LBB29_13

	cmp	edi, 280270388
	je	.LBB29_17

	cmp	edi, 914226498
	jne	.LBB29_12

	mov	edi, 280270388
	jmp	.LBB29_12
	.p2align	4, 0x90
.LBB29_13:                              
	cmp	edi, -1807760696
	je	.LBB29_18

	cmp	edi, -2103045563
	jne	.LBB29_12
	jmp	.LBB29_15
	.p2align	4, 0x90
.LBB29_17:                              
	mov	edi, r9d
	jmp	.LBB29_12
.LBB29_15:
	mov	rdi, rax
	call	_Unwind_Resume
.Lfunc_end29:
	.size	_ZNK5Botan7AES_1284nameB5cxx11Ev, .Lfunc_end29-_ZNK5Botan7AES_1284nameB5cxx11Ev
	.cfi_endproc
	.section	.gcc_except_table,"a",@progbits
	.p2align	2
GCC_except_table29:
.Lexception5:
	.byte	255                     
	.byte	3                       
	.asciz	"\234"                  
	.byte	3                       
	.byte	26                      
	.long	.Ltmp20-.Lfunc_begin5   
	.long	.Ltmp21-.Ltmp20         
	.long	.Ltmp22-.Lfunc_begin5   
	.byte	0                       
	.long	.Ltmp21-.Lfunc_begin5   
	.long	.Lfunc_end29-.Ltmp21    
	.long	0                       
	.byte	0                       
	.p2align	2

	.section	.text._ZNK5Botan25Block_Cipher_Fixed_ParamsILm16ELm16ELm0ELm1ENS_11BlockCipherEE10block_sizeEv,"axG",@progbits,_ZNK5Botan25Block_Cipher_Fixed_ParamsILm16ELm16ELm0ELm1ENS_11BlockCipherEE10block_sizeEv,comdat
	.weak	_ZNK5Botan25Block_Cipher_Fixed_ParamsILm16ELm16ELm0ELm1ENS_11BlockCipherEE10block_sizeEv 
	.p2align	4, 0x90
	.type	_ZNK5Botan25Block_Cipher_Fixed_ParamsILm16ELm16ELm0ELm1ENS_11BlockCipherEE10block_sizeEv,@function
_ZNK5Botan25Block_Cipher_Fixed_ParamsILm16ELm16ELm0ELm1ENS_11BlockCipherEE10block_sizeEv: 

	mov	eax, 16
	ret
.Lfunc_end30:
	.size	_ZNK5Botan25Block_Cipher_Fixed_ParamsILm16ELm16ELm0ELm1ENS_11BlockCipherEE10block_sizeEv, .Lfunc_end30-_ZNK5Botan25Block_Cipher_Fixed_ParamsILm16ELm16ELm0ELm1ENS_11BlockCipherEE10block_sizeEv

	.section	.text._ZNK5Botan25Block_Cipher_Fixed_ParamsILm16ELm16ELm0ELm1ENS_11BlockCipherEE13encrypt_n_xexEPhPKhm,"axG",@progbits,_ZNK5Botan25Block_Cipher_Fixed_ParamsILm16ELm16ELm0ELm1ENS_11BlockCipherEE13encrypt_n_xexEPhPKhm,comdat
	.weak	_ZNK5Botan25Block_Cipher_Fixed_ParamsILm16ELm16ELm0ELm1ENS_11BlockCipherEE13encrypt_n_xexEPhPKhm 
	.p2align	4, 0x90
	.type	_ZNK5Botan25Block_Cipher_Fixed_ParamsILm16ELm16ELm0ELm1ENS_11BlockCipherEE13encrypt_n_xexEPhPKhm,@function
_ZNK5Botan25Block_Cipher_Fixed_ParamsILm16ELm16ELm0ELm1ENS_11BlockCipherEE13encrypt_n_xexEPhPKhm: 
	.cfi_startproc

	push	r15
.Lcfi262:
	.cfi_def_cfa_offset 16
	push	r14
.Lcfi263:
	.cfi_def_cfa_offset 24
	push	r13
.Lcfi264:
	.cfi_def_cfa_offset 32
	push	r12
.Lcfi265:
	.cfi_def_cfa_offset 40
	push	rbx
.Lcfi266:
	.cfi_def_cfa_offset 48
.Lcfi267:
	.cfi_offset rbx, -48
.Lcfi268:
	.cfi_offset r12, -40
.Lcfi269:
	.cfi_offset r13, -32
.Lcfi270:
	.cfi_offset r14, -24
.Lcfi271:
	.cfi_offset r15, -16
	mov	r15, rcx
	mov	r14, rdx
	mov	rbx, rsi
	mov	r12, rdi
	mov	r13, r15
	shl	r13, 4
	mov	rdi, rbx
	mov	rsi, r14
	mov	rdx, r13
	call	_ZN5Botan7xor_bufEPhPKhm
	mov	rax, qword ptr [r12]
	mov	rdi, r12
	mov	rsi, rbx
