	.text
	.intel_syntax noprefix
	.file	"/mnt/c/Users/Adam/Developer/CryptoFunctionDetection/crypto_implementations/cryptopp/rijndael.cpp"
	.globl	_ZNK8CryptoPP8Rijndael4Base20OptimalDataAlignmentEv 
	.p2align	1, 0x90
	.type	_ZNK8CryptoPP8Rijndael4Base20OptimalDataAlignmentEv,@function
_ZNK8CryptoPP8Rijndael4Base20OptimalDataAlignmentEv: 
	.cfi_startproc

	push	rbp
.Lcfi0:
	.cfi_def_cfa_offset 16
	push	r15
.Lcfi1:
	.cfi_def_cfa_offset 24
	push	r14
.Lcfi2:
	.cfi_def_cfa_offset 32
	push	r12
.Lcfi3:
	.cfi_def_cfa_offset 40
	push	rbx
.Lcfi4:
	.cfi_def_cfa_offset 48
	sub	rsp, 16
.Lcfi5:
	.cfi_def_cfa_offset 64
.Lcfi6:
	.cfi_offset rbx, -48
.Lcfi7:
	.cfi_offset r12, -40
.Lcfi8:
	.cfi_offset r14, -32
.Lcfi9:
	.cfi_offset r15, -24
.Lcfi10:
	.cfi_offset rbp, -16
	mov	rbx, rdi
	add	rbx, 8
	mov	eax, 1670057087
	mov	r14d, 1573667688
	mov	r15b, -1
	mov	r12d, -599217126

	jmp	.LBB0_1
.LBB0_3:                                
	cmp	eax, 942619825
	jne	.LBB0_1

	mov	eax, -1655132692
	mov	ebp, 16
	jmp	.LBB0_1
.LBB0_5:                                
	cmp	eax, 1573667688
	je	.LBB0_14

	cmp	eax, 1670057087
	jne	.LBB0_1

	mov	al, byte ptr [rip + _ZN8CryptoPP18g_x86DetectionDoneE]
	mov	byte ptr [rsp + 15], al
	mov	eax, 528342624
	jmp	.LBB0_8
.LBB0_10:                               
	cmp	eax, 528342624
	jne	.LBB0_8

	mov	al, byte ptr [rsp + 15]
	not	al
	or	al, -2
	cmp	al, r15b
	mov	eax, 526338746
	cmove	eax, r12d
	jmp	.LBB0_8
.LBB0_12:                               
	call	_ZN8CryptoPP17DetectX86FeaturesEv
	mov	eax, 526338746
.LBB0_8:                                

	cmp	eax, -599217126
	je	.LBB0_12

	cmp	eax, 526338746
	jne	.LBB0_10

	cmp	byte ptr [rip + _ZN8CryptoPP10g_hasAESNIE], 0
	mov	eax, 942619825
	cmove	eax, r14d
	jmp	.LBB0_1
.LBB0_14:                               
	mov	rdi, rbx
	call	_ZNK8CryptoPP19BlockTransformation20OptimalDataAlignmentEv
	mov	ebp, eax
	mov	eax, -1655132692
.LBB0_1:                                

	cmp	eax, 1573667687
	jg	.LBB0_5

	cmp	eax, -1655132692
	jne	.LBB0_3

	mov	eax, ebp
	add	rsp, 16
	pop	rbx
	pop	r12
	pop	r14
	pop	r15
	pop	rbp
	ret
.Lfunc_end0:
	.size	_ZNK8CryptoPP8Rijndael4Base20OptimalDataAlignmentEv, .Lfunc_end0-_ZNK8CryptoPP8Rijndael4Base20OptimalDataAlignmentEv
	.cfi_endproc

	.globl	_ZThn8_NK8CryptoPP8Rijndael4Base20OptimalDataAlignmentEv 
	.p2align	1, 0x90
	.type	_ZThn8_NK8CryptoPP8Rijndael4Base20OptimalDataAlignmentEv,@function
_ZThn8_NK8CryptoPP8Rijndael4Base20OptimalDataAlignmentEv: 
	.cfi_startproc

	add	rdi, -8
	jmp	_ZNK8CryptoPP8Rijndael4Base20OptimalDataAlignmentEv 
.Lfunc_end1:
	.size	_ZThn8_NK8CryptoPP8Rijndael4Base20OptimalDataAlignmentEv, .Lfunc_end1-_ZThn8_NK8CryptoPP8Rijndael4Base20OptimalDataAlignmentEv
	.cfi_endproc

	.globl	_ZN8CryptoPP8Rijndael4Base12FillEncTableEv 
	.p2align	1, 0x90
	.type	_ZN8CryptoPP8Rijndael4Base12FillEncTableEv,@function
_ZN8CryptoPP8Rijndael4Base12FillEncTableEv: 

	xor	esi, esi
	movabs	r9, 2575719289214375654
	mov	r11, r9
	not	r11
	mov	r8d, 1505315521
.LBB2_1:                                

	mov	edx, -185654760
	jmp	.LBB2_2
.LBB2_3:                                
	cmp	edx, 339823833
	je	.LBB2_6

	cmp	edx, -185654760
	jne	.LBB2_2

	mov	dword ptr [rsp - 4], esi
	mov	edx, dword ptr [rsp - 4]
	cmp	edx, 256
	mov	edx, 339823833
	cmovl	edx, r8d
.LBB2_2:                                

	cmp	edx, 1505315521
	jne	.LBB2_3

	movsxd	r10, dword ptr [rsp - 4]
	movzx	edi, byte ptr [r10 + _ZN8CryptoPP8Rijndael4Base2SeE]
	mov	eax, edi
	shl	eax, 8
	mov	edx, edi
	shl	edx, 16
	or	edx, eax
	lea	eax, [rdi + rdi]
	mov	esi, edi
	shr	esi, 7
	neg	esi
	mov	ecx, esi
	xor	ecx, -284
	and	ecx, esi
	mov	esi, ecx
	not	esi
	and	esi, eax
	not	eax
	and	eax, ecx
	or	eax, esi
	mov	ecx, eax
	not	ecx
	and	ecx, edi
	not	edi
	and	edi, eax

	shl	eax, 24
	or	eax, edx
	or	edi, ecx
	mov	ecx, eax
	and	ecx, edi
	xor	edi, eax
	or	edi, ecx
	shl	rdi, 32
	mov	rcx, rdi
	not	rcx
	mov	rdx, rax
	not	rdx
	and	rcx, r9
	and	rdi, r11
	or	rdi, rcx
	and	rdx, r9
	and	rax, r11
	or	rax, rdx
	xor	rax, rdi
	mov	qword ptr [8*r10 + _ZN8CryptoPPL2TeE], rax
	xor	eax, eax
	sub	eax, dword ptr [rsp - 4]
	mov	esi, 1
	sub	esi, eax
	jmp	.LBB2_1
.LBB2_6:
	mov	byte ptr [rip + _ZN8CryptoPPL10s_TeFilledE], 1
	ret
.Lfunc_end2:
	.size	_ZN8CryptoPP8Rijndael4Base12FillEncTableEv, .Lfunc_end2-_ZN8CryptoPP8Rijndael4Base12FillEncTableEv

	.globl	_ZN8CryptoPP8Rijndael4Base12FillDecTableEv 
	.p2align	1, 0x90
	.type	_ZN8CryptoPP8Rijndael4Base12FillDecTableEv,@function
_ZN8CryptoPP8Rijndael4Base12FillDecTableEv: 

	push	rbp
	push	r15
	push	r14
	push	r13
	push	r12
	push	rbx
	mov	eax, dword ptr [rip + x.16]
	mov	ecx, eax
	neg	ecx
	not	ecx
	imul	ecx, eax
	not	ecx
	or	ecx, -2
	mov	eax, -1
	cmp	ecx, eax
	sete	al
	cmp	dword ptr [rip + y.17], 10
	setl	cl
	mov	edx, ecx
	and	dl, al
	xor	cl, al
	or	cl, dl
	mov	r14d, 209404531
	mov	eax, -454445014
	cmove	r14d, eax
	mov	r15d, 1344854946
	cmove	r15d, eax
	xor	r11d, r11d
.LBB3_1:                                

	mov	eax, 1109944780
	jmp	.LBB3_2
.LBB3_8:                                
	cmp	eax, 1109944780
	jne	.LBB3_2

	mov	dword ptr [rsp - 8], r11d
	mov	eax, dword ptr [rsp - 8]
	cmp	eax, 256
	mov	eax, -1467440338
	mov	ecx, -1037452546
	cmovl	eax, ecx
	jmp	.LBB3_2
.LBB3_5:                                
	mov	eax, r14d
	jmp	.LBB3_2
.LBB3_11:                               
	movsxd	r12, dword ptr [rsp - 8]
	movzx	edi, byte ptr [r12 + _ZN8CryptoPP8Rijndael4Base2SdE]
	lea	ecx, [8*rdi]
	mov	eax, edi
	shr	eax, 5
	mov	edx, eax
	xor	edx, 6
	and	edx, eax
	neg	edx
	mov	esi, ecx
	not	esi
	and	esi, edx
	not	edx
	or	edx, -284
	and	edx, ecx
	and	esi, 283
	or	esi, edx
	mov	ecx, eax
	xor	ecx, 5
	and	ecx, eax
	imul	ecx, ecx, 283
	mov	edx, esi
	not	edx
	and	edx, 991301641
	and	esi, 2034
	or	esi, edx
	mov	edx, ecx
	not	edx
	and	edx, 991301641
	and	ecx, 4086
	or	ecx, edx
	xor	ecx, esi
	mov	edx, eax
	xor	edx, 3
	and	edx, eax
	imul	r8d, edx, 283
	mov	eax, ecx
	not	eax
	and	eax, 884079725
	and	ecx, 184943506
	or	ecx, eax
	mov	eax, r8d
	not	eax
	and	eax, 884079725
	and	r8d, 914
	or	r8d, eax
	xor	r8d, ecx
	lea	eax, [4*rdi]
	mov	ecx, edi
	shr	ecx, 6
	mov	edx, ecx
	xor	edx, 1
	and	edx, ecx
	not	ecx
	or	ecx, -2
	inc	ecx
	mov	ebx, ecx
	xor	ebx, -284
	and	ebx, ecx
	mov	ecx, ebx
	not	ecx
	and	ecx, eax
	not	eax
	and	eax, ebx
	or	eax, ecx
	imul	ecx, edx, 283
	mov	edx, eax
	not	edx
	and	edx, 140675294
	and	eax, -140675295
	or	eax, edx
	mov	edx, ecx
	not	edx
	and	edx, 140675294
	and	ecx, 1825
	or	ecx, edx
	xor	ecx, eax
	mov	eax, ecx
	not	eax
	and	eax, 1046916660
	and	ecx, -1046916661
	or	ecx, eax
	mov	r13d, r8d
	not	r13d
	mov	eax, r13d
	and	eax, 1046916660
	mov	edx, r8d
	and	edx, -1046916661
	or	edx, eax
	xor	edx, ecx
	mov	ecx, edx
	not	ecx
	mov	ebx, edi
	and	ebx, ecx
	mov	ebp, edi
	not	ebp
	mov	eax, edx
	and	eax, ebp
	or	eax, ebx
	shl	eax, 8
	mov	ebx, r13d
	and	ebx, 21283
	mov	esi, r8d
	and	esi, 44252
	or	esi, ebx
	mov	ebx, ebp
	and	ebx, 21283
	mov	r9d, edi
	and	r9d, 220
	or	r9d, ebx
	xor	r9d, esi
	shl	r9d, 16
	mov	r10d, eax
	not	r10d
	mov	esi, r9d
	not	esi
	mov	ebx, r10d
	and	ebx, 1499867906
	and	eax, -1499868160
	or	eax, ebx
	or	r10d, esi
	and	esi, 1499867906
	and	r9d, -1499922432
	or	r9d, esi
	xor	r9d, eax
	not	r10d
	or	r10d, r9d
	lea	eax, [rdi + rdi]
	mov	ebx, edi
	shr	ebx, 7
	neg	ebx
	mov	esi, ebx
	not	esi
	or	esi, -851715356
	and	esi, -851715092
	and	ebx, 19
	or	ebx, esi
	mov	esi, eax
	not	esi
	and	esi, -851715092
	and	eax, 18
	or	eax, esi
	xor	eax, ebx
	and	ecx, 38
	and	edx, 217
	or	edx, ecx
	mov	esi, eax
	not	esi
	mov	ebx, esi
	and	ebx, 38
	mov	ecx, eax
	and	ecx, 217
	or	ecx, ebx
	xor	ecx, edx
	shl	ecx, 24
	mov	edx, r10d
	and	edx, ecx
	xor	ecx, r10d
	or	ecx, edx
	and	esi, -91369137
	and	eax, 87165616
	or	eax, esi
	and	ebp, -91369137
	mov	edx, ecx
	mov	ebx, ecx
	mov	rsi, rcx
	and	rsi, rdi
	xor	rcx, rdi

	and	edi, 176
	or	edi, ebp
	xor	edi, eax
	mov	eax, edi
	not	eax
	and	eax, 1485926122
	and	edi, -1490120427
	or	edi, eax
	and	r13d, 1485926122
	and	r8d, -1485926123
	or	r8d, r13d
	xor	r8d, edi
	not	edx
	mov	eax, r8d
	not	eax
	mov	edi, edx
	and	edi, -1320676529
	and	ebx, 1320676528
	or	ebx, edi
	or	edx, eax
	and	eax, -1320676529
	and	r8d, 1320676528
	or	r8d, eax
	xor	r8d, ebx
	not	edx
	or	edx, r8d
	shl	rdx, 32
	or	rcx, rsi
	mov	rax, rcx
	not	rax
	movabs	rsi, -4949277843355343538
	mov	rdi, rsi
	not	rsi
	and	rcx, rsi
	and	rsi, rdx
	not	rdx
	and	rax, rdi
	or	rcx, rax
	and	rdx, rdi
	or	rsi, rdx
	xor	rsi, rcx
	mov	qword ptr [8*r12 + _ZN8CryptoPPL2TdE], rsi
	mov	eax, dword ptr [rsp - 8]
	inc	eax
	mov	dword ptr [rsp - 4], eax
	mov	eax, r15d
.LBB3_2:                                

	cmp	eax, 209404530
	jg	.LBB3_6

	cmp	eax, -1467440338
	je	.LBB3_10

	cmp	eax, -1037452546
	je	.LBB3_5

	cmp	eax, -454445014
	jne	.LBB3_2

	movsxd	r12, dword ptr [rsp - 8]
	movzx	r8d, byte ptr [r12 + _ZN8CryptoPP8Rijndael4Base2SdE]
	lea	ebp, [8*r8]
	mov	ecx, r8d
	shr	ecx, 5
	mov	edx, ecx
	xor	edx, 5
	and	edx, ecx
	mov	edi, ecx
	xor	edi, 3
	and	edi, ecx
	not	ecx
	or	ecx, -2
	inc	ecx
	mov	eax, ebp
	not	eax
	and	eax, ecx
	not	ecx
	or	ecx, -284
	and	ecx, ebp
	and	eax, 283
	or	eax, ecx
	imul	ecx, edx, 283
	mov	edx, eax
	not	edx
	and	edx, ecx
	not	ecx
	and	ecx, eax
	or	ecx, edx
	imul	edi, edi, 283
	mov	eax, ecx
	not	eax
	and	eax, edi
	not	edi
	and	edi, ecx
	or	edi, eax
	lea	ebx, [4*r8]
	mov	ecx, r8d
	shr	ecx, 6
	mov	edx, ecx
	xor	edx, 2
	and	edx, ecx
	neg	edx
	mov	ebp, edx
	not	ebp
	or	ebp, -1687735228
	and	ebp, -1687734946
	and	edx, 1
	or	edx, ebp
	mov	eax, ebx
	not	eax
	and	eax, -1687734946
	and	ebx, 672
	or	ebx, eax
	xor	ebx, edx
	mov	eax, ecx
	xor	eax, 1
	and	eax, ecx
	imul	edx, eax, 283
	mov	eax, ebx
	not	eax
	and	eax, edx
	not	edx
	and	edx, ebx
	or	edx, eax
	mov	eax, edx
	not	eax
	and	eax, -954091192
	and	edx, 954091191
	or	edx, eax
	mov	r9d, edi
	not	r9d
	mov	ecx, r9d
	and	ecx, -954091192
	mov	eax, edi
	and	eax, 954091191
	or	eax, ecx
	xor	eax, edx
	mov	ebx, eax
	not	ebx
	mov	ecx, r8d
	and	ecx, ebx
	mov	ebp, r8d
	not	ebp
	and	eax, ebp
	or	eax, ecx
	shl	eax, 8
	lea	ecx, [r8 + r8]
	mov	esi, r8d
	shr	esi, 7
	neg	esi
	mov	edx, ecx
	not	edx
	and	edx, esi
	not	esi
	or	esi, -284
	and	esi, ecx
	and	edx, 283
	or	edx, esi
	mov	ecx, edx
	not	ecx
	xor	ebx, ecx
	and	ecx, r8d
	and	edx, ebp
	or	edx, ecx
	mov	ecx, edx
	and	edx, r9d
	and	r9d, 44215
	not	ecx
	and	ecx, edi
	and	edi, 21320
	or	edi, r9d
	and	ebp, 44215
	mov	esi, r8d
	and	esi, 72
	or	esi, ebp
	xor	esi, edi
	shl	esi, 16
	mov	edi, eax
	and	edi, esi
	xor	esi, eax
	or	esi, edi
	shl	ebx, 24
	mov	eax, esi
	and	eax, ebx
	xor	ebx, esi
	or	ebx, eax
	or	edx, ecx
	mov	eax, ebx
	not	eax
	mov	ecx, edx
	not	ecx
	mov	esi, eax
	and	esi, -372314594
	mov	edi, ebx
	and	edi, 372314368
	or	edi, esi
	or	eax, ecx
	and	ecx, -372314594
	and	edx, 372314593
	or	edx, ecx
	xor	edx, edi
	not	eax
	or	eax, edx
	shl	rax, 32
	mov	rcx, rbx
	and	rcx, r8
	xor	rbx, r8
	or	rbx, rcx
	mov	rcx, rbx
	not	rcx
	movabs	rdx, -5323467685910480511
	mov	rsi, rdx
	not	rdx
	and	rbx, rdx
	and	rdx, rax
	not	rax
	and	rcx, rsi
	or	rbx, rcx
	and	rax, rsi
	or	rdx, rax
	xor	rdx, rbx
	mov	qword ptr [8*r12 + _ZN8CryptoPPL2TdE], rdx
	mov	eax, dword ptr [rsp - 8]
	mov	eax, dword ptr [rsp - 8]
	mov	eax, dword ptr [rsp - 8]
	mov	eax, dword ptr [rsp - 8]
	mov	eax, 209404531
	jmp	.LBB3_2
.LBB3_6:                                
	cmp	eax, 209404531
	je	.LBB3_11

	cmp	eax, 1344854946
	jne	.LBB3_8

	mov	r11d, dword ptr [rsp - 4]
	jmp	.LBB3_1
.LBB3_10:
	mov	byte ptr [rip + _ZN8CryptoPPL10s_TdFilledE], 1
	pop	rbx
	pop	r12
	pop	r13
	pop	r14
	pop	r15
	pop	rbp
	ret
.Lfunc_end3:
	.size	_ZN8CryptoPP8Rijndael4Base12FillDecTableEv, .Lfunc_end3-_ZN8CryptoPP8Rijndael4Base12FillDecTableEv

	.globl	_ZNK8CryptoPP8Rijndael4Base17AlgorithmProviderB5cxx11Ev 
	.p2align	1, 0x90
	.type	_ZNK8CryptoPP8Rijndael4Base17AlgorithmProviderB5cxx11Ev,@function
_ZNK8CryptoPP8Rijndael4Base17AlgorithmProviderB5cxx11Ev: 
.Lfunc_begin0:
	.cfi_startproc
	.cfi_personality 3, __gxx_personality_v0
	.cfi_lsda 3, .Lexception0

	push	rbp
.Lcfi11:
	.cfi_def_cfa_offset 16
	push	rbx
.Lcfi12:
	.cfi_def_cfa_offset 24
	sub	rsp, 24
.Lcfi13:
	.cfi_def_cfa_offset 48
.Lcfi14:
	.cfi_offset rbx, -24
.Lcfi15:
	.cfi_offset rbp, -16
	mov	rbx, rdi
	mov	al, byte ptr [rip + _ZN8CryptoPP18g_x86DetectionDoneE]
	mov	byte ptr [rsp + 7], al
	mov	eax, 528342624
	mov	ebp, -599217126
	jmp	.LBB4_1
.LBB4_3:                                
	cmp	eax, 528342624
	jne	.LBB4_1

	mov	al, byte ptr [rsp + 7]
	mov	ecx, eax
	xor	cl, -2
	test	cl, al
	mov	eax, 526338746
	cmove	eax, ebp
	jmp	.LBB4_1
.LBB4_5:                                
	call	_ZN8CryptoPP17DetectX86FeaturesEv
	mov	eax, 526338746
.LBB4_1:                                
	cmp	eax, -599217126
	je	.LBB4_5

	cmp	eax, 526338746
	jne	.LBB4_3

	cmp	byte ptr [rip + _ZN8CryptoPP10g_hasAESNIE], 0
	je	.LBB4_8

.Ltmp0:
	lea	rdx, [rsp + 16]
	mov	esi, .L.str
	mov	rdi, rbx
	call	_ZNSt7__cxx1112basic_stringIcSt11char_traitsIcESaIcEEC2EPKcRKS3_
.Ltmp1:
	jmp	.LBB4_9
.LBB4_8:
.Ltmp3:
	lea	rdx, [rsp + 8]
	mov	esi, .L.str.1
	mov	rdi, rbx
	call	_ZNSt7__cxx1112basic_stringIcSt11char_traitsIcESaIcEEC2EPKcRKS3_
.Ltmp4:
.LBB4_9:
	mov	rax, rbx
	add	rsp, 24
	pop	rbx
	pop	rbp
	ret
.LBB4_12:
.Ltmp5:
	jmp	.LBB4_11
.LBB4_10:
.Ltmp2:
.LBB4_11:
	mov	rdi, rax
	call	_Unwind_Resume
.Lfunc_end4:
	.size	_ZNK8CryptoPP8Rijndael4Base17AlgorithmProviderB5cxx11Ev, .Lfunc_end4-_ZNK8CryptoPP8Rijndael4Base17AlgorithmProviderB5cxx11Ev
	.cfi_endproc
	.section	.gcc_except_table,"a",@progbits
	.p2align	2
GCC_except_table4:
.Lexception0:
	.byte	255                     
	.byte	3                       
	.asciz	"\266\200\200"          
	.byte	3                       
	.byte	52                      
	.long	.Lfunc_begin0-.Lfunc_begin0 
	.long	.Ltmp0-.Lfunc_begin0    
	.long	0                       
	.byte	0                       
	.long	.Ltmp0-.Lfunc_begin0    
	.long	.Ltmp1-.Ltmp0           
	.long	.Ltmp2-.Lfunc_begin0    
	.byte	0                       
	.long	.Ltmp3-.Lfunc_begin0    
	.long	.Ltmp4-.Ltmp3           
	.long	.Ltmp5-.Lfunc_begin0    
	.byte	0                       
	.long	.Ltmp4-.Lfunc_begin0    
	.long	.Lfunc_end4-.Ltmp4      
	.long	0                       
	.byte	0                       
	.p2align	2

	.text
	.globl	_ZThn8_NK8CryptoPP8Rijndael4Base17AlgorithmProviderB5cxx11Ev 
	.p2align	1, 0x90
	.type	_ZThn8_NK8CryptoPP8Rijndael4Base17AlgorithmProviderB5cxx11Ev,@function
_ZThn8_NK8CryptoPP8Rijndael4Base17AlgorithmProviderB5cxx11Ev: 
	.cfi_startproc

	push	rbx
.Lcfi16:
	.cfi_def_cfa_offset 16
.Lcfi17:
	.cfi_offset rbx, -16
	mov	rbx, rdi
	call	_ZNK8CryptoPP8Rijndael4Base17AlgorithmProviderB5cxx11Ev
	mov	rax, rbx
	pop	rbx
	ret
.Lfunc_end5:
	.size	_ZThn8_NK8CryptoPP8Rijndael4Base17AlgorithmProviderB5cxx11Ev, .Lfunc_end5-_ZThn8_NK8CryptoPP8Rijndael4Base17AlgorithmProviderB5cxx11Ev
	.cfi_endproc

	.globl	_ZN8CryptoPP8Rijndael4Base15UncheckedSetKeyEPKhjRKNS_14NameValuePairsE 
	.p2align	1, 0x90
	.type	_ZN8CryptoPP8Rijndael4Base15UncheckedSetKeyEPKhjRKNS_14NameValuePairsE,@function
_ZN8CryptoPP8Rijndael4Base15UncheckedSetKeyEPKhjRKNS_14NameValuePairsE: 
	.cfi_startproc

	push	rbp
.Lcfi18:
	.cfi_def_cfa_offset 16
	push	r15
.Lcfi19:
	.cfi_def_cfa_offset 24
	push	r14
.Lcfi20:
	.cfi_def_cfa_offset 32
	push	r13
.Lcfi21:
	.cfi_def_cfa_offset 40
	push	r12
.Lcfi22:
	.cfi_def_cfa_offset 48
	push	rbx
.Lcfi23:
	.cfi_def_cfa_offset 56
	sub	rsp, 296
.Lcfi24:
	.cfi_def_cfa_offset 352
.Lcfi25:
	.cfi_offset rbx, -56
.Lcfi26:
	.cfi_offset r12, -48
.Lcfi27:
	.cfi_offset r13, -40
.Lcfi28:
	.cfi_offset r14, -32
.Lcfi29:
	.cfi_offset r15, -24
.Lcfi30:
	.cfi_offset rbp, -16

	mov	qword ptr [rsp + 200], rsi 
	mov	eax, dword ptr [rip + x.20]
	mov	ecx, dword ptr [rip + y.21]
	mov	esi, eax
	neg	esi
	not	esi
	imul	esi, eax
	not	esi
	or	esi, -2
	mov	r14d, -1
	cmp	esi, r14d
	sete	byte ptr [rsp + 51]
	cmp	ecx, 10
	setl	byte ptr [rsp + 52]
	mov	eax, edx
	mov	qword ptr [rsp + 232], rax 
	lea	rax, [rdi + 56]
	mov	qword ptr [rsp + 184], rax 
	mov	ecx, edx
	shr	ecx, 2
	lea	rax, [rdi + 16]
	mov	qword ptr [rsp + 216], rax 
	lea	rax, [rdi + 24]
	mov	qword ptr [rsp + 176], rax 
	mov	qword ptr [rsp + 192], rdi 
	lea	rax, [rdi + 8]
	mov	qword ptr [rsp + 168], rax 
	cmp	edx, 24
	mov	eax, -325136273
	mov	esi, 1861112534
	cmove	esi, eax
	mov	dword ptr [rsp + 128], esi 
	cmp	edx, 32
	mov	eax, -1240415578
	mov	esi, -1959037075
	cmove	esi, eax
	mov	dword ptr [rsp + 124], esi 
	mov	qword ptr [rsp + 224], rcx 
	lea	eax, [rcx + 6]
	mov	dword ptr [rsp + 120], eax 
	add	edx, 28
	and	edx, -4
	mov	qword ptr [rsp + 240], rdx 
	mov	eax, -1946050474
	mov	ecx, 4664
	movq	xmm0, rcx
	pslldq	xmm0, 8                 
	movdqa	xmmword ptr [rsp + 272], xmm0 
	mov	r12b, -1
	mov	r13d, -599217126
	mov	r15d, 824315634
















	jmp	.LBB6_1
.LBB6_91:                               
	cmp	eax, 1725613527
	je	.LBB6_137

	cmp	eax, 1861112534
	jne	.LBB6_1

	mov	eax, dword ptr [rsp + 124] 
	jmp	.LBB6_1
.LBB6_4:                                
	cmp	eax, -1925711444
	jg	.LBB6_9

	cmp	eax, -2093942170
	je	.LBB6_273

	cmp	eax, -1959037075
	je	.LBB6_138

	cmp	eax, -1946050474
	jne	.LBB6_1

	mov	cl, byte ptr [rsp + 51]
	mov	al, byte ptr [rsp + 52]
	mov	edx, ecx
	xor	dl, al
	mov	edx, -2093942170
	mov	esi, 93778578
	cmovne	edx, esi
	test	al, al
	mov	eax, edx
	cmovne	eax, esi
	test	cl, cl
	cmove	eax, edx
	jmp	.LBB6_1
.LBB6_50:                               
	cmp	eax, -157974504
	jg	.LBB6_55

	cmp	eax, -443240964
	je	.LBB6_283

	cmp	eax, -325136273
	je	.LBB6_134

	cmp	eax, -270658257
	jne	.LBB6_1

	mov	rax, qword ptr [rsp + 8]
	mov	ecx, dword ptr [rax + 44]
	mov	rax, qword ptr [rsp + 8]
	mov	eax, dword ptr [rax + 16]
	mov	edx, ecx
	movzx	esi, ch  
	mov	edi, ecx
	xor	edi, -256
	and	edi, ecx

	shr	ecx, 24
	movzx	ebp, byte ptr [rcx + _ZN8CryptoPP8Rijndael4Base2SeE]
	shl	ebp, 24
	mov	ecx, ebp
	not	ecx
	and	ecx, eax
	not	eax
	and	eax, ebp
	or	eax, ecx
	shr	edx, 16
	movzx	ecx, dl
	movzx	ecx, byte ptr [rcx + _ZN8CryptoPP8Rijndael4Base2SeE]
	shl	ecx, 16
	mov	edx, eax
	not	edx
	and	edx, ecx
	not	ecx
	and	ecx, eax
	or	ecx, edx
	movzx	edx, byte ptr [rsi + _ZN8CryptoPP8Rijndael4Base2SeE]
	shl	edx, 8
	mov	eax, ecx
	not	eax
	and	eax, edx
	not	edx
	and	edx, ecx
	or	edx, eax
	movzx	eax, byte ptr [rdi + _ZN8CryptoPP8Rijndael4Base2SeE]
	mov	ecx, edx
	not	ecx
	and	ecx, eax
	not	eax
	and	eax, edx
	or	eax, ecx
	mov	rcx, qword ptr [rsp + 8]
	mov	dword ptr [rcx + 48], eax
	mov	rcx, qword ptr [rsp + 8]
	mov	ecx, dword ptr [rcx + 20]
	mov	edx, ecx
	not	edx
	and	edx, eax
	not	eax
	and	eax, ecx
	or	eax, edx
	mov	rcx, qword ptr [rsp + 8]
	mov	dword ptr [rcx + 52], eax
	mov	rcx, qword ptr [rsp + 8]
	mov	ecx, dword ptr [rcx + 24]
	mov	edx, ecx
	not	edx
	and	edx, -849607071
	and	ecx, 849607070
	or	ecx, edx
	mov	edx, eax
	not	edx
	and	edx, -849607071
	and	eax, 849607070
	or	eax, edx
	xor	eax, ecx
	mov	rcx, qword ptr [rsp + 8]
	mov	dword ptr [rcx + 56], eax
	mov	rax, qword ptr [rsp + 8]
	mov	rax, qword ptr [rsp + 8]
	mov	eax, -1585320610
	jmp	.LBB6_1
.LBB6_27:                               
	cmp	eax, -1062534917
	jg	.LBB6_32

	cmp	eax, -1244692753
	je	.LBB6_290

	cmp	eax, -1240415578
	je	.LBB6_135

	cmp	eax, -1084285377
	jne	.LBB6_1

	mov	eax, dword ptr [rsp + 128] 
	jmp	.LBB6_1
.LBB6_80:                               
	cmp	eax, 1512782000
	jg	.LBB6_85

	cmp	eax, 1043907895
	je	.LBB6_280

	cmp	eax, 1231027193
	je	.LBB6_147

	cmp	eax, 1339493203
	jne	.LBB6_1
	jmp	.LBB6_84
.LBB6_14:                               
	cmp	eax, -1668984451
	je	.LBB6_140

	cmp	eax, -1608802879
	je	.LBB6_84

	cmp	eax, -1585764105
	jne	.LBB6_1

	mov	rsi, qword ptr [rsp + 96]
	mov	rdx, qword ptr [rsp + 104]
	mov	rdi, qword ptr [rsp + 200] 
	call	_ZN8CryptoPP35Rijndael_UncheckedSetKey_SSE4_AESNIEPKhmPj
	mov	rdi, qword ptr [rsp + 168] 
	mov	rax, qword ptr [rdi]
	call	qword ptr [rax + 72]
	test	al, al
	mov	eax, 300213916
	mov	ecx, 1339493203
	cmovne	eax, ecx
	jmp	.LBB6_1
.LBB6_60:                               
	cmp	eax, 241257903
	je	.LBB6_105

	cmp	eax, 300213916
	je	.LBB6_120

	cmp	eax, 321105045
	jne	.LBB6_1

	mov	eax, dword ptr [rsp + 36]
	mov	rcx, qword ptr [rsp + 16]
	mov	edx, dword ptr [rcx + 4*rax]
	mov	esi, edx
	movzx	edi, dh  
	movzx	ebp, dl

	shr	edx, 24
	movzx	edx, byte ptr [rdx + _ZN8CryptoPP8Rijndael4Base2SeE]
	mov	edx, dword ptr [8*rdx + _ZN8CryptoPPL2TdE+4]
	shr	esi, 16
	mov	ebx, esi
	xor	ebx, 65280
	and	ebx, esi
	movzx	esi, byte ptr [rbx + _ZN8CryptoPP8Rijndael4Base2SeE]
	mov	esi, dword ptr [8*rsi + _ZN8CryptoPPL2TdE+1]
	mov	ebx, esi
	not	ebx
	and	ebx, -1843391918
	and	esi, 1843391917
	or	esi, ebx
	mov	ebx, edx
	not	ebx
	and	ebx, -1843391918
	and	edx, 1843391917
	or	edx, ebx
	xor	edx, esi
	movzx	esi, byte ptr [rdi + _ZN8CryptoPP8Rijndael4Base2SeE]
	mov	esi, dword ptr [8*rsi + _ZN8CryptoPPL2TdE+2]
	mov	edi, edx
	not	edi
	and	edi, -890075855
	and	edx, 890075854
	or	edx, edi
	mov	edi, esi
	not	edi
	and	edi, -890075855
	and	esi, 890075854
	or	esi, edi
	xor	esi, edx
	movzx	edx, byte ptr [rbp + _ZN8CryptoPP8Rijndael4Base2SeE]
	mov	edx, dword ptr [8*rdx + _ZN8CryptoPPL2TdE+3]
	mov	edi, esi
	not	edi
	and	edi, edx
	not	edx
	and	edx, esi
	or	edx, edi
	mov	dword ptr [rcx + 4*rax], edx
	mov	ecx, dword ptr [rsp + 36]
	neg	ecx
	mov	eax, 1
	sub	eax, ecx
	mov	rcx, qword ptr [rsp + 16]
	mov	edx, dword ptr [rcx + 4*rax]
	mov	esi, edx
	mov	edi, edx
	mov	ebp, edx
	xor	ebp, -256
	and	ebp, edx

	shr	edx, 24
	movzx	edx, byte ptr [rdx + _ZN8CryptoPP8Rijndael4Base2SeE]
	mov	edx, dword ptr [8*rdx + _ZN8CryptoPPL2TdE+4]
	shr	esi, 16
	mov	ebx, esi
	xor	ebx, 65280
	and	ebx, esi
	movzx	esi, byte ptr [rbx + _ZN8CryptoPP8Rijndael4Base2SeE]
	mov	ebx, dword ptr [8*rsi + _ZN8CryptoPPL2TdE+1]
	mov	esi, ebx
	not	esi
	and	esi, edx
	not	edx
	and	edx, ebx
	or	edx, esi
	shr	edi, 8
	mov	esi, edi
	xor	esi, 16776960
	and	esi, edi
	movzx	esi, byte ptr [rsi + _ZN8CryptoPP8Rijndael4Base2SeE]
	mov	esi, dword ptr [8*rsi + _ZN8CryptoPPL2TdE+2]
	mov	edi, edx
	not	edi
	and	edi, esi
	not	esi
	and	esi, edx
	or	esi, edi
	movzx	edx, byte ptr [rbp + _ZN8CryptoPP8Rijndael4Base2SeE]
	mov	edx, dword ptr [8*rdx + _ZN8CryptoPPL2TdE+3]
	mov	edi, esi
	not	edi
	and	edi, edx
	not	edx
	and	edx, esi
	or	edx, edi
	mov	dword ptr [rcx + 4*rax], edx
	mov	ecx, dword ptr [rsp + 36]
	neg	ecx
	mov	eax, 2
	sub	eax, ecx
	mov	rcx, qword ptr [rsp + 16]
	mov	edx, dword ptr [rcx + 4*rax]
	mov	esi, edx
	movzx	edi, dh  
	movzx	ebp, dl

	shr	edx, 24
	movzx	edx, byte ptr [rdx + _ZN8CryptoPP8Rijndael4Base2SeE]
	mov	edx, dword ptr [8*rdx + _ZN8CryptoPPL2TdE+4]
	shr	esi, 16
	movzx	esi, sil
	movzx	esi, byte ptr [rsi + _ZN8CryptoPP8Rijndael4Base2SeE]
	mov	esi, dword ptr [8*rsi + _ZN8CryptoPPL2TdE+1]
	mov	ebx, esi
	not	ebx
	and	ebx, 505129456
	and	esi, -505129457
	or	esi, ebx
	mov	ebx, edx
	not	ebx
	and	ebx, 505129456
	and	edx, -505129457
	or	edx, ebx
	xor	edx, esi
	movzx	esi, byte ptr [rdi + _ZN8CryptoPP8Rijndael4Base2SeE]
	mov	esi, dword ptr [8*rsi + _ZN8CryptoPPL2TdE+2]
	mov	edi, edx
	not	edi
	and	edi, 1028977191
	and	edx, -1028977192
	or	edx, edi
	mov	edi, esi
	not	edi
	and	edi, 1028977191
	and	esi, -1028977192
	or	esi, edi
	xor	esi, edx
	movzx	edx, byte ptr [rbp + _ZN8CryptoPP8Rijndael4Base2SeE]
	mov	edx, dword ptr [8*rdx + _ZN8CryptoPPL2TdE+3]
	mov	edi, esi
	not	edi
	and	edi, -1754507916
	and	esi, 1754507915
	or	esi, edi
	mov	edi, edx
	not	edi
	and	edi, -1754507916
	and	edx, 1754507915
	or	edx, edi
	xor	edx, esi
	mov	dword ptr [rcx + 4*rax], edx
	mov	eax, dword ptr [rsp + 36]
	add	eax, 3
	mov	rcx, qword ptr [rsp + 16]
	mov	edx, dword ptr [rcx + 4*rax]
	mov	esi, edx
	movzx	edi, dh  
	mov	ebp, edx
	xor	ebp, -256
	and	ebp, edx

	shr	edx, 24
	movzx	edx, byte ptr [rdx + _ZN8CryptoPP8Rijndael4Base2SeE]
	mov	edx, dword ptr [8*rdx + _ZN8CryptoPPL2TdE+4]
	shr	esi, 16
	movzx	esi, sil
	movzx	esi, byte ptr [rsi + _ZN8CryptoPP8Rijndael4Base2SeE]
	mov	ebx, dword ptr [8*rsi + _ZN8CryptoPPL2TdE+1]
	mov	esi, ebx
	not	esi
	and	esi, edx
	not	edx
	and	edx, ebx
	or	edx, esi
	movzx	esi, byte ptr [rdi + _ZN8CryptoPP8Rijndael4Base2SeE]
	mov	esi, dword ptr [8*rsi + _ZN8CryptoPPL2TdE+2]
	mov	edi, edx
	not	edi
	and	edi, esi
	not	esi
	and	esi, edx
	or	esi, edi
	movzx	edx, byte ptr [rbp + _ZN8CryptoPP8Rijndael4Base2SeE]
	mov	edx, dword ptr [8*rdx + _ZN8CryptoPPL2TdE+3]
	mov	edi, esi
	not	edi
	and	edi, -1766174701
	and	esi, 1766174700
	or	esi, edi
	mov	edi, edx
	not	edi
	and	edi, -1766174701
	and	edx, 1766174700
	or	edx, edi
	xor	edx, esi
	mov	dword ptr [rcx + 4*rax], edx
	mov	rax, qword ptr [rsp + 16]
	mov	ebp, dword ptr [rax]
	mov	eax, -916830890

	jmp	.LBB6_64
.LBB6_66:                               
	cmp	eax, -916830890
	jne	.LBB6_64

	mov	eax, dword ptr [rip + x.64]
	mov	ecx, dword ptr [rip + y.65]
	mov	edx, eax
	neg	edx
	not	edx
	imul	edx, eax
	mov	eax, edx
	xor	eax, -2
	test	eax, edx
	sete	byte ptr [rsp + 7]
	cmp	ecx, 10
	setl	byte ptr [rsp + 40]
	mov	ecx, -316881371
	jmp	.LBB6_68
.LBB6_70:                               
	cmp	ecx, -622221325
	jne	.LBB6_68

	call	_ZN8CryptoPP10EnumToTypeINS_9ByteOrderELi0EE6ToEnumEv
	mov	ecx, dword ptr [rip + x.64]
	mov	edi, dword ptr [rip + y.65]
	lea	esi, [rcx - 1]
	imul	esi, ecx
	mov	ecx, esi
	xor	ecx, -2
	and	ecx, esi
	sete	bl
	cmp	edi, 10
	setl	dl
	xor	dl, bl
	mov	edx, 824315634
	mov	esi, -1717617973
	cmovne	edx, esi
	test	ecx, ecx
	mov	ecx, edx
	cmove	ecx, esi
	cmp	edi, 10
	mov	dword ptr [rsp + 24], eax
	cmovge	ecx, edx
	jmp	.LBB6_68
.LBB6_149:                              
	cmp	ecx, 824315634
	je	.LBB6_152

	cmp	ecx, -316881371
	jne	.LBB6_68

	mov	al, byte ptr [rsp + 7]
	mov	cl, byte ptr [rsp + 40]
	mov	edx, eax
	xor	dl, cl
	mov	edx, 824315634
	mov	esi, -622221325
	cmovne	edx, esi
	test	cl, cl
	mov	ecx, edx
	cmovne	ecx, esi
	test	al, al
	cmove	ecx, edx
	jmp	.LBB6_68
.LBB6_152:                              
	call	_ZN8CryptoPP10EnumToTypeINS_9ByteOrderELi0EE6ToEnumEv
	mov	ecx, -622221325
.LBB6_68:                               


	cmp	ecx, -316881372
	jg	.LBB6_149

	cmp	ecx, -1717617973
	jne	.LBB6_70

	mov	eax, dword ptr [rsp + 24]
	cmp	eax, 1
	mov	eax, 1435709933
	mov	ecx, -451683310
	cmove	eax, ecx
	mov	ebx, ebp
	jmp	.LBB6_64
.LBB6_154:                              
	mov	ebx, ebp
	bswap	ebx
	mov	eax, -451683310
.LBB6_64:                               


	cmp	eax, 1435709933
	je	.LBB6_154

	cmp	eax, -451683310
	jne	.LBB6_66

	mov	rax, qword ptr [rsp + 56]
	mov	eax, dword ptr [rax]
	shl	eax, 2
	mov	rcx, qword ptr [rsp + 16]
	mov	ebp, dword ptr [rcx + 4*rax]
	mov	ecx, -916830890

	jmp	.LBB6_156
.LBB6_158:                              
	cmp	ecx, -916830890
	jne	.LBB6_156

	mov	eax, dword ptr [rip + x.64]
	mov	ecx, dword ptr [rip + y.65]
	mov	edx, eax
	neg	edx
	not	edx
	imul	edx, eax
	not	edx
	or	edx, -2
	cmp	edx, r14d
	sete	byte ptr [rsp + 7]
	cmp	ecx, 10
	setl	byte ptr [rsp + 40]
	mov	eax, -316881371
	jmp	.LBB6_160
.LBB6_162:                              
	cmp	eax, -622221325
	jne	.LBB6_160

	call	_ZN8CryptoPP10EnumToTypeINS_9ByteOrderELi0EE6ToEnumEv
	mov	dword ptr [rsp + 24], eax
	mov	eax, dword ptr [rip + x.64]
	lea	ecx, [rax - 1]
	imul	ecx, eax
	not	ecx
	or	ecx, -2
	cmp	ecx, r14d
	sete	cl
	mov	eax, 824315634
	mov	esi, -1717617973
	cmove	eax, esi
	cmp	dword ptr [rip + y.65], 10
	setl	dl
	cmovge	eax, r15d
	xor	dl, cl
	cmovne	eax, esi
	jmp	.LBB6_160
.LBB6_164:                              
	cmp	eax, 824315634
	je	.LBB6_167

	cmp	eax, -316881371
	jne	.LBB6_160

	mov	cl, byte ptr [rsp + 7]
	mov	al, byte ptr [rsp + 40]
	mov	edx, ecx
	xor	dl, al
	test	al, al
	mov	eax, 824315634
	mov	esi, -622221325
	cmovne	eax, esi
	test	cl, cl
	cmove	eax, r15d
	test	dl, dl
	cmovne	eax, esi
	jmp	.LBB6_160
.LBB6_167:                              
	call	_ZN8CryptoPP10EnumToTypeINS_9ByteOrderELi0EE6ToEnumEv
	mov	eax, -622221325
.LBB6_160:                              


	cmp	eax, -316881372
	jg	.LBB6_164

	cmp	eax, -1717617973
	jne	.LBB6_162

	mov	eax, dword ptr [rsp + 24]
	cmp	eax, 1
	mov	ecx, 1435709933
	mov	eax, -451683310
	cmove	ecx, eax
	mov	eax, ebp
	jmp	.LBB6_156
.LBB6_169:                              
	mov	eax, ebp
	bswap	eax
	mov	ecx, -451683310
.LBB6_156:                              


	cmp	ecx, 1435709933
	je	.LBB6_169

	cmp	ecx, -451683310
	jne	.LBB6_158

	mov	rcx, qword ptr [rsp + 16]
	mov	dword ptr [rcx], eax
	mov	rax, qword ptr [rsp + 56]
	mov	eax, dword ptr [rax]
	shl	eax, 2
	mov	rcx, qword ptr [rsp + 16]
	mov	dword ptr [rcx + 4*rax], ebx
	mov	r13, qword ptr [rsp + 16]
	mov	ebx, dword ptr [r13 + 4]
	mov	eax, -916830890

	jmp	.LBB6_171
.LBB6_173:                              
	cmp	eax, -916830890
	jne	.LBB6_171

	mov	eax, dword ptr [rip + x.64]
	mov	ecx, dword ptr [rip + y.65]
	lea	edx, [rax - 1]
	imul	edx, eax
	mov	eax, edx
	xor	eax, -2
	test	eax, edx
	sete	byte ptr [rsp + 7]
	cmp	ecx, 10
	setl	byte ptr [rsp + 40]
	mov	eax, -316881371
	jmp	.LBB6_175
.LBB6_177:                              
	cmp	eax, -622221325
	jne	.LBB6_175

	call	_ZN8CryptoPP10EnumToTypeINS_9ByteOrderELi0EE6ToEnumEv
	mov	dword ptr [rsp + 24], eax
	mov	eax, dword ptr [rip + x.64]
	lea	ecx, [rax - 1]
	imul	ecx, eax
	not	ecx
	or	ecx, -2
	cmp	ecx, r14d
	sete	cl
	mov	eax, 824315634
	mov	esi, -1717617973
	cmove	eax, esi
	cmp	dword ptr [rip + y.65], 10
	setl	dl
	cmovge	eax, r15d
	xor	dl, cl
	cmovne	eax, esi
	jmp	.LBB6_175
.LBB6_179:                              
	cmp	eax, 824315634
	je	.LBB6_182

	cmp	eax, -316881371
	jne	.LBB6_175

	mov	cl, byte ptr [rsp + 7]
	mov	al, byte ptr [rsp + 40]
	mov	edx, ecx
	xor	dl, al
	mov	edx, 824315634
	mov	esi, -622221325
	cmovne	edx, esi
	test	al, al
	mov	eax, edx
	cmovne	eax, esi
	test	cl, cl
	cmove	eax, edx
	jmp	.LBB6_175
.LBB6_182:                              
	call	_ZN8CryptoPP10EnumToTypeINS_9ByteOrderELi0EE6ToEnumEv
	mov	eax, -622221325
.LBB6_175:                              


	cmp	eax, -316881372
	jg	.LBB6_179

	cmp	eax, -1717617973
	jne	.LBB6_177

	mov	eax, dword ptr [rsp + 24]
	cmp	eax, 1
	mov	eax, 1435709933
	mov	ecx, -451683310
	cmove	eax, ecx
	mov	r12d, ebx
	jmp	.LBB6_171
.LBB6_184:                              
	mov	r12d, ebx
	bswap	r12d
	mov	eax, -451683310
.LBB6_171:                              


	cmp	eax, 1435709933
	je	.LBB6_184

	cmp	eax, -451683310
	jne	.LBB6_173

	mov	r15d, -1
	mov	rax, qword ptr [rsp + 56]
	mov	eax, dword ptr [rax]
	shl	eax, 2
	mov	ecx, eax
	not	ecx
	and	ecx, -1772747505
	and	eax, 1772747504
	or	eax, ecx
	xor	eax, -1772747506
	mov	rcx, qword ptr [rsp + 16]
	mov	r14d, dword ptr [rcx + 4*rax]
	mov	ecx, -916830890

	jmp	.LBB6_186
.LBB6_188:                              
	cmp	ecx, -916830890
	jne	.LBB6_186

	mov	eax, dword ptr [rip + x.64]
	mov	ecx, dword ptr [rip + y.65]
	lea	edx, [rax - 1]
	imul	edx, eax
	not	edx
	or	edx, -2
	cmp	edx, r15d
	sete	byte ptr [rsp + 7]
	cmp	ecx, 10
	setl	byte ptr [rsp + 40]
	mov	ecx, -316881371
	jmp	.LBB6_190
.LBB6_192:                              
	cmp	ecx, -622221325
	jne	.LBB6_190

	call	_ZN8CryptoPP10EnumToTypeINS_9ByteOrderELi0EE6ToEnumEv
	mov	ecx, dword ptr [rip + x.64]
	mov	edx, dword ptr [rip + y.65]
	mov	esi, ecx
	neg	esi
	not	esi
	imul	esi, ecx
	not	esi
	or	esi, -2
	mov	ebp, -1
	cmp	esi, ebp
	sete	cl
	cmp	edx, 10
	setl	bl
	xor	bl, cl
	mov	edi, 824315634
	mov	ebx, -1717617973
	cmovne	edi, ebx
	mov	r15d, -1
	cmp	esi, ebp
	mov	ecx, edi
	cmove	ecx, ebx
	cmp	edx, 10
	mov	dword ptr [rsp + 24], eax
	cmovge	ecx, edi
	jmp	.LBB6_190
.LBB6_194:                              
	cmp	ecx, 824315634
	je	.LBB6_197

	cmp	ecx, -316881371
	jne	.LBB6_190

	mov	al, byte ptr [rsp + 7]
	mov	cl, byte ptr [rsp + 40]
	mov	edx, eax
	xor	dl, cl
	mov	edx, 824315634
	mov	esi, -622221325
	cmovne	edx, esi
	test	cl, cl
	mov	ecx, edx
	cmovne	ecx, esi
	test	al, al
	cmove	ecx, edx
	jmp	.LBB6_190
.LBB6_197:                              
	call	_ZN8CryptoPP10EnumToTypeINS_9ByteOrderELi0EE6ToEnumEv
	mov	ecx, -622221325
.LBB6_190:                              


	cmp	ecx, -316881372
	jg	.LBB6_194

	cmp	ecx, -1717617973
	jne	.LBB6_192

	mov	eax, dword ptr [rsp + 24]
	cmp	eax, 1
	mov	ecx, 1435709933
	mov	eax, -451683310
	cmove	ecx, eax
	mov	eax, r14d
	jmp	.LBB6_186
.LBB6_199:                              
	mov	eax, r14d
	bswap	eax
	mov	ecx, -451683310
.LBB6_186:                              


	cmp	ecx, 1435709933
	je	.LBB6_199

	cmp	ecx, -451683310
	jne	.LBB6_188

	mov	dword ptr [r13 + 4], eax
	mov	rax, qword ptr [rsp + 56]
	mov	eax, dword ptr [rax]
	shl	eax, 2
	mov	ecx, eax
	not	ecx
	and	ecx, 1186550686
	and	eax, -1186550688
	or	eax, ecx
	xor	eax, 1186550687
	mov	rcx, qword ptr [rsp + 16]
	mov	dword ptr [rcx + 4*rax], r12d
	mov	r13, qword ptr [rsp + 16]
	mov	r14d, dword ptr [r13 + 8]
	mov	eax, -916830890

	mov	r12b, -1
	mov	r15d, 824315634
	jmp	.LBB6_201
.LBB6_203:                              
	cmp	eax, -916830890
	jne	.LBB6_201

	mov	eax, dword ptr [rip + x.64]
	mov	ecx, dword ptr [rip + y.65]
	lea	edx, [rax - 1]
	imul	edx, eax
	mov	eax, edx
	xor	eax, -2
	test	eax, edx
	sete	byte ptr [rsp + 7]
	cmp	ecx, 10
	setl	byte ptr [rsp + 40]
	mov	ecx, -316881371
	jmp	.LBB6_205
.LBB6_207:                              
	cmp	ecx, -622221325
	jne	.LBB6_205

	call	_ZN8CryptoPP10EnumToTypeINS_9ByteOrderELi0EE6ToEnumEv
	mov	ecx, dword ptr [rip + x.64]
	mov	edi, dword ptr [rip + y.65]
	lea	esi, [rcx - 1]
	imul	esi, ecx
	mov	ecx, esi
	xor	ecx, -2
	and	ecx, esi
	sete	bl
	cmp	edi, 10
	setl	dl
	xor	dl, bl
	mov	edx, 824315634
	mov	esi, -1717617973
	cmovne	edx, esi
	test	ecx, ecx
	mov	ecx, edx
	cmove	ecx, esi
	cmp	edi, 10
	mov	dword ptr [rsp + 24], eax
	cmovge	ecx, edx
	jmp	.LBB6_205
.LBB6_209:                              
	cmp	ecx, 824315634
	je	.LBB6_212

	cmp	ecx, -316881371
	jne	.LBB6_205

	mov	al, byte ptr [rsp + 7]
	mov	cl, byte ptr [rsp + 40]
	mov	edx, eax
	xor	dl, cl
	test	cl, cl
	mov	ecx, 824315634
	mov	esi, -622221325
	cmovne	ecx, esi
	test	al, al
	cmove	ecx, r15d
	test	dl, dl
	cmovne	ecx, esi
	jmp	.LBB6_205
.LBB6_212:                              
	call	_ZN8CryptoPP10EnumToTypeINS_9ByteOrderELi0EE6ToEnumEv
	mov	ecx, -622221325
.LBB6_205:                              


	cmp	ecx, -316881372
	jg	.LBB6_209

	cmp	ecx, -1717617973
	jne	.LBB6_207

	mov	eax, dword ptr [rsp + 24]
	cmp	eax, 1
	mov	eax, 1435709933
	mov	ecx, -451683310
	cmove	eax, ecx
	mov	ebp, r14d
	jmp	.LBB6_201
.LBB6_214:                              
	mov	ebp, r14d
	bswap	ebp
	mov	eax, -451683310
.LBB6_201:                              


	cmp	eax, 1435709933
	je	.LBB6_214

	cmp	eax, -451683310
	jne	.LBB6_203

	mov	rax, qword ptr [rsp + 56]
	mov	eax, dword ptr [rax]
	shl	eax, 2
	mov	ecx, eax
	not	ecx
	and	ecx, -2076500332
	and	eax, 2076500328
	or	eax, ecx
	xor	eax, -2076500330
	mov	rcx, qword ptr [rsp + 16]
	mov	r14d, dword ptr [rcx + 4*rax]
	mov	ecx, -916830890

	jmp	.LBB6_216
.LBB6_218:                              
	cmp	ecx, -916830890
	jne	.LBB6_216

	mov	eax, dword ptr [rip + x.64]
	mov	ecx, dword ptr [rip + y.65]
	lea	edx, [rax - 1]
	imul	edx, eax
	mov	eax, edx
	xor	eax, -2
	test	eax, edx
	sete	byte ptr [rsp + 7]
	cmp	ecx, 10
	setl	byte ptr [rsp + 40]
	mov	ecx, -316881371
	jmp	.LBB6_220
.LBB6_222:                              
	cmp	ecx, -622221325
	jne	.LBB6_220

	call	_ZN8CryptoPP10EnumToTypeINS_9ByteOrderELi0EE6ToEnumEv
	mov	ecx, dword ptr [rip + x.64]
	mov	edi, dword ptr [rip + y.65]
	lea	esi, [rcx - 1]
	imul	esi, ecx
	mov	ecx, esi
	xor	ecx, -2
	and	ecx, esi
	sete	bl
	cmp	edi, 10
	setl	dl
	xor	dl, bl
	mov	edx, 824315634
	mov	esi, -1717617973
	cmovne	edx, esi
	test	ecx, ecx
	mov	ecx, edx
	cmove	ecx, esi
	cmp	edi, 10
	mov	dword ptr [rsp + 24], eax
	cmovge	ecx, edx
	jmp	.LBB6_220
.LBB6_224:                              
	cmp	ecx, 824315634
	je	.LBB6_227

	cmp	ecx, -316881371
	jne	.LBB6_220

	mov	al, byte ptr [rsp + 7]
	mov	cl, byte ptr [rsp + 40]
	mov	edx, eax
	xor	dl, cl
	mov	edx, 824315634
	mov	esi, -622221325
	cmovne	edx, esi
	test	cl, cl
	mov	ecx, edx
	cmovne	ecx, esi
	test	al, al
	cmove	ecx, edx
	jmp	.LBB6_220
.LBB6_227:                              
	call	_ZN8CryptoPP10EnumToTypeINS_9ByteOrderELi0EE6ToEnumEv
	mov	ecx, -622221325
.LBB6_220:                              


	cmp	ecx, -316881372
	jg	.LBB6_224

	cmp	ecx, -1717617973
	jne	.LBB6_222

	mov	eax, dword ptr [rsp + 24]
	cmp	eax, 1
	mov	ecx, 1435709933
	mov	eax, -451683310
	cmove	ecx, eax
	mov	eax, r14d
	jmp	.LBB6_216
.LBB6_229:                              
	mov	eax, r14d
	bswap	eax
	mov	ecx, -451683310
.LBB6_216:                              


	cmp	ecx, 1435709933
	je	.LBB6_229

	cmp	ecx, -451683310
	jne	.LBB6_218

	mov	dword ptr [r13 + 8], eax
	mov	rax, qword ptr [rsp + 56]
	mov	eax, dword ptr [rax]
	lea	eax, [4*rax + 2]
	mov	rcx, qword ptr [rsp + 16]
	mov	dword ptr [rcx + 4*rax], ebp
	mov	r13, qword ptr [rsp + 16]
	mov	ebx, dword ptr [r13 + 12]
	mov	eax, -916830890

	jmp	.LBB6_231
.LBB6_233:                              
	cmp	eax, -916830890
	jne	.LBB6_231

	mov	eax, dword ptr [rip + x.64]
	mov	ecx, dword ptr [rip + y.65]
	lea	edx, [rax - 1]
	imul	edx, eax
	mov	eax, edx
	xor	eax, -2
	test	eax, edx
	sete	byte ptr [rsp + 7]
	cmp	ecx, 10
	setl	byte ptr [rsp + 40]
	mov	eax, -316881371
	jmp	.LBB6_235
.LBB6_237:                              
	cmp	eax, -622221325
	jne	.LBB6_235

	call	_ZN8CryptoPP10EnumToTypeINS_9ByteOrderELi0EE6ToEnumEv
	mov	dword ptr [rsp + 24], eax
	mov	eax, dword ptr [rip + x.64]
	mov	ecx, eax
	neg	ecx
	not	ecx
	imul	ecx, eax
	mov	eax, ecx
	xor	eax, -2
	and	eax, ecx
	sete	cl
	test	eax, eax
	mov	eax, 824315634
	mov	esi, -1717617973
	cmove	eax, esi
	cmp	dword ptr [rip + y.65], 10
	setl	dl
	cmovge	eax, r15d
	xor	dl, cl
	cmovne	eax, esi
	jmp	.LBB6_235
.LBB6_239:                              
	cmp	eax, 824315634
	je	.LBB6_242

	cmp	eax, -316881371
	jne	.LBB6_235

	mov	cl, byte ptr [rsp + 7]
	mov	al, byte ptr [rsp + 40]
	mov	edx, ecx
	xor	dl, al
	mov	edx, 824315634
	mov	esi, -622221325
	cmovne	edx, esi
	test	al, al
	mov	eax, edx
	cmovne	eax, esi
	test	cl, cl
	cmove	eax, edx
	jmp	.LBB6_235
.LBB6_242:                              
	call	_ZN8CryptoPP10EnumToTypeINS_9ByteOrderELi0EE6ToEnumEv
	mov	eax, -622221325
.LBB6_235:                              


	cmp	eax, -316881372
	jg	.LBB6_239

	cmp	eax, -1717617973
	jne	.LBB6_237

	mov	eax, dword ptr [rsp + 24]
	cmp	eax, 1
	mov	eax, 1435709933
	mov	ecx, -451683310
	cmove	eax, ecx
	mov	ebp, ebx
	jmp	.LBB6_231
.LBB6_244:                              
	mov	ebp, ebx
	bswap	ebp
	mov	eax, -451683310
.LBB6_231:                              


	cmp	eax, 1435709933
	je	.LBB6_244

	cmp	eax, -451683310
	jne	.LBB6_233

	mov	rax, qword ptr [rsp + 56]
	mov	eax, dword ptr [rax]
	shl	eax, 2
	mov	ecx, eax
	not	ecx
	and	ecx, 2085141649
	and	eax, -2085141652
	or	eax, ecx
	xor	eax, 2085141650
	mov	rcx, qword ptr [rsp + 16]
	mov	r14d, dword ptr [rcx + 4*rax]
	mov	ecx, -916830890

	jmp	.LBB6_246
.LBB6_248:                              
	cmp	ecx, -916830890
	jne	.LBB6_246

	mov	eax, dword ptr [rip + x.64]
	mov	ecx, dword ptr [rip + y.65]
	lea	edx, [rax - 1]
	imul	edx, eax
	mov	eax, edx
	xor	eax, -2
	test	eax, edx
	sete	byte ptr [rsp + 7]
	cmp	ecx, 10
	setl	byte ptr [rsp + 40]
	mov	ecx, -316881371
	jmp	.LBB6_250
.LBB6_252:                              
	cmp	ecx, -622221325
	jne	.LBB6_250

	call	_ZN8CryptoPP10EnumToTypeINS_9ByteOrderELi0EE6ToEnumEv
	mov	ecx, dword ptr [rip + x.64]
	mov	edi, dword ptr [rip + y.65]
	mov	esi, ecx
	neg	esi
	not	esi
	imul	esi, ecx
	mov	ecx, esi
	xor	ecx, -2
	and	ecx, esi
	sete	bl
	cmp	edi, 10
	setl	dl
	xor	dl, bl
	mov	edx, 824315634
	mov	esi, -1717617973
	cmovne	edx, esi
	test	ecx, ecx
	mov	ecx, edx
	cmove	ecx, esi
	cmp	edi, 10
	mov	dword ptr [rsp + 24], eax
	cmovge	ecx, edx
	jmp	.LBB6_250
.LBB6_254:                              
	cmp	ecx, 824315634
	je	.LBB6_257

	cmp	ecx, -316881371
	jne	.LBB6_250

	mov	al, byte ptr [rsp + 7]
	mov	cl, byte ptr [rsp + 40]
	mov	edx, eax
	xor	dl, cl
	mov	edx, 824315634
	mov	esi, -622221325
	cmovne	edx, esi
	test	cl, cl
	mov	ecx, edx
	cmovne	ecx, esi
	test	al, al
	cmove	ecx, edx
	jmp	.LBB6_250
.LBB6_257:                              
	call	_ZN8CryptoPP10EnumToTypeINS_9ByteOrderELi0EE6ToEnumEv
	mov	ecx, -622221325
.LBB6_250:                              


	cmp	ecx, -316881372
	jg	.LBB6_254

	cmp	ecx, -1717617973
	jne	.LBB6_252

	mov	eax, dword ptr [rsp + 24]
	cmp	eax, 1
	mov	ecx, 1435709933
	mov	eax, -451683310
	cmove	ecx, eax
	mov	eax, r14d
	jmp	.LBB6_246
.LBB6_259:                              
	mov	eax, r14d
	bswap	eax
	mov	ecx, -451683310
.LBB6_246:                              


	cmp	ecx, 1435709933
	je	.LBB6_259

	cmp	ecx, -451683310
	jne	.LBB6_248

	mov	dword ptr [r13 + 12], eax
	mov	rax, qword ptr [rsp + 56]
	mov	eax, dword ptr [rax]
	shl	eax, 2
	mov	ecx, eax
	not	ecx
	and	ecx, 1504479630
	and	eax, -1504479632
	or	eax, ecx
	xor	eax, 1504479629
	mov	rcx, qword ptr [rsp + 16]
	mov	dword ptr [rcx + 4*rax], ebp
	mov	eax, 2077104457
	mov	r14d, -1
	mov	r13d, -599217126
	jmp	.LBB6_1
.LBB6_37:                               
	cmp	eax, -835448924
	je	.LBB6_271

	cmp	eax, -728273865
	je	.LBB6_270

	cmp	eax, -601088015
	jne	.LBB6_1

	mov	eax, dword ptr [rip + x.20]
	mov	ecx, dword ptr [rip + y.21]
	lea	edx, [rax - 1]
	imul	edx, eax
	not	edx
	or	edx, -2
	cmp	edx, r14d
	sete	al
	cmp	ecx, 10
	setl	bl
	xor	bl, al
	mov	esi, -1244692753
	mov	edi, -835448924
	jmp	.LBB6_132
.LBB6_94:                               
	cmp	eax, 2035911072
	je	.LBB6_133

	cmp	eax, 2077104457
	je	.LBB6_261

	cmp	eax, 2116071951
	jne	.LBB6_1

	mov	rsi, qword ptr [rsp + 16]
	mov	edi, 1
	mov	ecx, 16
	mov	rdx, rsi
	call	_ZN8CryptoPP22ConditionalByteReverseIjEEvNS_9ByteOrderEPT_PKS2_m
	mov	rax, qword ptr [rsp + 56]
	mov	eax, dword ptr [rax]
	shl	eax, 2
	mov	rcx, qword ptr [rsp + 16]
	lea	rsi, [rcx + 4*rax]
	mov	edi, 1
	mov	ecx, 16
	mov	rdx, rsi
	call	_ZN8CryptoPP22ConditionalByteReverseIjEEvNS_9ByteOrderEPT_PKS2_m
	mov	eax, 2077104457
	jmp	.LBB6_1
.LBB6_9:                                
	cmp	eax, -1925711443
	je	.LBB6_142

	cmp	eax, -1827717575
	je	.LBB6_281

	cmp	eax, -1682034111
	jne	.LBB6_1

	mov	eax, dword ptr [rsp + 132]
	mov	dword ptr [rsp + 88], eax 
	mov	eax, 1725613527
	mov	rcx, qword ptr [rsp + 256]
	mov	qword ptr [rsp + 152], rcx 
	jmp	.LBB6_1
.LBB6_55:                               
	cmp	eax, -157974503
	je	.LBB6_131

	cmp	eax, 93778578
	je	.LBB6_98

	cmp	eax, 179042531
	jne	.LBB6_1

	mov	rax, qword ptr [rsp + 72]
	mov	rax, qword ptr [rax + 24]
	mov	qword ptr [rsp + 16], rax
	mov	rdi, qword ptr [rsp + 168] 
	mov	rax, qword ptr [rdi]
	call	qword ptr [rax + 72]
	test	al, al
	mov	eax, 1610137358
	mov	ecx, -447882699
	cmovne	eax, ecx
	jmp	.LBB6_1
.LBB6_32:                               
	cmp	eax, -1062534916
	je	.LBB6_148

	cmp	eax, -1032787318
	je	.LBB6_282

	cmp	eax, -1011421894
	jne	.LBB6_1

	call	_ZN8CryptoPP8Rijndael4Base12FillEncTableEv
	mov	eax, dword ptr [rip + x.20]
	mov	ecx, dword ptr [rip + y.21]
	lea	edx, [rax - 1]
	imul	edx, eax
	mov	eax, edx
	xor	eax, -2
	and	eax, edx
	sete	dl
	cmp	ecx, 10
	setl	bl
	xor	bl, dl
	mov	edx, -1032787318
	mov	esi, -1418847035
	jmp	.LBB6_141
.LBB6_85:                               
	cmp	eax, 1512782001
	je	.LBB6_143

	cmp	eax, 1610137358
	je	.LBB6_146

	cmp	eax, 1635461925
	jne	.LBB6_1

	mov	eax, dword ptr [rsp + 84] 
	mov	dword ptr [rsp + 68], eax
	mov	eax, dword ptr [rsp + 80] 
	mov	dword ptr [rsp + 36], eax
	mov	eax, dword ptr [rsp + 68]
	mov	ecx, dword ptr [rsp + 36]
	cmp	ecx, eax
	mov	eax, 321105045
	mov	ecx, -1062534916
	cmovb	eax, ecx
	jmp	.LBB6_1
.LBB6_22:                               
	cmp	eax, -1418847035
	je	.LBB6_145

	cmp	eax, -1278942239
	jne	.LBB6_1

	mov	eax, dword ptr [rip + x.20]
	lea	ecx, [rax - 1]
	imul	ecx, eax
	not	ecx
	or	ecx, -2
	cmp	ecx, r14d
	sete	cl
	mov	eax, 1043907895
	mov	esi, 2035911072
	cmove	eax, esi
	cmp	dword ptr [rip + y.21], 10
	setl	dl
	mov	edi, 1043907895
	jmp	.LBB6_25
.LBB6_76:                               
	cmp	eax, 783468501
	je	.LBB6_262

	cmp	eax, 1013556038
	jne	.LBB6_1

	call	_ZN8CryptoPP8Rijndael4Base12FillDecTableEv
	mov	eax, 1231027193
	jmp	.LBB6_1
.LBB6_45:                               
	cmp	eax, -471933118
	je	.LBB6_269

	cmp	eax, -447882699
	jne	.LBB6_1

	cmp	byte ptr [rip + _ZN8CryptoPPL10s_TeFilledE], 0
	mov	eax, 2116071951
	mov	ecx, 1512782001
	cmove	eax, ecx
	jmp	.LBB6_1
.LBB6_84:                               
	mov	eax, 1996536814
	jmp	.LBB6_1
.LBB6_136:                              
	mov	rax, qword ptr [rsp + 8]
	mov	ecx, dword ptr [rax + 44]
	mov	rax, qword ptr [rsp + 8]
	mov	ebx, dword ptr [rax + 16]
	mov	edx, ecx
	movzx	esi, ch  
	mov	edi, ecx
	xor	edi, -256
	and	edi, ecx

	shr	ecx, 24
	movzx	ecx, byte ptr [rcx + _ZN8CryptoPP8Rijndael4Base2SeE]
	shl	ecx, 24
	mov	ebp, ecx
	not	ebp
	and	ebp, 650827533
	and	ecx, -654311424
	or	ecx, ebp
	mov	eax, ebx
	not	eax
	and	eax, 650827533
	and	ebx, -650827534
	or	ebx, eax
	xor	ebx, ecx
	shr	edx, 16
	movzx	eax, dl
	movzx	eax, byte ptr [rax + _ZN8CryptoPP8Rijndael4Base2SeE]
	shl	eax, 16
	mov	ecx, ebx
	not	ecx
	and	ecx, eax
	not	eax
	and	eax, ebx
	or	eax, ecx
	movzx	ecx, byte ptr [rsi + _ZN8CryptoPP8Rijndael4Base2SeE]
	shl	ecx, 8
	mov	edx, eax
	not	edx
	and	edx, ecx
	not	ecx
	and	ecx, eax
	or	ecx, edx
	movzx	eax, byte ptr [rdi + _ZN8CryptoPP8Rijndael4Base2SeE]
	mov	edx, ecx
	not	edx
	and	edx, eax
	not	eax
	and	eax, ecx
	or	eax, edx
	mov	rcx, qword ptr [rsp + 8]
	mov	dword ptr [rcx + 48], eax
	mov	rcx, qword ptr [rsp + 8]
	mov	ecx, dword ptr [rcx + 20]
	mov	edx, ecx
	not	edx
	and	edx, -1036795659
	and	ecx, 1036795658
	or	ecx, edx
	mov	edx, eax
	not	edx
	and	edx, -1036795659
	and	eax, 1036795658
	or	eax, edx
	xor	eax, ecx
	mov	rcx, qword ptr [rsp + 8]
	mov	dword ptr [rcx + 52], eax
	mov	rcx, qword ptr [rsp + 8]
	mov	ecx, dword ptr [rcx + 24]
	mov	edx, ecx
	not	edx
	and	edx, 1340941942
	and	ecx, -1340941943
	or	ecx, edx
	mov	edx, eax
	not	edx
	and	edx, 1340941942
	and	eax, -1340941943
	or	eax, edx
	xor	eax, ecx
	mov	rcx, qword ptr [rsp + 8]
	mov	dword ptr [rcx + 56], eax
	mov	rcx, qword ptr [rsp + 8]
	mov	ecx, dword ptr [rcx + 28]
	mov	edx, ecx
	not	edx
	and	edx, eax
	not	eax
	and	eax, ecx
	or	eax, edx
	mov	dword ptr [rsp + 132], eax
	mov	rax, qword ptr [rsp + 8]
	add	rax, 60
	mov	qword ptr [rsp + 256], rax
	mov	eax, dword ptr [rip + x.20]
	lea	ecx, [rax - 1]
	imul	ecx, eax
	mov	eax, ecx
	xor	eax, -2
	and	eax, ecx
	sete	cl
	test	eax, eax
	mov	eax, -270658257
	mov	esi, -1682034111
	cmove	eax, esi
	cmp	dword ptr [rip + y.21], 10
	setl	dl
	mov	edi, -270658257
	jmp	.LBB6_25
.LBB6_121:                              
	mov	eax, dword ptr [rsp + 64]
	mov	qword ptr [rsp + 208], rax
	mov	rbp, qword ptr [rsp + 96]
	mov	r14, qword ptr [rsp + 104]
	mov	r12, qword ptr [rsp + 208]
	mov	qword ptr [rsp + 24], rbp
	mov	qword ptr [rsp + 40], 4
	shl	r12, 2
	mov	rdi, r14
	mov	rsi, r12
	mov	rdx, qword ptr [rsp + 200] 
	mov	rcx, rbp
	call	_ZN8CryptoPP8memcpy_sEPvmPKvm
	lea	r13, [r14 + rbp]
	movabs	rax, -2279507616119380895
	sub	r12, rax
	sub	r12, rbp
	add	r12, rax
	mov	eax, dword ptr [rip + x.222]
	mov	ecx, dword ptr [rip + y.223]
	lea	edx, [rax - 1]
	imul	edx, eax
	mov	eax, edx
	xor	eax, -2
	test	eax, edx
	sete	byte ptr [rsp + 55]
	cmp	ecx, 10
	setl	byte ptr [rsp + 7]
	mov	eax, 798037345
	jmp	.LBB6_122
.LBB6_124:                              
	cmp	eax, -906919599
	jne	.LBB6_122

	xor	esi, esi
	mov	rdi, r13
	mov	rdx, r12
	call	memset
	mov	eax, dword ptr [rip + x.222]
	lea	ecx, [rax - 1]
	imul	ecx, eax
	mov	eax, ecx
	xor	eax, -2
	and	eax, ecx
	sete	cl
	test	eax, eax
	mov	eax, 1478688418
	mov	esi, -1126192340
	cmove	eax, esi
	cmp	dword ptr [rip + y.223], 10
	setl	dl
	mov	edi, 1478688418
	cmovge	eax, edi
	xor	dl, cl
	cmovne	eax, esi
	jmp	.LBB6_122
.LBB6_126:                              
	cmp	eax, 1478688418
	je	.LBB6_129

	cmp	eax, 798037345
	jne	.LBB6_122

	mov	cl, byte ptr [rsp + 55]
	mov	al, byte ptr [rsp + 7]
	mov	edx, ecx
	xor	dl, al
	mov	edx, 1478688418
	mov	esi, -906919599
	cmovne	edx, esi
	test	al, al
	mov	eax, edx
	cmovne	eax, esi
	test	cl, cl
	cmove	eax, edx
	jmp	.LBB6_122
.LBB6_129:                              
	xor	esi, esi
	mov	rdi, r13
	mov	rdx, r12
	call	memset
	mov	eax, -906919599
.LBB6_122:                              

	cmp	eax, 798037344
	jg	.LBB6_126

	cmp	eax, -1126192340
	jne	.LBB6_124

	lea	rdi, [rsp + 24]
	lea	rsi, [rsp + 40]
	call	_ZN8CryptoPP19RoundUpToMultipleOfImmEET_RKS1_RKT0_
	mov	edi, 1
	mov	rsi, r14
	mov	rdx, r14
	mov	rcx, rax
	call	_ZN8CryptoPP22ConditionalByteReverseIjEEvNS_9ByteOrderEPT_PKS2_m
	mov	eax, -504321674
	mov	rcx, qword ptr [rsp + 104]
	mov	qword ptr [rsp + 144], rcx 
	mov	ecx, _ZN8CryptoPP8Rijndael4Base4rconE
	mov	qword ptr [rsp + 136], rcx 
	mov	r14d, -1
	mov	r12b, -1
	mov	r13d, -599217126
	jmp	.LBB6_1
.LBB6_139:                              
	mov	rax, qword ptr [rsp + 160] 
	mov	qword ptr [rsp + 264], rax
	cmp	dword ptr [rsp + 92], 0 
	mov	eax, 179042531
	mov	ecx, -1668984451
	cmove	eax, ecx
	jmp	.LBB6_1
.LBB6_137:                              
	mov	eax, dword ptr [rsp + 88] 
	mov	rcx, qword ptr [rsp + 152] 
	mov	dword ptr [rcx], eax
	mov	eax, -1959037075
	jmp	.LBB6_1
.LBB6_273:                              
	mov	rbx, qword ptr [rsp + 192] 
	mov	rdx, qword ptr [rbx + 72]
	mov	rsi, qword ptr [rbx + 80]
	mov	ecx, 4664
	xor	r8d, r8d
	mov	rdi, qword ptr [rsp + 184] 
	call	_ZN8CryptoPP18StandardReallocateIhNS_20AllocatorWithCleanupIhLb0EEEEENT0_7pointerERS3_PT_NS3_9size_typeES8_b
	mov	qword ptr [rbx + 80], rax
	movdqa	xmm0, xmmword ptr [rsp + 272] 
	movdqu	xmmword ptr [rbx + 64], xmm0
	mov	eax, dword ptr [rsp + 120] 
	mov	dword ptr [rbx + 16], eax
	mov	rdi, qword ptr [rsp + 176] 
	mov	rsi, qword ptr [rsp + 240] 
	call	_ZN8CryptoPP8SecBlockIjNS_20AllocatorWithCleanupIjLb1EEEE3NewEm
	mov	al, byte ptr [rip + _ZN8CryptoPP18g_x86DetectionDoneE]
	mov	byte ptr [rsp + 24], al
	mov	eax, 528342624
	jmp	.LBB6_274
.LBB6_276:                              
	cmp	eax, 528342624
	jne	.LBB6_274

	mov	al, byte ptr [rsp + 24]
	not	al
	or	al, -2
	cmp	al, r12b
	mov	eax, 526338746
	cmove	eax, r13d
	jmp	.LBB6_274
.LBB6_278:                              
	call	_ZN8CryptoPP17DetectX86FeaturesEv
	mov	eax, 526338746
.LBB6_274:                              

	cmp	eax, -599217126
	je	.LBB6_278

	cmp	eax, 526338746
	jne	.LBB6_276

	mov	eax, 93778578
	jmp	.LBB6_1
.LBB6_138:                              
	mov	eax, -532867559
	mov	dword ptr [rsp + 92], 0 
	mov	rcx, qword ptr [rsp + 112]
	mov	qword ptr [rsp + 160], rcx 
	jmp	.LBB6_1
.LBB6_283:                              
	mov	al, byte ptr [rip + _ZN8CryptoPP18g_x86DetectionDoneE]
	mov	byte ptr [rsp + 24], al
	mov	eax, 528342624
	jmp	.LBB6_284
.LBB6_286:                              
	cmp	eax, 528342624
	jne	.LBB6_284

	mov	al, byte ptr [rsp + 24]
	not	al
	or	al, -2
	cmp	al, r12b
	mov	eax, 526338746
	cmove	eax, r13d
	jmp	.LBB6_284
.LBB6_288:                              
	call	_ZN8CryptoPP17DetectX86FeaturesEv
	mov	eax, 526338746
.LBB6_284:                              

	cmp	eax, -599217126
	je	.LBB6_288

	cmp	eax, 526338746
	jne	.LBB6_286

	mov	eax, 783468501
	jmp	.LBB6_1
.LBB6_134:                              
	mov	rax, qword ptr [rsp + 8]
	mov	edx, dword ptr [rax + 16]
	mov	rax, qword ptr [rsp + 8]
	mov	eax, dword ptr [rax + 36]
	mov	ecx, eax
	not	ecx
	and	ecx, edx
	not	edx
	and	edx, eax
	or	edx, ecx
	mov	rax, qword ptr [rsp + 8]
	mov	dword ptr [rax + 40], edx
	mov	rax, qword ptr [rsp + 8]
	mov	eax, dword ptr [rax + 20]
	mov	ecx, eax
	not	ecx
	and	ecx, -834967297
	and	eax, 834967296
	or	eax, ecx
	mov	ecx, edx
	not	ecx
	and	ecx, -834967297
	and	edx, 834967296
	or	edx, ecx
	xor	edx, eax
	mov	dword ptr [rsp + 88], edx 
	mov	rax, qword ptr [rsp + 8]
	add	rax, 44
	mov	qword ptr [rsp + 152], rax 
	mov	eax, 1725613527
	jmp	.LBB6_1
.LBB6_290:                              
	mov	eax, -835448924
	jmp	.LBB6_1
.LBB6_135:                              
	mov	eax, dword ptr [rip + x.20]
	mov	ecx, dword ptr [rip + y.21]
	mov	edx, eax
	neg	edx
	not	edx
	imul	edx, eax
	not	edx
	or	edx, -2
	cmp	edx, r14d
	sete	al
	cmp	ecx, 10
	setl	bl
	xor	bl, al
	mov	esi, -270658257
	mov	edi, -1585320610
	jmp	.LBB6_132
.LBB6_280:                              
	mov	eax, -1278942239
	jmp	.LBB6_1
.LBB6_147:                              
	mov	rax, qword ptr [rsp + 56]
	mov	eax, dword ptr [rax]
	shl	eax, 2
	neg	eax
	mov	ecx, -4
	sub	ecx, eax
	mov	dword ptr [rsp + 84], ecx 
	mov	eax, 1635461925
	mov	dword ptr [rsp + 80], 4 
	jmp	.LBB6_1
.LBB6_140:                              
	mov	eax, dword ptr [rip + x.20]
	mov	ecx, dword ptr [rip + y.21]
	lea	edx, [rax - 1]
	imul	edx, eax
	mov	eax, edx
	xor	eax, -2
	and	eax, edx
	sete	dl
	cmp	ecx, 10
	setl	bl
	xor	bl, dl
	mov	edx, -1827717575
	mov	esi, 514787181
	jmp	.LBB6_141
.LBB6_105:                              
	mov	al, byte ptr [rip + _ZN8CryptoPP18g_x86DetectionDoneE]
	mov	byte ptr [rsp + 24], al
	mov	eax, -396116148
	jmp	.LBB6_106
.LBB6_111:                              
	cmp	eax, 1152696302
	je	.LBB6_117

	cmp	eax, -153593211
	je	.LBB6_119

	cmp	eax, -396116148
	jne	.LBB6_106

	mov	al, byte ptr [rsp + 24]
	not	al
	or	al, -2
	cmp	al, r12b
	mov	eax, -740244137
	mov	ecx, -1524627655
	cmove	eax, ecx
	jmp	.LBB6_106
.LBB6_118:                              
	call	_ZN8CryptoPP17DetectX86FeaturesEv
	mov	eax, 1152696302
	jmp	.LBB6_106
.LBB6_115:                              
	mov	eax, dword ptr [rip + x.32]
	mov	ecx, dword ptr [rip + y.33]
	lea	edx, [rax - 1]
	imul	edx, eax
	mov	eax, edx
	xor	eax, -2
	and	eax, edx
	sete	dl
	cmp	ecx, 10
	setl	bl
	xor	bl, dl
	mov	edx, -1796123061
	mov	esi, 1152696302
	jmp	.LBB6_116
.LBB6_117:                              
	call	_ZN8CryptoPP17DetectX86FeaturesEv
	mov	eax, dword ptr [rip + x.32]
	mov	ecx, dword ptr [rip + y.33]
	mov	edx, eax
	neg	edx
	not	edx
	imul	edx, eax
	mov	eax, edx
	xor	eax, -2
	and	eax, edx
	sete	dl
	cmp	ecx, 10
	setl	bl
	xor	bl, dl
	mov	edx, -1796123061
	mov	esi, -153593211
.LBB6_116:                              
	cmovne	edx, esi
	test	eax, eax
	mov	eax, edx
	cmove	eax, esi
	cmp	ecx, 10
	cmovge	eax, edx
	jmp	.LBB6_106
.LBB6_119:                              
	mov	eax, -740244137
.LBB6_106:                              

	cmp	eax, -396116149
	jg	.LBB6_111

	cmp	eax, -1796123061
	je	.LBB6_118

	cmp	eax, -1524627655
	je	.LBB6_115

	cmp	eax, -740244137
	jne	.LBB6_106

	cmp	byte ptr [rip + _ZN8CryptoPP10g_hasSSE41E], 0
	mov	eax, -1585764105
	mov	ecx, 466955171
	cmove	eax, ecx
	jmp	.LBB6_1
.LBB6_120:                              
	mov	rax, qword ptr [rsp + 72]
	mov	rdi, qword ptr [rax + 24]
	mov	rax, qword ptr [rsp + 56]
	mov	esi, dword ptr [rax]
	call	_ZN8CryptoPP33Rijndael_UncheckedSetKeyRev_AESNIEPjj
	mov	eax, 1339493203
	jmp	.LBB6_1
.LBB6_271:                              
	mov	eax, dword ptr [rip + x.20]
	lea	ecx, [rax - 1]
	imul	ecx, eax
	not	ecx
	or	ecx, -2
	cmp	ecx, r14d
	sete	cl
	mov	eax, -1244692753
	mov	esi, -1608802879
	cmove	eax, esi
	cmp	dword ptr [rip + y.21], 10
	setl	dl
	mov	edi, -1244692753
.LBB6_25:                               
	cmovge	eax, edi
	xor	dl, cl
	cmovne	eax, esi
	jmp	.LBB6_1
.LBB6_270:                              
	mov	rsi, qword ptr [rsp + 16]
	add	rsi, 16
	mov	rax, qword ptr [rsp + 56]
	mov	ecx, dword ptr [rax]
	shl	ecx, 4
	add	ecx, -16
	mov	edi, 1
	mov	rdx, rsi
	call	_ZN8CryptoPP22ConditionalByteReverseIjEEvNS_9ByteOrderEPT_PKS2_m
	mov	eax, -601088015
	jmp	.LBB6_1
.LBB6_133:                              
	mov	eax, -532867559
	mov	dword ptr [rsp + 92], 3 
	mov	rcx, qword ptr [rsp + 8]
	mov	qword ptr [rsp + 160], rcx 
	jmp	.LBB6_1
.LBB6_261:                              
	mov	eax, dword ptr [rip + x.20]
	mov	ecx, dword ptr [rip + y.21]
	mov	edx, eax
	neg	edx
	not	edx
	imul	edx, eax
	not	edx
	or	edx, -2
	cmp	edx, r14d
	sete	al
	cmp	ecx, 10
	setl	bl
	xor	bl, al
	mov	esi, -443240964
	mov	edi, 783468501
	jmp	.LBB6_132
.LBB6_142:                              
	mov	rax, qword ptr [rsp + 248]
	mov	qword ptr [rsp + 136], rax 
	mov	eax, -504321674
	mov	rcx, qword ptr [rsp + 264]
	mov	qword ptr [rsp + 144], rcx 
	jmp	.LBB6_1
.LBB6_281:                              
	mov	eax, 514787181
	jmp	.LBB6_1
.LBB6_131:                              
	mov	eax, dword ptr [rip + x.20]
	mov	ecx, dword ptr [rip + y.21]
	lea	edx, [rax - 1]
	imul	edx, eax
	not	edx
	or	edx, -2
	cmp	edx, r14d
	sete	al
	cmp	ecx, 10
	setl	bl
	xor	bl, al
	mov	esi, 1043907895
	mov	edi, -1278942239
.LBB6_132:                              
	cmovne	esi, edi
	cmp	edx, r14d
	mov	eax, esi
	cmove	eax, edi
	cmp	ecx, 10
	cmovge	eax, esi
	jmp	.LBB6_1
.LBB6_98:                               
	mov	rax, qword ptr [rsp + 232] 
	mov	qword ptr [rsp + 96], rax
	mov	rax, qword ptr [rsp + 96]
	mov	rbx, qword ptr [rsp + 192] 
	mov	rdx, qword ptr [rbx + 72]
	mov	rsi, qword ptr [rbx + 80]
	mov	ecx, 4664
	xor	r8d, r8d
	mov	rdi, qword ptr [rsp + 184] 
	call	_ZN8CryptoPP18StandardReallocateIhNS_20AllocatorWithCleanupIhLb0EEEEENT0_7pointerERS3_PT_NS3_9size_typeES8_b
	mov	qword ptr [rbx + 80], rax
	mov	eax, 4664
	movq	xmm0, rax
	pslldq	xmm0, 8                 
	movdqu	xmmword ptr [rbx + 64], xmm0
	mov	rax, qword ptr [rsp + 224] 
	mov	dword ptr [rsp + 64], eax
	mov	eax, dword ptr [rsp + 64]
	lea	ecx, [rax + 6]
	mov	rdx, qword ptr [rsp + 216] 
	mov	qword ptr [rsp + 56], rdx
	mov	rdx, qword ptr [rsp + 56]
	mov	dword ptr [rdx], ecx
	mov	rcx, qword ptr [rsp + 176] 
	mov	qword ptr [rsp + 72], rcx
	shl	eax, 2
	neg	eax
	mov	esi, 28
	sub	esi, eax
	mov	rdi, qword ptr [rsp + 72]
	call	_ZN8CryptoPP8SecBlockIjNS_20AllocatorWithCleanupIjLb1EEEE3NewEm
	mov	rax, qword ptr [rsp + 72]
	mov	rax, qword ptr [rax + 24]
	mov	qword ptr [rsp + 104], rax
	mov	al, byte ptr [rip + _ZN8CryptoPP18g_x86DetectionDoneE]
	mov	byte ptr [rsp + 24], al
	mov	eax, 528342624
	jmp	.LBB6_99
.LBB6_101:                              
	cmp	eax, 528342624
	jne	.LBB6_99

	mov	al, byte ptr [rsp + 24]
	not	al
	or	al, -2
	cmp	al, r12b
	mov	eax, 526338746
	cmove	eax, r13d
	jmp	.LBB6_99
.LBB6_103:                              
	call	_ZN8CryptoPP17DetectX86FeaturesEv
	mov	eax, 526338746
.LBB6_99:                               

	cmp	eax, -599217126
	je	.LBB6_103

	cmp	eax, 526338746
	jne	.LBB6_101

	cmp	byte ptr [rip + _ZN8CryptoPP10g_hasAESNIE], 0
	setne	byte ptr [rsp + 53]
	mov	eax, dword ptr [rip + x.20]
	lea	ecx, [rax - 1]
	imul	ecx, eax
	not	ecx
	or	ecx, -2
	cmp	ecx, r14d
	sete	cl
	mov	eax, -2093942170
	mov	edi, -1454979134
	cmove	eax, edi
	cmp	dword ptr [rip + y.21], 10
	setl	dl
	mov	esi, -2093942170
	jmp	.LBB6_144
.LBB6_148:                              
	mov	r8d, dword ptr [rsp + 36]
	mov	r9, qword ptr [rsp + 16]
	mov	edx, dword ptr [r9 + 4*r8]
	mov	esi, edx
	movzx	edi, dh  
	mov	ebp, edx
	xor	ebp, -256
	and	ebp, edx

	shr	edx, 24
	movzx	edx, byte ptr [rdx + _ZN8CryptoPP8Rijndael4Base2SeE]
	mov	edx, dword ptr [8*rdx + _ZN8CryptoPPL2TdE+4]
	shr	esi, 16
	mov	ebx, esi
	xor	ebx, 65280
	and	ebx, esi
	movzx	esi, byte ptr [rbx + _ZN8CryptoPP8Rijndael4Base2SeE]
	mov	ebx, dword ptr [8*rsi + _ZN8CryptoPPL2TdE+1]
	mov	esi, ebx
	not	esi
	and	esi, edx
	not	edx
	and	edx, ebx
	or	edx, esi
	movzx	esi, byte ptr [rdi + _ZN8CryptoPP8Rijndael4Base2SeE]
	mov	esi, dword ptr [8*rsi + _ZN8CryptoPPL2TdE+2]
	mov	edi, edx
	not	edi
	and	edi, esi
	not	esi
	and	esi, edx
	or	esi, edi
	movzx	edx, byte ptr [rbp + _ZN8CryptoPP8Rijndael4Base2SeE]
	mov	edx, dword ptr [8*rdx + _ZN8CryptoPPL2TdE+3]
	mov	edi, esi
	not	edi
	and	edi, edx
	not	edx
	and	edx, esi
	or	edx, edi
	mov	r10d, dword ptr [rsp + 68]
	mov	rdi, qword ptr [rsp + 16]
	mov	ebx, dword ptr [rdi + 4*r10]
	mov	eax, ebx
	mov	ebp, ebx
	movzx	ecx, bl

	shr	ebx, 24
	movzx	ebx, byte ptr [rbx + _ZN8CryptoPP8Rijndael4Base2SeE]
	mov	ebx, dword ptr [8*rbx + _ZN8CryptoPPL2TdE+4]
	shr	eax, 16
	movzx	eax, al
	movzx	eax, byte ptr [rax + _ZN8CryptoPP8Rijndael4Base2SeE]
	mov	esi, dword ptr [8*rax + _ZN8CryptoPPL2TdE+1]
	mov	eax, esi
	not	eax
	and	eax, ebx
	not	ebx
	and	ebx, esi
	or	ebx, eax
	shr	ebp, 8
	mov	eax, ebp
	xor	eax, 16776960
	and	eax, ebp
	movzx	eax, byte ptr [rax + _ZN8CryptoPP8Rijndael4Base2SeE]
	mov	eax, dword ptr [8*rax + _ZN8CryptoPPL2TdE+2]
	mov	esi, ebx
	not	esi
	and	esi, eax
	not	eax
	and	eax, ebx
	or	eax, esi
	movzx	ecx, byte ptr [rcx + _ZN8CryptoPP8Rijndael4Base2SeE]
	mov	ecx, dword ptr [8*rcx + _ZN8CryptoPPL2TdE+3]
	mov	esi, eax
	not	esi
	and	esi, ecx
	not	ecx
	and	ecx, eax
	or	ecx, esi
	mov	dword ptr [r9 + 4*r8], ecx
	mov	dword ptr [rdi + 4*r10], edx
	mov	r9d, dword ptr [rsp + 36]
	inc	r9d
	mov	r8, qword ptr [rsp + 16]
	mov	edx, dword ptr [r8 + 4*r9]
	mov	esi, edx
	movzx	edi, dh  
	movzx	ecx, dl

	shr	edx, 24
	movzx	edx, byte ptr [rdx + _ZN8CryptoPP8Rijndael4Base2SeE]
	mov	edx, dword ptr [8*rdx + _ZN8CryptoPPL2TdE+4]
	shr	esi, 16
	mov	ebp, esi
	xor	ebp, 65280
	and	ebp, esi
	movzx	esi, byte ptr [rbp + _ZN8CryptoPP8Rijndael4Base2SeE]
	mov	ebp, dword ptr [8*rsi + _ZN8CryptoPPL2TdE+1]
	mov	esi, ebp
	not	esi
	and	esi, edx
	not	edx
	and	edx, ebp
	or	edx, esi
	movzx	esi, byte ptr [rdi + _ZN8CryptoPP8Rijndael4Base2SeE]
	mov	esi, dword ptr [8*rsi + _ZN8CryptoPPL2TdE+2]
	mov	edi, edx
	not	edi
	and	edi, esi
	not	esi
	and	esi, edx
	or	esi, edi
	movzx	ecx, byte ptr [rcx + _ZN8CryptoPP8Rijndael4Base2SeE]
	mov	edx, dword ptr [8*rcx + _ZN8CryptoPPL2TdE+3]
	mov	ecx, esi
	not	ecx
	and	ecx, edx
	not	edx
	and	edx, esi
	or	edx, ecx
	mov	ecx, dword ptr [rsp + 68]
	neg	ecx
	mov	esi, 1
	sub	esi, ecx
	mov	r10, qword ptr [rsp + 16]
	mov	ebx, dword ptr [r10 + 4*rsi]
	mov	ebp, ebx
	movzx	ecx, bh  
	movzx	eax, bl

	shr	ebx, 24
	movzx	ebx, byte ptr [rbx + _ZN8CryptoPP8Rijndael4Base2SeE]
	mov	ebx, dword ptr [8*rbx + _ZN8CryptoPPL2TdE+4]
	shr	ebp, 16
	movzx	ebp, bpl
	movzx	ebp, byte ptr [rbp + _ZN8CryptoPP8Rijndael4Base2SeE]
	mov	edi, dword ptr [8*rbp + _ZN8CryptoPPL2TdE+1]
	mov	ebp, edi
	not	ebp
	and	ebp, ebx
	not	ebx
	and	ebx, edi
	or	ebx, ebp
	movzx	ecx, byte ptr [rcx + _ZN8CryptoPP8Rijndael4Base2SeE]
	mov	ecx, dword ptr [8*rcx + _ZN8CryptoPPL2TdE+2]
	mov	edi, ebx
	not	edi
	and	edi, ecx
	not	ecx
	and	ecx, ebx
	or	ecx, edi
	movzx	eax, byte ptr [rax + _ZN8CryptoPP8Rijndael4Base2SeE]
	mov	eax, dword ptr [8*rax + _ZN8CryptoPPL2TdE+3]
	mov	edi, ecx
	not	edi
	and	edi, eax
	not	eax
	and	eax, ecx
	or	eax, edi
	mov	dword ptr [r8 + 4*r9], eax
	mov	dword ptr [r10 + 4*rsi], edx
	mov	r9d, dword ptr [rsp + 36]
	add	r9d, 2
	mov	r8, qword ptr [rsp + 16]
	mov	edx, dword ptr [r8 + 4*r9]
	mov	esi, edx
	mov	ecx, edx
	movzx	edi, dl

	shr	edx, 24
	movzx	edx, byte ptr [rdx + _ZN8CryptoPP8Rijndael4Base2SeE]
	mov	edx, dword ptr [8*rdx + _ZN8CryptoPPL2TdE+4]
	shr	esi, 16
	mov	ebp, esi
	xor	ebp, 65280
	and	ebp, esi
	movzx	esi, byte ptr [rbp + _ZN8CryptoPP8Rijndael4Base2SeE]
	mov	esi, dword ptr [8*rsi + _ZN8CryptoPPL2TdE+1]
	mov	ebp, esi
	not	ebp
	and	ebp, -1280325876
	and	esi, 1280325875
	or	esi, ebp
	mov	ebp, edx
	not	ebp
	and	ebp, -1280325876
	and	edx, 1280325875
	or	edx, ebp
	xor	edx, esi
	shr	ecx, 8
	mov	esi, ecx
	xor	esi, 16776960
	and	esi, ecx
	movzx	ecx, byte ptr [rsi + _ZN8CryptoPP8Rijndael4Base2SeE]
	mov	ecx, dword ptr [8*rcx + _ZN8CryptoPPL2TdE+2]
	mov	esi, edx
	not	esi
	and	esi, ecx
	not	ecx
	and	ecx, edx
	or	ecx, esi
	movzx	edx, byte ptr [rdi + _ZN8CryptoPP8Rijndael4Base2SeE]
	mov	edx, dword ptr [8*rdx + _ZN8CryptoPPL2TdE+3]
	mov	esi, ecx
	not	esi
	and	esi, edx
	not	edx
	and	edx, ecx
	or	edx, esi
	mov	esi, dword ptr [rsp + 68]
	add	esi, 2
	mov	r10, qword ptr [rsp + 16]
	mov	ecx, dword ptr [r10 + 4*rsi]
	mov	ebp, ecx
	mov	ebx, ecx
	movzx	eax, cl

	shr	ecx, 24
	movzx	ecx, byte ptr [rcx + _ZN8CryptoPP8Rijndael4Base2SeE]
	mov	ecx, dword ptr [8*rcx + _ZN8CryptoPPL2TdE+4]
	shr	ebp, 16
	mov	edi, ebp
	xor	edi, 65280
	and	edi, ebp
	movzx	edi, byte ptr [rdi + _ZN8CryptoPP8Rijndael4Base2SeE]
	mov	edi, dword ptr [8*rdi + _ZN8CryptoPPL2TdE+1]
	mov	ebp, edi
	not	ebp
	and	ebp, 1114825859
	and	edi, -1114825860
	or	edi, ebp
	mov	ebp, ecx
	not	ebp
	and	ebp, 1114825859
	and	ecx, -1114825860
	or	ecx, ebp
	xor	ecx, edi
	shr	ebx, 8
	mov	edi, ebx
	xor	edi, 16776960
	and	edi, ebx
	movzx	edi, byte ptr [rdi + _ZN8CryptoPP8Rijndael4Base2SeE]
	mov	edi, dword ptr [8*rdi + _ZN8CryptoPPL2TdE+2]
	mov	ebp, ecx
	not	ebp
	and	ebp, 699715686
	and	ecx, -699715687
	or	ecx, ebp
	mov	ebp, edi
	not	ebp
	and	ebp, 699715686
	and	edi, -699715687
	or	edi, ebp
	xor	edi, ecx
	movzx	eax, byte ptr [rax + _ZN8CryptoPP8Rijndael4Base2SeE]
	mov	eax, dword ptr [8*rax + _ZN8CryptoPPL2TdE+3]
	mov	ecx, edi
	not	ecx
	and	ecx, -561806728
	and	edi, 561806727
	or	edi, ecx
	mov	ecx, eax
	not	ecx
	and	ecx, -561806728
	and	eax, 561806727
	or	eax, ecx
	xor	eax, edi
	mov	dword ptr [r8 + 4*r9], eax
	mov	dword ptr [r10 + 4*rsi], edx
	mov	r9d, dword ptr [rsp + 36]
	add	r9d, 3
	mov	r8, qword ptr [rsp + 16]
	mov	edx, dword ptr [r8 + 4*r9]
	mov	esi, edx
	mov	edi, edx
	mov	ecx, edx
	xor	ecx, -256
	and	ecx, edx

	shr	edx, 24
	movzx	edx, byte ptr [rdx + _ZN8CryptoPP8Rijndael4Base2SeE]
	mov	edx, dword ptr [8*rdx + _ZN8CryptoPPL2TdE+4]
	shr	esi, 16
	mov	ebp, esi
	xor	ebp, 65280
	and	ebp, esi
	movzx	esi, byte ptr [rbp + _ZN8CryptoPP8Rijndael4Base2SeE]
	mov	ebp, dword ptr [8*rsi + _ZN8CryptoPPL2TdE+1]
	mov	esi, ebp
	not	esi
	and	esi, edx
	not	edx
	and	edx, ebp
	or	edx, esi
	shr	edi, 8
	mov	esi, edi
	xor	esi, 16776960
	and	esi, edi
	movzx	esi, byte ptr [rsi + _ZN8CryptoPP8Rijndael4Base2SeE]
	mov	esi, dword ptr [8*rsi + _ZN8CryptoPPL2TdE+2]
	mov	edi, edx
	not	edi
	and	edi, 2042820761
	and	edx, -2042820762
	or	edx, edi
	mov	edi, esi
	not	edi
	and	edi, 2042820761
	and	esi, -2042820762
	or	esi, edi
	xor	esi, edx
	movzx	ecx, byte ptr [rcx + _ZN8CryptoPP8Rijndael4Base2SeE]
	mov	edx, dword ptr [8*rcx + _ZN8CryptoPPL2TdE+3]
	mov	ecx, esi
	not	ecx
	and	ecx, 1234213306
	and	esi, -1234213307
	or	esi, ecx
	mov	ecx, edx
	not	ecx
	and	ecx, 1234213306
	and	edx, -1234213307
	or	edx, ecx
	xor	edx, esi
	mov	ecx, dword ptr [rsp + 68]
	neg	ecx
	mov	esi, 3
	sub	esi, ecx
	mov	r10, qword ptr [rsp + 16]
	mov	ebx, dword ptr [r10 + 4*rsi]
	mov	ecx, ebx
	mov	ebp, ebx
	mov	eax, ebx
	xor	eax, -256
	and	eax, ebx

	shr	ebx, 24
	movzx	ebx, byte ptr [rbx + _ZN8CryptoPP8Rijndael4Base2SeE]
	mov	ebx, dword ptr [8*rbx + _ZN8CryptoPPL2TdE+4]
	shr	ecx, 16
	movzx	ecx, cl
	movzx	ecx, byte ptr [rcx + _ZN8CryptoPP8Rijndael4Base2SeE]
	mov	ecx, dword ptr [8*rcx + _ZN8CryptoPPL2TdE+1]
	mov	edi, ecx
	not	edi
	and	edi, 1606383219
	and	ecx, -1606383220
	or	ecx, edi
	mov	edi, ebx
	not	edi
	and	edi, 1606383219
	and	ebx, -1606383220
	or	ebx, edi
	xor	ebx, ecx
	shr	ebp, 8
	mov	ecx, ebp
	xor	ecx, 16776960
	and	ecx, ebp
	movzx	ecx, byte ptr [rcx + _ZN8CryptoPP8Rijndael4Base2SeE]
	mov	ecx, dword ptr [8*rcx + _ZN8CryptoPPL2TdE+2]
	mov	edi, ebx
	not	edi
	and	edi, ecx
	not	ecx
	and	ecx, ebx
	or	ecx, edi
	movzx	eax, byte ptr [rax + _ZN8CryptoPP8Rijndael4Base2SeE]
	mov	eax, dword ptr [8*rax + _ZN8CryptoPPL2TdE+3]
	mov	edi, ecx
	not	edi
	and	edi, eax
	not	eax
	and	eax, ecx
	or	eax, edi
	mov	dword ptr [r8 + 4*r9], eax
	mov	dword ptr [r10 + 4*rsi], edx
	mov	eax, dword ptr [rsp + 36]
	add	eax, 4
	mov	dword ptr [rsp + 80], eax 
	mov	eax, dword ptr [rsp + 68]
	add	eax, -4
	mov	dword ptr [rsp + 84], eax 
	mov	eax, 1635461925
	jmp	.LBB6_1
.LBB6_282:                              
	call	_ZN8CryptoPP8Rijndael4Base12FillEncTableEv
	mov	eax, -1011421894
	jmp	.LBB6_1
.LBB6_143:                              
	mov	eax, dword ptr [rip + x.20]
	lea	ecx, [rax - 1]
	imul	ecx, eax
	mov	eax, ecx
	xor	eax, -2
	and	eax, ecx
	sete	cl
	test	eax, eax
	mov	eax, -1032787318
	mov	edi, -1011421894
	cmove	eax, edi
	cmp	dword ptr [rip + y.21], 10
	setl	dl
	mov	esi, -1032787318
.LBB6_144:                              
	cmovge	eax, esi
	xor	dl, cl
	cmovne	eax, edi
	jmp	.LBB6_1
.LBB6_146:                              
	cmp	byte ptr [rip + _ZN8CryptoPPL10s_TdFilledE], 0
	mov	eax, 1231027193
	mov	ecx, 1013556038
	cmove	eax, ecx
	jmp	.LBB6_1
.LBB6_145:                              
	mov	eax, 2116071951
	jmp	.LBB6_1
.LBB6_262:                              
	mov	al, byte ptr [rip + _ZN8CryptoPP18g_x86DetectionDoneE]
	mov	byte ptr [rsp + 24], al
	mov	eax, 528342624
	jmp	.LBB6_263
.LBB6_265:                              
	cmp	eax, 528342624
	jne	.LBB6_263

	mov	al, byte ptr [rsp + 24]
	mov	ecx, eax
	xor	cl, -2
	test	cl, al
	mov	eax, 526338746
	cmove	eax, r13d
	jmp	.LBB6_263
.LBB6_267:                              
	call	_ZN8CryptoPP17DetectX86FeaturesEv
	mov	eax, 526338746
.LBB6_263:                              

	cmp	eax, -599217126
	je	.LBB6_267

	cmp	eax, 526338746
	jne	.LBB6_265

	cmp	byte ptr [rip + _ZN8CryptoPP10g_hasAESNIE], 0
	setne	byte ptr [rsp + 54]
	mov	eax, dword ptr [rip + x.20]
	mov	ecx, dword ptr [rip + y.21]
	lea	edx, [rax - 1]
	imul	edx, eax
	mov	eax, edx
	xor	eax, -2
	and	eax, edx
	sete	dl
	cmp	ecx, 10
	setl	bl
	xor	bl, dl
	mov	edx, -443240964
	mov	esi, -471933118
.LBB6_141:                              
	cmovne	edx, esi
	test	eax, eax
	mov	eax, edx
	cmove	eax, esi
	cmp	ecx, 10
	cmovge	eax, edx
	jmp	.LBB6_1
.LBB6_269:                              
	mov	al, byte ptr [rsp + 54]
	test	al, al
	mov	eax, -601088015
	mov	ecx, -728273865
	cmovne	eax, ecx
.LBB6_1:                                






















	cmp	eax, -443240965
	jg	.LBB6_48

	cmp	eax, -1244692754
	jg	.LBB6_26

	cmp	eax, -1668984452
	jle	.LBB6_4

	cmp	eax, -1585320611
	jle	.LBB6_14

	cmp	eax, -1418847036
	jg	.LBB6_22

	cmp	eax, -1585320610
	je	.LBB6_136

	cmp	eax, -1454979134
	jne	.LBB6_1

	mov	al, byte ptr [rsp + 53]
	test	al, al
	mov	eax, 466955171
	mov	ecx, 241257903
	cmovne	eax, ecx
	jmp	.LBB6_1
.LBB6_48:                               
	cmp	eax, 1043907894
	jg	.LBB6_79

	cmp	eax, 241257902
	jle	.LBB6_50

	cmp	eax, 466955170
	jle	.LBB6_60

	cmp	eax, 783468500
	jg	.LBB6_76

	cmp	eax, 466955171
	je	.LBB6_121

	cmp	eax, 514787181
	jne	.LBB6_1

	mov	eax, dword ptr [rip + x.20]
	mov	ecx, eax
	neg	ecx
	not	ecx
	imul	ecx, eax
	mov	eax, ecx
	xor	eax, -2
	and	eax, ecx
	sete	cl
	test	eax, eax
	mov	eax, -1827717575
	mov	edi, -1925711443
	cmove	eax, edi
	cmp	dword ptr [rip + y.21], 10
	setl	dl
	mov	esi, -1827717575
	jmp	.LBB6_144
.LBB6_26:                               
	cmp	eax, -835448925
	jle	.LBB6_27

	cmp	eax, -532867560
	jle	.LBB6_37

	cmp	eax, -471933119
	jg	.LBB6_45

	cmp	eax, -532867559
	je	.LBB6_139

	cmp	eax, -504321674
	jne	.LBB6_1

	mov	rax, qword ptr [rsp + 144] 
	mov	qword ptr [rsp + 8], rax
	mov	eax, dword ptr [rsp + 64]
	dec	eax
	mov	rcx, qword ptr [rsp + 8]
	mov	eax, dword ptr [rcx + 4*rax]
	mov	ecx, eax
	shr	ecx, 16
	mov	edx, ecx
	xor	edx, 65280
	and	edx, ecx
	movzx	ecx, byte ptr [rdx + _ZN8CryptoPP8Rijndael4Base2SeE]
	shl	ecx, 24
	movzx	edx, ah  
	movzx	edx, byte ptr [rdx + _ZN8CryptoPP8Rijndael4Base2SeE]
	shl	edx, 16
	or	edx, ecx
	mov	ecx, eax
	xor	ecx, -256
	and	ecx, eax
	movzx	ecx, byte ptr [rcx + _ZN8CryptoPP8Rijndael4Base2SeE]
	shl	ecx, 8
	or	ecx, edx
	shr	eax, 24
	movzx	eax, byte ptr [rax + _ZN8CryptoPP8Rijndael4Base2SeE]
	or	eax, ecx
	mov	rcx, qword ptr [rsp + 8]
	mov	ecx, dword ptr [rcx]
	mov	edx, eax
	not	edx
	and	edx, ecx
	not	ecx
	and	ecx, eax
	or	ecx, edx
	mov	rax, qword ptr [rsp + 136] 
	mov	rdx, rax
	lea	rax, [rdx + 4]
	mov	qword ptr [rsp + 248], rax
	mov	eax, dword ptr [rdx]
	mov	edx, ecx
	not	edx
	and	edx, eax
	not	eax
	and	eax, ecx
	or	eax, edx
	mov	rcx, qword ptr [rsp + 208]
	shl	rcx, 2
	add	rcx, qword ptr [rsp + 8]
	mov	qword ptr [rsp + 112], rcx
	mov	rcx, qword ptr [rsp + 112]
	mov	dword ptr [rcx], eax
	mov	rcx, qword ptr [rsp + 8]
	mov	ecx, dword ptr [rcx + 4]
	mov	edx, ecx
	not	edx
	and	edx, 1911806138
	and	ecx, -1911806139
	or	ecx, edx
	mov	edx, eax
	not	edx
	and	edx, 1911806138
	and	eax, -1911806139
	or	eax, edx
	xor	eax, ecx
	mov	ecx, dword ptr [rsp + 64]
	inc	ecx
	mov	rdx, qword ptr [rsp + 8]
	mov	dword ptr [rdx + 4*rcx], eax
	mov	rcx, qword ptr [rsp + 8]
	mov	ecx, dword ptr [rcx + 8]
	mov	edx, ecx
	not	edx
	and	edx, -1825017290
	and	ecx, 1825017289
	or	ecx, edx
	mov	edx, eax
	not	edx
	and	edx, -1825017290
	and	eax, 1825017289
	or	eax, edx
	xor	eax, ecx
	mov	ecx, dword ptr [rsp + 64]
	neg	ecx
	mov	edx, 2
	sub	edx, ecx
	mov	rcx, qword ptr [rsp + 8]
	mov	dword ptr [rcx + 4*rdx], eax
	mov	rcx, qword ptr [rsp + 8]
	mov	ecx, dword ptr [rcx + 12]
	mov	edx, ecx
	not	edx
	and	edx, eax
	not	eax
	and	eax, ecx
	or	eax, edx
	mov	ecx, dword ptr [rsp + 64]
	add	ecx, 3
	mov	rdx, qword ptr [rsp + 8]
	mov	dword ptr [rdx + 4*rcx], eax
	mov	rax, qword ptr [rsp + 112]
	add	rax, 16
	mov	rcx, qword ptr [rsp + 72]
	mov	rdx, qword ptr [rcx + 16]
	shl	rdx, 2
	add	rdx, qword ptr [rcx + 24]
	cmp	rax, rdx
	mov	eax, -1084285377
	mov	ecx, -157974503
	cmove	eax, ecx
	jmp	.LBB6_1
.LBB6_79:                               
	cmp	eax, 1725613526
	jle	.LBB6_80

	cmp	eax, 2035911071
	jg	.LBB6_94

	cmp	eax, 1996536814
	jne	.LBB6_91

	add	rsp, 296
	pop	rbx
	pop	r12
	pop	r13
	pop	r14
	pop	r15
	pop	rbp
	ret
.Lfunc_end6:
	.size	_ZN8CryptoPP8Rijndael4Base15UncheckedSetKeyEPKhjRKNS_14NameValuePairsE, .Lfunc_end6-_ZN8CryptoPP8Rijndael4Base15UncheckedSetKeyEPKhjRKNS_14NameValuePairsE
	.cfi_endproc

	.section	.text._ZN8CryptoPP8SecBlockIjNS_20AllocatorWithCleanupIjLb1EEEE3NewEm,"axG",@progbits,_ZN8CryptoPP8SecBlockIjNS_20AllocatorWithCleanupIjLb1EEEE3NewEm,comdat
	.weak	_ZN8CryptoPP8SecBlockIjNS_20AllocatorWithCleanupIjLb1EEEE3NewEm 
	.p2align	1, 0x90
	.type	_ZN8CryptoPP8SecBlockIjNS_20AllocatorWithCleanupIjLb1EEEE3NewEm,@function
_ZN8CryptoPP8SecBlockIjNS_20AllocatorWithCleanupIjLb1EEEE3NewEm: 
	.cfi_startproc

	push	rbp
.Lcfi31:
	.cfi_def_cfa_offset 16
	push	r15
.Lcfi32:
	.cfi_def_cfa_offset 24
	push	r14
.Lcfi33:
	.cfi_def_cfa_offset 32
	push	r13
.Lcfi34:
	.cfi_def_cfa_offset 40
	push	r12
.Lcfi35:
	.cfi_def_cfa_offset 48
	push	rbx
.Lcfi36:
	.cfi_def_cfa_offset 56
	push	rax
.Lcfi37:
	.cfi_def_cfa_offset 64
.Lcfi38:
	.cfi_offset rbx, -56
.Lcfi39:
	.cfi_offset r12, -48
.Lcfi40:
	.cfi_offset r13, -40
.Lcfi41:
	.cfi_offset r14, -32
.Lcfi42:
	.cfi_offset r15, -24
.Lcfi43:
	.cfi_offset rbp, -16
	mov	r14, rsi
	mov	rbx, rdi
	movabs	r15, 4611686018427387903
	mov	eax, dword ptr [rip + x.28]
	mov	ecx, dword ptr [rip + y.29]
	lea	edx, [rax - 1]
	imul	edx, eax
	mov	eax, edx
	xor	eax, -2
	test	eax, edx
	sete	byte ptr [rsp + 6]
	cmp	ecx, 10
	setl	byte ptr [rsp + 7]
	mov	eax, 1311657358
	mov	ebp, -76912508
	mov	r13d, 417481784
	mov	r12d, -62752388
	jmp	.LBB7_1
.LBB7_3:                                
	cmp	eax, -62752388
	jne	.LBB7_1

	mov	rdx, qword ptr [rbx + 16]
	mov	rsi, qword ptr [rbx + 24]
	xor	r8d, r8d
	mov	rdi, rbx
	mov	rcx, r14
	call	_ZN8CryptoPP20AllocatorWithCleanupIjLb1EE10reallocateEPjmmb
	mov	qword ptr [rbx + 24], rax
	mov	qword ptr [rbx + 16], r14
	mov	qword ptr [rbx + 8], r15
	mov	eax, dword ptr [rip + x.28]
	lea	ecx, [rax - 1]
	imul	ecx, eax
	not	ecx
	or	ecx, -2
	mov	eax, -1
	cmp	ecx, eax
	sete	cl
	mov	eax, 417481784
	cmove	eax, ebp
	cmp	dword ptr [rip + y.29], 10
	setl	dl
	cmovge	eax, r13d
	xor	dl, cl
	cmovne	eax, ebp
	jmp	.LBB7_1
.LBB7_5:                                
	cmp	eax, 417481784
	je	.LBB7_9

	cmp	eax, 1311657358
	jne	.LBB7_1

	mov	cl, byte ptr [rsp + 6]
	mov	al, byte ptr [rsp + 7]
	mov	edx, ecx
	xor	dl, al
	mov	edx, 417481784
	cmovne	edx, r12d
	test	al, al
	mov	eax, edx
	cmovne	eax, r12d
	test	cl, cl
	cmove	eax, edx
	jmp	.LBB7_1
.LBB7_9:                                
	mov	rdx, qword ptr [rbx + 16]
	mov	rsi, qword ptr [rbx + 24]
	xor	r8d, r8d
	mov	rdi, rbx
	mov	rcx, r14
	call	_ZN8CryptoPP20AllocatorWithCleanupIjLb1EE10reallocateEPjmmb
	mov	qword ptr [rbx + 24], rax
	mov	qword ptr [rbx + 16], r14
	mov	qword ptr [rbx + 8], r15
	mov	eax, -62752388
.LBB7_1:                                
	cmp	eax, 417481783
	jg	.LBB7_5

	cmp	eax, -76912508
	jne	.LBB7_3

	add	rsp, 8
	pop	rbx
	pop	r12
	pop	r13
	pop	r14
	pop	r15
	pop	rbp
	ret
.Lfunc_end7:
	.size	_ZN8CryptoPP8SecBlockIjNS_20AllocatorWithCleanupIjLb1EEEE3NewEm, .Lfunc_end7-_ZN8CryptoPP8SecBlockIjNS_20AllocatorWithCleanupIjLb1EEEE3NewEm
	.cfi_endproc

	.section	.text._ZN8CryptoPP22ConditionalByteReverseIjEEvNS_9ByteOrderEPT_PKS2_m,"axG",@progbits,_ZN8CryptoPP22ConditionalByteReverseIjEEvNS_9ByteOrderEPT_PKS2_m,comdat
	.weak	_ZN8CryptoPP22ConditionalByteReverseIjEEvNS_9ByteOrderEPT_PKS2_m 
	.type	_ZN8CryptoPP22ConditionalByteReverseIjEEvNS_9ByteOrderEPT_PKS2_m,@function
_ZN8CryptoPP22ConditionalByteReverseIjEEvNS_9ByteOrderEPT_PKS2_m: 
	.cfi_startproc

	push	rbp
.Lcfi44:
	.cfi_def_cfa_offset 16
	push	r15
.Lcfi45:
	.cfi_def_cfa_offset 24
	push	r14
.Lcfi46:
	.cfi_def_cfa_offset 32
	push	r13
.Lcfi47:
	.cfi_def_cfa_offset 40
	push	r12
.Lcfi48:
	.cfi_def_cfa_offset 48
	push	rbx
.Lcfi49:
	.cfi_def_cfa_offset 56
	push	rax
.Lcfi50:
	.cfi_def_cfa_offset 64
.Lcfi51:
	.cfi_offset rbx, -56
.Lcfi52:
	.cfi_offset r12, -48
.Lcfi53:
	.cfi_offset r13, -40
.Lcfi54:
	.cfi_offset r14, -32
.Lcfi55:
	.cfi_offset r15, -24
.Lcfi56:
	.cfi_offset rbp, -16
	mov	r14, rcx
	mov	r15, rdx
	mov	r12, rsi
	mov	ebp, edi
	mov	eax, 779523480
	mov	r13d, -689692231
	jmp	.LBB8_1
.LBB8_26:                               
	mov	eax, dword ptr [rip + x.38]
	mov	ecx, eax
	neg	ecx
	not	ecx
	imul	ecx, eax
	mov	eax, ecx
	xor	eax, -2
	and	eax, ecx
	sete	cl
	test	eax, eax
	mov	eax, -859264532
	mov	esi, 1798517241
	cmove	eax, esi
	cmp	dword ptr [rip + y.39], 10
	setl	dl
	mov	edi, -859264532
	cmovge	eax, edi
	xor	dl, cl
	cmovne	eax, esi
	jmp	.LBB8_1
.LBB8_28:                               
	mov	eax, 1798517241
	jmp	.LBB8_1
.LBB8_25:                               
	mov	rdi, r12
	mov	rsi, r15
	mov	rdx, r14
	call	_ZN8CryptoPP11ByteReverseIjEEvPT_PKS1_m
	mov	eax, -1879207205
	jmp	.LBB8_1
.LBB8_27:                               
	mov	rdi, r12
	mov	rsi, r14
	mov	rdx, r15
	mov	rcx, r14
	call	_ZN8CryptoPP8memcpy_sEPvmPKvm
	mov	eax, -1879207205
.LBB8_1:                                

	cmp	eax, 618812914
	jle	.LBB8_2

	cmp	eax, 900528088
	jg	.LBB8_17

	cmp	eax, 618812915
	je	.LBB8_26

	cmp	eax, 779523480
	jne	.LBB8_1

	mov	eax, dword ptr [rip + x.64]
	mov	ecx, dword ptr [rip + y.65]
	lea	edx, [rax - 1]
	imul	edx, eax
	mov	eax, edx
	xor	eax, -2
	test	eax, edx
	sete	byte ptr [rsp + 2]
	cmp	ecx, 10
	setl	byte ptr [rsp + 3]
	mov	ecx, -316881371
	jmp	.LBB8_13
.LBB8_15:                               
	cmp	ecx, -622221325
	jne	.LBB8_13

	call	_ZN8CryptoPP10EnumToTypeINS_9ByteOrderELi0EE6ToEnumEv
	mov	ecx, dword ptr [rip + x.64]
	mov	edi, dword ptr [rip + y.65]
	lea	esi, [rcx - 1]
	imul	esi, ecx
	mov	ecx, esi
	xor	ecx, -2
	and	ecx, esi
	sete	bl
	cmp	edi, 10
	setl	dl
	xor	dl, bl
	mov	edx, 824315634
	mov	esi, -1717617973
	cmovne	edx, esi
	test	ecx, ecx
	mov	ecx, edx
	cmove	ecx, esi
	cmp	edi, 10
	mov	dword ptr [rsp + 4], eax
	cmovge	ecx, edx
	jmp	.LBB8_13
.LBB8_20:                               
	cmp	ecx, 824315634
	je	.LBB8_23

	cmp	ecx, -316881371
	jne	.LBB8_13

	mov	al, byte ptr [rsp + 2]
	mov	cl, byte ptr [rsp + 3]
	mov	edx, eax
	xor	dl, cl
	test	cl, cl
	mov	ecx, 824315634
	mov	esi, -622221325
	cmovne	ecx, esi
	test	al, al
	mov	eax, 824315634
	cmove	ecx, eax
	test	dl, dl
	cmovne	ecx, esi
	jmp	.LBB8_13
.LBB8_23:                               
	call	_ZN8CryptoPP10EnumToTypeINS_9ByteOrderELi0EE6ToEnumEv
	mov	ecx, -622221325
.LBB8_13:                               

	cmp	ecx, -316881372
	jg	.LBB8_20

	cmp	ecx, -1717617973
	jne	.LBB8_15

	mov	eax, dword ptr [rsp + 4]
	cmp	eax, ebp
	mov	eax, 900528089
	mov	ecx, 618812915
	cmove	eax, ecx
	jmp	.LBB8_1
.LBB8_2:                                
	cmp	eax, -859264533
	jle	.LBB8_3

	cmp	eax, -859264532
	je	.LBB8_28

	cmp	eax, -689692231
	jne	.LBB8_1

	mov	al, byte ptr [rsp + 1]
	test	al, al
	mov	eax, -1879207205
	mov	ecx, -1679393695
	cmovne	eax, ecx
	jmp	.LBB8_1
.LBB8_17:                               
	cmp	eax, 900528089
	je	.LBB8_25

	cmp	eax, 1798517241
	jne	.LBB8_1

	mov	eax, dword ptr [rip + x.38]
	mov	ecx, dword ptr [rip + y.39]
	lea	edx, [rax - 1]
	imul	edx, eax
	not	edx
	or	edx, -2
	mov	edi, -1
	cmp	edx, edi
	sete	al
	cmp	ecx, 10
	setl	bl
	xor	bl, al
	mov	esi, -859264532
	cmovne	esi, r13d
	cmp	edx, edi
	mov	eax, esi
	cmove	eax, r13d
	cmp	ecx, 10
	cmovge	eax, esi
	cmp	r15, r12
	setne	byte ptr [rsp + 1]
	jmp	.LBB8_1
.LBB8_3:                                
	cmp	eax, -1679393695
	je	.LBB8_27

	cmp	eax, -1879207205
	jne	.LBB8_1

	add	rsp, 8
	pop	rbx
	pop	r12
	pop	r13
	pop	r14
	pop	r15
	pop	rbp
	ret
.Lfunc_end8:
	.size	_ZN8CryptoPP22ConditionalByteReverseIjEEvNS_9ByteOrderEPT_PKS2_m, .Lfunc_end8-_ZN8CryptoPP22ConditionalByteReverseIjEEvNS_9ByteOrderEPT_PKS2_m
	.cfi_endproc

	.text
	.globl	_ZNK8CryptoPP8Rijndael3Enc18ProcessAndXorBlockEPKhS3_Ph 
	.p2align	1, 0x90
	.type	_ZNK8CryptoPP8Rijndael3Enc18ProcessAndXorBlockEPKhS3_Ph,@function
_ZNK8CryptoPP8Rijndael3Enc18ProcessAndXorBlockEPKhS3_Ph: 
	.cfi_startproc

	push	rbp
.Lcfi57:
	.cfi_def_cfa_offset 16
	push	r15
.Lcfi58:
	.cfi_def_cfa_offset 24
	push	r14
.Lcfi59:
	.cfi_def_cfa_offset 32
	push	r13
.Lcfi60:
	.cfi_def_cfa_offset 40
	push	r12
.Lcfi61:
	.cfi_def_cfa_offset 48
	push	rbx
.Lcfi62:
	.cfi_def_cfa_offset 56
	sub	rsp, 264
.Lcfi63:
	.cfi_def_cfa_offset 320
.Lcfi64:
	.cfi_offset rbx, -56
.Lcfi65:
	.cfi_offset r12, -48
.Lcfi66:
	.cfi_offset r13, -40
.Lcfi67:
	.cfi_offset r14, -32
.Lcfi68:
	.cfi_offset r15, -24
.Lcfi69:
	.cfi_offset rbp, -16
	mov	qword ptr [rsp + 160], rcx 
	mov	qword ptr [rsp + 152], rdx 
	mov	r14, rsi
	mov	r15, rdi
	mov	eax, -823581312
	mov	r12b, -1
	mov	r13d, -1

	mov	qword ptr [rsp + 104], rcx 



	mov	qword ptr [rsp + 96], rcx 



	mov	qword ptr [rsp + 80], rcx 

	mov	qword ptr [rsp + 88], rcx 




	mov	qword ptr [rsp + 232], r14 
	mov	qword ptr [rsp + 224], r15 
	jmp	.LBB9_1
.LBB9_87:                               
	mov	eax, dword ptr [rip + _ZN8CryptoPPL2TeE+2040]
	mov	esi, dword ptr [rsp + 76]
	not	eax
	not	esi
	or	esi, eax
	movabs	rax, 1618350815115352349
	mov	rcx, rax
	not	eax
	or	eax, ecx
	not	esi
	and	esi, eax
	mov	ecx, dword ptr [rsp + 16]
	mov	r8d, ecx
	not	r8d
	mov	eax, esi
	not	eax
	mov	edx, r8d
	and	edx, 517205042
	and	ecx, -517205043
	or	ecx, edx
	mov	edx, eax
	and	edx, 517205042
	mov	edi, esi
	and	edi, -517205043
	or	edi, edx
	xor	edi, ecx
	or	r8d, eax
	not	r8d
	or	r8d, edi
	mov	dword ptr [rsp + 16], r8d
	mov	ecx, dword ptr [rsp + 20]
	mov	r9d, ecx
	not	r9d
	mov	edx, r9d
	and	edx, 62244728
	and	ecx, -62244729
	or	ecx, edx
	mov	edx, eax
	and	edx, 62244728
	mov	edi, esi
	and	edi, -62244729
	or	edi, edx
	xor	edi, ecx
	or	r9d, eax
	not	r9d
	or	r9d, edi
	mov	r10d, dword ptr [rsp + 28]
	mov	ecx, r10d
	and	ecx, esi
	xor	r10d, esi
	or	r10d, ecx
	mov	ecx, dword ptr [rsp + 24]
	mov	ebp, ecx
	not	ebp
	mov	edi, ebp
	and	edi, -1006589792
	and	ecx, 1006589791
	or	ecx, edi
	or	ebp, eax
	and	eax, -1006589792
	and	esi, 1006589791
	or	esi, eax
	xor	esi, ecx
	not	ebp
	or	ebp, esi
	lea	eax, [8*rbp]
	mov	ecx, eax
	xor	ecx, -2048
	and	ecx, eax
	mov	edi, dword ptr [rcx + _ZN8CryptoPPL2TeE+4]
	mov	eax, dword ptr [rsp + 140]
	mov	ecx, eax
	not	ecx
	and	ecx, 1235327240
	and	eax, -1235327241
	or	eax, ecx
	mov	ecx, edi
	not	ecx
	and	ecx, 1235327240
	and	edi, -1235327241
	or	edi, ecx
	xor	edi, eax
	mov	eax, ebp
	shr	eax, 5
	and	eax, 2040
	mov	edx, dword ptr [rax + _ZN8CryptoPPL2TeE+1]
	mov	eax, dword ptr [rsp + 136]
	mov	esi, eax
	not	esi
	and	esi, edx
	not	edx
	and	edx, eax
	or	edx, esi
	mov	eax, ebp
	shr	eax, 13
	and	eax, 2040
	mov	eax, dword ptr [rax + _ZN8CryptoPPL2TeE+2]
	mov	ebx, dword ptr [rsp + 132]
	mov	esi, ebx
	not	esi
	and	esi, eax
	not	eax
	and	eax, ebx
	or	eax, esi
	shr	ebp, 24
	mov	dword ptr [rsp + 24], ebp
	mov	ebx, dword ptr [8*rbp + _ZN8CryptoPPL2TeE+3]
	mov	ebp, dword ptr [rsp + 128]
	mov	esi, ebp
	not	esi
	and	esi, ebx
	not	ebx
	and	ebx, ebp
	or	ebx, esi
	lea	esi, [8*r10]
	mov	ebp, esi
	xor	ebp, -2048
	and	ebp, esi
	mov	esi, dword ptr [rbp + _ZN8CryptoPPL2TeE+4]
	mov	ecx, edx
	not	ecx
	and	ecx, esi
	not	esi
	and	esi, edx
	or	esi, ecx
	mov	ecx, r10d
	shr	ecx, 5
	mov	edx, ecx
	xor	edx, 134215687
	and	edx, ecx
	mov	ebp, dword ptr [rdx + _ZN8CryptoPPL2TeE+1]
	mov	ecx, eax
	not	ecx
	and	ecx, ebp
	not	ebp
	and	ebp, eax
	or	ebp, ecx
	mov	eax, r10d
	shr	eax, 13
	and	eax, 2040
	mov	eax, dword ptr [rax + _ZN8CryptoPPL2TeE+2]
	mov	ecx, ebx
	not	ecx
	and	ecx, 1715358589
	and	ebx, -1715358590
	or	ebx, ecx
	mov	ecx, eax
	not	ecx
	and	ecx, 1715358589
	and	eax, -1715358590
	or	eax, ecx
	xor	eax, ebx
	shr	r10d, 24
	mov	dword ptr [rsp + 28], r10d
	mov	ebx, dword ptr [8*r10 + _ZN8CryptoPPL2TeE+3]
	mov	ecx, edi
	not	ecx
	and	ecx, 1228214208
	and	edi, -1228214209
	or	edi, ecx
	mov	ecx, ebx
	not	ecx
	and	ecx, 1228214208
	and	ebx, -1228214209
	or	ebx, ecx
	xor	ebx, edi
	lea	ecx, [8*r9]
	mov	edx, ecx
	xor	edx, -2048
	and	edx, ecx
	mov	edx, dword ptr [rdx + _ZN8CryptoPPL2TeE+4]
	mov	ecx, ebp
	not	ecx
	and	ecx, edx
	not	edx
	and	edx, ebp
	or	edx, ecx
	mov	ecx, r9d
	shr	ecx, 5
	and	ecx, 2040
	mov	edi, dword ptr [rcx + _ZN8CryptoPPL2TeE+1]
	mov	ecx, eax
	not	ecx
	and	ecx, edi
	not	edi
	and	edi, eax
	or	edi, ecx
	mov	eax, r9d
	shr	eax, 13
	and	eax, 2040
	mov	ebp, dword ptr [rax + _ZN8CryptoPPL2TeE+2]
	mov	eax, ebx
	not	eax
	and	eax, -2026004941
	and	ebx, 2026004940
	or	ebx, eax
	mov	eax, ebp
	not	eax
	and	eax, -2026004941
	and	ebp, 2026004940
	or	ebp, eax
	xor	ebp, ebx
	shr	r9d, 24
	mov	dword ptr [rsp + 20], r9d
	mov	ecx, dword ptr [8*r9 + _ZN8CryptoPPL2TeE+3]
	mov	eax, esi
	not	eax
	and	eax, -938552743
	and	esi, 938552742
	or	esi, eax
	mov	eax, ecx
	not	eax
	and	eax, -938552743
	and	ecx, 938552742
	or	ecx, eax
	xor	ecx, esi
	lea	eax, [8*r8]
	mov	esi, eax
	xor	esi, -2048
	and	esi, eax
	mov	esi, dword ptr [rsi + _ZN8CryptoPPL2TeE+4]
	mov	eax, edi
	not	eax
	and	eax, -637502823
	and	edi, 637502822
	or	edi, eax
	mov	eax, esi
	not	eax
	and	eax, -637502823
	and	esi, 637502822
	or	esi, eax
	xor	esi, edi
	mov	qword ptr [rsp + 104], rsi 
	mov	eax, r8d
	shr	eax, 5
	and	eax, 2040
	mov	esi, dword ptr [rax + _ZN8CryptoPPL2TeE+1]
	mov	eax, ebp
	not	eax
	and	eax, esi
	not	esi
	and	esi, ebp
	or	esi, eax
	mov	qword ptr [rsp + 80], rsi 
	mov	eax, r8d
	shr	eax, 13
	mov	esi, eax
	xor	esi, 522247
	and	esi, eax
	mov	esi, dword ptr [rsi + _ZN8CryptoPPL2TeE+2]
	mov	eax, ecx
	not	eax
	and	eax, 1627041541
	and	ecx, -1627041542
	or	ecx, eax
	mov	eax, esi
	not	eax
	and	eax, 1627041541
	and	esi, -1627041542
	or	esi, eax
	xor	esi, ecx
	mov	qword ptr [rsp + 88], rsi 
	shr	r8d, 24
	mov	dword ptr [rsp + 16], r8d
	mov	ecx, dword ptr [8*r8 + _ZN8CryptoPPL2TeE+3]
	mov	eax, edx
	not	eax
	and	eax, -1517988976
	and	edx, 1517988975
	or	edx, eax
	mov	eax, ecx
	not	eax
	and	eax, -1517988976
	and	ecx, 1517988975
	or	ecx, eax
	xor	ecx, edx
	mov	qword ptr [rsp + 96], rcx 
	mov	rax, qword ptr [rsp + 208]
	mov	eax, dword ptr [rax + 16]
	shr	eax
	dec	eax
	mov	dword ptr [rsp + 124], eax 
	mov	eax, -1481333818
	mov	rcx, qword ptr [rsp + 240]
	mov	qword ptr [rsp + 168], rcx 
	jmp	.LBB9_1
.LBB9_86:                               
	mov	eax, dword ptr [rsp + 52]
	mov	ecx, dword ptr [rax + _ZN8CryptoPPL2TeE]
	mov	eax, dword ptr [rsp + 76]
	not	eax
	not	ecx
	or	ecx, eax
	not	ecx
	mov	dword ptr [rsp + 72], ecx 
	xor	eax, eax
	sub	eax, dword ptr [rsp + 144]
	mov	ecx, dword ptr [rsp + 52]
	sub	ecx, eax
	mov	dword ptr [rsp + 68], ecx 
	mov	eax, -108679670
	jmp	.LBB9_1
.LBB9_90:                               
	mov	eax, dword ptr [rip + x.48]
	mov	ecx, dword ptr [rip + y.49]
	lea	edx, [rax - 1]
	imul	edx, eax
	not	edx
	or	edx, -2
	cmp	edx, r13d
	sete	byte ptr [rsp + 15]
	cmp	ecx, 10
	setl	byte ptr [rsp + 14]
	mov	eax, 59888073
	mov	rbp, r14
	jmp	.LBB9_91
.LBB9_96:                               
	cmp	ecx, 1802457641
	jne	.LBB9_91

	call	_ZN8CryptoPP10EnumToTypeINS_9ByteOrderELi0EE6ToEnumEv
	xor	edi, edi
	mov	esi, eax
	mov	rdx, rbp
	call	_ZN8CryptoPP7GetWordIjEET_bNS_9ByteOrderEPKh
	mov	dword ptr [rsp + 16], eax
	mov	eax, dword ptr [rip + x.48]
	lea	ecx, [rax - 1]
	imul	ecx, eax
	not	ecx
	or	ecx, -2
	cmp	ecx, r13d
	sete	cl
	mov	eax, 551887934
	mov	edi, 841145377
	cmove	eax, edi
	cmp	dword ptr [rip + y.49], 10
	setl	dl
	mov	esi, 551887934
	cmovge	eax, esi
	xor	dl, cl
	cmovne	eax, edi
.LBB9_98:                               
	add	rbp, 4
	jmp	.LBB9_91
.LBB9_146:                              
	mov	cl, byte ptr [rsp + 15]
	mov	al, byte ptr [rsp + 14]
	mov	edx, ecx
	xor	dl, al
	mov	edx, 551887934
	mov	esi, 1802457641
	cmovne	edx, esi
	test	al, al
	mov	eax, edx
	cmovne	eax, esi
	test	cl, cl
	cmove	eax, edx
.LBB9_91:                               

	mov	ecx, eax
	and	ecx, 2147483647
	cmp	ecx, 841145376
	jg	.LBB9_95

	cmp	ecx, 59888073
	je	.LBB9_146

	cmp	ecx, 551887934
	jne	.LBB9_91

	call	_ZN8CryptoPP10EnumToTypeINS_9ByteOrderELi0EE6ToEnumEv
	xor	edi, edi
	mov	esi, eax
	mov	rdx, rbp
	call	_ZN8CryptoPP7GetWordIjEET_bNS_9ByteOrderEPKh
	mov	dword ptr [rsp + 16], eax
	mov	eax, 1802457641
	jmp	.LBB9_98
.LBB9_95:                               
	cmp	ecx, 841145377
	jne	.LBB9_96

	mov	eax, dword ptr [rip + x.48]
	mov	ecx, dword ptr [rip + y.49]
	lea	edx, [rax - 1]
	imul	edx, eax
	not	edx
	or	edx, -2
	cmp	edx, r13d
	sete	byte ptr [rsp + 15]
	cmp	ecx, 10
	setl	byte ptr [rsp + 14]
	mov	eax, 59888073
	jmp	.LBB9_100
.LBB9_105:                              
	cmp	ecx, 1802457641
	jne	.LBB9_100

	call	_ZN8CryptoPP10EnumToTypeINS_9ByteOrderELi0EE6ToEnumEv
	xor	edi, edi
	mov	esi, eax
	mov	rdx, rbp
	call	_ZN8CryptoPP7GetWordIjEET_bNS_9ByteOrderEPKh
	mov	dword ptr [rsp + 20], eax
	mov	eax, dword ptr [rip + x.48]
	lea	ecx, [rax - 1]
	imul	ecx, eax
	mov	eax, ecx
	xor	eax, -2
	and	eax, ecx
	sete	cl
	test	eax, eax
	mov	eax, 551887934
	mov	edi, 841145377
	cmove	eax, edi
	cmp	dword ptr [rip + y.49], 10
	setl	dl
	mov	esi, 551887934
	cmovge	eax, esi
	xor	dl, cl
	cmovne	eax, edi
.LBB9_107:                              
	add	rbp, 4
	jmp	.LBB9_100
.LBB9_147:                              
	mov	cl, byte ptr [rsp + 15]
	mov	al, byte ptr [rsp + 14]
	mov	edx, ecx
	xor	dl, al
	test	al, al
	mov	eax, 551887934
	mov	esi, 1802457641
	cmovne	eax, esi
	test	cl, cl
	mov	ecx, 551887934
	cmove	eax, ecx
	test	dl, dl
	cmovne	eax, esi
.LBB9_100:                              

	mov	ecx, eax
	and	ecx, 2147483647
	cmp	ecx, 841145376
	jg	.LBB9_104

	cmp	ecx, 59888073
	je	.LBB9_147

	cmp	ecx, 551887934
	jne	.LBB9_100

	call	_ZN8CryptoPP10EnumToTypeINS_9ByteOrderELi0EE6ToEnumEv
	xor	edi, edi
	mov	esi, eax
	mov	rdx, rbp
	call	_ZN8CryptoPP7GetWordIjEET_bNS_9ByteOrderEPKh
	mov	dword ptr [rsp + 20], eax
	mov	eax, 1802457641
	jmp	.LBB9_107
.LBB9_104:                              
	cmp	ecx, 841145377
	jne	.LBB9_105

	mov	eax, dword ptr [rip + x.48]
	mov	ecx, dword ptr [rip + y.49]
	lea	edx, [rax - 1]
	imul	edx, eax
	mov	eax, edx
	xor	eax, -2
	test	eax, edx
	sete	byte ptr [rsp + 15]
	cmp	ecx, 10
	setl	byte ptr [rsp + 14]
	mov	ecx, 59888073
	jmp	.LBB9_109
.LBB9_114:                              
	cmp	eax, 1802457641
	jne	.LBB9_109

	call	_ZN8CryptoPP10EnumToTypeINS_9ByteOrderELi0EE6ToEnumEv
	xor	edi, edi
	mov	esi, eax
	mov	rdx, rbp
	call	_ZN8CryptoPP7GetWordIjEET_bNS_9ByteOrderEPKh
	mov	ecx, dword ptr [rip + x.48]
	mov	edx, dword ptr [rip + y.49]
	lea	esi, [rcx - 1]
	imul	esi, ecx
	not	esi
	or	esi, -2
	cmp	esi, r13d
	sete	cl
	cmp	edx, 10
	setl	bl
	xor	bl, cl
	mov	edi, 551887934
	mov	ebx, 841145377
	cmovne	edi, ebx
	cmp	esi, r13d
	mov	ecx, edi
	cmove	ecx, ebx
	cmp	edx, 10
	mov	dword ptr [rsp + 28], eax
	cmovge	ecx, edi
.LBB9_116:                              
	add	rbp, 4
	jmp	.LBB9_109
.LBB9_148:                              
	mov	al, byte ptr [rsp + 15]
	mov	cl, byte ptr [rsp + 14]
	mov	edx, eax
	xor	dl, cl
	mov	edx, 551887934
	mov	esi, 1802457641
	cmovne	edx, esi
	test	cl, cl
	mov	ecx, edx
	cmovne	ecx, esi
	test	al, al
	cmove	ecx, edx
.LBB9_109:                              

	mov	eax, ecx
	and	eax, 2147483647
	cmp	eax, 841145376
	jg	.LBB9_113

	cmp	eax, 59888073
	je	.LBB9_148

	cmp	eax, 551887934
	jne	.LBB9_109

	call	_ZN8CryptoPP10EnumToTypeINS_9ByteOrderELi0EE6ToEnumEv
	xor	edi, edi
	mov	esi, eax
	mov	rdx, rbp
	call	_ZN8CryptoPP7GetWordIjEET_bNS_9ByteOrderEPKh
	mov	dword ptr [rsp + 28], eax
	mov	ecx, 1802457641
	jmp	.LBB9_116
.LBB9_113:                              
	cmp	eax, 841145377
	jne	.LBB9_114

	mov	eax, dword ptr [rip + x.48]
	mov	ecx, dword ptr [rip + y.49]
	lea	edx, [rax - 1]
	imul	edx, eax
	mov	eax, edx
	xor	eax, -2
	test	eax, edx
	sete	byte ptr [rsp + 15]
	cmp	ecx, 10
	setl	byte ptr [rsp + 14]
	mov	ecx, 59888073
	jmp	.LBB9_118
.LBB9_123:                              
	cmp	eax, 1802457641
	jne	.LBB9_118

	call	_ZN8CryptoPP10EnumToTypeINS_9ByteOrderELi0EE6ToEnumEv
	xor	edi, edi
	mov	esi, eax
	mov	rdx, rbp
	call	_ZN8CryptoPP7GetWordIjEET_bNS_9ByteOrderEPKh
	mov	ecx, dword ptr [rip + x.48]
	mov	edi, dword ptr [rip + y.49]
	lea	esi, [rcx - 1]
	imul	esi, ecx
	mov	ecx, esi
	xor	ecx, -2
	and	ecx, esi
	sete	bl
	cmp	edi, 10
	setl	dl
	xor	dl, bl
	mov	edx, 551887934
	mov	esi, 841145377
	cmovne	edx, esi
	test	ecx, ecx
	mov	ecx, edx
	cmove	ecx, esi
	cmp	edi, 10
	mov	dword ptr [rsp + 24], eax
	cmovge	ecx, edx
.LBB9_125:                              
	add	rbp, 4
	jmp	.LBB9_118
.LBB9_149:                              
	mov	al, byte ptr [rsp + 15]
	mov	cl, byte ptr [rsp + 14]
	mov	edx, eax
	xor	dl, cl
	test	cl, cl
	mov	ecx, 551887934
	mov	esi, 1802457641
	cmovne	ecx, esi
	test	al, al
	mov	eax, 551887934
	cmove	ecx, eax
	test	dl, dl
	cmovne	ecx, esi
.LBB9_118:                              

	mov	eax, ecx
	and	eax, 2147483647
	cmp	eax, 841145376
	jg	.LBB9_122

	cmp	eax, 59888073
	je	.LBB9_149

	cmp	eax, 551887934
	jne	.LBB9_118

	call	_ZN8CryptoPP10EnumToTypeINS_9ByteOrderELi0EE6ToEnumEv
	xor	edi, edi
	mov	esi, eax
	mov	rdx, rbp
	call	_ZN8CryptoPP7GetWordIjEET_bNS_9ByteOrderEPKh
	mov	dword ptr [rsp + 24], eax
	mov	ecx, 1802457641
	jmp	.LBB9_125
.LBB9_122:                              
	cmp	eax, 841145377
	jne	.LBB9_123

	mov	rax, qword ptr [r15 + 48]
	mov	ecx, dword ptr [rax]
	mov	edx, dword ptr [rsp + 16]
	mov	esi, edx
	not	esi
	and	esi, 634513457
	and	edx, -634513458
	or	edx, esi
	mov	esi, ecx
	not	esi
	and	esi, 634513457
	and	ecx, -634513458
	or	ecx, esi
	xor	ecx, edx
	mov	dword ptr [rsp + 16], ecx
	mov	ecx, dword ptr [rax + 4]
	mov	edx, dword ptr [rsp + 20]
	mov	esi, edx
	not	esi
	and	esi, 524721705
	and	edx, -524721706
	or	edx, esi
	mov	esi, ecx
	not	esi
	and	esi, 524721705
	and	ecx, -524721706
	or	ecx, esi
	xor	ecx, edx
	mov	dword ptr [rsp + 20], ecx
	mov	ecx, dword ptr [rax + 8]
	mov	edx, dword ptr [rsp + 28]
	mov	esi, edx
	not	esi
	and	esi, ecx
	not	ecx
	and	ecx, edx
	or	ecx, esi
	mov	dword ptr [rsp + 28], ecx
	mov	eax, dword ptr [rax + 12]
	mov	ecx, dword ptr [rsp + 24]
	mov	edx, ecx
	not	edx
	and	edx, eax
	not	eax
	and	eax, ecx
	or	eax, edx
	mov	dword ptr [rsp + 24], eax
	mov	al, byte ptr [rip + _ZN8CryptoPP18g_x86DetectionDoneE]
	mov	byte ptr [rsp + 14], al
	mov	eax, -971848300
	jmp	.LBB9_127
.LBB9_134:                              
	cmp	eax, 1680332589
	je	.LBB9_139

	cmp	eax, 1906642695
	jne	.LBB9_127

	mov	eax, 581691265
	jmp	.LBB9_127
.LBB9_137:                              
	mov	al, byte ptr [rsp + 14]
	mov	ecx, eax
	xor	cl, -2
	test	cl, al
	mov	eax, 581691265
	mov	ecx, -189750550
	cmove	eax, ecx
	jmp	.LBB9_127
.LBB9_138:                              
	call	_ZN8CryptoPP17DetectX86FeaturesEv
	mov	eax, dword ptr [rip + x.52]
	mov	ecx, dword ptr [rip + y.53]
	lea	edx, [rax - 1]
	imul	edx, eax
	mov	eax, edx
	xor	eax, -2
	and	eax, edx
	sete	dl
	cmp	ecx, 10
	setl	bl
	xor	bl, dl
	mov	edx, 1680332589
	mov	esi, 1906642695
.LBB9_132:                              
	cmovne	edx, esi
	test	eax, eax
	mov	eax, edx
	cmove	eax, esi
	cmp	ecx, 10
	cmovge	eax, edx
	jmp	.LBB9_127
.LBB9_139:                              
	call	_ZN8CryptoPP17DetectX86FeaturesEv
	mov	eax, -609029914
.LBB9_127:                              

	cmp	eax, 581691264
	jg	.LBB9_133

	cmp	eax, -971848300
	je	.LBB9_137

	cmp	eax, -609029914
	je	.LBB9_138

	cmp	eax, -189750550
	jne	.LBB9_127

	mov	eax, dword ptr [rip + x.52]
	mov	ecx, dword ptr [rip + y.53]
	lea	edx, [rax - 1]
	imul	edx, eax
	mov	eax, edx
	xor	eax, -2
	and	eax, edx
	sete	dl
	cmp	ecx, 10
	setl	bl
	xor	bl, dl
	mov	edx, 1680332589
	mov	esi, -609029914
	jmp	.LBB9_132
.LBB9_133:                              
	cmp	eax, 581691265
	jne	.LBB9_134

	mov	dword ptr [rsp + 32], 0
	mov	eax, dword ptr [rsp + 32]
	mov	eax, 1151567587
	jmp	.LBB9_1
.LBB9_85:                               
	mov	eax, -108679670
	mov	dword ptr [rsp + 68], 0 
	mov	ecx, dword ptr [rsp + 148]
	mov	dword ptr [rsp + 72], ecx 
	jmp	.LBB9_1
.LBB9_141:                              
	mov	eax, 1701539689
	jmp	.LBB9_1
.LBB9_88:                               
	mov	r11, qword ptr [rsp + 168] 
	mov	r8d, dword ptr [r11]
	mov	r9d, dword ptr [r11 + 4]
	mov	edx, dword ptr [r11 + 8]
	mov	esi, dword ptr [r11 + 12]
	mov	rdi, qword ptr [rsp + 80] 
	lea	eax, [8*rdi]
	and	eax, 2040
	mov	eax, dword ptr [rax + _ZN8CryptoPPL2TeE+3]
	mov	ecx, eax
	not	ecx
	and	ecx, r8d
	not	r8d
	and	r8d, eax
	or	r8d, ecx
	mov	eax, edi
	shr	eax, 5
	and	eax, 2040
	mov	eax, dword ptr [rax + _ZN8CryptoPPL2TeE+2]
	mov	ecx, eax
	not	ecx
	and	ecx, r9d
	not	r9d
	and	r9d, eax
	or	r9d, ecx
	mov	eax, edi
	shr	eax, 13
	mov	ecx, eax
	xor	ecx, 522247
	and	ecx, eax
	mov	eax, dword ptr [rcx + _ZN8CryptoPPL2TeE+1]
	mov	ecx, eax
	not	ecx
	and	ecx, -1302780891
	and	eax, 1302780890
	or	eax, ecx
	mov	ecx, edx
	not	ecx
	and	ecx, -1302780891
	and	edx, 1302780890
	or	edx, ecx
	xor	edx, eax
	shr	edi, 24
	mov	eax, dword ptr [8*rdi + _ZN8CryptoPPL2TeE+4]
	mov	ecx, eax
	not	ecx
	and	ecx, esi
	not	esi
	and	esi, eax
	or	esi, ecx
	mov	rdi, qword ptr [rsp + 88] 
	lea	eax, [8*rdi]
	mov	ecx, eax
	xor	ecx, -2048
	and	ecx, eax
	mov	eax, dword ptr [rcx + _ZN8CryptoPPL2TeE+3]
	mov	ecx, eax
	not	ecx
	and	ecx, esi
	not	esi
	and	esi, eax
	or	esi, ecx
	mov	eax, edi
	shr	eax, 5
	mov	ecx, eax
	xor	ecx, 134215687
	and	ecx, eax
	mov	eax, dword ptr [rcx + _ZN8CryptoPPL2TeE+2]
	mov	ecx, eax
	not	ecx
	and	ecx, 518853543
	and	eax, -518853544
	or	eax, ecx
	mov	ecx, r8d
	not	ecx
	and	ecx, 518853543
	and	r8d, -518853544
	or	r8d, ecx
	xor	r8d, eax
	mov	eax, edi
	shr	eax, 13
	and	eax, 2040
	mov	eax, dword ptr [rax + _ZN8CryptoPPL2TeE+1]
	mov	ecx, eax
	not	ecx
	and	ecx, -1884466575
	and	eax, 1884466574
	or	eax, ecx
	mov	ecx, r9d
	not	ecx
	and	ecx, -1884466575
	and	r9d, 1884466574
	or	r9d, ecx
	xor	r9d, eax
	shr	edi, 24
	mov	eax, dword ptr [8*rdi + _ZN8CryptoPPL2TeE+4]
	mov	ecx, eax
	not	ecx
	and	ecx, edx
	not	edx
	and	edx, eax
	or	edx, ecx
	mov	rdi, qword ptr [rsp + 96] 
	lea	eax, [8*rdi]
	and	eax, 2040
	mov	eax, dword ptr [rax + _ZN8CryptoPPL2TeE+3]
	mov	ecx, eax
	not	ecx
	and	ecx, 322943175
	and	eax, -322943176
	or	eax, ecx
	mov	ecx, edx
	not	ecx
	and	ecx, 322943175
	and	edx, -322943176
	or	edx, ecx
	xor	edx, eax
	mov	eax, edi
	shr	eax, 5
	and	eax, 2040
	mov	eax, dword ptr [rax + _ZN8CryptoPPL2TeE+2]
	mov	ecx, eax
	not	ecx
	and	ecx, esi
	not	esi
	and	esi, eax
	or	esi, ecx
	mov	eax, edi
	shr	eax, 13
	and	eax, 2040
	mov	eax, dword ptr [rax + _ZN8CryptoPPL2TeE+1]
	mov	ecx, eax
	not	ecx
	and	ecx, r8d
	not	r8d
	and	r8d, eax
	or	r8d, ecx
	shr	edi, 24
	mov	eax, dword ptr [8*rdi + _ZN8CryptoPPL2TeE+4]
	mov	ecx, eax
	not	ecx
	and	ecx, r9d
	not	r9d
	and	r9d, eax
	or	r9d, ecx
	mov	rdi, qword ptr [rsp + 104] 
	lea	eax, [8*rdi]
	mov	ecx, eax
	xor	ecx, -2048
	and	ecx, eax
	mov	eax, dword ptr [rcx + _ZN8CryptoPPL2TeE+3]
	mov	ecx, eax
	not	ecx
	and	ecx, r9d
	not	r9d
	and	r9d, eax
	or	r9d, ecx
	mov	dword ptr [rsp + 20], r9d
	mov	eax, edi
	shr	eax, 5
	and	eax, 2040
	mov	eax, dword ptr [rax + _ZN8CryptoPPL2TeE+2]
	mov	ecx, eax
	not	ecx
	and	ecx, -1246840391
	and	eax, 1246840390
	or	eax, ecx
	mov	ecx, edx
	not	ecx
	and	ecx, -1246840391
	and	edx, 1246840390
	or	edx, ecx
	xor	edx, eax
	mov	eax, edi
	shr	eax, 13
	mov	ecx, eax
	xor	ecx, 522247
	and	ecx, eax
	mov	eax, dword ptr [rcx + _ZN8CryptoPPL2TeE+1]
	mov	ecx, eax
	not	ecx
	and	ecx, 1340092020
	and	eax, -1340092021
	or	eax, ecx
	mov	ecx, esi
	not	ecx
	and	ecx, 1340092020
	and	esi, -1340092021
	or	esi, ecx
	xor	esi, eax
	shr	edi, 24
	mov	eax, dword ptr [8*rdi + _ZN8CryptoPPL2TeE+4]
	mov	ecx, eax
	not	ecx
	and	ecx, -633639088
	and	eax, 633639087
	or	eax, ecx
	mov	ecx, r8d
	not	ecx
	and	ecx, -633639088
	and	r8d, 633639087
	or	r8d, ecx
	xor	r8d, eax
	mov	dword ptr [rsp + 16], r8d
	mov	ebx, dword ptr [r11 + 16]
	mov	ebp, dword ptr [r11 + 20]
	mov	r10d, dword ptr [r11 + 24]
	mov	eax, dword ptr [r11 + 28]
	lea	ecx, [8*rsi]
	mov	edi, ecx
	xor	edi, -2048
	and	edi, ecx
	mov	ecx, dword ptr [rdi + _ZN8CryptoPPL2TeE+3]
	mov	edi, ecx
	not	edi
	and	edi, -986895330
	and	ecx, 986895329
	or	ecx, edi
	mov	edi, ebx
	not	edi
	and	edi, -986895330
	and	ebx, 986895329
	or	ebx, edi
	xor	ebx, ecx
	mov	ecx, esi
	shr	ecx, 5
	mov	edi, ecx
	xor	edi, 134215687
	and	edi, ecx
	mov	ecx, dword ptr [rdi + _ZN8CryptoPPL2TeE+2]
	mov	edi, ecx
	not	edi
	and	edi, ebp
	not	ebp
	and	ebp, ecx
	or	ebp, edi
	mov	ecx, esi
	shr	ecx, 13
	and	ecx, 2040
	mov	ecx, dword ptr [rcx + _ZN8CryptoPPL2TeE+1]
	mov	edi, ecx
	not	edi
	and	edi, r10d
	not	r10d
	and	r10d, ecx
	or	r10d, edi
	shr	esi, 24
	mov	dword ptr [rsp + 24], esi
	mov	ecx, dword ptr [8*rsi + _ZN8CryptoPPL2TeE+4]
	mov	esi, ecx
	not	esi
	and	esi, -1050900091
	and	ecx, 1050900090
	or	ecx, esi
	mov	esi, eax
	not	esi
	and	esi, -1050900091
	and	eax, 1050900090
	or	eax, esi
	xor	eax, ecx
	lea	ecx, [8*rdx]
	and	ecx, 2040
	mov	ecx, dword ptr [rcx + _ZN8CryptoPPL2TeE+3]
	mov	esi, eax
	not	esi
	and	esi, ecx
	not	ecx
	and	ecx, eax
	or	ecx, esi
	mov	eax, edx
	shr	eax, 5
	and	eax, 2040
	mov	eax, dword ptr [rax + _ZN8CryptoPPL2TeE+2]
	mov	esi, ebx
	not	esi
	and	esi, 1683471745
	and	ebx, -1683471746
	or	ebx, esi
	mov	esi, eax
	not	esi
	and	esi, 1683471745
	and	eax, -1683471746
	or	eax, esi
	xor	eax, ebx
	mov	esi, edx
	shr	esi, 13
	mov	edi, esi
	xor	edi, 522247
	and	edi, esi
	mov	ebx, dword ptr [rdi + _ZN8CryptoPPL2TeE+1]
	mov	esi, ebp
	not	esi
	and	esi, -1478478792
	and	ebp, 1478478791
	or	ebp, esi
	mov	esi, ebx
	not	esi
	and	esi, -1478478792
	and	ebx, 1478478791
	or	ebx, esi
	xor	ebx, ebp
	shr	edx, 24
	mov	dword ptr [rsp + 28], edx
	mov	edx, dword ptr [8*rdx + _ZN8CryptoPPL2TeE+4]
	mov	esi, r10d
	not	esi
	and	esi, -1252489057
	and	r10d, 1252489056
	or	r10d, esi
	mov	esi, edx
	not	esi
	and	esi, -1252489057
	and	edx, 1252489056
	or	edx, esi
	xor	edx, r10d
	lea	esi, [8*r9]
	mov	edi, esi
	xor	edi, -2048
	and	edi, esi
	mov	edi, dword ptr [rdi + _ZN8CryptoPPL2TeE+3]
	mov	esi, edx
	not	esi
	and	esi, edi
	not	edi
	and	edi, edx
	or	edi, esi
	mov	edx, r9d
	shr	edx, 5
	and	edx, 2040
	mov	esi, dword ptr [rdx + _ZN8CryptoPPL2TeE+2]
	mov	edx, ecx
	not	edx
	and	edx, esi
	not	esi
	and	esi, ecx
	or	esi, edx
	mov	ecx, r9d
	shr	ecx, 13
	and	ecx, 2040
	mov	edx, dword ptr [rcx + _ZN8CryptoPPL2TeE+1]
	mov	ecx, eax
	not	ecx
	and	ecx, 614379970
	and	eax, -614379971
	or	eax, ecx
	mov	ecx, edx
	not	ecx
	and	ecx, 614379970
	and	edx, -614379971
	or	edx, ecx
	xor	edx, eax
	shr	r9d, 24
	mov	dword ptr [rsp + 20], r9d
	mov	eax, dword ptr [8*r9 + _ZN8CryptoPPL2TeE+4]
	mov	ecx, ebx
	not	ecx
	and	ecx, 2039073466
	and	ebx, -2039073467
	or	ebx, ecx
	mov	ecx, eax
	not	ecx
	and	ecx, 2039073466
	and	eax, -2039073467
	or	eax, ecx
	xor	eax, ebx
	lea	ecx, [8*r8]
	mov	ebp, ecx
	xor	ebp, -2048
	and	ebp, ecx
	mov	ecx, dword ptr [rbp + _ZN8CryptoPPL2TeE+3]
	mov	ebp, eax
	not	ebp
	and	ebp, -1049434908
	and	eax, 1049434907
	or	eax, ebp
	mov	ebp, ecx
	not	ebp
	and	ebp, -1049434908
	and	ecx, 1049434907
	or	ecx, ebp
	xor	ecx, eax
	mov	dword ptr [rsp + 36], ecx
	mov	eax, r8d
	shr	eax, 5
	and	eax, 2040
	mov	eax, dword ptr [rax + _ZN8CryptoPPL2TeE+2]
	mov	ecx, edi
	not	ecx
	and	ecx, -1721890992
	and	edi, 1721890991
	or	edi, ecx
	mov	ecx, eax
	not	ecx
	and	ecx, -1721890992
	and	eax, 1721890991
	or	eax, ecx
	xor	eax, edi
	mov	dword ptr [rsp + 40], eax
	mov	eax, r8d
	shr	eax, 13
	mov	ecx, eax
	xor	ecx, 522247
	and	ecx, eax
	mov	eax, dword ptr [rcx + _ZN8CryptoPPL2TeE+1]
	mov	ecx, esi
	not	ecx
	and	ecx, 1364706680
	and	esi, -1364706681
	or	esi, ecx
	mov	ecx, eax
	not	ecx
	and	ecx, 1364706680
	and	eax, -1364706681
	or	eax, ecx
	xor	eax, esi
	mov	dword ptr [rsp + 44], eax
	shr	r8d, 24
	mov	dword ptr [rsp + 16], r8d
	mov	eax, dword ptr [8*r8 + _ZN8CryptoPPL2TeE+4]
	mov	ecx, edx
	not	ecx
	and	ecx, 393298147
	and	edx, -393298148
	or	edx, ecx
	mov	ecx, eax
	not	ecx
	and	ecx, 393298147
	and	eax, -393298148
	or	eax, ecx
	xor	eax, edx
	mov	dword ptr [rsp + 48], eax
	add	r11, 32
	mov	qword ptr [rsp + 56], r11
	dec	dword ptr [rsp + 124]   
	mov	eax, -1481333818
	mov	ecx, 1311106558
	cmove	eax, ecx
	mov	ecx, dword ptr [rsp + 36]
	mov	qword ptr [rsp + 96], rcx 
	mov	ecx, dword ptr [rsp + 40]
	mov	qword ptr [rsp + 88], rcx 
	mov	ecx, dword ptr [rsp + 44]
	mov	qword ptr [rsp + 80], rcx 
	mov	ecx, dword ptr [rsp + 48]
	mov	qword ptr [rsp + 104], rcx 
	mov	rcx, qword ptr [rsp + 56]
	mov	qword ptr [rsp + 168], rcx 
	jmp	.LBB9_1
.LBB9_89:                               
	mov	eax, dword ptr [rsp + 40]
	mov	ecx, eax
	xor	ecx, -256
	and	ecx, eax
	movzx	ecx, byte ptr [8*rcx + _ZN8CryptoPPL2TeE+1]
	shl	ecx, 24
	mov	eax, dword ptr [rsp + 40]
	movzx	edx, ah  
	mov	esi, eax
	shr	esi, 16
	mov	edi, esi
	xor	edi, 65280
	and	edi, esi
	shr	eax, 24
	movzx	r8d, byte ptr [8*rdx + _ZN8CryptoPPL2TeE+1]
	movzx	r12d, byte ptr [8*rdi + _ZN8CryptoPPL2TeE+1]
	movzx	eax, byte ptr [8*rax + _ZN8CryptoPPL2TeE+1]
	mov	dword ptr [rsp + 120], eax 
	mov	eax, dword ptr [rsp + 36]
	mov	ebp, 255
	and	eax, ebp
	movzx	eax, byte ptr [8*rax + _ZN8CryptoPPL2TeE+1]
	mov	dword ptr [rsp + 116], eax 
	mov	eax, dword ptr [rsp + 36]
	mov	edx, eax
	shr	edx, 8
	mov	esi, edx
	xor	esi, 16776960
	and	esi, edx
	movzx	edx, byte ptr [8*rsi + _ZN8CryptoPPL2TeE+1]
	shl	edx, 16
	or	edx, ecx
	mov	ecx, eax
	shr	ecx, 16
	mov	esi, ecx
	xor	esi, 65280
	and	esi, ecx
	shr	eax, 24
	movzx	ecx, byte ptr [8*rsi + _ZN8CryptoPPL2TeE+1]
	movzx	r15d, byte ptr [8*rax + _ZN8CryptoPPL2TeE+1]
	mov	eax, dword ptr [rsp + 48]
	mov	esi, eax
	xor	esi, -256
	and	esi, eax
	movzx	r14d, byte ptr [8*rsi + _ZN8CryptoPPL2TeE+1]
	mov	ebx, dword ptr [rsp + 48]
	movzx	edi, bh  
	mov	eax, ebx
	shr	eax, 16
	movzx	eax, al
	movzx	eax, byte ptr [8*rax + _ZN8CryptoPPL2TeE+1]
	shl	eax, 8
	or	eax, edx
	shr	ebx, 24
	movzx	esi, byte ptr [8*rbx + _ZN8CryptoPPL2TeE+1]
	movzx	r13d, byte ptr [8*rdi + _ZN8CryptoPPL2TeE+1]
	mov	edx, dword ptr [rsp + 44]
	and	edx, ebp
	movzx	edx, byte ptr [8*rdx + _ZN8CryptoPPL2TeE+1]
	mov	ebp, dword ptr [rsp + 44]
	mov	ebx, ebp
	shr	ebx, 8
	mov	edi, ebx
	xor	edi, 16776960
	and	edi, ebx
	mov	ebx, ebp
	shr	ebp, 24
	movzx	ebp, byte ptr [8*rbp + _ZN8CryptoPPL2TeE+1]
	or	ebp, eax
	shl	r8d, 16
	shl	ecx, 8
	or	ecx, r8d
	mov	eax, ecx
	not	eax
	and	eax, 847126488
	and	ecx, 8511488
	or	ecx, eax
	mov	eax, esi
	not	eax
	and	eax, 847126488
	and	esi, 39
	or	esi, eax
	shr	ebx, 16
	movzx	eax, bl
	movzx	ebx, byte ptr [8*rdi + _ZN8CryptoPPL2TeE+1]
	movzx	eax, byte ptr [8*rax + _ZN8CryptoPPL2TeE+1]
	mov	dword ptr [rsp + 112], eax 
	mov	rax, qword ptr [rsp + 152] 
	mov	qword ptr [rsp + 248], rax
	mov	rax, qword ptr [rsp + 160] 
	mov	qword ptr [rsp + 256], rax
	shl	edx, 24
	xor	esi, ecx
	mov	eax, esi
	and	eax, edx
	xor	esi, edx
	or	esi, eax
	mov	rax, qword ptr [rsp + 56]
	mov	eax, dword ptr [rax]
	mov	ecx, eax
	not	ecx
	and	ecx, 158428372
	and	eax, -158428373
	or	eax, ecx
	mov	ecx, esi
	not	ecx
	and	ecx, 158428372
	and	esi, -158428373
	or	esi, ecx
	xor	esi, eax
	lea	rdi, [rsp + 248]
	call	_ZN8CryptoPP8PutBlockIjNS_10EnumToTypeINS_9ByteOrderELi0EEELb0EEclIjEERS4_T_
	shl	r14d, 24
	shl	ebx, 16
	shl	r12d, 8
	mov	ecx, r12d
	not	ecx
	mov	edx, r15d
	not	edx
	and	ecx, -2020882490
	and	r12d, 14336
	or	r12d, ecx
	and	edx, -2020882490
	and	r15d, 57
	or	r15d, edx
	xor	r15d, r12d
	mov	r12b, -1
	mov	esi, r15d
	not	esi
	mov	ecx, r14d
	not	ecx
	mov	edx, esi
	and	edx, -27413976
	and	r15d, 19927
	or	r15d, edx
	or	esi, ecx
	and	ecx, -27413976
	and	r14d, 16777216
	or	r14d, ecx
	xor	r14d, r15d
	mov	r15, qword ptr [rsp + 224] 
	not	esi
	or	esi, r14d
	mov	r14, qword ptr [rsp + 232] 
	mov	ecx, esi
	and	ecx, ebx
	xor	esi, ebx
	or	esi, ecx
	mov	rcx, qword ptr [rsp + 56]
	mov	ecx, dword ptr [rcx + 4]
	mov	edx, ecx
	not	edx
	and	edx, -837496659
	and	ecx, 837496658
	or	ecx, edx
	mov	edx, esi
	not	edx
	and	edx, -837496659
	and	esi, 837496658
	or	esi, edx
	xor	esi, ecx
	mov	rdi, rax
	call	_ZN8CryptoPP8PutBlockIjNS_10EnumToTypeINS_9ByteOrderELi0EEELb0EEclIjEERS4_T_
	mov	esi, dword ptr [rsp + 116] 
	shl	esi, 24
	add	esi, dword ptr [rsp + 120] 
	shl	r13d, 16
	mov	edi, dword ptr [rsp + 112] 
	shl	edi, 8
	mov	ecx, esi
	not	ecx
	mov	edx, r13d
	not	edx
	and	ecx, -997294917
	and	esi, 989855812
	or	esi, ecx
	and	edx, -997294917
	and	r13d, 7405568
	or	r13d, edx
	xor	r13d, esi
	mov	ecx, r13d
	mov	edx, edi
	and	ecx, edx
	xor	r13d, edx
	or	r13d, ecx
	mov	rcx, qword ptr [rsp + 56]
	mov	ecx, dword ptr [rcx + 8]
	mov	edx, ecx
	not	edx
	and	edx, -1020933935
	and	ecx, 1020933934
	or	ecx, edx
	mov	edx, r13d
	not	edx
	and	edx, -1020933935
	and	r13d, 1020933934
	or	r13d, edx
	xor	r13d, ecx
	mov	rdi, rax
	mov	esi, r13d
	mov	r13d, -1
	call	_ZN8CryptoPP8PutBlockIjNS_10EnumToTypeINS_9ByteOrderELi0EEELb0EEclIjEERS4_T_
	mov	rcx, qword ptr [rsp + 56]
	mov	ecx, dword ptr [rcx + 12]
	mov	edx, ecx
	not	edx
	and	edx, 942218962
	and	ecx, -942218963
	or	ecx, edx
	mov	edx, ebp
	not	edx
	and	edx, 942218962
	and	ebp, -942218963
	or	ebp, edx
	xor	ebp, ecx
	mov	rdi, rax
	mov	esi, ebp
	call	_ZN8CryptoPP8PutBlockIjNS_10EnumToTypeINS_9ByteOrderELi0EEELb0EEclIjEERS4_T_
	mov	rax, qword ptr [rsp + 216]
	mov	rax, qword ptr [rsp + 200]
	mov	rax, qword ptr [rsp + 192]
	mov	rax, qword ptr [rsp + 184]
	mov	rax, qword ptr [rsp + 176]
	mov	eax, -1289115934
	jmp	.LBB9_1
.LBB9_33:                               
	mov	al, byte ptr [rip + _ZN8CryptoPP18g_x86DetectionDoneE]
	mov	byte ptr [rsp + 14], al
	mov	eax, 528342624
	jmp	.LBB9_34
.LBB9_36:                               
	cmp	eax, 528342624
	jne	.LBB9_34

	mov	al, byte ptr [rsp + 14]
	not	al
	or	al, -2
	cmp	al, r12b
	mov	eax, 526338746
	mov	ecx, -599217126
	cmove	eax, ecx
	jmp	.LBB9_34
.LBB9_38:                               
	call	_ZN8CryptoPP17DetectX86FeaturesEv
	mov	eax, 526338746
.LBB9_34:                               

	cmp	eax, -599217126
	je	.LBB9_38

	cmp	eax, 526338746
	jne	.LBB9_36

	cmp	byte ptr [rip + _ZN8CryptoPP10g_hasAESNIE], 0
	mov	eax, -1517198541
	mov	ecx, 321768115
	cmove	eax, ecx
.LBB9_1:                                











	cmp	eax, -71717943
	jg	.LBB9_17

	cmp	eax, -913090717
	jg	.LBB9_10

	cmp	eax, -1481333819
	jg	.LBB9_7

	cmp	eax, -1571167968
	je	.LBB9_87

	cmp	eax, -1517198541
	jne	.LBB9_1

	mov	r8d, 16
	xor	r9d, r9d
	mov	rdi, r15
	mov	rsi, r14
	mov	rdx, qword ptr [rsp + 152] 
	mov	rcx, qword ptr [rsp + 160] 
	call	_ZNK8CryptoPP8Rijndael3Enc21AdvancedProcessBlocksEPKhS3_Phmj
	mov	eax, -1289115934
	jmp	.LBB9_1
.LBB9_17:                               
	cmp	eax, 324690771
	jle	.LBB9_18

	cmp	eax, 1311106557
	jg	.LBB9_30

	cmp	eax, 324690772
	je	.LBB9_86

	cmp	eax, 1151567587
	jne	.LBB9_1

	lea	rax, [rsp + 16]
	mov	qword ptr [rsp + 176], rax
	mov	rax, qword ptr [rsp + 176]
	lea	rax, [rsp + 20]
	mov	qword ptr [rsp + 184], rax
	mov	rax, qword ptr [rsp + 184]
	lea	rax, [rsp + 28]
	mov	qword ptr [rsp + 192], rax
	mov	rax, qword ptr [rsp + 192]
	lea	rax, [rsp + 24]
	mov	qword ptr [rsp + 200], rax
	mov	rax, qword ptr [rsp + 200]
	mov	eax, dword ptr [rip + x.48]
	mov	ecx, dword ptr [rip + y.49]
	lea	edx, [rax - 1]
	imul	edx, eax
	not	edx
	or	edx, -2
	cmp	edx, r13d
	sete	byte ptr [rsp + 15]
	cmp	ecx, 10
	setl	byte ptr [rsp + 14]
	mov	eax, 59888073
	mov	rbp, r14
	jmp	.LBB9_26
.LBB9_41:                               
	cmp	ecx, 1802457641
	jne	.LBB9_26

	call	_ZN8CryptoPP10EnumToTypeINS_9ByteOrderELi0EE6ToEnumEv
	xor	edi, edi
	mov	esi, eax
	mov	rdx, rbp
	call	_ZN8CryptoPP7GetWordIjEET_bNS_9ByteOrderEPKh
	mov	dword ptr [rsp + 16], eax
	mov	eax, dword ptr [rip + x.48]
	lea	ecx, [rax - 1]
	imul	ecx, eax
	not	ecx
	or	ecx, -2
	cmp	ecx, r13d
	sete	cl
	mov	eax, 551887934
	mov	edi, 841145377
	cmove	eax, edi
	cmp	dword ptr [rip + y.49], 10
	setl	dl
	mov	esi, 551887934
	cmovge	eax, esi
	xor	dl, cl
	cmovne	eax, edi
.LBB9_43:                               
	add	rbp, 4
	jmp	.LBB9_26
.LBB9_142:                              
	mov	cl, byte ptr [rsp + 15]
	mov	al, byte ptr [rsp + 14]
	mov	edx, ecx
	xor	dl, al
	test	al, al
	mov	eax, 551887934
	mov	esi, 1802457641
	cmovne	eax, esi
	test	cl, cl
	mov	ecx, 551887934
	cmove	eax, ecx
	test	dl, dl
	cmovne	eax, esi
.LBB9_26:                               

	mov	ecx, eax
	and	ecx, 2147483647
	cmp	ecx, 841145376
	jg	.LBB9_40

	cmp	ecx, 59888073
	je	.LBB9_142

	cmp	ecx, 551887934
	jne	.LBB9_26

	call	_ZN8CryptoPP10EnumToTypeINS_9ByteOrderELi0EE6ToEnumEv
	xor	edi, edi
	mov	esi, eax
	mov	rdx, rbp
	call	_ZN8CryptoPP7GetWordIjEET_bNS_9ByteOrderEPKh
	mov	dword ptr [rsp + 16], eax
	mov	eax, 1802457641
	jmp	.LBB9_43
.LBB9_40:                               
	cmp	ecx, 841145377
	jne	.LBB9_41

	mov	eax, dword ptr [rip + x.48]
	mov	ecx, dword ptr [rip + y.49]
	lea	edx, [rax - 1]
	imul	edx, eax
	not	edx
	or	edx, -2
	cmp	edx, r13d
	sete	byte ptr [rsp + 15]
	cmp	ecx, 10
	setl	byte ptr [rsp + 14]
	mov	ecx, 59888073
	jmp	.LBB9_45
.LBB9_50:                               
	cmp	eax, 1802457641
	jne	.LBB9_45

	call	_ZN8CryptoPP10EnumToTypeINS_9ByteOrderELi0EE6ToEnumEv
	xor	edi, edi
	mov	esi, eax
	mov	rdx, rbp
	call	_ZN8CryptoPP7GetWordIjEET_bNS_9ByteOrderEPKh
	mov	ecx, dword ptr [rip + x.48]
	mov	edx, dword ptr [rip + y.49]
	lea	esi, [rcx - 1]
	imul	esi, ecx
	not	esi
	or	esi, -2
	cmp	esi, r13d
	sete	cl
	cmp	edx, 10
	setl	bl
	xor	bl, cl
	mov	edi, 551887934
	mov	ebx, 841145377
	cmovne	edi, ebx
	cmp	esi, r13d
	mov	ecx, edi
	cmove	ecx, ebx
	cmp	edx, 10
	mov	dword ptr [rsp + 20], eax
	cmovge	ecx, edi
.LBB9_52:                               
	add	rbp, 4
	jmp	.LBB9_45
.LBB9_143:                              
	mov	al, byte ptr [rsp + 15]
	mov	cl, byte ptr [rsp + 14]
	mov	edx, eax
	xor	dl, cl
	test	cl, cl
	mov	ecx, 551887934
	mov	esi, 1802457641
	cmovne	ecx, esi
	test	al, al
	mov	eax, 551887934
	cmove	ecx, eax
	test	dl, dl
	cmovne	ecx, esi
.LBB9_45:                               

	mov	eax, ecx
	and	eax, 2147483647
	cmp	eax, 841145376
	jg	.LBB9_49

	cmp	eax, 59888073
	je	.LBB9_143

	cmp	eax, 551887934
	jne	.LBB9_45

	call	_ZN8CryptoPP10EnumToTypeINS_9ByteOrderELi0EE6ToEnumEv
	xor	edi, edi
	mov	esi, eax
	mov	rdx, rbp
	call	_ZN8CryptoPP7GetWordIjEET_bNS_9ByteOrderEPKh
	mov	dword ptr [rsp + 20], eax
	mov	ecx, 1802457641
	jmp	.LBB9_52
.LBB9_49:                               
	cmp	eax, 841145377
	jne	.LBB9_50

	mov	eax, dword ptr [rip + x.48]
	mov	ecx, dword ptr [rip + y.49]
	lea	edx, [rax - 1]
	imul	edx, eax
	mov	eax, edx
	xor	eax, -2
	test	eax, edx
	sete	byte ptr [rsp + 15]
	cmp	ecx, 10
	setl	byte ptr [rsp + 14]
	mov	ecx, 59888073
	jmp	.LBB9_54
.LBB9_59:                               
	cmp	eax, 1802457641
	jne	.LBB9_54

	call	_ZN8CryptoPP10EnumToTypeINS_9ByteOrderELi0EE6ToEnumEv
	xor	edi, edi
	mov	esi, eax
	mov	rdx, rbp
	call	_ZN8CryptoPP7GetWordIjEET_bNS_9ByteOrderEPKh
	mov	ecx, dword ptr [rip + x.48]
	mov	edi, dword ptr [rip + y.49]
	lea	esi, [rcx - 1]
	imul	esi, ecx
	mov	ecx, esi
	xor	ecx, -2
	and	ecx, esi
	sete	bl
	cmp	edi, 10
	setl	dl
	xor	dl, bl
	mov	edx, 551887934
	mov	esi, 841145377
	cmovne	edx, esi
	test	ecx, ecx
	mov	ecx, edx
	cmove	ecx, esi
	cmp	edi, 10
	mov	dword ptr [rsp + 28], eax
	cmovge	ecx, edx
.LBB9_61:                               
	add	rbp, 4
	jmp	.LBB9_54
.LBB9_144:                              
	mov	al, byte ptr [rsp + 15]
	mov	cl, byte ptr [rsp + 14]
	mov	edx, eax
	xor	dl, cl
	mov	edx, 551887934
	mov	esi, 1802457641
	cmovne	edx, esi
	test	cl, cl
	mov	ecx, edx
	cmovne	ecx, esi
	test	al, al
	cmove	ecx, edx
.LBB9_54:                               

	mov	eax, ecx
	and	eax, 2147483647
	cmp	eax, 841145376
	jg	.LBB9_58

	cmp	eax, 59888073
	je	.LBB9_144

	cmp	eax, 551887934
	jne	.LBB9_54

	call	_ZN8CryptoPP10EnumToTypeINS_9ByteOrderELi0EE6ToEnumEv
	xor	edi, edi
	mov	esi, eax
	mov	rdx, rbp
	call	_ZN8CryptoPP7GetWordIjEET_bNS_9ByteOrderEPKh
	mov	dword ptr [rsp + 28], eax
	mov	ecx, 1802457641
	jmp	.LBB9_61
.LBB9_58:                               
	cmp	eax, 841145377
	jne	.LBB9_59

	mov	eax, dword ptr [rip + x.48]
	mov	ecx, dword ptr [rip + y.49]
	mov	edx, eax
	neg	edx
	not	edx
	imul	edx, eax
	not	edx
	or	edx, -2
	cmp	edx, r13d
	sete	byte ptr [rsp + 15]
	cmp	ecx, 10
	setl	byte ptr [rsp + 14]
	mov	eax, 59888073
	jmp	.LBB9_63
.LBB9_68:                               
	cmp	ecx, 1802457641
	jne	.LBB9_63

	call	_ZN8CryptoPP10EnumToTypeINS_9ByteOrderELi0EE6ToEnumEv
	xor	edi, edi
	mov	esi, eax
	mov	rdx, rbp
	call	_ZN8CryptoPP7GetWordIjEET_bNS_9ByteOrderEPKh
	mov	dword ptr [rsp + 24], eax
	mov	eax, dword ptr [rip + x.48]
	lea	ecx, [rax - 1]
	imul	ecx, eax
	not	ecx
	or	ecx, -2
	cmp	ecx, r13d
	sete	cl
	mov	eax, 551887934
	mov	edi, 841145377
	cmove	eax, edi
	cmp	dword ptr [rip + y.49], 10
	setl	dl
	mov	esi, 551887934
	cmovge	eax, esi
	xor	dl, cl
	cmovne	eax, edi
.LBB9_70:                               
	add	rbp, 4
	jmp	.LBB9_63
.LBB9_145:                              
	mov	cl, byte ptr [rsp + 15]
	mov	al, byte ptr [rsp + 14]
	mov	edx, ecx
	xor	dl, al
	test	al, al
	mov	eax, 551887934
	mov	esi, 1802457641
	cmovne	eax, esi
	test	cl, cl
	mov	ecx, 551887934
	cmove	eax, ecx
	test	dl, dl
	cmovne	eax, esi
.LBB9_63:                               

	mov	ecx, eax
	and	ecx, 2147483647
	cmp	ecx, 841145376
	jg	.LBB9_67

	cmp	ecx, 59888073
	je	.LBB9_145

	cmp	ecx, 551887934
	jne	.LBB9_63

	call	_ZN8CryptoPP10EnumToTypeINS_9ByteOrderELi0EE6ToEnumEv
	xor	edi, edi
	mov	esi, eax
	mov	rdx, rbp
	call	_ZN8CryptoPP7GetWordIjEET_bNS_9ByteOrderEPKh
	mov	dword ptr [rsp + 24], eax
	mov	eax, 1802457641
	jmp	.LBB9_70
.LBB9_67:                               
	cmp	ecx, 841145377
	jne	.LBB9_68

	mov	qword ptr [rsp + 208], r15
	mov	rax, qword ptr [rsp + 208]
	mov	rax, qword ptr [rax + 48]
	mov	ecx, dword ptr [rax]
	mov	edx, dword ptr [rsp + 16]
	mov	esi, edx
	not	esi
	and	esi, ecx
	not	ecx
	and	ecx, edx
	or	ecx, esi
	mov	dword ptr [rsp + 16], ecx
	mov	ecx, dword ptr [rax + 4]
	mov	edx, dword ptr [rsp + 20]
	mov	esi, edx
	not	esi
	and	esi, 1511928492
	and	edx, -1511928493
	or	edx, esi
	mov	esi, ecx
	not	esi
	and	esi, 1511928492
	and	ecx, -1511928493
	or	ecx, esi
	xor	ecx, edx
	mov	dword ptr [rsp + 20], ecx
	mov	ecx, dword ptr [rax + 8]
	mov	edx, dword ptr [rsp + 28]
	mov	esi, edx
	not	esi
	and	esi, ecx
	not	ecx
	and	ecx, edx
	or	ecx, esi
	mov	dword ptr [rsp + 28], ecx
	mov	ecx, dword ptr [rax + 12]
	mov	edx, dword ptr [rsp + 24]
	mov	esi, edx
	not	esi
	and	esi, ecx
	not	ecx
	and	ecx, edx
	or	ecx, esi
	mov	dword ptr [rsp + 24], ecx
	mov	ecx, dword ptr [rax + 16]
	mov	dword ptr [rsp + 128], ecx
	mov	ecx, dword ptr [rax + 20]
	mov	dword ptr [rsp + 132], ecx
	mov	ecx, dword ptr [rax + 24]
	mov	dword ptr [rsp + 136], ecx
	mov	ecx, dword ptr [rax + 28]
	mov	dword ptr [rsp + 140], ecx
	add	rax, 32
	mov	qword ptr [rsp + 240], rax
	mov	al, byte ptr [rip + _ZN8CryptoPP18g_x86DetectionDoneE]
	mov	byte ptr [rsp + 14], al
	mov	eax, -971848300
	jmp	.LBB9_72
.LBB9_78:                               
	cmp	eax, 1680332589
	je	.LBB9_83

	cmp	eax, 1906642695
	jne	.LBB9_72

	mov	eax, 581691265
	jmp	.LBB9_72
.LBB9_81:                               
	mov	al, byte ptr [rsp + 14]
	not	al
	or	al, -2
	cmp	al, r12b
	mov	eax, 581691265
	mov	ecx, -189750550
	cmove	eax, ecx
	jmp	.LBB9_72
.LBB9_82:                               
	call	_ZN8CryptoPP17DetectX86FeaturesEv
	mov	eax, dword ptr [rip + x.52]
	mov	ecx, dword ptr [rip + y.53]
	lea	edx, [rax - 1]
	imul	edx, eax
	not	edx
	or	edx, -2
	cmp	edx, r13d
	sete	al
	cmp	ecx, 10
	setl	bl
	xor	bl, al
	mov	esi, 1680332589
	mov	edi, 1906642695
	cmovne	esi, edi
	cmp	edx, r13d
	mov	eax, esi
	cmove	eax, edi
	cmp	ecx, 10
	cmovge	eax, esi
	jmp	.LBB9_72
.LBB9_83:                               
	call	_ZN8CryptoPP17DetectX86FeaturesEv
	mov	eax, -609029914
.LBB9_72:                               

	cmp	eax, 581691264
	jg	.LBB9_77

	cmp	eax, -971848300
	je	.LBB9_81

	cmp	eax, -609029914
	je	.LBB9_82

	cmp	eax, -189750550
	jne	.LBB9_72

	mov	eax, dword ptr [rip + x.52]
	lea	ecx, [rax - 1]
	imul	ecx, eax
	mov	eax, ecx
	xor	eax, -2
	and	eax, ecx
	sete	cl
	test	eax, eax
	mov	eax, 1680332589
	mov	edi, -609029914
	cmove	eax, edi
	cmp	dword ptr [rip + y.53], 10
	setl	dl
	mov	esi, 1680332589
	cmovge	eax, esi
	xor	dl, cl
	cmovne	eax, edi
	jmp	.LBB9_72
.LBB9_77:                               
	cmp	eax, 581691265
	jne	.LBB9_78

	mov	eax, dword ptr [rip + _ZN8CryptoPP15g_cacheLineSizeE]
	mov	dword ptr [rsp + 144], eax
	lea	rax, [rsp + 32]
	mov	qword ptr [rsp + 216], rax
	mov	rax, qword ptr [rsp + 216]
	mov	dword ptr [rsp + 32], 0
	mov	eax, dword ptr [rsp + 32]
	mov	dword ptr [rsp + 148], eax
	mov	eax, dword ptr [rip + x.42]
	lea	ecx, [rax - 1]
	imul	ecx, eax
	mov	eax, ecx
	xor	eax, -2
	and	eax, ecx
	sete	cl
	test	eax, eax
	mov	eax, -342769918
	mov	edi, -71717942
	cmove	eax, edi
	cmp	dword ptr [rip + y.43], 10
	setl	dl
	mov	esi, -342769918
	cmovge	eax, esi
	xor	dl, cl
	cmovne	eax, edi
	jmp	.LBB9_1
.LBB9_10:                               
	cmp	eax, -342769919
	jle	.LBB9_11

	cmp	eax, -342769918
	je	.LBB9_90

	cmp	eax, -108679670
	jne	.LBB9_1

	mov	eax, dword ptr [rsp + 72] 
	mov	dword ptr [rsp + 76], eax
	mov	eax, dword ptr [rsp + 68] 
	mov	dword ptr [rsp + 52], eax
	mov	eax, dword ptr [rsp + 52]
	cmp	eax, 2048
	mov	eax, -1571167968
	mov	ecx, 324690772
	cmovb	eax, ecx
	jmp	.LBB9_1
.LBB9_18:                               
	cmp	eax, -71717942
	je	.LBB9_85

	cmp	eax, -69305560
	je	.LBB9_141

	cmp	eax, 321768115
	jne	.LBB9_1

	mov	eax, dword ptr [rip + x.42]
	mov	ecx, eax
	neg	ecx
	not	ecx
	imul	ecx, eax
	not	ecx
	or	ecx, -2
	cmp	ecx, r13d
	sete	cl
	mov	eax, -342769918
	mov	esi, 1151567587
	cmove	eax, esi
	cmp	dword ptr [rip + y.43], 10
	setl	dl
	mov	edi, -342769918
	cmovge	eax, edi
	xor	dl, cl
	cmovne	eax, esi
	jmp	.LBB9_1
.LBB9_7:                                
	cmp	eax, -1481333818
	je	.LBB9_88

	cmp	eax, -1289115934
	jne	.LBB9_1

	mov	eax, dword ptr [rip + x.42]
	mov	ecx, dword ptr [rip + y.43]
	lea	edx, [rax - 1]
	imul	edx, eax
	mov	eax, edx
	xor	eax, -2
	and	eax, edx
	sete	dl
	cmp	ecx, 10
	setl	bl
	xor	bl, dl
	mov	edx, -69305560
	mov	esi, 1701539689
	cmovne	edx, esi
	test	eax, eax
	mov	eax, edx
	cmove	eax, esi
	cmp	ecx, 10
	cmovge	eax, edx
	jmp	.LBB9_1
.LBB9_30:                               
	cmp	eax, 1311106558
	je	.LBB9_89

	cmp	eax, 1701539689
	jne	.LBB9_1

	mov	eax, dword ptr [rip + x.42]
	mov	ecx, dword ptr [rip + y.43]
	lea	edx, [rax - 1]
	imul	edx, eax
	not	edx
	or	edx, -2
	cmp	edx, r13d
	sete	al
	cmp	ecx, 10
	setl	bl
	xor	bl, al
	mov	esi, -69305560
	mov	edi, -913090716
	cmovne	esi, edi
	cmp	edx, r13d
	mov	eax, esi
	cmove	eax, edi
	cmp	ecx, 10
	cmovge	eax, esi
	jmp	.LBB9_1
.LBB9_11:                               
	cmp	eax, -823581312
	je	.LBB9_33

	cmp	eax, -913090716
	jne	.LBB9_1

	add	rsp, 264
	pop	rbx
	pop	r12
	pop	r13
	pop	r14
	pop	r15
	pop	rbp
	ret
.Lfunc_end9:
	.size	_ZNK8CryptoPP8Rijndael3Enc18ProcessAndXorBlockEPKhS3_Ph, .Lfunc_end9-_ZNK8CryptoPP8Rijndael3Enc18ProcessAndXorBlockEPKhS3_Ph
	.cfi_endproc

	.globl	_ZNK8CryptoPP8Rijndael3Enc21AdvancedProcessBlocksEPKhS3_Phmj 
	.p2align	1, 0x90
	.type	_ZNK8CryptoPP8Rijndael3Enc21AdvancedProcessBlocksEPKhS3_Phmj,@function
_ZNK8CryptoPP8Rijndael3Enc21AdvancedProcessBlocksEPKhS3_Phmj: 
	.cfi_startproc

	push	rbp
.Lcfi70:
	.cfi_def_cfa_offset 16
	push	r15
.Lcfi71:
	.cfi_def_cfa_offset 24
	push	r14
.Lcfi72:
	.cfi_def_cfa_offset 32
	push	r13
.Lcfi73:
	.cfi_def_cfa_offset 40
	push	r12
.Lcfi74:
	.cfi_def_cfa_offset 48
	push	rbx
.Lcfi75:
	.cfi_def_cfa_offset 56
	sub	rsp, 40
.Lcfi76:
	.cfi_def_cfa_offset 96
.Lcfi77:
	.cfi_offset rbx, -56
.Lcfi78:
	.cfi_offset r12, -48
.Lcfi79:
	.cfi_offset r13, -40
.Lcfi80:
	.cfi_offset r14, -32
.Lcfi81:
	.cfi_offset r15, -24
.Lcfi82:
	.cfi_offset rbp, -16
	mov	r12d, r9d
	mov	rbp, r8
	mov	rbx, rcx
	mov	r13, rdx
	mov	r15, rsi
	mov	r14, rdi
	lea	rax, [r14 + 8]
	mov	qword ptr [rsp + 24], rax 
	mov	ecx, 687260559


	jmp	.LBB10_1
.LBB10_8:                               
	cmp	ecx, 687260559
	jne	.LBB10_1

	mov	al, byte ptr [rip + _ZN8CryptoPP18g_x86DetectionDoneE]
	mov	byte ptr [rsp + 15], al
	mov	eax, 528342624
	jmp	.LBB10_10
.LBB10_2:                               
	cmp	ecx, -796667483
	je	.LBB10_20

	cmp	ecx, -205849920
	je	.LBB10_22

	cmp	ecx, -13029780
	jne	.LBB10_1

	mov	rdi, qword ptr [r14 + 48]
	mov	esi, dword ptr [r14 + 16]
	mov	dword ptr [rsp], r12d
	mov	rdx, r15
	mov	rcx, r13
	mov	r8, rbx
	mov	r9, rbp
	call	_ZN8CryptoPP40Rijndael_Enc_AdvancedProcessBlocks_AESNIEPKjmPKhS3_Phmj
	mov	qword ptr [rsp + 16], rax 
	mov	ecx, 46665214
	jmp	.LBB10_1
.LBB10_12:                              
	cmp	eax, 528342624
	jne	.LBB10_10

	mov	al, byte ptr [rsp + 15]
	not	al
	or	al, -2
	mov	cl, -1
	cmp	al, cl
	mov	eax, 526338746
	mov	ecx, -599217126
	cmove	eax, ecx
	jmp	.LBB10_10
.LBB10_17:                              
	call	_ZN8CryptoPP17DetectX86FeaturesEv
	mov	eax, 526338746
.LBB10_10:                              

	cmp	eax, -599217126
	je	.LBB10_17

	cmp	eax, 526338746
	jne	.LBB10_12

	cmp	byte ptr [rip + _ZN8CryptoPP10g_hasAESNIE], 0
	mov	ecx, -13029780
	mov	eax, 2083461876
	cmove	ecx, eax
	jmp	.LBB10_1
.LBB10_14:                              
	cmp	ecx, 1005601894
	je	.LBB10_19

	cmp	ecx, 2083461876
	jne	.LBB10_1

	mov	eax, dword ptr [rip + x.44]
	lea	ecx, [rax - 1]
	imul	ecx, eax
	mov	eax, ecx
	xor	eax, -2
	and	eax, ecx
	sete	dl
	test	eax, eax
	mov	ecx, -205849920
	mov	edi, 1005601894
	cmove	ecx, edi
	cmp	dword ptr [rip + y.45], 10
	setl	al
	mov	esi, -205849920
	cmovge	ecx, esi
	xor	al, dl
	cmovne	ecx, edi
	jmp	.LBB10_1
.LBB10_20:                              
	mov	ecx, 46665214
	mov	rax, qword ptr [rsp + 32]
	mov	qword ptr [rsp + 16], rax 
	jmp	.LBB10_1
.LBB10_22:                              
	mov	rdi, qword ptr [rsp + 24] 
	mov	rsi, r15
	mov	rdx, r13
	mov	rcx, rbx
	mov	r8, rbp
	mov	r9d, r12d
	call	_ZNK8CryptoPP19BlockTransformation21AdvancedProcessBlocksEPKhS2_Phmj
	mov	ecx, 1005601894
	jmp	.LBB10_1
.LBB10_19:                              
	mov	rdi, qword ptr [rsp + 24] 
	mov	rsi, r15
	mov	rdx, r13
	mov	rcx, rbx
	mov	r8, rbp
	mov	r9d, r12d
	call	_ZNK8CryptoPP19BlockTransformation21AdvancedProcessBlocksEPKhS2_Phmj
	mov	ecx, dword ptr [rip + x.44]
	mov	edx, dword ptr [rip + y.45]
	mov	esi, ecx
	neg	esi
	not	esi
	imul	esi, ecx
	not	esi
	or	esi, -2
	mov	r8d, -1
	cmp	esi, r8d
	sete	cl
	cmp	edx, 10
	mov	r9, rbx
	setl	bl
	xor	bl, cl
	mov	edi, -205849920
	mov	ebx, -796667483
	cmovne	edi, ebx
	cmp	esi, r8d
	mov	ecx, edi
	cmove	ecx, ebx
	mov	rbx, r9
	cmp	edx, 10
	mov	qword ptr [rsp + 32], rax
	cmovge	ecx, edi
.LBB10_1:                               

	cmp	ecx, 46665213
	jle	.LBB10_2

	cmp	ecx, 1005601893
	jg	.LBB10_14

	cmp	ecx, 46665214
	jne	.LBB10_8

	mov	rax, qword ptr [rsp + 16] 
	add	rsp, 40
	pop	rbx
	pop	r12
	pop	r13
	pop	r14
	pop	r15
	pop	rbp
	ret
.Lfunc_end10:
	.size	_ZNK8CryptoPP8Rijndael3Enc21AdvancedProcessBlocksEPKhS3_Phmj, .Lfunc_end10-_ZNK8CryptoPP8Rijndael3Enc21AdvancedProcessBlocksEPKhS3_Phmj
	.cfi_endproc

	.section	.text._ZN8CryptoPP8GetBlockIjNS_10EnumToTypeINS_9ByteOrderELi0EEELb0EEclIjEERS4_RT_,"axG",@progbits,_ZN8CryptoPP8GetBlockIjNS_10EnumToTypeINS_9ByteOrderELi0EEELb0EEclIjEERS4_RT_,comdat
	.weak	_ZN8CryptoPP8GetBlockIjNS_10EnumToTypeINS_9ByteOrderELi0EEELb0EEclIjEERS4_RT_ 
	.p2align	1, 0x90
	.type	_ZN8CryptoPP8GetBlockIjNS_10EnumToTypeINS_9ByteOrderELi0EEELb0EEclIjEERS4_RT_,@function
_ZN8CryptoPP8GetBlockIjNS_10EnumToTypeINS_9ByteOrderELi0EEELb0EEclIjEERS4_RT_: 
	.cfi_startproc

	push	rbp
.Lcfi83:
	.cfi_def_cfa_offset 16
	push	r15
.Lcfi84:
	.cfi_def_cfa_offset 24
	push	r14
.Lcfi85:
	.cfi_def_cfa_offset 32
	push	r13
.Lcfi86:
	.cfi_def_cfa_offset 40
	push	r12
.Lcfi87:
	.cfi_def_cfa_offset 48
	push	rbx
.Lcfi88:
	.cfi_def_cfa_offset 56
	push	rax
.Lcfi89:
	.cfi_def_cfa_offset 64
.Lcfi90:
	.cfi_offset rbx, -56
.Lcfi91:
	.cfi_offset r12, -48
.Lcfi92:
	.cfi_offset r13, -40
.Lcfi93:
	.cfi_offset r14, -32
.Lcfi94:
	.cfi_offset r15, -24
.Lcfi95:
	.cfi_offset rbp, -16
	mov	r14, rsi
	mov	rbx, rdi
	mov	eax, dword ptr [rip + x.48]
	mov	ecx, dword ptr [rip + y.49]
	lea	edx, [rax - 1]
	imul	edx, eax
	mov	eax, edx
	xor	eax, -2
	test	eax, edx
	sete	byte ptr [rsp + 6]
	cmp	ecx, 10
	setl	byte ptr [rsp + 7]
	mov	eax, 59888073
	mov	r15d, 1802457641
	mov	r13d, 551887934
	mov	r12d, -1
	mov	ebp, 841145377
	jmp	.LBB11_1
.LBB11_6:                               
	cmp	ecx, 1802457641
	jne	.LBB11_1

	call	_ZN8CryptoPP10EnumToTypeINS_9ByteOrderELi0EE6ToEnumEv
	mov	rdx, qword ptr [rbx]
	xor	edi, edi
	mov	esi, eax
	call	_ZN8CryptoPP7GetWordIjEET_bNS_9ByteOrderEPKh
	mov	dword ptr [r14], eax
	add	qword ptr [rbx], 4
	mov	eax, dword ptr [rip + x.48]
	lea	ecx, [rax - 1]
	imul	ecx, eax
	not	ecx
	or	ecx, -2
	cmp	ecx, r12d
	sete	cl
	mov	eax, 551887934
	cmove	eax, ebp
	cmp	dword ptr [rip + y.49], 10
	setl	dl
	cmovge	eax, r13d
	xor	dl, cl
	cmovne	eax, ebp
	jmp	.LBB11_1
.LBB11_9:                               
	mov	cl, byte ptr [rsp + 6]
	mov	al, byte ptr [rsp + 7]
	mov	edx, ecx
	xor	dl, al
	test	al, al
	mov	eax, 551887934
	cmovne	eax, r15d
	test	cl, cl
	cmove	eax, r13d
	test	dl, dl
	cmovne	eax, r15d
.LBB11_1:                               
	mov	ecx, eax
	and	ecx, 2147483647
	cmp	ecx, 841145376
	jg	.LBB11_5

	cmp	ecx, 59888073
	je	.LBB11_9

	cmp	ecx, 551887934
	jne	.LBB11_1

	call	_ZN8CryptoPP10EnumToTypeINS_9ByteOrderELi0EE6ToEnumEv
	mov	rdx, qword ptr [rbx]
	xor	edi, edi
	mov	esi, eax
	call	_ZN8CryptoPP7GetWordIjEET_bNS_9ByteOrderEPKh
	mov	dword ptr [r14], eax
	add	qword ptr [rbx], 4
	mov	eax, 1802457641
	jmp	.LBB11_1
.LBB11_5:                               
	cmp	ecx, 841145377
	jne	.LBB11_6

	mov	rax, rbx
	add	rsp, 8
	pop	rbx
	pop	r12
	pop	r13
	pop	r14
	pop	r15
	pop	rbp
	ret
.Lfunc_end11:
	.size	_ZN8CryptoPP8GetBlockIjNS_10EnumToTypeINS_9ByteOrderELi0EEELb0EEclIjEERS4_RT_, .Lfunc_end11-_ZN8CryptoPP8GetBlockIjNS_10EnumToTypeINS_9ByteOrderELi0EEELb0EEclIjEERS4_RT_
	.cfi_endproc

	.section	.text._ZN8CryptoPP8PutBlockIjNS_10EnumToTypeINS_9ByteOrderELi0EEELb0EEclIjEERS4_T_,"axG",@progbits,_ZN8CryptoPP8PutBlockIjNS_10EnumToTypeINS_9ByteOrderELi0EEELb0EEclIjEERS4_T_,comdat
	.weak	_ZN8CryptoPP8PutBlockIjNS_10EnumToTypeINS_9ByteOrderELi0EEELb0EEclIjEERS4_T_ 
	.p2align	1, 0x90
	.type	_ZN8CryptoPP8PutBlockIjNS_10EnumToTypeINS_9ByteOrderELi0EEELb0EEclIjEERS4_T_,@function
_ZN8CryptoPP8PutBlockIjNS_10EnumToTypeINS_9ByteOrderELi0EEELb0EEclIjEERS4_T_: 
	.cfi_startproc

	push	rbp
.Lcfi96:
	.cfi_def_cfa_offset 16
	push	r15
.Lcfi97:
	.cfi_def_cfa_offset 24
	push	r14
.Lcfi98:
	.cfi_def_cfa_offset 32
	push	rbx
.Lcfi99:
	.cfi_def_cfa_offset 40
	sub	rsp, 24
.Lcfi100:
	.cfi_def_cfa_offset 64
.Lcfi101:
	.cfi_offset rbx, -40
.Lcfi102:
	.cfi_offset r14, -32
.Lcfi103:
	.cfi_offset r15, -24
.Lcfi104:
	.cfi_offset rbp, -16
	mov	r15d, esi
	mov	rbp, rdi
	mov	eax, dword ptr [rip + x.56]
	mov	ecx, dword ptr [rip + y.57]
	mov	edx, eax
	neg	edx
	not	edx
	imul	edx, eax
	not	edx
	or	edx, -2
	mov	r14d, -1
	cmp	edx, r14d
	sete	byte ptr [rsp + 5]
	cmp	ecx, 10
	setl	byte ptr [rsp + 6]
	mov	eax, 1701948788
	jmp	.LBB12_1
.LBB12_2:                               
	cmp	eax, -1039944197
	jg	.LBB12_8

	cmp	eax, -1616537480
	je	.LBB12_32

	cmp	eax, -1082987078
	jne	.LBB12_1

	mov	rax, qword ptr [rsp + 16]
	add	rax, 4
	mov	rcx, qword ptr [rsp + 8]
	mov	qword ptr [rcx], rax
	mov	eax, dword ptr [rip + x.56]
	mov	ecx, dword ptr [rip + y.57]
	lea	edx, [rax - 1]
	imul	edx, eax
	not	edx
	or	edx, -2
	cmp	edx, r14d
	sete	al
	cmp	ecx, 10
	setl	bl
	xor	bl, al
	mov	eax, -1039944196
	mov	esi, -1039944196
	jne	.LBB12_7

	mov	esi, 1214914093
.LBB12_7:                               
	cmp	edx, r14d
	cmovne	eax, esi
	cmp	ecx, 10
	cmovge	eax, esi
	jmp	.LBB12_1
.LBB12_16:                              
	cmp	eax, 982732481
	je	.LBB12_30

	cmp	eax, 1105239501
	jne	.LBB12_1

	mov	eax, dword ptr [rip + x.56]
	mov	ecx, dword ptr [rip + y.57]
	lea	esi, [rax - 1]
	imul	esi, eax
	mov	edx, esi
	xor	edx, -2
	and	edx, esi
	sete	al
	cmp	ecx, 10
	setl	bl
	xor	bl, al
	mov	esi, -1082987078
	mov	eax, -1082987078
	jne	.LBB12_20

	mov	eax, 1214914093
.LBB12_20:                              
	test	edx, edx
	je	.LBB12_22

	mov	esi, eax
.LBB12_22:                              
	cmp	ecx, 10
	cmovl	eax, esi
	jmp	.LBB12_1
.LBB12_8:                               
	cmp	eax, -1039944196
	je	.LBB12_31

	cmp	eax, -440247796
	jne	.LBB12_1

	call	_ZN8CryptoPP10EnumToTypeINS_9ByteOrderELi0EE6ToEnumEv
	mov	rdx, qword ptr [rbp + 8]
	mov	qword ptr [rsp + 8], rbp
	mov	rcx, qword ptr [rsp + 8]
	mov	r8, qword ptr [rcx]
	xor	edi, edi
	mov	esi, eax
	mov	ecx, r15d
	call	_ZN8CryptoPP7PutWordIjEEvbNS_9ByteOrderEPhT_PKh
	add	qword ptr [rbp + 8], 4
	mov	eax, dword ptr [rip + x.56]
	mov	ecx, dword ptr [rip + y.57]
	mov	edx, eax
	neg	edx
	not	edx
	imul	edx, eax
	mov	esi, edx
	xor	esi, -2
	and	esi, edx
	sete	al
	cmp	ecx, 10
	setl	dl
	xor	dl, al
	mov	edx, 982732481
	mov	eax, 982732481
	jne	.LBB12_12

	mov	eax, -1616537480
.LBB12_12:                              
	test	esi, esi
	je	.LBB12_14

	mov	edx, eax
.LBB12_14:                              
	cmp	ecx, 10
	mov	rcx, qword ptr [rsp + 8]
	mov	rcx, qword ptr [rcx]
	mov	qword ptr [rsp + 16], rcx
	cmovl	eax, edx
	cmp	qword ptr [rsp + 16], 0
	setne	byte ptr [rsp + 7]
	jmp	.LBB12_1
.LBB12_33:                              
	mov	rax, qword ptr [rsp + 16]
	add	rax, 4
	mov	rcx, qword ptr [rsp + 8]
	mov	qword ptr [rcx], rax
	mov	eax, -1082987078
	jmp	.LBB12_1
.LBB12_27:                              
	mov	cl, byte ptr [rsp + 5]
	mov	dl, byte ptr [rsp + 6]
	mov	eax, ecx
	xor	al, dl
	mov	eax, -440247796
	mov	esi, -440247796
	jne	.LBB12_29

	mov	esi, -1616537480
.LBB12_29:                              
	test	dl, dl
	cmove	eax, esi
	test	cl, cl
	cmove	eax, esi
	jmp	.LBB12_1
.LBB12_32:                              
	call	_ZN8CryptoPP10EnumToTypeINS_9ByteOrderELi0EE6ToEnumEv
	mov	r8, qword ptr [rbp]
	mov	rdx, qword ptr [rbp + 8]
	xor	edi, edi
	mov	esi, eax
	mov	ecx, r15d
	call	_ZN8CryptoPP7PutWordIjEEvbNS_9ByteOrderEPhT_PKh
	add	qword ptr [rbp + 8], 4
	mov	eax, -440247796
	jmp	.LBB12_1
.LBB12_30:                              
	mov	al, byte ptr [rsp + 7]
	test	al, al
	mov	eax, 1105239501
	jne	.LBB12_1
.LBB12_31:                              
	mov	eax, 1405923634
.LBB12_1:                               
	cmp	eax, 982732480
	jle	.LBB12_2

	cmp	eax, 1214914092
	jle	.LBB12_16

	cmp	eax, 1214914093
	je	.LBB12_33

	cmp	eax, 1701948788
	je	.LBB12_27

	cmp	eax, 1405923634
	jne	.LBB12_1

	mov	rax, rbp
	add	rsp, 24
	pop	rbx
	pop	r14
	pop	r15
	pop	rbp
	ret
.Lfunc_end12:
	.size	_ZN8CryptoPP8PutBlockIjNS_10EnumToTypeINS_9ByteOrderELi0EEELb0EEclIjEERS4_T_, .Lfunc_end12-_ZN8CryptoPP8PutBlockIjNS_10EnumToTypeINS_9ByteOrderELi0EEELb0EEclIjEERS4_T_
	.cfi_endproc

	.text
	.globl	_ZThn8_NK8CryptoPP8Rijndael3Enc18ProcessAndXorBlockEPKhS3_Ph 
	.p2align	1, 0x90
	.type	_ZThn8_NK8CryptoPP8Rijndael3Enc18ProcessAndXorBlockEPKhS3_Ph,@function
_ZThn8_NK8CryptoPP8Rijndael3Enc18ProcessAndXorBlockEPKhS3_Ph: 
	.cfi_startproc

	add	rdi, -8
	jmp	_ZNK8CryptoPP8Rijndael3Enc18ProcessAndXorBlockEPKhS3_Ph 
.Lfunc_end13:
	.size	_ZThn8_NK8CryptoPP8Rijndael3Enc18ProcessAndXorBlockEPKhS3_Ph, .Lfunc_end13-_ZThn8_NK8CryptoPP8Rijndael3Enc18ProcessAndXorBlockEPKhS3_Ph
	.cfi_endproc

	.globl	_ZNK8CryptoPP8Rijndael3Dec18ProcessAndXorBlockEPKhS3_Ph 
	.p2align	1, 0x90
	.type	_ZNK8CryptoPP8Rijndael3Dec18ProcessAndXorBlockEPKhS3_Ph,@function
_ZNK8CryptoPP8Rijndael3Dec18ProcessAndXorBlockEPKhS3_Ph: 
	.cfi_startproc

	push	rbp
.Lcfi105:
	.cfi_def_cfa_offset 16
.Lcfi106:
	.cfi_offset rbp, -16
	mov	rbp, rsp
.Lcfi107:
	.cfi_def_cfa_register rbp
	push	r15
	push	r14
	push	r13
	push	r12
	push	rbx
	sub	rsp, 344
.Lcfi108:
	.cfi_offset rbx, -56
.Lcfi109:
	.cfi_offset r12, -48
.Lcfi110:
	.cfi_offset r13, -40
.Lcfi111:
	.cfi_offset r14, -32
.Lcfi112:
	.cfi_offset r15, -24
	mov	r15, rcx
	mov	qword ptr [rbp - 280], rdx 
	mov	r14, rsi
	mov	r12, rdi
	mov	eax, dword ptr [rip + x.60]
	mov	ecx, eax
	neg	ecx
	not	ecx
	imul	ecx, eax
	not	ecx
	or	ecx, -2
	mov	r13d, -1
	cmp	ecx, r13d
	sete	byte ptr [rbp - 85]
	mov	eax, dword ptr [rip + y.61]
	cmp	eax, 10
	setl	byte ptr [rbp - 86]
	mov	eax, -270986393

	mov	qword ptr [rbp - 184], rcx 



	mov	qword ptr [rbp - 176], rcx 



	mov	qword ptr [rbp - 160], rcx 

	mov	qword ptr [rbp - 168], rcx 




	mov	qword ptr [rbp - 368], r15 
	mov	qword ptr [rbp - 360], r14 
	mov	qword ptr [rbp - 352], r12 
	jmp	.LBB14_1
.LBB14_3:                               
	cmp	eax, -1872196588
	jg	.LBB14_11

	cmp	eax, -1983202932
	je	.LBB14_47

	cmp	eax, -1965996249
	jne	.LBB14_1

	mov	eax, dword ptr [rbp - 108]
	movzx	ebx, al
	mov	eax, dword ptr [rip + x.64]
	mov	ecx, dword ptr [rip + y.65]
	lea	edx, [rax - 1]
	imul	edx, eax
	not	edx
	or	edx, -2
	cmp	edx, r13d
	sete	byte ptr [rbp - 41]
	cmp	ecx, 10
	setl	byte ptr [rbp - 42]
	mov	eax, -316881371
	jmp	.LBB14_7
.LBB14_9:                               
	cmp	eax, -622221325
	jne	.LBB14_7

	call	_ZN8CryptoPP10EnumToTypeINS_9ByteOrderELi0EE6ToEnumEv
	mov	dword ptr [rbp - 48], eax
	mov	eax, dword ptr [rip + x.64]
	lea	ecx, [rax - 1]
	imul	ecx, eax
	not	ecx
	or	ecx, -2
	cmp	ecx, r13d
	sete	cl
	mov	eax, 824315634
	mov	esi, -1717617973
	cmove	eax, esi
	cmp	dword ptr [rip + y.65], 10
	setl	dl
	mov	edi, 824315634
	cmovge	eax, edi
	xor	dl, cl
	cmovne	eax, esi
	jmp	.LBB14_7
.LBB14_65:                              
	cmp	eax, 824315634
	je	.LBB14_68

	cmp	eax, -316881371
	jne	.LBB14_7

	mov	cl, byte ptr [rbp - 41]
	mov	al, byte ptr [rbp - 42]
	mov	edx, ecx
	xor	dl, al
	test	al, al
	mov	eax, 824315634
	mov	esi, -622221325
	cmovne	eax, esi
	test	cl, cl
	mov	ecx, 824315634
	cmove	eax, ecx
	test	dl, dl
	cmovne	eax, esi
	jmp	.LBB14_7
.LBB14_68:                              
	call	_ZN8CryptoPP10EnumToTypeINS_9ByteOrderELi0EE6ToEnumEv
	mov	eax, -622221325
.LBB14_7:                               

	cmp	eax, -316881372
	jg	.LBB14_65

	cmp	eax, -1717617973
	jne	.LBB14_9

	movsxd	rax, dword ptr [rbp - 48]
	lea	rcx, [8*rax]
	sub	rcx, rax
	movzx	eax, byte ptr [rcx + 8*rbx + _ZN8CryptoPPL2TdE]
	mov	dword ptr [rbp - 244], eax 
	mov	r15d, dword ptr [rbp - 108]
	mov	eax, r15d
	shr	eax, 8
	mov	r14d, eax
	xor	r14d, 16776960
	and	r14d, eax
	mov	eax, dword ptr [rip + x.64]
	mov	ecx, dword ptr [rip + y.65]
	lea	edx, [rax - 1]
	imul	edx, eax
	not	edx
	or	edx, -2
	cmp	edx, r13d
	sete	byte ptr [rbp - 41]
	cmp	ecx, 10
	setl	byte ptr [rbp - 42]
	mov	ecx, -316881371
	jmp	.LBB14_70
.LBB14_72:                              
	cmp	ecx, -622221325
	jne	.LBB14_70

	call	_ZN8CryptoPP10EnumToTypeINS_9ByteOrderELi0EE6ToEnumEv
	mov	ecx, dword ptr [rip + x.64]
	mov	edi, dword ptr [rip + y.65]
	lea	esi, [rcx - 1]
	imul	esi, ecx
	mov	ecx, esi
	xor	ecx, -2
	and	ecx, esi
	sete	bl
	cmp	edi, 10
	setl	dl
	xor	dl, bl
	mov	edx, 824315634
	mov	esi, -1717617973
	cmovne	edx, esi
	test	ecx, ecx
	mov	ecx, edx
	cmove	ecx, esi
	cmp	edi, 10
	mov	dword ptr [rbp - 48], eax
	cmovge	ecx, edx
	jmp	.LBB14_70
.LBB14_74:                              
	cmp	ecx, 824315634
	je	.LBB14_77

	cmp	ecx, -316881371
	jne	.LBB14_70

	mov	al, byte ptr [rbp - 41]
	mov	cl, byte ptr [rbp - 42]
	mov	edx, eax
	xor	dl, cl
	mov	edx, 824315634
	mov	esi, -622221325
	cmovne	edx, esi
	test	cl, cl
	mov	ecx, edx
	cmovne	ecx, esi
	test	al, al
	cmove	ecx, edx
	jmp	.LBB14_70
.LBB14_77:                              
	call	_ZN8CryptoPP10EnumToTypeINS_9ByteOrderELi0EE6ToEnumEv
	mov	ecx, -622221325
.LBB14_70:                              

	cmp	ecx, -316881372
	jg	.LBB14_74

	cmp	ecx, -1717617973
	jne	.LBB14_72

	movsxd	rax, dword ptr [rbp - 48]
	lea	rcx, [8*rax]
	sub	rcx, rax
	movzx	eax, byte ptr [rcx + 8*r14 + _ZN8CryptoPPL2TdE]
	mov	dword ptr [rbp - 240], eax 
	mov	eax, r15d
	shr	eax, 16
	movzx	r14d, al
	mov	eax, dword ptr [rip + x.64]
	mov	ecx, dword ptr [rip + y.65]
	lea	edx, [rax - 1]
	imul	edx, eax
	not	edx
	or	edx, -2
	cmp	edx, r13d
	sete	byte ptr [rbp - 41]
	cmp	ecx, 10
	setl	byte ptr [rbp - 42]
	mov	ecx, -316881371
	jmp	.LBB14_79
.LBB14_81:                              
	cmp	ecx, -622221325
	jne	.LBB14_79

	call	_ZN8CryptoPP10EnumToTypeINS_9ByteOrderELi0EE6ToEnumEv
	mov	ecx, dword ptr [rip + x.64]
	mov	edi, dword ptr [rip + y.65]
	lea	esi, [rcx - 1]
	imul	esi, ecx
	mov	ecx, esi
	xor	ecx, -2
	and	ecx, esi
	sete	bl
	cmp	edi, 10
	setl	dl
	xor	dl, bl
	mov	edx, 824315634
	mov	esi, -1717617973
	cmovne	edx, esi
	test	ecx, ecx
	mov	ecx, edx
	cmove	ecx, esi
	cmp	edi, 10
	mov	dword ptr [rbp - 48], eax
	cmovge	ecx, edx
	jmp	.LBB14_79
.LBB14_83:                              
	cmp	ecx, 824315634
	je	.LBB14_86

	cmp	ecx, -316881371
	jne	.LBB14_79

	mov	al, byte ptr [rbp - 41]
	mov	cl, byte ptr [rbp - 42]
	mov	edx, eax
	xor	dl, cl
	test	cl, cl
	mov	ecx, 824315634
	mov	esi, -622221325
	cmovne	ecx, esi
	test	al, al
	mov	eax, 824315634
	cmove	ecx, eax
	test	dl, dl
	cmovne	ecx, esi
	jmp	.LBB14_79
.LBB14_86:                              
	call	_ZN8CryptoPP10EnumToTypeINS_9ByteOrderELi0EE6ToEnumEv
	mov	ecx, -622221325
.LBB14_79:                              

	cmp	ecx, -316881372
	jg	.LBB14_83

	cmp	ecx, -1717617973
	jne	.LBB14_81

	movsxd	rax, dword ptr [rbp - 48]
	lea	rcx, [8*rax]
	sub	rcx, rax
	movzx	r14d, byte ptr [rcx + 8*r14 + _ZN8CryptoPPL2TdE]
	shr	r15d, 24
	mov	eax, dword ptr [rip + x.64]
	mov	ecx, dword ptr [rip + y.65]
	lea	edx, [rax - 1]
	imul	edx, eax
	mov	eax, edx
	xor	eax, -2
	test	eax, edx
	sete	byte ptr [rbp - 41]
	cmp	ecx, 10
	setl	byte ptr [rbp - 42]
	mov	eax, -316881371
	jmp	.LBB14_88
.LBB14_90:                              
	cmp	eax, -622221325
	jne	.LBB14_88

	call	_ZN8CryptoPP10EnumToTypeINS_9ByteOrderELi0EE6ToEnumEv
	mov	dword ptr [rbp - 48], eax
	mov	eax, dword ptr [rip + x.64]
	lea	ecx, [rax - 1]
	imul	ecx, eax
	not	ecx
	or	ecx, -2
	cmp	ecx, r13d
	sete	cl
	mov	eax, 824315634
	mov	esi, -1717617973
	cmove	eax, esi
	cmp	dword ptr [rip + y.65], 10
	setl	dl
	mov	edi, 824315634
	cmovge	eax, edi
	xor	dl, cl
	cmovne	eax, esi
	jmp	.LBB14_88
.LBB14_92:                              
	cmp	eax, 824315634
	je	.LBB14_95

	cmp	eax, -316881371
	jne	.LBB14_88

	mov	cl, byte ptr [rbp - 41]
	mov	al, byte ptr [rbp - 42]
	mov	edx, ecx
	xor	dl, al
	mov	edx, 824315634
	mov	esi, -622221325
	cmovne	edx, esi
	test	al, al
	mov	eax, edx
	cmovne	eax, esi
	test	cl, cl
	cmove	eax, edx
	jmp	.LBB14_88
.LBB14_95:                              
	call	_ZN8CryptoPP10EnumToTypeINS_9ByteOrderELi0EE6ToEnumEv
	mov	eax, -622221325
.LBB14_88:                              

	cmp	eax, -316881372
	jg	.LBB14_92

	cmp	eax, -1717617973
	jne	.LBB14_90

	movsxd	rax, dword ptr [rbp - 48]
	lea	rcx, [8*rax]
	sub	rcx, rax
	movzx	eax, byte ptr [rcx + 8*r15 + _ZN8CryptoPPL2TdE]
	mov	dword ptr [rbp - 236], eax 
	mov	eax, dword ptr [rbp - 112]
	movzx	ebx, al
	mov	eax, dword ptr [rip + x.64]
	mov	ecx, dword ptr [rip + y.65]
	lea	edx, [rax - 1]
	imul	edx, eax
	mov	eax, edx
	xor	eax, -2
	test	eax, edx
	sete	byte ptr [rbp - 41]
	cmp	ecx, 10
	setl	byte ptr [rbp - 42]
	mov	eax, -316881371
	jmp	.LBB14_97
.LBB14_99:                              
	cmp	eax, -622221325
	jne	.LBB14_97

	call	_ZN8CryptoPP10EnumToTypeINS_9ByteOrderELi0EE6ToEnumEv
	mov	dword ptr [rbp - 48], eax
	mov	eax, dword ptr [rip + x.64]
	lea	ecx, [rax - 1]
	imul	ecx, eax
	not	ecx
	or	ecx, -2
	cmp	ecx, r13d
	sete	cl
	mov	eax, 824315634
	mov	esi, -1717617973
	cmove	eax, esi
	cmp	dword ptr [rip + y.65], 10
	setl	dl
	mov	edi, 824315634
	cmovge	eax, edi
	xor	dl, cl
	cmovne	eax, esi
	jmp	.LBB14_97
.LBB14_101:                             
	cmp	eax, 824315634
	je	.LBB14_104

	cmp	eax, -316881371
	jne	.LBB14_97

	mov	cl, byte ptr [rbp - 41]
	mov	al, byte ptr [rbp - 42]
	mov	edx, ecx
	xor	dl, al
	test	al, al
	mov	eax, 824315634
	mov	esi, -622221325
	cmovne	eax, esi
	test	cl, cl
	mov	ecx, 824315634
	cmove	eax, ecx
	test	dl, dl
	cmovne	eax, esi
	jmp	.LBB14_97
.LBB14_104:                             
	call	_ZN8CryptoPP10EnumToTypeINS_9ByteOrderELi0EE6ToEnumEv
	mov	eax, -622221325
.LBB14_97:                              

	cmp	eax, -316881372
	jg	.LBB14_101

	cmp	eax, -1717617973
	jne	.LBB14_99

	movsxd	rax, dword ptr [rbp - 48]
	lea	rcx, [8*rax]
	sub	rcx, rax
	movzx	eax, byte ptr [rcx + 8*rbx + _ZN8CryptoPPL2TdE]
	mov	dword ptr [rbp - 232], eax 
	mov	eax, dword ptr [rbp - 112]
	mov	esi, -1
	mov	r13, rax
	movzx	ebx, ah  
	mov	eax, dword ptr [rip + x.64]
	mov	ecx, dword ptr [rip + y.65]
	mov	edx, eax
	neg	edx
	not	edx
	imul	edx, eax
	not	edx
	or	edx, -2
	mov	r15d, -1
	cmp	edx, esi
	sete	byte ptr [rbp - 41]
	cmp	ecx, 10
	setl	byte ptr [rbp - 42]
	mov	eax, -316881371
	jmp	.LBB14_106
.LBB14_108:                             
	cmp	eax, -622221325
	jne	.LBB14_106

	call	_ZN8CryptoPP10EnumToTypeINS_9ByteOrderELi0EE6ToEnumEv
	mov	dword ptr [rbp - 48], eax
	mov	eax, dword ptr [rip + x.64]
	lea	ecx, [rax - 1]
	imul	ecx, eax
	not	ecx
	or	ecx, -2
	cmp	ecx, r15d
	sete	cl
	mov	eax, 824315634
	mov	esi, -1717617973
	cmove	eax, esi
	cmp	dword ptr [rip + y.65], 10
	setl	dl
	mov	edi, 824315634
	cmovge	eax, edi
	xor	dl, cl
	cmovne	eax, esi
	jmp	.LBB14_106
.LBB14_110:                             
	cmp	eax, 824315634
	je	.LBB14_113

	cmp	eax, -316881371
	jne	.LBB14_106

	mov	cl, byte ptr [rbp - 41]
	mov	al, byte ptr [rbp - 42]
	mov	edx, ecx
	xor	dl, al
	test	al, al
	mov	eax, 824315634
	mov	esi, -622221325
	cmovne	eax, esi
	test	cl, cl
	mov	ecx, 824315634
	cmove	eax, ecx
	test	dl, dl
	cmovne	eax, esi
	jmp	.LBB14_106
.LBB14_113:                             
	call	_ZN8CryptoPP10EnumToTypeINS_9ByteOrderELi0EE6ToEnumEv
	mov	eax, -622221325
.LBB14_106:                             

	cmp	eax, -316881372
	jg	.LBB14_110

	cmp	eax, -1717617973
	jne	.LBB14_108

	movsxd	rax, dword ptr [rbp - 48]
	lea	rcx, [8*rax]
	sub	rcx, rax
	movzx	r12d, byte ptr [rcx + 8*rbx + _ZN8CryptoPPL2TdE]
	shl	r12d, 16
	mov	rbx, r13
	mov	eax, ebx
	shr	eax, 16
	mov	r15d, eax
	xor	r15d, 65280
	and	r15d, eax
	mov	eax, dword ptr [rip + x.64]
	mov	ecx, dword ptr [rip + y.65]
	lea	edx, [rax - 1]
	imul	edx, eax
	mov	eax, edx
	xor	eax, -2
	test	eax, edx
	sete	byte ptr [rbp - 41]
	cmp	ecx, 10
	setl	byte ptr [rbp - 42]
	mov	ecx, -316881371
	jmp	.LBB14_115
.LBB14_117:                             
	cmp	ecx, -622221325
	jne	.LBB14_115

	call	_ZN8CryptoPP10EnumToTypeINS_9ByteOrderELi0EE6ToEnumEv
	mov	ecx, dword ptr [rip + x.64]
	mov	edx, dword ptr [rip + y.65]
	lea	esi, [rcx - 1]
	imul	esi, ecx
	not	esi
	or	esi, -2
	mov	r8d, -1
	cmp	esi, r8d
	sete	cl
	cmp	edx, 10
	setl	bl
	xor	bl, cl
	mov	edi, 824315634
	mov	ebx, -1717617973
	cmovne	edi, ebx
	cmp	esi, r8d
	mov	ecx, edi
	cmove	ecx, ebx
	mov	rbx, r13
	cmp	edx, 10
	mov	dword ptr [rbp - 48], eax
	cmovge	ecx, edi
	jmp	.LBB14_115
.LBB14_119:                             
	cmp	ecx, 824315634
	je	.LBB14_122

	cmp	ecx, -316881371
	jne	.LBB14_115

	mov	al, byte ptr [rbp - 41]
	mov	cl, byte ptr [rbp - 42]
	mov	edx, eax
	xor	dl, cl
	mov	edx, 824315634
	mov	esi, -622221325
	cmovne	edx, esi
	test	cl, cl
	mov	ecx, edx
	cmovne	ecx, esi
	test	al, al
	cmove	ecx, edx
	jmp	.LBB14_115
.LBB14_122:                             
	call	_ZN8CryptoPP10EnumToTypeINS_9ByteOrderELi0EE6ToEnumEv
	mov	ecx, -622221325
.LBB14_115:                             

	cmp	ecx, -316881372
	jg	.LBB14_119

	cmp	ecx, -1717617973
	jne	.LBB14_117

	shl	r14d, 8
	movsxd	rax, dword ptr [rbp - 48]
	lea	rcx, [8*rax]
	sub	rcx, rax
	movzx	eax, byte ptr [rcx + 8*r15 + _ZN8CryptoPPL2TdE]
	mov	dword ptr [rbp - 228], eax 
	shr	ebx, 24
	mov	eax, dword ptr [rip + x.64]
	mov	ecx, dword ptr [rip + y.65]
	lea	edx, [rax - 1]
	imul	edx, eax
	not	edx
	or	edx, -2
	mov	r15d, -1
	cmp	edx, r15d
	sete	byte ptr [rbp - 41]
	cmp	ecx, 10
	setl	byte ptr [rbp - 42]
	mov	eax, -316881371
	jmp	.LBB14_124
.LBB14_126:                             
	cmp	eax, -622221325
	jne	.LBB14_124

	call	_ZN8CryptoPP10EnumToTypeINS_9ByteOrderELi0EE6ToEnumEv
	mov	dword ptr [rbp - 48], eax
	mov	eax, dword ptr [rip + x.64]
	lea	ecx, [rax - 1]
	imul	ecx, eax
	mov	eax, ecx
	xor	eax, -2
	and	eax, ecx
	sete	cl
	test	eax, eax
	mov	eax, 824315634
	mov	esi, -1717617973
	cmove	eax, esi
	cmp	dword ptr [rip + y.65], 10
	setl	dl
	mov	edi, 824315634
	cmovge	eax, edi
	xor	dl, cl
	cmovne	eax, esi
	jmp	.LBB14_124
.LBB14_128:                             
	cmp	eax, 824315634
	je	.LBB14_131

	cmp	eax, -316881371
	jne	.LBB14_124

	mov	cl, byte ptr [rbp - 41]
	mov	al, byte ptr [rbp - 42]
	mov	edx, ecx
	xor	dl, al
	test	al, al
	mov	eax, 824315634
	mov	esi, -622221325
	cmovne	eax, esi
	test	cl, cl
	mov	ecx, 824315634
	cmove	eax, ecx
	test	dl, dl
	cmovne	eax, esi
	jmp	.LBB14_124
.LBB14_131:                             
	call	_ZN8CryptoPP10EnumToTypeINS_9ByteOrderELi0EE6ToEnumEv
	mov	eax, -622221325
.LBB14_124:                             

	cmp	eax, -316881372
	jg	.LBB14_128

	cmp	eax, -1717617973
	jne	.LBB14_126

	movsxd	rax, dword ptr [rbp - 48]
	lea	rcx, [8*rax]
	sub	rcx, rax
	movzx	eax, byte ptr [rcx + 8*rbx + _ZN8CryptoPPL2TdE]
	mov	dword ptr [rbp - 224], eax 
	mov	eax, dword ptr [rbp - 116]
	mov	ebx, eax
	xor	ebx, -256
	and	ebx, eax
	mov	eax, dword ptr [rip + x.64]
	mov	ecx, dword ptr [rip + y.65]
	lea	edx, [rax - 1]
	imul	edx, eax
	not	edx
	or	edx, -2
	cmp	edx, r15d
	sete	byte ptr [rbp - 41]
	cmp	ecx, 10
	setl	byte ptr [rbp - 42]
	mov	eax, -316881371
	jmp	.LBB14_133
.LBB14_135:                             
	cmp	eax, -622221325
	jne	.LBB14_133

	call	_ZN8CryptoPP10EnumToTypeINS_9ByteOrderELi0EE6ToEnumEv
	mov	dword ptr [rbp - 48], eax
	mov	eax, dword ptr [rip + x.64]
	lea	ecx, [rax - 1]
	imul	ecx, eax
	mov	eax, ecx
	xor	eax, -2
	and	eax, ecx
	sete	cl
	test	eax, eax
	mov	eax, 824315634
	mov	esi, -1717617973
	cmove	eax, esi
	cmp	dword ptr [rip + y.65], 10
	setl	dl
	mov	edi, 824315634
	cmovge	eax, edi
	xor	dl, cl
	cmovne	eax, esi
	jmp	.LBB14_133
.LBB14_137:                             
	cmp	eax, 824315634
	je	.LBB14_140

	cmp	eax, -316881371
	jne	.LBB14_133

	mov	cl, byte ptr [rbp - 41]
	mov	al, byte ptr [rbp - 42]
	mov	edx, ecx
	xor	dl, al
	test	al, al
	mov	eax, 824315634
	mov	esi, -622221325
	cmovne	eax, esi
	test	cl, cl
	mov	ecx, 824315634
	cmove	eax, ecx
	test	dl, dl
	cmovne	eax, esi
	jmp	.LBB14_133
.LBB14_140:                             
	call	_ZN8CryptoPP10EnumToTypeINS_9ByteOrderELi0EE6ToEnumEv
	mov	eax, -622221325
.LBB14_133:                             

	cmp	eax, -316881372
	jg	.LBB14_137

	cmp	eax, -1717617973
	jne	.LBB14_135

	mov	r15d, -1
	movsxd	rax, dword ptr [rbp - 48]
	lea	rcx, [8*rax]
	sub	rcx, rax
	movzx	eax, byte ptr [rcx + 8*rbx + _ZN8CryptoPPL2TdE]
	shl	eax, 24
	mov	dword ptr [rbp - 216], eax 
	mov	ebx, dword ptr [rbp - 116]
	movzx	eax, bh  
	mov	r13, rax
	mov	eax, dword ptr [rip + x.64]
	mov	ecx, dword ptr [rip + y.65]
	lea	edx, [rax - 1]
	imul	edx, eax
	mov	eax, edx
	xor	eax, -2
	test	eax, edx
	sete	byte ptr [rbp - 41]
	cmp	ecx, 10
	setl	byte ptr [rbp - 42]
	mov	eax, -316881371
	jmp	.LBB14_142
.LBB14_144:                             
	cmp	eax, -622221325
	jne	.LBB14_142

	call	_ZN8CryptoPP10EnumToTypeINS_9ByteOrderELi0EE6ToEnumEv
	mov	dword ptr [rbp - 48], eax
	mov	eax, dword ptr [rip + x.64]
	mov	ecx, eax
	neg	ecx
	not	ecx
	imul	ecx, eax
	not	ecx
	or	ecx, -2
	cmp	ecx, r15d
	sete	cl
	mov	eax, 824315634
	mov	esi, -1717617973
	cmove	eax, esi
	cmp	dword ptr [rip + y.65], 10
	setl	dl
	mov	edi, 824315634
	cmovge	eax, edi
	xor	dl, cl
	cmovne	eax, esi
	jmp	.LBB14_142
.LBB14_146:                             
	cmp	eax, 824315634
	je	.LBB14_149

	cmp	eax, -316881371
	jne	.LBB14_142

	mov	cl, byte ptr [rbp - 41]
	mov	al, byte ptr [rbp - 42]
	mov	edx, ecx
	xor	dl, al
	test	al, al
	mov	eax, 824315634
	mov	esi, -622221325
	cmovne	eax, esi
	test	cl, cl
	mov	ecx, 824315634
	cmove	eax, ecx
	test	dl, dl
	cmovne	eax, esi
	jmp	.LBB14_142
.LBB14_149:                             
	call	_ZN8CryptoPP10EnumToTypeINS_9ByteOrderELi0EE6ToEnumEv
	mov	eax, -622221325
.LBB14_142:                             

	cmp	eax, -316881372
	jg	.LBB14_146

	cmp	eax, -1717617973
	jne	.LBB14_144

	mov	r15d, r12d
	not	r15d
	mov	eax, r14d
	not	eax
	mov	ecx, r15d
	and	ecx, 1025552917
	and	r12d, -1025552918
	or	r12d, ecx
	or	r15d, eax
	and	eax, 1025552917
	and	r14d, 19946
	or	r14d, eax
	xor	r14d, r12d
	not	r15d
	or	r15d, r14d
	movsxd	rax, dword ptr [rbp - 48]
	lea	rcx, [8*rax]
	sub	rcx, rax
	movzx	eax, byte ptr [rcx + 8*r13 + _ZN8CryptoPPL2TdE]
	mov	dword ptr [rbp - 220], eax 
	mov	r14, rbx
	mov	eax, ebx
	shr	eax, 16
	movzx	ebx, al
	mov	eax, dword ptr [rip + x.64]
	mov	ecx, dword ptr [rip + y.65]
	lea	edx, [rax - 1]
	imul	edx, eax
	not	edx
	or	edx, -2
	mov	r12d, -1
	cmp	edx, r12d
	sete	byte ptr [rbp - 41]
	cmp	ecx, 10
	setl	byte ptr [rbp - 42]
	mov	eax, -316881371
	jmp	.LBB14_151
.LBB14_153:                             
	cmp	eax, -622221325
	jne	.LBB14_151

	call	_ZN8CryptoPP10EnumToTypeINS_9ByteOrderELi0EE6ToEnumEv
	mov	dword ptr [rbp - 48], eax
	mov	eax, dword ptr [rip + x.64]
	lea	ecx, [rax - 1]
	imul	ecx, eax
	not	ecx
	or	ecx, -2
	cmp	ecx, r12d
	sete	cl
	mov	eax, 824315634
	mov	esi, -1717617973
	cmove	eax, esi
	cmp	dword ptr [rip + y.65], 10
	setl	dl
	mov	edi, 824315634
	cmovge	eax, edi
	xor	dl, cl
	cmovne	eax, esi
	jmp	.LBB14_151
.LBB14_155:                             
	cmp	eax, 824315634
	je	.LBB14_158

	cmp	eax, -316881371
	jne	.LBB14_151

	mov	cl, byte ptr [rbp - 41]
	mov	al, byte ptr [rbp - 42]
	mov	edx, ecx
	xor	dl, al
	test	al, al
	mov	eax, 824315634
	mov	esi, -622221325
	cmovne	eax, esi
	test	cl, cl
	mov	ecx, 824315634
	cmove	eax, ecx
	test	dl, dl
	cmovne	eax, esi
	jmp	.LBB14_151
.LBB14_158:                             
	call	_ZN8CryptoPP10EnumToTypeINS_9ByteOrderELi0EE6ToEnumEv
	mov	eax, -622221325
.LBB14_151:                             

	cmp	eax, -316881372
	jg	.LBB14_155

	cmp	eax, -1717617973
	jne	.LBB14_153

	movsxd	rax, dword ptr [rbp - 48]
	lea	rcx, [8*rax]
	sub	rcx, rax
	movzx	eax, byte ptr [rcx + 8*rbx + _ZN8CryptoPPL2TdE]
	mov	dword ptr [rbp - 212], eax 
	shr	r14d, 24
	mov	eax, dword ptr [rip + x.64]
	mov	ecx, dword ptr [rip + y.65]
	lea	edx, [rax - 1]
	imul	edx, eax
	not	edx
	or	edx, -2
	cmp	edx, r12d
	sete	byte ptr [rbp - 41]
	cmp	ecx, 10
	setl	byte ptr [rbp - 42]
	mov	eax, -316881371
	jmp	.LBB14_160
.LBB14_162:                             
	cmp	eax, -622221325
	jne	.LBB14_160

	call	_ZN8CryptoPP10EnumToTypeINS_9ByteOrderELi0EE6ToEnumEv
	mov	dword ptr [rbp - 48], eax
	mov	eax, dword ptr [rip + x.64]
	lea	ecx, [rax - 1]
	imul	ecx, eax
	mov	eax, ecx
	xor	eax, -2
	and	eax, ecx
	sete	cl
	test	eax, eax
	mov	eax, 824315634
	mov	esi, -1717617973
	cmove	eax, esi
	cmp	dword ptr [rip + y.65], 10
	setl	dl
	mov	edi, 824315634
	cmovge	eax, edi
	xor	dl, cl
	cmovne	eax, esi
	jmp	.LBB14_160
.LBB14_164:                             
	cmp	eax, 824315634
	je	.LBB14_167

	cmp	eax, -316881371
	jne	.LBB14_160

	mov	cl, byte ptr [rbp - 41]
	mov	al, byte ptr [rbp - 42]
	mov	edx, ecx
	xor	dl, al
	mov	edx, 824315634
	mov	esi, -622221325
	cmovne	edx, esi
	test	al, al
	mov	eax, edx
	cmovne	eax, esi
	test	cl, cl
	cmove	eax, edx
	jmp	.LBB14_160
.LBB14_167:                             
	call	_ZN8CryptoPP10EnumToTypeINS_9ByteOrderELi0EE6ToEnumEv
	mov	eax, -622221325
.LBB14_160:                             

	cmp	eax, -316881372
	jg	.LBB14_164

	cmp	eax, -1717617973
	jne	.LBB14_162

	movsxd	rax, dword ptr [rbp - 48]
	lea	rcx, [8*rax]
	sub	rcx, rax
	movzx	eax, byte ptr [rcx + 8*r14 + _ZN8CryptoPPL2TdE]
	mov	dword ptr [rbp - 204], eax 
	mov	eax, dword ptr [rbp - 104]
	movzx	r14d, al
	mov	eax, dword ptr [rip + x.64]
	mov	ecx, dword ptr [rip + y.65]
	lea	edx, [rax - 1]
	imul	edx, eax
	mov	eax, edx
	xor	eax, -2
	test	eax, edx
	sete	byte ptr [rbp - 41]
	cmp	ecx, 10
	setl	byte ptr [rbp - 42]
	mov	ecx, -316881371
	jmp	.LBB14_169
.LBB14_171:                             
	cmp	ecx, -622221325
	jne	.LBB14_169

	call	_ZN8CryptoPP10EnumToTypeINS_9ByteOrderELi0EE6ToEnumEv
	mov	ecx, dword ptr [rip + x.64]
	mov	edi, dword ptr [rip + y.65]
	mov	esi, ecx
	neg	esi
	not	esi
	imul	esi, ecx
	mov	ecx, esi
	xor	ecx, -2
	and	ecx, esi
	sete	bl
	cmp	edi, 10
	setl	dl
	xor	dl, bl
	mov	edx, 824315634
	mov	esi, -1717617973
	cmovne	edx, esi
	test	ecx, ecx
	mov	ecx, edx
	cmove	ecx, esi
	cmp	edi, 10
	mov	dword ptr [rbp - 48], eax
	cmovge	ecx, edx
	jmp	.LBB14_169
.LBB14_173:                             
	cmp	ecx, 824315634
	je	.LBB14_176

	cmp	ecx, -316881371
	jne	.LBB14_169

	mov	al, byte ptr [rbp - 41]
	mov	cl, byte ptr [rbp - 42]
	mov	edx, eax
	xor	dl, cl
	test	cl, cl
	mov	ecx, 824315634
	mov	esi, -622221325
	cmovne	ecx, esi
	test	al, al
	mov	eax, 824315634
	cmove	ecx, eax
	test	dl, dl
	cmovne	ecx, esi
	jmp	.LBB14_169
.LBB14_176:                             
	call	_ZN8CryptoPP10EnumToTypeINS_9ByteOrderELi0EE6ToEnumEv
	mov	ecx, -622221325
.LBB14_169:                             

	cmp	ecx, -316881372
	jg	.LBB14_173

	cmp	ecx, -1717617973
	jne	.LBB14_171

	movsxd	rax, dword ptr [rbp - 48]
	lea	rcx, [8*rax]
	sub	rcx, rax
	movzx	eax, byte ptr [rcx + 8*r14 + _ZN8CryptoPPL2TdE]
	mov	dword ptr [rbp - 208], eax 
	mov	eax, dword ptr [rbp - 104]
	mov	qword ptr [rbp - 152], rax 
	movzx	ebx, ah  
	mov	eax, dword ptr [rip + x.64]
	mov	ecx, dword ptr [rip + y.65]
	lea	edx, [rax - 1]
	imul	edx, eax
	not	edx
	or	edx, -2
	cmp	edx, r12d
	sete	byte ptr [rbp - 41]
	cmp	ecx, 10
	setl	byte ptr [rbp - 42]
	mov	eax, -316881371
	jmp	.LBB14_178
.LBB14_180:                             
	cmp	eax, -622221325
	jne	.LBB14_178

	call	_ZN8CryptoPP10EnumToTypeINS_9ByteOrderELi0EE6ToEnumEv
	mov	dword ptr [rbp - 48], eax
	mov	eax, dword ptr [rip + x.64]
	lea	ecx, [rax - 1]
	imul	ecx, eax
	mov	eax, ecx
	xor	eax, -2
	and	eax, ecx
	sete	cl
	test	eax, eax
	mov	eax, 824315634
	mov	esi, -1717617973
	cmove	eax, esi
	cmp	dword ptr [rip + y.65], 10
	setl	dl
	mov	edi, 824315634
	cmovge	eax, edi
	xor	dl, cl
	cmovne	eax, esi
	jmp	.LBB14_178
.LBB14_182:                             
	cmp	eax, 824315634
	je	.LBB14_185

	cmp	eax, -316881371
	jne	.LBB14_178

	mov	cl, byte ptr [rbp - 41]
	mov	al, byte ptr [rbp - 42]
	mov	edx, ecx
	xor	dl, al
	mov	edx, 824315634
	mov	esi, -622221325
	cmovne	edx, esi
	test	al, al
	mov	eax, edx
	cmovne	eax, esi
	test	cl, cl
	cmove	eax, edx
	jmp	.LBB14_178
.LBB14_185:                             
	call	_ZN8CryptoPP10EnumToTypeINS_9ByteOrderELi0EE6ToEnumEv
	mov	eax, -622221325
.LBB14_178:                             

	cmp	eax, -316881372
	jg	.LBB14_182

	cmp	eax, -1717617973
	jne	.LBB14_180

	movsxd	rax, dword ptr [rbp - 48]
	lea	rcx, [8*rax]
	sub	rcx, rax
	mov	esi, -1
	movzx	r13d, byte ptr [rcx + 8*rbx + _ZN8CryptoPPL2TdE]
	mov	rax, qword ptr [rbp - 152] 

	shr	eax, 16
	mov	r14d, eax
	xor	r14d, 65280
	and	r14d, eax
	mov	eax, dword ptr [rip + x.64]
	mov	ecx, dword ptr [rip + y.65]
	lea	edx, [rax - 1]
	imul	edx, eax
	not	edx
	or	edx, -2
	cmp	edx, esi
	sete	byte ptr [rbp - 41]
	cmp	ecx, 10
	setl	byte ptr [rbp - 42]
	mov	ecx, -316881371
	jmp	.LBB14_187
.LBB14_189:                             
	cmp	ecx, -622221325
	jne	.LBB14_187

	call	_ZN8CryptoPP10EnumToTypeINS_9ByteOrderELi0EE6ToEnumEv
	mov	ecx, dword ptr [rip + x.64]
	mov	edi, dword ptr [rip + y.65]
	lea	esi, [rcx - 1]
	imul	esi, ecx
	mov	ecx, esi
	xor	ecx, -2
	and	ecx, esi
	sete	bl
	cmp	edi, 10
	setl	dl
	xor	dl, bl
	mov	edx, 824315634
	mov	esi, -1717617973
	cmovne	edx, esi
	test	ecx, ecx
	mov	ecx, edx
	cmove	ecx, esi
	cmp	edi, 10
	mov	dword ptr [rbp - 48], eax
	cmovge	ecx, edx
	jmp	.LBB14_187
.LBB14_191:                             
	cmp	ecx, 824315634
	je	.LBB14_194

	cmp	ecx, -316881371
	jne	.LBB14_187

	mov	al, byte ptr [rbp - 41]
	mov	cl, byte ptr [rbp - 42]
	mov	edx, eax
	xor	dl, cl
	test	cl, cl
	mov	ecx, 824315634
	mov	esi, -622221325
	cmovne	ecx, esi
	test	al, al
	mov	eax, 824315634
	cmove	ecx, eax
	test	dl, dl
	cmovne	ecx, esi
	jmp	.LBB14_187
.LBB14_194:                             
	call	_ZN8CryptoPP10EnumToTypeINS_9ByteOrderELi0EE6ToEnumEv
	mov	ecx, -622221325
.LBB14_187:                             

	cmp	ecx, -316881372
	jg	.LBB14_191

	cmp	ecx, -1717617973
	jne	.LBB14_189

	movsxd	rax, dword ptr [rbp - 48]
	lea	rcx, [8*rax]
	sub	rcx, rax
	movzx	r12d, byte ptr [rcx + 8*r14 + _ZN8CryptoPPL2TdE]
	mov	rax, qword ptr [rbp - 152] 
	shr	eax, 24
	mov	qword ptr [rbp - 152], rax 
	mov	eax, dword ptr [rip + x.64]
	mov	ecx, dword ptr [rip + y.65]
	mov	edx, eax
	neg	edx
	not	edx
	imul	edx, eax
	not	edx
	or	edx, -2
	mov	eax, -1
	cmp	edx, eax
	sete	byte ptr [rbp - 41]
	cmp	ecx, 10
	setl	byte ptr [rbp - 42]
	mov	ecx, -316881371
	jmp	.LBB14_196
.LBB14_198:                             
	cmp	ecx, -622221325
	jne	.LBB14_196

	call	_ZN8CryptoPP10EnumToTypeINS_9ByteOrderELi0EE6ToEnumEv
	mov	ecx, dword ptr [rip + x.64]
	mov	edx, dword ptr [rip + y.65]
	lea	esi, [rcx - 1]
	imul	esi, ecx
	not	esi
	or	esi, -2
	mov	r8d, -1
	cmp	esi, r8d
	sete	cl
	cmp	edx, 10
	setl	bl
	xor	bl, cl
	mov	edi, 824315634
	mov	ebx, -1717617973
	cmovne	edi, ebx
	cmp	esi, r8d
	mov	ecx, edi
	cmove	ecx, ebx
	cmp	edx, 10
	mov	dword ptr [rbp - 48], eax
	cmovge	ecx, edi
	jmp	.LBB14_196
.LBB14_200:                             
	cmp	ecx, 824315634
	je	.LBB14_203

	cmp	ecx, -316881371
	jne	.LBB14_196

	mov	al, byte ptr [rbp - 41]
	mov	cl, byte ptr [rbp - 42]
	mov	edx, eax
	xor	dl, cl
	mov	edx, 824315634
	mov	esi, -622221325
	cmovne	edx, esi
	test	cl, cl
	mov	ecx, edx
	cmovne	ecx, esi
	test	al, al
	cmove	ecx, edx
	jmp	.LBB14_196
.LBB14_203:                             
	call	_ZN8CryptoPP10EnumToTypeINS_9ByteOrderELi0EE6ToEnumEv
	mov	ecx, -622221325
.LBB14_196:                             

	cmp	ecx, -316881372
	jg	.LBB14_200

	cmp	ecx, -1717617973
	jne	.LBB14_198

	mov	r14d, r15d
	not	r14d
	mov	edx, dword ptr [rbp - 216] 
	mov	eax, edx
	not	eax
	mov	ecx, r14d
	and	ecx, -2086667133
	and	r15d, 2086667132
	or	r15d, ecx
	or	r14d, eax
	and	eax, -2086667133
	and	edx, 2086667132
	or	edx, eax
	xor	edx, r15d
	not	r14d
	or	r14d, edx
	movsxd	rax, dword ptr [rbp - 48]
	lea	rcx, [8*rax]
	sub	rcx, rax
	mov	rax, qword ptr [rbp - 152] 
	movzx	eax, byte ptr [rcx + 8*rax + _ZN8CryptoPPL2TdE]
	mov	ecx, r14d
	and	ecx, eax
	xor	r14d, eax
	or	r14d, ecx
	mov	rax, qword ptr [rbp - 304]
	mov	rcx, qword ptr [rbp - 280] 
	mov	qword ptr [rax], rcx
	mov	r15, qword ptr [rbp - 368] 
	mov	qword ptr [rax + 8], r15
	mov	esi, dword ptr [rbp - 232] 
	shl	esi, 24
	mov	edx, dword ptr [rbp - 240] 
	shl	edx, 16
	mov	eax, esi
	not	eax
	mov	ecx, edx
	not	ecx
	and	eax, -1776966998
	and	esi, 1761607680
	or	esi, eax
	and	ecx, -1776966998
	and	edx, 15335424
	or	edx, ecx
	xor	edx, esi
	add	edx, dword ptr [rbp - 204] 
	shl	r12d, 8
	mov	esi, edx
	not	esi
	mov	eax, r12d
	not	eax
	mov	ecx, esi
	and	ecx, 1963574287
	and	edx, -1963589392
	or	edx, ecx
	or	esi, eax
	and	eax, 1963574287
	and	r12d, 15104
	or	r12d, eax
	xor	r12d, edx
	not	esi
	or	esi, r12d
	mov	rax, qword ptr [rbp - 136]
	mov	eax, dword ptr [rax]
	mov	ecx, eax
	not	ecx
	and	ecx, 1938627869
	and	eax, -1938627870
	or	eax, ecx
	mov	ecx, esi
	not	ecx
	and	ecx, 1938627869
	and	esi, -1938627870
	or	esi, ecx
	xor	esi, eax
	mov	rdi, qword ptr [rbp - 304]
	call	_ZN8CryptoPP8PutBlockIjNS_10EnumToTypeINS_9ByteOrderELi0EEELb0EEclIjEERS4_T_
	mov	esi, dword ptr [rbp - 244] 
	shl	esi, 24
	shl	r13d, 16
	mov	ebx, dword ptr [rbp - 212] 
	shl	ebx, 8
	mov	ecx, esi
	not	ecx
	mov	edi, dword ptr [rbp - 224] 
	mov	edx, edi
	not	edx
	and	ecx, 871369997
	and	esi, -872415232
	or	esi, ecx
	and	edx, 871369997
	and	edi, 242
	or	edi, edx
	xor	edi, esi
	mov	ecx, edi
	not	ecx
	mov	edx, ebx
	not	edx
	mov	esi, ecx
	and	esi, 937916961
	and	edi, -939523874
	or	edi, esi
	or	ecx, edx
	and	edx, 937916961
	and	ebx, 34048
	or	ebx, edx
	xor	ebx, edi
	not	ecx
	or	ecx, ebx
	mov	esi, ecx
	not	esi
	mov	edx, r13d
	not	edx
	mov	edi, esi
	and	edi, -1009711736
	and	ecx, 1009187447
	or	ecx, edi
	or	esi, edx
	and	edx, -1009711736
	and	r13d, 3014656
	or	r13d, edx
	xor	r13d, ecx
	not	esi
	or	esi, r13d
	mov	rcx, qword ptr [rbp - 136]
	mov	ecx, dword ptr [rcx + 4]
	mov	edx, ecx
	not	edx
	and	edx, esi
	not	esi
	and	esi, ecx
	or	esi, edx
	mov	rdi, rax
	call	_ZN8CryptoPP8PutBlockIjNS_10EnumToTypeINS_9ByteOrderELi0EEELb0EEclIjEERS4_T_
	mov	edx, dword ptr [rbp - 208] 
	shl	edx, 24
	mov	ecx, dword ptr [rbp - 220] 
	shl	ecx, 16
	mov	esi, dword ptr [rbp - 228] 
	shl	esi, 8
	add	esi, dword ptr [rbp - 236] 
	or	esi, ecx
	or	esi, edx
	mov	rcx, qword ptr [rbp - 136]
	mov	ecx, dword ptr [rcx + 8]
	mov	edx, ecx
	not	edx
	and	edx, -311644789
	and	ecx, 311644788
	or	ecx, edx
	mov	edx, esi
	not	edx
	and	edx, -311644789
	and	esi, 311644788
	or	esi, edx
	xor	esi, ecx
	mov	rdi, rax
	call	_ZN8CryptoPP8PutBlockIjNS_10EnumToTypeINS_9ByteOrderELi0EEELb0EEclIjEERS4_T_
	mov	rcx, qword ptr [rbp - 136]
	mov	ecx, dword ptr [rcx + 12]
	mov	edx, ecx
	not	edx
	and	edx, -1759005201
	and	ecx, 1759005200
	or	ecx, edx
	mov	edx, r14d
	not	edx
	and	edx, -1759005201
	and	r14d, 1759005200
	or	r14d, edx
	xor	r14d, ecx
	mov	rdi, rax
	mov	esi, r14d
	call	_ZN8CryptoPP8PutBlockIjNS_10EnumToTypeINS_9ByteOrderELi0EEELb0EEclIjEERS4_T_
	mov	rax, qword ptr [rbp - 344]
	mov	rax, qword ptr [rbp - 336]
	mov	rax, qword ptr [rbp - 328]
	mov	rax, qword ptr [rbp - 320]
	mov	rax, qword ptr [rbp - 312]
	mov	eax, -1545280708
	mov	r14, qword ptr [rbp - 360] 
	mov	r12, qword ptr [rbp - 352] 
	mov	r13d, -1
	jmp	.LBB14_1
.LBB14_24:                              
	cmp	eax, -303972850
	jg	.LBB14_28

	cmp	eax, -874134138
	je	.LBB14_213

	cmp	eax, -488480721
	jne	.LBB14_1

	mov	eax, dword ptr [rbp - 124]
	mov	ecx, dword ptr [rax + _ZN8CryptoPPL2TdE]
	mov	eax, dword ptr [rbp - 120]
	not	eax
	not	ecx
	or	ecx, eax
	not	ecx
	mov	dword ptr [rbp - 144], ecx 
	xor	eax, eax
	sub	eax, dword ptr [rbp - 252]
	mov	ecx, dword ptr [rbp - 124]
	sub	ecx, eax
	mov	dword ptr [rbp - 140], ecx 
	mov	eax, -1044063524
	jmp	.LBB14_1
.LBB14_15:                              
	cmp	eax, -1632210084
	je	.LBB14_63

	cmp	eax, -1545280708
	jne	.LBB14_1

	mov	eax, dword ptr [rip + x.60]
	lea	ecx, [rax - 1]
	imul	ecx, eax
	not	ecx
	or	ecx, -2
	cmp	ecx, r13d
	sete	cl
	mov	eax, -874134138
	mov	edi, -1856504278
	cmove	eax, edi
	cmp	dword ptr [rip + y.61], 10
	setl	dl
	mov	esi, -874134138
	jmp	.LBB14_18
.LBB14_32:                              
	cmp	eax, -129020422
	je	.LBB14_212

	cmp	eax, -32638281
	jne	.LBB14_1

	mov	rax, qword ptr [rbp - 376]
	mov	qword ptr [rbp - 288], rax 
	mov	eax, dword ptr [rbp - 256]
	mov	qword ptr [rbp - 184], rax 
	mov	eax, dword ptr [rbp - 260]
	mov	qword ptr [rbp - 176], rax 
	mov	eax, dword ptr [rbp - 264]
	mov	qword ptr [rbp - 168], rax 
	mov	eax, dword ptr [rbp - 268]
	mov	qword ptr [rbp - 160], rax 
	mov	eax, 496362424
	mov	ecx, dword ptr [rbp - 272]
	mov	dword ptr [rbp - 248], ecx 
	jmp	.LBB14_1
.LBB14_11:                              
	cmp	eax, -1872196587
	je	.LBB14_39

	cmp	eax, -1856504278
	jne	.LBB14_1

	mov	eax, dword ptr [rip + x.60]
	mov	ecx, dword ptr [rip + y.61]
	lea	edx, [rax - 1]
	imul	edx, eax
	mov	eax, edx
	xor	eax, -2
	and	eax, edx
	sete	dl
	cmp	ecx, 10
	setl	bl
	xor	bl, dl
	mov	edx, -874134138
	mov	esi, 1878270456
	cmovne	edx, esi
	test	eax, eax
	mov	eax, edx
	cmove	eax, esi
	cmp	ecx, 10
	cmovge	eax, edx
	jmp	.LBB14_1
.LBB14_28:                              
	cmp	eax, -303972849
	je	.LBB14_205

	cmp	eax, -270986393
	jne	.LBB14_1

	mov	cl, byte ptr [rbp - 85]
	mov	al, byte ptr [rbp - 86]
	mov	edx, ecx
	xor	dl, al
	mov	edx, -303972849
	mov	esi, -1872196587
	cmovne	edx, esi
	test	al, al
	mov	eax, edx
	cmovne	eax, esi
	test	cl, cl
	cmove	eax, edx
	jmp	.LBB14_1
.LBB14_62:                              
	mov	eax, dword ptr [rip + x.60]
	lea	ecx, [rax - 1]
	imul	ecx, eax
	mov	eax, ecx
	xor	eax, -2
	and	eax, ecx
	sete	cl
	test	eax, eax
	mov	eax, -129020422
	mov	edi, -1632210084
	cmove	eax, edi
	cmp	dword ptr [rip + y.61], 10
	setl	dl
	mov	esi, -129020422
.LBB14_18:                              
	cmovge	eax, esi
	xor	dl, cl
	cmovne	eax, edi
	jmp	.LBB14_1
.LBB14_61:                              
	mov	eax, dword ptr [rbp - 144] 
	mov	dword ptr [rbp - 120], eax
	mov	eax, dword ptr [rbp - 140] 
	mov	dword ptr [rbp - 124], eax
	mov	eax, dword ptr [rbp - 124]
	cmp	eax, 2048
	mov	eax, -1229236428
	mov	ecx, -488480721
	cmovb	eax, ecx
	jmp	.LBB14_1
.LBB14_64:                              
	mov	r11, qword ptr [rbp - 288] 
	mov	eax, dword ptr [r11]
	mov	rcx, qword ptr [rbp - 56]
	mov	dword ptr [rcx], eax
	mov	eax, dword ptr [r11 + 4]
	mov	rcx, qword ptr [rbp - 64]
	mov	dword ptr [rcx], eax
	mov	eax, dword ptr [r11 + 8]
	mov	rcx, qword ptr [rbp - 72]
	mov	dword ptr [rcx], eax
	mov	eax, dword ptr [r11 + 12]
	mov	rcx, qword ptr [rbp - 80]
	mov	dword ptr [rcx], eax
	mov	rsi, qword ptr [rbp - 160] 
	lea	eax, [8*rsi]
	and	eax, 2040
	mov	eax, dword ptr [rax + _ZN8CryptoPPL2TdE+3]
	mov	rcx, qword ptr [rbp - 72]
	mov	ecx, dword ptr [rcx]
	mov	edx, ecx
	not	edx
	and	edx, -335280839
	and	ecx, 335280838
	or	ecx, edx
	mov	edx, eax
	not	edx
	and	edx, -335280839
	and	eax, 335280838
	or	eax, edx
	xor	eax, ecx
	mov	rcx, qword ptr [rbp - 72]
	mov	dword ptr [rcx], eax
	mov	eax, esi
	shr	eax, 5
	mov	ecx, eax
	xor	ecx, 134215687
	and	ecx, eax
	mov	eax, dword ptr [rcx + _ZN8CryptoPPL2TdE+2]
	mov	rcx, qword ptr [rbp - 64]
	mov	ecx, dword ptr [rcx]
	mov	edx, ecx
	not	edx
	and	edx, eax
	not	eax
	and	eax, ecx
	or	eax, edx
	mov	rcx, qword ptr [rbp - 64]
	mov	dword ptr [rcx], eax
	mov	eax, esi
	shr	eax, 13
	and	eax, 2040
	mov	eax, dword ptr [rax + _ZN8CryptoPPL2TdE+1]
	mov	rcx, qword ptr [rbp - 56]
	mov	ecx, dword ptr [rcx]
	mov	edx, ecx
	not	edx
	and	edx, 2055033730
	and	ecx, -2055033731
	or	ecx, edx
	mov	edx, eax
	not	edx
	and	edx, 2055033730
	and	eax, -2055033731
	or	eax, edx
	xor	eax, ecx
	mov	rcx, qword ptr [rbp - 56]
	mov	dword ptr [rcx], eax
	shr	esi, 24
	mov	eax, dword ptr [8*rsi + _ZN8CryptoPPL2TdE+4]
	mov	rcx, qword ptr [rbp - 80]
	mov	ecx, dword ptr [rcx]
	mov	edx, ecx
	not	edx
	and	edx, eax
	not	eax
	and	eax, ecx
	or	eax, edx
	mov	rcx, qword ptr [rbp - 80]
	mov	dword ptr [rcx], eax
	mov	rsi, qword ptr [rbp - 168] 
	lea	eax, [8*rsi]
	and	eax, 2040
	mov	eax, dword ptr [rax + _ZN8CryptoPPL2TdE+3]
	mov	rcx, qword ptr [rbp - 64]
	mov	ecx, dword ptr [rcx]
	mov	edx, ecx
	not	edx
	and	edx, -1980697779
	and	ecx, 1980697778
	or	ecx, edx
	mov	edx, eax
	not	edx
	and	edx, -1980697779
	and	eax, 1980697778
	or	eax, edx
	xor	eax, ecx
	mov	rcx, qword ptr [rbp - 64]
	mov	dword ptr [rcx], eax
	mov	eax, esi
	shr	eax, 5
	and	eax, 2040
	mov	eax, dword ptr [rax + _ZN8CryptoPPL2TdE+2]
	mov	rcx, qword ptr [rbp - 56]
	mov	ecx, dword ptr [rcx]
	mov	edx, ecx
	not	edx
	and	edx, 1531939922
	and	ecx, -1531939923
	or	ecx, edx
	mov	edx, eax
	not	edx
	and	edx, 1531939922
	and	eax, -1531939923
	or	eax, edx
	xor	eax, ecx
	mov	rcx, qword ptr [rbp - 56]
	mov	dword ptr [rcx], eax
	mov	eax, esi
	shr	eax, 13
	mov	ecx, eax
	xor	ecx, 522247
	and	ecx, eax
	mov	eax, dword ptr [rcx + _ZN8CryptoPPL2TdE+1]
	mov	rcx, qword ptr [rbp - 80]
	mov	ecx, dword ptr [rcx]
	mov	edx, ecx
	not	edx
	and	edx, eax
	not	eax
	and	eax, ecx
	or	eax, edx
	mov	rcx, qword ptr [rbp - 80]
	mov	dword ptr [rcx], eax
	shr	esi, 24
	mov	eax, dword ptr [8*rsi + _ZN8CryptoPPL2TdE+4]
	mov	rcx, qword ptr [rbp - 72]
	mov	ecx, dword ptr [rcx]
	mov	edx, ecx
	not	edx
	and	edx, 1898451746
	and	ecx, -1898451747
	or	ecx, edx
	mov	edx, eax
	not	edx
	and	edx, 1898451746
	and	eax, -1898451747
	or	eax, edx
	xor	eax, ecx
	mov	rcx, qword ptr [rbp - 72]
	mov	dword ptr [rcx], eax
	mov	rsi, qword ptr [rbp - 176] 
	lea	eax, [8*rsi]
	and	eax, 2040
	mov	eax, dword ptr [rax + _ZN8CryptoPPL2TdE+3]
	mov	rcx, qword ptr [rbp - 56]
	mov	ecx, dword ptr [rcx]
	mov	edx, ecx
	not	edx
	and	edx, 1884749902
	and	ecx, -1884749903
	or	ecx, edx
	mov	edx, eax
	not	edx
	and	edx, 1884749902
	and	eax, -1884749903
	or	eax, edx
	xor	eax, ecx
	mov	rcx, qword ptr [rbp - 56]
	mov	dword ptr [rcx], eax
	mov	eax, esi
	shr	eax, 5
	and	eax, 2040
	mov	eax, dword ptr [rax + _ZN8CryptoPPL2TdE+2]
	mov	rcx, qword ptr [rbp - 80]
	mov	ecx, dword ptr [rcx]
	mov	edx, ecx
	not	edx
	and	edx, eax
	not	eax
	and	eax, ecx
	or	eax, edx
	mov	rcx, qword ptr [rbp - 80]
	mov	dword ptr [rcx], eax
	mov	eax, esi
	shr	eax, 13
	and	eax, 2040
	mov	eax, dword ptr [rax + _ZN8CryptoPPL2TdE+1]
	mov	rcx, qword ptr [rbp - 72]
	mov	ecx, dword ptr [rcx]
	mov	edx, ecx
	not	edx
	and	edx, eax
	not	eax
	and	eax, ecx
	or	eax, edx
	mov	rcx, qword ptr [rbp - 72]
	mov	dword ptr [rcx], eax
	shr	esi, 24
	mov	eax, dword ptr [8*rsi + _ZN8CryptoPPL2TdE+4]
	mov	rcx, qword ptr [rbp - 64]
	mov	ecx, dword ptr [rcx]
	mov	edx, ecx
	not	edx
	and	edx, eax
	not	eax
	and	eax, ecx
	or	eax, edx
	mov	rcx, qword ptr [rbp - 64]
	mov	dword ptr [rcx], eax
	mov	rsi, qword ptr [rbp - 184] 
	lea	eax, [8*rsi]
	mov	ecx, eax
	xor	ecx, -2048
	and	ecx, eax
	mov	eax, dword ptr [rcx + _ZN8CryptoPPL2TdE+3]
	mov	rcx, qword ptr [rbp - 80]
	mov	ecx, dword ptr [rcx]
	mov	edx, ecx
	not	edx
	and	edx, eax
	not	eax
	and	eax, ecx
	or	eax, edx
	mov	rcx, qword ptr [rbp - 80]
	mov	dword ptr [rcx], eax
	mov	eax, esi
	shr	eax, 5
	and	eax, 2040
	mov	eax, dword ptr [rax + _ZN8CryptoPPL2TdE+2]
	mov	rcx, qword ptr [rbp - 72]
	mov	ecx, dword ptr [rcx]
	mov	edx, ecx
	not	edx
	and	edx, eax
	not	eax
	and	eax, ecx
	or	eax, edx
	mov	rcx, qword ptr [rbp - 72]
	mov	dword ptr [rcx], eax
	mov	eax, esi
	shr	eax, 13
	and	eax, 2040
	mov	eax, dword ptr [rax + _ZN8CryptoPPL2TdE+1]
	mov	rcx, qword ptr [rbp - 64]
	mov	ecx, dword ptr [rcx]
	mov	edx, ecx
	not	edx
	and	edx, 1303170717
	and	ecx, -1303170718
	or	ecx, edx
	mov	edx, eax
	not	edx
	and	edx, 1303170717
	and	eax, -1303170718
	or	eax, edx
	xor	eax, ecx
	mov	rcx, qword ptr [rbp - 64]
	mov	dword ptr [rcx], eax
	shr	esi, 24
	mov	eax, dword ptr [8*rsi + _ZN8CryptoPPL2TdE+4]
	mov	rcx, qword ptr [rbp - 56]
	mov	ecx, dword ptr [rcx]
	mov	edx, ecx
	not	edx
	and	edx, 483148889
	and	ecx, -483148890
	or	ecx, edx
	mov	edx, eax
	not	edx
	and	edx, 483148889
	and	eax, -483148890
	or	eax, edx
	xor	eax, ecx
	mov	rcx, qword ptr [rbp - 56]
	mov	dword ptr [rcx], eax
	mov	r8d, dword ptr [r11 + 16]
	mov	edi, dword ptr [r11 + 20]
	mov	r9d, dword ptr [r11 + 24]
	mov	edx, dword ptr [r11 + 28]
	mov	rcx, qword ptr [rbp - 80]
	mov	ecx, dword ptr [rcx]
	lea	ebx, [8*rcx]
	mov	esi, ebx
	xor	esi, -2048
	and	esi, ebx
	mov	ebx, dword ptr [rsi + _ZN8CryptoPPL2TdE+3]
	mov	esi, ebx
	not	esi
	and	esi, r9d
	not	r9d
	and	r9d, ebx
	or	r9d, esi
	mov	esi, ecx
	shr	esi, 8
	mov	rbx, qword ptr [rbp - 80]
	mov	dword ptr [rbx], esi
	shl	esi, 3
	mov	ebx, esi
	xor	ebx, 134215680
	and	ebx, esi
	mov	ebx, dword ptr [rbx + _ZN8CryptoPPL2TdE+2]
	mov	esi, ebx
	not	esi
	and	esi, 1661023040
	and	ebx, -1661023041
	or	ebx, esi
	mov	esi, edi
	not	esi
	and	esi, 1661023040
	and	edi, -1661023041
	or	edi, esi
	xor	edi, ebx
	mov	esi, ecx
	shr	esi, 16
	mov	rbx, qword ptr [rbp - 80]
	mov	dword ptr [rbx], esi
	mov	esi, ecx
	shr	esi, 13
	and	esi, 2040
	mov	ebx, dword ptr [rsi + _ZN8CryptoPPL2TdE+1]
	mov	esi, ebx
	not	esi
	and	esi, 2000973983
	and	ebx, -2000973984
	or	ebx, esi
	mov	esi, r8d
	not	esi
	and	esi, 2000973983
	and	r8d, -2000973984
	or	r8d, esi
	xor	r8d, ebx
	shr	ecx, 24
	mov	rsi, qword ptr [rbp - 80]
	mov	dword ptr [rsi], ecx
	mov	ecx, dword ptr [8*rcx + _ZN8CryptoPPL2TdE+4]
	mov	esi, ecx
	not	esi
	and	esi, -1759464356
	and	ecx, 1759464355
	or	ecx, esi
	mov	esi, edx
	not	esi
	and	esi, -1759464356
	and	edx, 1759464355
	or	edx, esi
	xor	edx, ecx
	mov	rcx, qword ptr [rbp - 72]
	mov	ebx, dword ptr [rcx]
	lea	ecx, [8*rbx]
	and	ecx, 2040
	mov	r10d, dword ptr [rcx + _ZN8CryptoPPL2TdE+3]
	mov	esi, edi
	not	esi
	and	esi, 1703007459
	and	edi, -1703007460
	or	edi, esi
	mov	esi, r10d
	not	esi
	and	esi, 1703007459
	and	r10d, -1703007460
	or	r10d, esi
	xor	r10d, edi
	mov	esi, ebx
	shr	esi, 8
	mov	rdi, qword ptr [rbp - 72]
	mov	dword ptr [rdi], esi
	shl	esi, 3
	mov	edi, esi
	xor	edi, 134215680
	and	edi, esi
	mov	ecx, dword ptr [rdi + _ZN8CryptoPPL2TdE+2]
	mov	esi, r8d
	not	esi
	and	esi, ecx
	not	ecx
	and	ecx, r8d
	or	ecx, esi
	mov	esi, ebx
	shr	esi, 16
	mov	rax, qword ptr [rbp - 72]
	mov	dword ptr [rax], esi
	shl	esi, 3
	mov	eax, esi
	xor	eax, 522240
	and	eax, esi
	mov	esi, dword ptr [rax + _ZN8CryptoPPL2TdE+1]
	mov	eax, edx
	not	eax
	and	eax, 945221019
	and	edx, -945221020
	or	edx, eax
	mov	eax, esi
	not	eax
	and	eax, 945221019
	and	esi, -945221020
	or	esi, eax
	xor	esi, edx
	shr	ebx, 24
	mov	rax, qword ptr [rbp - 72]
	mov	dword ptr [rax], ebx
	mov	edx, dword ptr [8*rbx + _ZN8CryptoPPL2TdE+4]
	mov	eax, r9d
	not	eax
	and	eax, -1996080231
	and	r9d, 1996080230
	or	r9d, eax
	mov	eax, edx
	not	eax
	and	eax, -1996080231
	and	edx, 1996080230
	or	edx, eax
	xor	edx, r9d
	mov	rax, qword ptr [rbp - 64]
	mov	ebx, dword ptr [rax]
	lea	eax, [8*rbx]
	and	eax, 2040
	mov	r8d, dword ptr [rax + _ZN8CryptoPPL2TdE+3]
	mov	edi, ecx
	not	edi
	and	edi, 804399585
	and	ecx, -804399586
	or	ecx, edi
	mov	edi, r8d
	not	edi
	and	edi, 804399585
	and	r8d, -804399586
	or	r8d, edi
	xor	r8d, ecx
	mov	ecx, ebx
	shr	ecx, 8
	mov	rdi, qword ptr [rbp - 64]
	mov	dword ptr [rdi], ecx
	shl	ecx, 3
	mov	edi, ecx
	xor	edi, 134215680
	and	edi, ecx
	mov	eax, dword ptr [rdi + _ZN8CryptoPPL2TdE+2]
	mov	ecx, esi
	not	ecx
	and	ecx, -782755453
	and	esi, 782755452
	or	esi, ecx
	mov	ecx, eax
	not	ecx
	and	ecx, -782755453
	and	eax, 782755452
	or	eax, ecx
	xor	eax, esi
	mov	ecx, ebx
	shr	ecx, 16
	mov	rsi, qword ptr [rbp - 64]
	mov	dword ptr [rsi], ecx
	shl	ecx, 3
	mov	esi, ecx
	xor	esi, 522240
	and	esi, ecx
	mov	esi, dword ptr [rsi + _ZN8CryptoPPL2TdE+1]
	mov	ecx, edx
	not	ecx
	and	ecx, 424050800
	and	edx, -424050801
	or	edx, ecx
	mov	ecx, esi
	not	ecx
	and	ecx, 424050800
	and	esi, -424050801
	or	esi, ecx
	xor	esi, edx
	shr	ebx, 24
	mov	rcx, qword ptr [rbp - 64]
	mov	dword ptr [rcx], ebx
	mov	edx, dword ptr [8*rbx + _ZN8CryptoPPL2TdE+4]
	mov	ecx, r10d
	not	ecx
	and	ecx, -677993572
	and	r10d, 677993571
	or	r10d, ecx
	mov	ecx, edx
	not	ecx
	and	ecx, -677993572
	and	edx, 677993571
	or	edx, ecx
	xor	edx, r10d
	mov	rcx, qword ptr [rbp - 56]
	mov	ecx, dword ptr [rcx]
	lea	ebx, [8*rcx]
	and	ebx, 2040
	mov	ebx, dword ptr [rbx + _ZN8CryptoPPL2TdE+3]
	mov	edi, eax
	not	edi
	and	edi, ebx
	not	ebx
	and	ebx, eax
	or	ebx, edi
	mov	dword ptr [rbp - 104], ebx
	mov	eax, ecx
	shr	eax, 8
	mov	rdi, qword ptr [rbp - 56]
	mov	dword ptr [rdi], eax
	mov	eax, ecx
	shr	eax, 5
	and	eax, 2040
	mov	eax, dword ptr [rax + _ZN8CryptoPPL2TdE+2]
	mov	edi, esi
	not	edi
	and	edi, 987718843
	and	esi, -987718844
	or	esi, edi
	mov	edi, eax
	not	edi
	and	edi, 987718843
	and	eax, -987718844
	or	eax, edi
	xor	eax, esi
	mov	dword ptr [rbp - 108], eax
	mov	eax, ecx
	shr	eax, 16
	mov	rsi, qword ptr [rbp - 56]
	mov	dword ptr [rsi], eax
	shl	eax, 3
	mov	esi, eax
	xor	esi, 522240
	and	esi, eax
	mov	eax, dword ptr [rsi + _ZN8CryptoPPL2TdE+1]
	mov	esi, edx
	not	esi
	and	esi, -1325140772
	and	edx, 1325140771
	or	edx, esi
	mov	esi, eax
	not	esi
	and	esi, -1325140772
	and	eax, 1325140771
	or	eax, esi
	xor	eax, edx
	mov	dword ptr [rbp - 112], eax
	shr	ecx, 24
	mov	rax, qword ptr [rbp - 56]
	mov	dword ptr [rax], ecx
	mov	eax, dword ptr [8*rcx + _ZN8CryptoPPL2TdE+4]
	mov	ecx, r8d
	not	ecx
	and	ecx, eax
	not	eax
	and	eax, r8d
	or	eax, ecx
	mov	dword ptr [rbp - 116], eax
	add	r11, 32
	mov	qword ptr [rbp - 136], r11
	dec	dword ptr [rbp - 248]   
	mov	eax, 496362424
	mov	ecx, -1965996249
	cmove	eax, ecx
	mov	ecx, dword ptr [rbp - 104]
	mov	qword ptr [rbp - 160], rcx 
	mov	ecx, dword ptr [rbp - 108]
	mov	qword ptr [rbp - 168], rcx 
	mov	ecx, dword ptr [rbp - 112]
	mov	qword ptr [rbp - 176], rcx 
	mov	ecx, dword ptr [rbp - 116]
	mov	qword ptr [rbp - 184], rcx 
	mov	rcx, qword ptr [rbp - 136]
	mov	qword ptr [rbp - 288], rcx 
	jmp	.LBB14_1
.LBB14_46:                              
	mov	r8d, 16
	xor	r9d, r9d
	mov	rdi, r12
	mov	rsi, r14
	mov	rdx, qword ptr [rbp - 280] 
	mov	rcx, r15
	call	_ZNK8CryptoPP8Rijndael3Dec21AdvancedProcessBlocksEPKhS3_Phmj
	mov	eax, -1545280708
	jmp	.LBB14_1
.LBB14_47:                              
	mov	rax, qword ptr [rbp - 56]
	mov	qword ptr [rbp - 312], rax
	mov	rax, qword ptr [rbp - 312]
	mov	rax, qword ptr [rbp - 64]
	mov	qword ptr [rbp - 320], rax
	mov	rax, qword ptr [rbp - 320]
	mov	rax, qword ptr [rbp - 72]
	mov	qword ptr [rbp - 328], rax
	mov	rax, qword ptr [rbp - 328]
	mov	rax, qword ptr [rbp - 80]
	mov	qword ptr [rbp - 336], rax
	mov	rax, qword ptr [rbp - 336]
	mov	rax, qword ptr [rbp - 296]
	mov	qword ptr [rax], r14
	mov	rsi, qword ptr [rbp - 56]
	mov	rdi, qword ptr [rbp - 296]
	call	_ZN8CryptoPP8GetBlockIjNS_10EnumToTypeINS_9ByteOrderELi0EEELb0EEclIjEERS4_RT_
	mov	rsi, qword ptr [rbp - 64]
	mov	rdi, rax
	call	_ZN8CryptoPP8GetBlockIjNS_10EnumToTypeINS_9ByteOrderELi0EEELb0EEclIjEERS4_RT_
	mov	rsi, qword ptr [rbp - 72]
	mov	rdi, rax
	call	_ZN8CryptoPP8GetBlockIjNS_10EnumToTypeINS_9ByteOrderELi0EEELb0EEclIjEERS4_RT_
	mov	rsi, qword ptr [rbp - 80]
	mov	rdi, rax
	call	_ZN8CryptoPP8GetBlockIjNS_10EnumToTypeINS_9ByteOrderELi0EEELb0EEclIjEERS4_RT_
	mov	qword ptr [rbp - 200], r12
	mov	rax, qword ptr [rbp - 200]
	mov	rax, qword ptr [rax + 48]
	mov	ecx, dword ptr [rax]
	mov	rdx, qword ptr [rbp - 56]
	mov	edx, dword ptr [rdx]
	mov	esi, edx
	not	esi
	and	esi, ecx
	not	ecx
	and	ecx, edx
	or	ecx, esi
	mov	rdx, qword ptr [rbp - 56]
	mov	dword ptr [rdx], ecx
	mov	ecx, dword ptr [rax + 4]
	mov	rdx, qword ptr [rbp - 64]
	mov	edx, dword ptr [rdx]
	mov	esi, edx
	not	esi
	and	esi, -1470544962
	and	edx, 1470544961
	or	edx, esi
	mov	esi, ecx
	not	esi
	and	esi, -1470544962
	and	ecx, 1470544961
	or	ecx, esi
	xor	ecx, edx
	mov	rdx, qword ptr [rbp - 64]
	mov	dword ptr [rdx], ecx
	mov	ecx, dword ptr [rax + 8]
	mov	rdx, qword ptr [rbp - 72]
	mov	edx, dword ptr [rdx]
	mov	esi, edx
	not	esi
	and	esi, -1314620505
	and	edx, 1314620504
	or	edx, esi
	mov	esi, ecx
	not	esi
	and	esi, -1314620505
	and	ecx, 1314620504
	or	ecx, esi
	xor	ecx, edx
	mov	rdx, qword ptr [rbp - 72]
	mov	dword ptr [rdx], ecx
	mov	ecx, dword ptr [rax + 12]
	mov	rdx, qword ptr [rbp - 80]
	mov	edx, dword ptr [rdx]
	mov	esi, edx
	not	esi
	and	esi, 890964258
	and	edx, -890964259
	or	edx, esi
	mov	esi, ecx
	not	esi
	and	esi, 890964258
	and	ecx, -890964259
	or	ecx, esi
	xor	ecx, edx
	mov	rdx, qword ptr [rbp - 80]
	mov	dword ptr [rdx], ecx
	mov	ecx, dword ptr [rax + 16]
	mov	dword ptr [rbp - 100], ecx
	mov	ecx, dword ptr [rax + 20]
	mov	dword ptr [rbp - 84], ecx
	mov	ecx, dword ptr [rax + 24]
	mov	dword ptr [rbp - 92], ecx
	mov	ecx, dword ptr [rax + 28]
	mov	dword ptr [rbp - 96], ecx
	add	rax, 32
	mov	qword ptr [rbp - 376], rax
	mov	al, byte ptr [rip + _ZN8CryptoPP18g_x86DetectionDoneE]
	mov	byte ptr [rbp - 48], al
	mov	eax, -971848300
	jmp	.LBB14_48
.LBB14_54:                              
	cmp	eax, 1680332589
	je	.LBB14_59

	cmp	eax, 1906642695
	jne	.LBB14_48

	mov	eax, 581691265
	jmp	.LBB14_48
.LBB14_57:                              
	mov	al, byte ptr [rbp - 48]
	mov	ecx, eax
	xor	cl, -2
	test	cl, al
	mov	eax, 581691265
	mov	ecx, -189750550
	cmove	eax, ecx
	jmp	.LBB14_48
.LBB14_58:                              
	call	_ZN8CryptoPP17DetectX86FeaturesEv
	mov	eax, dword ptr [rip + x.52]
	lea	ecx, [rax - 1]
	imul	ecx, eax
	mov	eax, ecx
	xor	eax, -2
	and	eax, ecx
	sete	cl
	test	eax, eax
	mov	eax, 1680332589
	mov	esi, 1906642695
	cmove	eax, esi
	cmp	dword ptr [rip + y.53], 10
	setl	dl
	mov	edi, 1680332589
	cmovge	eax, edi
	xor	dl, cl
	cmovne	eax, esi
	jmp	.LBB14_48
.LBB14_59:                              
	call	_ZN8CryptoPP17DetectX86FeaturesEv
	mov	eax, -609029914
.LBB14_48:                              

	cmp	eax, 581691264
	jg	.LBB14_53

	cmp	eax, -971848300
	je	.LBB14_57

	cmp	eax, -609029914
	je	.LBB14_58

	cmp	eax, -189750550
	jne	.LBB14_48

	mov	eax, dword ptr [rip + x.52]
	mov	ecx, eax
	neg	ecx
	not	ecx
	imul	ecx, eax
	not	ecx
	or	ecx, -2
	cmp	ecx, r13d
	sete	cl
	mov	eax, 1680332589
	mov	edi, -609029914
	cmove	eax, edi
	cmp	dword ptr [rip + y.53], 10
	setl	dl
	mov	esi, 1680332589
	cmovge	eax, esi
	xor	dl, cl
	cmovne	eax, edi
	jmp	.LBB14_48
.LBB14_53:                              
	cmp	eax, 581691265
	jne	.LBB14_54

	mov	eax, dword ptr [rip + _ZN8CryptoPP15g_cacheLineSizeE]
	mov	dword ptr [rbp - 252], eax
	mov	rax, qword ptr [rbp - 192]
	mov	qword ptr [rbp - 344], rax
	mov	rax, qword ptr [rbp - 344]
	mov	rax, qword ptr [rbp - 192]
	mov	dword ptr [rax], 0
	mov	rax, qword ptr [rbp - 192]
	mov	eax, dword ptr [rax]
	mov	dword ptr [rbp - 144], eax 
	mov	eax, -1044063524
	mov	dword ptr [rbp - 140], 0 
	jmp	.LBB14_1
.LBB14_213:                             
	mov	eax, -1856504278
	jmp	.LBB14_1
.LBB14_63:                              
	mov	ecx, dword ptr [rip + _ZN8CryptoPPL2TdE+2040]
	mov	eax, dword ptr [rbp - 120]
	xor	eax, ecx
	not	eax
	and	eax, ecx
	mov	rcx, qword ptr [rbp - 56]
	mov	edx, dword ptr [rcx]
	mov	esi, edx
	not	esi
	mov	ecx, eax
	not	ecx
	mov	edi, esi
	and	edi, -1491170755
	and	edx, 1491170754
	or	edx, edi
	mov	edi, ecx
	and	edi, -1491170755
	mov	ebx, eax
	and	ebx, 1491170754
	or	ebx, edi
	xor	ebx, edx
	or	esi, ecx
	not	esi
	or	esi, ebx
	mov	rdx, qword ptr [rbp - 56]
	mov	dword ptr [rdx], esi
	mov	rdx, qword ptr [rbp - 64]
	mov	edx, dword ptr [rdx]
	mov	esi, edx
	not	esi
	mov	edi, esi
	and	edi, -732373878
	and	edx, 732373877
	or	edx, edi
	mov	edi, ecx
	and	edi, -732373878
	mov	ebx, eax
	and	ebx, 732373877
	or	ebx, edi
	xor	ebx, edx
	or	esi, ecx
	not	esi
	or	esi, ebx
	mov	rdx, qword ptr [rbp - 64]
	mov	dword ptr [rdx], esi
	mov	rdx, qword ptr [rbp - 72]
	mov	edx, dword ptr [rdx]
	mov	esi, edx
	not	esi
	mov	edi, esi
	and	edi, 1605519648
	and	edx, -1605519649
	or	edx, edi
	or	esi, ecx
	and	ecx, 1605519648
	mov	edi, eax
	and	edi, -1605519649
	or	edi, ecx
	xor	edi, edx
	not	esi
	or	esi, edi
	mov	rcx, qword ptr [rbp - 72]
	mov	dword ptr [rcx], esi
	mov	rcx, qword ptr [rbp - 80]
	mov	ecx, dword ptr [rcx]
	mov	edx, ecx
	and	edx, eax
	xor	eax, ecx
	or	eax, edx
	mov	rcx, qword ptr [rbp - 80]
	mov	dword ptr [rcx], eax
	lea	ecx, [8*rax]
	and	ecx, 2040
	mov	r8d, dword ptr [rcx + _ZN8CryptoPPL2TdE+4]
	mov	ecx, dword ptr [rbp - 96]
	mov	edx, ecx
	not	edx
	and	edx, -1331834324
	and	ecx, 1331834323
	or	ecx, edx
	mov	edx, r8d
	not	edx
	and	edx, -1331834324
	and	r8d, 1331834323
	or	r8d, edx
	xor	r8d, ecx
	mov	ecx, eax
	shr	ecx, 8
	mov	rdx, qword ptr [rbp - 80]
	mov	dword ptr [rdx], ecx
	shl	ecx, 3
	mov	edx, ecx
	xor	edx, 134215680
	and	edx, ecx
	mov	r9d, dword ptr [rdx + _ZN8CryptoPPL2TdE+1]
	mov	ecx, dword ptr [rbp - 100]
	mov	edi, ecx
	not	edi
	and	edi, r9d
	not	r9d
	and	r9d, ecx
	or	r9d, edi
	mov	ecx, eax
	shr	ecx, 16
	mov	rdi, qword ptr [rbp - 80]
	mov	dword ptr [rdi], ecx
	shl	ecx, 3
	mov	edi, ecx
	xor	edi, 522240
	and	edi, ecx
	mov	edi, dword ptr [rdi + _ZN8CryptoPPL2TdE+2]
	mov	ebx, dword ptr [rbp - 84]
	mov	ecx, ebx
	not	ecx
	and	ecx, edi
	not	edi
	and	edi, ebx
	or	edi, ecx
	shr	eax, 24
	mov	rcx, qword ptr [rbp - 80]
	mov	dword ptr [rcx], eax
	mov	ebx, dword ptr [8*rax + _ZN8CryptoPPL2TdE+3]
	mov	eax, dword ptr [rbp - 92]
	mov	ecx, eax
	not	ecx
	and	ecx, 1082294292
	and	eax, -1082294293
	or	eax, ecx
	mov	ecx, ebx
	not	ecx
	and	ecx, 1082294292
	and	ebx, -1082294293
	or	ebx, ecx
	xor	ebx, eax
	mov	rax, qword ptr [rbp - 72]
	mov	ecx, dword ptr [rax]
	lea	eax, [8*rcx]
	and	eax, 2040
	mov	eax, dword ptr [rax + _ZN8CryptoPPL2TdE+4]
	mov	esi, ebx
	not	esi
	and	esi, -1878899291
	and	ebx, 1878899290
	or	ebx, esi
	mov	esi, eax
	not	esi
	and	esi, -1878899291
	and	eax, 1878899290
	or	eax, esi
	xor	eax, ebx
	mov	esi, ecx
	shr	esi, 8
	mov	rbx, qword ptr [rbp - 72]
	mov	dword ptr [rbx], esi
	shl	esi, 3
	mov	ebx, esi
	xor	ebx, 134215680
	and	ebx, esi
	mov	ebx, dword ptr [rbx + _ZN8CryptoPPL2TdE+1]
	mov	esi, r8d
	not	esi
	and	esi, ebx
	not	ebx
	and	ebx, r8d
	or	ebx, esi
	mov	esi, ecx
	shr	esi, 16
	mov	rdx, qword ptr [rbp - 72]
	mov	dword ptr [rdx], esi
	mov	edx, ecx
	shr	edx, 13
	and	edx, 2040
	mov	esi, dword ptr [rdx + _ZN8CryptoPPL2TdE+2]
	mov	edx, r9d
	not	edx
	and	edx, esi
	not	esi
	and	esi, r9d
	or	esi, edx
	shr	ecx, 24
	mov	rdx, qword ptr [rbp - 72]
	mov	dword ptr [rdx], ecx
	mov	ecx, dword ptr [8*rcx + _ZN8CryptoPPL2TdE+3]
	mov	edx, edi
	not	edx
	and	edx, ecx
	not	ecx
	and	ecx, edi
	or	ecx, edx
	mov	rdx, qword ptr [rbp - 64]
	mov	edi, dword ptr [rdx]
	lea	edx, [8*rdi]
	and	edx, 2040
	mov	r8d, dword ptr [rdx + _ZN8CryptoPPL2TdE+4]
	mov	edx, ecx
	not	edx
	and	edx, 1039777662
	and	ecx, -1039777663
	or	ecx, edx
	mov	edx, r8d
	not	edx
	and	edx, 1039777662
	and	r8d, -1039777663
	or	r8d, edx
	xor	r8d, ecx
	mov	ecx, edi
	shr	ecx, 8
	mov	rdx, qword ptr [rbp - 64]
	mov	dword ptr [rdx], ecx
	shl	ecx, 3
	mov	edx, ecx
	xor	edx, 134215680
	and	edx, ecx
	mov	ecx, dword ptr [rdx + _ZN8CryptoPPL2TdE+1]
	mov	edx, eax
	not	edx
	and	edx, ecx
	not	ecx
	and	ecx, eax
	or	ecx, edx
	mov	eax, edi
	shr	eax, 16
	mov	rdx, qword ptr [rbp - 64]
	mov	dword ptr [rdx], eax
	shl	eax, 3
	mov	edx, eax
	xor	edx, 522240
	and	edx, eax
	mov	eax, dword ptr [rdx + _ZN8CryptoPPL2TdE+2]
	mov	edx, ebx
	not	edx
	and	edx, eax
	not	eax
	and	eax, ebx
	or	eax, edx
	shr	edi, 24
	mov	rdx, qword ptr [rbp - 64]
	mov	dword ptr [rdx], edi
	mov	edi, dword ptr [8*rdi + _ZN8CryptoPPL2TdE+3]
	mov	edx, esi
	not	edx
	and	edx, 892368689
	and	esi, -892368690
	or	esi, edx
	mov	edx, edi
	not	edx
	and	edx, 892368689
	and	edi, -892368690
	or	edi, edx
	xor	edi, esi
	mov	rdx, qword ptr [rbp - 56]
	mov	esi, dword ptr [rdx]
	lea	edx, [8*rsi]
	mov	ebx, edx
	xor	ebx, -2048
	and	ebx, edx
	mov	edx, dword ptr [rbx + _ZN8CryptoPPL2TdE+4]
	mov	ebx, edi
	not	ebx
	and	ebx, 1606048032
	and	edi, -1606048033
	or	edi, ebx
	mov	ebx, edx
	not	ebx
	and	ebx, 1606048032
	and	edx, -1606048033
	or	edx, ebx
	xor	edx, edi
	mov	dword ptr [rbp - 256], edx
	mov	edx, esi
	shr	edx, 8
	mov	rdi, qword ptr [rbp - 56]
	mov	dword ptr [rdi], edx
	mov	edx, esi
	shr	edx, 5
	and	edx, 2040
	mov	edx, dword ptr [rdx + _ZN8CryptoPPL2TdE+1]
	mov	edi, r8d
	not	edi
	and	edi, edx
	not	edx
	and	edx, r8d
	or	edx, edi
	mov	dword ptr [rbp - 260], edx
	mov	edx, esi
	shr	edx, 16
	mov	rdi, qword ptr [rbp - 56]
	mov	dword ptr [rdi], edx
	mov	edx, esi
	shr	edx, 13
	and	edx, 2040
	mov	edx, dword ptr [rdx + _ZN8CryptoPPL2TdE+2]
	mov	edi, ecx
	not	edi
	and	edi, 1108030124
	and	ecx, -1108030125
	or	ecx, edi
	mov	edi, edx
	not	edi
	and	edi, 1108030124
	and	edx, -1108030125
	or	edx, edi
	xor	edx, ecx
	mov	dword ptr [rbp - 264], edx
	shr	esi, 24
	mov	rcx, qword ptr [rbp - 56]
	mov	dword ptr [rcx], esi
	mov	ecx, dword ptr [8*rsi + _ZN8CryptoPPL2TdE+3]
	mov	edx, eax
	not	edx
	and	edx, 1847411266
	and	eax, -1847411267
	or	eax, edx
	mov	edx, ecx
	not	edx
	and	edx, 1847411266
	and	ecx, -1847411267
	or	ecx, edx
	xor	ecx, eax
	mov	dword ptr [rbp - 268], ecx
	mov	rax, qword ptr [rbp - 200]
	mov	eax, dword ptr [rax + 16]
	shr	eax
	dec	eax
	mov	dword ptr [rbp - 272], eax
	mov	eax, dword ptr [rip + x.60]
	lea	ecx, [rax - 1]
	imul	ecx, eax
	mov	eax, ecx
	xor	eax, -2
	and	eax, ecx
	sete	cl
	test	eax, eax
	mov	eax, -129020422
	mov	esi, -32638281
	cmove	eax, esi
	cmp	dword ptr [rip + y.61], 10
	setl	dl
	mov	edi, -129020422
	cmovge	eax, edi
	xor	dl, cl
	cmovne	eax, esi
	jmp	.LBB14_1
.LBB14_212:                             
	mov	ecx, dword ptr [rip + _ZN8CryptoPPL2TdE+2040]
	mov	eax, dword ptr [rbp - 120]
	xor	eax, ecx
	not	eax
	and	eax, ecx
	mov	rcx, qword ptr [rbp - 56]
	mov	edx, dword ptr [rcx]
	mov	esi, edx
	not	esi
	mov	ecx, eax
	not	ecx
	mov	edi, esi
	and	edi, -257504172
	and	edx, 257504171
	or	edx, edi
	mov	edi, ecx
	and	edi, -257504172
	mov	ebx, eax
	and	ebx, 257504171
	or	ebx, edi
	xor	ebx, edx
	or	esi, ecx
	not	esi
	or	esi, ebx
	mov	rdx, qword ptr [rbp - 56]
	mov	dword ptr [rdx], esi
	mov	rdx, qword ptr [rbp - 64]
	mov	edx, dword ptr [rdx]
	mov	esi, edx
	and	esi, eax
	xor	edx, eax
	or	edx, esi
	mov	rsi, qword ptr [rbp - 64]
	mov	dword ptr [rsi], edx
	mov	rdx, qword ptr [rbp - 72]
	mov	edx, dword ptr [rdx]
	mov	esi, edx
	not	esi
	mov	edi, esi
	and	edi, 382882459
	and	edx, -382882460
	or	edx, edi
	or	esi, ecx
	and	ecx, 382882459
	mov	edi, eax
	and	edi, -382882460
	or	edi, ecx
	xor	edi, edx
	not	esi
	or	esi, edi
	mov	rcx, qword ptr [rbp - 72]
	mov	dword ptr [rcx], esi
	mov	rcx, qword ptr [rbp - 80]
	mov	ecx, dword ptr [rcx]
	mov	edx, ecx
	and	edx, eax
	xor	eax, ecx
	or	eax, edx
	mov	rcx, qword ptr [rbp - 80]
	mov	dword ptr [rcx], eax
	mov	ecx, dword ptr [rbp - 96]
	mov	ecx, dword ptr [rbp - 96]
	mov	ecx, dword ptr [rbp - 96]
	mov	ecx, dword ptr [rbp - 96]
	mov	ecx, eax
	shr	ecx, 8
	mov	rdx, qword ptr [rbp - 80]
	mov	dword ptr [rdx], ecx
	mov	ecx, dword ptr [rbp - 100]
	mov	ecx, dword ptr [rbp - 100]
	mov	ecx, eax
	shr	ecx, 16
	mov	rdx, qword ptr [rbp - 80]
	mov	dword ptr [rdx], ecx
	mov	ecx, dword ptr [rbp - 84]
	mov	ecx, dword ptr [rbp - 84]
	mov	ecx, dword ptr [rbp - 84]
	mov	ecx, dword ptr [rbp - 84]
	mov	ecx, dword ptr [rbp - 84]
	mov	ecx, dword ptr [rbp - 84]
	mov	ecx, dword ptr [rbp - 84]
	shr	eax, 24
	mov	rcx, qword ptr [rbp - 80]
	mov	dword ptr [rcx], eax
	mov	eax, dword ptr [rbp - 92]
	mov	eax, dword ptr [rbp - 92]
	mov	eax, dword ptr [rbp - 92]
	mov	eax, dword ptr [rbp - 92]
	mov	rax, qword ptr [rbp - 72]
	mov	eax, dword ptr [rax]
	mov	ecx, eax
	shr	ecx, 8
	mov	rdx, qword ptr [rbp - 72]
	mov	dword ptr [rdx], ecx
	mov	ecx, eax
	shr	ecx, 16
	mov	rdx, qword ptr [rbp - 72]
	mov	dword ptr [rdx], ecx
	shr	eax, 24
	mov	rcx, qword ptr [rbp - 72]
	mov	dword ptr [rcx], eax
	mov	rax, qword ptr [rbp - 64]
	mov	eax, dword ptr [rax]
	mov	ecx, eax
	shr	ecx, 8
	mov	rdx, qword ptr [rbp - 64]
	mov	dword ptr [rdx], ecx
	mov	ecx, eax
	shr	ecx, 16
	mov	rdx, qword ptr [rbp - 64]
	mov	dword ptr [rdx], ecx
	shr	eax, 24
	mov	rcx, qword ptr [rbp - 64]
	mov	dword ptr [rcx], eax
	mov	rax, qword ptr [rbp - 56]
	mov	eax, dword ptr [rax]
	mov	ecx, eax
	shr	ecx, 8
	mov	rdx, qword ptr [rbp - 56]
	mov	dword ptr [rdx], ecx
	mov	ecx, eax
	shr	ecx, 16
	mov	rdx, qword ptr [rbp - 56]
	mov	dword ptr [rdx], ecx
	shr	eax, 24
	mov	rcx, qword ptr [rbp - 56]
	mov	dword ptr [rcx], eax
	mov	rax, qword ptr [rbp - 200]
	mov	eax, -1632210084
	jmp	.LBB14_1
.LBB14_39:                              
	mov	rax, rsp
	add	rax, -16
	mov	rsp, rax
	mov	qword ptr [rbp - 56], rax
	mov	rax, rsp
	add	rax, -16
	mov	rsp, rax
	mov	qword ptr [rbp - 64], rax
	mov	rax, rsp
	add	rax, -16
	mov	rsp, rax
	mov	qword ptr [rbp - 72], rax
	mov	rax, rsp
	add	rax, -16
	mov	rsp, rax
	mov	qword ptr [rbp - 80], rax
	mov	rax, rsp
	add	rax, -16
	mov	rsp, rax
	mov	qword ptr [rbp - 296], rax
	mov	rax, rsp
	add	rax, -16
	mov	rsp, rax
	mov	qword ptr [rbp - 192], rax
	mov	rax, rsp
	add	rax, -16
	mov	rsp, rax
	mov	qword ptr [rbp - 304], rax
	mov	al, byte ptr [rip + _ZN8CryptoPP18g_x86DetectionDoneE]
	mov	byte ptr [rbp - 48], al
	mov	eax, 528342624
	jmp	.LBB14_40
.LBB14_42:                              
	cmp	eax, 528342624
	jne	.LBB14_40

	mov	al, byte ptr [rbp - 48]
	mov	ecx, eax
	xor	cl, -2
	test	cl, al
	mov	eax, 526338746
	mov	ecx, -599217126
	cmove	eax, ecx
	jmp	.LBB14_40
.LBB14_44:                              
	call	_ZN8CryptoPP17DetectX86FeaturesEv
	mov	eax, 526338746
.LBB14_40:                              

	cmp	eax, -599217126
	je	.LBB14_44

	cmp	eax, 526338746
	jne	.LBB14_42

	cmp	byte ptr [rip + _ZN8CryptoPP10g_hasAESNIE], 0
	setne	byte ptr [rbp - 87]
	mov	eax, dword ptr [rip + x.60]
	mov	ecx, dword ptr [rip + y.61]
	mov	edx, eax
	neg	edx
	not	edx
	imul	edx, eax
	not	edx
	or	edx, -2
	cmp	edx, r13d
	sete	al
	cmp	ecx, 10
	setl	bl
	xor	bl, al
	mov	esi, -303972849
	mov	edi, -893693350
	cmovne	esi, edi
	cmp	edx, r13d
	mov	eax, esi
	cmove	eax, edi
	cmp	ecx, 10
	cmovge	eax, esi
	jmp	.LBB14_1
.LBB14_205:                             
	mov	al, byte ptr [rip + _ZN8CryptoPP18g_x86DetectionDoneE]
	mov	byte ptr [rbp - 48], al
	mov	eax, 528342624
	jmp	.LBB14_206
.LBB14_208:                             
	cmp	eax, 528342624
	jne	.LBB14_206

	mov	al, byte ptr [rbp - 48]
	mov	ecx, eax
	xor	cl, -2
	test	cl, al
	mov	eax, 526338746
	mov	ecx, -599217126
	cmove	eax, ecx
	jmp	.LBB14_206
.LBB14_210:                             
	call	_ZN8CryptoPP17DetectX86FeaturesEv
	mov	eax, 526338746
.LBB14_206:                             

	cmp	eax, -599217126
	je	.LBB14_210

	cmp	eax, 526338746
	jne	.LBB14_208

	mov	eax, -1872196587
.LBB14_1:                               



















	cmp	eax, -874134139
	jg	.LBB14_23

	cmp	eax, -1632210085
	jle	.LBB14_3

	cmp	eax, -1229236429
	jle	.LBB14_15

	cmp	eax, -1229236428
	je	.LBB14_62

	cmp	eax, -1044063524
	je	.LBB14_61

	cmp	eax, -893693350
	jne	.LBB14_1

	mov	al, byte ptr [rbp - 87]
	test	al, al
	mov	eax, -1983202932
	mov	ecx, 1659910535
	cmovne	eax, ecx
	jmp	.LBB14_1
.LBB14_23:                              
	cmp	eax, -129020423
	jle	.LBB14_24

	cmp	eax, 496362423
	jle	.LBB14_32

	cmp	eax, 496362424
	je	.LBB14_64

	cmp	eax, 1659910535
	je	.LBB14_46

	cmp	eax, 1878270456
	jne	.LBB14_1

	lea	rsp, [rbp - 40]
	pop	rbx
	pop	r12
	pop	r13
	pop	r14
	pop	r15
	pop	rbp
	ret
.Lfunc_end14:
	.size	_ZNK8CryptoPP8Rijndael3Dec18ProcessAndXorBlockEPKhS3_Ph, .Lfunc_end14-_ZNK8CryptoPP8Rijndael3Dec18ProcessAndXorBlockEPKhS3_Ph
	.cfi_endproc

	.globl	_ZNK8CryptoPP8Rijndael3Dec21AdvancedProcessBlocksEPKhS3_Phmj 
	.p2align	1, 0x90
	.type	_ZNK8CryptoPP8Rijndael3Dec21AdvancedProcessBlocksEPKhS3_Phmj,@function
_ZNK8CryptoPP8Rijndael3Dec21AdvancedProcessBlocksEPKhS3_Phmj: 
	.cfi_startproc

	push	rbp
.Lcfi113:
	.cfi_def_cfa_offset 16
	push	r15
.Lcfi114:
	.cfi_def_cfa_offset 24
	push	r14
.Lcfi115:
	.cfi_def_cfa_offset 32
	push	r13
.Lcfi116:
	.cfi_def_cfa_offset 40
	push	r12
.Lcfi117:
	.cfi_def_cfa_offset 48
	push	rbx
.Lcfi118:
	.cfi_def_cfa_offset 56
	sub	rsp, 40
.Lcfi119:
	.cfi_def_cfa_offset 96
.Lcfi120:
	.cfi_offset rbx, -56
.Lcfi121:
	.cfi_offset r12, -48
.Lcfi122:
	.cfi_offset r13, -40
.Lcfi123:
	.cfi_offset r14, -32
.Lcfi124:
	.cfi_offset r15, -24
.Lcfi125:
	.cfi_offset rbp, -16
	mov	eax, dword ptr [rip + x.62]
	mov	ebp, eax
	neg	ebp
	not	ebp
	imul	ebp, eax
	mov	eax, ebp
	xor	eax, -2
	test	eax, ebp
	sete	byte ptr [rsp + 23]
	mov	eax, dword ptr [rip + y.63]
	cmp	eax, 10
	setl	byte ptr [rsp + 24]
	mov	dword ptr [rsp + 28], r9d 
	mov	r15, r8
	mov	r12, rcx
	mov	r13, rdx
	mov	rbp, rsi
	mov	rbx, rdi
	lea	rax, [rbx + 8]
	mov	qword ptr [rsp + 32], rax 
	mov	eax, 62818721

	jmp	.LBB15_1
.LBB15_13:                              
	mov	cl, byte ptr [rsp + 23]
	mov	al, byte ptr [rsp + 24]
	mov	edx, ecx
	xor	dl, al
	test	al, al
	mov	eax, -2124659748
	mov	esi, -1699343193
	cmovne	eax, esi
	test	cl, cl
	mov	ecx, -2124659748
	cmove	eax, ecx
	test	dl, dl
	cmovne	eax, esi
	jmp	.LBB15_1
.LBB15_23:                              
	mov	al, byte ptr [rip + _ZN8CryptoPP18g_x86DetectionDoneE]
	mov	byte ptr [rsp + 27], al
	mov	eax, 528342624
	jmp	.LBB15_24
.LBB15_26:                              
	cmp	eax, 528342624
	jne	.LBB15_24

	mov	al, byte ptr [rsp + 27]
	mov	ecx, eax
	xor	cl, -2
	test	cl, al
	mov	eax, 526338746
	mov	ecx, -599217126
	cmove	eax, ecx
	jmp	.LBB15_24
.LBB15_28:                              
	call	_ZN8CryptoPP17DetectX86FeaturesEv
	mov	eax, 526338746
.LBB15_24:                              

	cmp	eax, -599217126
	je	.LBB15_28

	cmp	eax, 526338746
	jne	.LBB15_26

	mov	eax, -1699343193
	jmp	.LBB15_1
.LBB15_14:                              
	mov	al, byte ptr [rip + _ZN8CryptoPP18g_x86DetectionDoneE]
	mov	byte ptr [rsp + 26], al
	mov	eax, 528342624
	jmp	.LBB15_15
.LBB15_17:                              
	cmp	eax, 528342624
	jne	.LBB15_15

	mov	al, byte ptr [rsp + 26]
	mov	ecx, eax
	xor	cl, -2
	test	cl, al
	mov	eax, 526338746
	mov	ecx, -599217126
	cmove	eax, ecx
	jmp	.LBB15_15
.LBB15_19:                              
	call	_ZN8CryptoPP17DetectX86FeaturesEv
	mov	eax, 526338746
.LBB15_15:                              

	cmp	eax, -599217126
	je	.LBB15_19

	cmp	eax, 526338746
	jne	.LBB15_17

	cmp	byte ptr [rip + _ZN8CryptoPP10g_hasAESNIE], 0
	setne	byte ptr [rsp + 25]
	mov	eax, dword ptr [rip + x.62]
	lea	ecx, [rax - 1]
	imul	ecx, eax
	mov	eax, ecx
	xor	eax, -2
	and	eax, ecx
	sete	cl
	test	eax, eax
	mov	eax, -2124659748
	mov	esi, 941809571
	cmove	eax, esi
	cmp	dword ptr [rip + y.63], 10
	setl	dl
	mov	edi, -2124659748
	cmovge	eax, edi
	xor	dl, cl
	cmovne	eax, esi
	jmp	.LBB15_1
.LBB15_21:                              
	mov	rdi, qword ptr [rbx + 48]
	mov	esi, dword ptr [rbx + 16]
	mov	eax, dword ptr [rsp + 28] 
	mov	dword ptr [rsp], eax
	mov	rdx, rbp
	mov	rcx, r13
	mov	r8, r12
	mov	r9, r15
	call	_ZN8CryptoPP40Rijndael_Dec_AdvancedProcessBlocks_AESNIEPKjmPKhS3_Phmj
.LBB15_22:                              
	mov	r14, rax
	mov	eax, 1992527816
.LBB15_1:                               


	cmp	eax, 62818720
	jle	.LBB15_2

	cmp	eax, 1398564525
	jg	.LBB15_10

	cmp	eax, 62818721
	je	.LBB15_13

	cmp	eax, 941809571
	jne	.LBB15_1

	mov	al, byte ptr [rsp + 25]
	test	al, al
	mov	eax, -172633633
	mov	ecx, 1398564526
	cmovne	eax, ecx
	jmp	.LBB15_1
.LBB15_2:                               
	cmp	eax, -2124659748
	je	.LBB15_23

	cmp	eax, -1699343193
	je	.LBB15_14

	cmp	eax, -172633633
	jne	.LBB15_1

	mov	rdi, qword ptr [rsp + 32] 
	mov	rsi, rbp
	mov	rdx, r13
	mov	rcx, r12
	mov	r8, r15
	mov	r9d, dword ptr [rsp + 28] 
	call	_ZNK8CryptoPP19BlockTransformation21AdvancedProcessBlocksEPKhS2_Phmj
	jmp	.LBB15_22
.LBB15_10:                              
	cmp	eax, 1398564526
	je	.LBB15_21

	cmp	eax, 1992527816
	jne	.LBB15_1

	mov	rax, r14
	add	rsp, 40
	pop	rbx
	pop	r12
	pop	r13
	pop	r14
	pop	r15
	pop	rbp
	ret
.Lfunc_end15:
	.size	_ZNK8CryptoPP8Rijndael3Dec21AdvancedProcessBlocksEPKhS3_Phmj, .Lfunc_end15-_ZNK8CryptoPP8Rijndael3Dec21AdvancedProcessBlocksEPKhS3_Phmj
	.cfi_endproc

	.globl	_ZThn8_NK8CryptoPP8Rijndael3Dec18ProcessAndXorBlockEPKhS3_Ph 
	.p2align	1, 0x90
	.type	_ZThn8_NK8CryptoPP8Rijndael3Dec18ProcessAndXorBlockEPKhS3_Ph,@function
_ZThn8_NK8CryptoPP8Rijndael3Dec18ProcessAndXorBlockEPKhS3_Ph: 
	.cfi_startproc

	add	rdi, -8
	jmp	_ZNK8CryptoPP8Rijndael3Dec18ProcessAndXorBlockEPKhS3_Ph 
.Lfunc_end16:
	.size	_ZThn8_NK8CryptoPP8Rijndael3Dec18ProcessAndXorBlockEPKhS3_Ph, .Lfunc_end16-_ZThn8_NK8CryptoPP8Rijndael3Dec18ProcessAndXorBlockEPKhS3_Ph
	.cfi_endproc

	.globl	_ZThn8_NK8CryptoPP8Rijndael3Enc21AdvancedProcessBlocksEPKhS3_Phmj 
	.p2align	1, 0x90
	.type	_ZThn8_NK8CryptoPP8Rijndael3Enc21AdvancedProcessBlocksEPKhS3_Phmj,@function
_ZThn8_NK8CryptoPP8Rijndael3Enc21AdvancedProcessBlocksEPKhS3_Phmj: 
	.cfi_startproc

	add	rdi, -8
	jmp	_ZNK8CryptoPP8Rijndael3Enc21AdvancedProcessBlocksEPKhS3_Phmj 
.Lfunc_end17:
	.size	_ZThn8_NK8CryptoPP8Rijndael3Enc21AdvancedProcessBlocksEPKhS3_Phmj, .Lfunc_end17-_ZThn8_NK8CryptoPP8Rijndael3Enc21AdvancedProcessBlocksEPKhS3_Phmj
	.cfi_endproc

	.globl	_ZThn8_NK8CryptoPP8Rijndael3Dec21AdvancedProcessBlocksEPKhS3_Phmj 
	.p2align	1, 0x90
	.type	_ZThn8_NK8CryptoPP8Rijndael3Dec21AdvancedProcessBlocksEPKhS3_Phmj,@function
_ZThn8_NK8CryptoPP8Rijndael3Dec21AdvancedProcessBlocksEPKhS3_Phmj: 
	.cfi_startproc

	add	rdi, -8
	jmp	_ZNK8CryptoPP8Rijndael3Dec21AdvancedProcessBlocksEPKhS3_Phmj 
.Lfunc_end18:
	.size	_ZThn8_NK8CryptoPP8Rijndael3Dec21AdvancedProcessBlocksEPKhS3_Phmj, .Lfunc_end18-_ZThn8_NK8CryptoPP8Rijndael3Dec21AdvancedProcessBlocksEPKhS3_Phmj
	.cfi_endproc

	.section	.text._ZN8CryptoPP8Rijndael4BaseD0Ev,"axG",@progbits,_ZN8CryptoPP8Rijndael4BaseD0Ev,comdat
	.weak	_ZN8CryptoPP8Rijndael4BaseD0Ev 
	.p2align	1, 0x90
	.type	_ZN8CryptoPP8Rijndael4BaseD0Ev,@function
_ZN8CryptoPP8Rijndael4BaseD0Ev:         

	mov	eax, dword ptr [rip + x.72]
	mov	ecx, dword ptr [rip + y.73]
	mov	edx, eax
	neg	edx
	not	edx
	imul	edx, eax
	not	edx
	or	edx, -2
	mov	eax, -1
	cmp	edx, eax
	sete	byte ptr [rsp - 2]
	cmp	ecx, 10
	setl	byte ptr [rsp - 1]
	mov	ecx, -624693376
	mov	esi, -544885550
	jmp	.LBB19_1
.LBB19_3:                               
	cmp	edx, 260420818
	jne	.LBB19_1
	jmp	.LBB19_4
.LBB19_5:                               
	mov	al, byte ptr [rsp - 2]
	mov	cl, byte ptr [rsp - 1]
	mov	edx, eax
	xor	dl, cl
	mov	edx, -689134445
	cmovne	edx, esi
	test	cl, cl
	mov	ecx, edx
	cmovne	ecx, esi
	test	al, al
	cmove	ecx, edx
.LBB19_1:                               
	mov	edx, ecx
	and	edx, 268435455
	cmp	edx, 180612992
	je	.LBB19_5

	cmp	edx, 116171923
	jne	.LBB19_3
.LBB19_4:
	ud2
.Lfunc_end19:
	.size	_ZN8CryptoPP8Rijndael4BaseD0Ev, .Lfunc_end19-_ZN8CryptoPP8Rijndael4BaseD0Ev

	.section	.text._ZNK8CryptoPP25SimpleKeyingInterfaceImplINS_8TwoBasesINS_11BlockCipherENS_13Rijndael_InfoEEES4_E12MinKeyLengthEv,"axG",@progbits,_ZNK8CryptoPP25SimpleKeyingInterfaceImplINS_8TwoBasesINS_11BlockCipherENS_13Rijndael_InfoEEES4_E12MinKeyLengthEv,comdat
	.weak	_ZNK8CryptoPP25SimpleKeyingInterfaceImplINS_8TwoBasesINS_11BlockCipherENS_13Rijndael_InfoEEES4_E12MinKeyLengthEv 
	.p2align	1, 0x90
	.type	_ZNK8CryptoPP25SimpleKeyingInterfaceImplINS_8TwoBasesINS_11BlockCipherENS_13Rijndael_InfoEEES4_E12MinKeyLengthEv,@function
_ZNK8CryptoPP25SimpleKeyingInterfaceImplINS_8TwoBasesINS_11BlockCipherENS_13Rijndael_InfoEEES4_E12MinKeyLengthEv: 

	mov	eax, dword ptr [rip + x.74]
	mov	ecx, dword ptr [rip + y.75]
	lea	edx, [rax - 1]
	imul	edx, eax
	mov	esi, edx
	xor	esi, -2
	and	esi, edx
	sete	byte ptr [rsp - 2]
	sete	al
	cmp	ecx, 10
	setl	dl
	xor	dl, al
	mov	edi, 2117783500
	mov	edx, 1077388368
	cmovne	edx, edi
	test	esi, esi
	cmovne	edi, edx
	cmp	ecx, 10
	setl	byte ptr [rsp - 1]
	cmovge	edi, edx
	mov	edx, 1764052871
	mov	esi, -302301218
	jmp	.LBB20_1
.LBB20_5:                               
	cmp	edx, 1764052871
	jne	.LBB20_1

	mov	al, byte ptr [rsp - 2]
	mov	dl, byte ptr [rsp - 1]
	mov	ecx, eax
	xor	cl, dl
	mov	ecx, 1077388368
	cmovne	ecx, esi
	test	dl, dl
	mov	edx, ecx
	cmovne	edx, esi
	test	al, al
	cmove	edx, ecx
	jmp	.LBB20_1
.LBB20_3:                               
	mov	edx, edi
.LBB20_1:                               
	cmp	edx, 1764052870
	jg	.LBB20_4

	cmp	edx, -302301218
	je	.LBB20_3

	cmp	edx, 1077388368
	jne	.LBB20_1

	mov	edx, -302301218
	jmp	.LBB20_1
.LBB20_4:                               
	cmp	edx, 2117783500
	jne	.LBB20_5

	mov	eax, 16
	ret
.Lfunc_end20:
	.size	_ZNK8CryptoPP25SimpleKeyingInterfaceImplINS_8TwoBasesINS_11BlockCipherENS_13Rijndael_InfoEEES4_E12MinKeyLengthEv, .Lfunc_end20-_ZNK8CryptoPP25SimpleKeyingInterfaceImplINS_8TwoBasesINS_11BlockCipherENS_13Rijndael_InfoEEES4_E12MinKeyLengthEv

	.section	.text._ZNK8CryptoPP25SimpleKeyingInterfaceImplINS_8TwoBasesINS_11BlockCipherENS_13Rijndael_InfoEEES4_E12MaxKeyLengthEv,"axG",@progbits,_ZNK8CryptoPP25SimpleKeyingInterfaceImplINS_8TwoBasesINS_11BlockCipherENS_13Rijndael_InfoEEES4_E12MaxKeyLengthEv,comdat
	.weak	_ZNK8CryptoPP25SimpleKeyingInterfaceImplINS_8TwoBasesINS_11BlockCipherENS_13Rijndael_InfoEEES4_E12MaxKeyLengthEv 
	.p2align	1, 0x90
	.type	_ZNK8CryptoPP25SimpleKeyingInterfaceImplINS_8TwoBasesINS_11BlockCipherENS_13Rijndael_InfoEEES4_E12MaxKeyLengthEv,@function
_ZNK8CryptoPP25SimpleKeyingInterfaceImplINS_8TwoBasesINS_11BlockCipherENS_13Rijndael_InfoEEES4_E12MaxKeyLengthEv: 

	mov	eax, dword ptr [rip + x.76]
	mov	edi, dword ptr [rip + y.77]
	lea	edx, [rax - 1]
	imul	edx, eax
	not	edx
	or	edx, -2
	mov	r8d, -1
	cmp	edx, r8d
	sete	al
	cmp	edi, 10
	setl	cl
	xor	cl, al
	mov	esi, -1289483426
	mov	ecx, 1267805996
	cmovne	ecx, esi
	cmp	edx, r8d
	sete	byte ptr [rsp - 2]
	cmovne	esi, ecx
	cmp	edi, 10
	setl	byte ptr [rsp - 1]
	cmovge	esi, ecx
	mov	edx, -588938507
	mov	edi, -638003237
	jmp	.LBB21_1
.LBB21_3:                               
	cmp	edx, -638003237
	jne	.LBB21_1

	mov	edx, esi
	jmp	.LBB21_1
.LBB21_5:                               
	cmp	edx, 1267805996
	je	.LBB21_9

	cmp	edx, -588938507
	jne	.LBB21_1

	mov	al, byte ptr [rsp - 2]
	mov	dl, byte ptr [rsp - 1]
	mov	ecx, eax
	xor	cl, dl
	mov	ecx, 1267805996
	cmovne	ecx, edi
	test	dl, dl
	mov	edx, ecx
	cmovne	edx, edi
	test	al, al
	cmove	edx, ecx
	jmp	.LBB21_1
.LBB21_9:                               
	mov	edx, -638003237
.LBB21_1:                               
	cmp	edx, -588938508
	jg	.LBB21_5

	cmp	edx, -1289483426
	jne	.LBB21_3

	mov	eax, 32
	ret
.Lfunc_end21:
	.size	_ZNK8CryptoPP25SimpleKeyingInterfaceImplINS_8TwoBasesINS_11BlockCipherENS_13Rijndael_InfoEEES4_E12MaxKeyLengthEv, .Lfunc_end21-_ZNK8CryptoPP25SimpleKeyingInterfaceImplINS_8TwoBasesINS_11BlockCipherENS_13Rijndael_InfoEEES4_E12MaxKeyLengthEv

	.section	.text._ZNK8CryptoPP25SimpleKeyingInterfaceImplINS_8TwoBasesINS_11BlockCipherENS_13Rijndael_InfoEEES4_E16DefaultKeyLengthEv,"axG",@progbits,_ZNK8CryptoPP25SimpleKeyingInterfaceImplINS_8TwoBasesINS_11BlockCipherENS_13Rijndael_InfoEEES4_E16DefaultKeyLengthEv,comdat
	.weak	_ZNK8CryptoPP25SimpleKeyingInterfaceImplINS_8TwoBasesINS_11BlockCipherENS_13Rijndael_InfoEEES4_E16DefaultKeyLengthEv 
	.p2align	1, 0x90
	.type	_ZNK8CryptoPP25SimpleKeyingInterfaceImplINS_8TwoBasesINS_11BlockCipherENS_13Rijndael_InfoEEES4_E16DefaultKeyLengthEv,@function
_ZNK8CryptoPP25SimpleKeyingInterfaceImplINS_8TwoBasesINS_11BlockCipherENS_13Rijndael_InfoEEES4_E16DefaultKeyLengthEv: 

	mov	eax, 16
	ret
.Lfunc_end22:
	.size	_ZNK8CryptoPP25SimpleKeyingInterfaceImplINS_8TwoBasesINS_11BlockCipherENS_13Rijndael_InfoEEES4_E16DefaultKeyLengthEv, .Lfunc_end22-_ZNK8CryptoPP25SimpleKeyingInterfaceImplINS_8TwoBasesINS_11BlockCipherENS_13Rijndael_InfoEEES4_E16DefaultKeyLengthEv

	.section	.text._ZNK8CryptoPP25SimpleKeyingInterfaceImplINS_8TwoBasesINS_11BlockCipherENS_13Rijndael_InfoEEES4_E17GetValidKeyLengthEm,"axG",@progbits,_ZNK8CryptoPP25SimpleKeyingInterfaceImplINS_8TwoBasesINS_11BlockCipherENS_13Rijndael_InfoEEES4_E17GetValidKeyLengthEm,comdat
	.weak	_ZNK8CryptoPP25SimpleKeyingInterfaceImplINS_8TwoBasesINS_11BlockCipherENS_13Rijndael_InfoEEES4_E17GetValidKeyLengthEm 
	.p2align	1, 0x90
	.type	_ZNK8CryptoPP25SimpleKeyingInterfaceImplINS_8TwoBasesINS_11BlockCipherENS_13Rijndael_InfoEEES4_E17GetValidKeyLengthEm,@function
_ZNK8CryptoPP25SimpleKeyingInterfaceImplINS_8TwoBasesINS_11BlockCipherENS_13Rijndael_InfoEEES4_E17GetValidKeyLengthEm: 
	.cfi_startproc

	mov	rdi, rsi
	jmp	_ZN8CryptoPP17VariableKeyLengthILj16ELj16ELj32ELj8ELj4ELj0EE23StaticGetValidKeyLengthEm 
.Lfunc_end23:
	.size	_ZNK8CryptoPP25SimpleKeyingInterfaceImplINS_8TwoBasesINS_11BlockCipherENS_13Rijndael_InfoEEES4_E17GetValidKeyLengthEm, .Lfunc_end23-_ZNK8CryptoPP25SimpleKeyingInterfaceImplINS_8TwoBasesINS_11BlockCipherENS_13Rijndael_InfoEEES4_E17GetValidKeyLengthEm
	.cfi_endproc

	.section	.text._ZNK8CryptoPP21SimpleKeyingInterface16IsValidKeyLengthEm,"axG",@progbits,_ZNK8CryptoPP21SimpleKeyingInterface16IsValidKeyLengthEm,comdat
	.weak	_ZNK8CryptoPP21SimpleKeyingInterface16IsValidKeyLengthEm 
	.p2align	1, 0x90
	.type	_ZNK8CryptoPP21SimpleKeyingInterface16IsValidKeyLengthEm,@function
_ZNK8CryptoPP21SimpleKeyingInterface16IsValidKeyLengthEm: 
	.cfi_startproc

	push	rbx
.Lcfi126:
	.cfi_def_cfa_offset 16
.Lcfi127:
	.cfi_offset rbx, -16
	mov	rbx, rsi
	mov	rax, qword ptr [rdi]
	call	qword ptr [rax + 40]
	cmp	rax, rbx
	sete	al
	pop	rbx
	ret
.Lfunc_end24:
	.size	_ZNK8CryptoPP21SimpleKeyingInterface16IsValidKeyLengthEm, .Lfunc_end24-_ZNK8CryptoPP21SimpleKeyingInterface16IsValidKeyLengthEm
	.cfi_endproc

	.section	.text._ZNK8CryptoPP25SimpleKeyingInterfaceImplINS_8TwoBasesINS_11BlockCipherENS_13Rijndael_InfoEEES4_E13IVRequirementEv,"axG",@progbits,_ZNK8CryptoPP25SimpleKeyingInterfaceImplINS_8TwoBasesINS_11BlockCipherENS_13Rijndael_InfoEEES4_E13IVRequirementEv,comdat
	.weak	_ZNK8CryptoPP25SimpleKeyingInterfaceImplINS_8TwoBasesINS_11BlockCipherENS_13Rijndael_InfoEEES4_E13IVRequirementEv 
	.p2align	1, 0x90
	.type	_ZNK8CryptoPP25SimpleKeyingInterfaceImplINS_8TwoBasesINS_11BlockCipherENS_13Rijndael_InfoEEES4_E13IVRequirementEv,@function
_ZNK8CryptoPP25SimpleKeyingInterfaceImplINS_8TwoBasesINS_11BlockCipherENS_13Rijndael_InfoEEES4_E13IVRequirementEv: 

	mov	eax, dword ptr [rip + x.84]
	mov	esi, dword ptr [rip + y.85]
	lea	edx, [rax - 1]
	imul	edx, eax
	not	edx
	or	edx, -2
	mov	r8d, -1
	cmp	edx, r8d
	sete	al
	cmp	esi, 10
	setl	cl
	xor	cl, al
	mov	edi, 1195061549
	mov	ecx, 153581567
	cmovne	ecx, edi
	cmp	edx, r8d
	sete	byte ptr [rsp - 2]
	cmovne	edi, ecx
	cmp	esi, 10
	setl	byte ptr [rsp - 1]
	mov	r8d, 153581567
	cmovge	edi, ecx
	mov	esi, 1206265496
	mov	r9d, -1992952940
	jmp	.LBB25_1
.LBB25_5:                               
	cmp	esi, 1206265496
	jne	.LBB25_1

	mov	al, byte ptr [rsp - 2]
	mov	dl, byte ptr [rsp - 1]
	mov	ecx, eax
	xor	cl, dl
	test	dl, dl
	mov	esi, 153581567
	cmovne	esi, r9d
	test	al, al
	cmove	esi, r8d
	test	cl, cl
	cmovne	esi, r9d
	jmp	.LBB25_1
.LBB25_3:                               
	mov	esi, edi
.LBB25_1:                               
	cmp	esi, 1195061548
	jg	.LBB25_4

	cmp	esi, -1992952940
	je	.LBB25_3

	cmp	esi, 153581567
	jne	.LBB25_1

	mov	esi, -1992952940
	jmp	.LBB25_1
.LBB25_4:                               
	cmp	esi, 1195061549
	jne	.LBB25_5

	mov	eax, 4
	ret
.Lfunc_end25:
	.size	_ZNK8CryptoPP25SimpleKeyingInterfaceImplINS_8TwoBasesINS_11BlockCipherENS_13Rijndael_InfoEEES4_E13IVRequirementEv, .Lfunc_end25-_ZNK8CryptoPP25SimpleKeyingInterfaceImplINS_8TwoBasesINS_11BlockCipherENS_13Rijndael_InfoEEES4_E13IVRequirementEv

	.section	.text._ZNK8CryptoPP25SimpleKeyingInterfaceImplINS_8TwoBasesINS_11BlockCipherENS_13Rijndael_InfoEEES4_E6IVSizeEv,"axG",@progbits,_ZNK8CryptoPP25SimpleKeyingInterfaceImplINS_8TwoBasesINS_11BlockCipherENS_13Rijndael_InfoEEES4_E6IVSizeEv,comdat
	.weak	_ZNK8CryptoPP25SimpleKeyingInterfaceImplINS_8TwoBasesINS_11BlockCipherENS_13Rijndael_InfoEEES4_E6IVSizeEv 
	.p2align	1, 0x90
	.type	_ZNK8CryptoPP25SimpleKeyingInterfaceImplINS_8TwoBasesINS_11BlockCipherENS_13Rijndael_InfoEEES4_E6IVSizeEv,@function
_ZNK8CryptoPP25SimpleKeyingInterfaceImplINS_8TwoBasesINS_11BlockCipherENS_13Rijndael_InfoEEES4_E6IVSizeEv: 

	xor	eax, eax
	ret
.Lfunc_end26:
	.size	_ZNK8CryptoPP25SimpleKeyingInterfaceImplINS_8TwoBasesINS_11BlockCipherENS_13Rijndael_InfoEEES4_E6IVSizeEv, .Lfunc_end26-_ZNK8CryptoPP25SimpleKeyingInterfaceImplINS_8TwoBasesINS_11BlockCipherENS_13Rijndael_InfoEEES4_E6IVSizeEv

	.section	.text._ZNK8CryptoPP21SimpleKeyingInterface11MinIVLengthEv,"axG",@progbits,_ZNK8CryptoPP21SimpleKeyingInterface11MinIVLengthEv,comdat
	.weak	_ZNK8CryptoPP21SimpleKeyingInterface11MinIVLengthEv 
	.p2align	1, 0x90
	.type	_ZNK8CryptoPP21SimpleKeyingInterface11MinIVLengthEv,@function
_ZNK8CryptoPP21SimpleKeyingInterface11MinIVLengthEv: 
	.cfi_startproc

	mov	rax, qword ptr [rdi]
	jmp	qword ptr [rax + 72]    
.Lfunc_end27:
	.size	_ZNK8CryptoPP21SimpleKeyingInterface11MinIVLengthEv, .Lfunc_end27-_ZNK8CryptoPP21SimpleKeyingInterface11MinIVLengthEv
	.cfi_endproc

	.section	.text._ZNK8CryptoPP21SimpleKeyingInterface11MaxIVLengthEv,"axG",@progbits,_ZNK8CryptoPP21SimpleKeyingInterface11MaxIVLengthEv,comdat
	.weak	_ZNK8CryptoPP21SimpleKeyingInterface11MaxIVLengthEv 
	.p2align	1, 0x90
	.type	_ZNK8CryptoPP21SimpleKeyingInterface11MaxIVLengthEv,@function
_ZNK8CryptoPP21SimpleKeyingInterface11MaxIVLengthEv: 
	.cfi_startproc

	push	rbp
.Lcfi128:
	.cfi_def_cfa_offset 16
	push	r15
.Lcfi129:
	.cfi_def_cfa_offset 24
	push	r14
.Lcfi130:
	.cfi_def_cfa_offset 32
	push	rbx
.Lcfi131:
	.cfi_def_cfa_offset 40
	push	rax
.Lcfi132:
	.cfi_def_cfa_offset 48
.Lcfi133:
	.cfi_offset rbx, -40
.Lcfi134:
	.cfi_offset r14, -32
.Lcfi135:
	.cfi_offset r15, -24
.Lcfi136:
	.cfi_offset rbp, -16
	mov	eax, dword ptr [rip + x.90]
	mov	ecx, eax
	neg	ecx
	not	ecx
	imul	ecx, eax
	not	ecx
	or	ecx, -2
	mov	eax, -1
	cmp	ecx, eax
	sete	byte ptr [rsp + 2]
	mov	eax, dword ptr [rip + y.91]
	cmp	eax, 10
	setl	byte ptr [rsp + 3]
	mov	rbp, rdi
	mov	ecx, -489939263
	mov	r14d, -1631311830
	mov	r15d, -1441932317
	jmp	.LBB28_1
.LBB28_3:                               
	cmp	eax, 705551331
	jne	.LBB28_1

	mov	rax, qword ptr [rbp]
	mov	rdi, rbp
	call	qword ptr [rax + 72]
	mov	ecx, dword ptr [rip + x.90]
	mov	edi, dword ptr [rip + y.91]
	lea	esi, [rcx - 1]
	imul	esi, ecx
	mov	ecx, esi
	xor	ecx, -2
	and	ecx, esi
	sete	bl
	cmp	edi, 10
	setl	dl
	xor	dl, bl
	mov	edx, -365368459
	cmovne	edx, r14d
	test	ecx, ecx
	mov	ecx, edx
	cmove	ecx, r14d
	cmp	edi, 10
	mov	dword ptr [rsp + 4], eax
	cmovge	ecx, edx
	jmp	.LBB28_1
.LBB28_5:                               
	cmp	eax, 1782115189
	je	.LBB28_9

	cmp	eax, 1657544385
	jne	.LBB28_1

	mov	al, byte ptr [rsp + 2]
	mov	cl, byte ptr [rsp + 3]
	mov	edx, eax
	xor	dl, cl
	mov	edx, -365368459
	cmovne	edx, r15d
	test	cl, cl
	mov	ecx, edx
	cmovne	ecx, r15d
	test	al, al
	cmove	ecx, edx
	jmp	.LBB28_1
.LBB28_9:                               
	mov	rax, qword ptr [rbp]
	mov	rdi, rbp
	call	qword ptr [rax + 72]
	mov	ecx, -1441932317
.LBB28_1:                               
	mov	eax, ecx
	and	eax, 2147483647
	cmp	eax, 1657544384
	jg	.LBB28_5

	cmp	eax, 516171818
	jne	.LBB28_3

	mov	eax, dword ptr [rsp + 4]
	add	rsp, 8
	pop	rbx
	pop	r14
	pop	r15
	pop	rbp
	ret
.Lfunc_end28:
	.size	_ZNK8CryptoPP21SimpleKeyingInterface11MaxIVLengthEv, .Lfunc_end28-_ZNK8CryptoPP21SimpleKeyingInterface11MaxIVLengthEv
	.cfi_endproc

	.section	.text._ZN8CryptoPP21SimpleKeyingInterface13ResynchronizeEPKhi,"axG",@progbits,_ZN8CryptoPP21SimpleKeyingInterface13ResynchronizeEPKhi,comdat
	.weak	_ZN8CryptoPP21SimpleKeyingInterface13ResynchronizeEPKhi 
	.p2align	1, 0x90
	.type	_ZN8CryptoPP21SimpleKeyingInterface13ResynchronizeEPKhi,@function
_ZN8CryptoPP21SimpleKeyingInterface13ResynchronizeEPKhi: 
.Lfunc_begin1:
	.cfi_startproc
	.cfi_personality 3, __gxx_personality_v0
	.cfi_lsda 3, .Lexception1

	push	r15
.Lcfi137:
	.cfi_def_cfa_offset 16
	push	r14
.Lcfi138:
	.cfi_def_cfa_offset 24
	push	r12
.Lcfi139:
	.cfi_def_cfa_offset 32
	push	rbx
.Lcfi140:
	.cfi_def_cfa_offset 40
	sub	rsp, 72
.Lcfi141:
	.cfi_def_cfa_offset 112
.Lcfi142:
	.cfi_offset rbx, -40
.Lcfi143:
	.cfi_offset r12, -32
.Lcfi144:
	.cfi_offset r14, -24
.Lcfi145:
	.cfi_offset r15, -16
	mov	rbx, rdi
	mov	edi, 48
	call	__cxa_allocate_exception
	mov	r15, rax
	mov	rax, qword ptr [rbx]
.Ltmp6:
	mov	rdi, rbx
	call	qword ptr [rax + 112]
.Ltmp7:

	mov	rcx, qword ptr [rax]
.Ltmp8:
	lea	rdi, [rsp + 40]
	mov	rsi, rax
	call	qword ptr [rcx + 24]
.Ltmp9:

	lea	r12, [rsp + 24]
	lea	r14, [rsp + 8]
	lea	rbx, [rsp + 40]
	mov	rdi, r14
	mov	rsi, rbx
	call	_ZN9__gnu_cxx13new_allocatorIcEC2ERKS1_
	mov	qword ptr [r14], r12
	mov	rsi, qword ptr [rbx]
	mov	rdx, qword ptr [rbx + 8]
	add	rdx, rsi
.Ltmp11:
	mov	rdi, r14
	call	_ZNSt7__cxx1112basic_stringIcSt11char_traitsIcESaIcEE12_M_constructIPcEEvT_S7_St20forward_iterator_tag
.Ltmp12:

.Ltmp14:
	lea	rdi, [rsp + 8]
	mov	esi, .L.str.2
	call	_ZNSt7__cxx1112basic_stringIcSt11char_traitsIcESaIcEE6appendEPKc
.Ltmp15:

	mov	bl, 1
.Ltmp17:
	lea	rdx, [rsp + 8]
	xor	esi, esi
	mov	rdi, r15
	call	_ZN8CryptoPP9ExceptionC2ENS0_9ErrorTypeERKNSt7__cxx1112basic_stringIcSt11char_traitsIcESaIcEEE
.Ltmp18:

	mov	qword ptr [r15], _ZTVN8CryptoPP14NotImplementedE+16
	xor	ebx, ebx
.Ltmp19:
	mov	esi, _ZTIN8CryptoPP14NotImplementedE
	mov	edx, _ZN8CryptoPP9ExceptionD2Ev
	mov	rdi, r15
	call	__cxa_throw
.Ltmp20:

.LBB29_6:
.Ltmp16:
	mov	r14, rax
	mov	rsi, qword ptr [rsp + 8]
	cmp	rsi, r12
	je	.LBB29_10

	lea	rdi, [rsp + 8]
	mov	rdx, qword ptr [rdi + 16]
	inc	rdx
	call	_ZN9__gnu_cxx13new_allocatorIcE10deallocateEPcm
	jmp	.LBB29_10
.LBB29_9:
.Ltmp13:
	mov	r14, rax
.LBB29_10:
	mov	bl, 1
	jmp	.LBB29_13
.LBB29_11:
.Ltmp21:
	mov	r14, rax
	mov	rsi, qword ptr [rsp + 8]
	cmp	rsi, r12
	je	.LBB29_13

	lea	rdi, [rsp + 8]
	mov	rax, qword ptr [rdi + 16]
	neg	rax
	mov	edx, 1
	sub	rdx, rax
	call	_ZN9__gnu_cxx13new_allocatorIcE10deallocateEPcm
.LBB29_13:
	lea	rax, [rsp + 56]
	mov	rsi, qword ptr [rax - 16]
	cmp	rsi, rax
	je	.LBB29_15

	lea	rdi, [rsp + 40]
	mov	rax, qword ptr [rdi + 16]
	movabs	rcx, 8599555869644203329
	sub	rax, rcx
	lea	rdx, [rax + rcx + 1]
	call	_ZN9__gnu_cxx13new_allocatorIcE10deallocateEPcm
.LBB29_15:
	test	bl, bl
	jne	.LBB29_16
	jmp	.LBB29_17
.LBB29_8:
.Ltmp10:
	mov	r14, rax
.LBB29_16:
	mov	rdi, r15
	call	__cxa_free_exception
.LBB29_17:
	mov	rdi, r14
	call	_Unwind_Resume
.Lfunc_end29:
	.size	_ZN8CryptoPP21SimpleKeyingInterface13ResynchronizeEPKhi, .Lfunc_end29-_ZN8CryptoPP21SimpleKeyingInterface13ResynchronizeEPKhi
	.cfi_endproc
	.section	.gcc_except_table,"a",@progbits
	.p2align	2
GCC_except_table29:
.Lexception1:
	.byte	255                     
	.byte	3                       
	.asciz	"\320"                  
	.byte	3                       
	.byte	78                      
	.long	.Lfunc_begin1-.Lfunc_begin1 
	.long	.Ltmp6-.Lfunc_begin1    
	.long	0                       
	.byte	0                       
	.long	.Ltmp6-.Lfunc_begin1    
	.long	.Ltmp9-.Ltmp6           
	.long	.Ltmp10-.Lfunc_begin1   
	.byte	0                       
	.long	.Ltmp11-.Lfunc_begin1   
	.long	.Ltmp12-.Ltmp11         
	.long	.Ltmp13-.Lfunc_begin1   
	.byte	0                       
	.long	.Ltmp14-.Lfunc_begin1   
	.long	.Ltmp15-.Ltmp14         
	.long	.Ltmp16-.Lfunc_begin1   
	.byte	0                       
	.long	.Ltmp17-.Lfunc_begin1   
	.long	.Ltmp20-.Ltmp17         
	.long	.Ltmp21-.Lfunc_begin1   
	.byte	0                       
	.long	.Ltmp20-.Lfunc_begin1   
	.long	.Lfunc_end29-.Ltmp20    
	.long	0                       
	.byte	0                       
	.p2align	2

	.section	.text._ZNK8CryptoPP11BlockCipher12GetAlgorithmEv,"axG",@progbits,_ZNK8CryptoPP11BlockCipher12GetAlgorithmEv,comdat
	.weak	_ZNK8CryptoPP11BlockCipher12GetAlgorithmEv 
	.p2align	1, 0x90
	.type	_ZNK8CryptoPP11BlockCipher12GetAlgorithmEv,@function
_ZNK8CryptoPP11BlockCipher12GetAlgorithmEv: 

	lea	rax, [rdi + 8]
	ret
.Lfunc_end30:
	.size	_ZNK8CryptoPP11BlockCipher12GetAlgorithmEv, .Lfunc_end30-_ZNK8CryptoPP11BlockCipher12GetAlgorithmEv

	.section	.text._ZNK8CryptoPP13AlgorithmImplINS_25SimpleKeyingInterfaceImplINS_8TwoBasesINS_11BlockCipherENS_13Rijndael_InfoEEES5_EES6_E13AlgorithmNameB5cxx11Ev,"axG",@progbits,_ZNK8CryptoPP13AlgorithmImplINS_25SimpleKeyingInterfaceImplINS_8TwoBasesINS_11BlockCipherENS_13Rijndael_InfoEEES5_EES6_E13AlgorithmNameB5cxx11Ev,comdat
	.weak	_ZNK8CryptoPP13AlgorithmImplINS_25SimpleKeyingInterfaceImplINS_8TwoBasesINS_11BlockCipherENS_13Rijndael_InfoEEES5_EES6_E13AlgorithmNameB5cxx11Ev 
	.p2align	1, 0x90
	.type	_ZNK8CryptoPP13AlgorithmImplINS_25SimpleKeyingInterfaceImplINS_8TwoBasesINS_11BlockCipherENS_13Rijndael_InfoEEES5_EES6_E13AlgorithmNameB5cxx11Ev,@function
_ZNK8CryptoPP13AlgorithmImplINS_25SimpleKeyingInterfaceImplINS_8TwoBasesINS_11BlockCipherENS_13Rijndael_InfoEEES5_EES6_E13AlgorithmNameB5cxx11Ev: 
.Lfunc_begin2:
	.cfi_startproc
	.cfi_personality 3, __gxx_personality_v0
	.cfi_lsda 3, .Lexception2

	push	rbx
.Lcfi146:
	.cfi_def_cfa_offset 16
	sub	rsp, 16
.Lcfi147:
	.cfi_def_cfa_offset 32
.Lcfi148:
	.cfi_offset rbx, -16
	mov	rbx, rdi
.Ltmp22:
	lea	rdx, [rsp + 8]
	mov	esi, .L.str.9
	call	_ZNSt7__cxx1112basic_stringIcSt11char_traitsIcESaIcEEC2EPKcRKS3_
.Ltmp23:

	mov	rax, rbx
	add	rsp, 16
	pop	rbx
	ret
.LBB31_2:
.Ltmp24:
	mov	rdi, rax
	call	_Unwind_Resume
.Lfunc_end31:
	.size	_ZNK8CryptoPP13AlgorithmImplINS_25SimpleKeyingInterfaceImplINS_8TwoBasesINS_11BlockCipherENS_13Rijndael_InfoEEES5_EES6_E13AlgorithmNameB5cxx11Ev, .Lfunc_end31-_ZNK8CryptoPP13AlgorithmImplINS_25SimpleKeyingInterfaceImplINS_8TwoBasesINS_11BlockCipherENS_13Rijndael_InfoEEES5_EES6_E13AlgorithmNameB5cxx11Ev
	.cfi_endproc
	.section	.gcc_except_table,"a",@progbits
	.p2align	2
GCC_except_table31:
.Lexception2:
	.byte	255                     
	.byte	3                       
	.asciz	"\234"                  
	.byte	3                       
	.byte	26                      
	.long	.Ltmp22-.Lfunc_begin2   
	.long	.Ltmp23-.Ltmp22         
	.long	.Ltmp24-.Lfunc_begin2   
	.byte	0                       
	.long	.Ltmp23-.Lfunc_begin2   
	.long	.Lfunc_end31-.Ltmp23    
	.long	0                       
	.byte	0                       
	.p2align	2

	.section	.text._ZNK8CryptoPP15BlockCipherImplINS_13Rijndael_InfoENS_11BlockCipherEE9BlockSizeEv,"axG",@progbits,_ZNK8CryptoPP15BlockCipherImplINS_13Rijndael_InfoENS_11BlockCipherEE9BlockSizeEv,comdat
	.weak	_ZNK8CryptoPP15BlockCipherImplINS_13Rijndael_InfoENS_11BlockCipherEE9BlockSizeEv 
	.p2align	1, 0x90
	.type	_ZNK8CryptoPP15BlockCipherImplINS_13Rijndael_InfoENS_11BlockCipherEE9BlockSizeEv,@function
_ZNK8CryptoPP15BlockCipherImplINS_13Rijndael_InfoENS_11BlockCipherEE9BlockSizeEv: 

	mov	eax, 16
	ret
.Lfunc_end32:
	.size	_ZNK8CryptoPP15BlockCipherImplINS_13Rijndael_InfoENS_11BlockCipherEE9BlockSizeEv, .Lfunc_end32-_ZNK8CryptoPP15BlockCipherImplINS_13Rijndael_InfoENS_11BlockCipherEE9BlockSizeEv

	.section	.text._ZThn8_N8CryptoPP8Rijndael4BaseD1Ev,"axG",@progbits,_ZThn8_N8CryptoPP8Rijndael4BaseD1Ev,comdat
	.weak	_ZThn8_N8CryptoPP8Rijndael4BaseD1Ev 
	.p2align	1, 0x90
	.type	_ZThn8_N8CryptoPP8Rijndael4BaseD1Ev,@function
_ZThn8_N8CryptoPP8Rijndael4BaseD1Ev:    
	.cfi_startproc

	push	rbp
.Lcfi149:
	.cfi_def_cfa_offset 16
	push	r15
.Lcfi150:
	.cfi_def_cfa_offset 24
	push	r14
.Lcfi151:
	.cfi_def_cfa_offset 32
	push	rbx
.Lcfi152:
	.cfi_def_cfa_offset 40
	push	rax
.Lcfi153:
	.cfi_def_cfa_offset 48
.Lcfi154:
	.cfi_offset rbx, -40
.Lcfi155:
	.cfi_offset r14, -32
.Lcfi156:
	.cfi_offset r15, -24
.Lcfi157:
	.cfi_offset rbp, -16
	mov	rbx, rdi
	mov	eax, dword ptr [rip + x.96]
	mov	ecx, dword ptr [rip + y.97]
	lea	edx, [rax - 1]
	imul	edx, eax
	mov	eax, edx
	xor	eax, -2
	test	eax, edx
	sete	byte ptr [rsp + 6]
	cmp	ecx, 10
	setl	byte ptr [rsp + 7]
	add	rbx, -8
	mov	eax, 1169817556
	mov	r15d, -1193541609
	mov	r14d, 503283744
	mov	ebp, 2147151875
	jmp	.LBB33_1
.LBB33_3:                               
	cmp	eax, 503283744
	jne	.LBB33_1

	mov	rdi, rbx
	call	_ZN8CryptoPP8Rijndael4BaseD2Ev
	mov	eax, 2147151875
	jmp	.LBB33_1
.LBB33_5:                               
	cmp	eax, 2147151875
	je	.LBB33_8

	cmp	eax, 1169817556
	jne	.LBB33_1

	mov	cl, byte ptr [rsp + 6]
	mov	al, byte ptr [rsp + 7]
	mov	edx, ecx
	xor	dl, al
	mov	edx, 503283744
	cmovne	edx, ebp
	test	al, al
	mov	eax, edx
	cmovne	eax, ebp
	test	cl, cl
	cmove	eax, edx
	jmp	.LBB33_1
.LBB33_8:                               
	mov	rdi, rbx
	call	_ZN8CryptoPP8Rijndael4BaseD2Ev
	mov	eax, dword ptr [rip + x.96]
	lea	ecx, [rax - 1]
	imul	ecx, eax
	mov	eax, ecx
	xor	eax, -2
	and	eax, ecx
	sete	cl
	test	eax, eax
	mov	eax, 503283744
	cmove	eax, r15d
	cmp	dword ptr [rip + y.97], 10
	setl	dl
	cmovge	eax, r14d
	xor	dl, cl
	cmovne	eax, r15d
.LBB33_1:                               
	cmp	eax, 1169817555
	jg	.LBB33_5

	cmp	eax, -1193541609
	jne	.LBB33_3

	add	rsp, 8
	pop	rbx
	pop	r14
	pop	r15
	pop	rbp
	ret
.Lfunc_end33:
	.size	_ZThn8_N8CryptoPP8Rijndael4BaseD1Ev, .Lfunc_end33-_ZThn8_N8CryptoPP8Rijndael4BaseD1Ev
	.cfi_endproc

	.section	.text._ZThn8_N8CryptoPP8Rijndael4BaseD0Ev,"axG",@progbits,_ZThn8_N8CryptoPP8Rijndael4BaseD0Ev,comdat
	.weak	_ZThn8_N8CryptoPP8Rijndael4BaseD0Ev 
	.p2align	1, 0x90
	.type	_ZThn8_N8CryptoPP8Rijndael4BaseD0Ev,@function
_ZThn8_N8CryptoPP8Rijndael4BaseD0Ev:    
	.cfi_startproc

	mov	eax, dword ptr [rip + x.98]
	lea	ecx, [rax - 1]
	imul	ecx, eax
	mov	eax, ecx
	xor	eax, -2
	test	eax, ecx
	sete	byte ptr [rsp - 6]
	mov	eax, dword ptr [rip + y.99]
	cmp	eax, 10
	setl	byte ptr [rsp - 5]
	mov	edx, 14942526
	mov	edi, 2107262465
	mov	esi, -303846562
	jmp	.LBB34_1
.LBB34_2:                               
	cmp	edx, 2107262465
	je	.LBB34_5

	cmp	edx, 14942526
	jne	.LBB34_1

	mov	al, byte ptr [rsp - 6]
	mov	dl, byte ptr [rsp - 5]
	mov	ecx, eax
	xor	cl, dl
	test	dl, dl
	mov	edx, -303846562
	cmovne	edx, edi
	test	al, al
	cmove	edx, esi
	test	cl, cl
	cmovne	edx, edi
.LBB34_1:                               
	cmp	edx, -303846562
	jne	.LBB34_2

	mov	eax, dword ptr [rip + x.72]
	mov	ecx, dword ptr [rip + y.73]
	lea	edx, [rax - 1]
	imul	edx, eax
	not	edx
	or	edx, -2
	mov	eax, -1
	cmp	edx, eax
	sete	byte ptr [rsp - 2]
	cmp	ecx, 10
	setl	byte ptr [rsp - 1]
	mov	ecx, -624693376
	mov	esi, -544885550
	jmp	.LBB34_11
.LBB34_13:                              
	cmp	edx, 260420818
	jne	.LBB34_11
	jmp	.LBB34_9
.LBB34_15:                              
	mov	al, byte ptr [rsp - 2]
	mov	cl, byte ptr [rsp - 1]
	mov	edx, eax
	xor	dl, cl
	mov	edx, -689134445
	cmovne	edx, esi
	test	cl, cl
	mov	ecx, edx
	cmovne	ecx, esi
	test	al, al
	cmove	ecx, edx
.LBB34_11:                              
	mov	edx, ecx
	and	edx, 268435455
	cmp	edx, 180612992
	je	.LBB34_15

	cmp	edx, 116171923
	jne	.LBB34_13
	jmp	.LBB34_9
.LBB34_5:
	mov	eax, dword ptr [rip + x.72]
	lea	ecx, [rax - 1]
	imul	ecx, eax
	mov	eax, ecx
	xor	eax, -2
	test	eax, ecx
	sete	byte ptr [rsp - 4]
	mov	eax, dword ptr [rip + y.73]
	cmp	eax, 10
	setl	byte ptr [rsp - 3]
	mov	edx, -624693376
	mov	edi, -544885550
	mov	r8d, -689134445
	jmp	.LBB34_6
.LBB34_14:                              
	mov	al, byte ptr [rsp - 4]
	mov	dl, byte ptr [rsp - 3]
	mov	ecx, eax
	xor	cl, dl
	test	dl, dl
	mov	edx, -689134445
	cmovne	edx, edi
	test	al, al
	cmove	edx, r8d
	test	cl, cl
	cmovne	edx, edi
.LBB34_6:                               
	mov	esi, edx
	and	esi, 268435455
	cmp	esi, 180612992
	je	.LBB34_14

	cmp	esi, 116171923
	je	.LBB34_9

	cmp	esi, 260420818
	jne	.LBB34_6
.LBB34_9:
	ud2
.Lfunc_end34:
	.size	_ZThn8_N8CryptoPP8Rijndael4BaseD0Ev, .Lfunc_end34-_ZThn8_N8CryptoPP8Rijndael4BaseD0Ev
	.cfi_endproc

	.section	.text._ZNK8CryptoPP8Clonable5CloneEv,"axG",@progbits,_ZNK8CryptoPP8Clonable5CloneEv,comdat
	.weak	_ZNK8CryptoPP8Clonable5CloneEv 
	.p2align	1, 0x90
	.type	_ZNK8CryptoPP8Clonable5CloneEv,@function
_ZNK8CryptoPP8Clonable5CloneEv:         
.Lfunc_begin3:
	.cfi_startproc
	.cfi_personality 3, __gxx_personality_v0
	.cfi_lsda 3, .Lexception3

	push	rbp
.Lcfi158:
	.cfi_def_cfa_offset 16
	push	r14
.Lcfi159:
	.cfi_def_cfa_offset 24
	push	rbx
.Lcfi160:
	.cfi_def_cfa_offset 32
	sub	rsp, 48
.Lcfi161:
	.cfi_def_cfa_offset 80
.Lcfi162:
	.cfi_offset rbx, -32
.Lcfi163:
	.cfi_offset r14, -24
.Lcfi164:
	.cfi_offset rbp, -16
	mov	edi, 48
	call	__cxa_allocate_exception
	mov	rbx, rax
.Ltmp25:
	lea	rdi, [rsp + 16]
	lea	rdx, [rsp + 8]
	mov	esi, .L.str.5
	call	_ZNSt7__cxx1112basic_stringIcSt11char_traitsIcESaIcEEC2EPKcRKS3_
.Ltmp26:

	mov	bpl, 1
.Ltmp28:
	lea	rdx, [rsp + 16]
	xor	esi, esi
	mov	rdi, rbx
	call	_ZN8CryptoPP9ExceptionC2ENS0_9ErrorTypeERKNSt7__cxx1112basic_stringIcSt11char_traitsIcESaIcEEE
.Ltmp29:

	mov	qword ptr [rbx], _ZTVN8CryptoPP14NotImplementedE+16
	xor	ebp, ebp
.Ltmp30:
	mov	esi, _ZTIN8CryptoPP14NotImplementedE
	mov	edx, _ZN8CryptoPP9ExceptionD2Ev
	mov	rdi, rbx
	call	__cxa_throw
.Ltmp31:

.LBB35_3:
.Ltmp27:
	mov	r14, rax
	jmp	.LBB35_7
.LBB35_4:
.Ltmp32:
	mov	r14, rax
	lea	rax, [rsp + 32]
	mov	rsi, qword ptr [rax - 16]
	cmp	rsi, rax
	je	.LBB35_6

	lea	rdi, [rsp + 16]
	mov	rax, qword ptr [rdi + 16]
	movabs	rcx, -6295286192531012035
	lea	rdx, [rax + rcx + 1]
	sub	rdx, rcx
	call	_ZN9__gnu_cxx13new_allocatorIcE10deallocateEPcm
.LBB35_6:
	test	bpl, bpl
	je	.LBB35_8
.LBB35_7:
	mov	rdi, rbx
	call	__cxa_free_exception
.LBB35_8:
	mov	rdi, r14
	call	_Unwind_Resume
.Lfunc_end35:
	.size	_ZNK8CryptoPP8Clonable5CloneEv, .Lfunc_end35-_ZNK8CryptoPP8Clonable5CloneEv
	.cfi_endproc
	.section	.gcc_except_table,"a",@progbits
	.p2align	2
GCC_except_table35:
.Lexception3:
	.byte	255                     
	.byte	3                       
	.asciz	"\266\200\200"          
	.byte	3                       
	.byte	52                      
	.long	.Lfunc_begin3-.Lfunc_begin3 
	.long	.Ltmp25-.Lfunc_begin3   
	.long	0                       
	.byte	0                       
	.long	.Ltmp25-.Lfunc_begin3   
	.long	.Ltmp26-.Ltmp25         
	.long	.Ltmp27-.Lfunc_begin3   
	.byte	0                       
	.long	.Ltmp28-.Lfunc_begin3   
	.long	.Ltmp31-.Ltmp28         
	.long	.Ltmp32-.Lfunc_begin3   
	.byte	0                       
	.long	.Ltmp31-.Lfunc_begin3   
	.long	.Lfunc_end35-.Ltmp31    
	.long	0                       
	.byte	0                       
	.p2align	2

	.section	.text._ZThn8_NK8CryptoPP13AlgorithmImplINS_25SimpleKeyingInterfaceImplINS_8TwoBasesINS_11BlockCipherENS_13Rijndael_InfoEEES5_EES6_E13AlgorithmNameB5cxx11Ev,"axG",@progbits,_ZThn8_NK8CryptoPP13AlgorithmImplINS_25SimpleKeyingInterfaceImplINS_8TwoBasesINS_11BlockCipherENS_13Rijndael_InfoEEES5_EES6_E13AlgorithmNameB5cxx11Ev,comdat
	.weak	_ZThn8_NK8CryptoPP13AlgorithmImplINS_25SimpleKeyingInterfaceImplINS_8TwoBasesINS_11BlockCipherENS_13Rijndael_InfoEEES5_EES6_E13AlgorithmNameB5cxx11Ev 
	.p2align	1, 0x90
	.type	_ZThn8_NK8CryptoPP13AlgorithmImplINS_25SimpleKeyingInterfaceImplINS_8TwoBasesINS_11BlockCipherENS_13Rijndael_InfoEEES5_EES6_E13AlgorithmNameB5cxx11Ev,@function
_ZThn8_NK8CryptoPP13AlgorithmImplINS_25SimpleKeyingInterfaceImplINS_8TwoBasesINS_11BlockCipherENS_13Rijndael_InfoEEES5_EES6_E13AlgorithmNameB5cxx11Ev: 
.Lfunc_begin4:
	.cfi_startproc
	.cfi_personality 3, __gxx_personality_v0
	.cfi_lsda 3, .Lexception4

	push	rbx
.Lcfi165:
	.cfi_def_cfa_offset 16
	sub	rsp, 16
.Lcfi166:
	.cfi_def_cfa_offset 32
.Lcfi167:
	.cfi_offset rbx, -16
	mov	rbx, rdi
.Ltmp33:
	lea	rdx, [rsp + 8]
	mov	esi, .L.str.9
	call	_ZNSt7__cxx1112basic_stringIcSt11char_traitsIcESaIcEEC2EPKcRKS3_
.Ltmp34:

	mov	rax, rbx
	add	rsp, 16
	pop	rbx
	ret
.LBB36_2:
.Ltmp35:
	mov	rdi, rax
	call	_Unwind_Resume
.Lfunc_end36:
	.size	_ZThn8_NK8CryptoPP13AlgorithmImplINS_25SimpleKeyingInterfaceImplINS_8TwoBasesINS_11BlockCipherENS_13Rijndael_InfoEEES5_EES6_E13AlgorithmNameB5cxx11Ev, .Lfunc_end36-_ZThn8_NK8CryptoPP13AlgorithmImplINS_25SimpleKeyingInterfaceImplINS_8TwoBasesINS_11BlockCipherENS_13Rijndael_InfoEEES5_EES6_E13AlgorithmNameB5cxx11Ev
	.cfi_endproc
	.section	.gcc_except_table,"a",@progbits
	.p2align	2
GCC_except_table36:
.Lexception4:
	.byte	255                     
	.byte	3                       
	.asciz	"\234"                  
	.byte	3                       
	.byte	26                      
	.long	.Ltmp33-.Lfunc_begin4   
	.long	.Ltmp34-.Ltmp33         
	.long	.Ltmp35-.Lfunc_begin4   
	.byte	0                       
	.long	.Ltmp34-.Lfunc_begin4   
	.long	.Lfunc_end36-.Ltmp34    
	.long	0                       
	.byte	0                       
	.p2align	2

	.section	.text._ZThn8_NK8CryptoPP15BlockCipherImplINS_13Rijndael_InfoENS_11BlockCipherEE9BlockSizeEv,"axG",@progbits,_ZThn8_NK8CryptoPP15BlockCipherImplINS_13Rijndael_InfoENS_11BlockCipherEE9BlockSizeEv,comdat
	.weak	_ZThn8_NK8CryptoPP15BlockCipherImplINS_13Rijndael_InfoENS_11BlockCipherEE9BlockSizeEv 
	.p2align	1, 0x90
	.type	_ZThn8_NK8CryptoPP15BlockCipherImplINS_13Rijndael_InfoENS_11BlockCipherEE9BlockSizeEv,@function
_ZThn8_NK8CryptoPP15BlockCipherImplINS_13Rijndael_InfoENS_11BlockCipherEE9BlockSizeEv: 
	.cfi_startproc

	mov	eax, dword ptr [rip + x.102]
	mov	esi, dword ptr [rip + y.103]
	mov	ecx, eax
	neg	ecx
	not	ecx
	imul	ecx, eax
	mov	eax, ecx
	xor	eax, -2
	and	eax, ecx
	sete	dl
	sete	byte ptr [rsp - 6]
	test	eax, eax
	mov	edi, 533721210
	mov	r8d, 709190507
	mov	r10d, 709190507
	cmove	r10d, edi
	cmp	esi, 10
	setl	al
	setl	byte ptr [rsp - 5]
	cmovge	r10d, r8d
	xor	al, dl
	cmovne	r10d, edi
	mov	esi, 1134783715
	mov	r9d, 339804479
	jmp	.LBB37_1
.LBB37_5:                               
	cmp	edi, 709190507
	je	.LBB37_9

	cmp	edi, 1134783715
	jne	.LBB37_1

	mov	cl, byte ptr [rsp - 6]
	mov	dl, byte ptr [rsp - 5]
	mov	eax, ecx
	xor	al, dl
	test	dl, dl
	mov	esi, 709190507
	cmovne	esi, r9d
	test	cl, cl
	cmove	esi, r8d
	test	al, al
	cmovne	esi, r9d
	jmp	.LBB37_1
.LBB37_8:                               
	mov	dword ptr [rsp - 4], 16
	mov	esi, r10d
	jmp	.LBB37_1
.LBB37_9:                               
	mov	esi, 339804479
.LBB37_1:                               
	mov	edi, esi
	and	edi, 2147483647
	cmp	edi, 709190506
	jg	.LBB37_5

	cmp	edi, 339804479
	je	.LBB37_8

	cmp	edi, 533721210
	jne	.LBB37_1

	mov	eax, dword ptr [rsp - 4]
	ret
.Lfunc_end37:
	.size	_ZThn8_NK8CryptoPP15BlockCipherImplINS_13Rijndael_InfoENS_11BlockCipherEE9BlockSizeEv, .Lfunc_end37-_ZThn8_NK8CryptoPP15BlockCipherImplINS_13Rijndael_InfoENS_11BlockCipherEE9BlockSizeEv
	.cfi_endproc

	.section	.text._ZNK8CryptoPP19BlockTransformation13IsPermutationEv,"axG",@progbits,_ZNK8CryptoPP19BlockTransformation13IsPermutationEv,comdat
	.weak	_ZNK8CryptoPP19BlockTransformation13IsPermutationEv 
	.p2align	1, 0x90
	.type	_ZNK8CryptoPP19BlockTransformation13IsPermutationEv,@function
_ZNK8CryptoPP19BlockTransformation13IsPermutationEv: 

	mov	al, 1
	ret
.Lfunc_end38:
	.size	_ZNK8CryptoPP19BlockTransformation13IsPermutationEv, .Lfunc_end38-_ZNK8CryptoPP19BlockTransformation13IsPermutationEv

	.section	.text._ZNK8CryptoPP19BlockTransformation29OptimalNumberOfParallelBlocksEv,"axG",@progbits,_ZNK8CryptoPP19BlockTransformation29OptimalNumberOfParallelBlocksEv,comdat
	.weak	_ZNK8CryptoPP19BlockTransformation29OptimalNumberOfParallelBlocksEv 
	.p2align	1, 0x90
	.type	_ZNK8CryptoPP19BlockTransformation29OptimalNumberOfParallelBlocksEv,@function
_ZNK8CryptoPP19BlockTransformation29OptimalNumberOfParallelBlocksEv: 

	mov	eax, dword ptr [rip + x.106]
	mov	esi, dword ptr [rip + y.107]
	lea	ecx, [rax - 1]
	imul	ecx, eax
	mov	eax, ecx
	xor	eax, -2
	and	eax, ecx
	sete	dl
	sete	byte ptr [rsp - 2]
	test	eax, eax
	mov	edi, -1608990617
	mov	r8d, -1076707545
	mov	ecx, -1076707545
	cmove	ecx, edi
	cmp	esi, 10
	setl	al
	setl	byte ptr [rsp - 1]
	cmovge	ecx, r8d
	xor	al, dl
	cmovne	ecx, edi
	mov	esi, -1959040781
	mov	edi, 789775880
	jmp	.LBB39_1
.LBB39_5:                               
	cmp	esi, -1076707545
	je	.LBB39_9

	cmp	esi, 789775880
	jne	.LBB39_1

	mov	esi, ecx
	jmp	.LBB39_1
.LBB39_8:                               
	mov	r9b, byte ptr [rsp - 2]
	mov	dl, byte ptr [rsp - 1]
	mov	eax, r9d
	xor	al, dl
	test	dl, dl
	mov	esi, -1076707545
	cmovne	esi, edi
	test	r9b, r9b
	cmove	esi, r8d
	test	al, al
	cmovne	esi, edi
	jmp	.LBB39_1
.LBB39_9:                               
	mov	esi, 789775880
.LBB39_1:                               
	cmp	esi, -1076707546
	jg	.LBB39_5

	cmp	esi, -1959040781
	je	.LBB39_8

	cmp	esi, -1608990617
	jne	.LBB39_1

	mov	eax, 1
	ret
.Lfunc_end39:
	.size	_ZNK8CryptoPP19BlockTransformation29OptimalNumberOfParallelBlocksEv, .Lfunc_end39-_ZNK8CryptoPP19BlockTransformation29OptimalNumberOfParallelBlocksEv

	.section	.text._ZN8CryptoPP8Rijndael4BaseD2Ev,"axG",@progbits,_ZN8CryptoPP8Rijndael4BaseD2Ev,comdat
	.weak	_ZN8CryptoPP8Rijndael4BaseD2Ev 
	.p2align	1, 0x90
	.type	_ZN8CryptoPP8Rijndael4BaseD2Ev,@function
_ZN8CryptoPP8Rijndael4BaseD2Ev:         
.Lfunc_begin5:
	.cfi_startproc
	.cfi_personality 3, __gxx_personality_v0
	.cfi_lsda 3, .Lexception5

	push	r15
.Lcfi168:
	.cfi_def_cfa_offset 16
	push	r14
.Lcfi169:
	.cfi_def_cfa_offset 24
	push	rbx
.Lcfi170:
	.cfi_def_cfa_offset 32
	sub	rsp, 16
.Lcfi171:
	.cfi_def_cfa_offset 48
.Lcfi172:
	.cfi_offset rbx, -32
.Lcfi173:
	.cfi_offset r14, -24
.Lcfi174:
	.cfi_offset r15, -16
	mov	r15, rdi
	mov	eax, _ZTVN8CryptoPP8Rijndael4BaseE+192
	movq	xmm0, rax
	mov	eax, _ZTVN8CryptoPP8Rijndael4BaseE+16
	movq	xmm1, rax
	punpcklqdq	xmm1, xmm0      
	movdqu	xmmword ptr [r15], xmm1
	lea	rdi, [r15 + 56]
.Ltmp36:
	call	_ZN8CryptoPP8SecBlockIhNS_20AllocatorWithCleanupIhLb0EEEED2Ev
.Ltmp37:

	mov	rsi, qword ptr [r15 + 48]
	lea	r10, [r15 + 40]
	lea	rdx, [r15 + 32]
	mov	ecx, dword ptr [rip + x.128]
	mov	edi, dword ptr [rip + y.129]
	lea	ebx, [rcx - 1]
	imul	ebx, ecx
	not	ebx
	or	ebx, -2
	mov	ecx, -1
	cmp	ebx, ecx
	sete	bl
	sete	byte ptr [rsp + 6]
	mov	r8d, -1688469807
	mov	r9d, -1905679928
	mov	ecx, -1905679928
	cmove	ecx, r8d
	cmp	edi, 10
	setl	al
	setl	byte ptr [rsp + 7]
	mov	rdi, qword ptr [r15 + 32]
	cmovge	ecx, r9d
	cmp	rdi, qword ptr [r15 + 40]
	cmovb	r10, rdx
	xor	al, bl
	cmovne	ecx, r8d
	mov	ebx, -1858866551
	mov	r8d, -1892601988
	jmp	.LBB40_2
.LBB40_7:                               
	cmp	edi, 288617097
	jne	.LBB40_2

	mov	dl, byte ptr [rsp + 6]
	mov	bl, byte ptr [rsp + 7]
	mov	eax, edx
	xor	al, bl
	mov	eax, -1905679928
	cmovne	eax, r8d
	test	bl, bl
	mov	ebx, eax
	cmovne	ebx, r8d
	test	dl, dl
	cmove	ebx, eax
	jmp	.LBB40_2
.LBB40_9:                               
	mov	ebx, -1892601988
.LBB40_2:                               
	mov	edi, ebx
	and	edi, 536870911
	cmp	edi, 288617096
	jg	.LBB40_6

	cmp	edi, 241803720
	je	.LBB40_9

	cmp	edi, 254881660
	jne	.LBB40_2

	mov	qword ptr [rsp + 8], r10
	mov	ebx, ecx
	jmp	.LBB40_2
.LBB40_6:                               
	cmp	edi, 459013841
	jne	.LBB40_7

	lea	rdi, [r15 + 24]
	mov	rax, qword ptr [rsp + 8]
	mov	rdx, qword ptr [rax]
.Ltmp42:
	call	_ZN8CryptoPP20AllocatorWithCleanupIjLb1EE10deallocateEPvm
.Ltmp43:

	add	r15, 8
	mov	rdi, r15
	add	rsp, 16
	pop	rbx
	pop	r14
	pop	r15
	jmp	_ZN8CryptoPP8ClonableD2Ev 
.LBB40_22:
.Ltmp44:
	mov	r14, rax
	jmp	.LBB40_23
.LBB40_12:
.Ltmp38:
	mov	r14, rax
	mov	rsi, qword ptr [r15 + 48]
	lea	r11, [r15 + 40]
	lea	r10, [r15 + 32]
	mov	edx, dword ptr [rip + x.128]
	mov	edi, dword ptr [rip + y.129]
	lea	ebx, [rdx - 1]
	imul	ebx, edx
	mov	edx, ebx
	xor	edx, -2
	and	edx, ebx
	sete	bl
	sete	byte ptr [rsp + 6]
	test	edx, edx
	mov	r9d, -1688469807
	mov	r8d, -1905679928
	mov	edx, -1905679928
	cmove	edx, r9d
	cmp	edi, 10
	setl	cl
	setl	byte ptr [rsp + 7]
	mov	rdi, qword ptr [r15 + 32]
	cmovge	edx, r8d
	cmp	rdi, qword ptr [r15 + 40]
	cmovb	r11, r10
	xor	cl, bl
	cmovne	edx, r9d
	mov	ecx, -1858866551
	mov	edi, -1892601988
.LBB40_13:                              
	mov	ebx, ecx
	and	ebx, 536870911
	cmp	ebx, 288617096
	jg	.LBB40_17

	cmp	ebx, 241803720
	je	.LBB40_21

	cmp	ebx, 254881660
	jne	.LBB40_13

	mov	qword ptr [rsp + 8], r11
	mov	ecx, edx
	jmp	.LBB40_13
.LBB40_17:                              
	cmp	ebx, 288617097
	jne	.LBB40_18

	mov	al, byte ptr [rsp + 6]
	mov	cl, byte ptr [rsp + 7]
	mov	ebx, eax
	xor	bl, cl
	test	cl, cl
	mov	ecx, -1905679928
	cmovne	ecx, edi
	test	al, al
	cmove	ecx, r8d
	test	bl, bl
	cmovne	ecx, edi
	jmp	.LBB40_13
.LBB40_21:                              
	mov	ecx, -1892601988
	jmp	.LBB40_13
.LBB40_18:                              
	cmp	ebx, 459013841
	jne	.LBB40_13

	lea	rdi, [r15 + 24]
	mov	rax, qword ptr [rsp + 8]
	mov	rdx, qword ptr [rax]
.Ltmp39:
	call	_ZN8CryptoPP20AllocatorWithCleanupIjLb1EE10deallocateEPvm
.Ltmp40:
.LBB40_23:
	add	r15, 8
	mov	rdi, r15
	call	_ZN8CryptoPP8ClonableD2Ev
	mov	rdi, r14
	call	_Unwind_Resume
.LBB40_24:
.Ltmp41:
	mov	rdi, rax
	call	__clang_call_terminate
.Lfunc_end40:
	.size	_ZN8CryptoPP8Rijndael4BaseD2Ev, .Lfunc_end40-_ZN8CryptoPP8Rijndael4BaseD2Ev
	.cfi_endproc
	.section	.gcc_except_table,"a",@progbits
	.p2align	2
GCC_except_table40:
.Lexception5:
	.byte	255                     
	.byte	3                       
	.asciz	"\274"                  
	.byte	3                       
	.byte	52                      
	.long	.Ltmp36-.Lfunc_begin5   
	.long	.Ltmp37-.Ltmp36         
	.long	.Ltmp38-.Lfunc_begin5   
	.byte	0                       
	.long	.Ltmp42-.Lfunc_begin5   
	.long	.Ltmp43-.Ltmp42         
	.long	.Ltmp44-.Lfunc_begin5   
	.byte	0                       
	.long	.Ltmp39-.Lfunc_begin5   
	.long	.Ltmp40-.Ltmp39         
	.long	.Ltmp41-.Lfunc_begin5   
	.byte	1                       
	.long	.Ltmp40-.Lfunc_begin5   
	.long	.Lfunc_end40-.Ltmp40    
	.long	0                       
	.byte	0                       
	.byte	1                       

	.byte	0                       

	.long	0                       
	.p2align	2

	.section	.text._ZN8CryptoPP8Rijndael3EncD0Ev,"axG",@progbits,_ZN8CryptoPP8Rijndael3EncD0Ev,comdat
	.weak	_ZN8CryptoPP8Rijndael3EncD0Ev 
	.p2align	1, 0x90
	.type	_ZN8CryptoPP8Rijndael3EncD0Ev,@function
_ZN8CryptoPP8Rijndael3EncD0Ev:          

	ud2
.Lfunc_end41:
	.size	_ZN8CryptoPP8Rijndael3EncD0Ev, .Lfunc_end41-_ZN8CryptoPP8Rijndael3EncD0Ev

	.section	.text._ZThn8_N8CryptoPP8Rijndael3EncD1Ev,"axG",@progbits,_ZThn8_N8CryptoPP8Rijndael3EncD1Ev,comdat
	.weak	_ZThn8_N8CryptoPP8Rijndael3EncD1Ev 
	.p2align	1, 0x90
	.type	_ZThn8_N8CryptoPP8Rijndael3EncD1Ev,@function
_ZThn8_N8CryptoPP8Rijndael3EncD1Ev:     
	.cfi_startproc

	add	rdi, -8
	jmp	_ZN8CryptoPP8Rijndael4BaseD2Ev 
.Lfunc_end42:
	.size	_ZThn8_N8CryptoPP8Rijndael3EncD1Ev, .Lfunc_end42-_ZThn8_N8CryptoPP8Rijndael3EncD1Ev
	.cfi_endproc

	.section	.text._ZThn8_N8CryptoPP8Rijndael3EncD0Ev,"axG",@progbits,_ZThn8_N8CryptoPP8Rijndael3EncD0Ev,comdat
	.weak	_ZThn8_N8CryptoPP8Rijndael3EncD0Ev 
	.p2align	1, 0x90
	.type	_ZThn8_N8CryptoPP8Rijndael3EncD0Ev,@function
_ZThn8_N8CryptoPP8Rijndael3EncD0Ev:     
	.cfi_startproc

	ud2
.Lfunc_end43:
	.size	_ZThn8_N8CryptoPP8Rijndael3EncD0Ev, .Lfunc_end43-_ZThn8_N8CryptoPP8Rijndael3EncD0Ev
	.cfi_endproc

	.section	.text._ZN8CryptoPP8Rijndael3DecD0Ev,"axG",@progbits,_ZN8CryptoPP8Rijndael3DecD0Ev,comdat
	.weak	_ZN8CryptoPP8Rijndael3DecD0Ev 
	.p2align	1, 0x90
	.type	_ZN8CryptoPP8Rijndael3DecD0Ev,@function
_ZN8CryptoPP8Rijndael3DecD0Ev:          

	mov	eax, dword ptr [rip + x.114]
	mov	ecx, dword ptr [rip + y.115]
	lea	edx, [rax - 1]
	imul	edx, eax
	not	edx
	or	edx, -2
	mov	eax, -1
	cmp	edx, eax
	sete	byte ptr [rsp - 2]
	cmp	ecx, 10
	setl	byte ptr [rsp - 1]
	mov	ecx, -2010720062
	mov	esi, 1493268397
	jmp	.LBB44_1
.LBB44_3:                               
	cmp	ecx, 1493268397
	jne	.LBB44_1
	jmp	.LBB44_4
.LBB44_5:                               
	mov	al, byte ptr [rsp - 2]
	mov	cl, byte ptr [rsp - 1]
	mov	edx, eax
	xor	dl, cl
	mov	edx, 230966303
	cmovne	edx, esi
	test	cl, cl
	mov	ecx, edx
	cmovne	ecx, esi
	test	al, al
	cmove	ecx, edx
.LBB44_1:                               
	cmp	ecx, -2010720062
	je	.LBB44_5

	cmp	ecx, 230966303
	jne	.LBB44_3
.LBB44_4:
	ud2
.Lfunc_end44:
	.size	_ZN8CryptoPP8Rijndael3DecD0Ev, .Lfunc_end44-_ZN8CryptoPP8Rijndael3DecD0Ev

	.section	.text._ZThn8_N8CryptoPP8Rijndael3DecD1Ev,"axG",@progbits,_ZThn8_N8CryptoPP8Rijndael3DecD1Ev,comdat
	.weak	_ZThn8_N8CryptoPP8Rijndael3DecD1Ev 
	.p2align	1, 0x90
	.type	_ZThn8_N8CryptoPP8Rijndael3DecD1Ev,@function
_ZThn8_N8CryptoPP8Rijndael3DecD1Ev:     
	.cfi_startproc

	add	rdi, -8
	jmp	_ZN8CryptoPP8Rijndael4BaseD2Ev 
.Lfunc_end45:
	.size	_ZThn8_N8CryptoPP8Rijndael3DecD1Ev, .Lfunc_end45-_ZThn8_N8CryptoPP8Rijndael3DecD1Ev
	.cfi_endproc

	.section	.text._ZThn8_N8CryptoPP8Rijndael3DecD0Ev,"axG",@progbits,_ZThn8_N8CryptoPP8Rijndael3DecD0Ev,comdat
	.weak	_ZThn8_N8CryptoPP8Rijndael3DecD0Ev 
	.p2align	1, 0x90
	.type	_ZThn8_N8CryptoPP8Rijndael3DecD0Ev,@function
_ZThn8_N8CryptoPP8Rijndael3DecD0Ev:     
	.cfi_startproc

	mov	eax, dword ptr [rip + x.118]
	mov	ecx, dword ptr [rip + y.119]
	lea	edx, [rax - 1]
	imul	edx, eax
	not	edx
	or	edx, -2
	mov	eax, -1
	cmp	edx, eax
	sete	byte ptr [rsp - 6]
	cmp	ecx, 10
	setl	byte ptr [rsp - 5]
	mov	ecx, 1143232214
	mov	esi, 152778523
	jmp	.LBB46_1
.LBB46_2:                               
	cmp	ecx, 152778523
	je	.LBB46_5

	cmp	ecx, 1143232214
	jne	.LBB46_1

	mov	al, byte ptr [rsp - 6]
	mov	cl, byte ptr [rsp - 5]
	mov	edx, eax
	xor	dl, cl
	mov	edx, -1557325732
	cmovne	edx, esi
	test	cl, cl
	mov	ecx, edx
	cmovne	ecx, esi
	test	al, al
	cmove	ecx, edx
.LBB46_1:                               
	cmp	ecx, -1557325732
	jne	.LBB46_2

	mov	eax, dword ptr [rip + x.114]
	lea	ecx, [rax - 1]
	imul	ecx, eax
	not	ecx
	or	ecx, -2
	mov	eax, -1
	cmp	ecx, eax
	sete	byte ptr [rsp - 2]
	mov	eax, dword ptr [rip + y.115]
	cmp	eax, 10
	setl	byte ptr [rsp - 1]
	mov	edx, -2010720062
	mov	edi, 1493268397
	mov	esi, 230966303
	jmp	.LBB46_11
.LBB46_13:                              
	cmp	edx, 1493268397
	jne	.LBB46_11
	jmp	.LBB46_9
.LBB46_15:                              
	mov	al, byte ptr [rsp - 2]
	mov	dl, byte ptr [rsp - 1]
	mov	ecx, eax
	xor	cl, dl
	test	dl, dl
	mov	edx, 230966303
	cmovne	edx, edi
	test	al, al
	cmove	edx, esi
	test	cl, cl
	cmovne	edx, edi
.LBB46_11:                              
	cmp	edx, -2010720062
	je	.LBB46_15

	cmp	edx, 230966303
	jne	.LBB46_13
	jmp	.LBB46_9
.LBB46_5:
	mov	eax, dword ptr [rip + x.114]
	mov	ecx, dword ptr [rip + y.115]
	lea	edx, [rax - 1]
	imul	edx, eax
	not	edx
	or	edx, -2
	mov	eax, -1
	cmp	edx, eax
	sete	byte ptr [rsp - 4]
	cmp	ecx, 10
	setl	byte ptr [rsp - 3]
	mov	ecx, -2010720062
	mov	esi, 1493268397
	jmp	.LBB46_6
.LBB46_14:                              
	mov	al, byte ptr [rsp - 4]
	mov	cl, byte ptr [rsp - 3]
	mov	edx, eax
	xor	dl, cl
	mov	edx, 230966303
	cmovne	edx, esi
	test	cl, cl
	mov	ecx, edx
	cmovne	ecx, esi
	test	al, al
	cmove	ecx, edx
.LBB46_6:                               
	cmp	ecx, -2010720062
	je	.LBB46_14

	cmp	ecx, 230966303
	je	.LBB46_9

	cmp	ecx, 1493268397
	jne	.LBB46_6
.LBB46_9:
	ud2
.Lfunc_end46:
	.size	_ZThn8_N8CryptoPP8Rijndael3DecD0Ev, .Lfunc_end46-_ZThn8_N8CryptoPP8Rijndael3DecD0Ev
	.cfi_endproc

	.section	.text._ZN8CryptoPP10EnumToTypeINS_9ByteOrderELi0EE6ToEnumEv,"axG",@progbits,_ZN8CryptoPP10EnumToTypeINS_9ByteOrderELi0EE6ToEnumEv,comdat
	.weak	_ZN8CryptoPP10EnumToTypeINS_9ByteOrderELi0EE6ToEnumEv 
	.p2align	1, 0x90
	.type	_ZN8CryptoPP10EnumToTypeINS_9ByteOrderELi0EE6ToEnumEv,@function
_ZN8CryptoPP10EnumToTypeINS_9ByteOrderELi0EE6ToEnumEv: 

	mov	eax, dword ptr [rip + x.120]
	mov	ecx, dword ptr [rip + y.121]
	lea	edx, [rax - 1]
	imul	edx, eax
	mov	esi, edx
	xor	esi, -2
	and	esi, edx
	sete	byte ptr [rsp - 2]
	sete	al
	cmp	ecx, 10
	setl	dl
	xor	dl, al
	mov	eax, 1573647769
	mov	edx, -813488539
	cmovne	edx, eax
	test	esi, esi
	cmovne	eax, edx
	cmp	ecx, 10
	setl	byte ptr [rsp - 1]
	mov	r8d, -813488539
	cmovge	eax, edx
	mov	esi, 886079142
	mov	edi, 1127556092
	jmp	.LBB47_1
.LBB47_9:                               
	mov	esi, 1127556092
	jmp	.LBB47_1
.LBB47_6:                               
	mov	esi, eax
.LBB47_1:                               
	cmp	esi, 1127556091
	jg	.LBB47_5

	cmp	esi, -813488539
	je	.LBB47_9

	cmp	esi, 886079142
	jne	.LBB47_1

	mov	r9b, byte ptr [rsp - 2]
	mov	dl, byte ptr [rsp - 1]
	mov	ecx, r9d
	xor	cl, dl
	test	dl, dl
	mov	esi, -813488539
	cmovne	esi, edi
	test	r9b, r9b
	cmove	esi, r8d
	test	cl, cl
	cmovne	esi, edi
	jmp	.LBB47_1
.LBB47_5:                               
	cmp	esi, 1127556092
	je	.LBB47_6

	cmp	esi, 1573647769
	jne	.LBB47_1

	xor	eax, eax
	ret
.Lfunc_end47:
	.size	_ZN8CryptoPP10EnumToTypeINS_9ByteOrderELi0EE6ToEnumEv, .Lfunc_end47-_ZN8CryptoPP10EnumToTypeINS_9ByteOrderELi0EE6ToEnumEv

	.section	.text._ZN8CryptoPP8SecBlockIhNS_20AllocatorWithCleanupIhLb0EEEED2Ev,"axG",@progbits,_ZN8CryptoPP8SecBlockIhNS_20AllocatorWithCleanupIhLb0EEEED2Ev,comdat
	.weak	_ZN8CryptoPP8SecBlockIhNS_20AllocatorWithCleanupIhLb0EEEED2Ev 
	.p2align	1, 0x90
	.type	_ZN8CryptoPP8SecBlockIhNS_20AllocatorWithCleanupIhLb0EEEED2Ev,@function
_ZN8CryptoPP8SecBlockIhNS_20AllocatorWithCleanupIhLb0EEEED2Ev: 
	.cfi_startproc

	push	rbx
.Lcfi175:
	.cfi_def_cfa_offset 16
.Lcfi176:
	.cfi_offset rbx, -16
	mov	r9, qword ptr [rdi + 24]
	mov	eax, dword ptr [rip + x.128]
	mov	ecx, dword ptr [rip + y.129]
	lea	esi, [rax - 1]
	imul	esi, eax
	not	esi
	or	esi, -2
	mov	eax, -1
	cmp	esi, eax
	sete	r10b
	sete	byte ptr [rsp - 10]
	mov	esi, -1688469807
	mov	r8d, -1905679928
	mov	ebx, -1905679928
	cmove	ebx, esi
	cmp	ecx, 10
	setl	dl
	setl	byte ptr [rsp - 9]
	mov	rcx, qword ptr [rdi + 8]
	cmovge	ebx, r8d
	cmp	rcx, qword ptr [rdi + 16]
	lea	r11, [rdi + 16]
	lea	rdi, [rdi + 8]
	cmovb	r11, rdi
	xor	dl, r10b
	cmovne	ebx, esi
	mov	esi, -1858866551
	mov	r8d, -1892601988
	jmp	.LBB48_1
.LBB48_6:                               
	cmp	edi, 288617097
	jne	.LBB48_1

	mov	al, byte ptr [rsp - 10]
	mov	cl, byte ptr [rsp - 9]
	mov	edx, eax
	xor	dl, cl
	mov	edx, -1905679928
	cmovne	edx, r8d
	test	cl, cl
	mov	esi, edx
	cmovne	esi, r8d
	test	al, al
	cmove	esi, edx
	jmp	.LBB48_1
.LBB48_8:                               
	mov	esi, -1892601988
.LBB48_1:                               
	mov	edi, esi
	and	edi, 536870911
	cmp	edi, 288617096
	jg	.LBB48_5

	cmp	edi, 241803720
	je	.LBB48_8

	cmp	edi, 254881660
	jne	.LBB48_1

	mov	qword ptr [rsp - 8], r11
	mov	esi, ebx
	jmp	.LBB48_1
.LBB48_5:                               
	cmp	edi, 459013841
	jne	.LBB48_6

	mov	rax, qword ptr [rsp - 8]
	test	r9, r9
	je	.LBB48_10

	mov	rcx, qword ptr [rax]
	xor	eax, eax
	mov	rdi, r9

	rep
	stosb	byte ptr es:[rdi], al

	mov	rdi, r9
	pop	rbx
	jmp	_ZN8CryptoPP19UnalignedDeallocateEPv 
.LBB48_10:
	pop	rbx
	ret
.Lfunc_end48:
	.size	_ZN8CryptoPP8SecBlockIhNS_20AllocatorWithCleanupIhLb0EEEED2Ev, .Lfunc_end48-_ZN8CryptoPP8SecBlockIhNS_20AllocatorWithCleanupIhLb0EEEED2Ev
	.cfi_endproc

	.section	.text.__clang_call_terminate,"axG",@progbits,__clang_call_terminate,comdat
	.hidden	__clang_call_terminate  
	.weak	__clang_call_terminate
	.p2align	4, 0x90
	.type	__clang_call_terminate,@function
__clang_call_terminate:                 

	push	rax
	call	__cxa_begin_catch
	call	_ZSt9terminatev
.Lfunc_end49:
	.size	__clang_call_terminate, .Lfunc_end49-__clang_call_terminate

	.section	.text._ZN8CryptoPP20AllocatorWithCleanupIjLb1EE10deallocateEPvm,"axG",@progbits,_ZN8CryptoPP20AllocatorWithCleanupIjLb1EE10deallocateEPvm,comdat
	.weak	_ZN8CryptoPP20AllocatorWithCleanupIjLb1EE10deallocateEPvm 
	.p2align	1, 0x90
	.type	_ZN8CryptoPP20AllocatorWithCleanupIjLb1EE10deallocateEPvm,@function
_ZN8CryptoPP20AllocatorWithCleanupIjLb1EE10deallocateEPvm: 
	.cfi_startproc

	push	rbp
.Lcfi177:
	.cfi_def_cfa_offset 16
	push	r15
.Lcfi178:
	.cfi_def_cfa_offset 24
	push	r14
.Lcfi179:
	.cfi_def_cfa_offset 32
	push	rbx
.Lcfi180:
