	.text
	.intel_syntax noprefix
	.file	"/mnt/c/Users/Adam/Developer/CryptoFunctionDetection/crypto_implementations/cryptopp/rijndael.cpp"
	.globl	_ZNK8CryptoPP8Rijndael4Base20OptimalDataAlignmentEv 
	.p2align	4, 0x90
	.type	_ZNK8CryptoPP8Rijndael4Base20OptimalDataAlignmentEv,@function
_ZNK8CryptoPP8Rijndael4Base20OptimalDataAlignmentEv: 
	.cfi_startproc

	push	rbp
.Lcfi0:
	.cfi_def_cfa_offset 16
.Lcfi1:
	.cfi_offset rbp, -16
	mov	rbp, rsp
.Lcfi2:
	.cfi_def_cfa_register rbp
	push	r15
	push	r14
	push	r12
	push	rbx
	sub	rsp, 80
.Lcfi3:
	.cfi_offset rbx, -48
.Lcfi4:
	.cfi_offset r12, -40
.Lcfi5:
	.cfi_offset r14, -32
.Lcfi6:
	.cfi_offset r15, -24
	mov	qword ptr [rbp - 64], rdi
	mov	rdi, qword ptr [rbp - 64]
	mov	qword ptr [rbp - 48], rdi
	mov	dword ptr [rbp - 68], 233634209
.LBB0_1:                                
	mov	eax, dword ptr [rbp - 68]
	mov	ecx, eax
	sub	ecx, -1956592561
	mov	dword ptr [rbp - 72], eax 
	mov	dword ptr [rbp - 76], ecx 
	je	.LBB0_8
	jmp	.LBB0_11
.LBB0_11:                               
	mov	eax, dword ptr [rbp - 72] 
	sub	eax, -1812642034
	mov	dword ptr [rbp - 80], eax 
	je	.LBB0_9
	jmp	.LBB0_12
.LBB0_12:                               
	mov	eax, dword ptr [rbp - 72] 
	sub	eax, -1107317166
	mov	dword ptr [rbp - 84], eax 
	je	.LBB0_4
	jmp	.LBB0_13
.LBB0_13:                               
	mov	eax, dword ptr [rbp - 72] 
	sub	eax, 233634209
	mov	dword ptr [rbp - 88], eax 
	je	.LBB0_3
	jmp	.LBB0_14
.LBB0_14:                               
	mov	eax, dword ptr [rbp - 72] 
	sub	eax, 517241344
	mov	dword ptr [rbp - 92], eax 
	je	.LBB0_6
	jmp	.LBB0_15
.LBB0_15:                               
	mov	eax, dword ptr [rbp - 72] 
	sub	eax, 1308563290
	mov	dword ptr [rbp - 96], eax 
	je	.LBB0_7
	jmp	.LBB0_16
.LBB0_16:                               
	mov	eax, dword ptr [rbp - 72] 
	sub	eax, 1812195828
	mov	dword ptr [rbp - 100], eax 
	je	.LBB0_5
	jmp	.LBB0_2
.LBB0_2:                                
	jmp	.LBB0_10
.LBB0_3:                                
	call	_ZN8CryptoPP8HasAESNIEv
	mov	ecx, 1812195828
	mov	edx, 3187650130
	test	al, 1
	cmovne	ecx, edx
	mov	dword ptr [rbp - 68], ecx
	jmp	.LBB0_10
.LBB0_4:                                
	mov	dword ptr [rbp - 52], 16
	mov	dword ptr [rbp - 68], 517241344
	jmp	.LBB0_10
.LBB0_5:                                
	mov	rax, qword ptr [rbp - 48]
	add	rax, 8
	mov	rdi, rax
	call	_ZNK8CryptoPP19BlockTransformation20OptimalDataAlignmentEv
	mov	dword ptr [rbp - 52], eax
	mov	dword ptr [rbp - 68], 517241344
	jmp	.LBB0_10
.LBB0_6:                                
	mov	eax, 2482325262
	mov	ecx, 1308563290
	mov	dl, 1
	xor	esi, esi
	mov	edi, dword ptr [x]
	mov	r8d, dword ptr [y]
	sub	esi, 1
	mov	r9d, edi
	add	r9d, esi
	imul	edi, r9d
	and	edi, 1
	cmp	edi, 0
	sete	r10b
	cmp	r8d, 10
	setl	r11b
	mov	bl, r10b
	xor	bl, -1
	mov	r14b, r11b
	xor	r14b, -1
	xor	dl, 0
	mov	r15b, bl
	and	r15b, 0
	and	r10b, dl
	mov	r12b, r14b
	and	r12b, 0
	and	r11b, dl
	or	r15b, r10b
	or	r12b, r11b
	xor	r15b, r12b
	or	bl, r14b
	xor	bl, -1
	or	dl, 0
	and	bl, dl
	or	r15b, bl
	test	r15b, 1
	cmovne	eax, ecx
	mov	dword ptr [rbp - 68], eax
	jmp	.LBB0_10
.LBB0_7:                                
	mov	eax, 2482325262
	mov	ecx, 2338374735
	mov	edx, dword ptr [rbp - 52]
	mov	dword ptr [rbp - 36], edx
	mov	edx, dword ptr [x]
	mov	esi, dword ptr [y]
	mov	edi, edx
	sub	edi, -1958646473
	sub	edi, 1
	add	edi, -1958646473
	imul	edx, edi
	and	edx, 1
	cmp	edx, 0
	sete	r8b
	cmp	esi, 10
	setl	r9b
	mov	r10b, r8b
	and	r10b, r9b
	xor	r8b, r9b
	or	r10b, r8b
	test	r10b, 1
	cmovne	eax, ecx
	mov	dword ptr [rbp - 68], eax
	jmp	.LBB0_10
.LBB0_8:
	mov	eax, dword ptr [rbp - 36]
	add	rsp, 80
	pop	rbx
	pop	r12
	pop	r14
	pop	r15
	pop	rbp
	ret
.LBB0_9:                                
	mov	dword ptr [rbp - 68], 1308563290
.LBB0_10:                               
	jmp	.LBB0_1
.Lfunc_end0:
	.size	_ZNK8CryptoPP8Rijndael4Base20OptimalDataAlignmentEv, .Lfunc_end0-_ZNK8CryptoPP8Rijndael4Base20OptimalDataAlignmentEv
	.cfi_endproc

	.section	.text._ZN8CryptoPP8HasAESNIEv,"axG",@progbits,_ZN8CryptoPP8HasAESNIEv,comdat
	.weak	_ZN8CryptoPP8HasAESNIEv 
	.p2align	4, 0x90
	.type	_ZN8CryptoPP8HasAESNIEv,@function
_ZN8CryptoPP8HasAESNIEv:                
	.cfi_startproc

	push	rbp
.Lcfi7:
	.cfi_def_cfa_offset 16
.Lcfi8:
	.cfi_offset rbp, -16
	mov	rbp, rsp
.Lcfi9:
	.cfi_def_cfa_register rbp
	sub	rsp, 32
	mov	al, byte ptr [_ZN8CryptoPP18g_x86DetectionDoneE]
	mov	byte ptr [rbp - 1], al
	mov	dword ptr [rbp - 8], -1023143
.LBB1_1:                                
	mov	eax, dword ptr [rbp - 8]
	mov	ecx, eax
	sub	ecx, -984940737
	mov	dword ptr [rbp - 12], eax 
	mov	dword ptr [rbp - 16], ecx 
	je	.LBB1_4
	jmp	.LBB1_7
.LBB1_7:                                
	mov	eax, dword ptr [rbp - 12] 
	sub	eax, -1023143
	mov	dword ptr [rbp - 20], eax 
	je	.LBB1_3
	jmp	.LBB1_8
.LBB1_8:                                
	mov	eax, dword ptr [rbp - 12] 
	sub	eax, 1598170733
	mov	dword ptr [rbp - 24], eax 
	je	.LBB1_5
	jmp	.LBB1_2
.LBB1_2:                                
	jmp	.LBB1_6
.LBB1_3:                                
	mov	eax, 3310026559
	mov	ecx, 1598170733
	mov	dl, byte ptr [rbp - 1]
	test	dl, 1
	cmovne	eax, ecx
	mov	dword ptr [rbp - 8], eax
	jmp	.LBB1_6
.LBB1_4:                                
	call	_ZN8CryptoPP17DetectX86FeaturesEv
	mov	dword ptr [rbp - 8], 1598170733
	jmp	.LBB1_6
.LBB1_5:
	mov	al, byte ptr [_ZN8CryptoPP10g_hasAESNIE]
	and	al, 1
	movzx	eax, al
	add	rsp, 32
	pop	rbp
	ret
.LBB1_6:                                
	jmp	.LBB1_1
.Lfunc_end1:
	.size	_ZN8CryptoPP8HasAESNIEv, .Lfunc_end1-_ZN8CryptoPP8HasAESNIEv
	.cfi_endproc

	.text
	.globl	_ZThn8_NK8CryptoPP8Rijndael4Base20OptimalDataAlignmentEv 
	.p2align	4, 0x90
	.type	_ZThn8_NK8CryptoPP8Rijndael4Base20OptimalDataAlignmentEv,@function
_ZThn8_NK8CryptoPP8Rijndael4Base20OptimalDataAlignmentEv: 
	.cfi_startproc

	push	rbp
.Lcfi10:
	.cfi_def_cfa_offset 16
.Lcfi11:
	.cfi_offset rbp, -16
	mov	rbp, rsp
.Lcfi12:
	.cfi_def_cfa_register rbp
	mov	qword ptr [rbp - 8], rdi
	mov	rdi, qword ptr [rbp - 8]
	add	rdi, -8
	pop	rbp
	jmp	_ZNK8CryptoPP8Rijndael4Base20OptimalDataAlignmentEv 
.Lfunc_end2:
	.size	_ZThn8_NK8CryptoPP8Rijndael4Base20OptimalDataAlignmentEv, .Lfunc_end2-_ZThn8_NK8CryptoPP8Rijndael4Base20OptimalDataAlignmentEv
	.cfi_endproc

	.globl	_ZN8CryptoPP8Rijndael4Base12FillEncTableEv 
	.p2align	4, 0x90
	.type	_ZN8CryptoPP8Rijndael4Base12FillEncTableEv,@function
_ZN8CryptoPP8Rijndael4Base12FillEncTableEv: 

	push	rbp
	mov	rbp, rsp
	push	r15
	push	r14
	push	r13
	push	r12
	push	rbx
	mov	dword ptr [rbp - 48], 0
	mov	dword ptr [rbp - 60], -57488411
.LBB3_1:                                
	mov	eax, dword ptr [rbp - 60]
	mov	ecx, eax
	sub	ecx, -2132782191
	mov	dword ptr [rbp - 64], eax 
	mov	dword ptr [rbp - 68], ecx 
	je	.LBB3_11
	jmp	.LBB3_14
.LBB3_14:                               
	mov	eax, dword ptr [rbp - 64] 
	sub	eax, -1929346162
	mov	dword ptr [rbp - 72], eax 
	je	.LBB3_5
	jmp	.LBB3_15
.LBB3_15:                               
	mov	eax, dword ptr [rbp - 64] 
	sub	eax, -1758090209
	mov	dword ptr [rbp - 76], eax 
	je	.LBB3_8
	jmp	.LBB3_16
.LBB3_16:                               
	mov	eax, dword ptr [rbp - 64] 
	sub	eax, -1528223182
	mov	dword ptr [rbp - 80], eax 
	je	.LBB3_4
	jmp	.LBB3_17
.LBB3_17:                               
	mov	eax, dword ptr [rbp - 64] 
	sub	eax, -1356654658
	mov	dword ptr [rbp - 84], eax 
	je	.LBB3_12
	jmp	.LBB3_18
.LBB3_18:                               
	mov	eax, dword ptr [rbp - 64] 
	sub	eax, -57488411
	mov	dword ptr [rbp - 88], eax 
	je	.LBB3_3
	jmp	.LBB3_19
.LBB3_19:                               
	mov	eax, dword ptr [rbp - 64] 
	sub	eax, 194123465
	mov	dword ptr [rbp - 92], eax 
	je	.LBB3_10
	jmp	.LBB3_20
.LBB3_20:                               
	mov	eax, dword ptr [rbp - 64] 
	sub	eax, 967075399
	mov	dword ptr [rbp - 96], eax 
	je	.LBB3_9
	jmp	.LBB3_21
.LBB3_21:                               
	mov	eax, dword ptr [rbp - 64] 
	sub	eax, 1641858175
	mov	dword ptr [rbp - 100], eax 
	je	.LBB3_7
	jmp	.LBB3_22
.LBB3_22:                               
	mov	eax, dword ptr [rbp - 64] 
	sub	eax, 1825613883
	mov	dword ptr [rbp - 104], eax 
	je	.LBB3_6
	jmp	.LBB3_2
.LBB3_2:                                
	jmp	.LBB3_13
.LBB3_3:                                
	mov	eax, 2162185105
	mov	ecx, 2766744114
	mov	dl, 1
	xor	esi, esi
	mov	edi, dword ptr [x.12]
	mov	r8d, dword ptr [y.13]
	sub	esi, 1
	mov	r9d, edi
	add	r9d, esi
	imul	edi, r9d
	and	edi, 1
	cmp	edi, 0
	sete	r10b
	cmp	r8d, 10
	setl	r11b
	mov	bl, r10b
	xor	bl, -1
	mov	r14b, r11b
	xor	r14b, -1
	xor	dl, 0
	mov	r15b, bl
	and	r15b, 0
	and	r10b, dl
	mov	r12b, r14b
	and	r12b, 0
	and	r11b, dl
	or	r15b, r10b
	or	r12b, r11b
	xor	r15b, r12b
	or	bl, r14b
	xor	bl, -1
	or	dl, 0
	and	bl, dl
	or	r15b, bl
	test	r15b, 1
	cmovne	eax, ecx
	mov	dword ptr [rbp - 60], eax
	jmp	.LBB3_13
.LBB3_4:                                
	mov	eax, 2162185105
	mov	ecx, 2365621134
	mov	dl, 1
	cmp	dword ptr [rbp - 48], 256
	setl	sil
	and	sil, 1
	mov	byte ptr [rbp - 41], sil
	mov	edi, dword ptr [x.12]
	mov	r8d, dword ptr [y.13]
	mov	r9d, edi
	add	r9d, -1855829237
	sub	r9d, 1
	sub	r9d, -1855829237
	imul	edi, r9d
	and	edi, 1
	cmp	edi, 0
	sete	sil
	cmp	r8d, 10
	setl	r10b
	mov	r11b, sil
	xor	r11b, -1
	mov	bl, r10b
	xor	bl, -1
	xor	dl, 0
	mov	r14b, r11b
	and	r14b, 0
	and	sil, dl
	mov	r15b, bl
	and	r15b, 0
	and	r10b, dl
	or	r14b, sil
	or	r15b, r10b
	xor	r14b, r15b
	or	r11b, bl
	xor	r11b, -1
	or	dl, 0
	and	r11b, dl
	or	r14b, r11b
	test	r14b, 1
	cmovne	eax, ecx
	mov	dword ptr [rbp - 60], eax
	jmp	.LBB3_13
.LBB3_5:                                
	mov	eax, 194123465
	mov	ecx, 1825613883
	mov	dl, byte ptr [rbp - 41]
	test	dl, 1
	cmovne	eax, ecx
	mov	dword ptr [rbp - 60], eax
	jmp	.LBB3_13
.LBB3_6:                                
	mov	eax, 2938312638
	mov	ecx, 1641858175
	mov	dl, 1
	xor	esi, esi
	mov	edi, dword ptr [x.12]
	mov	r8d, dword ptr [y.13]
	sub	esi, 1
	mov	r9d, edi
	add	r9d, esi
	imul	edi, r9d
	and	edi, 1
	cmp	edi, 0
	sete	r10b
	cmp	r8d, 10
	setl	r11b
	mov	bl, r10b
	xor	bl, -1
	mov	r14b, r11b
	xor	r14b, -1
	xor	dl, 0
	mov	r15b, bl
	and	r15b, 0
	and	r10b, dl
	mov	r12b, r14b
	and	r12b, 0
	and	r11b, dl
	or	r15b, r10b
	or	r12b, r11b
	xor	r15b, r12b
	or	bl, r14b
	xor	bl, -1
	or	dl, 0
	and	bl, dl
	or	r15b, bl
	test	r15b, 1
	cmovne	eax, ecx
	mov	dword ptr [rbp - 60], eax
	jmp	.LBB3_13
.LBB3_7:                                
	mov	eax, 2938312638
	mov	ecx, 2536877087
	mov	dl, 1
	mov	esi, 4294967295
	movsxd	rdi, dword ptr [rbp - 48]
	mov	r8b, byte ptr [rdi + _ZN8CryptoPP8Rijndael4Base2SeE]
	mov	byte ptr [rbp - 49], r8b
	movzx	r9d, byte ptr [rbp - 49]
	shl	r9d, 8
	movzx	r10d, byte ptr [rbp - 49]
	shl	r10d, 16
	mov	r11d, r9d
	and	r11d, r10d
	xor	r9d, r10d
	or	r11d, r9d
	movzx	r9d, byte ptr [rbp - 49]
	shl	r9d, 1
	movzx	r10d, byte ptr [rbp - 49]
	sar	r10d, 7
	xor	r10d, -1
	mov	ebx, esi
	xor	ebx, 1
	mov	r14d, esi
	xor	r14d, 1773239261
	or	r10d, ebx
	or	r14d, 1773239261
	xor	r10d, -1
	and	r10d, r14d
	imul	r10d, r10d, 283
	mov	ebx, r9d
	xor	ebx, -1
	mov	r14d, r10d
	and	r14d, ebx
	xor	r10d, -1
	and	r9d, r10d
	or	r14d, r9d
	shl	r14d, 24
	mov	r9d, r11d
	and	r9d, r14d
	xor	r11d, r14d
	or	r9d, r11d
	mov	dword ptr [rbp - 56], r9d
	mov	r9d, dword ptr [rbp - 56]
	movzx	r10d, byte ptr [rbp - 49]
	shl	r10d, 1
	movzx	r11d, byte ptr [rbp - 49]
	sar	r11d, 7
	xor	r11d, -1
	mov	ebx, esi
	xor	ebx, 1
	mov	r14d, esi
	xor	r14d, 1835014563
	or	r11d, ebx
	or	r14d, 1835014563
	xor	r11d, -1
	and	r11d, r14d
	imul	r11d, r11d, 283
	mov	ebx, r10d
	xor	ebx, -1
	and	ebx, 2340919892
	mov	r14d, esi
	xor	r14d, 2340919892
	and	r10d, r14d
	mov	r15d, r11d
	xor	r15d, -1
	and	r15d, -1954047404
	and	r11d, r14d
	or	ebx, r10d
	or	r15d, r11d
	xor	ebx, r15d
	movzx	r10d, byte ptr [rbp - 49]
	mov	r11d, ebx
	xor	r11d, -1
	and	r11d, 1449702451
	xor	esi, 1449702451
	and	ebx, esi
	mov	r14d, r10d
	xor	r14d, -1
	and	r14d, 1449702451
	and	r10d, esi
	or	r11d, ebx
	or	r14d, r10d
	xor	r11d, r14d
	mov	esi, r9d
	and	esi, r11d
	xor	r9d, r11d
	or	esi, r9d
	mov	esi, esi
	mov	edi, esi
	shl	rdi, 32
	mov	esi, dword ptr [rbp - 56]
	mov	r12d, esi
	mov	r13, rdi
	and	r13, r12
	xor	rdi, r12
	or	r13, rdi
	movsxd	rdi, dword ptr [rbp - 48]
	mov	qword ptr [8*rdi + _ZN8CryptoPPL2TeE], r13
	mov	esi, dword ptr [x.12]
	mov	r9d, dword ptr [y.13]
	mov	r10d, esi
	add	r10d, -1251857877
	sub	r10d, 1
	sub	r10d, -1251857877
	imul	esi, r10d
	and	esi, 1
	cmp	esi, 0
	sete	r8b
	cmp	r9d, 10
	setl	sil
	mov	dil, r8b
	xor	dil, -1
	mov	r9b, sil
	xor	r9b, -1
	xor	dl, 0
	mov	r10b, dil
	and	r10b, 0
	and	r8b, dl
	mov	r11b, r9b
	and	r11b, 0
	and	sil, dl
	or	r10b, r8b
	or	r11b, sil
	xor	r10b, r11b
	or	dil, r9b
	xor	dil, -1
	or	dl, 0
	and	dil, dl
	or	r10b, dil
	test	r10b, 1
	cmovne	eax, ecx
	mov	dword ptr [rbp - 60], eax
	jmp	.LBB3_13
.LBB3_8:                                
	mov	dword ptr [rbp - 60], 967075399
	jmp	.LBB3_13
.LBB3_9:                                
	mov	eax, dword ptr [rbp - 48]
	add	eax, -105469309
	add	eax, 1
	sub	eax, -105469309
	mov	dword ptr [rbp - 48], eax
	mov	dword ptr [rbp - 60], -57488411
	jmp	.LBB3_13
.LBB3_10:
	mov	byte ptr [_ZN8CryptoPPL10s_TeFilledE], 1
	pop	rbx
	pop	r12
	pop	r13
	pop	r14
	pop	r15
	pop	rbp
	ret
.LBB3_11:                               
	mov	dword ptr [rbp - 60], -1528223182
	jmp	.LBB3_13
.LBB3_12:                               
	mov	eax, 4294967295
	movsxd	rcx, dword ptr [rbp - 48]
	mov	dl, byte ptr [rcx + _ZN8CryptoPP8Rijndael4Base2SeE]
	mov	byte ptr [rbp - 49], dl
	movzx	esi, byte ptr [rbp - 49]
	shl	esi, 8
	movzx	edi, byte ptr [rbp - 49]
	shl	edi, 16
	mov	r8d, esi
	and	r8d, edi
	xor	esi, edi
	or	r8d, esi
	movzx	esi, byte ptr [rbp - 49]
	shl	esi, 1
	movzx	edi, byte ptr [rbp - 49]
	sar	edi, 7
	xor	edi, -1
	mov	r9d, eax
	xor	r9d, 1
	mov	r10d, eax
	xor	r10d, 146602410
	or	edi, r9d
	or	r10d, 146602410
	xor	edi, -1
	and	edi, r10d
	imul	edi, edi, 283
	mov	r9d, esi
	xor	r9d, -1
	mov	r10d, edi
	and	r10d, r9d
	xor	edi, -1
	and	esi, edi
	or	r10d, esi
	shl	r10d, 24
	mov	esi, r8d
	and	esi, r10d
	xor	r8d, r10d
	or	esi, r8d
	mov	dword ptr [rbp - 56], esi
	mov	esi, dword ptr [rbp - 56]
	movzx	edi, byte ptr [rbp - 49]
	shl	edi, 1
	movzx	r8d, byte ptr [rbp - 49]
	sar	r8d, 7
	xor	r8d, -1
	mov	r9d, eax
	xor	r9d, 1
	mov	r10d, eax
	xor	r10d, 3203925615
	or	r8d, r9d
	or	r10d, 3203925615
	xor	r8d, -1
	and	r8d, r10d
	imul	r8d, r8d, 283
	mov	r9d, edi
	xor	r9d, -1
	and	r9d, 1430825974
	mov	r10d, eax
	xor	r10d, 1430825974
	and	edi, r10d
	mov	r11d, r8d
	xor	r11d, -1
	and	r11d, 1430825974
	and	r8d, r10d
	or	r9d, edi
	or	r11d, r8d
	xor	r9d, r11d
	movzx	edi, byte ptr [rbp - 49]
	mov	r8d, r9d
	xor	r8d, -1
	and	r8d, 2847977562
	xor	eax, 2847977562
	and	r9d, eax
	mov	r10d, edi
	xor	r10d, -1
	and	r10d, -1446989734
	and	edi, eax
	or	r8d, r9d
	or	r10d, edi
	xor	r8d, r10d
	mov	eax, esi
	and	eax, r8d
	xor	esi, r8d
	or	eax, esi
	mov	eax, eax
	mov	ecx, eax
	shl	rcx, 32
	mov	eax, dword ptr [rbp - 56]
	mov	ebx, eax
	mov	r14, rcx
	and	r14, rbx
	xor	rcx, rbx
	or	r14, rcx
	movsxd	rcx, dword ptr [rbp - 48]
	mov	qword ptr [8*rcx + _ZN8CryptoPPL2TeE], r14
	mov	dword ptr [rbp - 60], 1641858175
.LBB3_13:                               
	jmp	.LBB3_1
.Lfunc_end3:
	.size	_ZN8CryptoPP8Rijndael4Base12FillEncTableEv, .Lfunc_end3-_ZN8CryptoPP8Rijndael4Base12FillEncTableEv

	.globl	_ZN8CryptoPP8Rijndael4Base12FillDecTableEv 
	.p2align	4, 0x90
	.type	_ZN8CryptoPP8Rijndael4Base12FillDecTableEv,@function
_ZN8CryptoPP8Rijndael4Base12FillDecTableEv: 

	push	rbp
	mov	rbp, rsp
	push	r15
	push	r14
	push	r13
	push	r12
	push	rbx
	mov	dword ptr [rbp - 44], 0
	mov	dword ptr [rbp - 56], -2127797139
.LBB4_1:                                
	mov	eax, dword ptr [rbp - 56]
	mov	ecx, eax
	sub	ecx, -2127797139
	mov	dword ptr [rbp - 60], eax 
	mov	dword ptr [rbp - 64], ecx 
	je	.LBB4_3
	jmp	.LBB4_8
.LBB4_8:                                
	mov	eax, dword ptr [rbp - 60] 
	sub	eax, -1238901582
	mov	dword ptr [rbp - 68], eax 
	je	.LBB4_5
	jmp	.LBB4_9
.LBB4_9:                                
	mov	eax, dword ptr [rbp - 60] 
	sub	eax, -1175564449
	mov	dword ptr [rbp - 72], eax 
	je	.LBB4_6
	jmp	.LBB4_10
.LBB4_10:                               
	mov	eax, dword ptr [rbp - 60] 
	sub	eax, 920605099
	mov	dword ptr [rbp - 76], eax 
	je	.LBB4_4
	jmp	.LBB4_2
.LBB4_2:                                
	jmp	.LBB4_7
.LBB4_3:                                
	mov	eax, 3119402847
	mov	ecx, 920605099
	cmp	dword ptr [rbp - 44], 256
	cmovl	eax, ecx
	mov	dword ptr [rbp - 56], eax
	jmp	.LBB4_7
.LBB4_4:                                
	movabs	rax, 1354151904235707692
	mov	rcx, -1
	mov	edx, 4294967295
	movsxd	rsi, dword ptr [rbp - 44]
	mov	dil, byte ptr [rsi + _ZN8CryptoPP8Rijndael4Base2SdE]
	mov	byte ptr [rbp - 45], dil
	movzx	r8d, byte ptr [rbp - 45]
	shl	r8d, 3
	movzx	r9d, byte ptr [rbp - 45]
	sar	r9d, 5
	mov	r10d, edx
	xor	r10d, 1
	mov	r11d, r9d
	xor	r11d, r10d
	and	r11d, r9d
	imul	r9d, r11d, 283
	mov	r10d, r8d
	xor	r10d, -1
	mov	r11d, r9d
	and	r11d, r10d
	xor	r9d, -1
	and	r8d, r9d
	or	r11d, r8d
	movzx	r8d, byte ptr [rbp - 45]
	sar	r8d, 5
	mov	r9d, edx
	xor	r9d, 2
	mov	r10d, r8d
	xor	r10d, r9d
	and	r10d, r8d
	imul	r8d, r10d, 283
	mov	r9d, r11d
	xor	r9d, -1
	and	r9d, 1949954588
	mov	r10d, edx
	xor	r10d, 1949954588
	and	r11d, r10d
	mov	ebx, r8d
	xor	ebx, -1
	and	ebx, 1949954588
	and	r8d, r10d
	or	r9d, r11d
	or	ebx, r8d
	xor	r9d, ebx
	movzx	r8d, byte ptr [rbp - 45]
	sar	r8d, 5
	mov	r10d, edx
	xor	r10d, 4
	mov	r11d, r8d
	xor	r11d, r10d
	and	r11d, r8d
	imul	r8d, r11d, 283
	mov	r10d, r9d
	xor	r10d, -1
	mov	r11d, r8d
	and	r11d, r10d
	xor	r8d, -1
	and	r9d, r8d
	or	r11d, r9d
	movzx	r8d, byte ptr [rbp - 45]
	shl	r8d, 2
	movzx	r9d, byte ptr [rbp - 45]
	sar	r9d, 6
	xor	r9d, -1
	mov	r10d, edx
	xor	r10d, 1
	mov	ebx, edx
	xor	ebx, 724972479
	or	r9d, r10d
	or	ebx, 724972479
	xor	r9d, -1
	and	r9d, ebx
	imul	r9d, r9d, 283
	mov	r10d, r8d
	xor	r10d, -1
	mov	ebx, r9d
	and	ebx, r10d
	xor	r9d, -1
	and	r8d, r9d
	or	ebx, r8d
	movzx	r8d, byte ptr [rbp - 45]
	sar	r8d, 6
	xor	r8d, -1
	mov	r9d, edx
	xor	r9d, 2
	mov	r10d, edx
	xor	r10d, 1082311238
	or	r8d, r9d
	or	r10d, 1082311238
	xor	r8d, -1
	and	r8d, r10d
	imul	r8d, r8d, 283
	mov	r9d, ebx
	xor	r9d, -1
	mov	r10d, r8d
	and	r10d, r9d
	xor	r8d, -1
	and	ebx, r8d
	or	r10d, ebx
	mov	r8d, r11d
	xor	r8d, -1
	and	r8d, 30322807
	mov	r9d, edx
	xor	r9d, 30322807
	and	r11d, r9d
	mov	ebx, r10d
	xor	ebx, -1
	and	ebx, 30322807
	and	r10d, r9d
	or	r8d, r11d
	or	ebx, r10d
	xor	r8d, ebx
	movzx	r9d, byte ptr [rbp - 45]
	mov	r10d, r8d
	xor	r10d, -1
	and	r10d, 3850784689
	mov	r11d, edx
	xor	r11d, 3850784689
	and	r8d, r11d
	mov	ebx, r9d
	xor	ebx, -1
	and	ebx, -444182607
	and	r9d, r11d
	or	r10d, r8d
	or	ebx, r9d
	xor	r10d, ebx
	shl	r10d, 8
	movzx	r8d, byte ptr [rbp - 45]
	shl	r8d, 3
	movzx	r9d, byte ptr [rbp - 45]
	sar	r9d, 5
	xor	r9d, -1
	mov	r11d, edx
	xor	r11d, 1
	mov	ebx, edx
	xor	ebx, 2767216028
	or	r9d, r11d
	or	ebx, 2767216028
	xor	r9d, -1
	and	r9d, ebx
	imul	r9d, r9d, 283
	mov	r11d, r8d
	xor	r11d, -1
	and	r11d, 2670445370
	mov	ebx, edx
	xor	ebx, 2670445370
	and	r8d, ebx
	mov	r14d, r9d
	xor	r14d, -1
	and	r14d, -1624521926
	and	r9d, ebx
	or	r11d, r8d
	or	r14d, r9d
	xor	r11d, r14d
	movzx	r8d, byte ptr [rbp - 45]
	sar	r8d, 5
	mov	r9d, edx
	xor	r9d, 2
	mov	ebx, r8d
	xor	ebx, r9d
	and	ebx, r8d
	imul	r8d, ebx, 283
	mov	r9d, r11d
	xor	r9d, -1
	mov	ebx, r8d
	and	ebx, r9d
	xor	r8d, -1
	and	r11d, r8d
	or	ebx, r11d
	movzx	r8d, byte ptr [rbp - 45]
	sar	r8d, 5
	xor	r8d, -1
	mov	r9d, edx
	xor	r9d, 4
	mov	r11d, edx
	xor	r11d, 3974442837
	or	r8d, r9d
	or	r11d, 3974442837
	xor	r8d, -1
	and	r8d, r11d
	imul	r8d, r8d, 283
	mov	r9d, ebx
	xor	r9d, -1
	and	r9d, 348487757
	mov	r11d, edx
	xor	r11d, 348487757
	and	ebx, r11d
	mov	r14d, r8d
	xor	r14d, -1
	and	r14d, 348487757
	and	r8d, r11d
	or	r9d, ebx
	or	r14d, r8d
	xor	r9d, r14d
	movzx	r8d, byte ptr [rbp - 45]
	mov	r11d, r9d
	xor	r11d, -1
	and	r11d, 766222325
	mov	ebx, edx
	xor	ebx, 766222325
	and	r9d, ebx
	mov	r14d, r8d
	xor	r14d, -1
	and	r14d, 766222325
	and	r8d, ebx
	or	r11d, r9d
	or	r14d, r8d
	xor	r11d, r14d
	shl	r11d, 16
	mov	r8d, r10d
	and	r8d, r11d
	xor	r10d, r11d
	or	r8d, r10d
	movzx	r9d, byte ptr [rbp - 45]
	shl	r9d, 3
	movzx	r10d, byte ptr [rbp - 45]
	sar	r10d, 5
	xor	r10d, -1
	mov	r11d, edx
	xor	r11d, 1
	mov	ebx, edx
	xor	ebx, 3419996180
	or	r10d, r11d
	or	ebx, 3419996180
	xor	r10d, -1
	and	r10d, ebx
	imul	r10d, r10d, 283
	mov	r11d, r9d
	xor	r11d, -1
	and	r11d, 424931382
	mov	ebx, edx
	xor	ebx, 424931382
	and	r9d, ebx
	mov	r14d, r10d
	xor	r14d, -1
	and	r14d, 424931382
	and	r10d, ebx
	or	r11d, r9d
	or	r14d, r10d
	xor	r11d, r14d
	movzx	r9d, byte ptr [rbp - 45]
	sar	r9d, 5
	mov	r10d, edx
	xor	r10d, 2
	mov	ebx, r9d
	xor	ebx, r10d
	and	ebx, r9d
	imul	r9d, ebx, 283
	mov	r10d, r11d
	xor	r10d, -1
	and	r10d, 2339158185
	mov	ebx, edx
	xor	ebx, 2339158185
	and	r11d, ebx
	mov	r14d, r9d
	xor	r14d, -1
	and	r14d, -1955809111
	and	r9d, ebx
	or	r10d, r11d
	or	r14d, r9d
	xor	r10d, r14d
	movzx	r9d, byte ptr [rbp - 45]
	sar	r9d, 5
	mov	r11d, edx
	xor	r11d, 4
	mov	ebx, r9d
	xor	ebx, r11d
	and	ebx, r9d
	imul	r9d, ebx, 283
	mov	r11d, r10d
	xor	r11d, -1
	and	r11d, 2560807862
	mov	ebx, edx
	xor	ebx, 2560807862
	and	r10d, ebx
	mov	r14d, r9d
	xor	r14d, -1
	and	r14d, -1734159434
	and	r9d, ebx
	or	r11d, r10d
	or	r14d, r9d
	xor	r11d, r14d
	movzx	r9d, byte ptr [rbp - 45]
	shl	r9d, 2
	movzx	r10d, byte ptr [rbp - 45]
	sar	r10d, 6
	xor	r10d, -1
	mov	ebx, edx
	xor	ebx, 1
	mov	r14d, edx
	xor	r14d, 3013829336
	or	r10d, ebx
	or	r14d, 3013829336
	xor	r10d, -1
	and	r10d, r14d
	imul	r10d, r10d, 283
	mov	ebx, r9d
	xor	ebx, -1
	mov	r14d, r10d
	and	r14d, ebx
	xor	r10d, -1
	and	r9d, r10d
	or	r14d, r9d
	movzx	r9d, byte ptr [rbp - 45]
	sar	r9d, 6
	xor	r9d, -1
	mov	r10d, edx
	xor	r10d, 2
	mov	ebx, edx
	xor	ebx, 3090920962
	or	r9d, r10d
	or	ebx, 3090920962
	xor	r9d, -1
	and	r9d, ebx
	imul	r9d, r9d, 283
	mov	r10d, r14d
	xor	r10d, -1
	and	r10d, 787909933
	mov	ebx, edx
	xor	ebx, 787909933
	and	r14d, ebx
	mov	r15d, r9d
	xor	r15d, -1
	and	r15d, 787909933
	and	r9d, ebx
	or	r10d, r14d
	or	r15d, r9d
	xor	r10d, r15d
	mov	r9d, r11d
	xor	r9d, -1
	mov	ebx, r10d
	and	ebx, r9d
	xor	r10d, -1
	and	r11d, r10d
	or	ebx, r11d
	movzx	r9d, byte ptr [rbp - 45]
	shl	r9d, 1
	movzx	r10d, byte ptr [rbp - 45]
	sar	r10d, 7
	mov	r11d, edx
	xor	r11d, 1
	mov	r14d, r10d
	xor	r14d, r11d
	and	r14d, r10d
	imul	r10d, r14d, 283
	mov	r11d, r9d
	xor	r11d, -1
	and	r11d, 1539638423
	mov	r14d, edx
	xor	r14d, 1539638423
	and	r9d, r14d
	mov	r15d, r10d
	xor	r15d, -1
	and	r15d, 1539638423
	and	r10d, r14d
	or	r11d, r9d
	or	r15d, r10d
	xor	r11d, r15d
	mov	r9d, ebx
	xor	r9d, -1
	and	r9d, 3190066644
	mov	r10d, edx
	xor	r10d, 3190066644
	and	ebx, r10d
	mov	r14d, r11d
	xor	r14d, -1
	and	r14d, -1104900652
	and	r11d, r10d
	or	r9d, ebx
	or	r14d, r11d
	xor	r9d, r14d
	shl	r9d, 24
	mov	r10d, r8d
	and	r10d, r9d
	xor	r8d, r9d
	or	r10d, r8d
	mov	dword ptr [rbp - 52], r10d
	mov	r8d, dword ptr [rbp - 52]
	movzx	r9d, byte ptr [rbp - 45]
	shl	r9d, 3
	movzx	r10d, byte ptr [rbp - 45]
	sar	r10d, 5
	mov	r11d, edx
	xor	r11d, 1
	mov	ebx, r10d
	xor	ebx, r11d
	and	ebx, r10d
	imul	r10d, ebx, 283
	mov	r11d, r9d
	xor	r11d, -1
	mov	ebx, r10d
	and	ebx, r11d
	xor	r10d, -1
	and	r9d, r10d
	or	ebx, r9d
	movzx	r9d, byte ptr [rbp - 45]
	sar	r9d, 5
	xor	r9d, -1
	mov	r10d, edx
	xor	r10d, 2
	mov	r11d, edx
	xor	r11d, 2373338624
	or	r9d, r10d
	or	r11d, 2373338624
	xor	r9d, -1
	and	r9d, r11d
	imul	r9d, r9d, 283
	mov	r10d, ebx
	xor	r10d, -1
	and	r10d, 2524254896
	mov	r11d, edx
	xor	r11d, 2524254896
	and	ebx, r11d
	mov	r14d, r9d
	xor	r14d, -1
	and	r14d, -1770712400
	and	r9d, r11d
	or	r10d, ebx
	or	r14d, r9d
	xor	r10d, r14d
	movzx	r9d, byte ptr [rbp - 45]
	sar	r9d, 5
	mov	r11d, edx
	xor	r11d, 4
	mov	ebx, r9d
	xor	ebx, r11d
	and	ebx, r9d
	imul	r9d, ebx, 283
	mov	r11d, r10d
	xor	r11d, -1
	and	r11d, 1592342670
	mov	ebx, edx
	xor	ebx, 1592342670
	and	r10d, ebx
	mov	r14d, r9d
	xor	r14d, -1
	and	r14d, 1592342670
	and	r9d, ebx
	or	r11d, r10d
	or	r14d, r9d
	xor	r11d, r14d
	movzx	r9d, byte ptr [rbp - 45]
	shl	r9d, 1
	movzx	r10d, byte ptr [rbp - 45]
	sar	r10d, 7
	xor	r10d, -1
	mov	ebx, edx
	xor	ebx, 1
	mov	r14d, edx
	xor	r14d, 364754178
	or	r10d, ebx
	or	r14d, 364754178
	xor	r10d, -1
	and	r10d, r14d
	imul	r10d, r10d, 283
	mov	ebx, r9d
	xor	ebx, -1
	and	ebx, 3316722467
	mov	r14d, edx
	xor	r14d, 3316722467
	and	r9d, r14d
	mov	r15d, r10d
	xor	r15d, -1
	and	r15d, -978244829
	and	r10d, r14d
	or	ebx, r9d
	or	r15d, r10d
	xor	ebx, r15d
	mov	r9d, r11d
	xor	r9d, -1
	mov	r10d, ebx
	and	r10d, r9d
	xor	ebx, -1
	and	r11d, ebx
	or	r10d, r11d
	movzx	r9d, byte ptr [rbp - 45]
	mov	r11d, r10d
	xor	r11d, -1
	mov	ebx, r9d
	and	ebx, r11d
	xor	r9d, -1
	and	r10d, r9d
	or	ebx, r10d
	mov	r9d, r8d
	xor	r9d, -1
	mov	r10d, ebx
	xor	r10d, -1
	xor	edx, 4155042111
	mov	r11d, r9d
	and	r11d, -139925185
	and	r8d, edx
	mov	r14d, r10d
	and	r14d, -139925185
	and	ebx, edx
	or	r11d, r8d
	or	r14d, ebx
	xor	r11d, r14d
	or	r9d, r10d
	xor	r9d, -1
	or	edx, 4155042111
	and	r9d, edx
	or	r11d, r9d
	mov	edx, r11d
	mov	esi, edx
	shl	rsi, 32
	mov	edx, dword ptr [rbp - 52]
	mov	r12d, edx
	mov	r13, rsi
	xor	r13, -1
	mov	rdi, r12
	xor	rdi, -1
	xor	rcx, rax
	mov	r8, r13
	and	r8, rax
	and	rsi, rcx
	mov	r9, rdi
	and	r9, rax
	and	r12, rcx
	or	r8, rsi
	or	r9, r12
	xor	r8, r9
	or	r13, rdi
	xor	r13, -1
	or	rcx, rax
	and	r13, rcx
	or	r8, r13
	movzx	edx, byte ptr [rbp - 45]
	mov	eax, edx
	mov	rcx, r8
	and	rcx, rax
	xor	r8, rax
	or	rcx, r8
	movsxd	rax, dword ptr [rbp - 44]
	mov	qword ptr [8*rax + _ZN8CryptoPPL2TdE], rcx
	mov	dword ptr [rbp - 56], -1238901582
	jmp	.LBB4_7
.LBB4_5:                                
	mov	eax, dword ptr [rbp - 44]
	sub	eax, -938806149
	add	eax, 1
	add	eax, -938806149
	mov	dword ptr [rbp - 44], eax
	mov	dword ptr [rbp - 56], -2127797139
	jmp	.LBB4_7
.LBB4_6:
	mov	byte ptr [_ZN8CryptoPPL10s_TdFilledE], 1
	pop	rbx
	pop	r12
	pop	r13
	pop	r14
	pop	r15
	pop	rbp
	ret
.LBB4_7:                                
	jmp	.LBB4_1
.Lfunc_end4:
	.size	_ZN8CryptoPP8Rijndael4Base12FillDecTableEv, .Lfunc_end4-_ZN8CryptoPP8Rijndael4Base12FillDecTableEv

	.globl	_ZNK8CryptoPP8Rijndael4Base17AlgorithmProviderB5cxx11Ev 
	.p2align	4, 0x90
	.type	_ZNK8CryptoPP8Rijndael4Base17AlgorithmProviderB5cxx11Ev,@function
_ZNK8CryptoPP8Rijndael4Base17AlgorithmProviderB5cxx11Ev: 
.Lfunc_begin0:
	.cfi_startproc
	.cfi_personality 3, __gxx_personality_v0
	.cfi_lsda 3, .Lexception0

	push	rbp
.Lcfi13:
	.cfi_def_cfa_offset 16
.Lcfi14:
	.cfi_offset rbp, -16
	mov	rbp, rsp
.Lcfi15:
	.cfi_def_cfa_register rbp
	sub	rsp, 64
	mov	rax, rdi
	mov	qword ptr [rbp - 8], rsi
	mov	qword ptr [rbp - 40], rax 
	mov	qword ptr [rbp - 48], rdi 
	call	_ZN8CryptoPP8HasAESNIEv
	test	al, 1
	jne	.LBB5_1
	jmp	.LBB5_4
.LBB5_1:
	lea	rax, [rbp - 16]
	mov	rdi, rax
	mov	qword ptr [rbp - 56], rax 
	call	_ZNSaIcEC1Ev
.Ltmp3:
	mov	ecx, .L.str
	mov	esi, ecx
	mov	rdi, qword ptr [rbp - 48] 
	mov	rdx, qword ptr [rbp - 56] 
	call	_ZNSt7__cxx1112basic_stringIcSt11char_traitsIcESaIcEEC1EPKcRKS3_
.Ltmp4:
	jmp	.LBB5_2
.LBB5_2:
	lea	rdi, [rbp - 16]
	call	_ZNSaIcED1Ev
	jmp	.LBB5_7
.LBB5_3:
.Ltmp5:
	lea	rdi, [rbp - 16]
	mov	ecx, edx
	mov	qword ptr [rbp - 24], rax
	mov	dword ptr [rbp - 28], ecx
	call	_ZNSaIcED1Ev
	jmp	.LBB5_8
.LBB5_4:
	lea	rax, [rbp - 32]
	mov	rdi, rax
	mov	qword ptr [rbp - 64], rax 
	call	_ZNSaIcEC1Ev
.Ltmp0:
	mov	ecx, .L.str.1
	mov	esi, ecx
	mov	rdi, qword ptr [rbp - 48] 
	mov	rdx, qword ptr [rbp - 64] 
	call	_ZNSt7__cxx1112basic_stringIcSt11char_traitsIcESaIcEEC1EPKcRKS3_
.Ltmp1:
	jmp	.LBB5_5
.LBB5_5:
	lea	rdi, [rbp - 32]
	call	_ZNSaIcED1Ev
	jmp	.LBB5_7
.LBB5_6:
.Ltmp2:
	lea	rdi, [rbp - 32]
	mov	ecx, edx
	mov	qword ptr [rbp - 24], rax
	mov	dword ptr [rbp - 28], ecx
	call	_ZNSaIcED1Ev
	jmp	.LBB5_8
.LBB5_7:
	mov	rax, qword ptr [rbp - 40] 
	add	rsp, 64
	pop	rbp
	ret
.LBB5_8:
	mov	rdi, qword ptr [rbp - 24]
	call	_Unwind_Resume
.Lfunc_end5:
	.size	_ZNK8CryptoPP8Rijndael4Base17AlgorithmProviderB5cxx11Ev, .Lfunc_end5-_ZNK8CryptoPP8Rijndael4Base17AlgorithmProviderB5cxx11Ev
	.cfi_endproc
	.section	.gcc_except_table,"a",@progbits
	.p2align	2
GCC_except_table5:
.Lexception0:
	.byte	255                     
	.byte	3                       
	.asciz	"\266\200\200"          
	.byte	3                       
	.byte	52                      
	.long	.Lfunc_begin0-.Lfunc_begin0 
	.long	.Ltmp3-.Lfunc_begin0    
	.long	0                       
	.byte	0                       
	.long	.Ltmp3-.Lfunc_begin0    
	.long	.Ltmp4-.Ltmp3           
	.long	.Ltmp5-.Lfunc_begin0    
	.byte	0                       
	.long	.Ltmp0-.Lfunc_begin0    
	.long	.Ltmp1-.Ltmp0           
	.long	.Ltmp2-.Lfunc_begin0    
	.byte	0                       
	.long	.Ltmp1-.Lfunc_begin0    
	.long	.Lfunc_end5-.Ltmp1      
	.long	0                       
	.byte	0                       
	.p2align	2

	.text
	.globl	_ZThn8_NK8CryptoPP8Rijndael4Base17AlgorithmProviderB5cxx11Ev 
	.p2align	4, 0x90
	.type	_ZThn8_NK8CryptoPP8Rijndael4Base17AlgorithmProviderB5cxx11Ev,@function
_ZThn8_NK8CryptoPP8Rijndael4Base17AlgorithmProviderB5cxx11Ev: 
	.cfi_startproc

	push	rbp
.Lcfi16:
	.cfi_def_cfa_offset 16
.Lcfi17:
	.cfi_offset rbp, -16
	mov	rbp, rsp
.Lcfi18:
	.cfi_def_cfa_register rbp
	sub	rsp, 16
	mov	rax, rdi
	mov	qword ptr [rbp - 8], rsi
	mov	rsi, qword ptr [rbp - 8]
	add	rsi, -8
	mov	qword ptr [rbp - 16], rax 
	call	_ZNK8CryptoPP8Rijndael4Base17AlgorithmProviderB5cxx11Ev
	mov	rax, qword ptr [rbp - 16] 
	add	rsp, 16
	pop	rbp
	ret
.Lfunc_end6:
	.size	_ZThn8_NK8CryptoPP8Rijndael4Base17AlgorithmProviderB5cxx11Ev, .Lfunc_end6-_ZThn8_NK8CryptoPP8Rijndael4Base17AlgorithmProviderB5cxx11Ev
	.cfi_endproc

	.globl	_ZN8CryptoPP8Rijndael4Base15UncheckedSetKeyEPKhjRKNS_14NameValuePairsE 
	.p2align	4, 0x90
	.type	_ZN8CryptoPP8Rijndael4Base15UncheckedSetKeyEPKhjRKNS_14NameValuePairsE,@function
_ZN8CryptoPP8Rijndael4Base15UncheckedSetKeyEPKhjRKNS_14NameValuePairsE: 
	.cfi_startproc

	push	rbp
.Lcfi19:
	.cfi_def_cfa_offset 16
.Lcfi20:
	.cfi_offset rbp, -16
	mov	rbp, rsp
.Lcfi21:
	.cfi_def_cfa_register rbp
	push	r15
	push	r14
	push	r13
	push	r12
	push	rbx
	sub	rsp, 328
.Lcfi22:
	.cfi_offset rbx, -56
.Lcfi23:
	.cfi_offset r12, -48
.Lcfi24:
	.cfi_offset r13, -40
.Lcfi25:
	.cfi_offset r14, -32
.Lcfi26:
	.cfi_offset r15, -24
	mov	qword ptr [rbp - 64], rdi
	mov	qword ptr [rbp - 72], rsi
	mov	dword ptr [rbp - 76], edx
	mov	qword ptr [rbp - 88], rcx
	mov	rcx, qword ptr [rbp - 64]
	mov	qword ptr [rbp - 56], rcx
	mov	rcx, qword ptr [rbp - 56]
	mov	edx, dword ptr [rbp - 76]
	mov	esi, edx
	mov	rdi, rcx
	call	_ZNK8CryptoPP21SimpleKeyingInterface20AssertValidKeyLengthEm
	mov	edx, 4664
	mov	esi, edx
	mov	rcx, qword ptr [rbp - 56]
	add	rcx, 56
	mov	rdi, rcx
	call	_ZN8CryptoPP8SecBlockIhNS_20AllocatorWithCleanupIhLb0EEEE3NewEm
	xor	edx, edx
	mov	esi, edx
	mov	rcx, qword ptr [rbp - 56]
	add	rcx, 56
	mov	rdi, rcx
	call	_ZN8CryptoPP8SecBlockIhNS_20AllocatorWithCleanupIhLb0EEEE7SetMarkEm
	xor	edx, edx
	mov	eax, dword ptr [rbp - 76]
	shr	eax, 2
	add	eax, 720879158
	add	eax, 6
	sub	eax, 720879158
	mov	rcx, qword ptr [rbp - 56]
	mov	dword ptr [rcx + 16], eax
	mov	rcx, qword ptr [rbp - 56]
	add	rcx, 24
	mov	rsi, qword ptr [rbp - 56]
	mov	eax, dword ptr [rsi + 16]
	sub	edx, 1
	sub	eax, edx
	shl	eax, 2
	mov	eax, eax
	mov	esi, eax
	mov	rdi, rcx
	call	_ZN8CryptoPP8SecBlockIjNS_20AllocatorWithCleanupIjLb1EEEE3NewEm
	mov	rcx, qword ptr [rbp - 56]
	add	rcx, 24
	mov	rdi, rcx
	call	_ZN8CryptoPP8SecBlockIjNS_20AllocatorWithCleanupIjLb1EEEEcvPjEv
	mov	qword ptr [rbp - 96], rax
	mov	dword ptr [rbp - 124], -1272184027
.LBB7_1:                                
	mov	eax, dword ptr [rbp - 124]
	mov	ecx, eax
	sub	ecx, -2136974568
	mov	dword ptr [rbp - 128], eax 
	mov	dword ptr [rbp - 132], ecx 
	je	.LBB7_20
	jmp	.LBB7_53
.LBB7_53:                               
	mov	eax, dword ptr [rbp - 128] 
	sub	eax, -1759806408
	mov	dword ptr [rbp - 136], eax 
	je	.LBB7_29
	jmp	.LBB7_54
.LBB7_54:                               
	mov	eax, dword ptr [rbp - 128] 
	sub	eax, -1676367934
	mov	dword ptr [rbp - 140], eax 
	je	.LBB7_42
	jmp	.LBB7_55
.LBB7_55:                               
	mov	eax, dword ptr [rbp - 128] 
	sub	eax, -1526574857
	mov	dword ptr [rbp - 144], eax 
	je	.LBB7_45
	jmp	.LBB7_56
.LBB7_56:                               
	mov	eax, dword ptr [rbp - 128] 
	sub	eax, -1495810462
	mov	dword ptr [rbp - 148], eax 
	je	.LBB7_16
	jmp	.LBB7_57
.LBB7_57:                               
	mov	eax, dword ptr [rbp - 128] 
	sub	eax, -1480622907
	mov	dword ptr [rbp - 152], eax 
	je	.LBB7_7
	jmp	.LBB7_58
.LBB7_58:                               
	mov	eax, dword ptr [rbp - 128] 
	sub	eax, -1472979236
	mov	dword ptr [rbp - 156], eax 
	je	.LBB7_38
	jmp	.LBB7_59
.LBB7_59:                               
	mov	eax, dword ptr [rbp - 128] 
	sub	eax, -1386145370
	mov	dword ptr [rbp - 160], eax 
	je	.LBB7_34
	jmp	.LBB7_60
.LBB7_60:                               
	mov	eax, dword ptr [rbp - 128] 
	sub	eax, -1343732531
	mov	dword ptr [rbp - 164], eax 
	je	.LBB7_17
	jmp	.LBB7_61
.LBB7_61:                               
	mov	eax, dword ptr [rbp - 128] 
	sub	eax, -1288548400
	mov	dword ptr [rbp - 168], eax 
	je	.LBB7_41
	jmp	.LBB7_62
.LBB7_62:                               
	mov	eax, dword ptr [rbp - 128] 
	sub	eax, -1272184027
	mov	dword ptr [rbp - 172], eax 
	je	.LBB7_3
	jmp	.LBB7_63
.LBB7_63:                               
	mov	eax, dword ptr [rbp - 128] 
	sub	eax, -1265188179
	mov	dword ptr [rbp - 176], eax 
	je	.LBB7_50
	jmp	.LBB7_64
.LBB7_64:                               
	mov	eax, dword ptr [rbp - 128] 
	sub	eax, -1149828709
	mov	dword ptr [rbp - 180], eax 
	je	.LBB7_25
	jmp	.LBB7_65
.LBB7_65:                               
	mov	eax, dword ptr [rbp - 128] 
	sub	eax, -1125464173
	mov	dword ptr [rbp - 184], eax 
	je	.LBB7_8
	jmp	.LBB7_66
.LBB7_66:                               
	mov	eax, dword ptr [rbp - 128] 
	sub	eax, -1064839911
	mov	dword ptr [rbp - 188], eax 
	je	.LBB7_19
	jmp	.LBB7_67
.LBB7_67:                               
	mov	eax, dword ptr [rbp - 128] 
	sub	eax, -985603355
	mov	dword ptr [rbp - 192], eax 
	je	.LBB7_37
	jmp	.LBB7_68
.LBB7_68:                               
	mov	eax, dword ptr [rbp - 128] 
	sub	eax, -954016020
	mov	dword ptr [rbp - 196], eax 
	je	.LBB7_44
	jmp	.LBB7_69
.LBB7_69:                               
	mov	eax, dword ptr [rbp - 128] 
	sub	eax, -871095709
	mov	dword ptr [rbp - 200], eax 
	je	.LBB7_49
	jmp	.LBB7_70
.LBB7_70:                               
	mov	eax, dword ptr [rbp - 128] 
	sub	eax, -769824622
	mov	dword ptr [rbp - 204], eax 
	je	.LBB7_33
	jmp	.LBB7_71
.LBB7_71:                               
	mov	eax, dword ptr [rbp - 128] 
	sub	eax, -590218181
	mov	dword ptr [rbp - 208], eax 
	je	.LBB7_46
	jmp	.LBB7_72
.LBB7_72:                               
	mov	eax, dword ptr [rbp - 128] 
	sub	eax, -501363774
	mov	dword ptr [rbp - 212], eax 
	je	.LBB7_21
	jmp	.LBB7_73
.LBB7_73:                               
	mov	eax, dword ptr [rbp - 128] 
	sub	eax, -448168939
	mov	dword ptr [rbp - 216], eax 
	je	.LBB7_32
	jmp	.LBB7_74
.LBB7_74:                               
	mov	eax, dword ptr [rbp - 128] 
	sub	eax, -373188192
	mov	dword ptr [rbp - 220], eax 
	je	.LBB7_15
	jmp	.LBB7_75
.LBB7_75:                               
	mov	eax, dword ptr [rbp - 128] 
	sub	eax, -136948518
	mov	dword ptr [rbp - 224], eax 
	je	.LBB7_35
	jmp	.LBB7_76
.LBB7_76:                               
	mov	eax, dword ptr [rbp - 128] 
	sub	eax, -41194449
	mov	dword ptr [rbp - 228], eax 
	je	.LBB7_4
	jmp	.LBB7_77
.LBB7_77:                               
	mov	eax, dword ptr [rbp - 128] 
	sub	eax, 117908455
	mov	dword ptr [rbp - 232], eax 
	je	.LBB7_43
	jmp	.LBB7_78
.LBB7_78:                               
	mov	eax, dword ptr [rbp - 128] 
	sub	eax, 120520715
	mov	dword ptr [rbp - 236], eax 
	je	.LBB7_12
	jmp	.LBB7_79
.LBB7_79:                               
	mov	eax, dword ptr [rbp - 128] 
	sub	eax, 152317513
	mov	dword ptr [rbp - 240], eax 
	je	.LBB7_14
	jmp	.LBB7_80
.LBB7_80:                               
	mov	eax, dword ptr [rbp - 128] 
	sub	eax, 160790907
	mov	dword ptr [rbp - 244], eax 
	je	.LBB7_30
	jmp	.LBB7_81
.LBB7_81:                               
	mov	eax, dword ptr [rbp - 128] 
	sub	eax, 183761137
	mov	dword ptr [rbp - 248], eax 
	je	.LBB7_10
	jmp	.LBB7_82
.LBB7_82:                               
	mov	eax, dword ptr [rbp - 128] 
	sub	eax, 203669100
	mov	dword ptr [rbp - 252], eax 
	je	.LBB7_22
	jmp	.LBB7_83
.LBB7_83:                               
	mov	eax, dword ptr [rbp - 128] 
	sub	eax, 421651069
	mov	dword ptr [rbp - 256], eax 
	je	.LBB7_5
	jmp	.LBB7_84
.LBB7_84:                               
	mov	eax, dword ptr [rbp - 128] 
	sub	eax, 469065774
	mov	dword ptr [rbp - 260], eax 
	je	.LBB7_31
	jmp	.LBB7_85
.LBB7_85:                               
	mov	eax, dword ptr [rbp - 128] 
	sub	eax, 530693896
	mov	dword ptr [rbp - 264], eax 
	je	.LBB7_23
	jmp	.LBB7_86
.LBB7_86:                               
	mov	eax, dword ptr [rbp - 128] 
	sub	eax, 875524180
	mov	dword ptr [rbp - 268], eax 
	je	.LBB7_24
	jmp	.LBB7_87
.LBB7_87:                               
	mov	eax, dword ptr [rbp - 128] 
	sub	eax, 1085913238
	mov	dword ptr [rbp - 272], eax 
	je	.LBB7_48
	jmp	.LBB7_88
.LBB7_88:                               
	mov	eax, dword ptr [rbp - 128] 
	sub	eax, 1090692117
	mov	dword ptr [rbp - 276], eax 
	je	.LBB7_47
	jmp	.LBB7_89
.LBB7_89:                               
	mov	eax, dword ptr [rbp - 128] 
	sub	eax, 1227405203
	mov	dword ptr [rbp - 280], eax 
	je	.LBB7_13
	jmp	.LBB7_90
.LBB7_90:                               
	mov	eax, dword ptr [rbp - 128] 
	sub	eax, 1306615130
	mov	dword ptr [rbp - 284], eax 
	je	.LBB7_26
	jmp	.LBB7_91
.LBB7_91:                               
	mov	eax, dword ptr [rbp - 128] 
	sub	eax, 1454651778
	mov	dword ptr [rbp - 288], eax 
	je	.LBB7_40
	jmp	.LBB7_92
.LBB7_92:                               
	mov	eax, dword ptr [rbp - 128] 
	sub	eax, 1555289344
	mov	dword ptr [rbp - 292], eax 
	je	.LBB7_18
	jmp	.LBB7_93
.LBB7_93:                               
	mov	eax, dword ptr [rbp - 128] 
	sub	eax, 1571903209
	mov	dword ptr [rbp - 296], eax 
	je	.LBB7_27
	jmp	.LBB7_94
.LBB7_94:                               
	mov	eax, dword ptr [rbp - 128] 
	sub	eax, 1642260900
	mov	dword ptr [rbp - 300], eax 
	je	.LBB7_28
	jmp	.LBB7_95
.LBB7_95:                               
	mov	eax, dword ptr [rbp - 128] 
	sub	eax, 1666944055
	mov	dword ptr [rbp - 304], eax 
	je	.LBB7_51
	jmp	.LBB7_96
.LBB7_96:                               
	mov	eax, dword ptr [rbp - 128] 
	sub	eax, 1778307667
	mov	dword ptr [rbp - 308], eax 
	je	.LBB7_9
	jmp	.LBB7_97
.LBB7_97:                               
	mov	eax, dword ptr [rbp - 128] 
	sub	eax, 1828192655
	mov	dword ptr [rbp - 312], eax 
	je	.LBB7_6
	jmp	.LBB7_98
.LBB7_98:                               
	mov	eax, dword ptr [rbp - 128] 
	sub	eax, 1971608533
	mov	dword ptr [rbp - 316], eax 
	je	.LBB7_36
	jmp	.LBB7_99
.LBB7_99:                               
	mov	eax, dword ptr [rbp - 128] 
	sub	eax, 2093385782
	mov	dword ptr [rbp - 320], eax 
	je	.LBB7_39
	jmp	.LBB7_100
.LBB7_100:                              
	mov	eax, dword ptr [rbp - 128] 
	sub	eax, 2115078745
	mov	dword ptr [rbp - 324], eax 
	je	.LBB7_11
	jmp	.LBB7_2
.LBB7_2:                                
	jmp	.LBB7_52
.LBB7_3:                                
	call	_ZN8CryptoPP8HasAESNIEv
	mov	ecx, 120520715
	mov	edx, 4253772847
	test	al, 1
	cmovne	ecx, edx
	mov	dword ptr [rbp - 124], ecx
	jmp	.LBB7_52
.LBB7_4:                                
	call	_ZN8CryptoPP8HasSSE41Ev
	mov	ecx, 120520715
	mov	edx, 421651069
	test	al, 1
	cmovne	ecx, edx
	mov	dword ptr [rbp - 124], ecx
	jmp	.LBB7_52
.LBB7_5:                                
	mov	eax, 2768392439
	mov	ecx, 1828192655
	mov	dl, 1
	mov	esi, dword ptr [x.18]
	mov	edi, dword ptr [y.19]
	mov	r8d, esi
	add	r8d, -300763270
	sub	r8d, 1
	sub	r8d, -300763270
	imul	esi, r8d
	and	esi, 1
	cmp	esi, 0
	sete	r9b
	cmp	edi, 10
	setl	r10b
	mov	r11b, r9b
	xor	r11b, -1
	mov	bl, r10b
	xor	bl, -1
	xor	dl, 1
	mov	r14b, r11b
	and	r14b, -1
	and	r9b, dl
	mov	r15b, bl
	and	r15b, -1
	and	r10b, dl
	or	r14b, r9b
	or	r15b, r10b
	xor	r14b, r15b
	or	r11b, bl
	xor	r11b, -1
	or	dl, 1
	and	r11b, dl
	or	r14b, r11b
	test	r14b, 1
	cmovne	eax, ecx
	mov	dword ptr [rbp - 124], eax
	jmp	.LBB7_52
.LBB7_6:                                
	mov	rdi, qword ptr [rbp - 72]
	mov	eax, dword ptr [rbp - 76]
	mov	esi, eax
	mov	rdx, qword ptr [rbp - 96]
	call	_ZN8CryptoPP35Rijndael_UncheckedSetKey_SSE4_AESNIEPKhmPj
	mov	rdx, qword ptr [rbp - 56]
	mov	rsi, rdx
	add	rsi, 8
	mov	rdx, qword ptr [rdx + 8]
	mov	rdi, rsi
	call	qword ptr [rdx + 72]
	mov	ecx, 2768392439
	mov	r8d, 2814344389
	mov	r9b, 1
	and	al, 1
	mov	byte ptr [rbp - 43], al
	mov	r10d, dword ptr [x.18]
	mov	r11d, dword ptr [y.19]
	mov	ebx, r10d
	sub	ebx, -1999738601
	sub	ebx, 1
	add	ebx, -1999738601
	imul	r10d, ebx
	and	r10d, 1
	cmp	r10d, 0
	sete	al
	cmp	r11d, 10
	setl	r14b
	mov	r15b, al
	xor	r15b, -1
	mov	r12b, r14b
	xor	r12b, -1
	xor	r9b, 0
	mov	r13b, r15b
	and	r13b, 0
	and	al, r9b
	mov	dl, r12b
	and	dl, 0
	and	r14b, r9b
	or	r13b, al
	or	dl, r14b
	xor	r13b, dl
	or	r15b, r12b
	xor	r15b, -1
	or	r9b, 0
	and	r15b, r9b
	or	r13b, r15b
	test	r13b, 1
	cmovne	ecx, r8d
	mov	dword ptr [rbp - 124], ecx
	jmp	.LBB7_52
.LBB7_7:                                
	mov	eax, 3169503123
	mov	ecx, 1778307667
	mov	dl, byte ptr [rbp - 43]
	test	dl, 1
	cmovne	eax, ecx
	mov	dword ptr [rbp - 124], eax
	jmp	.LBB7_52
.LBB7_8:                                
	mov	rax, qword ptr [rbp - 56]
	add	rax, 24
	mov	rdi, rax
	call	_ZN8CryptoPP8SecBlockIjNS_20AllocatorWithCleanupIjLb1EEEEcvPjEv
	mov	rdi, qword ptr [rbp - 56]
	mov	esi, dword ptr [rdi + 16]
	mov	rdi, rax
	call	_ZN8CryptoPP33Rijndael_UncheckedSetKeyRev_AESNIEPjj
	mov	dword ptr [rbp - 124], 1778307667
	jmp	.LBB7_52
.LBB7_9:                                
	mov	eax, 3704749115
	mov	ecx, 183761137
	mov	dl, 1
	mov	esi, dword ptr [x.18]
	mov	edi, dword ptr [y.19]
	mov	r8d, esi
	add	r8d, -917231147
	sub	r8d, 1
	sub	r8d, -917231147
	imul	esi, r8d
	and	esi, 1
	cmp	esi, 0
	sete	r9b
	cmp	edi, 10
	setl	r10b
	mov	r11b, r9b
	xor	r11b, -1
	mov	bl, r10b
	xor	bl, -1
	xor	dl, 0
	mov	r14b, r11b
	and	r14b, 0
	and	r9b, dl
	mov	r15b, bl
	and	r15b, 0
	and	r10b, dl
	or	r14b, r9b
	or	r15b, r10b
	xor	r14b, r15b
	or	r11b, bl
	xor	r11b, -1
	or	dl, 0
	and	r11b, dl
	or	r14b, r11b
	test	r14b, 1
	cmovne	eax, ecx
	mov	dword ptr [rbp - 124], eax
	jmp	.LBB7_52
.LBB7_10:                               
	mov	eax, 3704749115
	mov	ecx, 2115078745
	mov	dl, 1
	xor	esi, esi
	mov	edi, dword ptr [x.18]
	mov	r8d, dword ptr [y.19]
	sub	esi, 1
	mov	r9d, edi
	add	r9d, esi
	imul	edi, r9d
	and	edi, 1
	cmp	edi, 0
	sete	r10b
	cmp	r8d, 10
	setl	r11b
	mov	bl, r10b
	xor	bl, -1
	mov	r14b, r11b
	xor	r14b, -1
	xor	dl, 1
	mov	r15b, bl
	and	r15b, -1
	and	r10b, dl
	mov	r12b, r14b
	and	r12b, -1
	and	r11b, dl
	or	r15b, r10b
	or	r12b, r11b
	xor	r15b, r12b
	or	bl, r14b
	xor	bl, -1
	or	dl, 1
	and	bl, dl
	or	r15b, bl
	test	r15b, 1
	cmovne	eax, ecx
	mov	dword ptr [rbp - 124], eax
	jmp	.LBB7_52
.LBB7_11:                               
	mov	dword ptr [rbp - 124], -1676367934
	jmp	.LBB7_52
.LBB7_12:                               
	mov	edi, 1
	mov	rsi, qword ptr [rbp - 96]
	mov	eax, dword ptr [rbp - 76]
	shr	eax, 2
	mov	eax, eax
	mov	edx, eax
	mov	rcx, qword ptr [rbp - 72]
	mov	eax, dword ptr [rbp - 76]
	mov	r8d, eax
	call	_ZN8CryptoPP10GetUserKeyIjEEvNS_9ByteOrderEPT_mPKhm
	movabs	rcx, _ZN8CryptoPP8Rijndael4Base4rconE
	mov	qword ptr [rbp - 104], rcx
	mov	dword ptr [rbp - 124], 1227405203
	jmp	.LBB7_52
.LBB7_13:                               
	xor	eax, eax
	mov	ecx, 4294967295
	mov	rdx, qword ptr [rbp - 96]
	mov	esi, dword ptr [rbp - 76]
	shr	esi, 2
	mov	edi, eax
	sub	edi, 1
	add	esi, edi
	mov	esi, esi
	mov	r8d, esi
	mov	esi, dword ptr [rdx + 4*r8]
	mov	dword ptr [rbp - 108], esi
	mov	esi, dword ptr [rbp - 108]
	shr	esi, 16
	mov	r9b, sil
	movzx	esi, r9b
	mov	esi, esi
	mov	edx, esi
	movzx	esi, byte ptr [rdx + _ZN8CryptoPP8Rijndael4Base2SeE]
	shl	esi, 24
	mov	edi, dword ptr [rbp - 108]
	shr	edi, 8
	mov	r9b, dil
	movzx	edi, r9b
	mov	edi, edi
	mov	edx, edi
	movzx	edi, byte ptr [rdx + _ZN8CryptoPP8Rijndael4Base2SeE]
	shl	edi, 16
	mov	r10d, esi
	xor	r10d, -1
	and	r10d, 1067700491
	xor	ecx, 1067700491
	and	esi, ecx
	mov	r11d, edi
	xor	r11d, -1
	and	r11d, 1067700491
	and	edi, ecx
	or	r10d, esi
	or	r11d, edi
	xor	r10d, r11d
	mov	ecx, dword ptr [rbp - 108]
	shr	ecx, 0
	mov	r9b, cl
	movzx	ecx, r9b
	mov	ecx, ecx
	mov	edx, ecx
	movzx	ecx, byte ptr [rdx + _ZN8CryptoPP8Rijndael4Base2SeE]
	shl	ecx, 8
	mov	esi, r10d
	xor	esi, -1
	mov	edi, ecx
	and	edi, esi
	xor	ecx, -1
	and	r10d, ecx
	or	edi, r10d
	mov	ecx, dword ptr [rbp - 108]
	shr	ecx, 24
	mov	r9b, cl
	movzx	ecx, r9b
	mov	ecx, ecx
	mov	edx, ecx
	movzx	ecx, byte ptr [rdx + _ZN8CryptoPP8Rijndael4Base2SeE]
	mov	esi, edi
	xor	esi, -1
	mov	r10d, ecx
	and	r10d, esi
	xor	ecx, -1
	and	edi, ecx
	or	r10d, edi
	mov	dword ptr [rbp - 112], r10d
	mov	rdx, qword ptr [rbp - 96]
	mov	ecx, dword ptr [rdx]
	mov	esi, dword ptr [rbp - 112]
	mov	edi, ecx
	xor	edi, -1
	mov	r10d, esi
	and	r10d, edi
	xor	esi, -1
	and	ecx, esi
	or	r10d, ecx
	mov	rdx, qword ptr [rbp - 104]
	mov	r8, rdx
	add	r8, 4
	mov	qword ptr [rbp - 104], r8
	mov	ecx, dword ptr [rdx]
	mov	esi, r10d
	xor	esi, -1
	mov	edi, ecx
	and	edi, esi
	xor	ecx, -1
	and	r10d, ecx
	or	edi, r10d
	mov	rdx, qword ptr [rbp - 96]
	mov	ecx, dword ptr [rbp - 76]
	shr	ecx, 2
	mov	ecx, ecx
	mov	r8d, ecx
	mov	dword ptr [rdx + 4*r8], edi
	mov	rdx, qword ptr [rbp - 96]
	mov	ecx, dword ptr [rdx + 4]
	mov	rdx, qword ptr [rbp - 96]
	mov	esi, dword ptr [rbp - 76]
	shr	esi, 2
	mov	esi, esi
	mov	r8d, esi
	mov	esi, dword ptr [rdx + 4*r8]
	mov	edi, ecx
	xor	edi, -1
	mov	r10d, esi
	and	r10d, edi
	xor	esi, -1
	and	ecx, esi
	or	r10d, ecx
	mov	rdx, qword ptr [rbp - 96]
	mov	ecx, dword ptr [rbp - 76]
	shr	ecx, 2
	sub	ecx, -1992304697
	add	ecx, 1
	add	ecx, -1992304697
	mov	ecx, ecx
	mov	r8d, ecx
	mov	dword ptr [rdx + 4*r8], r10d
	mov	rdx, qword ptr [rbp - 96]
	mov	ecx, dword ptr [rdx + 8]
	mov	rdx, qword ptr [rbp - 96]
	mov	esi, dword ptr [rbp - 76]
	shr	esi, 2
	add	esi, -442271508
	add	esi, 1
	sub	esi, -442271508
	mov	esi, esi
	mov	r8d, esi
	mov	esi, dword ptr [rdx + 4*r8]
	mov	edi, ecx
	xor	edi, -1
	mov	r10d, esi
	and	r10d, edi
	xor	esi, -1
	and	ecx, esi
	or	r10d, ecx
	mov	rdx, qword ptr [rbp - 96]
	mov	ecx, dword ptr [rbp - 76]
	shr	ecx, 2
	add	ecx, 95398700
	add	ecx, 2
	sub	ecx, 95398700
	mov	ecx, ecx
	mov	r8d, ecx
	mov	dword ptr [rdx + 4*r8], r10d
	mov	rdx, qword ptr [rbp - 96]
	mov	ecx, dword ptr [rdx + 12]
	mov	rdx, qword ptr [rbp - 96]
	mov	esi, dword ptr [rbp - 76]
	shr	esi, 2
	mov	edi, eax
	sub	edi, esi
	mov	esi, eax
	sub	esi, 2
	add	edi, esi
	sub	eax, edi
	mov	eax, eax
	mov	r8d, eax
	mov	eax, dword ptr [rdx + 4*r8]
	mov	esi, ecx
	xor	esi, -1
	mov	edi, eax
	and	edi, esi
	xor	eax, -1
	and	ecx, eax
	or	edi, ecx
	mov	rdx, qword ptr [rbp - 96]
	mov	eax, dword ptr [rbp - 76]
	shr	eax, 2
	add	eax, 2089158929
	add	eax, 3
	sub	eax, 2089158929
	mov	eax, eax
	mov	r8d, eax
	mov	dword ptr [rdx + 4*r8], edi
	mov	rdx, qword ptr [rbp - 96]
	mov	eax, dword ptr [rbp - 76]
	shr	eax, 2
	mov	eax, eax
	mov	r8d, eax
	shl	r8, 2
	add	rdx, r8
	add	rdx, 16
	mov	r8, qword ptr [rbp - 56]
	add	r8, 24
	mov	rdi, r8
	mov	qword ptr [rbp - 336], rdx 
	call	_ZN8CryptoPP8SecBlockIjNS_20AllocatorWithCleanupIjLb1EEEE3endEv
	mov	ecx, 3921779104
	mov	esi, 152317513
	mov	rdx, qword ptr [rbp - 336] 
	cmp	rdx, rax
	cmove	ecx, esi
	mov	dword ptr [rbp - 124], ecx
	jmp	.LBB7_52
.LBB7_14:                               
	mov	dword ptr [rbp - 124], -501363774
	jmp	.LBB7_52
.LBB7_15:                               
	mov	eax, 2951234765
	mov	ecx, 2799156834
	cmp	dword ptr [rbp - 76], 24
	cmove	eax, ecx
	mov	dword ptr [rbp - 124], eax
	jmp	.LBB7_52
.LBB7_16:                               
	mov	eax, 4294967295
	mov	rcx, qword ptr [rbp - 96]
	mov	edx, dword ptr [rcx + 16]
	mov	rcx, qword ptr [rbp - 96]
	mov	esi, dword ptr [rcx + 36]
	mov	edi, edx
	xor	edi, -1
	and	edi, 1271004745
	mov	r8d, eax
	xor	r8d, 1271004745
	and	edx, r8d
	mov	r9d, esi
	xor	r9d, -1
	and	r9d, 1271004745
	and	esi, r8d
	or	edi, edx
	or	r9d, esi
	xor	edi, r9d
	mov	rcx, qword ptr [rbp - 96]
	mov	dword ptr [rcx + 40], edi
	mov	rcx, qword ptr [rbp - 96]
	mov	edx, dword ptr [rcx + 20]
	mov	rcx, qword ptr [rbp - 96]
	mov	esi, dword ptr [rcx + 40]
	mov	edi, edx
	xor	edi, -1
	and	edi, 1334246002
	xor	eax, 1334246002
	and	edx, eax
	mov	r8d, esi
	xor	r8d, -1
	and	r8d, 1334246002
	and	esi, eax
	or	edi, edx
	or	r8d, esi
	xor	edi, r8d
	mov	rcx, qword ptr [rbp - 96]
	mov	dword ptr [rcx + 44], edi
	mov	dword ptr [rbp - 124], -2136974568
	jmp	.LBB7_52
.LBB7_17:                               
	mov	eax, 3230127385
	mov	ecx, 1555289344
	cmp	dword ptr [rbp - 76], 32
	cmove	eax, ecx
	mov	dword ptr [rbp - 124], eax
	jmp	.LBB7_52
.LBB7_18:                               
	mov	eax, 4294967295
	mov	rcx, qword ptr [rbp - 96]
	mov	edx, dword ptr [rcx + 44]
	mov	dword ptr [rbp - 108], edx
	mov	rcx, qword ptr [rbp - 96]
	mov	edx, dword ptr [rcx + 16]
	mov	esi, dword ptr [rbp - 108]
	shr	esi, 24
	mov	dil, sil
	movzx	esi, dil
	mov	esi, esi
	mov	ecx, esi
	movzx	esi, byte ptr [rcx + _ZN8CryptoPP8Rijndael4Base2SeE]
	shl	esi, 24
	mov	r8d, edx
	xor	r8d, -1
	and	r8d, 2083771758
	mov	r9d, eax
	xor	r9d, 2083771758
	and	edx, r9d
	mov	r10d, esi
	xor	r10d, -1
	and	r10d, 2083771758
	and	esi, r9d
	or	r8d, edx
	or	r10d, esi
	xor	r8d, r10d
	mov	edx, dword ptr [rbp - 108]
	shr	edx, 16
	mov	dil, dl
	movzx	edx, dil
	mov	edx, edx
	mov	ecx, edx
	movzx	edx, byte ptr [rcx + _ZN8CryptoPP8Rijndael4Base2SeE]
	shl	edx, 16
	mov	esi, r8d
	xor	esi, -1
	and	esi, 3512740985
	mov	r9d, eax
	xor	r9d, 3512740985
	and	r8d, r9d
	mov	r10d, edx
	xor	r10d, -1
	and	r10d, -782226311
	and	edx, r9d
	or	esi, r8d
	or	r10d, edx
	xor	esi, r10d
	mov	edx, dword ptr [rbp - 108]
	shr	edx, 8
	mov	dil, dl
	movzx	edx, dil
	mov	edx, edx
	mov	ecx, edx
	movzx	edx, byte ptr [rcx + _ZN8CryptoPP8Rijndael4Base2SeE]
	shl	edx, 8
	mov	r8d, esi
	xor	r8d, -1
	mov	r9d, edx
	and	r9d, r8d
	xor	edx, -1
	and	esi, edx
	or	r9d, esi
	mov	edx, dword ptr [rbp - 108]
	shr	edx, 0
	mov	dil, dl
	movzx	edx, dil
	mov	edx, edx
	mov	ecx, edx
	movzx	edx, byte ptr [rcx + _ZN8CryptoPP8Rijndael4Base2SeE]
	mov	esi, r9d
	xor	esi, -1
	mov	r8d, edx
	and	r8d, esi
	xor	edx, -1
	and	r9d, edx
	or	r8d, r9d
	mov	rcx, qword ptr [rbp - 96]
	mov	dword ptr [rcx + 48], r8d
	mov	rcx, qword ptr [rbp - 96]
	mov	edx, dword ptr [rcx + 20]
	mov	rcx, qword ptr [rbp - 96]
	mov	esi, dword ptr [rcx + 48]
	mov	r8d, edx
	xor	r8d, -1
	mov	r9d, esi
	and	r9d, r8d
	xor	esi, -1
	and	edx, esi
	or	r9d, edx
	mov	rcx, qword ptr [rbp - 96]
	mov	dword ptr [rcx + 52], r9d
	mov	rcx, qword ptr [rbp - 96]
	mov	edx, dword ptr [rcx + 24]
	mov	rcx, qword ptr [rbp - 96]
	mov	esi, dword ptr [rcx + 52]
	mov	r8d, edx
	xor	r8d, -1
	mov	r9d, esi
	and	r9d, r8d
	xor	esi, -1
	and	edx, esi
	or	r9d, edx
	mov	rcx, qword ptr [rbp - 96]
	mov	dword ptr [rcx + 56], r9d
	mov	rcx, qword ptr [rbp - 96]
	mov	edx, dword ptr [rcx + 28]
	mov	rcx, qword ptr [rbp - 96]
	mov	esi, dword ptr [rcx + 56]
	mov	r8d, edx
	xor	r8d, -1
	and	r8d, 4183812158
	xor	eax, 4183812158
	and	edx, eax
	mov	r9d, esi
	xor	r9d, -1
	and	r9d, -111155138
	and	esi, eax
	or	r8d, edx
	or	r9d, esi
	xor	r8d, r9d
	mov	rcx, qword ptr [rbp - 96]
	mov	dword ptr [rcx + 60], r8d
	mov	dword ptr [rbp - 124], -1064839911
	jmp	.LBB7_52
.LBB7_19:                               
	mov	dword ptr [rbp - 124], -2136974568
	jmp	.LBB7_52
.LBB7_20:                               
	mov	eax, dword ptr [rbp - 76]
	shr	eax, 2
	mov	rcx, qword ptr [rbp - 96]
	mov	eax, eax
	mov	edx, eax
	shl	rdx, 2
	add	rcx, rdx
	mov	qword ptr [rbp - 96], rcx
	mov	dword ptr [rbp - 124], 1227405203
	jmp	.LBB7_52
.LBB7_21:                               
	mov	eax, 1090692117
	mov	ecx, 203669100
	mov	dl, 1
	mov	esi, dword ptr [x.18]
	mov	edi, dword ptr [y.19]
	mov	r8d, esi
	sub	r8d, 372293040
	sub	r8d, 1
	add	r8d, 372293040
	imul	esi, r8d
	and	esi, 1
	cmp	esi, 0
	sete	r9b
	cmp	edi, 10
	setl	r10b
	mov	r11b, r9b
	xor	r11b, -1
	mov	bl, r10b
	xor	bl, -1
	xor	dl, 1
	mov	r14b, r11b
	and	r14b, -1
	and	r9b, dl
	mov	r15b, bl
	and	r15b, -1
	and	r10b, dl
	or	r14b, r9b
	or	r15b, r10b
	xor	r14b, r15b
	or	r11b, bl
	xor	r11b, -1
	or	dl, 1
	and	r11b, dl
	or	r14b, r11b
	test	r14b, 1
	cmovne	eax, ecx
	mov	dword ptr [rbp - 124], eax
	jmp	.LBB7_52
.LBB7_22:                               
	mov	rax, qword ptr [rbp - 56]
	add	rax, 24
	mov	rdi, rax
	call	_ZN8CryptoPP8SecBlockIjNS_20AllocatorWithCleanupIjLb1EEEEcvPjEv
	mov	qword ptr [rbp - 96], rax
	mov	rax, qword ptr [rbp - 56]
	mov	rdi, rax
	add	rdi, 8
	mov	rax, qword ptr [rax + 8]
	call	qword ptr [rax + 72]
	mov	ecx, 1090692117
	mov	edx, 530693896
	xor	esi, esi
	and	al, 1
	mov	byte ptr [rbp - 42], al
	mov	r8d, dword ptr [x.18]
	mov	r9d, dword ptr [y.19]
	sub	esi, 1
	mov	r10d, r8d
	add	r10d, esi
	imul	r8d, r10d
	and	r8d, 1
	cmp	r8d, 0
	sete	al
	cmp	r9d, 10
	setl	r11b
	mov	bl, al
	and	bl, r11b
	xor	al, r11b
	or	bl, al
	test	bl, 1
	cmovne	ecx, edx
	mov	dword ptr [rbp - 124], ecx
	jmp	.LBB7_52
.LBB7_23:                               
	mov	eax, 2535160888
	mov	ecx, 875524180
	mov	dl, byte ptr [rbp - 42]
	test	dl, 1
	cmovne	eax, ecx
	mov	dword ptr [rbp - 124], eax
	jmp	.LBB7_52
.LBB7_24:                               
	mov	eax, 3145138587
	mov	ecx, 1642260900
	mov	dl, byte ptr [_ZN8CryptoPPL10s_TeFilledE]
	test	dl, 1
	cmovne	eax, ecx
	mov	dword ptr [rbp - 124], eax
	jmp	.LBB7_52
.LBB7_25:                               
	mov	eax, 1085913238
	mov	ecx, 1306615130
	mov	dl, 1
	xor	esi, esi
	mov	edi, dword ptr [x.18]
	mov	r8d, dword ptr [y.19]
	sub	esi, 1
	mov	r9d, edi
	add	r9d, esi
	imul	edi, r9d
	and	edi, 1
	cmp	edi, 0
	sete	r10b
	cmp	r8d, 10
	setl	r11b
	mov	bl, r10b
	xor	bl, -1
	mov	r14b, r11b
	xor	r14b, -1
	xor	dl, 0
	mov	r15b, bl
	and	r15b, 0
	and	r10b, dl
	mov	r12b, r14b
	and	r12b, 0
	and	r11b, dl
	or	r15b, r10b
	or	r12b, r11b
	xor	r15b, r12b
	or	bl, r14b
	xor	bl, -1
	or	dl, 0
	and	bl, dl
	or	r15b, bl
	test	r15b, 1
	cmovne	eax, ecx
	mov	dword ptr [rbp - 124], eax
	jmp	.LBB7_52
.LBB7_26:                               
	call	_ZN8CryptoPP8Rijndael4Base12FillEncTableEv
	mov	eax, 1085913238
	mov	ecx, 1571903209
	mov	edx, dword ptr [x.18]
	mov	esi, dword ptr [y.19]
	mov	edi, edx
	sub	edi, -453261401
	sub	edi, 1
	add	edi, -453261401
	imul	edx, edi
	and	edx, 1
	cmp	edx, 0
	sete	r8b
	cmp	esi, 10
	setl	r9b
	mov	r10b, r8b
	and	r10b, r9b
	xor	r8b, r9b
	or	r10b, r8b
	test	r10b, 1
	cmovne	eax, ecx
	mov	dword ptr [rbp - 124], eax
	jmp	.LBB7_52
.LBB7_27:                               
	mov	dword ptr [rbp - 124], 1642260900
	jmp	.LBB7_52
.LBB7_28:                               
	mov	edi, 1
	mov	eax, 16
	mov	ecx, eax
	mov	rsi, qword ptr [rbp - 96]
	mov	rdx, qword ptr [rbp - 96]
	call	_ZN8CryptoPP22ConditionalByteReverseIjEEvNS_9ByteOrderEPT_PKS2_m
	mov	edi, 1
	mov	eax, 16
	mov	ecx, eax
	mov	rdx, qword ptr [rbp - 96]
	mov	rsi, qword ptr [rbp - 56]
	mov	eax, dword ptr [rsi + 16]
	shl	eax, 2
	mov	eax, eax
	mov	esi, eax
	shl	rsi, 2
	add	rdx, rsi
	mov	rsi, qword ptr [rbp - 96]
	mov	r8, qword ptr [rbp - 56]
	mov	eax, dword ptr [r8 + 16]
	shl	eax, 2
	mov	eax, eax
	mov	r8d, eax
	shl	r8, 2
	add	rsi, r8
	mov	qword ptr [rbp - 344], rsi 
	mov	rsi, rdx
	mov	rdx, qword ptr [rbp - 344] 
	call	_ZN8CryptoPP22ConditionalByteReverseIjEEvNS_9ByteOrderEPT_PKS2_m
	mov	dword ptr [rbp - 124], -1472979236
	jmp	.LBB7_52
.LBB7_29:                               
	mov	eax, 160790907
	mov	ecx, 469065774
	mov	dl, byte ptr [_ZN8CryptoPPL10s_TdFilledE]
	test	dl, 1
	cmovne	eax, ecx
	mov	dword ptr [rbp - 124], eax
	jmp	.LBB7_52
.LBB7_30:                               
	call	_ZN8CryptoPP8Rijndael4Base12FillDecTableEv
	mov	dword ptr [rbp - 124], 469065774
	jmp	.LBB7_52
.LBB7_31:                               
	xor	eax, eax
	mov	dword ptr [rbp - 116], 4
	mov	rcx, qword ptr [rbp - 56]
	mov	edx, dword ptr [rcx + 16]
	shl	edx, 2
	sub	eax, 4
	add	edx, eax
	mov	dword ptr [rbp - 120], edx
	mov	dword ptr [rbp - 124], -448168939
	jmp	.LBB7_52
.LBB7_32:                               
	mov	eax, 3309363941
	mov	ecx, 3525142674
	mov	edx, dword ptr [rbp - 116]
	cmp	edx, dword ptr [rbp - 120]
	cmovb	eax, ecx
	mov	dword ptr [rbp - 124], eax
	jmp	.LBB7_52
.LBB7_33:                               
	mov	eax, 3423871587
	mov	ecx, 2908821926
	mov	edx, dword ptr [x.18]
	mov	esi, dword ptr [y.19]
	mov	edi, edx
	sub	edi, -1800059258
	sub	edi, 1
	add	edi, -1800059258
	imul	edx, edi
	and	edx, 1
	cmp	edx, 0
	sete	r8b
	cmp	esi, 10
	setl	r9b
	mov	r10b, r8b
	and	r10b, r9b
	xor	r8b, r9b
	or	r10b, r8b
	test	r10b, 1
	cmovne	eax, ecx
	mov	dword ptr [rbp - 124], eax
	jmp	.LBB7_52
.LBB7_34:                               
	mov	eax, 3423871587
	mov	ecx, 4158018778
	xor	edx, edx
	mov	esi, 4294967295
	mov	rdi, qword ptr [rbp - 96]
	mov	r8d, dword ptr [rbp - 116]
	mov	r9d, r8d
	mov	r8d, dword ptr [rdi + 4*r9]
	shr	r8d, 24
	mov	r10b, r8b
	movzx	r8d, r10b
	mov	r8d, r8d
	mov	edi, r8d
	movzx	r8d, byte ptr [rdi + _ZN8CryptoPP8Rijndael4Base2SeE]
	shl	r8d, 3
	movsxd	rdi, r8d
	mov	r8d, dword ptr [rdi + _ZN8CryptoPPL2TdE+4]
	mov	rdi, qword ptr [rbp - 96]
	mov	r11d, dword ptr [rbp - 116]
	mov	r9d, r11d
	mov	r11d, dword ptr [rdi + 4*r9]
	shr	r11d, 16
	mov	r10b, r11b
	movzx	r11d, r10b
	mov	r11d, r11d
	mov	edi, r11d
	movzx	r11d, byte ptr [rdi + _ZN8CryptoPP8Rijndael4Base2SeE]
	shl	r11d, 3
	movsxd	rdi, r11d
	mov	r11d, dword ptr [rdi + _ZN8CryptoPPL2TdE+1]
	mov	ebx, r8d
	xor	ebx, -1
	and	ebx, 1721131437
	mov	r14d, esi
	xor	r14d, 1721131437
	and	r8d, r14d
	mov	r15d, r11d
	xor	r15d, -1
	and	r15d, 1721131437
	and	r11d, r14d
	or	ebx, r8d
	or	r15d, r11d
	xor	ebx, r15d
	mov	rdi, qword ptr [rbp - 96]
	mov	r8d, dword ptr [rbp - 116]
	mov	r9d, r8d
	mov	r8d, dword ptr [rdi + 4*r9]
	shr	r8d, 8
	mov	r10b, r8b
	movzx	r8d, r10b
	mov	r8d, r8d
	mov	edi, r8d
	movzx	r8d, byte ptr [rdi + _ZN8CryptoPP8Rijndael4Base2SeE]
	shl	r8d, 3
	movsxd	rdi, r8d
	mov	r8d, dword ptr [rdi + _ZN8CryptoPPL2TdE+2]
	mov	r11d, ebx
	xor	r11d, -1
	mov	r14d, r8d
	and	r14d, r11d
	xor	r8d, -1
	and	ebx, r8d
	or	r14d, ebx
	mov	rdi, qword ptr [rbp - 96]
	mov	r8d, dword ptr [rbp - 116]
	mov	r9d, r8d
	mov	r8d, dword ptr [rdi + 4*r9]
	shr	r8d, 0
	mov	r10b, r8b
	movzx	r8d, r10b
	mov	r8d, r8d
	mov	edi, r8d
	movzx	r8d, byte ptr [rdi + _ZN8CryptoPP8Rijndael4Base2SeE]
	shl	r8d, 3
	movsxd	rdi, r8d
	mov	r8d, dword ptr [rdi + _ZN8CryptoPPL2TdE+3]
	mov	r11d, r14d
	xor	r11d, -1
	and	r11d, 2228840149
	mov	ebx, esi
	xor	ebx, 2228840149
	and	r14d, ebx
	mov	r15d, r8d
	xor	r15d, -1
	and	r15d, -2066127147
	and	r8d, ebx
	or	r11d, r14d
	or	r15d, r8d
	xor	r11d, r15d
	mov	dword ptr [rbp - 108], r11d
	mov	rdi, qword ptr [rbp - 96]
	mov	r8d, dword ptr [rbp - 120]
	mov	r9d, r8d
	mov	r8d, dword ptr [rdi + 4*r9]
	shr	r8d, 24
	mov	r10b, r8b
	movzx	r8d, r10b
	mov	r8d, r8d
	mov	edi, r8d
	movzx	r8d, byte ptr [rdi + _ZN8CryptoPP8Rijndael4Base2SeE]
	shl	r8d, 3
	movsxd	rdi, r8d
	mov	r8d, dword ptr [rdi + _ZN8CryptoPPL2TdE+4]
	mov	rdi, qword ptr [rbp - 96]
	mov	r11d, dword ptr [rbp - 120]
	mov	r9d, r11d
	mov	r11d, dword ptr [rdi + 4*r9]
	shr	r11d, 16
	mov	r10b, r11b
	movzx	r11d, r10b
	mov	r11d, r11d
	mov	edi, r11d
	movzx	r11d, byte ptr [rdi + _ZN8CryptoPP8Rijndael4Base2SeE]
	shl	r11d, 3
	movsxd	rdi, r11d
	mov	r11d, dword ptr [rdi + _ZN8CryptoPPL2TdE+1]
	mov	ebx, r8d
	xor	ebx, -1
	mov	r14d, r11d
	and	r14d, ebx
	xor	r11d, -1
	and	r8d, r11d
	or	r14d, r8d
	mov	rdi, qword ptr [rbp - 96]
	mov	r8d, dword ptr [rbp - 120]
	mov	r9d, r8d
	mov	r8d, dword ptr [rdi + 4*r9]
	shr	r8d, 8
	mov	r10b, r8b
	movzx	r8d, r10b
	mov	r8d, r8d
	mov	edi, r8d
	movzx	r8d, byte ptr [rdi + _ZN8CryptoPP8Rijndael4Base2SeE]
	shl	r8d, 3
	movsxd	rdi, r8d
	mov	r8d, dword ptr [rdi + _ZN8CryptoPPL2TdE+2]
	mov	r11d, r14d
	xor	r11d, -1
	mov	ebx, r8d
	and	ebx, r11d
	xor	r8d, -1
	and	r14d, r8d
	or	ebx, r14d
	mov	rdi, qword ptr [rbp - 96]
	mov	r8d, dword ptr [rbp - 120]
	mov	r9d, r8d
	mov	r8d, dword ptr [rdi + 4*r9]
	shr	r8d, 0
	mov	r10b, r8b
	movzx	r8d, r10b
	mov	r8d, r8d
	mov	edi, r8d
	movzx	r8d, byte ptr [rdi + _ZN8CryptoPP8Rijndael4Base2SeE]
	shl	r8d, 3
	movsxd	rdi, r8d
	mov	r8d, dword ptr [rdi + _ZN8CryptoPPL2TdE+3]
	mov	r11d, ebx
	xor	r11d, -1
	mov	r14d, r8d
	and	r14d, r11d
	xor	r8d, -1
	and	ebx, r8d
	or	r14d, ebx
	mov	rdi, qword ptr [rbp - 96]
	mov	r8d, dword ptr [rbp - 116]
	mov	r9d, r8d
	mov	dword ptr [rdi + 4*r9], r14d
	mov	r8d, dword ptr [rbp - 108]
	mov	rdi, qword ptr [rbp - 96]
	mov	r11d, dword ptr [rbp - 120]
	mov	r9d, r11d
	mov	dword ptr [rdi + 4*r9], r8d
	mov	rdi, qword ptr [rbp - 96]
	mov	r8d, dword ptr [rbp - 116]
	add	r8d, 1443676672
	add	r8d, 1
	sub	r8d, 1443676672
	mov	r8d, r8d
	mov	r9d, r8d
	mov	r8d, dword ptr [rdi + 4*r9]
	shr	r8d, 24
	mov	r10b, r8b
	movzx	r8d, r10b
	mov	r8d, r8d
	mov	edi, r8d
	movzx	r8d, byte ptr [rdi + _ZN8CryptoPP8Rijndael4Base2SeE]
	shl	r8d, 3
	movsxd	rdi, r8d
	mov	r8d, dword ptr [rdi + _ZN8CryptoPPL2TdE+4]
	mov	rdi, qword ptr [rbp - 96]
	mov	r11d, dword ptr [rbp - 116]
	add	r11d, 1741776510
	add	r11d, 1
	sub	r11d, 1741776510
	mov	r11d, r11d
	mov	r9d, r11d
	mov	r11d, dword ptr [rdi + 4*r9]
	shr	r11d, 16
	mov	r10b, r11b
	movzx	r11d, r10b
	mov	r11d, r11d
	mov	edi, r11d
	movzx	r11d, byte ptr [rdi + _ZN8CryptoPP8Rijndael4Base2SeE]
	shl	r11d, 3
	movsxd	rdi, r11d
	mov	r11d, dword ptr [rdi + _ZN8CryptoPPL2TdE+1]
	mov	ebx, r8d
	xor	ebx, -1
	mov	r14d, r11d
	and	r14d, ebx
	xor	r11d, -1
	and	r8d, r11d
	or	r14d, r8d
	mov	rdi, qword ptr [rbp - 96]
	mov	r8d, dword ptr [rbp - 116]
	mov	r11d, edx
	sub	r11d, r8d
	mov	r8d, edx
	sub	r8d, 1
	add	r11d, r8d
	mov	r8d, edx
	sub	r8d, r11d
	mov	r8d, r8d
	mov	r9d, r8d
	mov	r8d, dword ptr [rdi + 4*r9]
	shr	r8d, 8
	mov	r10b, r8b
	movzx	r8d, r10b
	mov	r8d, r8d
	mov	edi, r8d
	movzx	r8d, byte ptr [rdi + _ZN8CryptoPP8Rijndael4Base2SeE]
	shl	r8d, 3
	movsxd	rdi, r8d
	mov	r8d, dword ptr [rdi + _ZN8CryptoPPL2TdE+2]
	mov	r11d, r14d
	xor	r11d, -1
	and	r11d, 3214277035
	mov	ebx, esi
	xor	ebx, 3214277035
	and	r14d, ebx
	mov	r15d, r8d
	xor	r15d, -1
	and	r15d, -1080690261
	and	r8d, ebx
	or	r11d, r14d
	or	r15d, r8d
	xor	r11d, r15d
	mov	rdi, qword ptr [rbp - 96]
	mov	r8d, dword ptr [rbp - 116]
	add	r8d, -1065975343
	add	r8d, 1
	sub	r8d, -1065975343
	mov	r8d, r8d
	mov	r9d, r8d
	mov	r8d, dword ptr [rdi + 4*r9]
	shr	r8d, 0
	mov	r10b, r8b
	movzx	r8d, r10b
	mov	r8d, r8d
	mov	edi, r8d
	movzx	r8d, byte ptr [rdi + _ZN8CryptoPP8Rijndael4Base2SeE]
	shl	r8d, 3
	movsxd	rdi, r8d
	mov	r8d, dword ptr [rdi + _ZN8CryptoPPL2TdE+3]
	mov	ebx, r11d
	xor	ebx, -1
	mov	r14d, r8d
	and	r14d, ebx
	xor	r8d, -1
	and	r11d, r8d
	or	r14d, r11d
	mov	dword ptr [rbp - 108], r14d
	mov	rdi, qword ptr [rbp - 96]
	mov	r8d, dword ptr [rbp - 120]
	add	r8d, 1099344361
	add	r8d, 1
	sub	r8d, 1099344361
	mov	r8d, r8d
	mov	r9d, r8d
	mov	r8d, dword ptr [rdi + 4*r9]
	shr	r8d, 24
	mov	r10b, r8b
	movzx	r8d, r10b
	mov	r8d, r8d
	mov	edi, r8d
	movzx	r8d, byte ptr [rdi + _ZN8CryptoPP8Rijndael4Base2SeE]
	shl	r8d, 3
	movsxd	rdi, r8d
	mov	r8d, dword ptr [rdi + _ZN8CryptoPPL2TdE+4]
	mov	rdi, qword ptr [rbp - 96]
	mov	r11d, dword ptr [rbp - 120]
	add	r11d, 1980923972
	add	r11d, 1
	sub	r11d, 1980923972
	mov	r11d, r11d
	mov	r9d, r11d
	mov	r11d, dword ptr [rdi + 4*r9]
	shr	r11d, 16
	mov	r10b, r11b
	movzx	r11d, r10b
	mov	r11d, r11d
	mov	edi, r11d
	movzx	r11d, byte ptr [rdi + _ZN8CryptoPP8Rijndael4Base2SeE]
	shl	r11d, 3
	movsxd	rdi, r11d
	mov	r11d, dword ptr [rdi + _ZN8CryptoPPL2TdE+1]
	mov	ebx, r8d
	xor	ebx, -1
	and	ebx, 3313098730
	mov	r14d, esi
	xor	r14d, 3313098730
	and	r8d, r14d
	mov	r15d, r11d
	xor	r15d, -1
	and	r15d, -981868566
	and	r11d, r14d
	or	ebx, r8d
	or	r15d, r11d
	xor	ebx, r15d
	mov	rdi, qword ptr [rbp - 96]
	mov	r8d, dword ptr [rbp - 120]
	add	r8d, 1304448654
	add	r8d, 1
	sub	r8d, 1304448654
	mov	r8d, r8d
	mov	r9d, r8d
	mov	r8d, dword ptr [rdi + 4*r9]
	shr	r8d, 8
	mov	r10b, r8b
	movzx	r8d, r10b
	mov	r8d, r8d
	mov	edi, r8d
	movzx	r8d, byte ptr [rdi + _ZN8CryptoPP8Rijndael4Base2SeE]
	shl	r8d, 3
	movsxd	rdi, r8d
	mov	r8d, dword ptr [rdi + _ZN8CryptoPPL2TdE+2]
	mov	r11d, ebx
	xor	r11d, -1
	mov	r14d, r8d
	and	r14d, r11d
	xor	r8d, -1
	and	ebx, r8d
	or	r14d, ebx
	mov	rdi, qword ptr [rbp - 96]
	mov	r8d, dword ptr [rbp - 120]
	mov	r11d, edx
	sub	r11d, 1
	sub	r8d, r11d
	mov	r8d, r8d
	mov	r9d, r8d
	mov	r8d, dword ptr [rdi + 4*r9]
	shr	r8d, 0
	mov	r10b, r8b
	movzx	r8d, r10b
	mov	r8d, r8d
	mov	edi, r8d
	movzx	r8d, byte ptr [rdi + _ZN8CryptoPP8Rijndael4Base2SeE]
	shl	r8d, 3
	movsxd	rdi, r8d
	mov	r8d, dword ptr [rdi + _ZN8CryptoPPL2TdE+3]
	mov	r11d, r14d
	xor	r11d, -1
	mov	ebx, r8d
	and	ebx, r11d
	xor	r8d, -1
	and	r14d, r8d
	or	ebx, r14d
	mov	rdi, qword ptr [rbp - 96]
	mov	r8d, dword ptr [rbp - 116]
	sub	r8d, -1691078099
	add	r8d, 1
	add	r8d, -1691078099
	mov	r8d, r8d
	mov	r9d, r8d
	mov	dword ptr [rdi + 4*r9], ebx
	mov	r8d, dword ptr [rbp - 108]
	mov	rdi, qword ptr [rbp - 96]
	mov	r11d, dword ptr [rbp - 120]
	sub	r11d, 982868028
	add	r11d, 1
	add	r11d, 982868028
	mov	r11d, r11d
	mov	r9d, r11d
	mov	dword ptr [rdi + 4*r9], r8d
	mov	rdi, qword ptr [rbp - 96]
	mov	r8d, dword ptr [rbp - 116]
	sub	r8d, -992408933
	add	r8d, 2
	add	r8d, -992408933
	mov	r8d, r8d
	mov	r9d, r8d
	mov	r8d, dword ptr [rdi + 4*r9]
	shr	r8d, 24
	mov	r10b, r8b
	movzx	r8d, r10b
	mov	r8d, r8d
	mov	edi, r8d
	movzx	r8d, byte ptr [rdi + _ZN8CryptoPP8Rijndael4Base2SeE]
	shl	r8d, 3
	movsxd	rdi, r8d
	mov	r8d, dword ptr [rdi + _ZN8CryptoPPL2TdE+4]
	mov	rdi, qword ptr [rbp - 96]
	mov	r11d, dword ptr [rbp - 116]
	add	r11d, -46063486
	add	r11d, 2
	sub	r11d, -46063486
	mov	r11d, r11d
	mov	r9d, r11d
	mov	r11d, dword ptr [rdi + 4*r9]
	shr	r11d, 16
	mov	r10b, r11b
	movzx	r11d, r10b
	mov	r11d, r11d
	mov	edi, r11d
	movzx	r11d, byte ptr [rdi + _ZN8CryptoPP8Rijndael4Base2SeE]
	shl	r11d, 3
	movsxd	rdi, r11d
	mov	r11d, dword ptr [rdi + _ZN8CryptoPPL2TdE+1]
	mov	ebx, r8d
	xor	ebx, -1
	and	ebx, 2669146114
	mov	r14d, esi
	xor	r14d, 2669146114
	and	r8d, r14d
	mov	r15d, r11d
	xor	r15d, -1
	and	r15d, -1625821182
	and	r11d, r14d
	or	ebx, r8d
	or	r15d, r11d
	xor	ebx, r15d
	mov	rdi, qword ptr [rbp - 96]
	mov	r8d, dword ptr [rbp - 116]
	sub	r8d, -168134118
	add	r8d, 2
	add	r8d, -168134118
	mov	r8d, r8d
	mov	r9d, r8d
	mov	r8d, dword ptr [rdi + 4*r9]
	shr	r8d, 8
	mov	r10b, r8b
	movzx	r8d, r10b
	mov	r8d, r8d
	mov	edi, r8d
	movzx	r8d, byte ptr [rdi + _ZN8CryptoPP8Rijndael4Base2SeE]
	shl	r8d, 3
	movsxd	rdi, r8d
	mov	r8d, dword ptr [rdi + _ZN8CryptoPPL2TdE+2]
	mov	r11d, ebx
	xor	r11d, -1
	and	r11d, 586221445
	mov	r14d, esi
	xor	r14d, 586221445
	and	ebx, r14d
	mov	r15d, r8d
	xor	r15d, -1
	and	r15d, 586221445
	and	r8d, r14d
	or	r11d, ebx
	or	r15d, r8d
	xor	r11d, r15d
	mov	rdi, qword ptr [rbp - 96]
	mov	r8d, dword ptr [rbp - 116]
	sub	r8d, -754597077
	add	r8d, 2
	add	r8d, -754597077
	mov	r8d, r8d
	mov	r9d, r8d
	mov	r8d, dword ptr [rdi + 4*r9]
	shr	r8d, 0
	mov	r10b, r8b
	movzx	r8d, r10b
	mov	r8d, r8d
	mov	edi, r8d
	movzx	r8d, byte ptr [rdi + _ZN8CryptoPP8Rijndael4Base2SeE]
	shl	r8d, 3
	movsxd	rdi, r8d
	mov	r8d, dword ptr [rdi + _ZN8CryptoPPL2TdE+3]
	mov	ebx, r11d
	xor	ebx, -1
	mov	r14d, r8d
	and	r14d, ebx
	xor	r8d, -1
	and	r11d, r8d
	or	r14d, r11d
	mov	dword ptr [rbp - 108], r14d
	mov	rdi, qword ptr [rbp - 96]
	mov	r8d, dword ptr [rbp - 120]
	mov	r11d, edx
	sub	r11d, 2
	sub	r8d, r11d
	mov	r8d, r8d
	mov	r9d, r8d
	mov	r8d, dword ptr [rdi + 4*r9]
	shr	r8d, 24
	mov	r10b, r8b
	movzx	r8d, r10b
	mov	r8d, r8d
	mov	edi, r8d
	movzx	r8d, byte ptr [rdi + _ZN8CryptoPP8Rijndael4Base2SeE]
	shl	r8d, 3
	movsxd	rdi, r8d
	mov	r8d, dword ptr [rdi + _ZN8CryptoPPL2TdE+4]
	mov	rdi, qword ptr [rbp - 96]
	mov	r11d, dword ptr [rbp - 120]
	mov	ebx, edx
	sub	ebx, 2
	sub	r11d, ebx
	mov	r11d, r11d
	mov	r9d, r11d
	mov	r11d, dword ptr [rdi + 4*r9]
	shr	r11d, 16
	mov	r10b, r11b
	movzx	r11d, r10b
	mov	r11d, r11d
	mov	edi, r11d
	movzx	r11d, byte ptr [rdi + _ZN8CryptoPP8Rijndael4Base2SeE]
	shl	r11d, 3
	movsxd	rdi, r11d
	mov	r11d, dword ptr [rdi + _ZN8CryptoPPL2TdE+1]
	mov	ebx, r8d
	xor	ebx, -1
	and	ebx, 2954788377
	mov	r14d, esi
	xor	r14d, 2954788377
	and	r8d, r14d
	mov	r15d, r11d
	xor	r15d, -1
	and	r15d, -1340178919
	and	r11d, r14d
	or	ebx, r8d
	or	r15d, r11d
	xor	ebx, r15d
	mov	rdi, qword ptr [rbp - 96]
	mov	r8d, dword ptr [rbp - 120]
	sub	r8d, 1273048397
	add	r8d, 2
	add	r8d, 1273048397
	mov	r8d, r8d
	mov	r9d, r8d
	mov	r8d, dword ptr [rdi + 4*r9]
	shr	r8d, 8
	mov	r10b, r8b
	movzx	r8d, r10b
	mov	r8d, r8d
	mov	edi, r8d
	movzx	r8d, byte ptr [rdi + _ZN8CryptoPP8Rijndael4Base2SeE]
	shl	r8d, 3
	movsxd	rdi, r8d
	mov	r8d, dword ptr [rdi + _ZN8CryptoPPL2TdE+2]
	mov	r11d, ebx
	xor	r11d, -1
	mov	r14d, r8d
	and	r14d, r11d
	xor	r8d, -1
	and	ebx, r8d
	or	r14d, ebx
	mov	rdi, qword ptr [rbp - 96]
	mov	r8d, dword ptr [rbp - 120]
	add	r8d, 695293249
	add	r8d, 2
	sub	r8d, 695293249
	mov	r8d, r8d
	mov	r9d, r8d
	mov	r8d, dword ptr [rdi + 4*r9]
	shr	r8d, 0
	mov	r10b, r8b
	movzx	r8d, r10b
	mov	r8d, r8d
	mov	edi, r8d
	movzx	r8d, byte ptr [rdi + _ZN8CryptoPP8Rijndael4Base2SeE]
	shl	r8d, 3
	movsxd	rdi, r8d
	mov	r8d, dword ptr [rdi + _ZN8CryptoPPL2TdE+3]
	mov	r11d, r14d
	xor	r11d, -1
	mov	ebx, r8d
	and	ebx, r11d
	xor	r8d, -1
	and	r14d, r8d
	or	ebx, r14d
	mov	rdi, qword ptr [rbp - 96]
	mov	r8d, dword ptr [rbp - 116]
	mov	r11d, edx
	sub	r11d, 2
	sub	r8d, r11d
	mov	r8d, r8d
	mov	r9d, r8d
	mov	dword ptr [rdi + 4*r9], ebx
	mov	r8d, dword ptr [rbp - 108]
	mov	rdi, qword ptr [rbp - 96]
	mov	r11d, dword ptr [rbp - 120]
	mov	ebx, edx
	sub	ebx, 2
	sub	r11d, ebx
	mov	r11d, r11d
	mov	r9d, r11d
	mov	dword ptr [rdi + 4*r9], r8d
	mov	rdi, qword ptr [rbp - 96]
	mov	r8d, dword ptr [rbp - 116]
	mov	r11d, edx
	sub	r11d, 3
	sub	r8d, r11d
	mov	r8d, r8d
	mov	r9d, r8d
	mov	r8d, dword ptr [rdi + 4*r9]
	shr	r8d, 24
	mov	r10b, r8b
	movzx	r8d, r10b
	mov	r8d, r8d
	mov	edi, r8d
	movzx	r8d, byte ptr [rdi + _ZN8CryptoPP8Rijndael4Base2SeE]
	shl	r8d, 3
	movsxd	rdi, r8d
	mov	r8d, dword ptr [rdi + _ZN8CryptoPPL2TdE+4]
	mov	rdi, qword ptr [rbp - 96]
	mov	r11d, dword ptr [rbp - 116]
	mov	ebx, edx
	sub	ebx, r11d
	mov	r11d, edx
	sub	r11d, 3
	add	ebx, r11d
	mov	r11d, edx
	sub	r11d, ebx
	mov	r11d, r11d
	mov	r9d, r11d
	mov	r11d, dword ptr [rdi + 4*r9]
	shr	r11d, 16
	mov	r10b, r11b
	movzx	r11d, r10b
	mov	r11d, r11d
	mov	edi, r11d
	movzx	r11d, byte ptr [rdi + _ZN8CryptoPP8Rijndael4Base2SeE]
	shl	r11d, 3
	movsxd	rdi, r11d
	mov	r11d, dword ptr [rdi + _ZN8CryptoPPL2TdE+1]
	mov	ebx, r8d
	xor	ebx, -1
	and	ebx, 3046466766
	mov	r14d, esi
	xor	r14d, 3046466766
	and	r8d, r14d
	mov	r15d, r11d
	xor	r15d, -1
	and	r15d, -1248500530
	and	r11d, r14d
	or	ebx, r8d
	or	r15d, r11d
	xor	ebx, r15d
	mov	rdi, qword ptr [rbp - 96]
	mov	r8d, dword ptr [rbp - 116]
	add	r8d, -1781687861
	add	r8d, 3
	sub	r8d, -1781687861
	mov	r8d, r8d
	mov	r9d, r8d
	mov	r8d, dword ptr [rdi + 4*r9]
	shr	r8d, 8
	mov	r10b, r8b
	movzx	r8d, r10b
	mov	r8d, r8d
	mov	edi, r8d
	movzx	r8d, byte ptr [rdi + _ZN8CryptoPP8Rijndael4Base2SeE]
	shl	r8d, 3
	movsxd	rdi, r8d
	mov	r8d, dword ptr [rdi + _ZN8CryptoPPL2TdE+2]
	mov	r11d, ebx
	xor	r11d, -1
	mov	r14d, r8d
	and	r14d, r11d
	xor	r8d, -1
	and	ebx, r8d
	or	r14d, ebx
	mov	rdi, qword ptr [rbp - 96]
	mov	r8d, dword ptr [rbp - 116]
	add	r8d, -917557782
	add	r8d, 3
	sub	r8d, -917557782
	mov	r8d, r8d
	mov	r9d, r8d
	mov	r8d, dword ptr [rdi + 4*r9]
	shr	r8d, 0
	mov	r10b, r8b
	movzx	r8d, r10b
	mov	r8d, r8d
	mov	edi, r8d
	movzx	r8d, byte ptr [rdi + _ZN8CryptoPP8Rijndael4Base2SeE]
	shl	r8d, 3
	movsxd	rdi, r8d
	mov	r8d, dword ptr [rdi + _ZN8CryptoPPL2TdE+3]
	mov	r11d, r14d
	xor	r11d, -1
	mov	ebx, r8d
	and	ebx, r11d
	xor	r8d, -1
	and	r14d, r8d
	or	ebx, r14d
	mov	dword ptr [rbp - 108], ebx
	mov	rdi, qword ptr [rbp - 96]
	mov	r8d, dword ptr [rbp - 120]
	mov	r11d, edx
	sub	r11d, r8d
	mov	r8d, edx
	sub	r8d, 3
	add	r11d, r8d
	mov	r8d, edx
	sub	r8d, r11d
	mov	r8d, r8d
	mov	r9d, r8d
	mov	r8d, dword ptr [rdi + 4*r9]
	shr	r8d, 24
	mov	r10b, r8b
	movzx	r8d, r10b
	mov	r8d, r8d
	mov	edi, r8d
	movzx	r8d, byte ptr [rdi + _ZN8CryptoPP8Rijndael4Base2SeE]
	shl	r8d, 3
	movsxd	rdi, r8d
	mov	r8d, dword ptr [rdi + _ZN8CryptoPPL2TdE+4]
	mov	rdi, qword ptr [rbp - 96]
	mov	r11d, dword ptr [rbp - 120]
	mov	ebx, edx
	sub	ebx, r11d
	mov	r11d, edx
	sub	r11d, 3
	add	ebx, r11d
	mov	r11d, edx
	sub	r11d, ebx
	mov	r11d, r11d
	mov	r9d, r11d
	mov	r11d, dword ptr [rdi + 4*r9]
	shr	r11d, 16
	mov	r10b, r11b
	movzx	r11d, r10b
	mov	r11d, r11d
	mov	edi, r11d
	movzx	r11d, byte ptr [rdi + _ZN8CryptoPP8Rijndael4Base2SeE]
	shl	r11d, 3
	movsxd	rdi, r11d
	mov	r11d, dword ptr [rdi + _ZN8CryptoPPL2TdE+1]
	mov	ebx, r8d
	xor	ebx, -1
	and	ebx, 3488714232
	xor	esi, 3488714232
	and	r8d, esi
	mov	r14d, r11d
	xor	r14d, -1
	and	r14d, -806253064
	and	r11d, esi
	or	ebx, r8d
	or	r14d, r11d
	xor	ebx, r14d
	mov	rdi, qword ptr [rbp - 96]
	mov	esi, dword ptr [rbp - 120]
	sub	edx, 3
	sub	esi, edx
	mov	edx, esi
	mov	r9d, edx
	mov	edx, dword ptr [rdi + 4*r9]
	shr	edx, 8
	mov	r10b, dl
	movzx	edx, r10b
	mov	edx, edx
	mov	edi, edx
	movzx	edx, byte ptr [rdi + _ZN8CryptoPP8Rijndael4Base2SeE]
	shl	edx, 3
	movsxd	rdi, edx
	mov	edx, dword ptr [rdi + _ZN8CryptoPPL2TdE+2]
	mov	esi, ebx
	xor	esi, -1
	mov	r8d, edx
	and	r8d, esi
	xor	edx, -1
	and	ebx, edx
	or	r8d, ebx
	mov	rdi, qword ptr [rbp - 96]
	mov	edx, dword ptr [rbp - 120]
	sub	edx, -463379205
	add	edx, 3
	add	edx, -463379205
	mov	edx, edx
	mov	r9d, edx
	mov	edx, dword ptr [rdi + 4*r9]
	shr	edx, 0
	mov	r10b, dl
	movzx	edx, r10b
	mov	edx, edx
	mov	edi, edx
	movzx	edx, byte ptr [rdi + _ZN8CryptoPP8Rijndael4Base2SeE]
	shl	edx, 3
	movsxd	rdi, edx
	mov	edx, dword ptr [rdi + _ZN8CryptoPPL2TdE+3]
	mov	esi, r8d
	xor	esi, -1
	mov	r11d, edx
	and	r11d, esi
	xor	edx, -1
	and	r8d, edx
	or	r11d, r8d
	mov	rdi, qword ptr [rbp - 96]
	mov	edx, dword ptr [rbp - 116]
	sub	edx, -1680084787
	add	edx, 3
	add	edx, -1680084787
	mov	edx, edx
	mov	r9d, edx
	mov	dword ptr [rdi + 4*r9], r11d
	mov	edx, dword ptr [rbp - 108]
	mov	rdi, qword ptr [rbp - 96]
	mov	esi, dword ptr [rbp - 120]
	add	esi, 1384872497
	add	esi, 3
	sub	esi, 1384872497
	mov	esi, esi
	mov	r9d, esi
	mov	dword ptr [rdi + 4*r9], edx
	mov	edx, dword ptr [x.18]
	mov	esi, dword ptr [y.19]
	mov	r8d, edx
	sub	r8d, -285651023
	sub	r8d, 1
	add	r8d, -285651023
	imul	edx, r8d
	and	edx, 1
	cmp	edx, 0
	sete	r10b
	cmp	esi, 10
	setl	r12b
	mov	r13b, r10b
	and	r13b, r12b
	xor	r10b, r12b
	or	r13b, r10b
	test	r13b, 1
	cmovne	eax, ecx
	mov	dword ptr [rbp - 124], eax
	jmp	.LBB7_52
.LBB7_35:                               
	mov	dword ptr [rbp - 124], 1971608533
	jmp	.LBB7_52
.LBB7_36:                               
	mov	eax, dword ptr [rbp - 116]
	sub	eax, -541647527
	add	eax, 4
	add	eax, -541647527
	mov	dword ptr [rbp - 116], eax
	mov	eax, dword ptr [rbp - 120]
	sub	eax, 1788156274
	sub	eax, 4
	add	eax, 1788156274
	mov	dword ptr [rbp - 120], eax
	mov	dword ptr [rbp - 124], -448168939
	jmp	.LBB7_52
.LBB7_37:                               
	mov	edi, 1
	mov	eax, 4294967295
	xor	ecx, ecx
	mov	rdx, qword ptr [rbp - 96]
	mov	esi, dword ptr [rbp - 116]
	sub	esi, -342884944
	add	esi, 0
	add	esi, -342884944
	mov	esi, esi
	mov	r8d, esi
	mov	esi, dword ptr [rdx + 4*r8]
	shr	esi, 24
	mov	r9b, sil
	movzx	esi, r9b
	mov	esi, esi
	mov	edx, esi
	movzx	esi, byte ptr [rdx + _ZN8CryptoPP8Rijndael4Base2SeE]
	shl	esi, 3
	movsxd	rdx, esi
	mov	esi, dword ptr [rdx + _ZN8CryptoPPL2TdE+4]
	mov	rdx, qword ptr [rbp - 96]
	mov	r10d, dword ptr [rbp - 116]
	add	r10d, -605084174
	add	r10d, 0
	sub	r10d, -605084174
	mov	r10d, r10d
	mov	r8d, r10d
	mov	r10d, dword ptr [rdx + 4*r8]
	shr	r10d, 16
	mov	r9b, r10b
	movzx	r10d, r9b
	mov	r10d, r10d
	mov	edx, r10d
	movzx	r10d, byte ptr [rdx + _ZN8CryptoPP8Rijndael4Base2SeE]
	shl	r10d, 3
	movsxd	rdx, r10d
	mov	r10d, dword ptr [rdx + _ZN8CryptoPPL2TdE+1]
	mov	r11d, esi
	xor	r11d, -1
	and	r11d, 345708821
	mov	ebx, eax
	xor	ebx, 345708821
	and	esi, ebx
	mov	r14d, r10d
	xor	r14d, -1
	and	r14d, 345708821
	and	r10d, ebx
	or	r11d, esi
	or	r14d, r10d
	xor	r11d, r14d
	mov	rdx, qword ptr [rbp - 96]
	mov	esi, dword ptr [rbp - 116]
	sub	esi, 1391364448
	add	esi, 0
	add	esi, 1391364448
	mov	esi, esi
	mov	r8d, esi
	mov	esi, dword ptr [rdx + 4*r8]
	shr	esi, 8
	mov	r9b, sil
	movzx	esi, r9b
	mov	esi, esi
	mov	edx, esi
	movzx	esi, byte ptr [rdx + _ZN8CryptoPP8Rijndael4Base2SeE]
	shl	esi, 3
	movsxd	rdx, esi
	mov	esi, dword ptr [rdx + _ZN8CryptoPPL2TdE+2]
	mov	r10d, r11d
	xor	r10d, -1
	and	r10d, 3219437250
	mov	ebx, eax
	xor	ebx, 3219437250
	and	r11d, ebx
	mov	r14d, esi
	xor	r14d, -1
	and	r14d, -1075530046
	and	esi, ebx
	or	r10d, r11d
	or	r14d, esi
	xor	r10d, r14d
	mov	rdx, qword ptr [rbp - 96]
	mov	esi, dword ptr [rbp - 116]
	mov	r11d, ecx
	sub	r11d, esi
	mov	esi, ecx
	sub	esi, 0
	add	r11d, esi
	mov	esi, ecx
	sub	esi, r11d
	mov	esi, esi
	mov	r8d, esi
	mov	esi, dword ptr [rdx + 4*r8]
	shr	esi, 0
	mov	r9b, sil
	movzx	esi, r9b
	mov	esi, esi
	mov	edx, esi
	movzx	esi, byte ptr [rdx + _ZN8CryptoPP8Rijndael4Base2SeE]
	shl	esi, 3
	movsxd	rdx, esi
	mov	esi, dword ptr [rdx + _ZN8CryptoPPL2TdE+3]
	mov	r11d, r10d
	xor	r11d, -1
	mov	ebx, esi
	and	ebx, r11d
	xor	esi, -1
	and	r10d, esi
	or	ebx, r10d
	mov	rdx, qword ptr [rbp - 96]
	mov	esi, dword ptr [rbp - 116]
	mov	r10d, ecx
	sub	r10d, esi
	mov	esi, ecx
	sub	esi, 0
	add	r10d, esi
	mov	esi, ecx
	sub	esi, r10d
	mov	esi, esi
	mov	r8d, esi
	mov	dword ptr [rdx + 4*r8], ebx
	mov	rdx, qword ptr [rbp - 96]
	mov	esi, dword ptr [rbp - 116]
	mov	r10d, ecx
	sub	r10d, 1
	sub	esi, r10d
	mov	esi, esi
	mov	r8d, esi
	mov	esi, dword ptr [rdx + 4*r8]
	shr	esi, 24
	mov	r9b, sil
	movzx	esi, r9b
	mov	esi, esi
	mov	edx, esi
	movzx	esi, byte ptr [rdx + _ZN8CryptoPP8Rijndael4Base2SeE]
	shl	esi, 3
	movsxd	rdx, esi
	mov	esi, dword ptr [rdx + _ZN8CryptoPPL2TdE+4]
	mov	rdx, qword ptr [rbp - 96]
	mov	r10d, dword ptr [rbp - 116]
	mov	r11d, ecx
	sub	r11d, r10d
	mov	r10d, ecx
	sub	r10d, 1
	add	r11d, r10d
	mov	r10d, ecx
	sub	r10d, r11d
	mov	r10d, r10d
	mov	r8d, r10d
	mov	r10d, dword ptr [rdx + 4*r8]
	shr	r10d, 16
	mov	r9b, r10b
	movzx	r10d, r9b
	mov	r10d, r10d
	mov	edx, r10d
	movzx	r10d, byte ptr [rdx + _ZN8CryptoPP8Rijndael4Base2SeE]
	shl	r10d, 3
	movsxd	rdx, r10d
	mov	r10d, dword ptr [rdx + _ZN8CryptoPPL2TdE+1]
	mov	r11d, esi
	xor	r11d, -1
	mov	ebx, r10d
	and	ebx, r11d
	xor	r10d, -1
	and	esi, r10d
	or	ebx, esi
	mov	rdx, qword ptr [rbp - 96]
	mov	esi, dword ptr [rbp - 116]
	mov	r10d, ecx
	sub	r10d, esi
	mov	esi, ecx
	sub	esi, 1
	add	r10d, esi
	mov	esi, ecx
	sub	esi, r10d
	mov	esi, esi
	mov	r8d, esi
	mov	esi, dword ptr [rdx + 4*r8]
	shr	esi, 8
	mov	r9b, sil
	movzx	esi, r9b
	mov	esi, esi
	mov	edx, esi
	movzx	esi, byte ptr [rdx + _ZN8CryptoPP8Rijndael4Base2SeE]
	shl	esi, 3
	movsxd	rdx, esi
	mov	esi, dword ptr [rdx + _ZN8CryptoPPL2TdE+2]
	mov	r10d, ebx
	xor	r10d, -1
	mov	r11d, esi
	and	r11d, r10d
	xor	esi, -1
	and	ebx, esi
	or	r11d, ebx
	mov	rdx, qword ptr [rbp - 96]
	mov	esi, dword ptr [rbp - 116]
	sub	esi, -74264600
	add	esi, 1
	add	esi, -74264600
	mov	esi, esi
	mov	r8d, esi
	mov	esi, dword ptr [rdx + 4*r8]
	shr	esi, 0
	mov	r9b, sil
	movzx	esi, r9b
	mov	esi, esi
	mov	edx, esi
	movzx	esi, byte ptr [rdx + _ZN8CryptoPP8Rijndael4Base2SeE]
	shl	esi, 3
	movsxd	rdx, esi
	mov	esi, dword ptr [rdx + _ZN8CryptoPPL2TdE+3]
	mov	r10d, r11d
	xor	r10d, -1
	and	r10d, 2628590080
	mov	ebx, eax
	xor	ebx, 2628590080
	and	r11d, ebx
	mov	r14d, esi
	xor	r14d, -1
	and	r14d, -1666377216
	and	esi, ebx
	or	r10d, r11d
	or	r14d, esi
	xor	r10d, r14d
	mov	rdx, qword ptr [rbp - 96]
	mov	esi, dword ptr [rbp - 116]
	add	esi, 1020921853
	add	esi, 1
	sub	esi, 1020921853
	mov	esi, esi
	mov	r8d, esi
	mov	dword ptr [rdx + 4*r8], r10d
	mov	rdx, qword ptr [rbp - 96]
	mov	esi, dword ptr [rbp - 116]
	sub	esi, 536062571
	add	esi, 2
	add	esi, 536062571
	mov	esi, esi
	mov	r8d, esi
	mov	esi, dword ptr [rdx + 4*r8]
	shr	esi, 24
	mov	r9b, sil
	movzx	esi, r9b
	mov	esi, esi
	mov	edx, esi
	movzx	esi, byte ptr [rdx + _ZN8CryptoPP8Rijndael4Base2SeE]
	shl	esi, 3
	movsxd	rdx, esi
	mov	esi, dword ptr [rdx + _ZN8CryptoPPL2TdE+4]
	mov	rdx, qword ptr [rbp - 96]
	mov	r10d, dword ptr [rbp - 116]
	mov	r11d, ecx
	sub	r11d, r10d
	mov	r10d, ecx
	sub	r10d, 2
	add	r11d, r10d
	mov	r10d, ecx
	sub	r10d, r11d
	mov	r10d, r10d
	mov	r8d, r10d
	mov	r10d, dword ptr [rdx + 4*r8]
	shr	r10d, 16
	mov	r9b, r10b
	movzx	r10d, r9b
	mov	r10d, r10d
	mov	edx, r10d
	movzx	r10d, byte ptr [rdx + _ZN8CryptoPP8Rijndael4Base2SeE]
	shl	r10d, 3
	movsxd	rdx, r10d
	mov	r10d, dword ptr [rdx + _ZN8CryptoPPL2TdE+1]
	mov	r11d, esi
	xor	r11d, -1
	and	r11d, 2361506660
	mov	ebx, eax
	xor	ebx, 2361506660
	and	esi, ebx
	mov	r14d, r10d
	xor	r14d, -1
	and	r14d, -1933460636
	and	r10d, ebx
	or	r11d, esi
	or	r14d, r10d
	xor	r11d, r14d
	mov	rdx, qword ptr [rbp - 96]
	mov	esi, dword ptr [rbp - 116]
	add	esi, 14400180
	add	esi, 2
	sub	esi, 14400180
	mov	esi, esi
	mov	r8d, esi
	mov	esi, dword ptr [rdx + 4*r8]
	shr	esi, 8
	mov	r9b, sil
	movzx	esi, r9b
	mov	esi, esi
	mov	edx, esi
	movzx	esi, byte ptr [rdx + _ZN8CryptoPP8Rijndael4Base2SeE]
	shl	esi, 3
	movsxd	rdx, esi
	mov	esi, dword ptr [rdx + _ZN8CryptoPPL2TdE+2]
	mov	r10d, r11d
	xor	r10d, -1
	and	r10d, 363608119
	mov	ebx, eax
	xor	ebx, 363608119
	and	r11d, ebx
	mov	r14d, esi
	xor	r14d, -1
	and	r14d, 363608119
	and	esi, ebx
	or	r10d, r11d
	or	r14d, esi
	xor	r10d, r14d
	mov	rdx, qword ptr [rbp - 96]
	mov	esi, dword ptr [rbp - 116]
	add	esi, 818673687
	add	esi, 2
	sub	esi, 818673687
	mov	esi, esi
	mov	r8d, esi
	mov	esi, dword ptr [rdx + 4*r8]
	shr	esi, 0
	mov	r9b, sil
	movzx	esi, r9b
	mov	esi, esi
	mov	edx, esi
	movzx	esi, byte ptr [rdx + _ZN8CryptoPP8Rijndael4Base2SeE]
	shl	esi, 3
	movsxd	rdx, esi
	mov	esi, dword ptr [rdx + _ZN8CryptoPPL2TdE+3]
	mov	r11d, r10d
	xor	r11d, -1
	mov	ebx, esi
	and	ebx, r11d
	xor	esi, -1
	and	r10d, esi
	or	ebx, r10d
	mov	rdx, qword ptr [rbp - 96]
	mov	esi, dword ptr [rbp - 116]
	mov	r10d, ecx
	sub	r10d, esi
	mov	esi, ecx
	sub	esi, 2
	add	r10d, esi
	mov	esi, ecx
	sub	esi, r10d
	mov	esi, esi
	mov	r8d, esi
	mov	dword ptr [rdx + 4*r8], ebx
	mov	rdx, qword ptr [rbp - 96]
	mov	esi, dword ptr [rbp - 116]
	sub	esi, -1511034421
	add	esi, 3
	add	esi, -1511034421
	mov	esi, esi
	mov	r8d, esi
	mov	esi, dword ptr [rdx + 4*r8]
	shr	esi, 24
	mov	r9b, sil
	movzx	esi, r9b
	mov	esi, esi
	mov	edx, esi
	movzx	esi, byte ptr [rdx + _ZN8CryptoPP8Rijndael4Base2SeE]
	shl	esi, 3
	movsxd	rdx, esi
	mov	esi, dword ptr [rdx + _ZN8CryptoPPL2TdE+4]
	mov	rdx, qword ptr [rbp - 96]
	mov	r10d, dword ptr [rbp - 116]
	add	r10d, 776272049
	add	r10d, 3
	sub	r10d, 776272049
	mov	r10d, r10d
	mov	r8d, r10d
	mov	r10d, dword ptr [rdx + 4*r8]
	shr	r10d, 16
	mov	r9b, r10b
	movzx	r10d, r9b
	mov	r10d, r10d
	mov	edx, r10d
	movzx	r10d, byte ptr [rdx + _ZN8CryptoPP8Rijndael4Base2SeE]
	shl	r10d, 3
	movsxd	rdx, r10d
	mov	r10d, dword ptr [rdx + _ZN8CryptoPPL2TdE+1]
	mov	r11d, esi
	xor	r11d, -1
	mov	ebx, r10d
	and	ebx, r11d
	xor	r10d, -1
	and	esi, r10d
	or	ebx, esi
	mov	rdx, qword ptr [rbp - 96]
	mov	esi, dword ptr [rbp - 116]
	mov	r10d, ecx
	sub	r10d, esi
	mov	esi, ecx
	sub	esi, 3
	add	r10d, esi
	sub	ecx, r10d
	mov	ecx, ecx
	mov	r8d, ecx
	mov	ecx, dword ptr [rdx + 4*r8]
	shr	ecx, 8
	mov	r9b, cl
	movzx	ecx, r9b
	mov	ecx, ecx
	mov	edx, ecx
	movzx	ecx, byte ptr [rdx + _ZN8CryptoPP8Rijndael4Base2SeE]
	shl	ecx, 3
	movsxd	rdx, ecx
	mov	ecx, dword ptr [rdx + _ZN8CryptoPPL2TdE+2]
	mov	esi, ebx
	xor	esi, -1
	mov	r10d, ecx
	and	r10d, esi
	xor	ecx, -1
	and	ebx, ecx
	or	r10d, ebx
	mov	rdx, qword ptr [rbp - 96]
	mov	ecx, dword ptr [rbp - 116]
	sub	ecx, -1748522085
	add	ecx, 3
	add	ecx, -1748522085
	mov	ecx, ecx
	mov	r8d, ecx
	mov	ecx, dword ptr [rdx + 4*r8]
	shr	ecx, 0
	mov	r9b, cl
	movzx	ecx, r9b
	mov	ecx, ecx
	mov	edx, ecx
	movzx	ecx, byte ptr [rdx + _ZN8CryptoPP8Rijndael4Base2SeE]
	shl	ecx, 3
	movsxd	rdx, ecx
	mov	ecx, dword ptr [rdx + _ZN8CryptoPPL2TdE+3]
	mov	esi, r10d
	xor	esi, -1
	and	esi, 2474841501
	xor	eax, 2474841501
	and	r10d, eax
	mov	r11d, ecx
	xor	r11d, -1
	and	r11d, -1820125795
	and	ecx, eax
	or	esi, r10d
	or	r11d, ecx
	xor	esi, r11d
	mov	rdx, qword ptr [rbp - 96]
	mov	eax, dword ptr [rbp - 116]
	add	eax, -1486016508
	add	eax, 3
	sub	eax, -1486016508
	mov	eax, eax
	mov	r8d, eax
	mov	dword ptr [rdx + 4*r8], esi
	mov	rdx, qword ptr [rbp - 96]
	mov	esi, dword ptr [rdx]
	call	_ZN8CryptoPP22ConditionalByteReverseIjEET_NS_9ByteOrderES1_
	mov	edi, 1
	xor	ecx, ecx
	mov	dword ptr [rbp - 108], eax
	mov	rdx, qword ptr [rbp - 96]
	mov	r8, qword ptr [rbp - 56]
	mov	eax, dword ptr [r8 + 16]
	shl	eax, 2
	sub	ecx, 0
	sub	eax, ecx
	mov	eax, eax
	mov	r8d, eax
	mov	esi, dword ptr [rdx + 4*r8]
	call	_ZN8CryptoPP22ConditionalByteReverseIjEET_NS_9ByteOrderES1_
	mov	edi, 1
	xor	ecx, ecx
	mov	rdx, qword ptr [rbp - 96]
	mov	dword ptr [rdx], eax
	mov	eax, dword ptr [rbp - 108]
	mov	rdx, qword ptr [rbp - 96]
	mov	r8, qword ptr [rbp - 56]
	mov	esi, dword ptr [r8 + 16]
	shl	esi, 2
	sub	ecx, 0
	sub	esi, ecx
	mov	ecx, esi
	mov	r8d, ecx
	mov	dword ptr [rdx + 4*r8], eax
	mov	rdx, qword ptr [rbp - 96]
	mov	esi, dword ptr [rdx + 4]
	call	_ZN8CryptoPP22ConditionalByteReverseIjEET_NS_9ByteOrderES1_
	mov	edi, 1
	mov	dword ptr [rbp - 108], eax
	mov	rdx, qword ptr [rbp - 96]
	mov	r8, qword ptr [rbp - 56]
	mov	eax, dword ptr [r8 + 16]
	shl	eax, 2
	add	eax, -1451151422
	add	eax, 1
	sub	eax, -1451151422
	mov	eax, eax
	mov	r8d, eax
	mov	esi, dword ptr [rdx + 4*r8]
	call	_ZN8CryptoPP22ConditionalByteReverseIjEET_NS_9ByteOrderES1_
	mov	edi, 1
	xor	ecx, ecx
	mov	rdx, qword ptr [rbp - 96]
	mov	dword ptr [rdx + 4], eax
	mov	eax, dword ptr [rbp - 108]
	mov	rdx, qword ptr [rbp - 96]
	mov	r8, qword ptr [rbp - 56]
	mov	esi, dword ptr [r8 + 16]
	shl	esi, 2
	mov	r10d, ecx
	sub	r10d, esi
	mov	esi, ecx
	sub	esi, 1
	add	r10d, esi
	sub	ecx, r10d
	mov	ecx, ecx
	mov	r8d, ecx
	mov	dword ptr [rdx + 4*r8], eax
	mov	rdx, qword ptr [rbp - 96]
	mov	esi, dword ptr [rdx + 8]
	call	_ZN8CryptoPP22ConditionalByteReverseIjEET_NS_9ByteOrderES1_
	mov	edi, 1
	mov	dword ptr [rbp - 108], eax
	mov	rdx, qword ptr [rbp - 96]
	mov	r8, qword ptr [rbp - 56]
	mov	eax, dword ptr [r8 + 16]
	shl	eax, 2
	sub	eax, -1389109353
	add	eax, 2
	add	eax, -1389109353
	mov	eax, eax
	mov	r8d, eax
	mov	esi, dword ptr [rdx + 4*r8]
	call	_ZN8CryptoPP22ConditionalByteReverseIjEET_NS_9ByteOrderES1_
	mov	edi, 1
	mov	rdx, qword ptr [rbp - 96]
	mov	dword ptr [rdx + 8], eax
	mov	eax, dword ptr [rbp - 108]
	mov	rdx, qword ptr [rbp - 96]
	mov	r8, qword ptr [rbp - 56]
	mov	ecx, dword ptr [r8 + 16]
	shl	ecx, 2
	add	ecx, 252736967
	add	ecx, 2
	sub	ecx, 252736967
	mov	ecx, ecx
	mov	r8d, ecx
	mov	dword ptr [rdx + 4*r8], eax
	mov	rdx, qword ptr [rbp - 96]
	mov	esi, dword ptr [rdx + 12]
	call	_ZN8CryptoPP22ConditionalByteReverseIjEET_NS_9ByteOrderES1_
	mov	edi, 1
	mov	dword ptr [rbp - 108], eax
	mov	rdx, qword ptr [rbp - 96]
	mov	r8, qword ptr [rbp - 56]
	mov	eax, dword ptr [r8 + 16]
	shl	eax, 2
	add	eax, 1680746168
	add	eax, 3
	sub	eax, 1680746168
	mov	eax, eax
	mov	r8d, eax
	mov	esi, dword ptr [rdx + 4*r8]
	call	_ZN8CryptoPP22ConditionalByteReverseIjEET_NS_9ByteOrderES1_
	xor	ecx, ecx
	mov	rdx, qword ptr [rbp - 96]
	mov	dword ptr [rdx + 12], eax
	mov	eax, dword ptr [rbp - 108]
	mov	rdx, qword ptr [rbp - 96]
	mov	r8, qword ptr [rbp - 56]
	mov	esi, dword ptr [r8 + 16]
	shl	esi, 2
	mov	edi, ecx
	sub	edi, esi
	mov	esi, ecx
	sub	esi, 3
	add	edi, esi
	sub	ecx, edi
	mov	ecx, ecx
	mov	r8d, ecx
	mov	dword ptr [rdx + 4*r8], eax
	mov	dword ptr [rbp - 124], -1472979236
	jmp	.LBB7_52
.LBB7_38:                               
	mov	eax, 3029779117
	mov	ecx, 2093385782
	xor	edx, edx
	mov	esi, dword ptr [x.18]
	mov	edi, dword ptr [y.19]
	sub	edx, 1
	mov	r8d, esi
	add	r8d, edx
	imul	esi, r8d
	and	esi, 1
	cmp	esi, 0
	sete	r9b
	cmp	edi, 10
	setl	r10b
	mov	r11b, r9b
	and	r11b, r10b
	xor	r9b, r10b
	or	r11b, r9b
	test	r11b, 1
	cmovne	eax, ecx
	mov	dword ptr [rbp - 124], eax
	jmp	.LBB7_52
.LBB7_39:                               
	call	_ZN8CryptoPP8HasAESNIEv
	mov	ecx, 3029779117
	mov	edx, 1454651778
	xor	esi, esi
	and	al, 1
	mov	byte ptr [rbp - 41], al
	mov	edi, dword ptr [x.18]
	mov	r8d, dword ptr [y.19]
	sub	esi, 1
	mov	r9d, edi
	add	r9d, esi
	imul	edi, r9d
	and	edi, 1
	cmp	edi, 0
	sete	al
	cmp	r8d, 10
	setl	r10b
	mov	r11b, al
	and	r11b, r10b
	xor	al, r10b
	or	r11b, al
	test	r11b, 1
	cmovne	ecx, edx
	mov	dword ptr [rbp - 124], ecx
	jmp	.LBB7_52
.LBB7_40:                               
	mov	eax, 2618599362
	mov	ecx, 3006418896
	mov	dl, byte ptr [rbp - 41]
	test	dl, 1
	cmovne	eax, ecx
	mov	dword ptr [rbp - 124], eax
	jmp	.LBB7_52
.LBB7_41:                               
	mov	edi, 1
	xor	eax, eax
	mov	rcx, qword ptr [rbp - 96]
	add	rcx, 16
	mov	rdx, qword ptr [rbp - 96]
	add	rdx, 16
	mov	rsi, qword ptr [rbp - 56]
	mov	r8d, dword ptr [rsi + 16]
	sub	eax, 1
	add	r8d, eax
	shl	r8d, 4
	mov	eax, r8d
	mov	esi, eax
	mov	qword ptr [rbp - 352], rsi 
	mov	rsi, rcx
	mov	rcx, qword ptr [rbp - 352] 
	call	_ZN8CryptoPP22ConditionalByteReverseIjEEvNS_9ByteOrderEPT_PKS2_m
	mov	dword ptr [rbp - 124], -1676367934
	jmp	.LBB7_52
.LBB7_42:                               
	mov	eax, 1666944055
	mov	ecx, 117908455
	mov	dl, 1
	mov	esi, dword ptr [x.18]
	mov	edi, dword ptr [y.19]
	mov	r8d, esi
	add	r8d, 129893953
	sub	r8d, 1
	sub	r8d, 129893953
	imul	esi, r8d
	and	esi, 1
	cmp	esi, 0
	sete	r9b
	cmp	edi, 10
	setl	r10b
	mov	r11b, r9b
	xor	r11b, -1
	mov	bl, r10b
	xor	bl, -1
	xor	dl, 1
	mov	r14b, r11b
	and	r14b, -1
	and	r9b, dl
	mov	r15b, bl
	and	r15b, -1
	and	r10b, dl
	or	r14b, r9b
	or	r15b, r10b
	xor	r14b, r15b
	or	r11b, bl
	xor	r11b, -1
	or	dl, 1
	and	r11b, dl
	or	r14b, r11b
	test	r14b, 1
	cmovne	eax, ecx
	mov	dword ptr [rbp - 124], eax
	jmp	.LBB7_52
.LBB7_43:                               
	mov	eax, 1666944055
	mov	ecx, 3340951276
	mov	dl, 1
	mov	esi, dword ptr [x.18]
	mov	edi, dword ptr [y.19]
	mov	r8d, esi
	add	r8d, 1570568731
	sub	r8d, 1
	sub	r8d, 1570568731
	imul	esi, r8d
	and	esi, 1
	cmp	esi, 0
	sete	r9b
	cmp	edi, 10
	setl	r10b
	mov	r11b, r9b
	xor	r11b, -1
	mov	bl, r10b
	xor	bl, -1
	xor	dl, 0
	mov	r14b, r11b
	and	r14b, 0
	and	r9b, dl
	mov	r15b, bl
	and	r15b, 0
	and	r10b, dl
	or	r14b, r9b
	or	r15b, r10b
	xor	r14b, r15b
	or	r11b, bl
	xor	r11b, -1
	or	dl, 0
	and	r11b, dl
	or	r14b, r11b
	test	r14b, 1
	cmovne	eax, ecx
	mov	dword ptr [rbp - 124], eax
	jmp	.LBB7_52
.LBB7_44:
	add	rsp, 328
	pop	rbx
	pop	r12
	pop	r13
	pop	r14
	pop	r15
	pop	rbp
	ret
.LBB7_45:                               
	mov	rdi, qword ptr [rbp - 72]
	mov	eax, dword ptr [rbp - 76]
	mov	esi, eax
	mov	rdx, qword ptr [rbp - 96]
	call	_ZN8CryptoPP35Rijndael_UncheckedSetKey_SSE4_AESNIEPKhmPj
	mov	rdx, qword ptr [rbp - 56]
	mov	rsi, rdx
	add	rsi, 8
	mov	rdx, qword ptr [rdx + 8]
	mov	rdi, rsi
	call	qword ptr [rdx + 72]
	mov	dword ptr [rbp - 124], 1828192655
	mov	byte ptr [rbp - 353], al 
	jmp	.LBB7_52
.LBB7_46:                               
	mov	dword ptr [rbp - 124], 183761137
	jmp	.LBB7_52
.LBB7_47:                               
	mov	rax, qword ptr [rbp - 56]
	add	rax, 24
	mov	rdi, rax
	call	_ZN8CryptoPP8SecBlockIjNS_20AllocatorWithCleanupIjLb1EEEEcvPjEv
	mov	qword ptr [rbp - 96], rax
	mov	rax, qword ptr [rbp - 56]
	mov	rdi, rax
	add	rdi, 8
	mov	rax, qword ptr [rax + 8]
	call	qword ptr [rax + 72]
	mov	dword ptr [rbp - 124], 203669100
	mov	byte ptr [rbp - 354], al 
	jmp	.LBB7_52
.LBB7_48:                               
	call	_ZN8CryptoPP8Rijndael4Base12FillEncTableEv
	mov	dword ptr [rbp - 124], 1306615130
	jmp	.LBB7_52
.LBB7_49:                               
	xor	eax, eax
	mov	ecx, 4294967295
	mov	rdx, qword ptr [rbp - 96]
	mov	esi, dword ptr [rbp - 116]
	mov	edi, esi
	mov	esi, dword ptr [rdx + 4*rdi]
	shr	esi, 24
	mov	r8b, sil
	movzx	esi, r8b
	mov	esi, esi
	mov	edx, esi
	movzx	esi, byte ptr [rdx + _ZN8CryptoPP8Rijndael4Base2SeE]
	shl	esi, 3
	movsxd	rdx, esi
	mov	esi, dword ptr [rdx + _ZN8CryptoPPL2TdE+4]
	mov	rdx, qword ptr [rbp - 96]
	mov	r9d, dword ptr [rbp - 116]
	mov	edi, r9d
	mov	r9d, dword ptr [rdx + 4*rdi]
	shr	r9d, 16
	mov	r8b, r9b
	movzx	r9d, r8b
	mov	r9d, r9d
	mov	edx, r9d
	movzx	r9d, byte ptr [rdx + _ZN8CryptoPP8Rijndael4Base2SeE]
	shl	r9d, 3
	movsxd	rdx, r9d
	mov	r9d, dword ptr [rdx + _ZN8CryptoPPL2TdE+1]
	mov	r10d, esi
	xor	r10d, -1
	mov	r11d, r9d
	and	r11d, r10d
	xor	r9d, -1
	and	esi, r9d
	or	r11d, esi
	mov	rdx, qword ptr [rbp - 96]
	mov	esi, dword ptr [rbp - 116]
	mov	edi, esi
	mov	esi, dword ptr [rdx + 4*rdi]
	shr	esi, 8
	mov	r8b, sil
	movzx	esi, r8b
	mov	esi, esi
	mov	edx, esi
	movzx	esi, byte ptr [rdx + _ZN8CryptoPP8Rijndael4Base2SeE]
	shl	esi, 3
	movsxd	rdx, esi
	mov	esi, dword ptr [rdx + _ZN8CryptoPPL2TdE+2]
	mov	r9d, r11d
	xor	r9d, -1
	mov	r10d, esi
	and	r10d, r9d
	xor	esi, -1
	and	r11d, esi
	or	r10d, r11d
	mov	rdx, qword ptr [rbp - 96]
	mov	esi, dword ptr [rbp - 116]
	mov	edi, esi
	mov	esi, dword ptr [rdx + 4*rdi]
	shr	esi, 0
	mov	r8b, sil
	movzx	esi, r8b
	mov	esi, esi
	mov	edx, esi
	movzx	esi, byte ptr [rdx + _ZN8CryptoPP8Rijndael4Base2SeE]
	shl	esi, 3
	movsxd	rdx, esi
	mov	esi, dword ptr [rdx + _ZN8CryptoPPL2TdE+3]
	mov	r9d, r10d
	xor	r9d, -1
	and	r9d, 155811389
	mov	r11d, ecx
	xor	r11d, 155811389
	and	r10d, r11d
	mov	ebx, esi
	xor	ebx, -1
	and	ebx, 155811389
	and	esi, r11d
	or	r9d, r10d
	or	ebx, esi
	xor	r9d, ebx
	mov	dword ptr [rbp - 108], r9d
	mov	rdx, qword ptr [rbp - 96]
	mov	esi, dword ptr [rbp - 120]
	mov	edi, esi
	mov	esi, dword ptr [rdx + 4*rdi]
	shr	esi, 24
	mov	r8b, sil
	movzx	esi, r8b
	mov	esi, esi
	mov	edx, esi
	movzx	esi, byte ptr [rdx + _ZN8CryptoPP8Rijndael4Base2SeE]
	shl	esi, 3
	movsxd	rdx, esi
	mov	esi, dword ptr [rdx + _ZN8CryptoPPL2TdE+4]
	mov	rdx, qword ptr [rbp - 96]
	mov	r9d, dword ptr [rbp - 120]
	mov	edi, r9d
	mov	r9d, dword ptr [rdx + 4*rdi]
	shr	r9d, 16
	mov	r8b, r9b
	movzx	r9d, r8b
	mov	r9d, r9d
	mov	edx, r9d
	movzx	r9d, byte ptr [rdx + _ZN8CryptoPP8Rijndael4Base2SeE]
	shl	r9d, 3
	movsxd	rdx, r9d
	mov	r9d, dword ptr [rdx + _ZN8CryptoPPL2TdE+1]
	mov	r10d, esi
	xor	r10d, -1
	mov	r11d, r9d
	and	r11d, r10d
	xor	r9d, -1
	and	esi, r9d
	or	r11d, esi
	mov	rdx, qword ptr [rbp - 96]
	mov	esi, dword ptr [rbp - 120]
	mov	edi, esi
	mov	esi, dword ptr [rdx + 4*rdi]
	shr	esi, 8
	mov	r8b, sil
	movzx	esi, r8b
	mov	esi, esi
	mov	edx, esi
	movzx	esi, byte ptr [rdx + _ZN8CryptoPP8Rijndael4Base2SeE]
	shl	esi, 3
	movsxd	rdx, esi
	mov	esi, dword ptr [rdx + _ZN8CryptoPPL2TdE+2]
	mov	r9d, r11d
	xor	r9d, -1
	mov	r10d, esi
	and	r10d, r9d
	xor	esi, -1
	and	r11d, esi
	or	r10d, r11d
	mov	rdx, qword ptr [rbp - 96]
	mov	esi, dword ptr [rbp - 120]
	mov	edi, esi
	mov	esi, dword ptr [rdx + 4*rdi]
	shr	esi, 0
	mov	r8b, sil
	movzx	esi, r8b
	mov	esi, esi
	mov	edx, esi
	movzx	esi, byte ptr [rdx + _ZN8CryptoPP8Rijndael4Base2SeE]
	shl	esi, 3
	movsxd	rdx, esi
	mov	esi, dword ptr [rdx + _ZN8CryptoPPL2TdE+3]
	mov	r9d, r10d
	xor	r9d, -1
	mov	r11d, esi
	and	r11d, r9d
	xor	esi, -1
	and	r10d, esi
	or	r11d, r10d
	mov	rdx, qword ptr [rbp - 96]
	mov	esi, dword ptr [rbp - 116]
	mov	edi, esi
	mov	dword ptr [rdx + 4*rdi], r11d
	mov	esi, dword ptr [rbp - 108]
	mov	rdx, qword ptr [rbp - 96]
	mov	r9d, dword ptr [rbp - 120]
	mov	edi, r9d
	mov	dword ptr [rdx + 4*rdi], esi
	mov	rdx, qword ptr [rbp - 96]
	mov	esi, dword ptr [rbp - 116]
	sub	esi, 930653698
	add	esi, 1
	add	esi, 930653698
	mov	esi, esi
	mov	edi, esi
	mov	esi, dword ptr [rdx + 4*rdi]
	shr	esi, 24
	mov	r8b, sil
	movzx	esi, r8b
	mov	esi, esi
	mov	edx, esi
	movzx	esi, byte ptr [rdx + _ZN8CryptoPP8Rijndael4Base2SeE]
	shl	esi, 3
	movsxd	rdx, esi
	mov	esi, dword ptr [rdx + _ZN8CryptoPPL2TdE+4]
	mov	rdx, qword ptr [rbp - 96]
	mov	r9d, dword ptr [rbp - 116]
	sub	r9d, 227535753
	add	r9d, 1
	add	r9d, 227535753
	mov	r9d, r9d
	mov	edi, r9d
	mov	r9d, dword ptr [rdx + 4*rdi]
	shr	r9d, 16
	mov	r8b, r9b
	movzx	r9d, r8b
	mov	r9d, r9d
	mov	edx, r9d
	movzx	r9d, byte ptr [rdx + _ZN8CryptoPP8Rijndael4Base2SeE]
	shl	r9d, 3
	movsxd	rdx, r9d
	mov	r9d, dword ptr [rdx + _ZN8CryptoPPL2TdE+1]
	mov	r10d, esi
	xor	r10d, -1
	and	r10d, 3499432986
	mov	r11d, ecx
	xor	r11d, 3499432986
	and	esi, r11d
	mov	ebx, r9d
	xor	ebx, -1
	and	ebx, -795534310
	and	r9d, r11d
	or	r10d, esi
	or	ebx, r9d
	xor	r10d, ebx
	mov	rdx, qword ptr [rbp - 96]
	mov	esi, dword ptr [rbp - 116]
	add	esi, 312771825
	add	esi, 1
	sub	esi, 312771825
	mov	esi, esi
	mov	edi, esi
	mov	esi, dword ptr [rdx + 4*rdi]
	shr	esi, 8
	mov	r8b, sil
	movzx	esi, r8b
	mov	esi, esi
	mov	edx, esi
	movzx	esi, byte ptr [rdx + _ZN8CryptoPP8Rijndael4Base2SeE]
	shl	esi, 3
	movsxd	rdx, esi
	mov	esi, dword ptr [rdx + _ZN8CryptoPPL2TdE+2]
	mov	r9d, r10d
	xor	r9d, -1
	and	r9d, 275765834
	mov	r11d, ecx
	xor	r11d, 275765834
	and	r10d, r11d
	mov	ebx, esi
	xor	ebx, -1
	and	ebx, 275765834
	and	esi, r11d
	or	r9d, r10d
	or	ebx, esi
	xor	r9d, ebx
	mov	rdx, qword ptr [rbp - 96]
	mov	esi, dword ptr [rbp - 116]
	mov	r10d, eax
	sub	r10d, esi
	mov	esi, eax
	sub	esi, 1
	add	r10d, esi
	mov	esi, eax
	sub	esi, r10d
	mov	esi, esi
	mov	edi, esi
	mov	esi, dword ptr [rdx + 4*rdi]
	shr	esi, 0
	mov	r8b, sil
	movzx	esi, r8b
	mov	esi, esi
	mov	edx, esi
	movzx	esi, byte ptr [rdx + _ZN8CryptoPP8Rijndael4Base2SeE]
	shl	esi, 3
	movsxd	rdx, esi
	mov	esi, dword ptr [rdx + _ZN8CryptoPPL2TdE+3]
	mov	r10d, r9d
	xor	r10d, -1
	mov	r11d, esi
	and	r11d, r10d
	xor	esi, -1
	and	r9d, esi
	or	r11d, r9d
	mov	dword ptr [rbp - 108], r11d
	mov	rdx, qword ptr [rbp - 96]
	mov	esi, dword ptr [rbp - 120]
	mov	r9d, eax
	sub	r9d, esi
	mov	esi, eax
	sub	esi, 1
	add	r9d, esi
	mov	esi, eax
	sub	esi, r9d
	mov	esi, esi
	mov	edi, esi
	mov	esi, dword ptr [rdx + 4*rdi]
	shr	esi, 24
	mov	r8b, sil
	movzx	esi, r8b
	mov	esi, esi
	mov	edx, esi
	movzx	esi, byte ptr [rdx + _ZN8CryptoPP8Rijndael4Base2SeE]
	shl	esi, 3
	movsxd	rdx, esi
	mov	esi, dword ptr [rdx + _ZN8CryptoPPL2TdE+4]
	mov	rdx, qword ptr [rbp - 96]
	mov	r9d, dword ptr [rbp - 120]
	mov	r10d, eax
	sub	r10d, r9d
	mov	r9d, eax
	sub	r9d, 1
	add	r10d, r9d
	mov	r9d, eax
	sub	r9d, r10d
	mov	r9d, r9d
	mov	edi, r9d
	mov	r9d, dword ptr [rdx + 4*rdi]
	shr	r9d, 16
	mov	r8b, r9b
	movzx	r9d, r8b
	mov	r9d, r9d
	mov	edx, r9d
	movzx	r9d, byte ptr [rdx + _ZN8CryptoPP8Rijndael4Base2SeE]
	shl	r9d, 3
	movsxd	rdx, r9d
	mov	r9d, dword ptr [rdx + _ZN8CryptoPPL2TdE+1]
	mov	r10d, esi
	xor	r10d, -1
	mov	r11d, r9d
	and	r11d, r10d
	xor	r9d, -1
	and	esi, r9d
	or	r11d, esi
	mov	rdx, qword ptr [rbp - 96]
	mov	esi, dword ptr [rbp - 120]
	mov	r9d, eax
	sub	r9d, 1
	sub	esi, r9d
	mov	esi, esi
	mov	edi, esi
	mov	esi, dword ptr [rdx + 4*rdi]
	shr	esi, 8
	mov	r8b, sil
	movzx	esi, r8b
	mov	esi, esi
	mov	edx, esi
	movzx	esi, byte ptr [rdx + _ZN8CryptoPP8Rijndael4Base2SeE]
	shl	esi, 3
	movsxd	rdx, esi
	mov	esi, dword ptr [rdx + _ZN8CryptoPPL2TdE+2]
	mov	r9d, r11d
	xor	r9d, -1
	and	r9d, 2495156495
	mov	r10d, ecx
	xor	r10d, 2495156495
	and	r11d, r10d
	mov	ebx, esi
	xor	ebx, -1
	and	ebx, -1799810801
	and	esi, r10d
	or	r9d, r11d
	or	ebx, esi
	xor	r9d, ebx
	mov	rdx, qword ptr [rbp - 96]
	mov	esi, dword ptr [rbp - 120]
	mov	r10d, eax
	sub	r10d, esi
	mov	esi, eax
	sub	esi, 1
	add	r10d, esi
	mov	esi, eax
	sub	esi, r10d
	mov	esi, esi
	mov	edi, esi
	mov	esi, dword ptr [rdx + 4*rdi]
	shr	esi, 0
	mov	r8b, sil
	movzx	esi, r8b
	mov	esi, esi
	mov	edx, esi
	movzx	esi, byte ptr [rdx + _ZN8CryptoPP8Rijndael4Base2SeE]
	shl	esi, 3
	movsxd	rdx, esi
	mov	esi, dword ptr [rdx + _ZN8CryptoPPL2TdE+3]
	mov	r10d, r9d
	xor	r10d, -1
	mov	r11d, esi
	and	r11d, r10d
	xor	esi, -1
	and	r9d, esi
	or	r11d, r9d
	mov	rdx, qword ptr [rbp - 96]
	mov	esi, dword ptr [rbp - 116]
	sub	esi, -1207529283
	add	esi, 1
	add	esi, -1207529283
	mov	esi, esi
	mov	edi, esi
	mov	dword ptr [rdx + 4*rdi], r11d
	mov	esi, dword ptr [rbp - 108]
	mov	rdx, qword ptr [rbp - 96]
	mov	r9d, dword ptr [rbp - 120]
	mov	r10d, eax
	sub	r10d, r9d
	mov	r9d, eax
	sub	r9d, 1
	add	r10d, r9d
	mov	r9d, eax
	sub	r9d, r10d
	mov	r9d, r9d
	mov	edi, r9d
	mov	dword ptr [rdx + 4*rdi], esi
	mov	rdx, qword ptr [rbp - 96]
	mov	esi, dword ptr [rbp - 116]
	mov	r9d, eax
	sub	r9d, esi
	mov	esi, eax
	sub	esi, 2
	add	r9d, esi
	mov	esi, eax
	sub	esi, r9d
	mov	esi, esi
	mov	edi, esi
	mov	esi, dword ptr [rdx + 4*rdi]
	shr	esi, 24
	mov	r8b, sil
	movzx	esi, r8b
	mov	esi, esi
	mov	edx, esi
	movzx	esi, byte ptr [rdx + _ZN8CryptoPP8Rijndael4Base2SeE]
	shl	esi, 3
	movsxd	rdx, esi
	mov	esi, dword ptr [rdx + _ZN8CryptoPPL2TdE+4]
	mov	rdx, qword ptr [rbp - 96]
	mov	r9d, dword ptr [rbp - 116]
	mov	r10d, eax
	sub	r10d, 2
	sub	r9d, r10d
	mov	r9d, r9d
	mov	edi, r9d
	mov	r9d, dword ptr [rdx + 4*rdi]
	shr	r9d, 16
	mov	r8b, r9b
	movzx	r9d, r8b
	mov	r9d, r9d
	mov	edx, r9d
	movzx	r9d, byte ptr [rdx + _ZN8CryptoPP8Rijndael4Base2SeE]
	shl	r9d, 3
	movsxd	rdx, r9d
	mov	r9d, dword ptr [rdx + _ZN8CryptoPPL2TdE+1]
	mov	r10d, esi
	xor	r10d, -1
	and	r10d, 3733130071
	mov	r11d, ecx
	xor	r11d, 3733130071
	and	esi, r11d
	mov	ebx, r9d
	xor	ebx, -1
	and	ebx, -561837225
	and	r9d, r11d
	or	r10d, esi
	or	ebx, r9d
	xor	r10d, ebx
	mov	rdx, qword ptr [rbp - 96]
	mov	esi, dword ptr [rbp - 116]
	mov	r9d, eax
	sub	r9d, esi
	mov	esi, eax
	sub	esi, 2
	add	r9d, esi
	mov	esi, eax
	sub	esi, r9d
	mov	esi, esi
	mov	edi, esi
	mov	esi, dword ptr [rdx + 4*rdi]
	shr	esi, 8
	mov	r8b, sil
	movzx	esi, r8b
	mov	esi, esi
	mov	edx, esi
	movzx	esi, byte ptr [rdx + _ZN8CryptoPP8Rijndael4Base2SeE]
	shl	esi, 3
	movsxd	rdx, esi
	mov	esi, dword ptr [rdx + _ZN8CryptoPPL2TdE+2]
	mov	r9d, r10d
	xor	r9d, -1
	and	r9d, 3573211800
	mov	r11d, ecx
	xor	r11d, 3573211800
	and	r10d, r11d
	mov	ebx, esi
	xor	ebx, -1
	and	ebx, -721755496
	and	esi, r11d
	or	r9d, r10d
	or	ebx, esi
	xor	r9d, ebx
	mov	rdx, qword ptr [rbp - 96]
	mov	esi, dword ptr [rbp - 116]
	sub	esi, 1920058156
	add	esi, 2
	add	esi, 1920058156
	mov	esi, esi
	mov	edi, esi
	mov	esi, dword ptr [rdx + 4*rdi]
	shr	esi, 0
	mov	r8b, sil
	movzx	esi, r8b
	mov	esi, esi
	mov	edx, esi
	movzx	esi, byte ptr [rdx + _ZN8CryptoPP8Rijndael4Base2SeE]
	shl	esi, 3
	movsxd	rdx, esi
	mov	esi, dword ptr [rdx + _ZN8CryptoPPL2TdE+3]
	mov	r10d, r9d
	xor	r10d, -1
	mov	r11d, esi
	and	r11d, r10d
	xor	esi, -1
	and	r9d, esi
	or	r11d, r9d
	mov	dword ptr [rbp - 108], r11d
	mov	rdx, qword ptr [rbp - 96]
	mov	esi, dword ptr [rbp - 120]
	mov	r9d, eax
	sub	r9d, esi
	mov	esi, eax
	sub	esi, 2
	add	r9d, esi
	mov	esi, eax
	sub	esi, r9d
	mov	esi, esi
	mov	edi, esi
	mov	esi, dword ptr [rdx + 4*rdi]
	shr	esi, 24
	mov	r8b, sil
	movzx	esi, r8b
	mov	esi, esi
	mov	edx, esi
	movzx	esi, byte ptr [rdx + _ZN8CryptoPP8Rijndael4Base2SeE]
	shl	esi, 3
	movsxd	rdx, esi
	mov	esi, dword ptr [rdx + _ZN8CryptoPPL2TdE+4]
	mov	rdx, qword ptr [rbp - 96]
	mov	r9d, dword ptr [rbp - 120]
	mov	r10d, eax
	sub	r10d, r9d
	mov	r9d, eax
	sub	r9d, 2
	add	r10d, r9d
	mov	r9d, eax
	sub	r9d, r10d
	mov	r9d, r9d
	mov	edi, r9d
	mov	r9d, dword ptr [rdx + 4*rdi]
	shr	r9d, 16
	mov	r8b, r9b
	movzx	r9d, r8b
	mov	r9d, r9d
	mov	edx, r9d
	movzx	r9d, byte ptr [rdx + _ZN8CryptoPP8Rijndael4Base2SeE]
	shl	r9d, 3
	movsxd	rdx, r9d
	mov	r9d, dword ptr [rdx + _ZN8CryptoPPL2TdE+1]
	mov	r10d, esi
	xor	r10d, -1
	mov	r11d, r9d
	and	r11d, r10d
	xor	r9d, -1
	and	esi, r9d
	or	r11d, esi
	mov	rdx, qword ptr [rbp - 96]
	mov	esi, dword ptr [rbp - 120]
	add	esi, -1462887097
	add	esi, 2
	sub	esi, -1462887097
	mov	esi, esi
	mov	edi, esi
	mov	esi, dword ptr [rdx + 4*rdi]
	shr	esi, 8
	mov	r8b, sil
	movzx	esi, r8b
	mov	esi, esi
	mov	edx, esi
	movzx	esi, byte ptr [rdx + _ZN8CryptoPP8Rijndael4Base2SeE]
	shl	esi, 3
	movsxd	rdx, esi
	mov	esi, dword ptr [rdx + _ZN8CryptoPPL2TdE+2]
	mov	r9d, r11d
	xor	r9d, -1
	mov	r10d, esi
	and	r10d, r9d
	xor	esi, -1
	and	r11d, esi
	or	r10d, r11d
	mov	rdx, qword ptr [rbp - 96]
	mov	esi, dword ptr [rbp - 120]
	sub	esi, 965268466
	add	esi, 2
	add	esi, 965268466
	mov	esi, esi
	mov	edi, esi
	mov	esi, dword ptr [rdx + 4*rdi]
	shr	esi, 0
	mov	r8b, sil
	movzx	esi, r8b
	mov	esi, esi
	mov	edx, esi
	movzx	esi, byte ptr [rdx + _ZN8CryptoPP8Rijndael4Base2SeE]
	shl	esi, 3
	movsxd	rdx, esi
	mov	esi, dword ptr [rdx + _ZN8CryptoPPL2TdE+3]
	mov	r9d, r10d
	xor	r9d, -1
	and	r9d, 3471609369
	xor	ecx, 3471609369
	and	r10d, ecx
	mov	r11d, esi
	xor	r11d, -1
	and	r11d, -823357927
	and	esi, ecx
	or	r9d, r10d
	or	r11d, esi
	xor	r9d, r11d
	mov	rdx, qword ptr [rbp - 96]
	mov	ecx, dword ptr [rbp - 116]
	add	ecx, 1230435519
	add	ecx, 2
	sub	ecx, 1230435519
	mov	ecx, ecx
	mov	edi, ecx
	mov	dword ptr [rdx + 4*rdi], r9d
	mov	ecx, dword ptr [rbp - 108]
	mov	rdx, qword ptr [rbp - 96]
	mov	esi, dword ptr [rbp - 120]
	mov	r9d, eax
	sub	r9d, 2
	sub	esi, r9d
	mov	esi, esi
	mov	edi, esi
	mov	dword ptr [rdx + 4*rdi], ecx
	mov	rdx, qword ptr [rbp - 96]
	mov	ecx, dword ptr [rbp - 116]
	add	ecx, -1787691092
	add	ecx, 3
	sub	ecx, -1787691092
	mov	ecx, ecx
	mov	edi, ecx
	mov	ecx, dword ptr [rdx + 4*rdi]
	shr	ecx, 24
	mov	r8b, cl
	movzx	ecx, r8b
	mov	ecx, ecx
	mov	edx, ecx
	movzx	ecx, byte ptr [rdx + _ZN8CryptoPP8Rijndael4Base2SeE]
	shl	ecx, 3
	movsxd	rdx, ecx
	mov	ecx, dword ptr [rdx + _ZN8CryptoPPL2TdE+4]
	mov	rdx, qword ptr [rbp - 96]
	mov	esi, dword ptr [rbp - 116]
	mov	r9d, eax
	sub	r9d, 3
	sub	esi, r9d
	mov	esi, esi
	mov	edi, esi
	mov	esi, dword ptr [rdx + 4*rdi]
	shr	esi, 16
	mov	r8b, sil
	movzx	esi, r8b
	mov	esi, esi
	mov	edx, esi
	movzx	esi, byte ptr [rdx + _ZN8CryptoPP8Rijndael4Base2SeE]
	shl	esi, 3
	movsxd	rdx, esi
	mov	esi, dword ptr [rdx + _ZN8CryptoPPL2TdE+1]
	mov	r9d, ecx
	xor	r9d, -1
	mov	r10d, esi
	and	r10d, r9d
	xor	esi, -1
	and	ecx, esi
	or	r10d, ecx
	mov	rdx, qword ptr [rbp - 96]
	mov	ecx, dword ptr [rbp - 116]
	mov	esi, eax
	sub	esi, 3
	sub	ecx, esi
	mov	ecx, ecx
	mov	edi, ecx
	mov	ecx, dword ptr [rdx + 4*rdi]
	shr	ecx, 8
	mov	r8b, cl
	movzx	ecx, r8b
	mov	ecx, ecx
	mov	edx, ecx
	movzx	ecx, byte ptr [rdx + _ZN8CryptoPP8Rijndael4Base2SeE]
	shl	ecx, 3
	movsxd	rdx, ecx
	mov	ecx, dword ptr [rdx + _ZN8CryptoPPL2TdE+2]
	mov	esi, r10d
	xor	esi, -1
	mov	r9d, ecx
	and	r9d, esi
	xor	ecx, -1
	and	r10d, ecx
	or	r9d, r10d
	mov	rdx, qword ptr [rbp - 96]
	mov	ecx, dword ptr [rbp - 116]
	sub	ecx, 1313198522
	add	ecx, 3
	add	ecx, 1313198522
	mov	ecx, ecx
	mov	edi, ecx
	mov	ecx, dword ptr [rdx + 4*rdi]
	shr	ecx, 0
	mov	r8b, cl
	movzx	ecx, r8b
	mov	ecx, ecx
	mov	edx, ecx
	movzx	ecx, byte ptr [rdx + _ZN8CryptoPP8Rijndael4Base2SeE]
	shl	ecx, 3
	movsxd	rdx, ecx
	mov	ecx, dword ptr [rdx + _ZN8CryptoPPL2TdE+3]
	mov	esi, r9d
	xor	esi, -1
	mov	r10d, ecx
	and	r10d, esi
	xor	ecx, -1
	and	r9d, ecx
	or	r10d, r9d
	mov	dword ptr [rbp - 108], r10d
	mov	rdx, qword ptr [rbp - 96]
	mov	ecx, dword ptr [rbp - 120]
	sub	ecx, 1572038609
	add	ecx, 3
	add	ecx, 1572038609
	mov	ecx, ecx
	mov	edi, ecx
	mov	ecx, dword ptr [rdx + 4*rdi]
	shr	ecx, 24
	mov	r8b, cl
	movzx	ecx, r8b
	mov	ecx, ecx
	mov	edx, ecx
	movzx	ecx, byte ptr [rdx + _ZN8CryptoPP8Rijndael4Base2SeE]
	shl	ecx, 3
	movsxd	rdx, ecx
	mov	ecx, dword ptr [rdx + _ZN8CryptoPPL2TdE+4]
	mov	rdx, qword ptr [rbp - 96]
	mov	esi, dword ptr [rbp - 120]
	sub	esi, -1496630897
	add	esi, 3
	add	esi, -1496630897
	mov	esi, esi
	mov	edi, esi
	mov	esi, dword ptr [rdx + 4*rdi]
	shr	esi, 16
	mov	r8b, sil
	movzx	esi, r8b
	mov	esi, esi
	mov	edx, esi
	movzx	esi, byte ptr [rdx + _ZN8CryptoPP8Rijndael4Base2SeE]
	shl	esi, 3
	movsxd	rdx, esi
	mov	esi, dword ptr [rdx + _ZN8CryptoPPL2TdE+1]
	mov	r9d, ecx
	xor	r9d, -1
	mov	r10d, esi
	and	r10d, r9d
	xor	esi, -1
	and	ecx, esi
	or	r10d, ecx
	mov	rdx, qword ptr [rbp - 96]
	mov	ecx, dword ptr [rbp - 120]
	sub	ecx, 657734015
	add	ecx, 3
	add	ecx, 657734015
	mov	ecx, ecx
	mov	edi, ecx
	mov	ecx, dword ptr [rdx + 4*rdi]
	shr	ecx, 8
	mov	r8b, cl
	movzx	ecx, r8b
	mov	ecx, ecx
	mov	edx, ecx
	movzx	ecx, byte ptr [rdx + _ZN8CryptoPP8Rijndael4Base2SeE]
	shl	ecx, 3
	movsxd	rdx, ecx
	mov	ecx, dword ptr [rdx + _ZN8CryptoPPL2TdE+2]
	mov	esi, r10d
	xor	esi, -1
	mov	r9d, ecx
	and	r9d, esi
	xor	ecx, -1
	and	r10d, ecx
	or	r9d, r10d
	mov	rdx, qword ptr [rbp - 96]
	mov	ecx, dword ptr [rbp - 120]
	mov	esi, eax
	sub	esi, ecx
	mov	ecx, eax
	sub	ecx, 3
	add	esi, ecx
	mov	ecx, eax
	sub	ecx, esi
	mov	ecx, ecx
	mov	edi, ecx
	mov	ecx, dword ptr [rdx + 4*rdi]
	shr	ecx, 0
	mov	r8b, cl
	movzx	ecx, r8b
	mov	ecx, ecx
	mov	edx, ecx
	movzx	ecx, byte ptr [rdx + _ZN8CryptoPP8Rijndael4Base2SeE]
	shl	ecx, 3
	movsxd	rdx, ecx
	mov	ecx, dword ptr [rdx + _ZN8CryptoPPL2TdE+3]
	mov	esi, r9d
	xor	esi, -1
	mov	r10d, ecx
	and	r10d, esi
	xor	ecx, -1
	and	r9d, ecx
	or	r10d, r9d
	mov	rdx, qword ptr [rbp - 96]
	mov	ecx, dword ptr [rbp - 116]
	sub	ecx, -2033842004
	add	ecx, 3
	add	ecx, -2033842004
	mov	ecx, ecx
	mov	edi, ecx
	mov	dword ptr [rdx + 4*rdi], r10d
	mov	ecx, dword ptr [rbp - 108]
	mov	rdx, qword ptr [rbp - 96]
	mov	esi, dword ptr [rbp - 120]
	mov	r9d, eax
	sub	r9d, esi
	mov	esi, eax
	sub	esi, 3
	add	r9d, esi
	sub	eax, r9d
	mov	eax, eax
	mov	edi, eax
	mov	dword ptr [rdx + 4*rdi], ecx
	mov	dword ptr [rbp - 124], -1386145370
	jmp	.LBB7_52
.LBB7_50:                               
	call	_ZN8CryptoPP8HasAESNIEv
	mov	dword ptr [rbp - 124], 2093385782
	mov	byte ptr [rbp - 355], al 
	jmp	.LBB7_52
.LBB7_51:                               
	mov	dword ptr [rbp - 124], 117908455
.LBB7_52:                               
	jmp	.LBB7_1
.Lfunc_end7:
	.size	_ZN8CryptoPP8Rijndael4Base15UncheckedSetKeyEPKhjRKNS_14NameValuePairsE, .Lfunc_end7-_ZN8CryptoPP8Rijndael4Base15UncheckedSetKeyEPKhjRKNS_14NameValuePairsE
	.cfi_endproc

	.section	.text._ZNK8CryptoPP21SimpleKeyingInterface20AssertValidKeyLengthEm,"axG",@progbits,_ZNK8CryptoPP21SimpleKeyingInterface20AssertValidKeyLengthEm,comdat
	.weak	_ZNK8CryptoPP21SimpleKeyingInterface20AssertValidKeyLengthEm 
	.p2align	4, 0x90
	.type	_ZNK8CryptoPP21SimpleKeyingInterface20AssertValidKeyLengthEm,@function
_ZNK8CryptoPP21SimpleKeyingInterface20AssertValidKeyLengthEm: 

	push	rbp
	mov	rbp, rsp
	mov	qword ptr [rbp - 8], rdi
	mov	qword ptr [rbp - 16], rsi
	pop	rbp
	ret
.Lfunc_end8:
	.size	_ZNK8CryptoPP21SimpleKeyingInterface20AssertValidKeyLengthEm, .Lfunc_end8-_ZNK8CryptoPP21SimpleKeyingInterface20AssertValidKeyLengthEm

	.section	.text._ZN8CryptoPP8SecBlockIhNS_20AllocatorWithCleanupIhLb0EEEE3NewEm,"axG",@progbits,_ZN8CryptoPP8SecBlockIhNS_20AllocatorWithCleanupIhLb0EEEE3NewEm,comdat
	.weak	_ZN8CryptoPP8SecBlockIhNS_20AllocatorWithCleanupIhLb0EEEE3NewEm 
	.p2align	4, 0x90
	.type	_ZN8CryptoPP8SecBlockIhNS_20AllocatorWithCleanupIhLb0EEEE3NewEm,@function
_ZN8CryptoPP8SecBlockIhNS_20AllocatorWithCleanupIhLb0EEEE3NewEm: 
	.cfi_startproc

	push	rbp
.Lcfi27:
	.cfi_def_cfa_offset 16
.Lcfi28:
	.cfi_offset rbp, -16
	mov	rbp, rsp
.Lcfi29:
	.cfi_def_cfa_register rbp
	push	r15
	push	r14
	push	r13
	push	r12
	push	rbx
	sub	rsp, 104
.Lcfi30:
	.cfi_offset rbx, -56
.Lcfi31:
	.cfi_offset r12, -48
.Lcfi32:
	.cfi_offset r13, -40
.Lcfi33:
	.cfi_offset r14, -32
.Lcfi34:
	.cfi_offset r15, -24
	xor	eax, eax
	mov	ecx, dword ptr [x.22]
	mov	edx, dword ptr [y.23]
	sub	eax, 1
	mov	r8d, ecx
	add	r8d, eax
	imul	ecx, r8d
	and	ecx, 1
	cmp	ecx, 0
	sete	r9b
	and	r9b, 1
	mov	byte ptr [rbp - 42], r9b
	cmp	edx, 10
	setl	r9b
	and	r9b, 1
	mov	byte ptr [rbp - 41], r9b
	mov	dword ptr [rbp - 48], -1114585252
	mov	qword ptr [rbp - 56], rdi 
	mov	qword ptr [rbp - 64], rsi 
.LBB9_1:                                
	mov	eax, dword ptr [rbp - 48]
	mov	ecx, eax
	sub	ecx, -1782772542
	mov	dword ptr [rbp - 68], eax 
	mov	dword ptr [rbp - 72], ecx 
	je	.LBB9_6
	jmp	.LBB9_8
.LBB9_8:                                
	mov	eax, dword ptr [rbp - 68] 
	sub	eax, -1114585252
	mov	dword ptr [rbp - 76], eax 
	je	.LBB9_3
	jmp	.LBB9_9
.LBB9_9:                                
	mov	eax, dword ptr [rbp - 68] 
	sub	eax, 127040440
	mov	dword ptr [rbp - 80], eax 
	je	.LBB9_5
	jmp	.LBB9_10
.LBB9_10:                               
	mov	eax, dword ptr [rbp - 68] 
	sub	eax, 1699065004
	mov	dword ptr [rbp - 84], eax 
	je	.LBB9_4
	jmp	.LBB9_2
.LBB9_2:                                
	jmp	.LBB9_7
.LBB9_3:                                
	mov	eax, 2512194754
	mov	ecx, 1699065004
	mov	dl, 1
	mov	sil, byte ptr [rbp - 42]
	mov	dil, byte ptr [rbp - 41]
	mov	r8b, sil
	xor	r8b, -1
	mov	r9b, dil
	xor	r9b, -1
	xor	dl, 0
	mov	r10b, r8b
	and	r10b, 0
	and	sil, dl
	mov	r11b, r9b
	and	r11b, 0
	and	dil, dl
	or	r10b, sil
	or	r11b, dil
	xor	r10b, r11b
	or	r8b, r9b
	xor	r8b, -1
	or	dl, 0
	and	r8b, dl
	or	r10b, r8b
	test	r10b, 1
	cmovne	eax, ecx
	mov	dword ptr [rbp - 48], eax
	jmp	.LBB9_7
.LBB9_4:                                
	xor	r8d, r8d
	mov	rax, rsp
	add	rax, -16
	mov	rsp, rax
	mov	rcx, rsp
	add	rcx, -16
	mov	rsp, rcx
	mov	rdx, qword ptr [rbp - 56] 
	mov	qword ptr [rax], rdx
	mov	rsi, qword ptr [rbp - 64] 
	mov	qword ptr [rcx], rsi
	mov	rax, qword ptr [rax]
	mov	rsi, qword ptr [rax + 24]
	mov	rdx, qword ptr [rax + 16]
	mov	rdi, qword ptr [rcx]
	mov	qword ptr [rbp - 96], rdi 
	mov	rdi, rax
	mov	r9, qword ptr [rbp - 96] 
	mov	qword ptr [rbp - 104], rcx 
	mov	rcx, r9
	mov	qword ptr [rbp - 112], rax 
	call	_ZN8CryptoPP20AllocatorWithCleanupIhLb0EE10reallocateEPhmmb
	mov	r8d, 2512194754
	mov	r10d, 127040440
	mov	r11b, 1
	xor	ebx, ebx
	mov	rcx, qword ptr [rbp - 112] 
	mov	qword ptr [rcx + 24], rax
	mov	rax, qword ptr [rbp - 104] 
	mov	rdx, qword ptr [rax]
	mov	qword ptr [rcx + 16], rdx
	mov	qword ptr [rcx + 8], -1
	mov	r14d, dword ptr [x.22]
	mov	r15d, dword ptr [y.23]
	sub	ebx, 1
	mov	r12d, r14d
	add	r12d, ebx
	imul	r14d, r12d
	and	r14d, 1
	cmp	r14d, 0
	sete	r13b
	cmp	r15d, 10
	setl	al
	mov	cl, r13b
	xor	cl, -1
	mov	dl, al
	xor	dl, -1
	xor	r11b, 1
	mov	sil, cl
	and	sil, -1
	and	r13b, r11b
	mov	dil, dl
	and	dil, -1
	and	al, r11b
	or	sil, r13b
	or	dil, al
	xor	sil, dil
	or	cl, dl
	xor	cl, -1
	or	r11b, 1
	and	cl, r11b
	or	sil, cl
	test	sil, 1
	cmovne	r8d, r10d
	mov	dword ptr [rbp - 48], r8d
	jmp	.LBB9_7
.LBB9_5:
	lea	rsp, [rbp - 40]
	pop	rbx
	pop	r12
	pop	r13
	pop	r14
	pop	r15
	pop	rbp
	ret
.LBB9_6:                                
	xor	r8d, r8d
	mov	rax, rsp
	add	rax, -16
	mov	rsp, rax
	mov	rcx, rsp
	add	rcx, -16
	mov	rsp, rcx
	mov	rdx, qword ptr [rbp - 56] 
	mov	qword ptr [rax], rdx
	mov	rsi, qword ptr [rbp - 64] 
	mov	qword ptr [rcx], rsi
	mov	rax, qword ptr [rax]
	mov	rsi, qword ptr [rax + 24]
	mov	rdx, qword ptr [rax + 16]
	mov	rdi, qword ptr [rcx]
	mov	qword ptr [rbp - 120], rdi 
	mov	rdi, rax
	mov	r9, qword ptr [rbp - 120] 
	mov	qword ptr [rbp - 128], rcx 
	mov	rcx, r9
	mov	qword ptr [rbp - 136], rax 
	call	_ZN8CryptoPP20AllocatorWithCleanupIhLb0EE10reallocateEPhmmb
	mov	rcx, qword ptr [rbp - 136] 
	mov	qword ptr [rcx + 24], rax
	mov	rax, qword ptr [rbp - 128] 
	mov	rdx, qword ptr [rax]
	mov	qword ptr [rcx + 16], rdx
	mov	qword ptr [rcx + 8], -1
	mov	dword ptr [rbp - 48], 1699065004
.LBB9_7:                                
	jmp	.LBB9_1
.Lfunc_end9:
	.size	_ZN8CryptoPP8SecBlockIhNS_20AllocatorWithCleanupIhLb0EEEE3NewEm, .Lfunc_end9-_ZN8CryptoPP8SecBlockIhNS_20AllocatorWithCleanupIhLb0EEEE3NewEm
	.cfi_endproc

	.section	.text._ZN8CryptoPP8SecBlockIhNS_20AllocatorWithCleanupIhLb0EEEE7SetMarkEm,"axG",@progbits,_ZN8CryptoPP8SecBlockIhNS_20AllocatorWithCleanupIhLb0EEEE7SetMarkEm,comdat
	.weak	_ZN8CryptoPP8SecBlockIhNS_20AllocatorWithCleanupIhLb0EEEE7SetMarkEm 
	.p2align	4, 0x90
	.type	_ZN8CryptoPP8SecBlockIhNS_20AllocatorWithCleanupIhLb0EEEE7SetMarkEm,@function
_ZN8CryptoPP8SecBlockIhNS_20AllocatorWithCleanupIhLb0EEEE7SetMarkEm: 

	push	rbp
	mov	rbp, rsp
	push	r15
	push	r14
	push	r12
	push	rbx
	sub	rsp, 48
	mov	eax, dword ptr [x.24]
	mov	ecx, dword ptr [y.25]
	mov	edx, eax
	add	edx, -532624547
	sub	edx, 1
	sub	edx, -532624547
	imul	eax, edx
	and	eax, 1
	cmp	eax, 0
	sete	r8b
	and	r8b, 1
	mov	byte ptr [rbp - 34], r8b
	cmp	ecx, 10
	setl	r8b
	and	r8b, 1
	mov	byte ptr [rbp - 33], r8b
	mov	dword ptr [rbp - 40], 577571292
	mov	qword ptr [rbp - 48], rdi 
	mov	qword ptr [rbp - 56], rsi 
.LBB10_1:                               
	mov	eax, dword ptr [rbp - 40]
	mov	ecx, eax
	sub	ecx, -1796065315
	mov	dword ptr [rbp - 60], eax 
	mov	dword ptr [rbp - 64], ecx 
	je	.LBB10_5
	jmp	.LBB10_8
.LBB10_8:                               
	mov	eax, dword ptr [rbp - 60] 
	sub	eax, 264151291
	mov	dword ptr [rbp - 68], eax 
	je	.LBB10_4
	jmp	.LBB10_9
.LBB10_9:                               
	mov	eax, dword ptr [rbp - 60] 
	sub	eax, 577571292
	mov	dword ptr [rbp - 72], eax 
	je	.LBB10_3
	jmp	.LBB10_10
.LBB10_10:                              
	mov	eax, dword ptr [rbp - 60] 
	sub	eax, 1433314833
	mov	dword ptr [rbp - 76], eax 
	je	.LBB10_6
	jmp	.LBB10_2
.LBB10_2:                               
	jmp	.LBB10_7
.LBB10_3:                               
	mov	eax, 1433314833
	mov	ecx, 264151291
	mov	dl, byte ptr [rbp - 34]
	mov	sil, byte ptr [rbp - 33]
	mov	dil, dl
	and	dil, sil
	xor	dl, sil
	or	dil, dl
	test	dil, 1
	cmovne	eax, ecx
	mov	dword ptr [rbp - 40], eax
	jmp	.LBB10_7
.LBB10_4:                               
	mov	eax, 1433314833
	mov	ecx, 2498901981
	xor	edx, edx
	mov	rsi, rsp
	add	rsi, -16
	mov	rsp, rsi
	mov	rdi, rsp
	add	rdi, -16
	mov	rsp, rdi
	mov	r8, qword ptr [rbp - 48] 
	mov	qword ptr [rsi], r8
	mov	r9, qword ptr [rbp - 56] 
	mov	qword ptr [rdi], r9
	mov	rsi, qword ptr [rsi]
	mov	rdi, qword ptr [rdi]
	mov	qword ptr [rsi + 8], rdi
	mov	r10d, dword ptr [x.24]
	mov	r11d, dword ptr [y.25]
	sub	edx, 1
	mov	ebx, r10d
	add	ebx, edx
	imul	r10d, ebx
	and	r10d, 1
	cmp	r10d, 0
	sete	r14b
	cmp	r11d, 10
	setl	r15b
	mov	r12b, r14b
	and	r12b, r15b
	xor	r14b, r15b
	or	r12b, r14b
	test	r12b, 1
	cmovne	eax, ecx
	mov	dword ptr [rbp - 40], eax
	jmp	.LBB10_7
.LBB10_5:
	lea	rsp, [rbp - 32]
	pop	rbx
	pop	r12
	pop	r14
	pop	r15
	pop	rbp
	ret
.LBB10_6:                               
	mov	rax, rsp
	add	rax, -16
	mov	rsp, rax
	mov	rcx, rsp
	add	rcx, -16
	mov	rsp, rcx
	mov	rdx, qword ptr [rbp - 48] 
	mov	qword ptr [rax], rdx
	mov	rsi, qword ptr [rbp - 56] 
	mov	qword ptr [rcx], rsi
	mov	rax, qword ptr [rax]
	mov	rcx, qword ptr [rcx]
	mov	qword ptr [rax + 8], rcx
	mov	dword ptr [rbp - 40], 264151291
.LBB10_7:                               
	jmp	.LBB10_1
.Lfunc_end10:
	.size	_ZN8CryptoPP8SecBlockIhNS_20AllocatorWithCleanupIhLb0EEEE7SetMarkEm, .Lfunc_end10-_ZN8CryptoPP8SecBlockIhNS_20AllocatorWithCleanupIhLb0EEEE7SetMarkEm

	.section	.text._ZN8CryptoPP8SecBlockIjNS_20AllocatorWithCleanupIjLb1EEEE3NewEm,"axG",@progbits,_ZN8CryptoPP8SecBlockIjNS_20AllocatorWithCleanupIjLb1EEEE3NewEm,comdat
	.weak	_ZN8CryptoPP8SecBlockIjNS_20AllocatorWithCleanupIjLb1EEEE3NewEm 
	.p2align	4, 0x90
	.type	_ZN8CryptoPP8SecBlockIjNS_20AllocatorWithCleanupIjLb1EEEE3NewEm,@function
_ZN8CryptoPP8SecBlockIjNS_20AllocatorWithCleanupIjLb1EEEE3NewEm: 
	.cfi_startproc

	push	rbp
.Lcfi35:
	.cfi_def_cfa_offset 16
.Lcfi36:
	.cfi_offset rbp, -16
	mov	rbp, rsp
.Lcfi37:
	.cfi_def_cfa_register rbp
	sub	rsp, 32
	xor	r8d, r8d
	mov	qword ptr [rbp - 8], rdi
	mov	qword ptr [rbp - 16], rsi
	mov	rsi, qword ptr [rbp - 8]
	mov	rdi, qword ptr [rsi + 24]
	mov	rdx, qword ptr [rsi + 16]
	mov	rcx, qword ptr [rbp - 16]
	mov	qword ptr [rbp - 24], rdi 
	mov	rdi, rsi
	mov	rax, qword ptr [rbp - 24] 
	mov	qword ptr [rbp - 32], rsi 
	mov	rsi, rax
	call	_ZN8CryptoPP20AllocatorWithCleanupIjLb1EE10reallocateEPjmmb
	movabs	rcx, 4611686018427387903
	mov	rdx, qword ptr [rbp - 32] 
	mov	qword ptr [rdx + 24], rax
	mov	rax, qword ptr [rbp - 16]
	mov	qword ptr [rdx + 16], rax
	mov	qword ptr [rdx + 8], rcx
	add	rsp, 32
	pop	rbp
	ret
.Lfunc_end11:
	.size	_ZN8CryptoPP8SecBlockIjNS_20AllocatorWithCleanupIjLb1EEEE3NewEm, .Lfunc_end11-_ZN8CryptoPP8SecBlockIjNS_20AllocatorWithCleanupIjLb1EEEE3NewEm
	.cfi_endproc

	.section	.text._ZN8CryptoPP8SecBlockIjNS_20AllocatorWithCleanupIjLb1EEEEcvPjEv,"axG",@progbits,_ZN8CryptoPP8SecBlockIjNS_20AllocatorWithCleanupIjLb1EEEEcvPjEv,comdat
	.weak	_ZN8CryptoPP8SecBlockIjNS_20AllocatorWithCleanupIjLb1EEEEcvPjEv 
	.p2align	4, 0x90
	.type	_ZN8CryptoPP8SecBlockIjNS_20AllocatorWithCleanupIjLb1EEEEcvPjEv,@function
_ZN8CryptoPP8SecBlockIjNS_20AllocatorWithCleanupIjLb1EEEEcvPjEv: 

	push	rbp
	mov	rbp, rsp
	push	rbx
	sub	rsp, 56
	mov	eax, dword ptr [x.28]
	mov	ecx, dword ptr [y.29]
	mov	edx, eax
	sub	edx, -1725323472
	sub	edx, 1
	add	edx, -1725323472
	imul	eax, edx
	and	eax, 1
	cmp	eax, 0
	sete	sil
	and	sil, 1
	mov	byte ptr [rbp - 18], sil
	cmp	ecx, 10
	setl	sil
	and	sil, 1
	mov	byte ptr [rbp - 17], sil
	mov	dword ptr [rbp - 24], 1638875131
	mov	qword ptr [rbp - 32], rdi 
.LBB12_1:                               
	mov	eax, dword ptr [rbp - 24]
	mov	ecx, eax
	sub	ecx, -423238967
	mov	dword ptr [rbp - 36], eax 
	mov	dword ptr [rbp - 40], ecx 
	je	.LBB12_5
	jmp	.LBB12_8
.LBB12_8:                               
	mov	eax, dword ptr [rbp - 36] 
	sub	eax, -68595867
	mov	dword ptr [rbp - 44], eax 
	je	.LBB12_4
	jmp	.LBB12_9
.LBB12_9:                               
	mov	eax, dword ptr [rbp - 36] 
	sub	eax, 161826019
	mov	dword ptr [rbp - 48], eax 
	je	.LBB12_6
	jmp	.LBB12_10
.LBB12_10:                              
	mov	eax, dword ptr [rbp - 36] 
	sub	eax, 1638875131
	mov	dword ptr [rbp - 52], eax 
	je	.LBB12_3
	jmp	.LBB12_2
.LBB12_2:                               
	jmp	.LBB12_7
.LBB12_3:                               
	mov	eax, 161826019
	mov	ecx, 4226371429
	mov	dl, byte ptr [rbp - 18]
	mov	sil, byte ptr [rbp - 17]
	mov	dil, dl
	and	dil, sil
	xor	dl, sil
	or	dil, dl
	test	dil, 1
	cmovne	eax, ecx
	mov	dword ptr [rbp - 24], eax
	jmp	.LBB12_7
.LBB12_4:                               
	mov	eax, 161826019
	mov	ecx, 3871728329
	mov	rdx, rsp
	add	rdx, -16
	mov	rsp, rdx
	mov	rsi, qword ptr [rbp - 32] 
	mov	qword ptr [rdx], rsi
	mov	rdx, qword ptr [rdx]
	mov	rdx, qword ptr [rdx + 24]
	mov	qword ptr [rbp - 16], rdx
	mov	edi, dword ptr [x.28]
	mov	r8d, dword ptr [y.29]
	mov	r9d, edi
	add	r9d, 1766615271
	sub	r9d, 1
	sub	r9d, 1766615271
	imul	edi, r9d
	and	edi, 1
	cmp	edi, 0
	sete	r10b
	cmp	r8d, 10
	setl	r11b
	mov	bl, r10b
	and	bl, r11b
	xor	r10b, r11b
	or	bl, r10b
	test	bl, 1
	cmovne	eax, ecx
	mov	dword ptr [rbp - 24], eax
	jmp	.LBB12_7
.LBB12_5:
	mov	rax, qword ptr [rbp - 16]
	lea	rsp, [rbp - 8]
	pop	rbx
	pop	rbp
	ret
.LBB12_6:                               
	mov	rax, rsp
	add	rax, -16
	mov	rsp, rax
	mov	rcx, qword ptr [rbp - 32] 
	mov	qword ptr [rax], rcx
	mov	dword ptr [rbp - 24], -68595867
.LBB12_7:                               
	jmp	.LBB12_1
.Lfunc_end12:
	.size	_ZN8CryptoPP8SecBlockIjNS_20AllocatorWithCleanupIjLb1EEEEcvPjEv, .Lfunc_end12-_ZN8CryptoPP8SecBlockIjNS_20AllocatorWithCleanupIjLb1EEEEcvPjEv

	.section	.text._ZN8CryptoPP8HasSSE41Ev,"axG",@progbits,_ZN8CryptoPP8HasSSE41Ev,comdat
	.weak	_ZN8CryptoPP8HasSSE41Ev 
	.p2align	4, 0x90
	.type	_ZN8CryptoPP8HasSSE41Ev,@function
_ZN8CryptoPP8HasSSE41Ev:                
	.cfi_startproc

	push	rbp
.Lcfi38:
	.cfi_def_cfa_offset 16
.Lcfi39:
	.cfi_offset rbp, -16
	mov	rbp, rsp
.Lcfi40:
	.cfi_def_cfa_register rbp
	sub	rsp, 48
	mov	eax, dword ptr [x.30]
	mov	ecx, dword ptr [y.31]
	mov	edx, eax
	add	edx, -156358067
	sub	edx, 1
	sub	edx, -156358067
	imul	eax, edx
	and	eax, 1
	cmp	eax, 0
	sete	sil
	and	sil, 1
	mov	byte ptr [rbp - 4], sil
	cmp	ecx, 10
	setl	sil
	and	sil, 1
	mov	byte ptr [rbp - 3], sil
	mov	dword ptr [rbp - 8], 835638491
.LBB13_1:                               
	mov	eax, dword ptr [rbp - 8]
	mov	ecx, eax
	sub	ecx, -1958499364
	mov	dword ptr [rbp - 12], eax 
	mov	dword ptr [rbp - 16], ecx 
	je	.LBB13_7
	jmp	.LBB13_13
.LBB13_13:                              
	mov	eax, dword ptr [rbp - 12] 
	sub	eax, -1415675917
	mov	dword ptr [rbp - 20], eax 
	je	.LBB13_9
	jmp	.LBB13_14
.LBB13_14:                              
	mov	eax, dword ptr [rbp - 12] 
	sub	eax, -1272076884
	mov	dword ptr [rbp - 24], eax 
	je	.LBB13_6
	jmp	.LBB13_15
.LBB13_15:                              
	mov	eax, dword ptr [rbp - 12] 
	sub	eax, -1080020858
	mov	dword ptr [rbp - 28], eax 
	je	.LBB13_10
	jmp	.LBB13_16
.LBB13_16:                              
	mov	eax, dword ptr [rbp - 12] 
	sub	eax, -882278309
	mov	dword ptr [rbp - 32], eax 
	je	.LBB13_5
	jmp	.LBB13_17
.LBB13_17:                              
	mov	eax, dword ptr [rbp - 12] 
	sub	eax, -764616148
	mov	dword ptr [rbp - 36], eax 
	je	.LBB13_11
	jmp	.LBB13_18
.LBB13_18:                              
	mov	eax, dword ptr [rbp - 12] 
	sub	eax, 526457835
	mov	dword ptr [rbp - 40], eax 
	je	.LBB13_8
	jmp	.LBB13_19
.LBB13_19:                              
	mov	eax, dword ptr [rbp - 12] 
	sub	eax, 726491665
	mov	dword ptr [rbp - 44], eax 
	je	.LBB13_4
	jmp	.LBB13_20
.LBB13_20:                              
	mov	eax, dword ptr [rbp - 12] 
	sub	eax, 835638491
	mov	dword ptr [rbp - 48], eax 
	je	.LBB13_3
	jmp	.LBB13_2
.LBB13_2:                               
	jmp	.LBB13_12
.LBB13_3:                               
	mov	eax, 3214946438
	mov	ecx, 726491665
	mov	dl, 1
	mov	sil, byte ptr [rbp - 4]
	mov	dil, byte ptr [rbp - 3]
	mov	r8b, sil
	xor	r8b, -1
	mov	r9b, dil
	xor	r9b, -1
	xor	dl, 0
	mov	r10b, r8b
	and	r10b, 0
	and	sil, dl
	mov	r11b, r9b
	and	r11b, 0
	and	dil, dl
	or	r10b, sil
	or	r11b, dil
	xor	r10b, r11b
	or	r8b, r9b
	xor	r8b, -1
	or	dl, 0
	and	r8b, dl
	or	r10b, r8b
	test	r10b, 1
	cmovne	eax, ecx
	mov	dword ptr [rbp - 8], eax
	jmp	.LBB13_12
.LBB13_4:                               
	mov	eax, 3214946438
	mov	ecx, 3412688987
	mov	dl, byte ptr [_ZN8CryptoPP18g_x86DetectionDoneE]
	and	dl, 1
	mov	byte ptr [rbp - 2], dl
	mov	esi, dword ptr [x.30]
	mov	edi, dword ptr [y.31]
	mov	r8d, esi
	sub	r8d, -951314049
	sub	r8d, 1
	add	r8d, -951314049
	imul	esi, r8d
	and	esi, 1
	cmp	esi, 0
	sete	dl
	cmp	edi, 10
	setl	r9b
	mov	r10b, dl
	and	r10b, r9b
	xor	dl, r9b
	or	r10b, dl
	test	r10b, 1
	cmovne	eax, ecx
	mov	dword ptr [rbp - 8], eax
	jmp	.LBB13_12
.LBB13_5:                               
	mov	eax, 3022890412
	mov	ecx, 2336467932
	mov	dl, byte ptr [rbp - 2]
	test	dl, 1
	cmovne	eax, ecx
	mov	dword ptr [rbp - 8], eax
	jmp	.LBB13_12
.LBB13_6:                               
	call	_ZN8CryptoPP17DetectX86FeaturesEv
	mov	dword ptr [rbp - 8], -1958499364
	jmp	.LBB13_12
.LBB13_7:                               
	mov	eax, 3530351148
	mov	ecx, 526457835
	mov	edx, dword ptr [x.30]
	mov	esi, dword ptr [y.31]
	mov	edi, edx
	add	edi, 1462870627
	sub	edi, 1
	sub	edi, 1462870627
	imul	edx, edi
	and	edx, 1
	cmp	edx, 0
	sete	r8b
	cmp	esi, 10
	setl	r9b
	mov	r10b, r8b
	and	r10b, r9b
	xor	r8b, r9b
	or	r10b, r8b
	test	r10b, 1
	cmovne	eax, ecx
	mov	dword ptr [rbp - 8], eax
	jmp	.LBB13_12
.LBB13_8:                               
	mov	eax, 3530351148
	mov	ecx, 2879291379
	xor	edx, edx
	mov	sil, byte ptr [_ZN8CryptoPP10g_hasSSE41E]
	and	sil, 1
	mov	byte ptr [rbp - 1], sil
	mov	edi, dword ptr [x.30]
	mov	r8d, dword ptr [y.31]
	sub	edx, 1
	mov	r9d, edi
	add	r9d, edx
	imul	edi, r9d
	and	edi, 1
	cmp	edi, 0
	sete	sil
	cmp	r8d, 10
	setl	r10b
	mov	r11b, sil
	and	r11b, r10b
	xor	sil, r10b
	or	r11b, sil
	test	r11b, 1
	cmovne	eax, ecx
	mov	dword ptr [rbp - 8], eax
	jmp	.LBB13_12
.LBB13_9:
	mov	al, byte ptr [rbp - 1]
	and	al, 1
	movzx	eax, al
	add	rsp, 48
	pop	rbp
	ret
.LBB13_10:                              
	mov	dword ptr [rbp - 8], 726491665
	jmp	.LBB13_12
.LBB13_11:                              
	mov	dword ptr [rbp - 8], 526457835
.LBB13_12:                              
	jmp	.LBB13_1
.Lfunc_end13:
	.size	_ZN8CryptoPP8HasSSE41Ev, .Lfunc_end13-_ZN8CryptoPP8HasSSE41Ev
	.cfi_endproc

	.section	.text._ZN8CryptoPP10GetUserKeyIjEEvNS_9ByteOrderEPT_mPKhm,"axG",@progbits,_ZN8CryptoPP10GetUserKeyIjEEvNS_9ByteOrderEPT_mPKhm,comdat
	.weak	_ZN8CryptoPP10GetUserKeyIjEEvNS_9ByteOrderEPT_mPKhm 
	.p2align	4, 0x90
	.type	_ZN8CryptoPP10GetUserKeyIjEEvNS_9ByteOrderEPT_mPKhm,@function
_ZN8CryptoPP10GetUserKeyIjEEvNS_9ByteOrderEPT_mPKhm: 
	.cfi_startproc

	push	rbp
.Lcfi41:
	.cfi_def_cfa_offset 16
.Lcfi42:
	.cfi_offset rbp, -16
	mov	rbp, rsp
.Lcfi43:
	.cfi_def_cfa_register rbp
	sub	rsp, 96
	mov	dword ptr [rbp - 4], edi
	mov	qword ptr [rbp - 16], rsi
	mov	qword ptr [rbp - 24], rdx
	mov	qword ptr [rbp - 32], rcx
	mov	qword ptr [rbp - 40], r8
	mov	qword ptr [rbp - 48], 4
	mov	rcx, qword ptr [rbp - 16]
	mov	rdx, qword ptr [rbp - 24]
	shl	rdx, 2
	mov	rsi, qword ptr [rbp - 32]
	mov	r8, qword ptr [rbp - 40]
	mov	rdi, rcx
	mov	qword ptr [rbp - 56], rsi 
	mov	rsi, rdx
	mov	rdx, qword ptr [rbp - 56] 
	mov	rcx, r8
	call	_ZN8CryptoPP8memcpy_sEPvmPKvm
	xor	esi, esi
	xor	eax, eax
	mov	ecx, eax
	mov	rdx, qword ptr [rbp - 16]
	add	rdx, qword ptr [rbp - 40]
	mov	rdi, qword ptr [rbp - 24]
	shl	rdi, 2
	mov	r8, qword ptr [rbp - 40]
	sub	rcx, r8
	add	rdi, rcx
	mov	qword ptr [rbp - 64], rdi 
	mov	rdi, rdx
	mov	rdx, qword ptr [rbp - 64] 
	call	_ZN8CryptoPP8memset_zEPvim
	lea	rdi, [rbp - 40]
	lea	rsi, [rbp - 48]
	mov	r9d, dword ptr [rbp - 4]
	mov	rcx, qword ptr [rbp - 16]
	mov	rdx, qword ptr [rbp - 16]
	mov	qword ptr [rbp - 72], rax 
	mov	qword ptr [rbp - 80], rdx 
	mov	qword ptr [rbp - 88], rcx 
	mov	dword ptr [rbp - 92], r9d 
	call	_ZN8CryptoPP19RoundUpToMultipleOfImmEET_RKS1_RKT0_
	mov	edi, dword ptr [rbp - 92] 
	mov	rsi, qword ptr [rbp - 88] 
	mov	rdx, qword ptr [rbp - 80] 
	mov	rcx, rax
	call	_ZN8CryptoPP22ConditionalByteReverseIjEEvNS_9ByteOrderEPT_PKS2_m
	add	rsp, 96
	pop	rbp
	ret
.Lfunc_end14:
	.size	_ZN8CryptoPP10GetUserKeyIjEEvNS_9ByteOrderEPT_mPKhm, .Lfunc_end14-_ZN8CryptoPP10GetUserKeyIjEEvNS_9ByteOrderEPT_mPKhm
	.cfi_endproc

	.section	.text._ZN8CryptoPP8SecBlockIjNS_20AllocatorWithCleanupIjLb1EEEE3endEv,"axG",@progbits,_ZN8CryptoPP8SecBlockIjNS_20AllocatorWithCleanupIjLb1EEEE3endEv,comdat
	.weak	_ZN8CryptoPP8SecBlockIjNS_20AllocatorWithCleanupIjLb1EEEE3endEv 
	.p2align	4, 0x90
	.type	_ZN8CryptoPP8SecBlockIjNS_20AllocatorWithCleanupIjLb1EEEE3endEv,@function
_ZN8CryptoPP8SecBlockIjNS_20AllocatorWithCleanupIjLb1EEEE3endEv: 

	push	rbp
	mov	rbp, rsp
	mov	qword ptr [rbp - 8], rdi
	mov	rdi, qword ptr [rbp - 8]
	mov	rax, qword ptr [rdi + 24]
	mov	rdi, qword ptr [rdi + 16]
	shl	rdi, 2
	add	rax, rdi
	pop	rbp
	ret
.Lfunc_end15:
	.size	_ZN8CryptoPP8SecBlockIjNS_20AllocatorWithCleanupIjLb1EEEE3endEv, .Lfunc_end15-_ZN8CryptoPP8SecBlockIjNS_20AllocatorWithCleanupIjLb1EEEE3endEv

	.section	.text._ZN8CryptoPP22ConditionalByteReverseIjEEvNS_9ByteOrderEPT_PKS2_m,"axG",@progbits,_ZN8CryptoPP22ConditionalByteReverseIjEEvNS_9ByteOrderEPT_PKS2_m,comdat
	.weak	_ZN8CryptoPP22ConditionalByteReverseIjEEvNS_9ByteOrderEPT_PKS2_m 
	.p2align	4, 0x90
	.type	_ZN8CryptoPP22ConditionalByteReverseIjEEvNS_9ByteOrderEPT_PKS2_m,@function
_ZN8CryptoPP22ConditionalByteReverseIjEEvNS_9ByteOrderEPT_PKS2_m: 
	.cfi_startproc

	push	rbp
.Lcfi44:
	.cfi_def_cfa_offset 16
.Lcfi45:
	.cfi_offset rbp, -16
	mov	rbp, rsp
.Lcfi46:
	.cfi_def_cfa_register rbp
	push	r15
	push	r14
	push	r13
	push	r12
	push	rbx
	sub	rsp, 200
.Lcfi47:
	.cfi_offset rbx, -56
.Lcfi48:
	.cfi_offset r12, -48
.Lcfi49:
	.cfi_offset r13, -40
.Lcfi50:
	.cfi_offset r14, -32
.Lcfi51:
	.cfi_offset r15, -24
	xor	eax, eax
	mov	r8d, dword ptr [x.36]
	mov	r9d, dword ptr [y.37]
	sub	eax, 1
	mov	r10d, r8d
	add	r10d, eax
	imul	r8d, r10d
	and	r8d, 1
	cmp	r8d, 0
	sete	r11b
	and	r11b, 1
	mov	byte ptr [rbp - 74], r11b
	cmp	r9d, 10
	setl	r11b
	and	r11b, 1
	mov	byte ptr [rbp - 73], r11b
	mov	dword ptr [rbp - 80], -242394513
	mov	qword ptr [rbp - 88], rdx 
	mov	qword ptr [rbp - 96], rsi 
	mov	dword ptr [rbp - 100], edi 
	mov	qword ptr [rbp - 112], rcx 
.LBB16_1:                               
	mov	eax, dword ptr [rbp - 80]
	mov	ecx, eax
	sub	ecx, -2075484687
	mov	dword ptr [rbp - 116], eax 
	mov	dword ptr [rbp - 120], ecx 
	je	.LBB16_5
	jmp	.LBB16_22
.LBB16_22:                              
	mov	eax, dword ptr [rbp - 116] 
	sub	eax, -1821613384
	mov	dword ptr [rbp - 124], eax 
	je	.LBB16_13
	jmp	.LBB16_23
.LBB16_23:                              
	mov	eax, dword ptr [rbp - 116] 
	sub	eax, -1758734322
	mov	dword ptr [rbp - 128], eax 
	je	.LBB16_19
	jmp	.LBB16_24
.LBB16_24:                              
	mov	eax, dword ptr [rbp - 116] 
	sub	eax, -1692784457
	mov	dword ptr [rbp - 132], eax 
	je	.LBB16_14
	jmp	.LBB16_25
.LBB16_25:                              
	mov	eax, dword ptr [rbp - 116] 
	sub	eax, -1630986050
	mov	dword ptr [rbp - 136], eax 
	je	.LBB16_18
	jmp	.LBB16_26
.LBB16_26:                              
	mov	eax, dword ptr [rbp - 116] 
	sub	eax, -1009690882
	mov	dword ptr [rbp - 140], eax 
	je	.LBB16_20
	jmp	.LBB16_27
.LBB16_27:                              
	mov	eax, dword ptr [rbp - 116] 
	sub	eax, -631814153
	mov	dword ptr [rbp - 144], eax 
	je	.LBB16_17
	jmp	.LBB16_28
.LBB16_28:                              
	mov	eax, dword ptr [rbp - 116] 
	sub	eax, -378708761
	mov	dword ptr [rbp - 148], eax 
	je	.LBB16_10
	jmp	.LBB16_29
.LBB16_29:                              
	mov	eax, dword ptr [rbp - 116] 
	sub	eax, -242394513
	mov	dword ptr [rbp - 152], eax 
	je	.LBB16_3
	jmp	.LBB16_30
.LBB16_30:                              
	mov	eax, dword ptr [rbp - 116] 
	sub	eax, 442195081
	mov	dword ptr [rbp - 156], eax 
	je	.LBB16_11
	jmp	.LBB16_31
.LBB16_31:                              
	mov	eax, dword ptr [rbp - 116] 
	sub	eax, 724011292
	mov	dword ptr [rbp - 160], eax 
	je	.LBB16_15
	jmp	.LBB16_32
.LBB16_32:                              
	mov	eax, dword ptr [rbp - 116] 
	sub	eax, 769365772
	mov	dword ptr [rbp - 164], eax 
	je	.LBB16_4
	jmp	.LBB16_33
.LBB16_33:                              
	mov	eax, dword ptr [rbp - 116] 
	sub	eax, 915820901
	mov	dword ptr [rbp - 168], eax 
	je	.LBB16_7
	jmp	.LBB16_34
.LBB16_34:                              
	mov	eax, dword ptr [rbp - 116] 
	sub	eax, 939434453
	mov	dword ptr [rbp - 172], eax 
	je	.LBB16_12
	jmp	.LBB16_35
.LBB16_35:                              
	mov	eax, dword ptr [rbp - 116] 
	sub	eax, 1152976609
	mov	dword ptr [rbp - 176], eax 
	je	.LBB16_8
	jmp	.LBB16_36
.LBB16_36:                              
	mov	eax, dword ptr [rbp - 116] 
	sub	eax, 1188747439
	mov	dword ptr [rbp - 180], eax 
	je	.LBB16_6
	jmp	.LBB16_37
.LBB16_37:                              
	mov	eax, dword ptr [rbp - 116] 
	sub	eax, 1940897337
	mov	dword ptr [rbp - 184], eax 
	je	.LBB16_16
	jmp	.LBB16_38
.LBB16_38:                              
	mov	eax, dword ptr [rbp - 116] 
	sub	eax, 2067257558
	mov	dword ptr [rbp - 188], eax 
	je	.LBB16_9
	jmp	.LBB16_2
.LBB16_2:                               
	jmp	.LBB16_21
.LBB16_3:                               
	mov	eax, 3663153143
	mov	ecx, 769365772
	mov	dl, byte ptr [rbp - 74]
	mov	sil, byte ptr [rbp - 73]
	mov	dil, dl
	and	dil, sil
	xor	dl, sil
	or	dil, dl
	test	dil, 1
	cmovne	eax, ecx
	mov	dword ptr [rbp - 80], eax
	jmp	.LBB16_21
.LBB16_4:                               
	mov	rax, rsp
	add	rax, -16
	mov	rsp, rax
	mov	rcx, rsp
	add	rcx, -16
	mov	rsp, rcx
	mov	qword ptr [rbp - 72], rcx
	mov	rcx, rsp
	add	rcx, -16
	mov	rsp, rcx
	mov	qword ptr [rbp - 64], rcx
	mov	rcx, rsp
	add	rcx, -16
	mov	rsp, rcx
	mov	qword ptr [rbp - 56], rcx
	mov	edx, dword ptr [rbp - 100] 
	mov	dword ptr [rax], edx
	mov	rcx, qword ptr [rbp - 72]
	mov	rsi, qword ptr [rbp - 96] 
	mov	qword ptr [rcx], rsi
	mov	rcx, qword ptr [rbp - 64]
	mov	rdi, qword ptr [rbp - 88] 
	mov	qword ptr [rcx], rdi
	mov	rcx, qword ptr [rbp - 56]
	mov	r8, qword ptr [rbp - 112] 
	mov	qword ptr [rcx], r8
	mov	edi, dword ptr [rax]
	call	_ZN8CryptoPP17NativeByteOrderIsENS_9ByteOrderE
	mov	edx, 3663153143
	mov	edi, 2219482609
	mov	r9b, 1
	xor	r10d, r10d
	and	al, 1
	mov	byte ptr [rbp - 42], al
	mov	r11d, dword ptr [x.36]
	mov	ebx, dword ptr [y.37]
	sub	r10d, 1
	mov	r14d, r11d
	add	r14d, r10d
	imul	r11d, r14d
	and	r11d, 1
	cmp	r11d, 0
	sete	al
	cmp	ebx, 10
	setl	r15b
	mov	r12b, al
	xor	r12b, -1
	mov	r13b, r15b
	xor	r13b, -1
	xor	r9b, 0
	mov	cl, r12b
	and	cl, 0
	and	al, r9b
	mov	sil, r13b
	and	sil, 0
	and	r15b, r9b
	or	cl, al
	or	sil, r15b
	xor	cl, sil
	or	r12b, r13b
	xor	r12b, -1
	or	r9b, 0
	and	r12b, r9b
	or	cl, r12b
	test	cl, 1
	cmovne	edx, edi
	mov	dword ptr [rbp - 80], edx
	jmp	.LBB16_21
.LBB16_5:                               
	mov	eax, 1188747439
	mov	ecx, 915820901
	mov	dl, byte ptr [rbp - 42]
	test	dl, 1
	cmovne	eax, ecx
	mov	dword ptr [rbp - 80], eax
	jmp	.LBB16_21
.LBB16_6:                               
	mov	rax, qword ptr [rbp - 72]
	mov	rdi, qword ptr [rax]
	mov	rax, qword ptr [rbp - 64]
	mov	rsi, qword ptr [rax]
	mov	rax, qword ptr [rbp - 56]
	mov	rdx, qword ptr [rax]
	call	_ZN8CryptoPP11ByteReverseIjEEvPT_PKS1_m
	mov	dword ptr [rbp - 80], -1692784457
	jmp	.LBB16_21
.LBB16_7:                               
	mov	eax, 2663981246
	mov	ecx, 1152976609
	mov	edx, dword ptr [x.36]
	mov	esi, dword ptr [y.37]
	mov	edi, edx
	add	edi, -1055935919
	sub	edi, 1
	sub	edi, -1055935919
	imul	edx, edi
	and	edx, 1
	cmp	edx, 0
	sete	r8b
	cmp	esi, 10
	setl	r9b
	mov	r10b, r8b
	and	r10b, r9b
	xor	r8b, r9b
	or	r10b, r8b
	test	r10b, 1
	cmovne	eax, ecx
	mov	dword ptr [rbp - 80], eax
	jmp	.LBB16_21
.LBB16_8:                               
	mov	eax, 2663981246
	mov	ecx, 2067257558
	mov	dl, 1
	xor	esi, esi
	mov	rdi, qword ptr [rbp - 64]
	mov	rdi, qword ptr [rdi]
	mov	r8, qword ptr [rbp - 72]
	cmp	rdi, qword ptr [r8]
	setne	r9b
	and	r9b, 1
	mov	byte ptr [rbp - 41], r9b
	mov	r10d, dword ptr [x.36]
	mov	r11d, dword ptr [y.37]
	sub	esi, 1
	mov	ebx, r10d
	add	ebx, esi
	imul	r10d, ebx
	and	r10d, 1
	cmp	r10d, 0
	sete	r9b
	cmp	r11d, 10
	setl	r14b
	mov	r15b, r9b
	xor	r15b, -1
	mov	r12b, r14b
	xor	r12b, -1
	xor	dl, 1
	mov	r13b, r15b
	and	r13b, -1
	and	r9b, dl
	mov	sil, r12b
	and	sil, -1
	and	r14b, dl
	or	r13b, r9b
	or	sil, r14b
	xor	r13b, sil
	or	r15b, r12b
	xor	r15b, -1
	or	dl, 1
	and	r15b, dl
	or	r13b, r15b
	test	r13b, 1
	cmovne	eax, ecx
	mov	dword ptr [rbp - 80], eax
	jmp	.LBB16_21
.LBB16_9:                               
	mov	eax, 2473353912
	mov	ecx, 3916258535
	mov	dl, byte ptr [rbp - 41]
	test	dl, 1
	cmovne	eax, ecx
	mov	dword ptr [rbp - 80], eax
	jmp	.LBB16_21
.LBB16_10:                              
	mov	eax, 2536232974
	mov	ecx, 442195081
	mov	edx, dword ptr [x.36]
	mov	esi, dword ptr [y.37]
	mov	edi, edx
	sub	edi, -1592520977
	sub	edi, 1
	add	edi, -1592520977
	imul	edx, edi
	and	edx, 1
	cmp	edx, 0
	sete	r8b
	cmp	esi, 10
	setl	r9b
	mov	r10b, r8b
	and	r10b, r9b
	xor	r8b, r9b
	or	r10b, r8b
	test	r10b, 1
	cmovne	eax, ecx
	mov	dword ptr [rbp - 80], eax
	jmp	.LBB16_21
.LBB16_11:                              
	mov	rax, qword ptr [rbp - 72]
	mov	rax, qword ptr [rax]
	mov	rcx, qword ptr [rbp - 56]
	mov	rsi, qword ptr [rcx]
	mov	rcx, qword ptr [rbp - 64]
	mov	rcx, qword ptr [rcx]
	mov	rdx, qword ptr [rbp - 56]
	mov	rdx, qword ptr [rdx]
	mov	rdi, rax
	mov	qword ptr [rbp - 200], rdx 
	mov	rdx, rcx
	mov	rcx, qword ptr [rbp - 200] 
	call	_ZN8CryptoPP8memcpy_sEPvmPKvm
	mov	r8d, 2536232974
	mov	r9d, 939434453
	mov	r10d, dword ptr [x.36]
	mov	r11d, dword ptr [y.37]
	mov	ebx, r10d
	add	ebx, -1629185673
	sub	ebx, 1
	sub	ebx, -1629185673
	imul	r10d, ebx
	and	r10d, 1
	cmp	r10d, 0
	sete	r14b
	cmp	r11d, 10
	setl	r15b
	mov	r12b, r14b
	and	r12b, r15b
	xor	r14b, r15b
	or	r12b, r14b
	test	r12b, 1
	cmovne	r8d, r9d
	mov	dword ptr [rbp - 80], r8d
	jmp	.LBB16_21
.LBB16_12:                              
	mov	dword ptr [rbp - 80], -1821613384
	jmp	.LBB16_21
.LBB16_13:                              
	mov	dword ptr [rbp - 80], -1692784457
	jmp	.LBB16_21
.LBB16_14:                              
	mov	eax, 3285276414
	mov	ecx, 724011292
	mov	edx, dword ptr [x.36]
	mov	esi, dword ptr [y.37]
	mov	edi, edx
	sub	edi, -832420681
	sub	edi, 1
	add	edi, -832420681
	imul	edx, edi
	and	edx, 1
	cmp	edx, 0
	sete	r8b
	cmp	esi, 10
	setl	r9b
	mov	r10b, r8b
	and	r10b, r9b
	xor	r8b, r9b
	or	r10b, r8b
	test	r10b, 1
	cmovne	eax, ecx
	mov	dword ptr [rbp - 80], eax
	jmp	.LBB16_21
.LBB16_15:                              
	mov	eax, 3285276414
	mov	ecx, 1940897337
	mov	edx, dword ptr [x.36]
	mov	esi, dword ptr [y.37]
	mov	edi, edx
	add	edi, -1350005309
	sub	edi, 1
	sub	edi, -1350005309
	imul	edx, edi
	and	edx, 1
	cmp	edx, 0
	sete	r8b
	cmp	esi, 10
	setl	r9b
	mov	r10b, r8b
	and	r10b, r9b
	xor	r8b, r9b
	or	r10b, r8b
	test	r10b, 1
	cmovne	eax, ecx
	mov	dword ptr [rbp - 80], eax
	jmp	.LBB16_21
.LBB16_16:
	lea	rsp, [rbp - 40]
	pop	rbx
	pop	r12
	pop	r13
	pop	r14
	pop	r15
	pop	rbp
	ret
.LBB16_17:                              
	mov	rax, rsp
	add	rax, -16
	mov	rsp, rax
	mov	rcx, rsp
	add	rcx, -16
	mov	rsp, rcx
	mov	rdx, rsp
	add	rdx, -16
	mov	rsp, rdx
	mov	rsi, rsp
	add	rsi, -16
	mov	rsp, rsi
	mov	edi, dword ptr [rbp - 100] 
	mov	dword ptr [rax], edi
	mov	r8, qword ptr [rbp - 96] 
	mov	qword ptr [rcx], r8
	mov	rcx, qword ptr [rbp - 88] 
	mov	qword ptr [rdx], rcx
	mov	rdx, qword ptr [rbp - 112] 
	mov	qword ptr [rsi], rdx
	mov	edi, dword ptr [rax]
	call	_ZN8CryptoPP17NativeByteOrderIsENS_9ByteOrderE
	mov	dword ptr [rbp - 80], 769365772
	mov	byte ptr [rbp - 201], al 
	jmp	.LBB16_21
.LBB16_18:                              
	mov	rax, qword ptr [rbp - 64]
	mov	rcx, qword ptr [rbp - 72]
	mov	dword ptr [rbp - 80], 1152976609
	mov	qword ptr [rbp - 216], rax 
	mov	qword ptr [rbp - 224], rcx 
	jmp	.LBB16_21
.LBB16_19:                              
	mov	rax, qword ptr [rbp - 72]
	mov	rax, qword ptr [rax]
	mov	rcx, qword ptr [rbp - 56]
	mov	rsi, qword ptr [rcx]
	mov	rcx, qword ptr [rbp - 64]
	mov	rcx, qword ptr [rcx]
	mov	rdx, qword ptr [rbp - 56]
	mov	rdx, qword ptr [rdx]
	mov	rdi, rax
	mov	qword ptr [rbp - 232], rdx 
	mov	rdx, rcx
	mov	rcx, qword ptr [rbp - 232] 
	call	_ZN8CryptoPP8memcpy_sEPvmPKvm
	mov	dword ptr [rbp - 80], 442195081
	jmp	.LBB16_21
.LBB16_20:                              
	mov	dword ptr [rbp - 80], 724011292
.LBB16_21:                              
	jmp	.LBB16_1
.Lfunc_end16:
	.size	_ZN8CryptoPP22ConditionalByteReverseIjEEvNS_9ByteOrderEPT_PKS2_m, .Lfunc_end16-_ZN8CryptoPP22ConditionalByteReverseIjEEvNS_9ByteOrderEPT_PKS2_m
	.cfi_endproc

	.section	.text._ZN8CryptoPP22ConditionalByteReverseIjEET_NS_9ByteOrderES1_,"axG",@progbits,_ZN8CryptoPP22ConditionalByteReverseIjEET_NS_9ByteOrderES1_,comdat
	.weak	_ZN8CryptoPP22ConditionalByteReverseIjEET_NS_9ByteOrderES1_ 
	.p2align	4, 0x90
	.type	_ZN8CryptoPP22ConditionalByteReverseIjEET_NS_9ByteOrderES1_,@function
_ZN8CryptoPP22ConditionalByteReverseIjEET_NS_9ByteOrderES1_: 
	.cfi_startproc

	push	rbp
.Lcfi52:
	.cfi_def_cfa_offset 16
.Lcfi53:
	.cfi_offset rbp, -16
	mov	rbp, rsp
.Lcfi54:
	.cfi_def_cfa_register rbp
	sub	rsp, 48
	mov	dword ptr [rbp - 8], edi
	mov	dword ptr [rbp - 12], esi
	mov	esi, dword ptr [rbp - 8]
	mov	dword ptr [rbp - 4], esi
	mov	dword ptr [rbp - 16], -145463101
.LBB17_1:                               
	mov	eax, dword ptr [rbp - 16]
	mov	ecx, eax
	sub	ecx, -1386561903
	mov	dword ptr [rbp - 24], eax 
	mov	dword ptr [rbp - 28], ecx 
	je	.LBB17_4
	jmp	.LBB17_8
.LBB17_8:                               
	mov	eax, dword ptr [rbp - 24] 
	sub	eax, -145463101
	mov	dword ptr [rbp - 32], eax 
	je	.LBB17_3
	jmp	.LBB17_9
.LBB17_9:                               
	mov	eax, dword ptr [rbp - 24] 
	sub	eax, 441110856
	mov	dword ptr [rbp - 36], eax 
	je	.LBB17_5
	jmp	.LBB17_10
.LBB17_10:                              
	mov	eax, dword ptr [rbp - 24] 
	sub	eax, 667533943
	mov	dword ptr [rbp - 40], eax 
	je	.LBB17_6
	jmp	.LBB17_2
.LBB17_2:                               
	jmp	.LBB17_7
.LBB17_3:                               
	mov	edi, dword ptr [rbp - 4]
	call	_ZN8CryptoPP17NativeByteOrderIsENS_9ByteOrderE
	mov	edi, 441110856
	mov	ecx, 2908405393
	test	al, 1
	cmovne	edi, ecx
	mov	dword ptr [rbp - 16], edi
	jmp	.LBB17_7
.LBB17_4:                               
	mov	eax, dword ptr [rbp - 12]
	mov	dword ptr [rbp - 16], 667533943
	mov	dword ptr [rbp - 20], eax
	jmp	.LBB17_7
.LBB17_5:                               
	mov	edi, dword ptr [rbp - 12]
	call	_ZN8CryptoPP11ByteReverseEj
	mov	dword ptr [rbp - 16], 667533943
	mov	dword ptr [rbp - 20], eax
	jmp	.LBB17_7
.LBB17_6:
	mov	eax, dword ptr [rbp - 20]
	add	rsp, 48
	pop	rbp
	ret
.LBB17_7:                               
	jmp	.LBB17_1
.Lfunc_end17:
	.size	_ZN8CryptoPP22ConditionalByteReverseIjEET_NS_9ByteOrderES1_, .Lfunc_end17-_ZN8CryptoPP22ConditionalByteReverseIjEET_NS_9ByteOrderES1_
	.cfi_endproc

	.text
	.globl	_ZNK8CryptoPP8Rijndael3Enc18ProcessAndXorBlockEPKhS3_Ph 
	.p2align	4, 0x90
	.type	_ZNK8CryptoPP8Rijndael3Enc18ProcessAndXorBlockEPKhS3_Ph,@function
_ZNK8CryptoPP8Rijndael3Enc18ProcessAndXorBlockEPKhS3_Ph: 
	.cfi_startproc

	push	rbp
.Lcfi55:
	.cfi_def_cfa_offset 16
.Lcfi56:
	.cfi_offset rbp, -16
	mov	rbp, rsp
.Lcfi57:
	.cfi_def_cfa_register rbp
	push	r15
	push	r14
	push	r13
	push	r12
	push	rbx
	sub	rsp, 296
.Lcfi58:
	.cfi_offset rbx, -56
.Lcfi59:
	.cfi_offset r12, -48
.Lcfi60:
	.cfi_offset r13, -40
.Lcfi61:
	.cfi_offset r14, -32
.Lcfi62:
	.cfi_offset r15, -24
	mov	qword ptr [rbp - 64], rdi
	mov	qword ptr [rbp - 72], rsi
	mov	qword ptr [rbp - 80], rdx
	mov	qword ptr [rbp - 88], rcx
	mov	rcx, qword ptr [rbp - 64]
	mov	qword ptr [rbp - 56], rcx
	mov	dword ptr [rbp - 204], 57217867
.LBB18_1:                               
	mov	eax, dword ptr [rbp - 204]
	mov	ecx, eax
	sub	ecx, -2099869775
	mov	dword ptr [rbp - 208], eax 
	mov	dword ptr [rbp - 212], ecx 
	je	.LBB18_9
	jmp	.LBB18_24
.LBB18_24:                              
	mov	eax, dword ptr [rbp - 208] 
	sub	eax, -1960798972
	mov	dword ptr [rbp - 216], eax 
	je	.LBB18_7
	jmp	.LBB18_25
.LBB18_25:                              
	mov	eax, dword ptr [rbp - 208] 
	sub	eax, -1709435634
	mov	dword ptr [rbp - 220], eax 
	je	.LBB18_6
	jmp	.LBB18_26
.LBB18_26:                              
	mov	eax, dword ptr [rbp - 208] 
	sub	eax, -1545982610
	mov	dword ptr [rbp - 224], eax 
	je	.LBB18_11
	jmp	.LBB18_27
.LBB18_27:                              
	mov	eax, dword ptr [rbp - 208] 
	sub	eax, -1493292484
	mov	dword ptr [rbp - 228], eax 
	je	.LBB18_16
	jmp	.LBB18_28
.LBB18_28:                              
	mov	eax, dword ptr [rbp - 208] 
	sub	eax, -1265827021
	mov	dword ptr [rbp - 232], eax 
	je	.LBB18_15
	jmp	.LBB18_29
.LBB18_29:                              
	mov	eax, dword ptr [rbp - 208] 
	sub	eax, -1070225223
	mov	dword ptr [rbp - 236], eax 
	je	.LBB18_10
	jmp	.LBB18_30
.LBB18_30:                              
	mov	eax, dword ptr [rbp - 208] 
	sub	eax, -946744597
	mov	dword ptr [rbp - 240], eax 
	je	.LBB18_8
	jmp	.LBB18_31
.LBB18_31:                              
	mov	eax, dword ptr [rbp - 208] 
	sub	eax, -723014043
	mov	dword ptr [rbp - 244], eax 
	je	.LBB18_14
	jmp	.LBB18_32
.LBB18_32:                              
	mov	eax, dword ptr [rbp - 208] 
	sub	eax, -616419611
	mov	dword ptr [rbp - 248], eax 
	je	.LBB18_17
	jmp	.LBB18_33
.LBB18_33:                              
	mov	eax, dword ptr [rbp - 208] 
	sub	eax, -462926020
	mov	dword ptr [rbp - 252], eax 
	je	.LBB18_13
	jmp	.LBB18_34
.LBB18_34:                              
	mov	eax, dword ptr [rbp - 208] 
	sub	eax, -404595395
	mov	dword ptr [rbp - 256], eax 
	je	.LBB18_19
	jmp	.LBB18_35
.LBB18_35:                              
	mov	eax, dword ptr [rbp - 208] 
	sub	eax, 57217867
	mov	dword ptr [rbp - 260], eax 
	je	.LBB18_3
	jmp	.LBB18_36
.LBB18_36:                              
	mov	eax, dword ptr [rbp - 208] 
	sub	eax, 241409143
	mov	dword ptr [rbp - 264], eax 
	je	.LBB18_21
	jmp	.LBB18_37
.LBB18_37:                              
	mov	eax, dword ptr [rbp - 208] 
	sub	eax, 552291478
	mov	dword ptr [rbp - 268], eax 
	je	.LBB18_20
	jmp	.LBB18_38
.LBB18_38:                              
	mov	eax, dword ptr [rbp - 208] 
	sub	eax, 602951354
	mov	dword ptr [rbp - 272], eax 
	je	.LBB18_22
	jmp	.LBB18_39
.LBB18_39:                              
	mov	eax, dword ptr [rbp - 208] 
	sub	eax, 834611091
	mov	dword ptr [rbp - 276], eax 
	je	.LBB18_5
	jmp	.LBB18_40
.LBB18_40:                              
	mov	eax, dword ptr [rbp - 208] 
	sub	eax, 918891603
	mov	dword ptr [rbp - 280], eax 
	je	.LBB18_12
	jmp	.LBB18_41
.LBB18_41:                              
	mov	eax, dword ptr [rbp - 208] 
	sub	eax, 987241727
	mov	dword ptr [rbp - 284], eax 
	je	.LBB18_18
	jmp	.LBB18_42
.LBB18_42:                              
	mov	eax, dword ptr [rbp - 208] 
	sub	eax, 1259528211
	mov	dword ptr [rbp - 288], eax 
	je	.LBB18_4
	jmp	.LBB18_2
.LBB18_2:                               
	jmp	.LBB18_23
.LBB18_3:                               
	call	_ZN8CryptoPP8HasAESNIEv
	mov	ecx, 834611091
	mov	edx, 1259528211
	test	al, 1
	cmovne	ecx, edx
	mov	dword ptr [rbp - 204], ecx
	jmp	.LBB18_23
.LBB18_4:                               
	mov	eax, 16
	mov	r8d, eax
	xor	r9d, r9d
	mov	rsi, qword ptr [rbp - 72]
	mov	rdx, qword ptr [rbp - 80]
	mov	rcx, qword ptr [rbp - 88]
	mov	rdi, qword ptr [rbp - 56]
	call	_ZNK8CryptoPP8Rijndael3Enc21AdvancedProcessBlocksEPKhS3_Phmj
	mov	dword ptr [rbp - 204], -404595395
	mov	qword ptr [rbp - 296], rax 
	jmp	.LBB18_23
.LBB18_5:                               
	mov	eax, 552291478
	mov	ecx, 2585531662
	mov	edx, dword ptr [x.40]
	mov	esi, dword ptr [y.41]
	mov	edi, edx
	sub	edi, -1990705856
	sub	edi, 1
	add	edi, -1990705856
	imul	edx, edi
	and	edx, 1
	cmp	edx, 0
	sete	r8b
	cmp	esi, 10
	setl	r9b
	mov	r10b, r8b
	and	r10b, r9b
	xor	r8b, r9b
	or	r10b, r8b
	test	r10b, 1
	cmovne	eax, ecx
	mov	dword ptr [rbp - 204], eax
	jmp	.LBB18_23
.LBB18_6:                               
	mov	rdi, qword ptr [rbp - 72]
	call	_ZN8CryptoPP14BlockGetAndPutIjNS_10EnumToTypeINS_9ByteOrderELi0EEELb0ELb0EE3GetEPKv
	lea	rdi, [rbp - 128]
	lea	rsi, [rbp - 92]
	mov	qword ptr [rbp - 128], rax
	call	_ZN8CryptoPP8GetBlockIjNS_10EnumToTypeINS_9ByteOrderELi0EEELb0EEclIjEERS4_RT_
	lea	rsi, [rbp - 96]
	mov	rdi, rax
	call	_ZN8CryptoPP8GetBlockIjNS_10EnumToTypeINS_9ByteOrderELi0EEELb0EEclIjEERS4_RT_
	lea	rsi, [rbp - 100]
	mov	rdi, rax
	call	_ZN8CryptoPP8GetBlockIjNS_10EnumToTypeINS_9ByteOrderELi0EEELb0EEclIjEERS4_RT_
	lea	rsi, [rbp - 104]
	mov	rdi, rax
	call	_ZN8CryptoPP8GetBlockIjNS_10EnumToTypeINS_9ByteOrderELi0EEELb0EEclIjEERS4_RT_
	mov	rsi, qword ptr [rbp - 56]
	add	rsi, 24
	mov	rdi, rsi
	mov	qword ptr [rbp - 304], rax 
	call	_ZNK8CryptoPP8SecBlockIjNS_20AllocatorWithCleanupIjLb1EEEEcvPKjEv
	mov	ecx, 4294967295
	mov	qword ptr [rbp - 136], rax
	mov	rax, qword ptr [rbp - 136]
	mov	edx, dword ptr [rax]
	mov	r8d, dword ptr [rbp - 92]
	mov	r9d, r8d
	xor	r9d, -1
	and	r9d, 422536529
	mov	r10d, ecx
	xor	r10d, 422536529
	and	r8d, r10d
	mov	r11d, edx
	xor	r11d, -1
	and	r11d, 422536529
	and	edx, r10d
	or	r9d, r8d
	or	r11d, edx
	xor	r9d, r11d
	mov	dword ptr [rbp - 92], r9d
	mov	rax, qword ptr [rbp - 136]
	mov	edx, dword ptr [rax + 4]
	mov	r8d, dword ptr [rbp - 96]
	mov	r9d, r8d
	xor	r9d, -1
	and	r9d, 1419302454
	xor	ecx, 1419302454
	and	r8d, ecx
	mov	r10d, edx
	xor	r10d, -1
	and	r10d, 1419302454
	and	edx, ecx
	or	r9d, r8d
	or	r10d, edx
	xor	r9d, r10d
	mov	dword ptr [rbp - 96], r9d
	mov	rax, qword ptr [rbp - 136]
	mov	ecx, dword ptr [rax + 8]
	mov	edx, dword ptr [rbp - 100]
	mov	r8d, edx
	xor	r8d, -1
	mov	r9d, ecx
	and	r9d, r8d
	xor	ecx, -1
	and	edx, ecx
	or	r9d, edx
	mov	dword ptr [rbp - 100], r9d
	mov	rax, qword ptr [rbp - 136]
	mov	ecx, dword ptr [rax + 12]
	mov	edx, dword ptr [rbp - 104]
	mov	r8d, edx
	xor	r8d, -1
	mov	r9d, ecx
	and	r9d, r8d
	xor	ecx, -1
	and	edx, ecx
	or	r9d, edx
	mov	dword ptr [rbp - 104], r9d
	mov	rax, qword ptr [rbp - 136]
	mov	ecx, dword ptr [rax + 16]
	mov	dword ptr [rbp - 108], ecx
	mov	rax, qword ptr [rbp - 136]
	mov	ecx, dword ptr [rax + 20]
	mov	dword ptr [rbp - 112], ecx
	mov	rax, qword ptr [rbp - 136]
	mov	ecx, dword ptr [rax + 24]
	mov	dword ptr [rbp - 116], ecx
	mov	rax, qword ptr [rbp - 136]
	mov	ecx, dword ptr [rax + 28]
	mov	dword ptr [rbp - 120], ecx
	mov	rax, qword ptr [rbp - 136]
	add	rax, 32
	mov	qword ptr [rbp - 136], rax
	call	_ZN8CryptoPP16GetCacheLineSizeEv
	mov	ecx, 552291478
	mov	edx, 2334168324
	xor	r8d, r8d
	mov	dword ptr [rbp - 140], eax
	mov	dword ptr [rbp - 148], 0
	mov	eax, dword ptr [rbp - 148]
	mov	dword ptr [rbp - 152], eax
	mov	dword ptr [rbp - 144], 0
	mov	eax, dword ptr [x.40]
	mov	r9d, dword ptr [y.41]
	sub	r8d, 1
	mov	r10d, eax
	add	r10d, r8d
	imul	eax, r10d
	and	eax, 1
	cmp	eax, 0
	sete	bl
	cmp	r9d, 10
	setl	r14b
	mov	r15b, bl
	and	r15b, r14b
	xor	bl, r14b
	or	r15b, bl
	test	r15b, 1
	cmovne	ecx, edx
	mov	dword ptr [rbp - 204], ecx
	jmp	.LBB18_23
.LBB18_7:                               
	mov	dword ptr [rbp - 204], -946744597
	jmp	.LBB18_23
.LBB18_8:                               
	mov	eax, 2748984686
	mov	ecx, 2195097521
	cmp	dword ptr [rbp - 144], 2048
	cmovb	eax, ecx
	mov	dword ptr [rbp - 204], eax
	jmp	.LBB18_23
.LBB18_9:                               
	mov	eax, dword ptr [rbp - 144]
	mov	ecx, eax
	mov	eax, dword ptr [rcx + _ZN8CryptoPPL2TeE]
	mov	edx, dword ptr [rbp - 152]
	xor	eax, -1
	mov	esi, edx
	xor	esi, eax
	and	esi, edx
	mov	dword ptr [rbp - 152], esi
	mov	dword ptr [rbp - 204], -1070225223
	jmp	.LBB18_23
.LBB18_10:                              
	xor	eax, eax
	mov	ecx, dword ptr [rbp - 140]
	mov	edx, dword ptr [rbp - 144]
	mov	esi, eax
	sub	esi, edx
	mov	edx, eax
	sub	edx, ecx
	add	esi, edx
	sub	eax, esi
	mov	dword ptr [rbp - 144], eax
	mov	dword ptr [rbp - 204], -946744597
	jmp	.LBB18_23
.LBB18_11:                              
	xor	eax, eax
	mov	ecx, 4294967295
	movabs	rdx, -9199857963635592001
	mov	rsi, -1
	mov	rdi, qword ptr [_ZN8CryptoPPL2TeE+2040]
	mov	r8d, dword ptr [rbp - 152]
	mov	r9d, r8d
	xor	r9, -1
	xor	rdi, -1
	xor	rsi, rdx
	or	r9, rdi
	or	rsi, rdx
	xor	r9, -1
	and	r9, rsi
	mov	r8d, r9d
	mov	dword ptr [rbp - 152], r8d
	mov	r8d, dword ptr [rbp - 152]
	mov	r10d, dword ptr [rbp - 92]
	mov	r11d, r10d
	and	r11d, r8d
	xor	r10d, r8d
	or	r11d, r10d
	mov	dword ptr [rbp - 92], r11d
	mov	r8d, dword ptr [rbp - 152]
	mov	r10d, dword ptr [rbp - 96]
	mov	r11d, r10d
	xor	r11d, -1
	mov	ebx, r8d
	xor	ebx, -1
	mov	r14d, ecx
	xor	r14d, 4170612487
	mov	r15d, r11d
	and	r15d, -124354809
	and	r10d, r14d
	mov	r12d, ebx
	and	r12d, -124354809
	and	r8d, r14d
	or	r15d, r10d
	or	r12d, r8d
	xor	r15d, r12d
	or	r11d, ebx
	xor	r11d, -1
	or	r14d, 4170612487
	and	r11d, r14d
	or	r15d, r11d
	mov	dword ptr [rbp - 96], r15d
	mov	r8d, dword ptr [rbp - 152]
	mov	r10d, dword ptr [rbp - 100]
	mov	r11d, r10d
	xor	r11d, -1
	mov	ebx, r8d
	xor	ebx, -1
	mov	r14d, ecx
	xor	r14d, 3769519170
	mov	r15d, r11d
	and	r15d, -525448126
	and	r10d, r14d
	mov	r12d, ebx
	and	r12d, -525448126
	and	r8d, r14d
	or	r15d, r10d
	or	r12d, r8d
	xor	r15d, r12d
	or	r11d, ebx
	xor	r11d, -1
	or	r14d, 3769519170
	and	r11d, r14d
	or	r15d, r11d
	mov	dword ptr [rbp - 100], r15d
	mov	r8d, dword ptr [rbp - 152]
	mov	r10d, dword ptr [rbp - 104]
	mov	r11d, r10d
	and	r11d, r8d
	xor	r10d, r8d
	or	r11d, r10d
	mov	dword ptr [rbp - 104], r11d
	mov	r8d, dword ptr [rbp - 104]
	mov	r13b, r8b
	movzx	r8d, r13b
	shl	r8d, 3
	movsxd	rdx, r8d
	mov	r8d, dword ptr [rdx + _ZN8CryptoPPL2TeE+4]
	mov	r10d, dword ptr [rbp - 120]
	mov	r11d, r10d
	xor	r11d, -1
	and	r11d, 2039735534
	mov	ebx, ecx
	xor	ebx, 2039735534
	and	r10d, ebx
	mov	r14d, r8d
	xor	r14d, -1
	and	r14d, 2039735534
	and	r8d, ebx
	or	r11d, r10d
	or	r14d, r8d
	xor	r11d, r14d
	mov	dword ptr [rbp - 120], r11d
	mov	r8d, dword ptr [rbp - 104]
	shr	r8d, 8
	mov	dword ptr [rbp - 104], r8d
	mov	r8d, dword ptr [rbp - 104]
	mov	r13b, r8b
	movzx	r8d, r13b
	shl	r8d, 3
	movsxd	rdx, r8d
	mov	r8d, dword ptr [rdx + _ZN8CryptoPPL2TeE+1]
	mov	r10d, dword ptr [rbp - 116]
	mov	r11d, r10d
	xor	r11d, -1
	mov	ebx, r8d
	and	ebx, r11d
	xor	r8d, -1
	and	r10d, r8d
	or	ebx, r10d
	mov	dword ptr [rbp - 116], ebx
	mov	r8d, dword ptr [rbp - 104]
	shr	r8d, 8
	mov	dword ptr [rbp - 104], r8d
	mov	r8d, dword ptr [rbp - 104]
	mov	r13b, r8b
	movzx	r8d, r13b
	shl	r8d, 3
	movsxd	rdx, r8d
	mov	r8d, dword ptr [rdx + _ZN8CryptoPPL2TeE+2]
	mov	r10d, dword ptr [rbp - 112]
	mov	r11d, r10d
	xor	r11d, -1
	mov	ebx, r8d
	and	ebx, r11d
	xor	r8d, -1
	and	r10d, r8d
	or	ebx, r10d
	mov	dword ptr [rbp - 112], ebx
	mov	r8d, dword ptr [rbp - 104]
	shr	r8d, 8
	mov	dword ptr [rbp - 104], r8d
	mov	r8d, dword ptr [rbp - 104]
	shl	r8d, 3
	mov	r8d, r8d
	mov	edx, r8d
	mov	r8d, dword ptr [rdx + _ZN8CryptoPPL2TeE+3]
	mov	r10d, dword ptr [rbp - 108]
	mov	r11d, r10d
	xor	r11d, -1
	and	r11d, 1839743637
	mov	ebx, ecx
	xor	ebx, 1839743637
	and	r10d, ebx
	mov	r14d, r8d
	xor	r14d, -1
	and	r14d, 1839743637
	and	r8d, ebx
	or	r11d, r10d
	or	r14d, r8d
	xor	r11d, r14d
	mov	dword ptr [rbp - 108], r11d
	mov	r8d, dword ptr [rbp - 100]
	mov	r13b, r8b
	movzx	r8d, r13b
	shl	r8d, 3
	movsxd	rdx, r8d
	mov	r8d, dword ptr [rdx + _ZN8CryptoPPL2TeE+4]
	mov	r10d, dword ptr [rbp - 116]
	mov	r11d, r10d
	xor	r11d, -1
	and	r11d, 3670559156
	mov	ebx, ecx
	xor	ebx, 3670559156
	and	r10d, ebx
	mov	r14d, r8d
	xor	r14d, -1
	and	r14d, -624408140
	and	r8d, ebx
	or	r11d, r10d
	or	r14d, r8d
	xor	r11d, r14d
	mov	dword ptr [rbp - 116], r11d
	mov	r8d, dword ptr [rbp - 100]
	shr	r8d, 8
	mov	dword ptr [rbp - 100], r8d
	mov	r8d, dword ptr [rbp - 100]
	mov	r13b, r8b
	movzx	r8d, r13b
	shl	r8d, 3
	movsxd	rdx, r8d
	mov	r8d, dword ptr [rdx + _ZN8CryptoPPL2TeE+1]
	mov	r10d, dword ptr [rbp - 112]
	mov	r11d, r10d
	xor	r11d, -1
	and	r11d, 1072763553
	mov	ebx, ecx
	xor	ebx, 1072763553
	and	r10d, ebx
	mov	r14d, r8d
	xor	r14d, -1
	and	r14d, 1072763553
	and	r8d, ebx
	or	r11d, r10d
	or	r14d, r8d
	xor	r11d, r14d
	mov	dword ptr [rbp - 112], r11d
	mov	r8d, dword ptr [rbp - 100]
	shr	r8d, 8
	mov	dword ptr [rbp - 100], r8d
	mov	r8d, dword ptr [rbp - 100]
	mov	r13b, r8b
	movzx	r8d, r13b
	shl	r8d, 3
	movsxd	rdx, r8d
	mov	r8d, dword ptr [rdx + _ZN8CryptoPPL2TeE+2]
	mov	r10d, dword ptr [rbp - 108]
	mov	r11d, r10d
	xor	r11d, -1
	mov	ebx, r8d
	and	ebx, r11d
	xor	r8d, -1
	and	r10d, r8d
	or	ebx, r10d
	mov	dword ptr [rbp - 108], ebx
	mov	r8d, dword ptr [rbp - 100]
	shr	r8d, 8
	mov	dword ptr [rbp - 100], r8d
	mov	r8d, dword ptr [rbp - 100]
	shl	r8d, 3
	mov	r8d, r8d
	mov	edx, r8d
	mov	r8d, dword ptr [rdx + _ZN8CryptoPPL2TeE+3]
	mov	r10d, dword ptr [rbp - 120]
	mov	r11d, r10d
	xor	r11d, -1
	mov	ebx, r8d
	and	ebx, r11d
	xor	r8d, -1
	and	r10d, r8d
	or	ebx, r10d
	mov	dword ptr [rbp - 120], ebx
	mov	r8d, dword ptr [rbp - 96]
	mov	r13b, r8b
	movzx	r8d, r13b
	shl	r8d, 3
	movsxd	rdx, r8d
	mov	r8d, dword ptr [rdx + _ZN8CryptoPPL2TeE+4]
	mov	r10d, dword ptr [rbp - 112]
	mov	r11d, r10d
	xor	r11d, -1
	and	r11d, 1057582076
	mov	ebx, ecx
	xor	ebx, 1057582076
	and	r10d, ebx
	mov	r14d, r8d
	xor	r14d, -1
	and	r14d, 1057582076
	and	r8d, ebx
	or	r11d, r10d
	or	r14d, r8d
	xor	r11d, r14d
	mov	dword ptr [rbp - 112], r11d
	mov	r8d, dword ptr [rbp - 96]
	shr	r8d, 8
	mov	dword ptr [rbp - 96], r8d
	mov	r8d, dword ptr [rbp - 96]
	mov	r13b, r8b
	movzx	r8d, r13b
	shl	r8d, 3
	movsxd	rdx, r8d
	mov	r8d, dword ptr [rdx + _ZN8CryptoPPL2TeE+1]
	mov	r10d, dword ptr [rbp - 108]
	mov	r11d, r10d
	xor	r11d, -1
	and	r11d, 3333443639
	mov	ebx, ecx
	xor	ebx, 3333443639
	and	r10d, ebx
	mov	r14d, r8d
	xor	r14d, -1
	and	r14d, -961523657
	and	r8d, ebx
	or	r11d, r10d
	or	r14d, r8d
	xor	r11d, r14d
	mov	dword ptr [rbp - 108], r11d
	mov	r8d, dword ptr [rbp - 96]
	shr	r8d, 8
	mov	dword ptr [rbp - 96], r8d
	mov	r8d, dword ptr [rbp - 96]
	mov	r13b, r8b
	movzx	r8d, r13b
	shl	r8d, 3
	movsxd	rdx, r8d
	mov	r8d, dword ptr [rdx + _ZN8CryptoPPL2TeE+2]
	mov	r10d, dword ptr [rbp - 120]
	mov	r11d, r10d
	xor	r11d, -1
	and	r11d, 1752199943
	mov	ebx, ecx
	xor	ebx, 1752199943
	and	r10d, ebx
	mov	r14d, r8d
	xor	r14d, -1
	and	r14d, 1752199943
	and	r8d, ebx
	or	r11d, r10d
	or	r14d, r8d
	xor	r11d, r14d
	mov	dword ptr [rbp - 120], r11d
	mov	r8d, dword ptr [rbp - 96]
	shr	r8d, 8
	mov	dword ptr [rbp - 96], r8d
	mov	r8d, dword ptr [rbp - 96]
	shl	r8d, 3
	mov	r8d, r8d
	mov	edx, r8d
	mov	r8d, dword ptr [rdx + _ZN8CryptoPPL2TeE+3]
	mov	r10d, dword ptr [rbp - 116]
	mov	r11d, r10d
	xor	r11d, -1
	mov	ebx, r8d
	and	ebx, r11d
	xor	r8d, -1
	and	r10d, r8d
	or	ebx, r10d
	mov	dword ptr [rbp - 116], ebx
	mov	r8d, dword ptr [rbp - 92]
	mov	r13b, r8b
	movzx	r8d, r13b
	shl	r8d, 3
	movsxd	rdx, r8d
	mov	r8d, dword ptr [rdx + _ZN8CryptoPPL2TeE+4]
	mov	r10d, dword ptr [rbp - 108]
	mov	r11d, r10d
	xor	r11d, -1
	mov	ebx, r8d
	and	ebx, r11d
	xor	r8d, -1
	and	r10d, r8d
	or	ebx, r10d
	mov	dword ptr [rbp - 108], ebx
	mov	r8d, dword ptr [rbp - 92]
	shr	r8d, 8
	mov	dword ptr [rbp - 92], r8d
	mov	r8d, dword ptr [rbp - 92]
	mov	r13b, r8b
	movzx	r8d, r13b
	shl	r8d, 3
	movsxd	rdx, r8d
	mov	r8d, dword ptr [rdx + _ZN8CryptoPPL2TeE+1]
	mov	r10d, dword ptr [rbp - 120]
	mov	r11d, r10d
	xor	r11d, -1
	and	r11d, 1742365434
	mov	ebx, ecx
	xor	ebx, 1742365434
	and	r10d, ebx
	mov	r14d, r8d
	xor	r14d, -1
	and	r14d, 1742365434
	and	r8d, ebx
	or	r11d, r10d
	or	r14d, r8d
	xor	r11d, r14d
	mov	dword ptr [rbp - 120], r11d
	mov	r8d, dword ptr [rbp - 92]
	shr	r8d, 8
	mov	dword ptr [rbp - 92], r8d
	mov	r8d, dword ptr [rbp - 92]
	mov	r13b, r8b
	movzx	r8d, r13b
	shl	r8d, 3
	movsxd	rdx, r8d
	mov	r8d, dword ptr [rdx + _ZN8CryptoPPL2TeE+2]
	mov	r10d, dword ptr [rbp - 116]
	mov	r11d, r10d
	xor	r11d, -1
	and	r11d, 1613808179
	mov	ebx, ecx
	xor	ebx, 1613808179
	and	r10d, ebx
	mov	r14d, r8d
	xor	r14d, -1
	and	r14d, 1613808179
	and	r8d, ebx
	or	r11d, r10d
	or	r14d, r8d
	xor	r11d, r14d
	mov	dword ptr [rbp - 116], r11d
	mov	r8d, dword ptr [rbp - 92]
	shr	r8d, 8
	mov	dword ptr [rbp - 92], r8d
	mov	r8d, dword ptr [rbp - 92]
	shl	r8d, 3
	mov	r8d, r8d
	mov	edx, r8d
	mov	r8d, dword ptr [rdx + _ZN8CryptoPPL2TeE+3]
	mov	r10d, dword ptr [rbp - 112]
	mov	r11d, r10d
	xor	r11d, -1
	and	r11d, 578262300
	xor	ecx, 578262300
	and	r10d, ecx
	mov	ebx, r8d
	xor	ebx, -1
	and	ebx, 578262300
	and	r8d, ecx
	or	r11d, r10d
	or	ebx, r8d
	xor	r11d, ebx
	mov	dword ptr [rbp - 112], r11d
	mov	rdx, qword ptr [rbp - 56]
	mov	ecx, dword ptr [rdx + 16]
	shr	ecx, 1
	sub	eax, 1
	add	ecx, eax
	mov	dword ptr [rbp - 156], ecx
	mov	dword ptr [rbp - 204], 918891603
	jmp	.LBB18_23
.LBB18_12:                              
	mov	eax, 4294967295
	mov	rcx, qword ptr [rbp - 136]
	mov	edx, dword ptr [rcx]
	mov	dword ptr [rbp - 92], edx
	mov	rcx, qword ptr [rbp - 136]
	mov	edx, dword ptr [rcx + 4]
	mov	dword ptr [rbp - 96], edx
	mov	rcx, qword ptr [rbp - 136]
	mov	edx, dword ptr [rcx + 8]
	mov	dword ptr [rbp - 100], edx
	mov	rcx, qword ptr [rbp - 136]
	mov	edx, dword ptr [rcx + 12]
	mov	dword ptr [rbp - 104], edx
	mov	edx, dword ptr [rbp - 120]
	mov	sil, dl
	movzx	edx, sil
	shl	edx, 3
	movsxd	rcx, edx
	mov	edx, dword ptr [rcx + _ZN8CryptoPPL2TeE+3]
	mov	edi, dword ptr [rbp - 92]
	mov	r8d, edi
	xor	r8d, -1
	mov	r9d, edx
	and	r9d, r8d
	xor	edx, -1
	and	edi, edx
	or	r9d, edi
	mov	dword ptr [rbp - 92], r9d
	mov	edx, dword ptr [rbp - 120]
	shr	edx, 8
	mov	dword ptr [rbp - 120], edx
	mov	edx, dword ptr [rbp - 120]
	mov	sil, dl
	movzx	edx, sil
	shl	edx, 3
	movsxd	rcx, edx
	mov	edx, dword ptr [rcx + _ZN8CryptoPPL2TeE+2]
	mov	edi, dword ptr [rbp - 96]
	mov	r8d, edi
	xor	r8d, -1
	mov	r9d, edx
	and	r9d, r8d
	xor	edx, -1
	and	edi, edx
	or	r9d, edi
	mov	dword ptr [rbp - 96], r9d
	mov	edx, dword ptr [rbp - 120]
	shr	edx, 8
	mov	dword ptr [rbp - 120], edx
	mov	edx, dword ptr [rbp - 120]
	mov	sil, dl
	movzx	edx, sil
	shl	edx, 3
	movsxd	rcx, edx
	mov	edx, dword ptr [rcx + _ZN8CryptoPPL2TeE+1]
	mov	edi, dword ptr [rbp - 100]
	mov	r8d, edi
	xor	r8d, -1
	mov	r9d, edx
	and	r9d, r8d
	xor	edx, -1
	and	edi, edx
	or	r9d, edi
	mov	dword ptr [rbp - 100], r9d
	mov	edx, dword ptr [rbp - 120]
	shr	edx, 8
	mov	dword ptr [rbp - 120], edx
	mov	edx, dword ptr [rbp - 120]
	shl	edx, 3
	mov	edx, edx
	mov	ecx, edx
	mov	edx, dword ptr [rcx + _ZN8CryptoPPL2TeE+4]
	mov	edi, dword ptr [rbp - 104]
	mov	r8d, edi
	xor	r8d, -1
	and	r8d, 2742063455
	mov	r9d, eax
	xor	r9d, 2742063455
	and	edi, r9d
	mov	r10d, edx
	xor	r10d, -1
	and	r10d, -1552903841
	and	edx, r9d
	or	r8d, edi
	or	r10d, edx
	xor	r8d, r10d
	mov	dword ptr [rbp - 104], r8d
	mov	edx, dword ptr [rbp - 116]
	mov	sil, dl
	movzx	edx, sil
	shl	edx, 3
	movsxd	rcx, edx
	mov	edx, dword ptr [rcx + _ZN8CryptoPPL2TeE+3]
	mov	edi, dword ptr [rbp - 104]
	mov	r8d, edi
	xor	r8d, -1
	mov	r9d, edx
	and	r9d, r8d
	xor	edx, -1
	and	edi, edx
	or	r9d, edi
	mov	dword ptr [rbp - 104], r9d
	mov	edx, dword ptr [rbp - 116]
	shr	edx, 8
	mov	dword ptr [rbp - 116], edx
	mov	edx, dword ptr [rbp - 116]
	mov	sil, dl
	movzx	edx, sil
	shl	edx, 3
	movsxd	rcx, edx
	mov	edx, dword ptr [rcx + _ZN8CryptoPPL2TeE+2]
	mov	edi, dword ptr [rbp - 92]
	mov	r8d, edi
	xor	r8d, -1
	and	r8d, 1973686200
	mov	r9d, eax
	xor	r9d, 1973686200
	and	edi, r9d
	mov	r10d, edx
	xor	r10d, -1
	and	r10d, 1973686200
	and	edx, r9d
	or	r8d, edi
	or	r10d, edx
	xor	r8d, r10d
	mov	dword ptr [rbp - 92], r8d
	mov	edx, dword ptr [rbp - 116]
	shr	edx, 8
	mov	dword ptr [rbp - 116], edx
	mov	edx, dword ptr [rbp - 116]
	mov	sil, dl
	movzx	edx, sil
	shl	edx, 3
	movsxd	rcx, edx
	mov	edx, dword ptr [rcx + _ZN8CryptoPPL2TeE+1]
	mov	edi, dword ptr [rbp - 96]
	mov	r8d, edi
	xor	r8d, -1
	mov	r9d, edx
	and	r9d, r8d
	xor	edx, -1
	and	edi, edx
	or	r9d, edi
	mov	dword ptr [rbp - 96], r9d
	mov	edx, dword ptr [rbp - 116]
	shr	edx, 8
	mov	dword ptr [rbp - 116], edx
	mov	edx, dword ptr [rbp - 116]
	shl	edx, 3
	mov	edx, edx
	mov	ecx, edx
	mov	edx, dword ptr [rcx + _ZN8CryptoPPL2TeE+4]
	mov	edi, dword ptr [rbp - 100]
	mov	r8d, edi
	xor	r8d, -1
	and	r8d, 3072649927
	mov	r9d, eax
	xor	r9d, 3072649927
	and	edi, r9d
	mov	r10d, edx
	xor	r10d, -1
	and	r10d, -1222317369
	and	edx, r9d
	or	r8d, edi
	or	r10d, edx
	xor	r8d, r10d
	mov	dword ptr [rbp - 100], r8d
	mov	edx, dword ptr [rbp - 112]
	mov	sil, dl
	movzx	edx, sil
	shl	edx, 3
	movsxd	rcx, edx
	mov	edx, dword ptr [rcx + _ZN8CryptoPPL2TeE+3]
	mov	edi, dword ptr [rbp - 100]
	mov	r8d, edi
	xor	r8d, -1
	and	r8d, 3589541697
	mov	r9d, eax
	xor	r9d, 3589541697
	and	edi, r9d
	mov	r10d, edx
	xor	r10d, -1
	and	r10d, -705425599
	and	edx, r9d
	or	r8d, edi
	or	r10d, edx
	xor	r8d, r10d
	mov	dword ptr [rbp - 100], r8d
	mov	edx, dword ptr [rbp - 112]
	shr	edx, 8
	mov	dword ptr [rbp - 112], edx
	mov	edx, dword ptr [rbp - 112]
	mov	sil, dl
	movzx	edx, sil
	shl	edx, 3
	movsxd	rcx, edx
	mov	edx, dword ptr [rcx + _ZN8CryptoPPL2TeE+2]
	mov	edi, dword ptr [rbp - 104]
	mov	r8d, edi
	xor	r8d, -1
	and	r8d, 1327069428
	mov	r9d, eax
	xor	r9d, 1327069428
	and	edi, r9d
	mov	r10d, edx
	xor	r10d, -1
	and	r10d, 1327069428
	and	edx, r9d
	or	r8d, edi
	or	r10d, edx
	xor	r8d, r10d
	mov	dword ptr [rbp - 104], r8d
	mov	edx, dword ptr [rbp - 112]
	shr	edx, 8
	mov	dword ptr [rbp - 112], edx
	mov	edx, dword ptr [rbp - 112]
	mov	sil, dl
	movzx	edx, sil
	shl	edx, 3
	movsxd	rcx, edx
	mov	edx, dword ptr [rcx + _ZN8CryptoPPL2TeE+1]
	mov	edi, dword ptr [rbp - 92]
	mov	r8d, edi
	xor	r8d, -1
	mov	r9d, edx
	and	r9d, r8d
	xor	edx, -1
	and	edi, edx
	or	r9d, edi
	mov	dword ptr [rbp - 92], r9d
	mov	edx, dword ptr [rbp - 112]
	shr	edx, 8
	mov	dword ptr [rbp - 112], edx
	mov	edx, dword ptr [rbp - 112]
	shl	edx, 3
	mov	edx, edx
	mov	ecx, edx
	mov	edx, dword ptr [rcx + _ZN8CryptoPPL2TeE+4]
	mov	edi, dword ptr [rbp - 96]
	mov	r8d, edi
	xor	r8d, -1
	mov	r9d, edx
	and	r9d, r8d
	xor	edx, -1
	and	edi, edx
	or	r9d, edi
	mov	dword ptr [rbp - 96], r9d
	mov	edx, dword ptr [rbp - 108]
	mov	sil, dl
	movzx	edx, sil
	shl	edx, 3
	movsxd	rcx, edx
	mov	edx, dword ptr [rcx + _ZN8CryptoPPL2TeE+3]
	mov	edi, dword ptr [rbp - 96]
	mov	r8d, edi
	xor	r8d, -1
	and	r8d, 212643190
	mov	r9d, eax
	xor	r9d, 212643190
	and	edi, r9d
	mov	r10d, edx
	xor	r10d, -1
	and	r10d, 212643190
	and	edx, r9d
	or	r8d, edi
	or	r10d, edx
	xor	r8d, r10d
	mov	dword ptr [rbp - 96], r8d
	mov	edx, dword ptr [rbp - 108]
	shr	edx, 8
	mov	dword ptr [rbp - 108], edx
	mov	edx, dword ptr [rbp - 108]
	mov	sil, dl
	movzx	edx, sil
	shl	edx, 3
	movsxd	rcx, edx
	mov	edx, dword ptr [rcx + _ZN8CryptoPPL2TeE+2]
	mov	edi, dword ptr [rbp - 100]
	mov	r8d, edi
	xor	r8d, -1
	and	r8d, 1959561399
	mov	r9d, eax
	xor	r9d, 1959561399
	and	edi, r9d
	mov	r10d, edx
	xor	r10d, -1
	and	r10d, 1959561399
	and	edx, r9d
	or	r8d, edi
	or	r10d, edx
	xor	r8d, r10d
	mov	dword ptr [rbp - 100], r8d
	mov	edx, dword ptr [rbp - 108]
	shr	edx, 8
	mov	dword ptr [rbp - 108], edx
	mov	edx, dword ptr [rbp - 108]
	mov	sil, dl
	movzx	edx, sil
	shl	edx, 3
	movsxd	rcx, edx
	mov	edx, dword ptr [rcx + _ZN8CryptoPPL2TeE+1]
	mov	edi, dword ptr [rbp - 104]
	mov	r8d, edi
	xor	r8d, -1
	and	r8d, 214016235
	mov	r9d, eax
	xor	r9d, 214016235
	and	edi, r9d
	mov	r10d, edx
	xor	r10d, -1
	and	r10d, 214016235
	and	edx, r9d
	or	r8d, edi
	or	r10d, edx
	xor	r8d, r10d
	mov	dword ptr [rbp - 104], r8d
	mov	edx, dword ptr [rbp - 108]
	shr	edx, 8
	mov	dword ptr [rbp - 108], edx
	mov	edx, dword ptr [rbp - 108]
	shl	edx, 3
	mov	edx, edx
	mov	ecx, edx
	mov	edx, dword ptr [rcx + _ZN8CryptoPPL2TeE+4]
	mov	edi, dword ptr [rbp - 92]
	mov	r8d, edi
	xor	r8d, -1
	and	r8d, 3601058411
	mov	r9d, eax
	xor	r9d, 3601058411
	and	edi, r9d
	mov	r10d, edx
	xor	r10d, -1
	and	r10d, -693908885
	and	edx, r9d
	or	r8d, edi
	or	r10d, edx
	xor	r8d, r10d
	mov	dword ptr [rbp - 92], r8d
	mov	rcx, qword ptr [rbp - 136]
	mov	edx, dword ptr [rcx + 16]
	mov	dword ptr [rbp - 108], edx
	mov	rcx, qword ptr [rbp - 136]
	mov	edx, dword ptr [rcx + 20]
	mov	dword ptr [rbp - 112], edx
	mov	rcx, qword ptr [rbp - 136]
	mov	edx, dword ptr [rcx + 24]
	mov	dword ptr [rbp - 116], edx
	mov	rcx, qword ptr [rbp - 136]
	mov	edx, dword ptr [rcx + 28]
	mov	dword ptr [rbp - 120], edx
	mov	edx, dword ptr [rbp - 104]
	mov	sil, dl
	movzx	edx, sil
	shl	edx, 3
	movsxd	rcx, edx
	mov	edx, dword ptr [rcx + _ZN8CryptoPPL2TeE+3]
	mov	edi, dword ptr [rbp - 108]
	mov	r8d, edi
	xor	r8d, -1
	and	r8d, 2729484645
	mov	r9d, eax
	xor	r9d, 2729484645
	and	edi, r9d
	mov	r10d, edx
	xor	r10d, -1
	and	r10d, -1565482651
	and	edx, r9d
	or	r8d, edi
	or	r10d, edx
	xor	r8d, r10d
	mov	dword ptr [rbp - 108], r8d
	mov	edx, dword ptr [rbp - 104]
	shr	edx, 8
	mov	dword ptr [rbp - 104], edx
	mov	edx, dword ptr [rbp - 104]
	mov	sil, dl
	movzx	edx, sil
	shl	edx, 3
	movsxd	rcx, edx
	mov	edx, dword ptr [rcx + _ZN8CryptoPPL2TeE+2]
	mov	edi, dword ptr [rbp - 112]
	mov	r8d, edi
	xor	r8d, -1
	mov	r9d, edx
	and	r9d, r8d
	xor	edx, -1
	and	edi, edx
	or	r9d, edi
	mov	dword ptr [rbp - 112], r9d
	mov	edx, dword ptr [rbp - 104]
	shr	edx, 8
	mov	dword ptr [rbp - 104], edx
	mov	edx, dword ptr [rbp - 104]
	mov	sil, dl
	movzx	edx, sil
	shl	edx, 3
	movsxd	rcx, edx
	mov	edx, dword ptr [rcx + _ZN8CryptoPPL2TeE+1]
	mov	edi, dword ptr [rbp - 116]
	mov	r8d, edi
	xor	r8d, -1
	and	r8d, 2092189027
	mov	r9d, eax
	xor	r9d, 2092189027
	and	edi, r9d
	mov	r10d, edx
	xor	r10d, -1
	and	r10d, 2092189027
	and	edx, r9d
	or	r8d, edi
	or	r10d, edx
	xor	r8d, r10d
	mov	dword ptr [rbp - 116], r8d
	mov	edx, dword ptr [rbp - 104]
	shr	edx, 8
	mov	dword ptr [rbp - 104], edx
	mov	edx, dword ptr [rbp - 104]
	shl	edx, 3
	mov	edx, edx
	mov	ecx, edx
	mov	edx, dword ptr [rcx + _ZN8CryptoPPL2TeE+4]
	mov	edi, dword ptr [rbp - 120]
	mov	r8d, edi
	xor	r8d, -1
	mov	r9d, edx
	and	r9d, r8d
	xor	edx, -1
	and	edi, edx
	or	r9d, edi
	mov	dword ptr [rbp - 120], r9d
	mov	edx, dword ptr [rbp - 100]
	mov	sil, dl
	movzx	edx, sil
	shl	edx, 3
	movsxd	rcx, edx
	mov	edx, dword ptr [rcx + _ZN8CryptoPPL2TeE+3]
	mov	edi, dword ptr [rbp - 120]
	mov	r8d, edi
	xor	r8d, -1
	and	r8d, 2350211268
	mov	r9d, eax
	xor	r9d, 2350211268
	and	edi, r9d
	mov	r10d, edx
	xor	r10d, -1
	and	r10d, -1944756028
	and	edx, r9d
	or	r8d, edi
	or	r10d, edx
	xor	r8d, r10d
	mov	dword ptr [rbp - 120], r8d
	mov	edx, dword ptr [rbp - 100]
	shr	edx, 8
	mov	dword ptr [rbp - 100], edx
	mov	edx, dword ptr [rbp - 100]
	mov	sil, dl
	movzx	edx, sil
	shl	edx, 3
	movsxd	rcx, edx
	mov	edx, dword ptr [rcx + _ZN8CryptoPPL2TeE+2]
	mov	edi, dword ptr [rbp - 108]
	mov	r8d, edi
	xor	r8d, -1
	mov	r9d, edx
	and	r9d, r8d
	xor	edx, -1
	and	edi, edx
	or	r9d, edi
	mov	dword ptr [rbp - 108], r9d
	mov	edx, dword ptr [rbp - 100]
	shr	edx, 8
	mov	dword ptr [rbp - 100], edx
	mov	edx, dword ptr [rbp - 100]
	mov	sil, dl
	movzx	edx, sil
	shl	edx, 3
	movsxd	rcx, edx
	mov	edx, dword ptr [rcx + _ZN8CryptoPPL2TeE+1]
	mov	edi, dword ptr [rbp - 112]
	mov	r8d, edi
	xor	r8d, -1
	mov	r9d, edx
	and	r9d, r8d
	xor	edx, -1
	and	edi, edx
	or	r9d, edi
	mov	dword ptr [rbp - 112], r9d
	mov	edx, dword ptr [rbp - 100]
	shr	edx, 8
	mov	dword ptr [rbp - 100], edx
	mov	edx, dword ptr [rbp - 100]
	shl	edx, 3
	mov	edx, edx
	mov	ecx, edx
	mov	edx, dword ptr [rcx + _ZN8CryptoPPL2TeE+4]
	mov	edi, dword ptr [rbp - 116]
	mov	r8d, edi
	xor	r8d, -1
	mov	r9d, edx
	and	r9d, r8d
	xor	edx, -1
	and	edi, edx
	or	r9d, edi
	mov	dword ptr [rbp - 116], r9d
	mov	edx, dword ptr [rbp - 96]
	mov	sil, dl
	movzx	edx, sil
	shl	edx, 3
	movsxd	rcx, edx
	mov	edx, dword ptr [rcx + _ZN8CryptoPPL2TeE+3]
	mov	edi, dword ptr [rbp - 116]
	mov	r8d, edi
	xor	r8d, -1
	and	r8d, 4142693208
	mov	r9d, eax
	xor	r9d, 4142693208
	and	edi, r9d
	mov	r10d, edx
	xor	r10d, -1
	and	r10d, -152274088
	and	edx, r9d
	or	r8d, edi
	or	r10d, edx
	xor	r8d, r10d
	mov	dword ptr [rbp - 116], r8d
	mov	edx, dword ptr [rbp - 96]
	shr	edx, 8
	mov	dword ptr [rbp - 96], edx
	mov	edx, dword ptr [rbp - 96]
	mov	sil, dl
	movzx	edx, sil
	shl	edx, 3
	movsxd	rcx, edx
	mov	edx, dword ptr [rcx + _ZN8CryptoPPL2TeE+2]
	mov	edi, dword ptr [rbp - 120]
	mov	r8d, edi
	xor	r8d, -1
	and	r8d, 794139512
	mov	r9d, eax
	xor	r9d, 794139512
	and	edi, r9d
	mov	r10d, edx
	xor	r10d, -1
	and	r10d, 794139512
	and	edx, r9d
	or	r8d, edi
	or	r10d, edx
	xor	r8d, r10d
	mov	dword ptr [rbp - 120], r8d
	mov	edx, dword ptr [rbp - 96]
	shr	edx, 8
	mov	dword ptr [rbp - 96], edx
	mov	edx, dword ptr [rbp - 96]
	mov	sil, dl
	movzx	edx, sil
	shl	edx, 3
	movsxd	rcx, edx
	mov	edx, dword ptr [rcx + _ZN8CryptoPPL2TeE+1]
	mov	edi, dword ptr [rbp - 108]
	mov	r8d, edi
	xor	r8d, -1
	and	r8d, 234606875
	mov	r9d, eax
	xor	r9d, 234606875
	and	edi, r9d
	mov	r10d, edx
	xor	r10d, -1
	and	r10d, 234606875
	and	edx, r9d
	or	r8d, edi
	or	r10d, edx
	xor	r8d, r10d
	mov	dword ptr [rbp - 108], r8d
	mov	edx, dword ptr [rbp - 96]
	shr	edx, 8
	mov	dword ptr [rbp - 96], edx
	mov	edx, dword ptr [rbp - 96]
	shl	edx, 3
	mov	edx, edx
	mov	ecx, edx
	mov	edx, dword ptr [rcx + _ZN8CryptoPPL2TeE+4]
	mov	edi, dword ptr [rbp - 112]
	mov	r8d, edi
	xor	r8d, -1
	mov	r9d, edx
	and	r9d, r8d
	xor	edx, -1
	and	edi, edx
	or	r9d, edi
	mov	dword ptr [rbp - 112], r9d
	mov	edx, dword ptr [rbp - 92]
	mov	sil, dl
	movzx	edx, sil
	shl	edx, 3
	movsxd	rcx, edx
	mov	edx, dword ptr [rcx + _ZN8CryptoPPL2TeE+3]
	mov	edi, dword ptr [rbp - 112]
	mov	r8d, edi
	xor	r8d, -1
	and	r8d, 3093238816
	xor	eax, 3093238816
	and	edi, eax
	mov	r9d, edx
	xor	r9d, -1
	and	r9d, -1201728480
	and	edx, eax
	or	r8d, edi
	or	r9d, edx
	xor	r8d, r9d
	mov	dword ptr [rbp - 112], r8d
	mov	eax, dword ptr [rbp - 92]
	shr	eax, 8
	mov	dword ptr [rbp - 92], eax
	mov	eax, dword ptr [rbp - 92]
	mov	sil, al
	movzx	eax, sil
	shl	eax, 3
	movsxd	rcx, eax
	mov	eax, dword ptr [rcx + _ZN8CryptoPPL2TeE+2]
	mov	edx, dword ptr [rbp - 116]
	mov	edi, edx
	xor	edi, -1
	mov	r8d, eax
	and	r8d, edi
	xor	eax, -1
	and	edx, eax
	or	r8d, edx
	mov	dword ptr [rbp - 116], r8d
	mov	eax, dword ptr [rbp - 92]
	shr	eax, 8
	mov	dword ptr [rbp - 92], eax
	mov	eax, dword ptr [rbp - 92]
	mov	sil, al
	movzx	eax, sil
	shl	eax, 3
	movsxd	rcx, eax
	mov	eax, dword ptr [rcx + _ZN8CryptoPPL2TeE+1]
	mov	edx, dword ptr [rbp - 120]
	mov	edi, edx
	xor	edi, -1
	mov	r8d, eax
	and	r8d, edi
	xor	eax, -1
	and	edx, eax
	or	r8d, edx
	mov	dword ptr [rbp - 120], r8d
	mov	eax, dword ptr [rbp - 92]
	shr	eax, 8
	mov	dword ptr [rbp - 92], eax
	mov	eax, dword ptr [rbp - 92]
	shl	eax, 3
	mov	eax, eax
	mov	ecx, eax
	mov	eax, dword ptr [rcx + _ZN8CryptoPPL2TeE+4]
	mov	edx, dword ptr [rbp - 108]
	mov	edi, edx
	xor	edi, -1
	mov	r8d, eax
	and	r8d, edi
	xor	eax, -1
	and	edx, eax
	or	r8d, edx
	mov	dword ptr [rbp - 108], r8d
	mov	rcx, qword ptr [rbp - 136]
	add	rcx, 32
	mov	qword ptr [rbp - 136], rcx
	mov	dword ptr [rbp - 204], -462926020
	jmp	.LBB18_23
.LBB18_13:                              
	mov	eax, 241409143
	mov	ecx, 3571953253
	mov	dl, 1
	xor	esi, esi
	mov	edi, dword ptr [x.40]
	mov	r8d, dword ptr [y.41]
	sub	esi, 1
	mov	r9d, edi
	add	r9d, esi
	imul	edi, r9d
	and	edi, 1
	cmp	edi, 0
	sete	r10b
	cmp	r8d, 10
	setl	r11b
	mov	bl, r10b
	xor	bl, -1
	mov	r14b, r11b
	xor	r14b, -1
	xor	dl, 0
	mov	r15b, bl
	and	r15b, 0
	and	r10b, dl
	mov	r12b, r14b
	and	r12b, 0
	and	r11b, dl
	or	r15b, r10b
	or	r12b, r11b
	xor	r15b, r12b
	or	bl, r14b
	xor	bl, -1
	or	dl, 0
	and	bl, dl
	or	r15b, bl
	test	r15b, 1
	cmovne	eax, ecx
	mov	dword ptr [rbp - 204], eax
	jmp	.LBB18_23
.LBB18_14:                              
	mov	eax, 241409143
	mov	ecx, 3029140275
	mov	dl, 1
	xor	esi, esi
	mov	edi, dword ptr [rbp - 156]
	sub	edi, -1265830548
	add	edi, -1
	add	edi, -1265830548
	mov	dword ptr [rbp - 156], edi
	cmp	edi, 0
	setne	r8b
	and	r8b, 1
	mov	byte ptr [rbp - 41], r8b
	mov	edi, dword ptr [x.40]
	mov	r9d, dword ptr [y.41]
	sub	esi, 1
	mov	r10d, edi
	add	r10d, esi
	imul	edi, r10d
	and	edi, 1
	cmp	edi, 0
	sete	r8b
	cmp	r9d, 10
	setl	r11b
	mov	bl, r8b
	xor	bl, -1
	mov	r14b, r11b
	xor	r14b, -1
	xor	dl, 1
	mov	r15b, bl
	and	r15b, -1
	and	r8b, dl
	mov	r12b, r14b
	and	r12b, -1
	and	r11b, dl
	or	r15b, r8b
	or	r12b, r11b
	xor	r15b, r12b
	or	bl, r14b
	xor	bl, -1
	or	dl, 1
	and	bl, dl
	or	r15b, bl
	test	r15b, 1
	cmovne	eax, ecx
	mov	dword ptr [rbp - 204], eax
	jmp	.LBB18_23
.LBB18_15:                              
	mov	eax, 2801674812
	mov	ecx, 918891603
	mov	dl, byte ptr [rbp - 41]
	test	dl, 1
	cmovne	eax, ecx
	mov	dword ptr [rbp - 204], eax
	jmp	.LBB18_23
.LBB18_16:                              
	mov	eax, 602951354
	mov	ecx, 3678547685
	xor	edx, edx
	mov	esi, dword ptr [x.40]
	mov	edi, dword ptr [y.41]
	sub	edx, 1
	mov	r8d, esi
	add	r8d, edx
	imul	esi, r8d
	and	esi, 1
	cmp	esi, 0
	sete	r9b
	cmp	edi, 10
	setl	r10b
	mov	r11b, r9b
	and	r11b, r10b
	xor	r9b, r10b
	or	r11b, r9b
	test	r11b, 1
	cmovne	eax, ecx
	mov	dword ptr [rbp - 204], eax
	jmp	.LBB18_23
.LBB18_17:                              
	lea	rdi, [rbp - 200]
	lea	rax, [rbp - 176]
	mov	qword ptr [rbp - 184], rax
	mov	ecx, dword ptr [rbp - 116]
	mov	dl, cl
	movzx	ecx, dl
	movsxd	rax, ecx
	mov	dl, byte ptr [8*rax + _ZN8CryptoPPL2TeE+1]
	mov	rax, qword ptr [rbp - 184]
	mov	byte ptr [rax + 15], dl
	mov	ecx, dword ptr [rbp - 116]
	shr	ecx, 8
	mov	dword ptr [rbp - 116], ecx
	mov	ecx, dword ptr [rbp - 116]
	mov	dl, cl
	movzx	ecx, dl
	movsxd	rax, ecx
	mov	dl, byte ptr [8*rax + _ZN8CryptoPPL2TeE+1]
	mov	rax, qword ptr [rbp - 184]
	mov	byte ptr [rax + 2], dl
	mov	ecx, dword ptr [rbp - 116]
	shr	ecx, 8
	mov	dword ptr [rbp - 116], ecx
	mov	ecx, dword ptr [rbp - 116]
	mov	dl, cl
	movzx	ecx, dl
	movsxd	rax, ecx
	mov	dl, byte ptr [8*rax + _ZN8CryptoPPL2TeE+1]
	mov	rax, qword ptr [rbp - 184]
	mov	byte ptr [rax + 5], dl
	mov	ecx, dword ptr [rbp - 116]
	shr	ecx, 8
	mov	dword ptr [rbp - 116], ecx
	mov	ecx, dword ptr [rbp - 116]
	mov	eax, ecx
	mov	dl, byte ptr [8*rax + _ZN8CryptoPPL2TeE+1]
	mov	rax, qword ptr [rbp - 184]
	mov	byte ptr [rax + 8], dl
	mov	ecx, dword ptr [rbp - 112]
	mov	dl, cl
	movzx	ecx, dl
	movsxd	rax, ecx
	mov	dl, byte ptr [8*rax + _ZN8CryptoPPL2TeE+1]
	mov	rax, qword ptr [rbp - 184]
	mov	byte ptr [rax + 11], dl
	mov	ecx, dword ptr [rbp - 112]
	shr	ecx, 8
	mov	dword ptr [rbp - 112], ecx
	mov	ecx, dword ptr [rbp - 112]
	mov	dl, cl
	movzx	ecx, dl
	movsxd	rax, ecx
	mov	dl, byte ptr [8*rax + _ZN8CryptoPPL2TeE+1]
	mov	rax, qword ptr [rbp - 184]
	mov	byte ptr [rax + 14], dl
	mov	ecx, dword ptr [rbp - 112]
	shr	ecx, 8
	mov	dword ptr [rbp - 112], ecx
	mov	ecx, dword ptr [rbp - 112]
	mov	dl, cl
	movzx	ecx, dl
	movsxd	rax, ecx
	mov	dl, byte ptr [8*rax + _ZN8CryptoPPL2TeE+1]
	mov	rax, qword ptr [rbp - 184]
	mov	byte ptr [rax + 1], dl
	mov	ecx, dword ptr [rbp - 112]
	shr	ecx, 8
	mov	dword ptr [rbp - 112], ecx
	mov	ecx, dword ptr [rbp - 112]
	mov	eax, ecx
	mov	dl, byte ptr [8*rax + _ZN8CryptoPPL2TeE+1]
	mov	rax, qword ptr [rbp - 184]
	mov	byte ptr [rax + 4], dl
	mov	ecx, dword ptr [rbp - 108]
	mov	dl, cl
	movzx	ecx, dl
	movsxd	rax, ecx
	mov	dl, byte ptr [8*rax + _ZN8CryptoPPL2TeE+1]
	mov	rax, qword ptr [rbp - 184]
	mov	byte ptr [rax + 7], dl
	mov	ecx, dword ptr [rbp - 108]
	shr	ecx, 8
	mov	dword ptr [rbp - 108], ecx
	mov	ecx, dword ptr [rbp - 108]
	mov	dl, cl
	movzx	ecx, dl
	movsxd	rax, ecx
	mov	dl, byte ptr [8*rax + _ZN8CryptoPPL2TeE+1]
	mov	rax, qword ptr [rbp - 184]
	mov	byte ptr [rax + 10], dl
	mov	ecx, dword ptr [rbp - 108]
	shr	ecx, 8
	mov	dword ptr [rbp - 108], ecx
	mov	ecx, dword ptr [rbp - 108]
	mov	dl, cl
	movzx	ecx, dl
	movsxd	rax, ecx
	mov	dl, byte ptr [8*rax + _ZN8CryptoPPL2TeE+1]
	mov	rax, qword ptr [rbp - 184]
	mov	byte ptr [rax + 13], dl
	mov	ecx, dword ptr [rbp - 108]
	shr	ecx, 8
	mov	dword ptr [rbp - 108], ecx
	mov	ecx, dword ptr [rbp - 108]
	mov	eax, ecx
	mov	dl, byte ptr [8*rax + _ZN8CryptoPPL2TeE+1]
	mov	rax, qword ptr [rbp - 184]
	mov	byte ptr [rax], dl
	mov	ecx, dword ptr [rbp - 120]
	mov	dl, cl
	movzx	ecx, dl
	movsxd	rax, ecx
	mov	dl, byte ptr [8*rax + _ZN8CryptoPPL2TeE+1]
	mov	rax, qword ptr [rbp - 184]
	mov	byte ptr [rax + 3], dl
	mov	ecx, dword ptr [rbp - 120]
	shr	ecx, 8
	mov	dword ptr [rbp - 120], ecx
	mov	ecx, dword ptr [rbp - 120]
	mov	dl, cl
	movzx	ecx, dl
	movsxd	rax, ecx
	mov	dl, byte ptr [8*rax + _ZN8CryptoPPL2TeE+1]
	mov	rax, qword ptr [rbp - 184]
	mov	byte ptr [rax + 6], dl
	mov	ecx, dword ptr [rbp - 120]
	shr	ecx, 8
	mov	dword ptr [rbp - 120], ecx
	mov	ecx, dword ptr [rbp - 120]
	mov	dl, cl
	movzx	ecx, dl
	movsxd	rax, ecx
	mov	dl, byte ptr [8*rax + _ZN8CryptoPPL2TeE+1]
	mov	rax, qword ptr [rbp - 184]
	mov	byte ptr [rax + 9], dl
	mov	ecx, dword ptr [rbp - 120]
	shr	ecx, 8
	mov	dword ptr [rbp - 120], ecx
	mov	ecx, dword ptr [rbp - 120]
	mov	eax, ecx
	mov	dl, byte ptr [8*rax + _ZN8CryptoPPL2TeE+1]
	mov	rax, qword ptr [rbp - 184]
	mov	byte ptr [rax + 12], dl
	mov	rsi, qword ptr [rbp - 80]
	mov	rdx, qword ptr [rbp - 88]
	call	_ZN8CryptoPP8PutBlockIjNS_10EnumToTypeINS_9ByteOrderELi0EEELb0EEC2EPKvPv
	lea	rdi, [rbp - 200]
	mov	ecx, 4294967295
	mov	r8d, dword ptr [rbp - 176]
	mov	rax, qword ptr [rbp - 136]
	mov	r9d, dword ptr [rax]
	mov	r10d, r8d
	xor	r10d, -1
	and	r10d, 528935092
	xor	ecx, 528935092
	and	r8d, ecx
	mov	r11d, r9d
	xor	r11d, -1
	and	r11d, 528935092
	and	r9d, ecx
	or	r10d, r8d
	or	r11d, r9d
	xor	r10d, r11d
	mov	esi, r10d
	call	_ZN8CryptoPP8PutBlockIjNS_10EnumToTypeINS_9ByteOrderELi0EEELb0EEclIjEERS4_T_
	mov	ecx, dword ptr [rbp - 172]
	mov	rdx, qword ptr [rbp - 136]
	mov	esi, dword ptr [rdx + 4]
	mov	r8d, ecx
	xor	r8d, -1
	mov	r9d, esi
	and	r9d, r8d
	xor	esi, -1
	and	ecx, esi
	or	r9d, ecx
	mov	rdi, rax
	mov	esi, r9d
	call	_ZN8CryptoPP8PutBlockIjNS_10EnumToTypeINS_9ByteOrderELi0EEELb0EEclIjEERS4_T_
	mov	ecx, dword ptr [rbp - 168]
	mov	rdx, qword ptr [rbp - 136]
	mov	esi, dword ptr [rdx + 8]
	mov	r8d, ecx
	xor	r8d, -1
	mov	r9d, esi
	and	r9d, r8d
	xor	esi, -1
	and	ecx, esi
	or	r9d, ecx
	mov	rdi, rax
	mov	esi, r9d
	call	_ZN8CryptoPP8PutBlockIjNS_10EnumToTypeINS_9ByteOrderELi0EEELb0EEclIjEERS4_T_
	mov	ecx, dword ptr [rbp - 164]
	mov	rdx, qword ptr [rbp - 136]
	mov	esi, dword ptr [rdx + 12]
	mov	r8d, ecx
	xor	r8d, -1
	mov	r9d, esi
	and	r9d, r8d
	xor	esi, -1
	and	ecx, esi
	or	r9d, ecx
	mov	rdi, rax
	mov	esi, r9d
	call	_ZN8CryptoPP8PutBlockIjNS_10EnumToTypeINS_9ByteOrderELi0EEELb0EEclIjEERS4_T_
	mov	ecx, 602951354
	mov	esi, 987241727
	mov	bl, 1
	mov	r8d, dword ptr [x.40]
	mov	r9d, dword ptr [y.41]
	mov	r10d, r8d
	add	r10d, -2044381223
	sub	r10d, 1
	sub	r10d, -2044381223
	imul	r8d, r10d
	and	r8d, 1
	cmp	r8d, 0
	sete	r14b
	cmp	r9d, 10
	setl	r15b
	mov	r12b, r14b
	xor	r12b, -1
	mov	r13b, r15b
	xor	r13b, -1
	xor	bl, 0
	mov	dl, r12b
	and	dl, 0
	and	r14b, bl
	mov	dil, r13b
	and	dil, 0
	and	r15b, bl
	or	dl, r14b
	or	dil, r15b
	xor	dl, dil
	or	r12b, r13b
	xor	r12b, -1
	or	bl, 0
	and	r12b, bl
	or	dl, r12b
	test	dl, 1
	cmovne	ecx, esi
	mov	dword ptr [rbp - 204], ecx
	mov	qword ptr [rbp - 312], rax 
	jmp	.LBB18_23
.LBB18_18:                              
	mov	dword ptr [rbp - 204], -404595395
	jmp	.LBB18_23
.LBB18_19:
	add	rsp, 296
	pop	rbx
	pop	r12
	pop	r13
	pop	r14
	pop	r15
	pop	rbp
	ret
.LBB18_20:                              
	mov	rdi, qword ptr [rbp - 72]
	call	_ZN8CryptoPP14BlockGetAndPutIjNS_10EnumToTypeINS_9ByteOrderELi0EEELb0ELb0EE3GetEPKv
	lea	rdi, [rbp - 128]
	lea	rsi, [rbp - 92]
	mov	qword ptr [rbp - 128], rax
	call	_ZN8CryptoPP8GetBlockIjNS_10EnumToTypeINS_9ByteOrderELi0EEELb0EEclIjEERS4_RT_
	lea	rsi, [rbp - 96]
	mov	rdi, rax
	call	_ZN8CryptoPP8GetBlockIjNS_10EnumToTypeINS_9ByteOrderELi0EEELb0EEclIjEERS4_RT_
	lea	rsi, [rbp - 100]
	mov	rdi, rax
	call	_ZN8CryptoPP8GetBlockIjNS_10EnumToTypeINS_9ByteOrderELi0EEELb0EEclIjEERS4_RT_
	lea	rsi, [rbp - 104]
	mov	rdi, rax
	call	_ZN8CryptoPP8GetBlockIjNS_10EnumToTypeINS_9ByteOrderELi0EEELb0EEclIjEERS4_RT_
	mov	rsi, qword ptr [rbp - 56]
	add	rsi, 24
	mov	rdi, rsi
	mov	qword ptr [rbp - 320], rax 
	call	_ZNK8CryptoPP8SecBlockIjNS_20AllocatorWithCleanupIjLb1EEEEcvPKjEv
	mov	ecx, 4294967295
	mov	qword ptr [rbp - 136], rax
	mov	rax, qword ptr [rbp - 136]
	mov	edx, dword ptr [rax]
	mov	r8d, dword ptr [rbp - 92]
	mov	r9d, r8d
	xor	r9d, -1
	and	r9d, 1556941905
	mov	r10d, ecx
	xor	r10d, 1556941905
	and	r8d, r10d
	mov	r11d, edx
	xor	r11d, -1
	and	r11d, 1556941905
	and	edx, r10d
	or	r9d, r8d
	or	r11d, edx
	xor	r9d, r11d
	mov	dword ptr [rbp - 92], r9d
	mov	rax, qword ptr [rbp - 136]
	mov	edx, dword ptr [rax + 4]
	mov	r8d, dword ptr [rbp - 96]
	mov	r9d, r8d
	xor	r9d, -1
	mov	r10d, edx
	and	r10d, r9d
	xor	edx, -1
	and	r8d, edx
	or	r10d, r8d
	mov	dword ptr [rbp - 96], r10d
	mov	rax, qword ptr [rbp - 136]
	mov	edx, dword ptr [rax + 8]
	mov	r8d, dword ptr [rbp - 100]
	mov	r9d, r8d
	xor	r9d, -1
	mov	r10d, edx
	and	r10d, r9d
	xor	edx, -1
	and	r8d, edx
	or	r10d, r8d
	mov	dword ptr [rbp - 100], r10d
	mov	rax, qword ptr [rbp - 136]
	mov	edx, dword ptr [rax + 12]
	mov	r8d, dword ptr [rbp - 104]
	mov	r9d, r8d
	xor	r9d, -1
	and	r9d, 2237945555
	xor	ecx, 2237945555
	and	r8d, ecx
	mov	r10d, edx
	xor	r10d, -1
	and	r10d, -2057021741
	and	edx, ecx
	or	r9d, r8d
	or	r10d, edx
	xor	r9d, r10d
	mov	dword ptr [rbp - 104], r9d
	mov	rax, qword ptr [rbp - 136]
	mov	ecx, dword ptr [rax + 16]
	mov	dword ptr [rbp - 108], ecx
	mov	rax, qword ptr [rbp - 136]
	mov	ecx, dword ptr [rax + 20]
	mov	dword ptr [rbp - 112], ecx
	mov	rax, qword ptr [rbp - 136]
	mov	ecx, dword ptr [rax + 24]
	mov	dword ptr [rbp - 116], ecx
	mov	rax, qword ptr [rbp - 136]
	mov	ecx, dword ptr [rax + 28]
	mov	dword ptr [rbp - 120], ecx
	mov	rax, qword ptr [rbp - 136]
	add	rax, 32
	mov	qword ptr [rbp - 136], rax
	call	_ZN8CryptoPP16GetCacheLineSizeEv
	mov	dword ptr [rbp - 140], eax
	mov	dword ptr [rbp - 148], 0
	mov	eax, dword ptr [rbp - 148]
	mov	dword ptr [rbp - 152], eax
	mov	dword ptr [rbp - 144], 0
	mov	dword ptr [rbp - 204], -1709435634
	jmp	.LBB18_23
.LBB18_21:                              
	xor	eax, eax
	mov	ecx, dword ptr [rbp - 156]
	mov	edx, eax
	sub	edx, ecx
	mov	ecx, eax
	sub	ecx, -1
	add	edx, ecx
	sub	eax, edx
	mov	dword ptr [rbp - 156], eax
	mov	dword ptr [rbp - 204], -723014043
	jmp	.LBB18_23
.LBB18_22:                              
	lea	rdi, [rbp - 200]
	lea	rax, [rbp - 176]
	mov	qword ptr [rbp - 184], rax
	mov	ecx, dword ptr [rbp - 116]
	mov	dl, cl
	movzx	ecx, dl
	movsxd	rax, ecx
	mov	dl, byte ptr [8*rax + _ZN8CryptoPPL2TeE+1]
	mov	rax, qword ptr [rbp - 184]
	mov	byte ptr [rax + 15], dl
	mov	ecx, dword ptr [rbp - 116]
	shr	ecx, 8
	mov	dword ptr [rbp - 116], ecx
	mov	ecx, dword ptr [rbp - 116]
	mov	dl, cl
	movzx	ecx, dl
	movsxd	rax, ecx
	mov	dl, byte ptr [8*rax + _ZN8CryptoPPL2TeE+1]
	mov	rax, qword ptr [rbp - 184]
	mov	byte ptr [rax + 2], dl
	mov	ecx, dword ptr [rbp - 116]
	shr	ecx, 8
	mov	dword ptr [rbp - 116], ecx
	mov	ecx, dword ptr [rbp - 116]
	mov	dl, cl
	movzx	ecx, dl
	movsxd	rax, ecx
	mov	dl, byte ptr [8*rax + _ZN8CryptoPPL2TeE+1]
	mov	rax, qword ptr [rbp - 184]
	mov	byte ptr [rax + 5], dl
	mov	ecx, dword ptr [rbp - 116]
	shr	ecx, 8
	mov	dword ptr [rbp - 116], ecx
	mov	ecx, dword ptr [rbp - 116]
	mov	eax, ecx
	mov	dl, byte ptr [8*rax + _ZN8CryptoPPL2TeE+1]
	mov	rax, qword ptr [rbp - 184]
	mov	byte ptr [rax + 8], dl
	mov	ecx, dword ptr [rbp - 112]
	mov	dl, cl
	movzx	ecx, dl
	movsxd	rax, ecx
	mov	dl, byte ptr [8*rax + _ZN8CryptoPPL2TeE+1]
	mov	rax, qword ptr [rbp - 184]
	mov	byte ptr [rax + 11], dl
	mov	ecx, dword ptr [rbp - 112]
	shr	ecx, 8
	mov	dword ptr [rbp - 112], ecx
	mov	ecx, dword ptr [rbp - 112]
	mov	dl, cl
	movzx	ecx, dl
	movsxd	rax, ecx
	mov	dl, byte ptr [8*rax + _ZN8CryptoPPL2TeE+1]
	mov	rax, qword ptr [rbp - 184]
	mov	byte ptr [rax + 14], dl
	mov	ecx, dword ptr [rbp - 112]
	shr	ecx, 8
	mov	dword ptr [rbp - 112], ecx
	mov	ecx, dword ptr [rbp - 112]
	mov	dl, cl
	movzx	ecx, dl
	movsxd	rax, ecx
	mov	dl, byte ptr [8*rax + _ZN8CryptoPPL2TeE+1]
	mov	rax, qword ptr [rbp - 184]
	mov	byte ptr [rax + 1], dl
	mov	ecx, dword ptr [rbp - 112]
	shr	ecx, 8
	mov	dword ptr [rbp - 112], ecx
	mov	ecx, dword ptr [rbp - 112]
	mov	eax, ecx
	mov	dl, byte ptr [8*rax + _ZN8CryptoPPL2TeE+1]
	mov	rax, qword ptr [rbp - 184]
	mov	byte ptr [rax + 4], dl
	mov	ecx, dword ptr [rbp - 108]
	mov	dl, cl
	movzx	ecx, dl
	movsxd	rax, ecx
	mov	dl, byte ptr [8*rax + _ZN8CryptoPPL2TeE+1]
	mov	rax, qword ptr [rbp - 184]
	mov	byte ptr [rax + 7], dl
	mov	ecx, dword ptr [rbp - 108]
	shr	ecx, 8
	mov	dword ptr [rbp - 108], ecx
	mov	ecx, dword ptr [rbp - 108]
	mov	dl, cl
	movzx	ecx, dl
	movsxd	rax, ecx
	mov	dl, byte ptr [8*rax + _ZN8CryptoPPL2TeE+1]
	mov	rax, qword ptr [rbp - 184]
	mov	byte ptr [rax + 10], dl
	mov	ecx, dword ptr [rbp - 108]
	shr	ecx, 8
	mov	dword ptr [rbp - 108], ecx
	mov	ecx, dword ptr [rbp - 108]
	mov	dl, cl
	movzx	ecx, dl
	movsxd	rax, ecx
	mov	dl, byte ptr [8*rax + _ZN8CryptoPPL2TeE+1]
	mov	rax, qword ptr [rbp - 184]
	mov	byte ptr [rax + 13], dl
	mov	ecx, dword ptr [rbp - 108]
	shr	ecx, 8
	mov	dword ptr [rbp - 108], ecx
	mov	ecx, dword ptr [rbp - 108]
	mov	eax, ecx
	mov	dl, byte ptr [8*rax + _ZN8CryptoPPL2TeE+1]
	mov	rax, qword ptr [rbp - 184]
	mov	byte ptr [rax], dl
	mov	ecx, dword ptr [rbp - 120]
	mov	dl, cl
	movzx	ecx, dl
	movsxd	rax, ecx
	mov	dl, byte ptr [8*rax + _ZN8CryptoPPL2TeE+1]
	mov	rax, qword ptr [rbp - 184]
	mov	byte ptr [rax + 3], dl
	mov	ecx, dword ptr [rbp - 120]
	shr	ecx, 8
	mov	dword ptr [rbp - 120], ecx
	mov	ecx, dword ptr [rbp - 120]
	mov	dl, cl
	movzx	ecx, dl
	movsxd	rax, ecx
	mov	dl, byte ptr [8*rax + _ZN8CryptoPPL2TeE+1]
	mov	rax, qword ptr [rbp - 184]
	mov	byte ptr [rax + 6], dl
	mov	ecx, dword ptr [rbp - 120]
	shr	ecx, 8
	mov	dword ptr [rbp - 120], ecx
	mov	ecx, dword ptr [rbp - 120]
	mov	dl, cl
	movzx	ecx, dl
	movsxd	rax, ecx
	mov	dl, byte ptr [8*rax + _ZN8CryptoPPL2TeE+1]
	mov	rax, qword ptr [rbp - 184]
	mov	byte ptr [rax + 9], dl
	mov	ecx, dword ptr [rbp - 120]
	shr	ecx, 8
	mov	dword ptr [rbp - 120], ecx
	mov	ecx, dword ptr [rbp - 120]
	mov	eax, ecx
	mov	dl, byte ptr [8*rax + _ZN8CryptoPPL2TeE+1]
	mov	rax, qword ptr [rbp - 184]
	mov	byte ptr [rax + 12], dl
	mov	rsi, qword ptr [rbp - 80]
	mov	rdx, qword ptr [rbp - 88]
	call	_ZN8CryptoPP8PutBlockIjNS_10EnumToTypeINS_9ByteOrderELi0EEELb0EEC2EPKvPv
	lea	rdi, [rbp - 200]
	mov	ecx, 4294967295
	mov	r8d, dword ptr [rbp - 176]
	mov	rax, qword ptr [rbp - 136]
	mov	r9d, dword ptr [rax]
	mov	r10d, r8d
	xor	r10d, -1
	and	r10d, 3254862158
	xor	ecx, 3254862158
	and	r8d, ecx
	mov	r11d, r9d
	xor	r11d, -1
	and	r11d, -1040105138
	and	r9d, ecx
	or	r10d, r8d
	or	r11d, r9d
	xor	r10d, r11d
	mov	esi, r10d
	call	_ZN8CryptoPP8PutBlockIjNS_10EnumToTypeINS_9ByteOrderELi0EEELb0EEclIjEERS4_T_
	mov	ecx, 4294967295
	mov	esi, dword ptr [rbp - 172]
	mov	rdx, qword ptr [rbp - 136]
	mov	r8d, dword ptr [rdx + 4]
	mov	r9d, esi
	xor	r9d, -1
	and	r9d, 100081247
	xor	ecx, 100081247
	and	esi, ecx
	mov	r10d, r8d
	xor	r10d, -1
	and	r10d, 100081247
	and	r8d, ecx
	or	r9d, esi
	or	r10d, r8d
	xor	r9d, r10d
	mov	rdi, rax
	mov	esi, r9d
	call	_ZN8CryptoPP8PutBlockIjNS_10EnumToTypeINS_9ByteOrderELi0EEELb0EEclIjEERS4_T_
	mov	ecx, 4294967295
	mov	esi, dword ptr [rbp - 168]
	mov	rdx, qword ptr [rbp - 136]
	mov	r8d, dword ptr [rdx + 8]
	mov	r9d, esi
	xor	r9d, -1
	and	r9d, 3102221405
	xor	ecx, 3102221405
	and	esi, ecx
	mov	r10d, r8d
	xor	r10d, -1
	and	r10d, -1192745891
	and	r8d, ecx
	or	r9d, esi
	or	r10d, r8d
	xor	r9d, r10d
	mov	rdi, rax
	mov	esi, r9d
	call	_ZN8CryptoPP8PutBlockIjNS_10EnumToTypeINS_9ByteOrderELi0EEELb0EEclIjEERS4_T_
	mov	ecx, 4294967295
	mov	esi, dword ptr [rbp - 164]
	mov	rdx, qword ptr [rbp - 136]
	mov	r8d, dword ptr [rdx + 12]
	mov	r9d, esi
	xor	r9d, -1
	and	r9d, 411550327
	xor	ecx, 411550327
	and	esi, ecx
	mov	r10d, r8d
	xor	r10d, -1
	and	r10d, 411550327
	and	r8d, ecx
	or	r9d, esi
	or	r10d, r8d
	xor	r9d, r10d
	mov	rdi, rax
	mov	esi, r9d
	call	_ZN8CryptoPP8PutBlockIjNS_10EnumToTypeINS_9ByteOrderELi0EEELb0EEclIjEERS4_T_
	mov	dword ptr [rbp - 204], -616419611
	mov	qword ptr [rbp - 328], rax 
.LBB18_23:                              
	jmp	.LBB18_1
.Lfunc_end18:
	.size	_ZNK8CryptoPP8Rijndael3Enc18ProcessAndXorBlockEPKhS3_Ph, .Lfunc_end18-_ZNK8CryptoPP8Rijndael3Enc18ProcessAndXorBlockEPKhS3_Ph
	.cfi_endproc

	.globl	_ZNK8CryptoPP8Rijndael3Enc21AdvancedProcessBlocksEPKhS3_Phmj 
	.p2align	4, 0x90
	.type	_ZNK8CryptoPP8Rijndael3Enc21AdvancedProcessBlocksEPKhS3_Phmj,@function
_ZNK8CryptoPP8Rijndael3Enc21AdvancedProcessBlocksEPKhS3_Phmj: 
	.cfi_startproc

	push	rbp
.Lcfi63:
	.cfi_def_cfa_offset 16
.Lcfi64:
	.cfi_offset rbp, -16
	mov	rbp, rsp
.Lcfi65:
	.cfi_def_cfa_register rbp
	push	r15
	push	r14
	push	r13
	push	r12
	push	rbx
	sub	rsp, 168
.Lcfi66:
	.cfi_offset rbx, -56
.Lcfi67:
	.cfi_offset r12, -48
.Lcfi68:
	.cfi_offset r13, -40
.Lcfi69:
	.cfi_offset r14, -32
.Lcfi70:
	.cfi_offset r15, -24
	mov	eax, dword ptr [x.42]
	mov	r10d, dword ptr [y.43]
	mov	r11d, eax
	add	r11d, -2029007944
	sub	r11d, 1
	sub	r11d, -2029007944
	imul	eax, r11d
	and	eax, 1
	cmp	eax, 0
	sete	bl
	and	bl, 1
	mov	byte ptr [rbp - 106], bl
	cmp	r10d, 10
	setl	bl
	and	bl, 1
	mov	byte ptr [rbp - 105], bl
	mov	dword ptr [rbp - 112], 1584046034
	mov	qword ptr [rbp - 120], r8 
	mov	qword ptr [rbp - 128], rcx 
	mov	qword ptr [rbp - 136], rdx 
	mov	qword ptr [rbp - 144], rsi 
	mov	qword ptr [rbp - 152], rdi 
	mov	dword ptr [rbp - 156], r9d 
.LBB19_1:                               
	mov	eax, dword ptr [rbp - 112]
	mov	ecx, eax
	sub	ecx, -1473686644
	mov	dword ptr [rbp - 160], eax 
	mov	dword ptr [rbp - 164], ecx 
	je	.LBB19_5
	jmp	.LBB19_14
.LBB19_14:                              
	mov	eax, dword ptr [rbp - 160] 
	sub	eax, -1175670746
	mov	dword ptr [rbp - 168], eax 
	je	.LBB19_11
	jmp	.LBB19_15
.LBB19_15:                              
	mov	eax, dword ptr [rbp - 160] 
	sub	eax, -895576983
	mov	dword ptr [rbp - 172], eax 
	je	.LBB19_6
	jmp	.LBB19_16
.LBB19_16:                              
	mov	eax, dword ptr [rbp - 160] 
	sub	eax, -687781167
	mov	dword ptr [rbp - 176], eax 
	je	.LBB19_4
	jmp	.LBB19_17
.LBB19_17:                              
	mov	eax, dword ptr [rbp - 160] 
	sub	eax, -427040616
	mov	dword ptr [rbp - 180], eax 
	je	.LBB19_8
	jmp	.LBB19_18
.LBB19_18:                              
	mov	eax, dword ptr [rbp - 160] 
	sub	eax, 607365719
	mov	dword ptr [rbp - 184], eax 
	je	.LBB19_12
	jmp	.LBB19_19
.LBB19_19:                              
	mov	eax, dword ptr [rbp - 160] 
	sub	eax, 1204798914
	mov	dword ptr [rbp - 188], eax 
	je	.LBB19_10
	jmp	.LBB19_20
.LBB19_20:                              
	mov	eax, dword ptr [rbp - 160] 
	sub	eax, 1584046034
	mov	dword ptr [rbp - 192], eax 
	je	.LBB19_3
	jmp	.LBB19_21
.LBB19_21:                              
	mov	eax, dword ptr [rbp - 160] 
	sub	eax, 1656716749
	mov	dword ptr [rbp - 196], eax 
	je	.LBB19_7
	jmp	.LBB19_22
.LBB19_22:                              
	mov	eax, dword ptr [rbp - 160] 
	sub	eax, 2109209282
	mov	dword ptr [rbp - 200], eax 
	je	.LBB19_9
	jmp	.LBB19_2
.LBB19_2:                               
	jmp	.LBB19_13
.LBB19_3:                               
	mov	eax, 3119296550
	mov	ecx, 3607186129
	mov	dl, byte ptr [rbp - 106]
	mov	sil, byte ptr [rbp - 105]
	mov	dil, dl
	and	dil, sil
	xor	dl, sil
	or	dil, dl
	test	dil, 1
	cmovne	eax, ecx
	mov	dword ptr [rbp - 112], eax
	jmp	.LBB19_13
.LBB19_4:                               
	mov	rax, rsp
	add	rax, -16
	mov	rsp, rax
	mov	qword ptr [rbp - 104], rax
	mov	rax, rsp
	add	rax, -16
	mov	rsp, rax
	mov	rcx, rsp
	add	rcx, -16
	mov	rsp, rcx
	mov	qword ptr [rbp - 96], rcx
	mov	rcx, rsp
	add	rcx, -16
	mov	rsp, rcx
	mov	qword ptr [rbp - 88], rcx
	mov	rcx, rsp
	add	rcx, -16
	mov	rsp, rcx
	mov	qword ptr [rbp - 80], rcx
	mov	rcx, rsp
	add	rcx, -16
	mov	rsp, rcx
	mov	qword ptr [rbp - 72], rcx
	mov	rcx, rsp
	add	rcx, -16
	mov	rsp, rcx
	mov	qword ptr [rbp - 64], rcx
	mov	rcx, qword ptr [rbp - 152] 
	mov	qword ptr [rax], rcx
	mov	rdx, qword ptr [rbp - 96]
	mov	rsi, qword ptr [rbp - 144] 
	mov	qword ptr [rdx], rsi
	mov	rdx, qword ptr [rbp - 88]
	mov	rdi, qword ptr [rbp - 136] 
	mov	qword ptr [rdx], rdi
	mov	rdx, qword ptr [rbp - 80]
	mov	r8, qword ptr [rbp - 128] 
	mov	qword ptr [rdx], r8
	mov	rdx, qword ptr [rbp - 72]
	mov	r9, qword ptr [rbp - 120] 
	mov	qword ptr [rdx], r9
	mov	rdx, qword ptr [rbp - 64]
	mov	r10d, dword ptr [rbp - 156] 
	mov	dword ptr [rdx], r10d
	mov	rax, qword ptr [rax]
	mov	qword ptr [rbp - 56], rax
	call	_ZN8CryptoPP8HasAESNIEv
	mov	r10d, 3119296550
	mov	r11d, 2821280652
	and	al, 1
	mov	byte ptr [rbp - 41], al
	mov	ebx, dword ptr [x.42]
	mov	r14d, dword ptr [y.43]
	mov	r15d, ebx
	sub	r15d, -1493669409
	sub	r15d, 1
	add	r15d, -1493669409
	imul	ebx, r15d
	and	ebx, 1
	cmp	ebx, 0
	sete	al
	cmp	r14d, 10
	setl	r12b
	mov	r13b, al
	and	r13b, r12b
	xor	al, r12b
	or	r13b, al
	test	r13b, 1
	cmovne	r10d, r11d
	mov	dword ptr [rbp - 112], r10d
	jmp	.LBB19_13
.LBB19_5:                               
	mov	eax, 1656716749
	mov	ecx, 3399390313
	mov	dl, byte ptr [rbp - 41]
	test	dl, 1
	cmovne	eax, ecx
	mov	dword ptr [rbp - 112], eax
	jmp	.LBB19_13
.LBB19_6:                               
	mov	rax, qword ptr [rbp - 56]
	add	rax, 24
	mov	rdi, rax
	call	_ZNK8CryptoPP8SecBlockIjNS_20AllocatorWithCleanupIjLb1EEEEcvPKjEv
	mov	rdi, qword ptr [rbp - 56]
	mov	ecx, dword ptr [rdi + 16]
	mov	esi, ecx
	mov	rdi, qword ptr [rbp - 96]
	mov	rdx, qword ptr [rdi]
	mov	rdi, qword ptr [rbp - 88]
	mov	rcx, qword ptr [rdi]
	mov	rdi, qword ptr [rbp - 80]
	mov	r8, qword ptr [rdi]
	mov	rdi, qword ptr [rbp - 72]
	mov	r9, qword ptr [rdi]
	mov	rdi, qword ptr [rbp - 64]
	mov	r10d, dword ptr [rdi]
	sub	rsp, 16
	mov	rdi, rax
	mov	dword ptr [rsp], r10d
	call	_ZN8CryptoPP40Rijndael_Enc_AdvancedProcessBlocks_AESNIEPKjmPKhS3_Phmj
	add	rsp, 16
	mov	rcx, qword ptr [rbp - 104]
	mov	qword ptr [rcx], rax
	mov	dword ptr [rbp - 112], 1204798914
	jmp	.LBB19_13
.LBB19_7:                               
	mov	eax, 607365719
	mov	ecx, 3867926680
	mov	edx, dword ptr [x.42]
	mov	esi, dword ptr [y.43]
	mov	edi, edx
	add	edi, -1164182520
	sub	edi, 1
	sub	edi, -1164182520
	imul	edx, edi
	and	edx, 1
	cmp	edx, 0
	sete	r8b
	cmp	esi, 10
	setl	r9b
	mov	r10b, r8b
	and	r10b, r9b
	xor	r8b, r9b
	or	r10b, r8b
	test	r10b, 1
	cmovne	eax, ecx
	mov	dword ptr [rbp - 112], eax
	jmp	.LBB19_13
.LBB19_8:                               
	mov	rax, qword ptr [rbp - 56]
	add	rax, 8
	mov	rcx, qword ptr [rbp - 96]
	mov	rsi, qword ptr [rcx]
	mov	rcx, qword ptr [rbp - 88]
	mov	rdx, qword ptr [rcx]
	mov	rcx, qword ptr [rbp - 80]
	mov	rcx, qword ptr [rcx]
	mov	rdi, qword ptr [rbp - 72]
	mov	r8, qword ptr [rdi]
	mov	rdi, qword ptr [rbp - 64]
	mov	r9d, dword ptr [rdi]
	mov	rdi, rax
	call	_ZNK8CryptoPP19BlockTransformation21AdvancedProcessBlocksEPKhS2_Phmj
	mov	r9d, 607365719
	mov	r10d, 2109209282
	mov	rcx, qword ptr [rbp - 104]
	mov	qword ptr [rcx], rax
	mov	r11d, dword ptr [x.42]
	mov	ebx, dword ptr [y.43]
	mov	r14d, r11d
	add	r14d, 480706925
	sub	r14d, 1
	sub	r14d, 480706925
	imul	r11d, r14d
	and	r11d, 1
	cmp	r11d, 0
	sete	r15b
	cmp	ebx, 10
	setl	r12b
	mov	r13b, r15b
	and	r13b, r12b
	xor	r15b, r12b
	or	r13b, r15b
	test	r13b, 1
	cmovne	r9d, r10d
	mov	dword ptr [rbp - 112], r9d
	jmp	.LBB19_13
.LBB19_9:                               
	mov	dword ptr [rbp - 112], 1204798914
	jmp	.LBB19_13
.LBB19_10:
	mov	rax, qword ptr [rbp - 104]
	mov	rax, qword ptr [rax]
	lea	rsp, [rbp - 40]
	pop	rbx
	pop	r12
	pop	r13
	pop	r14
	pop	r15
	pop	rbp
	ret
.LBB19_11:                              
	mov	rax, rsp
	add	rax, -16
	mov	rsp, rax
	mov	rax, rsp
	add	rax, -16
	mov	rsp, rax
	mov	rcx, rsp
	add	rcx, -16
	mov	rsp, rcx
	mov	rdx, rsp
	add	rdx, -16
	mov	rsp, rdx
	mov	rsi, rsp
	add	rsi, -16
	mov	rsp, rsi
	mov	rdi, rsp
	add	rdi, -16
	mov	rsp, rdi
	mov	r8, rsp
	add	r8, -16
	mov	rsp, r8
	mov	r9, qword ptr [rbp - 152] 
	mov	qword ptr [rax], r9
	mov	rax, qword ptr [rbp - 144] 
	mov	qword ptr [rcx], rax
	mov	rcx, qword ptr [rbp - 136] 
	mov	qword ptr [rdx], rcx
	mov	rdx, qword ptr [rbp - 128] 
	mov	qword ptr [rsi], rdx
	mov	rsi, qword ptr [rbp - 120] 
	mov	qword ptr [rdi], rsi
	mov	r10d, dword ptr [rbp - 156] 
	mov	dword ptr [r8], r10d
	call	_ZN8CryptoPP8HasAESNIEv
	mov	dword ptr [rbp - 112], -687781167
	mov	byte ptr [rbp - 201], al 
	jmp	.LBB19_13
.LBB19_12:                              
	mov	rax, qword ptr [rbp - 56]
	add	rax, 8
	mov	rcx, qword ptr [rbp - 96]
	mov	rsi, qword ptr [rcx]
	mov	rcx, qword ptr [rbp - 88]
	mov	rdx, qword ptr [rcx]
	mov	rcx, qword ptr [rbp - 80]
	mov	rcx, qword ptr [rcx]
	mov	rdi, qword ptr [rbp - 72]
	mov	r8, qword ptr [rdi]
	mov	rdi, qword ptr [rbp - 64]
	mov	r9d, dword ptr [rdi]
	mov	rdi, rax
	call	_ZNK8CryptoPP19BlockTransformation21AdvancedProcessBlocksEPKhS2_Phmj
	mov	rcx, qword ptr [rbp - 104]
	mov	qword ptr [rcx], rax
	mov	dword ptr [rbp - 112], -427040616
.LBB19_13:                              
	jmp	.LBB19_1
.Lfunc_end19:
	.size	_ZNK8CryptoPP8Rijndael3Enc21AdvancedProcessBlocksEPKhS3_Phmj, .Lfunc_end19-_ZNK8CryptoPP8Rijndael3Enc21AdvancedProcessBlocksEPKhS3_Phmj
	.cfi_endproc

	.section	.text._ZN8CryptoPP14BlockGetAndPutIjNS_10EnumToTypeINS_9ByteOrderELi0EEELb0ELb0EE3GetEPKv,"axG",@progbits,_ZN8CryptoPP14BlockGetAndPutIjNS_10EnumToTypeINS_9ByteOrderELi0EEELb0ELb0EE3GetEPKv,comdat
	.weak	_ZN8CryptoPP14BlockGetAndPutIjNS_10EnumToTypeINS_9ByteOrderELi0EEELb0ELb0EE3GetEPKv 
	.p2align	4, 0x90
	.type	_ZN8CryptoPP14BlockGetAndPutIjNS_10EnumToTypeINS_9ByteOrderELi0EEELb0ELb0EE3GetEPKv,@function
_ZN8CryptoPP14BlockGetAndPutIjNS_10EnumToTypeINS_9ByteOrderELi0EEELb0ELb0EE3GetEPKv: 
	.cfi_startproc

	push	rbp
.Lcfi71:
	.cfi_def_cfa_offset 16
.Lcfi72:
	.cfi_offset rbp, -16
	mov	rbp, rsp
.Lcfi73:
	.cfi_def_cfa_register rbp
	sub	rsp, 16
	lea	rax, [rbp - 8]
	mov	qword ptr [rbp - 16], rdi
	mov	rsi, qword ptr [rbp - 16]
	mov	rdi, rax
	call	_ZN8CryptoPP8GetBlockIjNS_10EnumToTypeINS_9ByteOrderELi0EEELb0EEC2EPKv
	mov	rax, qword ptr [rbp - 8]
	add	rsp, 16
	pop	rbp
	ret
.Lfunc_end20:
	.size	_ZN8CryptoPP14BlockGetAndPutIjNS_10EnumToTypeINS_9ByteOrderELi0EEELb0ELb0EE3GetEPKv, .Lfunc_end20-_ZN8CryptoPP14BlockGetAndPutIjNS_10EnumToTypeINS_9ByteOrderELi0EEELb0ELb0EE3GetEPKv
	.cfi_endproc

	.section	.text._ZN8CryptoPP8GetBlockIjNS_10EnumToTypeINS_9ByteOrderELi0EEELb0EEclIjEERS4_RT_,"axG",@progbits,_ZN8CryptoPP8GetBlockIjNS_10EnumToTypeINS_9ByteOrderELi0EEELb0EEclIjEERS4_RT_,comdat
	.weak	_ZN8CryptoPP8GetBlockIjNS_10EnumToTypeINS_9ByteOrderELi0EEELb0EEclIjEERS4_RT_ 
	.p2align	4, 0x90
	.type	_ZN8CryptoPP8GetBlockIjNS_10EnumToTypeINS_9ByteOrderELi0EEELb0EEclIjEERS4_RT_,@function
_ZN8CryptoPP8GetBlockIjNS_10EnumToTypeINS_9ByteOrderELi0EEELb0EEclIjEERS4_RT_: 
	.cfi_startproc

	push	rbp
.Lcfi74:
	.cfi_def_cfa_offset 16
.Lcfi75:
	.cfi_offset rbp, -16
	mov	rbp, rsp
.Lcfi76:
	.cfi_def_cfa_register rbp
	sub	rsp, 32
	mov	qword ptr [rbp - 8], rdi
	mov	qword ptr [rbp - 16], rsi
	mov	rsi, qword ptr [rbp - 8]
	mov	qword ptr [rbp - 24], rsi 
	call	_ZN8CryptoPP10EnumToTypeINS_9ByteOrderELi0EE6ToEnumEv
	xor	edi, edi
	mov	rsi, qword ptr [rbp - 24] 
	mov	rdx, qword ptr [rsi]
	mov	esi, eax
	call	_ZN8CryptoPP7GetWordIjEET_bNS_9ByteOrderEPKh
	mov	rdx, qword ptr [rbp - 16]
	mov	dword ptr [rdx], eax
	mov	rdx, qword ptr [rbp - 24] 
	mov	rcx, qword ptr [rdx]
	add	rcx, 4
	mov	qword ptr [rdx], rcx
	mov	rax, rdx
	add	rsp, 32
	pop	rbp
	ret
.Lfunc_end21:
	.size	_ZN8CryptoPP8GetBlockIjNS_10EnumToTypeINS_9ByteOrderELi0EEELb0EEclIjEERS4_RT_, .Lfunc_end21-_ZN8CryptoPP8GetBlockIjNS_10EnumToTypeINS_9ByteOrderELi0EEELb0EEclIjEERS4_RT_
	.cfi_endproc

	.section	.text._ZNK8CryptoPP8SecBlockIjNS_20AllocatorWithCleanupIjLb1EEEEcvPKjEv,"axG",@progbits,_ZNK8CryptoPP8SecBlockIjNS_20AllocatorWithCleanupIjLb1EEEEcvPKjEv,comdat
	.weak	_ZNK8CryptoPP8SecBlockIjNS_20AllocatorWithCleanupIjLb1EEEEcvPKjEv 
	.p2align	4, 0x90
	.type	_ZNK8CryptoPP8SecBlockIjNS_20AllocatorWithCleanupIjLb1EEEEcvPKjEv,@function
_ZNK8CryptoPP8SecBlockIjNS_20AllocatorWithCleanupIjLb1EEEEcvPKjEv: 

	push	rbp
	mov	rbp, rsp
	mov	qword ptr [rbp - 8], rdi
	mov	rdi, qword ptr [rbp - 8]
	mov	rax, qword ptr [rdi + 24]
	pop	rbp
	ret
.Lfunc_end22:
	.size	_ZNK8CryptoPP8SecBlockIjNS_20AllocatorWithCleanupIjLb1EEEEcvPKjEv, .Lfunc_end22-_ZNK8CryptoPP8SecBlockIjNS_20AllocatorWithCleanupIjLb1EEEEcvPKjEv

	.section	.text._ZN8CryptoPP16GetCacheLineSizeEv,"axG",@progbits,_ZN8CryptoPP16GetCacheLineSizeEv,comdat
	.weak	_ZN8CryptoPP16GetCacheLineSizeEv 
	.p2align	4, 0x90
	.type	_ZN8CryptoPP16GetCacheLineSizeEv,@function
_ZN8CryptoPP16GetCacheLineSizeEv:       
	.cfi_startproc

	push	rbp
.Lcfi77:
	.cfi_def_cfa_offset 16
.Lcfi78:
	.cfi_offset rbp, -16
	mov	rbp, rsp
.Lcfi79:
	.cfi_def_cfa_register rbp
	sub	rsp, 32
	mov	al, byte ptr [_ZN8CryptoPP18g_x86DetectionDoneE]
	mov	byte ptr [rbp - 1], al
	mov	dword ptr [rbp - 8], -2022723986
.LBB23_1:                               
	mov	eax, dword ptr [rbp - 8]
	mov	ecx, eax
	sub	ecx, -2022723986
	mov	dword ptr [rbp - 12], eax 
	mov	dword ptr [rbp - 16], ecx 
	je	.LBB23_3
	jmp	.LBB23_7
.LBB23_7:                               
	mov	eax, dword ptr [rbp - 12] 
	sub	eax, -1852203002
	mov	dword ptr [rbp - 20], eax 
	je	.LBB23_5
	jmp	.LBB23_8
.LBB23_8:                               
	mov	eax, dword ptr [rbp - 12] 
	sub	eax, -1788705791
	mov	dword ptr [rbp - 24], eax 
	je	.LBB23_4
	jmp	.LBB23_2
.LBB23_2:                               
	jmp	.LBB23_6
.LBB23_3:                               
	mov	eax, 2506261505
	mov	ecx, 2442764294
	mov	dl, byte ptr [rbp - 1]
	test	dl, 1
	cmovne	eax, ecx
	mov	dword ptr [rbp - 8], eax
	jmp	.LBB23_6
.LBB23_4:                               
	call	_ZN8CryptoPP17DetectX86FeaturesEv
	mov	dword ptr [rbp - 8], -1852203002
	jmp	.LBB23_6
.LBB23_5:
	mov	eax, dword ptr [_ZN8CryptoPP15g_cacheLineSizeE]
	add	rsp, 32
	pop	rbp
	ret
.LBB23_6:                               
	jmp	.LBB23_1
.Lfunc_end23:
	.size	_ZN8CryptoPP16GetCacheLineSizeEv, .Lfunc_end23-_ZN8CryptoPP16GetCacheLineSizeEv
	.cfi_endproc

	.section	.text._ZN8CryptoPP8PutBlockIjNS_10EnumToTypeINS_9ByteOrderELi0EEELb0EEC2EPKvPv,"axG",@progbits,_ZN8CryptoPP8PutBlockIjNS_10EnumToTypeINS_9ByteOrderELi0EEELb0EEC2EPKvPv,comdat
	.weak	_ZN8CryptoPP8PutBlockIjNS_10EnumToTypeINS_9ByteOrderELi0EEELb0EEC2EPKvPv 
	.p2align	4, 0x90
	.type	_ZN8CryptoPP8PutBlockIjNS_10EnumToTypeINS_9ByteOrderELi0EEELb0EEC2EPKvPv,@function
_ZN8CryptoPP8PutBlockIjNS_10EnumToTypeINS_9ByteOrderELi0EEELb0EEC2EPKvPv: 

	push	rbp
	mov	rbp, rsp
	mov	qword ptr [rbp - 8], rdi
	mov	qword ptr [rbp - 16], rsi
	mov	qword ptr [rbp - 24], rdx
	mov	rdx, qword ptr [rbp - 8]
	mov	rsi, qword ptr [rbp - 16]
	mov	qword ptr [rdx], rsi
	mov	rsi, qword ptr [rbp - 24]
	mov	qword ptr [rdx + 8], rsi
	pop	rbp
	ret
.Lfunc_end24:
	.size	_ZN8CryptoPP8PutBlockIjNS_10EnumToTypeINS_9ByteOrderELi0EEELb0EEC2EPKvPv, .Lfunc_end24-_ZN8CryptoPP8PutBlockIjNS_10EnumToTypeINS_9ByteOrderELi0EEELb0EEC2EPKvPv

	.section	.text._ZN8CryptoPP8PutBlockIjNS_10EnumToTypeINS_9ByteOrderELi0EEELb0EEclIjEERS4_T_,"axG",@progbits,_ZN8CryptoPP8PutBlockIjNS_10EnumToTypeINS_9ByteOrderELi0EEELb0EEclIjEERS4_T_,comdat
	.weak	_ZN8CryptoPP8PutBlockIjNS_10EnumToTypeINS_9ByteOrderELi0EEELb0EEclIjEERS4_T_ 
	.p2align	4, 0x90
	.type	_ZN8CryptoPP8PutBlockIjNS_10EnumToTypeINS_9ByteOrderELi0EEELb0EEclIjEERS4_T_,@function
_ZN8CryptoPP8PutBlockIjNS_10EnumToTypeINS_9ByteOrderELi0EEELb0EEclIjEERS4_T_: 
	.cfi_startproc

	push	rbp
.Lcfi80:
	.cfi_def_cfa_offset 16
.Lcfi81:
	.cfi_offset rbp, -16
	mov	rbp, rsp
.Lcfi82:
	.cfi_def_cfa_register rbp
	push	r15
	push	r14
	push	r12
	push	rbx
	sub	rsp, 64
.Lcfi83:
	.cfi_offset rbx, -48
.Lcfi84:
	.cfi_offset r12, -40
.Lcfi85:
	.cfi_offset r14, -32
.Lcfi86:
	.cfi_offset r15, -24
	mov	qword ptr [rbp - 56], rdi
	mov	dword ptr [rbp - 60], esi
	mov	rdi, qword ptr [rbp - 56]
	mov	qword ptr [rbp - 48], rdi
	call	_ZN8CryptoPP10EnumToTypeINS_9ByteOrderELi0EE6ToEnumEv
	xor	edi, edi
	mov	rcx, qword ptr [rbp - 48]
	mov	rdx, qword ptr [rcx + 8]
	mov	ecx, dword ptr [rbp - 60]
	mov	r8, qword ptr [rbp - 48]
	mov	r8, qword ptr [r8]
	mov	esi, eax
	call	_ZN8CryptoPP7PutWordIjEEvbNS_9ByteOrderEPhT_PKh
	mov	rdx, qword ptr [rbp - 48]
	mov	r8, qword ptr [rdx + 8]
	add	r8, 4
	mov	qword ptr [rdx + 8], r8
	mov	rdx, qword ptr [rbp - 48]
	mov	rdx, qword ptr [rdx]
	mov	qword ptr [rbp - 40], rdx
	mov	dword ptr [rbp - 64], -24576670
.LBB25_1:                               
	mov	eax, dword ptr [rbp - 64]
	mov	ecx, eax
	sub	ecx, -898787478
	mov	dword ptr [rbp - 68], eax 
	mov	dword ptr [rbp - 72], ecx 
	je	.LBB25_4
	jmp	.LBB25_10
.LBB25_10:                              
	mov	eax, dword ptr [rbp - 68] 
	sub	eax, -24576670
	mov	dword ptr [rbp - 76], eax 
	je	.LBB25_3
	jmp	.LBB25_11
.LBB25_11:                              
	mov	eax, dword ptr [rbp - 68] 
	sub	eax, -9962171
	mov	dword ptr [rbp - 80], eax 
	je	.LBB25_7
	jmp	.LBB25_12
.LBB25_12:                              
	mov	eax, dword ptr [rbp - 68] 
	sub	eax, 378793295
	mov	dword ptr [rbp - 84], eax 
	je	.LBB25_6
	jmp	.LBB25_13
.LBB25_13:                              
	mov	eax, dword ptr [rbp - 68] 
	sub	eax, 1338518370
	mov	dword ptr [rbp - 88], eax 
	je	.LBB25_8
	jmp	.LBB25_14
.LBB25_14:                              
	mov	eax, dword ptr [rbp - 68] 
	sub	eax, 1430180740
	mov	dword ptr [rbp - 92], eax 
	je	.LBB25_5
	jmp	.LBB25_2
.LBB25_2:                               
	jmp	.LBB25_9
.LBB25_3:                               
	mov	eax, 1430180740
	mov	ecx, 3396179818
	mov	rdx, qword ptr [rbp - 40]
	cmp	rdx, 0
	cmovne	eax, ecx
	mov	dword ptr [rbp - 64], eax
	jmp	.LBB25_9
.LBB25_4:                               
	mov	rax, qword ptr [rbp - 48]
	mov	rcx, qword ptr [rax]
	add	rcx, 4
	mov	qword ptr [rax], rcx
	mov	dword ptr [rbp - 64], 1430180740
	jmp	.LBB25_9
.LBB25_5:                               
	mov	eax, 1338518370
	mov	ecx, 378793295
	mov	dl, 1
	xor	esi, esi
	mov	edi, dword ptr [x.54]
	mov	r8d, dword ptr [y.55]
	sub	esi, 1
	mov	r9d, edi
	add	r9d, esi
	imul	edi, r9d
	and	edi, 1
	cmp	edi, 0
	sete	r10b
	cmp	r8d, 10
	setl	r11b
	mov	bl, r10b
	xor	bl, -1
	mov	r14b, r11b
	xor	r14b, -1
	xor	dl, 0
	mov	r15b, bl
	and	r15b, 0
	and	r10b, dl
	mov	r12b, r14b
	and	r12b, 0
	and	r11b, dl
	or	r15b, r10b
	or	r12b, r11b
	xor	r15b, r12b
	or	bl, r14b
	xor	bl, -1
	or	dl, 0
	and	bl, dl
	or	r15b, bl
	test	r15b, 1
	cmovne	eax, ecx
	mov	dword ptr [rbp - 64], eax
	jmp	.LBB25_9
.LBB25_6:                               
	mov	eax, 1338518370
	mov	ecx, 4285005125
	mov	edx, dword ptr [x.54]
	mov	esi, dword ptr [y.55]
	mov	edi, edx
	add	edi, -1733404277
	sub	edi, 1
	sub	edi, -1733404277
	imul	edx, edi
	and	edx, 1
	cmp	edx, 0
	sete	r8b
	cmp	esi, 10
	setl	r9b
	mov	r10b, r8b
	and	r10b, r9b
	xor	r8b, r9b
	or	r10b, r8b
	test	r10b, 1
	cmovne	eax, ecx
	mov	dword ptr [rbp - 64], eax
	jmp	.LBB25_9
.LBB25_7:
	mov	rax, qword ptr [rbp - 48]
	add	rsp, 64
	pop	rbx
	pop	r12
	pop	r14
	pop	r15
	pop	rbp
	ret
.LBB25_8:                               
	mov	dword ptr [rbp - 64], 378793295
.LBB25_9:                               
	jmp	.LBB25_1
.Lfunc_end25:
	.size	_ZN8CryptoPP8PutBlockIjNS_10EnumToTypeINS_9ByteOrderELi0EEELb0EEclIjEERS4_T_, .Lfunc_end25-_ZN8CryptoPP8PutBlockIjNS_10EnumToTypeINS_9ByteOrderELi0EEELb0EEclIjEERS4_T_
	.cfi_endproc

	.text
	.globl	_ZThn8_NK8CryptoPP8Rijndael3Enc18ProcessAndXorBlockEPKhS3_Ph 
	.p2align	4, 0x90
	.type	_ZThn8_NK8CryptoPP8Rijndael3Enc18ProcessAndXorBlockEPKhS3_Ph,@function
_ZThn8_NK8CryptoPP8Rijndael3Enc18ProcessAndXorBlockEPKhS3_Ph: 
	.cfi_startproc

	push	rbp
.Lcfi87:
	.cfi_def_cfa_offset 16
.Lcfi88:
	.cfi_offset rbp, -16
	mov	rbp, rsp
.Lcfi89:
	.cfi_def_cfa_register rbp
	mov	qword ptr [rbp - 8], rdi
	mov	qword ptr [rbp - 16], rsi
	mov	qword ptr [rbp - 24], rdx
	mov	qword ptr [rbp - 32], rcx
	mov	rcx, qword ptr [rbp - 8]
	add	rcx, -8
	mov	rsi, qword ptr [rbp - 16]
	mov	rdx, qword ptr [rbp - 24]
	mov	rdi, qword ptr [rbp - 32]
	mov	qword ptr [rbp - 40], rdi 
	mov	rdi, rcx
	mov	rcx, qword ptr [rbp - 40] 
	pop	rbp
	jmp	_ZNK8CryptoPP8Rijndael3Enc18ProcessAndXorBlockEPKhS3_Ph 
.Lfunc_end26:
	.size	_ZThn8_NK8CryptoPP8Rijndael3Enc18ProcessAndXorBlockEPKhS3_Ph, .Lfunc_end26-_ZThn8_NK8CryptoPP8Rijndael3Enc18ProcessAndXorBlockEPKhS3_Ph
	.cfi_endproc

	.globl	_ZNK8CryptoPP8Rijndael3Dec18ProcessAndXorBlockEPKhS3_Ph 
	.p2align	4, 0x90
	.type	_ZNK8CryptoPP8Rijndael3Dec18ProcessAndXorBlockEPKhS3_Ph,@function
_ZNK8CryptoPP8Rijndael3Dec18ProcessAndXorBlockEPKhS3_Ph: 
	.cfi_startproc

	push	rbp
.Lcfi90:
	.cfi_def_cfa_offset 16
.Lcfi91:
	.cfi_offset rbp, -16
	mov	rbp, rsp
.Lcfi92:
	.cfi_def_cfa_register rbp
	push	r15
	push	r14
	push	r13
	push	r12
	push	rbx
	sub	rsp, 472
.Lcfi93:
	.cfi_offset rbx, -56
.Lcfi94:
	.cfi_offset r12, -48
.Lcfi95:
	.cfi_offset r13, -40
.Lcfi96:
	.cfi_offset r14, -32
.Lcfi97:
	.cfi_offset r15, -24
	mov	eax, dword ptr [x.58]
	mov	r8d, dword ptr [y.59]
	mov	r9d, eax
	add	r9d, 600130687
	sub	r9d, 1
	sub	r9d, 600130687
	imul	eax, r9d
	and	eax, 1
	cmp	eax, 0
	sete	r10b
	and	r10b, 1
	mov	byte ptr [rbp - 226], r10b
	cmp	r8d, 10
	setl	r10b
	and	r10b, 1
	mov	byte ptr [rbp - 225], r10b
	mov	dword ptr [rbp - 232], 1539228557
	mov	qword ptr [rbp - 240], rdx 
	mov	qword ptr [rbp - 248], rsi 
	mov	qword ptr [rbp - 256], rdi 
	mov	qword ptr [rbp - 264], rcx 
.LBB27_1:                               
	mov	eax, dword ptr [rbp - 232]
	mov	ecx, eax
	sub	ecx, -2092920218
	mov	dword ptr [rbp - 268], eax 
	mov	dword ptr [rbp - 272], ecx 
	je	.LBB27_17
	jmp	.LBB27_21
.LBB27_21:                              
	mov	eax, dword ptr [rbp - 268] 
	sub	eax, -1958014675
	mov	dword ptr [rbp - 276], eax 
	je	.LBB27_7
	jmp	.LBB27_22
.LBB27_22:                              
	mov	eax, dword ptr [rbp - 268] 
	sub	eax, -1751389505
	mov	dword ptr [rbp - 280], eax 
	je	.LBB27_11
	jmp	.LBB27_23
.LBB27_23:                              
	mov	eax, dword ptr [rbp - 268] 
	sub	eax, -711417794
	mov	dword ptr [rbp - 284], eax 
	je	.LBB27_10
	jmp	.LBB27_24
.LBB27_24:                              
	mov	eax, dword ptr [rbp - 268] 
	sub	eax, -698974380
	mov	dword ptr [rbp - 288], eax 
	je	.LBB27_6
	jmp	.LBB27_25
.LBB27_25:                              
	mov	eax, dword ptr [rbp - 268] 
	sub	eax, -293424484
	mov	dword ptr [rbp - 292], eax 
	je	.LBB27_18
	jmp	.LBB27_26
.LBB27_26:                              
	mov	eax, dword ptr [rbp - 268] 
	sub	eax, -177389769
	mov	dword ptr [rbp - 296], eax 
	je	.LBB27_4
	jmp	.LBB27_27
.LBB27_27:                              
	mov	eax, dword ptr [rbp - 268] 
	sub	eax, -148539628
	mov	dword ptr [rbp - 300], eax 
	je	.LBB27_9
	jmp	.LBB27_28
.LBB27_28:                              
	mov	eax, dword ptr [rbp - 268] 
	sub	eax, 207191246
	mov	dword ptr [rbp - 304], eax 
	je	.LBB27_15
	jmp	.LBB27_29
.LBB27_29:                              
	mov	eax, dword ptr [rbp - 268] 
	sub	eax, 664604742
	mov	dword ptr [rbp - 308], eax 
	je	.LBB27_8
	jmp	.LBB27_30
.LBB27_30:                              
	mov	eax, dword ptr [rbp - 268] 
	sub	eax, 894787694
	mov	dword ptr [rbp - 312], eax 
	je	.LBB27_14
	jmp	.LBB27_31
.LBB27_31:                              
	mov	eax, dword ptr [rbp - 268] 
	sub	eax, 1182756337
	mov	dword ptr [rbp - 316], eax 
	je	.LBB27_5
	jmp	.LBB27_32
.LBB27_32:                              
	mov	eax, dword ptr [rbp - 268] 
	sub	eax, 1333591480
	mov	dword ptr [rbp - 320], eax 
	je	.LBB27_12
	jmp	.LBB27_33
.LBB27_33:                              
	mov	eax, dword ptr [rbp - 268] 
	sub	eax, 1339452028
	mov	dword ptr [rbp - 324], eax 
	je	.LBB27_19
	jmp	.LBB27_34
.LBB27_34:                              
	mov	eax, dword ptr [rbp - 268] 
	sub	eax, 1539228557
	mov	dword ptr [rbp - 328], eax 
	je	.LBB27_3
	jmp	.LBB27_35
.LBB27_35:                              
	mov	eax, dword ptr [rbp - 268] 
	sub	eax, 1579459967
	mov	dword ptr [rbp - 332], eax 
	je	.LBB27_13
	jmp	.LBB27_36
.LBB27_36:                              
	mov	eax, dword ptr [rbp - 268] 
	sub	eax, 1732073522
	mov	dword ptr [rbp - 336], eax 
	je	.LBB27_16
	jmp	.LBB27_2
.LBB27_2:                               
	jmp	.LBB27_20
.LBB27_3:                               
	mov	eax, 4001542812
	mov	ecx, 4117577527
	mov	dl, 1
	mov	sil, byte ptr [rbp - 226]
	mov	dil, byte ptr [rbp - 225]
	mov	r8b, sil
	xor	r8b, -1
	mov	r9b, dil
	xor	r9b, -1
	xor	dl, 1
	mov	r10b, r8b
	and	r10b, -1
	and	sil, dl
	mov	r11b, r9b
	and	r11b, -1
	and	dil, dl
	or	r10b, sil
	or	r11b, dil
	xor	r10b, r11b
	or	r8b, r9b
	xor	r8b, -1
	or	dl, 1
	and	r8b, dl
	or	r10b, r8b
	test	r10b, 1
	cmovne	eax, ecx
	mov	dword ptr [rbp - 232], eax
	jmp	.LBB27_20
.LBB27_4:                               
	mov	rax, rsp
	add	rax, -16
	mov	rsp, rax
	mov	rcx, rsp
	add	rcx, -16
	mov	rsp, rcx
	mov	qword ptr [rbp - 224], rcx
	mov	rcx, rsp
	add	rcx, -16
	mov	rsp, rcx
	mov	qword ptr [rbp - 216], rcx
	mov	rcx, rsp
	add	rcx, -16
	mov	rsp, rcx
	mov	qword ptr [rbp - 208], rcx
	mov	rcx, rsp
	add	rcx, -16
	mov	rsp, rcx
	mov	qword ptr [rbp - 200], rcx
	mov	rcx, rsp
	add	rcx, -16
	mov	rsp, rcx
	mov	qword ptr [rbp - 192], rcx
	mov	rcx, rsp
	add	rcx, -16
	mov	rsp, rcx
	mov	qword ptr [rbp - 184], rcx
	mov	rcx, rsp
	add	rcx, -16
	mov	rsp, rcx
	mov	qword ptr [rbp - 176], rcx
	mov	rcx, rsp
	add	rcx, -16
	mov	rsp, rcx
	mov	qword ptr [rbp - 168], rcx
	mov	rcx, rsp
	add	rcx, -16
	mov	rsp, rcx
	mov	qword ptr [rbp - 160], rcx
	mov	rcx, rsp
	add	rcx, -16
	mov	rsp, rcx
	mov	qword ptr [rbp - 152], rcx
	mov	rcx, rsp
	add	rcx, -16
	mov	rsp, rcx
	mov	qword ptr [rbp - 144], rcx
	mov	rcx, rsp
	add	rcx, -16
	mov	rsp, rcx
	mov	qword ptr [rbp - 136], rcx
	mov	rcx, rsp
	add	rcx, -16
	mov	rsp, rcx
	mov	qword ptr [rbp - 128], rcx
	mov	rcx, rsp
	add	rcx, -16
	mov	rsp, rcx
	mov	qword ptr [rbp - 120], rcx
	mov	rcx, rsp
	add	rcx, -16
	mov	rsp, rcx
	mov	qword ptr [rbp - 112], rcx
	mov	rcx, rsp
	add	rcx, -16
	mov	rsp, rcx
	mov	qword ptr [rbp - 104], rcx
	mov	rcx, rsp
	add	rcx, -16
	mov	rsp, rcx
	mov	qword ptr [rbp - 96], rcx
	mov	rcx, rsp
	add	rcx, -16
	mov	rsp, rcx
	mov	qword ptr [rbp - 88], rcx
	mov	rcx, rsp
	add	rcx, -16
	mov	rsp, rcx
	mov	qword ptr [rbp - 80], rcx
	mov	rcx, rsp
	add	rcx, -16
	mov	rsp, rcx
	mov	qword ptr [rbp - 72], rcx
	mov	rcx, rsp
	add	rcx, -16
	mov	rsp, rcx
	mov	qword ptr [rbp - 64], rcx
	mov	rcx, qword ptr [rbp - 256] 
	mov	qword ptr [rax], rcx
	mov	rdx, qword ptr [rbp - 224]
	mov	rsi, qword ptr [rbp - 248] 
	mov	qword ptr [rdx], rsi
	mov	rdx, qword ptr [rbp - 216]
	mov	rdi, qword ptr [rbp - 240] 
	mov	qword ptr [rdx], rdi
	mov	rdx, qword ptr [rbp - 208]
	mov	r8, qword ptr [rbp - 264] 
	mov	qword ptr [rdx], r8
	mov	rax, qword ptr [rax]
	mov	qword ptr [rbp - 56], rax
	call	_ZN8CryptoPP8HasAESNIEv
	mov	r9d, 4001542812
	mov	r10d, 1182756337
	mov	r11b, 1
	xor	ebx, ebx
	and	al, 1
	mov	byte ptr [rbp - 41], al
	mov	r14d, dword ptr [x.58]
	mov	r15d, dword ptr [y.59]
	sub	ebx, 1
	mov	r12d, r14d
	add	r12d, ebx
	imul	r14d, r12d
	and	r14d, 1
	cmp	r14d, 0
	sete	al
	cmp	r15d, 10
	setl	r13b
	mov	cl, al
	xor	cl, -1
	mov	dl, r13b
	xor	dl, -1
	xor	r11b, 1
	mov	sil, cl
	and	sil, -1
	and	al, r11b
	mov	dil, dl
	and	dil, -1
	and	r13b, r11b
	or	sil, al
	or	dil, r13b
	xor	sil, dil
	or	cl, dl
	xor	cl, -1
	or	r11b, 1
	and	cl, r11b
	or	sil, cl
	test	sil, 1
	cmovne	r9d, r10d
	mov	dword ptr [rbp - 232], r9d
	jmp	.LBB27_20
.LBB27_5:                               
	mov	eax, 2336952621
	mov	ecx, 3595992916
	mov	dl, byte ptr [rbp - 41]
	test	dl, 1
	cmovne	eax, ecx
	mov	dword ptr [rbp - 232], eax
	jmp	.LBB27_20
.LBB27_6:                               
	mov	eax, 16
	mov	r8d, eax
	xor	r9d, r9d
	mov	rcx, qword ptr [rbp - 224]
	mov	rsi, qword ptr [rcx]
	mov	rcx, qword ptr [rbp - 216]
	mov	rdx, qword ptr [rcx]
	mov	rcx, qword ptr [rbp - 208]
	mov	rcx, qword ptr [rcx]
	mov	rdi, qword ptr [rbp - 56]
	call	_ZNK8CryptoPP8Rijndael3Dec21AdvancedProcessBlocksEPKhS3_Phmj
	mov	dword ptr [rbp - 232], -2092920218
	mov	qword ptr [rbp - 344], rax 
	jmp	.LBB27_20
.LBB27_7:                               
	mov	eax, 1339452028
	mov	ecx, 664604742
	mov	dl, 1
	mov	esi, dword ptr [x.58]
	mov	edi, dword ptr [y.59]
	mov	r8d, esi
	add	r8d, -676204574
	sub	r8d, 1
	sub	r8d, -676204574
	imul	esi, r8d
	and	esi, 1
	cmp	esi, 0
	sete	r9b
	cmp	edi, 10
	setl	r10b
	mov	r11b, r9b
	xor	r11b, -1
	mov	bl, r10b
	xor	bl, -1
	xor	dl, 0
	mov	r14b, r11b
	and	r14b, 0
	and	r9b, dl
	mov	r15b, bl
	and	r15b, 0
	and	r10b, dl
	or	r14b, r9b
	or	r15b, r10b
	xor	r14b, r15b
	or	r11b, bl
	xor	r11b, -1
	or	dl, 0
	and	r11b, dl
	or	r14b, r11b
	test	r14b, 1
	cmovne	eax, ecx
	mov	dword ptr [rbp - 232], eax
	jmp	.LBB27_20
.LBB27_8:                               
	mov	rax, qword ptr [rbp - 224]
	mov	rdi, qword ptr [rax]
	call	_ZN8CryptoPP14BlockGetAndPutIjNS_10EnumToTypeINS_9ByteOrderELi0EEELb0ELb0EE3GetEPKv
	mov	rdi, qword ptr [rbp - 136]
	mov	qword ptr [rdi], rax
	mov	rsi, qword ptr [rbp - 200]
	mov	rdi, qword ptr [rbp - 136]
	call	_ZN8CryptoPP8GetBlockIjNS_10EnumToTypeINS_9ByteOrderELi0EEELb0EEclIjEERS4_RT_
	mov	rsi, qword ptr [rbp - 192]
	mov	rdi, rax
	call	_ZN8CryptoPP8GetBlockIjNS_10EnumToTypeINS_9ByteOrderELi0EEELb0EEclIjEERS4_RT_
	mov	rsi, qword ptr [rbp - 184]
	mov	rdi, rax
	call	_ZN8CryptoPP8GetBlockIjNS_10EnumToTypeINS_9ByteOrderELi0EEELb0EEclIjEERS4_RT_
	mov	rsi, qword ptr [rbp - 176]
	mov	rdi, rax
	call	_ZN8CryptoPP8GetBlockIjNS_10EnumToTypeINS_9ByteOrderELi0EEELb0EEclIjEERS4_RT_
	mov	rsi, qword ptr [rbp - 56]
	add	rsi, 24
	mov	rdi, rsi
	mov	qword ptr [rbp - 352], rax 
	call	_ZNK8CryptoPP8SecBlockIjNS_20AllocatorWithCleanupIjLb1EEEEcvPKjEv
	mov	ecx, 4294967295
	mov	rsi, qword ptr [rbp - 128]
	mov	qword ptr [rsi], rax
	mov	rax, qword ptr [rbp - 128]
	mov	rax, qword ptr [rax]
	mov	edx, dword ptr [rax]
	mov	rax, qword ptr [rbp - 200]
	mov	r8d, dword ptr [rax]
	mov	r9d, r8d
	xor	r9d, -1
	and	r9d, 4225607261
	mov	r10d, ecx
	xor	r10d, 4225607261
	and	r8d, r10d
	mov	r11d, edx
	xor	r11d, -1
	and	r11d, -69360035
	and	edx, r10d
	or	r9d, r8d
	or	r11d, edx
	xor	r9d, r11d
	mov	rax, qword ptr [rbp - 200]
	mov	dword ptr [rax], r9d
	mov	rax, qword ptr [rbp - 128]
	mov	rax, qword ptr [rax]
	mov	edx, dword ptr [rax + 4]
	mov	rax, qword ptr [rbp - 192]
	mov	r8d, dword ptr [rax]
	mov	r9d, r8d
	xor	r9d, -1
	and	r9d, 2080887285
	xor	ecx, 2080887285
	and	r8d, ecx
	mov	r10d, edx
	xor	r10d, -1
	and	r10d, 2080887285
	and	edx, ecx
	or	r9d, r8d
	or	r10d, edx
	xor	r9d, r10d
	mov	rax, qword ptr [rbp - 192]
	mov	dword ptr [rax], r9d
	mov	rax, qword ptr [rbp - 128]
	mov	rax, qword ptr [rax]
	mov	ecx, dword ptr [rax + 8]
	mov	rax, qword ptr [rbp - 184]
	mov	edx, dword ptr [rax]
	mov	r8d, edx
	xor	r8d, -1
	mov	r9d, ecx
	and	r9d, r8d
	xor	ecx, -1
	and	edx, ecx
	or	r9d, edx
	mov	rax, qword ptr [rbp - 184]
	mov	dword ptr [rax], r9d
	mov	rax, qword ptr [rbp - 128]
	mov	rax, qword ptr [rax]
	mov	ecx, dword ptr [rax + 12]
	mov	rax, qword ptr [rbp - 176]
	mov	edx, dword ptr [rax]
	mov	r8d, edx
	xor	r8d, -1
	mov	r9d, ecx
	and	r9d, r8d
	xor	ecx, -1
	and	edx, ecx
	or	r9d, edx
	mov	rax, qword ptr [rbp - 176]
	mov	dword ptr [rax], r9d
	mov	rax, qword ptr [rbp - 128]
	mov	rax, qword ptr [rax]
	mov	ecx, dword ptr [rax + 16]
	mov	rax, qword ptr [rbp - 168]
	mov	dword ptr [rax], ecx
	mov	rax, qword ptr [rbp - 128]
	mov	rax, qword ptr [rax]
	mov	ecx, dword ptr [rax + 20]
	mov	rax, qword ptr [rbp - 160]
	mov	dword ptr [rax], ecx
	mov	rax, qword ptr [rbp - 128]
	mov	rax, qword ptr [rax]
	mov	ecx, dword ptr [rax + 24]
	mov	rax, qword ptr [rbp - 152]
	mov	dword ptr [rax], ecx
	mov	rax, qword ptr [rbp - 128]
	mov	rax, qword ptr [rax]
	mov	ecx, dword ptr [rax + 28]
	mov	rax, qword ptr [rbp - 144]
	mov	dword ptr [rax], ecx
	mov	rax, qword ptr [rbp - 128]
	mov	rax, qword ptr [rax]
	add	rax, 32
	mov	rsi, qword ptr [rbp - 128]
	mov	qword ptr [rsi], rax
	call	_ZN8CryptoPP16GetCacheLineSizeEv
	mov	ecx, 1339452028
	mov	edx, 4146427668
	mov	bl, 1
	mov	rsi, qword ptr [rbp - 120]
	mov	dword ptr [rsi], eax
	mov	rsi, qword ptr [rbp - 104]
	mov	dword ptr [rsi], 0
	mov	rsi, qword ptr [rbp - 104]
	mov	eax, dword ptr [rsi]
	mov	rsi, qword ptr [rbp - 96]
	mov	dword ptr [rsi], eax
	mov	rsi, qword ptr [rbp - 112]
	mov	dword ptr [rsi], 0
	mov	eax, dword ptr [x.58]
	mov	r8d, dword ptr [y.59]
	mov	r9d, eax
	add	r9d, -1677438029
	sub	r9d, 1
	sub	r9d, -1677438029
	imul	eax, r9d
	and	eax, 1
	cmp	eax, 0
	sete	r14b
	cmp	r8d, 10
	setl	r15b
	mov	r12b, r14b
	xor	r12b, -1
	mov	r13b, r15b
	xor	r13b, -1
	xor	bl, 0
	mov	al, r12b
	and	al, 0
	and	r14b, bl
	mov	sil, r13b
	and	sil, 0
	and	r15b, bl
	or	al, r14b
	or	sil, r15b
	xor	al, sil
	or	r12b, r13b
	xor	r12b, -1
	or	bl, 0
	and	r12b, bl
	or	al, r12b
	test	al, 1
	cmovne	ecx, edx
	mov	dword ptr [rbp - 232], ecx
	jmp	.LBB27_20
.LBB27_9:                               
	mov	dword ptr [rbp - 232], -711417794
	jmp	.LBB27_20
.LBB27_10:                              
	mov	eax, 1579459967
	mov	ecx, 2543577791
	mov	rdx, qword ptr [rbp - 112]
	cmp	dword ptr [rdx], 2048
	cmovb	eax, ecx
	mov	dword ptr [rbp - 232], eax
	jmp	.LBB27_20
.LBB27_11:                              
	mov	rax, qword ptr [rbp - 112]
	mov	ecx, dword ptr [rax]
	mov	eax, ecx
	mov	ecx, dword ptr [rax + _ZN8CryptoPPL2TdE]
	mov	rax, qword ptr [rbp - 96]
	mov	edx, dword ptr [rax]
	xor	ecx, -1
	mov	esi, edx
	xor	esi, ecx
	and	esi, edx
	mov	rax, qword ptr [rbp - 96]
	mov	dword ptr [rax], esi
	mov	dword ptr [rbp - 232], 1333591480
	jmp	.LBB27_20
.LBB27_12:                              
	xor	eax, eax
	mov	rcx, qword ptr [rbp - 120]
	mov	edx, dword ptr [rcx]
	mov	rcx, qword ptr [rbp - 112]
	mov	esi, dword ptr [rcx]
	mov	edi, eax
	sub	edi, esi
	mov	esi, eax
	sub	esi, edx
	add	edi, esi
	sub	eax, edi
	mov	rcx, qword ptr [rbp - 112]
	mov	dword ptr [rcx], eax
	mov	dword ptr [rbp - 232], -711417794
	jmp	.LBB27_20
.LBB27_13:                              
	mov	eax, 4294967295
	movabs	rcx, -7816746680700795667
	mov	rdx, -1
	mov	rsi, qword ptr [_ZN8CryptoPPL2TdE+2040]
	mov	rdi, qword ptr [rbp - 96]
	mov	r8d, dword ptr [rdi]
	mov	edi, r8d
	xor	rdi, -1
	xor	rsi, -1
	xor	rdx, rcx
	or	rdi, rsi
	or	rdx, rcx
	xor	rdi, -1
	and	rdi, rdx
	mov	r8d, edi
	mov	rcx, qword ptr [rbp - 96]
	mov	dword ptr [rcx], r8d
	mov	rcx, qword ptr [rbp - 96]
	mov	r8d, dword ptr [rcx]
	mov	rcx, qword ptr [rbp - 200]
	mov	r9d, dword ptr [rcx]
	mov	r10d, r9d
	xor	r10d, -1
	mov	r11d, r8d
	xor	r11d, -1
	mov	ebx, eax
	xor	ebx, 2331769199
	mov	r14d, r10d
	and	r14d, -1963198097
	and	r9d, ebx
	mov	r15d, r11d
	and	r15d, -1963198097
	and	r8d, ebx
	or	r14d, r9d
	or	r15d, r8d
	xor	r14d, r15d
	or	r10d, r11d
	xor	r10d, -1
	or	ebx, 2331769199
	and	r10d, ebx
	or	r14d, r10d
	mov	rcx, qword ptr [rbp - 200]
	mov	dword ptr [rcx], r14d
	mov	rcx, qword ptr [rbp - 96]
	mov	r8d, dword ptr [rcx]
	mov	rcx, qword ptr [rbp - 192]
	mov	r9d, dword ptr [rcx]
	mov	r10d, r9d
	and	r10d, r8d
	xor	r9d, r8d
	or	r10d, r9d
	mov	rcx, qword ptr [rbp - 192]
	mov	dword ptr [rcx], r10d
	mov	rcx, qword ptr [rbp - 96]
	mov	r8d, dword ptr [rcx]
	mov	rcx, qword ptr [rbp - 184]
	mov	r9d, dword ptr [rcx]
	mov	r10d, r9d
	xor	r10d, -1
	mov	r11d, r8d
	xor	r11d, -1
	mov	ebx, eax
	xor	ebx, 3747192783
	mov	r14d, r10d
	and	r14d, -547774513
	and	r9d, ebx
	mov	r15d, r11d
	and	r15d, -547774513
	and	r8d, ebx
	or	r14d, r9d
	or	r15d, r8d
	xor	r14d, r15d
	or	r10d, r11d
	xor	r10d, -1
	or	ebx, 3747192783
	and	r10d, ebx
	or	r14d, r10d
	mov	rcx, qword ptr [rbp - 184]
	mov	dword ptr [rcx], r14d
	mov	rcx, qword ptr [rbp - 96]
	mov	r8d, dword ptr [rcx]
	mov	rcx, qword ptr [rbp - 176]
	mov	r9d, dword ptr [rcx]
	mov	r10d, r9d
	and	r10d, r8d
	xor	r9d, r8d
	or	r10d, r9d
	mov	rcx, qword ptr [rbp - 176]
	mov	dword ptr [rcx], r10d
	mov	rcx, qword ptr [rbp - 176]
	mov	r8d, dword ptr [rcx]
	mov	r12b, r8b
	movzx	r8d, r12b
	shl	r8d, 3
	movsxd	rcx, r8d
	mov	r8d, dword ptr [rcx + _ZN8CryptoPPL2TdE+4]
	mov	rcx, qword ptr [rbp - 144]
	mov	r9d, dword ptr [rcx]
	mov	r10d, r9d
	xor	r10d, -1
	mov	r11d, r8d
	and	r11d, r10d
	xor	r8d, -1
	and	r9d, r8d
	or	r11d, r9d
	mov	rcx, qword ptr [rbp - 144]
	mov	dword ptr [rcx], r11d
	mov	rcx, qword ptr [rbp - 176]
	mov	r8d, dword ptr [rcx]
	shr	r8d, 8
	mov	rcx, qword ptr [rbp - 176]
	mov	dword ptr [rcx], r8d
	mov	rcx, qword ptr [rbp - 176]
	mov	r8d, dword ptr [rcx]
	mov	r12b, r8b
	movzx	r8d, r12b
	shl	r8d, 3
	movsxd	rcx, r8d
	mov	r8d, dword ptr [rcx + _ZN8CryptoPPL2TdE+1]
	mov	rcx, qword ptr [rbp - 168]
	mov	r9d, dword ptr [rcx]
	mov	r10d, r9d
	xor	r10d, -1
	mov	r11d, r8d
	and	r11d, r10d
	xor	r8d, -1
	and	r9d, r8d
	or	r11d, r9d
	mov	rcx, qword ptr [rbp - 168]
	mov	dword ptr [rcx], r11d
	mov	rcx, qword ptr [rbp - 176]
	mov	r8d, dword ptr [rcx]
	shr	r8d, 8
	mov	rcx, qword ptr [rbp - 176]
	mov	dword ptr [rcx], r8d
	mov	rcx, qword ptr [rbp - 176]
	mov	r8d, dword ptr [rcx]
	mov	r12b, r8b
	movzx	r8d, r12b
	shl	r8d, 3
	movsxd	rcx, r8d
	mov	r8d, dword ptr [rcx + _ZN8CryptoPPL2TdE+2]
	mov	rcx, qword ptr [rbp - 160]
	mov	r9d, dword ptr [rcx]
	mov	r10d, r9d
	xor	r10d, -1
	and	r10d, 2648251364
	mov	r11d, eax
	xor	r11d, 2648251364
	and	r9d, r11d
	mov	ebx, r8d
	xor	ebx, -1
	and	ebx, -1646715932
	and	r8d, r11d
	or	r10d, r9d
	or	ebx, r8d
	xor	r10d, ebx
	mov	rcx, qword ptr [rbp - 160]
	mov	dword ptr [rcx], r10d
	mov	rcx, qword ptr [rbp - 176]
	mov	r8d, dword ptr [rcx]
	shr	r8d, 8
	mov	rcx, qword ptr [rbp - 176]
	mov	dword ptr [rcx], r8d
	mov	rcx, qword ptr [rbp - 176]
	mov	r8d, dword ptr [rcx]
	shl	r8d, 3
	mov	r8d, r8d
	mov	ecx, r8d
	mov	r8d, dword ptr [rcx + _ZN8CryptoPPL2TdE+3]
	mov	rcx, qword ptr [rbp - 152]
	mov	r9d, dword ptr [rcx]
	mov	r10d, r9d
	xor	r10d, -1
	mov	r11d, r8d
	and	r11d, r10d
	xor	r8d, -1
	and	r9d, r8d
	or	r11d, r9d
	mov	rcx, qword ptr [rbp - 152]
	mov	dword ptr [rcx], r11d
	mov	rcx, qword ptr [rbp - 184]
	mov	r8d, dword ptr [rcx]
	mov	r12b, r8b
	movzx	r8d, r12b
	shl	r8d, 3
	movsxd	rcx, r8d
	mov	r8d, dword ptr [rcx + _ZN8CryptoPPL2TdE+4]
	mov	rcx, qword ptr [rbp - 152]
	mov	r9d, dword ptr [rcx]
	mov	r10d, r9d
	xor	r10d, -1
	mov	r11d, r8d
	and	r11d, r10d
	xor	r8d, -1
	and	r9d, r8d
	or	r11d, r9d
	mov	rcx, qword ptr [rbp - 152]
	mov	dword ptr [rcx], r11d
	mov	rcx, qword ptr [rbp - 184]
	mov	r8d, dword ptr [rcx]
	shr	r8d, 8
	mov	rcx, qword ptr [rbp - 184]
	mov	dword ptr [rcx], r8d
	mov	rcx, qword ptr [rbp - 184]
	mov	r8d, dword ptr [rcx]
	mov	r12b, r8b
	movzx	r8d, r12b
	shl	r8d, 3
	movsxd	rcx, r8d
	mov	r8d, dword ptr [rcx + _ZN8CryptoPPL2TdE+1]
	mov	rcx, qword ptr [rbp - 144]
	mov	r9d, dword ptr [rcx]
	mov	r10d, r9d
	xor	r10d, -1
	mov	r11d, r8d
	and	r11d, r10d
	xor	r8d, -1
	and	r9d, r8d
	or	r11d, r9d
	mov	rcx, qword ptr [rbp - 144]
	mov	dword ptr [rcx], r11d
	mov	rcx, qword ptr [rbp - 184]
	mov	r8d, dword ptr [rcx]
	shr	r8d, 8
	mov	rcx, qword ptr [rbp - 184]
	mov	dword ptr [rcx], r8d
	mov	rcx, qword ptr [rbp - 184]
	mov	r8d, dword ptr [rcx]
	mov	r12b, r8b
	movzx	r8d, r12b
	shl	r8d, 3
	movsxd	rcx, r8d
	mov	r8d, dword ptr [rcx + _ZN8CryptoPPL2TdE+2]
	mov	rcx, qword ptr [rbp - 168]
	mov	r9d, dword ptr [rcx]
	mov	r10d, r9d
	xor	r10d, -1
	mov	r11d, r8d
	and	r11d, r10d
	xor	r8d, -1
	and	r9d, r8d
	or	r11d, r9d
	mov	rcx, qword ptr [rbp - 168]
	mov	dword ptr [rcx], r11d
	mov	rcx, qword ptr [rbp - 184]
	mov	r8d, dword ptr [rcx]
	shr	r8d, 8
	mov	rcx, qword ptr [rbp - 184]
	mov	dword ptr [rcx], r8d
	mov	rcx, qword ptr [rbp - 184]
	mov	r8d, dword ptr [rcx]
	shl	r8d, 3
	mov	r8d, r8d
	mov	ecx, r8d
	mov	r8d, dword ptr [rcx + _ZN8CryptoPPL2TdE+3]
	mov	rcx, qword ptr [rbp - 160]
	mov	r9d, dword ptr [rcx]
	mov	r10d, r9d
	xor	r10d, -1
	mov	r11d, r8d
	and	r11d, r10d
	xor	r8d, -1
	and	r9d, r8d
	or	r11d, r9d
	mov	rcx, qword ptr [rbp - 160]
	mov	dword ptr [rcx], r11d
	mov	rcx, qword ptr [rbp - 192]
	mov	r8d, dword ptr [rcx]
	mov	r12b, r8b
	movzx	r8d, r12b
	shl	r8d, 3
	movsxd	rcx, r8d
	mov	r8d, dword ptr [rcx + _ZN8CryptoPPL2TdE+4]
	mov	rcx, qword ptr [rbp - 160]
	mov	r9d, dword ptr [rcx]
	mov	r10d, r9d
	xor	r10d, -1
	and	r10d, 1886886322
	mov	r11d, eax
	xor	r11d, 1886886322
	and	r9d, r11d
	mov	ebx, r8d
	xor	ebx, -1
	and	ebx, 1886886322
	and	r8d, r11d
	or	r10d, r9d
	or	ebx, r8d
	xor	r10d, ebx
	mov	rcx, qword ptr [rbp - 160]
	mov	dword ptr [rcx], r10d
	mov	rcx, qword ptr [rbp - 192]
	mov	r8d, dword ptr [rcx]
	shr	r8d, 8
	mov	rcx, qword ptr [rbp - 192]
	mov	dword ptr [rcx], r8d
	mov	rcx, qword ptr [rbp - 192]
	mov	r8d, dword ptr [rcx]
	mov	r12b, r8b
	movzx	r8d, r12b
	shl	r8d, 3
	movsxd	rcx, r8d
	mov	r8d, dword ptr [rcx + _ZN8CryptoPPL2TdE+1]
	mov	rcx, qword ptr [rbp - 152]
	mov	r9d, dword ptr [rcx]
	mov	r10d, r9d
	xor	r10d, -1
	and	r10d, 3576176023
	mov	r11d, eax
	xor	r11d, 3576176023
	and	r9d, r11d
	mov	ebx, r8d
	xor	ebx, -1
	and	ebx, -718791273
	and	r8d, r11d
	or	r10d, r9d
	or	ebx, r8d
	xor	r10d, ebx
	mov	rcx, qword ptr [rbp - 152]
	mov	dword ptr [rcx], r10d
	mov	rcx, qword ptr [rbp - 192]
	mov	r8d, dword ptr [rcx]
	shr	r8d, 8
	mov	rcx, qword ptr [rbp - 192]
	mov	dword ptr [rcx], r8d
	mov	rcx, qword ptr [rbp - 192]
	mov	r8d, dword ptr [rcx]
	mov	r12b, r8b
	movzx	r8d, r12b
	shl	r8d, 3
	movsxd	rcx, r8d
	mov	r8d, dword ptr [rcx + _ZN8CryptoPPL2TdE+2]
	mov	rcx, qword ptr [rbp - 144]
	mov	r9d, dword ptr [rcx]
	mov	r10d, r9d
	xor	r10d, -1
	mov	r11d, r8d
	and	r11d, r10d
	xor	r8d, -1
	and	r9d, r8d
	or	r11d, r9d
	mov	rcx, qword ptr [rbp - 144]
	mov	dword ptr [rcx], r11d
	mov	rcx, qword ptr [rbp - 192]
	mov	r8d, dword ptr [rcx]
	shr	r8d, 8
	mov	rcx, qword ptr [rbp - 192]
	mov	dword ptr [rcx], r8d
	mov	rcx, qword ptr [rbp - 192]
	mov	r8d, dword ptr [rcx]
	shl	r8d, 3
	mov	r8d, r8d
	mov	ecx, r8d
	mov	r8d, dword ptr [rcx + _ZN8CryptoPPL2TdE+3]
	mov	rcx, qword ptr [rbp - 168]
	mov	r9d, dword ptr [rcx]
	mov	r10d, r9d
	xor	r10d, -1
	and	r10d, 3426586522
	mov	r11d, eax
	xor	r11d, 3426586522
	and	r9d, r11d
	mov	ebx, r8d
	xor	ebx, -1
	and	ebx, -868380774
	and	r8d, r11d
	or	r10d, r9d
	or	ebx, r8d
	xor	r10d, ebx
	mov	rcx, qword ptr [rbp - 168]
	mov	dword ptr [rcx], r10d
	mov	rcx, qword ptr [rbp - 200]
	mov	r8d, dword ptr [rcx]
	mov	r12b, r8b
	movzx	r8d, r12b
	shl	r8d, 3
	movsxd	rcx, r8d
	mov	r8d, dword ptr [rcx + _ZN8CryptoPPL2TdE+4]
	mov	rcx, qword ptr [rbp - 168]
	mov	r9d, dword ptr [rcx]
	mov	r10d, r9d
	xor	r10d, -1
	and	r10d, 2558017511
	xor	eax, 2558017511
	and	r9d, eax
	mov	r11d, r8d
	xor	r11d, -1
	and	r11d, -1736949785
	and	r8d, eax
	or	r10d, r9d
	or	r11d, r8d
	xor	r10d, r11d
	mov	rcx, qword ptr [rbp - 168]
	mov	dword ptr [rcx], r10d
	mov	rcx, qword ptr [rbp - 200]
	mov	eax, dword ptr [rcx]
	shr	eax, 8
	mov	rcx, qword ptr [rbp - 200]
	mov	dword ptr [rcx], eax
	mov	rcx, qword ptr [rbp - 200]
	mov	eax, dword ptr [rcx]
	mov	r12b, al
	movzx	eax, r12b
	shl	eax, 3
	movsxd	rcx, eax
	mov	eax, dword ptr [rcx + _ZN8CryptoPPL2TdE+1]
	mov	rcx, qword ptr [rbp - 160]
	mov	r8d, dword ptr [rcx]
	mov	r9d, r8d
	xor	r9d, -1
	mov	r10d, eax
	and	r10d, r9d
	xor	eax, -1
	and	r8d, eax
	or	r10d, r8d
	mov	rcx, qword ptr [rbp - 160]
	mov	dword ptr [rcx], r10d
	mov	rcx, qword ptr [rbp - 200]
	mov	eax, dword ptr [rcx]
	shr	eax, 8
	mov	rcx, qword ptr [rbp - 200]
	mov	dword ptr [rcx], eax
	mov	rcx, qword ptr [rbp - 200]
	mov	eax, dword ptr [rcx]
	mov	r12b, al
	movzx	eax, r12b
	shl	eax, 3
	movsxd	rcx, eax
	mov	eax, dword ptr [rcx + _ZN8CryptoPPL2TdE+2]
	mov	rcx, qword ptr [rbp - 152]
	mov	r8d, dword ptr [rcx]
	mov	r9d, r8d
	xor	r9d, -1
	mov	r10d, eax
	and	r10d, r9d
	xor	eax, -1
	and	r8d, eax
	or	r10d, r8d
	mov	rcx, qword ptr [rbp - 152]
	mov	dword ptr [rcx], r10d
	mov	rcx, qword ptr [rbp - 200]
	mov	eax, dword ptr [rcx]
	shr	eax, 8
	mov	rcx, qword ptr [rbp - 200]
	mov	dword ptr [rcx], eax
	mov	rcx, qword ptr [rbp - 200]
	mov	eax, dword ptr [rcx]
	shl	eax, 3
	mov	eax, eax
	mov	ecx, eax
	mov	eax, dword ptr [rcx + _ZN8CryptoPPL2TdE+3]
	mov	rcx, qword ptr [rbp - 144]
	mov	r8d, dword ptr [rcx]
	mov	r9d, r8d
	xor	r9d, -1
	mov	r10d, eax
	and	r10d, r9d
	xor	eax, -1
	and	r8d, eax
	or	r10d, r8d
	mov	rcx, qword ptr [rbp - 144]
	mov	dword ptr [rcx], r10d
	mov	rcx, qword ptr [rbp - 56]
	mov	eax, dword ptr [rcx + 16]
	shr	eax, 1
	add	eax, 1776638713
	sub	eax, 1
	sub	eax, 1776638713
	mov	rcx, qword ptr [rbp - 88]
	mov	dword ptr [rcx], eax
	mov	dword ptr [rbp - 232], 894787694
	jmp	.LBB27_20
.LBB27_14:                              
	mov	eax, 4294967295
	mov	rcx, qword ptr [rbp - 128]
	mov	rcx, qword ptr [rcx]
	mov	edx, dword ptr [rcx]
	mov	rcx, qword ptr [rbp - 200]
	mov	dword ptr [rcx], edx
	mov	rcx, qword ptr [rbp - 128]
	mov	rcx, qword ptr [rcx]
	mov	edx, dword ptr [rcx + 4]
	mov	rcx, qword ptr [rbp - 192]
	mov	dword ptr [rcx], edx
	mov	rcx, qword ptr [rbp - 128]
	mov	rcx, qword ptr [rcx]
	mov	edx, dword ptr [rcx + 8]
	mov	rcx, qword ptr [rbp - 184]
	mov	dword ptr [rcx], edx
	mov	rcx, qword ptr [rbp - 128]
	mov	rcx, qword ptr [rcx]
	mov	edx, dword ptr [rcx + 12]
	mov	rcx, qword ptr [rbp - 176]
	mov	dword ptr [rcx], edx
	mov	rcx, qword ptr [rbp - 144]
	mov	edx, dword ptr [rcx]
	mov	sil, dl
	movzx	edx, sil
	shl	edx, 3
	movsxd	rcx, edx
	mov	edx, dword ptr [rcx + _ZN8CryptoPPL2TdE+3]
	mov	rcx, qword ptr [rbp - 184]
	mov	edi, dword ptr [rcx]
	mov	r8d, edi
	xor	r8d, -1
	and	r8d, 2447921319
	mov	r9d, eax
	xor	r9d, 2447921319
	and	edi, r9d
	mov	r10d, edx
	xor	r10d, -1
	and	r10d, -1847045977
	and	edx, r9d
	or	r8d, edi
	or	r10d, edx
	xor	r8d, r10d
	mov	rcx, qword ptr [rbp - 184]
	mov	dword ptr [rcx], r8d
	mov	rcx, qword ptr [rbp - 144]
	mov	edx, dword ptr [rcx]
	shr	edx, 8
	mov	rcx, qword ptr [rbp - 144]
	mov	dword ptr [rcx], edx
	mov	rcx, qword ptr [rbp - 144]
	mov	edx, dword ptr [rcx]
	mov	sil, dl
	movzx	edx, sil
	shl	edx, 3
	movsxd	rcx, edx
	mov	edx, dword ptr [rcx + _ZN8CryptoPPL2TdE+2]
	mov	rcx, qword ptr [rbp - 192]
	mov	edi, dword ptr [rcx]
	mov	r8d, edi
	xor	r8d, -1
	and	r8d, 2323336732
	mov	r9d, eax
	xor	r9d, 2323336732
	and	edi, r9d
	mov	r10d, edx
	xor	r10d, -1
	and	r10d, -1971630564
	and	edx, r9d
	or	r8d, edi
	or	r10d, edx
	xor	r8d, r10d
	mov	rcx, qword ptr [rbp - 192]
	mov	dword ptr [rcx], r8d
	mov	rcx, qword ptr [rbp - 144]
	mov	edx, dword ptr [rcx]
	shr	edx, 8
	mov	rcx, qword ptr [rbp - 144]
	mov	dword ptr [rcx], edx
	mov	rcx, qword ptr [rbp - 144]
	mov	edx, dword ptr [rcx]
	mov	sil, dl
	movzx	edx, sil
	shl	edx, 3
	movsxd	rcx, edx
	mov	edx, dword ptr [rcx + _ZN8CryptoPPL2TdE+1]
	mov	rcx, qword ptr [rbp - 200]
	mov	edi, dword ptr [rcx]
	mov	r8d, edi
	xor	r8d, -1
	mov	r9d, edx
	and	r9d, r8d
	xor	edx, -1
	and	edi, edx
	or	r9d, edi
	mov	rcx, qword ptr [rbp - 200]
	mov	dword ptr [rcx], r9d
	mov	rcx, qword ptr [rbp - 144]
	mov	edx, dword ptr [rcx]
	shr	edx, 8
	mov	rcx, qword ptr [rbp - 144]
	mov	dword ptr [rcx], edx
	mov	rcx, qword ptr [rbp - 144]
	mov	edx, dword ptr [rcx]
	shl	edx, 3
	mov	edx, edx
	mov	ecx, edx
	mov	edx, dword ptr [rcx + _ZN8CryptoPPL2TdE+4]
	mov	rcx, qword ptr [rbp - 176]
	mov	edi, dword ptr [rcx]
	mov	r8d, edi
	xor	r8d, -1
	and	r8d, 1483254920
	mov	r9d, eax
	xor	r9d, 1483254920
	and	edi, r9d
	mov	r10d, edx
	xor	r10d, -1
	and	r10d, 1483254920
	and	edx, r9d
	or	r8d, edi
	or	r10d, edx
	xor	r8d, r10d
	mov	rcx, qword ptr [rbp - 176]
	mov	dword ptr [rcx], r8d
	mov	rcx, qword ptr [rbp - 152]
	mov	edx, dword ptr [rcx]
	mov	sil, dl
	movzx	edx, sil
	shl	edx, 3
	movsxd	rcx, edx
	mov	edx, dword ptr [rcx + _ZN8CryptoPPL2TdE+3]
	mov	rcx, qword ptr [rbp - 192]
	mov	edi, dword ptr [rcx]
	mov	r8d, edi
	xor	r8d, -1
	mov	r9d, edx
	and	r9d, r8d
	xor	edx, -1
	and	edi, edx
	or	r9d, edi
	mov	rcx, qword ptr [rbp - 192]
	mov	dword ptr [rcx], r9d
	mov	rcx, qword ptr [rbp - 152]
	mov	edx, dword ptr [rcx]
	shr	edx, 8
	mov	rcx, qword ptr [rbp - 152]
	mov	dword ptr [rcx], edx
	mov	rcx, qword ptr [rbp - 152]
	mov	edx, dword ptr [rcx]
	mov	sil, dl
	movzx	edx, sil
	shl	edx, 3
	movsxd	rcx, edx
	mov	edx, dword ptr [rcx + _ZN8CryptoPPL2TdE+2]
	mov	rcx, qword ptr [rbp - 200]
	mov	edi, dword ptr [rcx]
	mov	r8d, edi
	xor	r8d, -1
	mov	r9d, edx
	and	r9d, r8d
	xor	edx, -1
	and	edi, edx
	or	r9d, edi
	mov	rcx, qword ptr [rbp - 200]
	mov	dword ptr [rcx], r9d
	mov	rcx, qword ptr [rbp - 152]
	mov	edx, dword ptr [rcx]
	shr	edx, 8
	mov	rcx, qword ptr [rbp - 152]
	mov	dword ptr [rcx], edx
	mov	rcx, qword ptr [rbp - 152]
	mov	edx, dword ptr [rcx]
	mov	sil, dl
	movzx	edx, sil
	shl	edx, 3
	movsxd	rcx, edx
	mov	edx, dword ptr [rcx + _ZN8CryptoPPL2TdE+1]
	mov	rcx, qword ptr [rbp - 176]
	mov	edi, dword ptr [rcx]
	mov	r8d, edi
	xor	r8d, -1
	mov	r9d, edx
	and	r9d, r8d
	xor	edx, -1
	and	edi, edx
	or	r9d, edi
	mov	rcx, qword ptr [rbp - 176]
	mov	dword ptr [rcx], r9d
	mov	rcx, qword ptr [rbp - 152]
	mov	edx, dword ptr [rcx]
	shr	edx, 8
	mov	rcx, qword ptr [rbp - 152]
	mov	dword ptr [rcx], edx
	mov	rcx, qword ptr [rbp - 152]
	mov	edx, dword ptr [rcx]
	shl	edx, 3
	mov	edx, edx
	mov	ecx, edx
	mov	edx, dword ptr [rcx + _ZN8CryptoPPL2TdE+4]
	mov	rcx, qword ptr [rbp - 184]
	mov	edi, dword ptr [rcx]
	mov	r8d, edi
	xor	r8d, -1
	and	r8d, 1783965550
	mov	r9d, eax
	xor	r9d, 1783965550
	and	edi, r9d
	mov	r10d, edx
	xor	r10d, -1
	and	r10d, 1783965550
	and	edx, r9d
	or	r8d, edi
	or	r10d, edx
	xor	r8d, r10d
	mov	rcx, qword ptr [rbp - 184]
	mov	dword ptr [rcx], r8d
	mov	rcx, qword ptr [rbp - 160]
	mov	edx, dword ptr [rcx]
	mov	sil, dl
	movzx	edx, sil
	shl	edx, 3
	movsxd	rcx, edx
	mov	edx, dword ptr [rcx + _ZN8CryptoPPL2TdE+3]
	mov	rcx, qword ptr [rbp - 200]
	mov	edi, dword ptr [rcx]
	mov	r8d, edi
	xor	r8d, -1
	and	r8d, 3995310986
	mov	r9d, eax
	xor	r9d, 3995310986
	and	edi, r9d
	mov	r10d, edx
	xor	r10d, -1
	and	r10d, -299656310
	and	edx, r9d
	or	r8d, edi
	or	r10d, edx
	xor	r8d, r10d
	mov	rcx, qword ptr [rbp - 200]
	mov	dword ptr [rcx], r8d
	mov	rcx, qword ptr [rbp - 160]
	mov	edx, dword ptr [rcx]
	shr	edx, 8
	mov	rcx, qword ptr [rbp - 160]
	mov	dword ptr [rcx], edx
	mov	rcx, qword ptr [rbp - 160]
	mov	edx, dword ptr [rcx]
	mov	sil, dl
	movzx	edx, sil
	shl	edx, 3
	movsxd	rcx, edx
	mov	edx, dword ptr [rcx + _ZN8CryptoPPL2TdE+2]
	mov	rcx, qword ptr [rbp - 176]
	mov	edi, dword ptr [rcx]
	mov	r8d, edi
	xor	r8d, -1
	and	r8d, 967480192
	mov	r9d, eax
	xor	r9d, 967480192
	and	edi, r9d
	mov	r10d, edx
	xor	r10d, -1
	and	r10d, 967480192
	and	edx, r9d
	or	r8d, edi
	or	r10d, edx
	xor	r8d, r10d
	mov	rcx, qword ptr [rbp - 176]
	mov	dword ptr [rcx], r8d
	mov	rcx, qword ptr [rbp - 160]
	mov	edx, dword ptr [rcx]
	shr	edx, 8
	mov	rcx, qword ptr [rbp - 160]
	mov	dword ptr [rcx], edx
	mov	rcx, qword ptr [rbp - 160]
	mov	edx, dword ptr [rcx]
	mov	sil, dl
	movzx	edx, sil
	shl	edx, 3
	movsxd	rcx, edx
	mov	edx, dword ptr [rcx + _ZN8CryptoPPL2TdE+1]
	mov	rcx, qword ptr [rbp - 184]
	mov	edi, dword ptr [rcx]
	mov	r8d, edi
	xor	r8d, -1
	and	r8d, 1332720659
	mov	r9d, eax
	xor	r9d, 1332720659
	and	edi, r9d
	mov	r10d, edx
	xor	r10d, -1
	and	r10d, 1332720659
	and	edx, r9d
	or	r8d, edi
	or	r10d, edx
	xor	r8d, r10d
	mov	rcx, qword ptr [rbp - 184]
	mov	dword ptr [rcx], r8d
	mov	rcx, qword ptr [rbp - 160]
	mov	edx, dword ptr [rcx]
	shr	edx, 8
	mov	rcx, qword ptr [rbp - 160]
	mov	dword ptr [rcx], edx
	mov	rcx, qword ptr [rbp - 160]
	mov	edx, dword ptr [rcx]
	shl	edx, 3
	mov	edx, edx
	mov	ecx, edx
	mov	edx, dword ptr [rcx + _ZN8CryptoPPL2TdE+4]
	mov	rcx, qword ptr [rbp - 192]
	mov	edi, dword ptr [rcx]
	mov	r8d, edi
	xor	r8d, -1
	mov	r9d, edx
	and	r9d, r8d
	xor	edx, -1
	and	edi, edx
	or	r9d, edi
	mov	rcx, qword ptr [rbp - 192]
	mov	dword ptr [rcx], r9d
	mov	rcx, qword ptr [rbp - 168]
	mov	edx, dword ptr [rcx]
	mov	sil, dl
	movzx	edx, sil
	shl	edx, 3
	movsxd	rcx, edx
	mov	edx, dword ptr [rcx + _ZN8CryptoPPL2TdE+3]
	mov	rcx, qword ptr [rbp - 176]
	mov	edi, dword ptr [rcx]
	mov	r8d, edi
	xor	r8d, -1
	and	r8d, 943207342
	mov	r9d, eax
	xor	r9d, 943207342
	and	edi, r9d
	mov	r10d, edx
	xor	r10d, -1
	and	r10d, 943207342
	and	edx, r9d
	or	r8d, edi
	or	r10d, edx
	xor	r8d, r10d
	mov	rcx, qword ptr [rbp - 176]
	mov	dword ptr [rcx], r8d
	mov	rcx, qword ptr [rbp - 168]
	mov	edx, dword ptr [rcx]
	shr	edx, 8
	mov	rcx, qword ptr [rbp - 168]
	mov	dword ptr [rcx], edx
	mov	rcx, qword ptr [rbp - 168]
	mov	edx, dword ptr [rcx]
	mov	sil, dl
	movzx	edx, sil
	shl	edx, 3
	movsxd	rcx, edx
	mov	edx, dword ptr [rcx + _ZN8CryptoPPL2TdE+2]
	mov	rcx, qword ptr [rbp - 184]
	mov	edi, dword ptr [rcx]
	mov	r8d, edi
	xor	r8d, -1
	mov	r9d, edx
	and	r9d, r8d
	xor	edx, -1
	and	edi, edx
	or	r9d, edi
	mov	rcx, qword ptr [rbp - 184]
	mov	dword ptr [rcx], r9d
	mov	rcx, qword ptr [rbp - 168]
	mov	edx, dword ptr [rcx]
	shr	edx, 8
	mov	rcx, qword ptr [rbp - 168]
	mov	dword ptr [rcx], edx
	mov	rcx, qword ptr [rbp - 168]
	mov	edx, dword ptr [rcx]
	mov	sil, dl
	movzx	edx, sil
	shl	edx, 3
	movsxd	rcx, edx
	mov	edx, dword ptr [rcx + _ZN8CryptoPPL2TdE+1]
	mov	rcx, qword ptr [rbp - 192]
	mov	edi, dword ptr [rcx]
	mov	r8d, edi
	xor	r8d, -1
	mov	r9d, edx
	and	r9d, r8d
	xor	edx, -1
	and	edi, edx
	or	r9d, edi
	mov	rcx, qword ptr [rbp - 192]
	mov	dword ptr [rcx], r9d
	mov	rcx, qword ptr [rbp - 168]
	mov	edx, dword ptr [rcx]
	shr	edx, 8
	mov	rcx, qword ptr [rbp - 168]
	mov	dword ptr [rcx], edx
	mov	rcx, qword ptr [rbp - 168]
	mov	edx, dword ptr [rcx]
	shl	edx, 3
	mov	edx, edx
	mov	ecx, edx
	mov	edx, dword ptr [rcx + _ZN8CryptoPPL2TdE+4]
	mov	rcx, qword ptr [rbp - 200]
	mov	edi, dword ptr [rcx]
	mov	r8d, edi
	xor	r8d, -1
	and	r8d, 529779024
	mov	r9d, eax
	xor	r9d, 529779024
	and	edi, r9d
	mov	r10d, edx
	xor	r10d, -1
	and	r10d, 529779024
	and	edx, r9d
	or	r8d, edi
	or	r10d, edx
	xor	r8d, r10d
	mov	rcx, qword ptr [rbp - 200]
	mov	dword ptr [rcx], r8d
	mov	rcx, qword ptr [rbp - 128]
	mov	rcx, qword ptr [rcx]
	mov	edx, dword ptr [rcx + 16]
	mov	rcx, qword ptr [rbp - 168]
	mov	dword ptr [rcx], edx
	mov	rcx, qword ptr [rbp - 128]
	mov	rcx, qword ptr [rcx]
	mov	edx, dword ptr [rcx + 20]
	mov	rcx, qword ptr [rbp - 160]
	mov	dword ptr [rcx], edx
	mov	rcx, qword ptr [rbp - 128]
	mov	rcx, qword ptr [rcx]
	mov	edx, dword ptr [rcx + 24]
	mov	rcx, qword ptr [rbp - 152]
	mov	dword ptr [rcx], edx
	mov	rcx, qword ptr [rbp - 128]
	mov	rcx, qword ptr [rcx]
	mov	edx, dword ptr [rcx + 28]
	mov	rcx, qword ptr [rbp - 144]
	mov	dword ptr [rcx], edx
	mov	rcx, qword ptr [rbp - 176]
	mov	edx, dword ptr [rcx]
	mov	sil, dl
	movzx	edx, sil
	shl	edx, 3
	movsxd	rcx, edx
	mov	edx, dword ptr [rcx + _ZN8CryptoPPL2TdE+3]
	mov	rcx, qword ptr [rbp - 152]
	mov	edi, dword ptr [rcx]
	mov	r8d, edi
	xor	r8d, -1
	mov	r9d, edx
	and	r9d, r8d
	xor	edx, -1
	and	edi, edx
	or	r9d, edi
	mov	rcx, qword ptr [rbp - 152]
	mov	dword ptr [rcx], r9d
	mov	rcx, qword ptr [rbp - 176]
	mov	edx, dword ptr [rcx]
	shr	edx, 8
	mov	rcx, qword ptr [rbp - 176]
	mov	dword ptr [rcx], edx
	mov	rcx, qword ptr [rbp - 176]
	mov	edx, dword ptr [rcx]
	mov	sil, dl
	movzx	edx, sil
	shl	edx, 3
	movsxd	rcx, edx
	mov	edx, dword ptr [rcx + _ZN8CryptoPPL2TdE+2]
	mov	rcx, qword ptr [rbp - 160]
	mov	edi, dword ptr [rcx]
	mov	r8d, edi
	xor	r8d, -1
	mov	r9d, edx
	and	r9d, r8d
	xor	edx, -1
	and	edi, edx
	or	r9d, edi
	mov	rcx, qword ptr [rbp - 160]
	mov	dword ptr [rcx], r9d
	mov	rcx, qword ptr [rbp - 176]
	mov	edx, dword ptr [rcx]
	shr	edx, 8
	mov	rcx, qword ptr [rbp - 176]
	mov	dword ptr [rcx], edx
	mov	rcx, qword ptr [rbp - 176]
	mov	edx, dword ptr [rcx]
	mov	sil, dl
	movzx	edx, sil
	shl	edx, 3
	movsxd	rcx, edx
	mov	edx, dword ptr [rcx + _ZN8CryptoPPL2TdE+1]
	mov	rcx, qword ptr [rbp - 168]
	mov	edi, dword ptr [rcx]
	mov	r8d, edi
	xor	r8d, -1
	mov	r9d, edx
	and	r9d, r8d
	xor	edx, -1
	and	edi, edx
	or	r9d, edi
	mov	rcx, qword ptr [rbp - 168]
	mov	dword ptr [rcx], r9d
	mov	rcx, qword ptr [rbp - 176]
	mov	edx, dword ptr [rcx]
	shr	edx, 8
	mov	rcx, qword ptr [rbp - 176]
	mov	dword ptr [rcx], edx
	mov	rcx, qword ptr [rbp - 176]
	mov	edx, dword ptr [rcx]
	shl	edx, 3
	mov	edx, edx
	mov	ecx, edx
	mov	edx, dword ptr [rcx + _ZN8CryptoPPL2TdE+4]
	mov	rcx, qword ptr [rbp - 144]
	mov	edi, dword ptr [rcx]
	mov	r8d, edi
	xor	r8d, -1
	and	r8d, 3174725577
	mov	r9d, eax
	xor	r9d, 3174725577
	and	edi, r9d
	mov	r10d, edx
	xor	r10d, -1
	and	r10d, -1120241719
	and	edx, r9d
	or	r8d, edi
	or	r10d, edx
	xor	r8d, r10d
	mov	rcx, qword ptr [rbp - 144]
	mov	dword ptr [rcx], r8d
	mov	rcx, qword ptr [rbp - 184]
	mov	edx, dword ptr [rcx]
	mov	sil, dl
	movzx	edx, sil
	shl	edx, 3
	movsxd	rcx, edx
	mov	edx, dword ptr [rcx + _ZN8CryptoPPL2TdE+3]
	mov	rcx, qword ptr [rbp - 160]
	mov	edi, dword ptr [rcx]
	mov	r8d, edi
	xor	r8d, -1
	mov	r9d, edx
	and	r9d, r8d
	xor	edx, -1
	and	edi, edx
	or	r9d, edi
	mov	rcx, qword ptr [rbp - 160]
	mov	dword ptr [rcx], r9d
	mov	rcx, qword ptr [rbp - 184]
	mov	edx, dword ptr [rcx]
	shr	edx, 8
	mov	rcx, qword ptr [rbp - 184]
	mov	dword ptr [rcx], edx
	mov	rcx, qword ptr [rbp - 184]
	mov	edx, dword ptr [rcx]
	mov	sil, dl
	movzx	edx, sil
	shl	edx, 3
	movsxd	rcx, edx
	mov	edx, dword ptr [rcx + _ZN8CryptoPPL2TdE+2]
	mov	rcx, qword ptr [rbp - 168]
	mov	edi, dword ptr [rcx]
	mov	r8d, edi
	xor	r8d, -1
	mov	r9d, edx
	and	r9d, r8d
	xor	edx, -1
	and	edi, edx
	or	r9d, edi
	mov	rcx, qword ptr [rbp - 168]
	mov	dword ptr [rcx], r9d
	mov	rcx, qword ptr [rbp - 184]
	mov	edx, dword ptr [rcx]
	shr	edx, 8
	mov	rcx, qword ptr [rbp - 184]
	mov	dword ptr [rcx], edx
	mov	rcx, qword ptr [rbp - 184]
	mov	edx, dword ptr [rcx]
	mov	sil, dl
	movzx	edx, sil
	shl	edx, 3
	movsxd	rcx, edx
	mov	edx, dword ptr [rcx + _ZN8CryptoPPL2TdE+1]
	mov	rcx, qword ptr [rbp - 144]
	mov	edi, dword ptr [rcx]
	mov	r8d, edi
	xor	r8d, -1
	and	r8d, 365096495
	mov	r9d, eax
	xor	r9d, 365096495
	and	edi, r9d
	mov	r10d, edx
	xor	r10d, -1
	and	r10d, 365096495
	and	edx, r9d
	or	r8d, edi
	or	r10d, edx
	xor	r8d, r10d
	mov	rcx, qword ptr [rbp - 144]
	mov	dword ptr [rcx], r8d
	mov	rcx, qword ptr [rbp - 184]
	mov	edx, dword ptr [rcx]
	shr	edx, 8
	mov	rcx, qword ptr [rbp - 184]
	mov	dword ptr [rcx], edx
	mov	rcx, qword ptr [rbp - 184]
	mov	edx, dword ptr [rcx]
	shl	edx, 3
	mov	edx, edx
	mov	ecx, edx
	mov	edx, dword ptr [rcx + _ZN8CryptoPPL2TdE+4]
	mov	rcx, qword ptr [rbp - 152]
	mov	edi, dword ptr [rcx]
	mov	r8d, edi
	xor	r8d, -1
	mov	r9d, edx
	and	r9d, r8d
	xor	edx, -1
	and	edi, edx
	or	r9d, edi
	mov	rcx, qword ptr [rbp - 152]
	mov	dword ptr [rcx], r9d
	mov	rcx, qword ptr [rbp - 192]
	mov	edx, dword ptr [rcx]
	mov	sil, dl
	movzx	edx, sil
	shl	edx, 3
	movsxd	rcx, edx
	mov	edx, dword ptr [rcx + _ZN8CryptoPPL2TdE+3]
	mov	rcx, qword ptr [rbp - 168]
	mov	edi, dword ptr [rcx]
	mov	r8d, edi
	xor	r8d, -1
	mov	r9d, edx
	and	r9d, r8d
	xor	edx, -1
	and	edi, edx
	or	r9d, edi
	mov	rcx, qword ptr [rbp - 168]
	mov	dword ptr [rcx], r9d
	mov	rcx, qword ptr [rbp - 192]
	mov	edx, dword ptr [rcx]
	shr	edx, 8
	mov	rcx, qword ptr [rbp - 192]
	mov	dword ptr [rcx], edx
	mov	rcx, qword ptr [rbp - 192]
	mov	edx, dword ptr [rcx]
	mov	sil, dl
	movzx	edx, sil
	shl	edx, 3
	movsxd	rcx, edx
	mov	edx, dword ptr [rcx + _ZN8CryptoPPL2TdE+2]
	mov	rcx, qword ptr [rbp - 144]
	mov	edi, dword ptr [rcx]
	mov	r8d, edi
	xor	r8d, -1
	and	r8d, 2642146969
	mov	r9d, eax
	xor	r9d, 2642146969
	and	edi, r9d
	mov	r10d, edx
	xor	r10d, -1
	and	r10d, -1652820327
	and	edx, r9d
	or	r8d, edi
	or	r10d, edx
	xor	r8d, r10d
	mov	rcx, qword ptr [rbp - 144]
	mov	dword ptr [rcx], r8d
	mov	rcx, qword ptr [rbp - 192]
	mov	edx, dword ptr [rcx]
	shr	edx, 8
	mov	rcx, qword ptr [rbp - 192]
	mov	dword ptr [rcx], edx
	mov	rcx, qword ptr [rbp - 192]
	mov	edx, dword ptr [rcx]
	mov	sil, dl
	movzx	edx, sil
	shl	edx, 3
	movsxd	rcx, edx
	mov	edx, dword ptr [rcx + _ZN8CryptoPPL2TdE+1]
	mov	rcx, qword ptr [rbp - 152]
	mov	edi, dword ptr [rcx]
	mov	r8d, edi
	xor	r8d, -1
	mov	r9d, edx
	and	r9d, r8d
	xor	edx, -1
	and	edi, edx
	or	r9d, edi
	mov	rcx, qword ptr [rbp - 152]
	mov	dword ptr [rcx], r9d
	mov	rcx, qword ptr [rbp - 192]
	mov	edx, dword ptr [rcx]
	shr	edx, 8
	mov	rcx, qword ptr [rbp - 192]
	mov	dword ptr [rcx], edx
	mov	rcx, qword ptr [rbp - 192]
	mov	edx, dword ptr [rcx]
	shl	edx, 3
	mov	edx, edx
	mov	ecx, edx
	mov	edx, dword ptr [rcx + _ZN8CryptoPPL2TdE+4]
	mov	rcx, qword ptr [rbp - 160]
	mov	edi, dword ptr [rcx]
	mov	r8d, edi
	xor	r8d, -1
	mov	r9d, edx
	and	r9d, r8d
	xor	edx, -1
	and	edi, edx
	or	r9d, edi
	mov	rcx, qword ptr [rbp - 160]
	mov	dword ptr [rcx], r9d
	mov	rcx, qword ptr [rbp - 200]
	mov	edx, dword ptr [rcx]
	mov	sil, dl
	movzx	edx, sil
	shl	edx, 3
	movsxd	rcx, edx
	mov	edx, dword ptr [rcx + _ZN8CryptoPPL2TdE+3]
	mov	rcx, qword ptr [rbp - 144]
	mov	edi, dword ptr [rcx]
	mov	r8d, edi
	xor	r8d, -1
	mov	r9d, edx
	and	r9d, r8d
	xor	edx, -1
	and	edi, edx
	or	r9d, edi
	mov	rcx, qword ptr [rbp - 144]
	mov	dword ptr [rcx], r9d
	mov	rcx, qword ptr [rbp - 200]
	mov	edx, dword ptr [rcx]
	shr	edx, 8
	mov	rcx, qword ptr [rbp - 200]
	mov	dword ptr [rcx], edx
	mov	rcx, qword ptr [rbp - 200]
	mov	edx, dword ptr [rcx]
	mov	sil, dl
	movzx	edx, sil
	shl	edx, 3
	movsxd	rcx, edx
	mov	edx, dword ptr [rcx + _ZN8CryptoPPL2TdE+2]
	mov	rcx, qword ptr [rbp - 152]
	mov	edi, dword ptr [rcx]
	mov	r8d, edi
	xor	r8d, -1
	and	r8d, 2258530540
	xor	eax, 2258530540
	and	edi, eax
	mov	r9d, edx
	xor	r9d, -1
	and	r9d, -2036436756
	and	edx, eax
