	.section	__TEXT,__text,regular,pure_instructions
	.build_version macos, 11, 0	sdk_version 11, 1
	.intel_syntax noprefix
	.globl	__ZNK5Botan13RSA_PublicKey11public_dataEv 
	.p2align	4, 0x90
__ZNK5Botan13RSA_PublicKey11public_dataEv: 

	push	rbp
	mov	rbp, rsp
	mov	rax, rdi
	mov	rcx, qword ptr [rsi + 8]
	mov	qword ptr [rdi], rcx
	mov	rcx, qword ptr [rsi + 16]
	mov	qword ptr [rdi + 8], rcx
	test	rcx, rcx
	je	LBB0_2

	lock		inc	qword ptr [rcx + 8]
LBB0_2:
	pop	rbp
	ret
                                        
	.globl	__ZNK5Botan13RSA_PublicKey5get_nEv 
	.p2align	4, 0x90
__ZNK5Botan13RSA_PublicKey5get_nEv:     

	push	rbp
	mov	rbp, rsp
	mov	rax, qword ptr [rdi + 8]
	pop	rbp
	ret
                                        
	.globl	__ZNK5Botan13RSA_PublicKey5get_eEv 
	.p2align	4, 0x90
__ZNK5Botan13RSA_PublicKey5get_eEv:     

	push	rbp
	mov	rbp, rsp
	mov	rax, qword ptr [rdi + 8]
	add	rax, 40
	pop	rbp
	ret
                                        
	.section	__TEXT,__literal16,16byte_literals
	.p2align	4               
LCPI3_0:
	.quad	49                      
	.quad	33                      
	.section	__TEXT,__text,regular,pure_instructions
	.globl	__ZN5Botan13RSA_PublicKey4initEONS_6BigIntES2_
	.p2align	4, 0x90
__ZN5Botan13RSA_PublicKey4initEONS_6BigIntES2_: 
Lfunc_begin0:
	.cfi_startproc
	.cfi_personality 155, ___gxx_personality_v0
	.cfi_lsda 16, Lexception0

	push	rbp
	.cfi_def_cfa_offset 16
	.cfi_offset rbp, -16
	mov	rbp, rsp
	.cfi_def_cfa_register rbp
	push	r15
	push	r14
	push	r13
	push	r12
	push	rbx
	sub	rsp, 24
	.cfi_offset rbx, -56
	.cfi_offset r12, -48
	.cfi_offset r13, -40
	.cfi_offset r14, -32
	.cfi_offset r15, -24
	cmp	dword ptr [rsi + 32], 0
	je	LBB3_6

	mov	r12, rsi
	mov	rax, qword ptr [rsi]
	cmp	qword ptr [rsi + 8], rax
	je	LBB3_6

	test	byte ptr [rax], 1
	je	LBB3_6

	mov	r15, rdx
	cmp	dword ptr [rdx + 32], 0
	je	LBB3_6

	mov	rax, qword ptr [r15]
	cmp	qword ptr [r15 + 8], rax
	je	LBB3_6

	test	byte ptr [rax], 1
	je	LBB3_6

	mov	r14, rdi
	mov	edi, 136
	call	__Znwm
	mov	r13, rax
	mov	qword ptr [rax + 8], 0
	mov	qword ptr [rax + 16], 0
	mov	rax, qword ptr [rip + __ZTVNSt3__120__shared_ptr_emplaceIN5Botan15RSA_Public_DataENS_9allocatorIS2_EEEE@GOTPCREL]
	add	rax, 16
	mov	qword ptr [r13], rax
	mov	rbx, r13
	add	rbx, 24
Ltmp0:
	mov	rdi, rbx
	mov	rsi, r12
	mov	rdx, r15
	call	__ZN5Botan15RSA_Public_DataC2EONS_6BigIntES2_
Ltmp1:

	mov	qword ptr [r14 + 8], rbx
	mov	r15, qword ptr [r14 + 16]
	mov	qword ptr [r14 + 16], r13
	test	r15, r15
	je	LBB3_18

	mov	rax, -1
	lock		xadd	qword ptr [r15 + 8], rax
	test	rax, rax
	je	LBB3_21
LBB3_18:
	add	rsp, 24
	pop	rbx
	pop	r12
	pop	r13
	pop	r14
	pop	r15
	pop	rbp
	ret
LBB3_21:
	mov	rax, qword ptr [r15]
	mov	rdi, r15
	call	qword ptr [rax + 16]
	mov	rdi, r15
	add	rsp, 24
	pop	rbx
	pop	r12
	pop	r13
	pop	r14
	pop	r15
	pop	rbp
	jmp	__ZNSt3__119__shared_weak_count14__release_weakEv 
LBB3_6:
	mov	edi, 32
	call	___cxa_allocate_exception
	mov	r14, rax
Ltmp3:
	mov	edi, 48
	call	__Znwm
Ltmp4:

	mov	qword ptr [rbp - 48], rax
	movaps	xmm0, xmmword ptr [rip + LCPI3_0] 
	movaps	xmmword ptr [rbp - 64], xmm0
	movabs	rcx, 8243122671947182689
	mov	qword ptr [rax + 24], rcx
	movabs	rcx, 8079591207998612329
	mov	qword ptr [rax + 16], rcx
	movabs	rcx, 7809933828251800402
	mov	qword ptr [rax + 8], rcx
	movabs	rcx, 2334106421097295433
	mov	qword ptr [rax], rcx
	mov	word ptr [rax + 32], 115
	mov	bl, 1
Ltmp6:
	lea	rsi, [rbp - 64]
	mov	rdi, r14
	call	__ZN5Botan14Decoding_ErrorC1ERKNSt3__112basic_stringIcNS1_11char_traitsIcEENS1_9allocatorIcEEEE
Ltmp7:

	xor	ebx, ebx
Ltmp8:
	mov	rsi, qword ptr [rip + __ZTIN5Botan14Decoding_ErrorE@GOTPCREL]
	mov	rdx, qword ptr [rip + __ZN5Botan14Decoding_ErrorD1Ev@GOTPCREL]
	mov	rdi, r14
	call	___cxa_throw
Ltmp9:

	ud2
LBB3_10:
Ltmp5:
	mov	r15, rax
	jmp	LBB3_14
LBB3_11:
Ltmp10:
	mov	r15, rax
	test	byte ptr [rbp - 64], 1
	je	LBB3_13

	mov	rdi, qword ptr [rbp - 48]
	call	__ZdlPv
LBB3_13:
	test	bl, bl
	je	LBB3_20
LBB3_14:
	mov	rdi, r14
	call	___cxa_free_exception
	jmp	LBB3_20
LBB3_19:
Ltmp2:
	mov	r15, rax
	mov	rdi, r13
	call	__ZNSt3__119__shared_weak_countD2Ev
	mov	rdi, r13
	call	__ZdlPv
LBB3_20:
	mov	rdi, r15
	call	__Unwind_Resume
	ud2
Lfunc_end0:
	.cfi_endproc
	.section	__TEXT,__gcc_except_tab
	.p2align	2
GCC_except_table3:
Lexception0:
	.byte	255                     
	.byte	255                     
	.byte	1                       
	.uleb128 Lcst_end0-Lcst_begin0
Lcst_begin0:
	.uleb128 Lfunc_begin0-Lfunc_begin0 
	.uleb128 Ltmp0-Lfunc_begin0     
	.byte	0                       
	.byte	0                       
	.uleb128 Ltmp0-Lfunc_begin0     
	.uleb128 Ltmp1-Ltmp0            
	.uleb128 Ltmp2-Lfunc_begin0     
	.byte	0                       
	.uleb128 Ltmp1-Lfunc_begin0     
	.uleb128 Ltmp3-Ltmp1            
	.byte	0                       
	.byte	0                       
	.uleb128 Ltmp3-Lfunc_begin0     
	.uleb128 Ltmp4-Ltmp3            
	.uleb128 Ltmp5-Lfunc_begin0     
	.byte	0                       
	.uleb128 Ltmp6-Lfunc_begin0     
	.uleb128 Ltmp9-Ltmp6            
	.uleb128 Ltmp10-Lfunc_begin0    
	.byte	0                       
	.uleb128 Ltmp9-Lfunc_begin0     
	.uleb128 Lfunc_end0-Ltmp9       
	.byte	0                       
	.byte	0                       
Lcst_end0:
	.p2align	2
                                        
	.section	__TEXT,__text,regular,pure_instructions
	.globl	__ZN5Botan14Decoding_ErrorD1Ev 
	.weak_def_can_be_hidden	__ZN5Botan14Decoding_ErrorD1Ev
	.p2align	4, 0x90
__ZN5Botan14Decoding_ErrorD1Ev:         
	.cfi_startproc

	push	rbp
	.cfi_def_cfa_offset 16
	.cfi_offset rbp, -16
	mov	rbp, rsp
	.cfi_def_cfa_register rbp
	push	rbx
	push	rax
	.cfi_offset rbx, -24
	mov	rbx, rdi
	mov	rax, qword ptr [rip + __ZTVN5Botan9ExceptionE@GOTPCREL]
	add	rax, 16
	mov	qword ptr [rdi], rax
	test	byte ptr [rdi + 8], 1
	je	LBB4_2

	mov	rdi, qword ptr [rbx + 24]
	call	__ZdlPv
LBB4_2:
	mov	rdi, rbx
	add	rsp, 8
	pop	rbx
	pop	rbp
	jmp	__ZNSt9exceptionD2Ev    
	.cfi_endproc
                                        
	.globl	__ZN5Botan13RSA_PublicKeyC2ERKNS_19AlgorithmIdentifierERKNSt3__16vectorIhNS4_9allocatorIhEEEE 
	.p2align	4, 0x90
__ZN5Botan13RSA_PublicKeyC2ERKNS_19AlgorithmIdentifierERKNSt3__16vectorIhNS4_9allocatorIhEEEE: 
Lfunc_begin1:
	.cfi_startproc
	.cfi_personality 155, ___gxx_personality_v0
	.cfi_lsda 16, Lexception1

	push	rbp
	.cfi_def_cfa_offset 16
	.cfi_offset rbp, -16
	mov	rbp, rsp
	.cfi_def_cfa_register rbp
	push	r14
	push	rbx
	sub	rsp, 208
	.cfi_offset rbx, -32
	.cfi_offset r14, -24
	mov	rbx, rdi
	mov	rax, qword ptr [rsi]
	mov	qword ptr [rdi], rax
	mov	rdx, qword ptr [rsi + 8]
	mov	rax, qword ptr [rax - 136]
	mov	qword ptr [rdi + rax], rdx
	mov	qword ptr [rdi + 16], 0
	mov	qword ptr [rdi + 8], 0
	xorps	xmm0, xmm0
	movaps	xmmword ptr [rbp - 64], xmm0
	mov	qword ptr [rbp - 48], 0
	mov	qword ptr [rbp - 40], -1
	mov	dword ptr [rbp - 32], 1
	movaps	xmmword ptr [rbp - 112], xmm0
	mov	qword ptr [rbp - 96], 0
	mov	qword ptr [rbp - 88], -1
	mov	dword ptr [rbp - 80], 1
Ltmp11:
	lea	rdi, [rbp - 168]
	mov	rsi, rcx
	call	__ZN5Botan11BER_DecoderC1ERKNSt3__16vectorIhNS1_9allocatorIhEEEE
Ltmp12:

Ltmp14:
	lea	rdi, [rbp - 224]
	lea	rsi, [rbp - 168]
	mov	edx, 16
	xor	ecx, ecx
	call	__ZN5Botan11BER_Decoder10start_consENS_9ASN1_TypeENS_10ASN1_ClassE
Ltmp15:

Ltmp17:
	lea	rdi, [rbp - 224]
	lea	rsi, [rbp - 64]
	mov	edx, 2
	xor	ecx, ecx
	call	__ZN5Botan11BER_Decoder6decodeERNS_6BigIntENS_9ASN1_TypeENS_10ASN1_ClassE
Ltmp18:

Ltmp19:
	lea	rsi, [rbp - 112]
	mov	rdi, rax
	mov	edx, 2
	xor	ecx, ecx
	call	__ZN5Botan11BER_Decoder6decodeERNS_6BigIntENS_9ASN1_TypeENS_10ASN1_ClassE
Ltmp20:

Ltmp21:
	mov	rdi, rax
	call	__ZN5Botan11BER_Decoder8end_consEv
Ltmp22:

	mov	rdi, qword ptr [rbp - 176]
	mov	qword ptr [rbp - 176], 0
	test	rdi, rdi
	je	LBB5_7

	mov	rax, qword ptr [rdi]
	call	qword ptr [rax + 56]
LBB5_7:
	mov	rdi, qword ptr [rbp - 208]
	test	rdi, rdi
	je	LBB5_9

	mov	qword ptr [rbp - 200], rdi
	mov	rsi, qword ptr [rbp - 192]
	sub	rsi, rdi
Ltmp30:
	mov	edx, 1
	call	__ZN5Botan17deallocate_memoryEPvmm
Ltmp31:
LBB5_9:
	mov	rdi, qword ptr [rbp - 120]
	mov	qword ptr [rbp - 120], 0
	test	rdi, rdi
	je	LBB5_11

	mov	rax, qword ptr [rdi]
	call	qword ptr [rax + 56]
LBB5_11:
	mov	rdi, qword ptr [rbp - 152]
	test	rdi, rdi
	je	LBB5_13

	mov	qword ptr [rbp - 144], rdi
	mov	rsi, qword ptr [rbp - 136]
	sub	rsi, rdi
Ltmp33:
	mov	edx, 1
	call	__ZN5Botan17deallocate_memoryEPvmm
Ltmp34:
LBB5_13:
Ltmp36:
	lea	rsi, [rbp - 64]
	lea	rdx, [rbp - 112]
	mov	rdi, rbx
	call	__ZN5Botan13RSA_PublicKey4initEONS_6BigIntES2_
Ltmp37:

	mov	rdi, qword ptr [rbp - 112]
	test	rdi, rdi
	je	LBB5_16

	mov	qword ptr [rbp - 104], rdi
	mov	rsi, qword ptr [rbp - 96]
	sub	rsi, rdi
	sar	rsi, 3
Ltmp45:
	mov	edx, 8
	call	__ZN5Botan17deallocate_memoryEPvmm
Ltmp46:
LBB5_16:
	mov	rdi, qword ptr [rbp - 64]
	test	rdi, rdi
	je	LBB5_18

	mov	qword ptr [rbp - 56], rdi
	mov	rsi, qword ptr [rbp - 48]
	sub	rsi, rdi
	sar	rsi, 3
Ltmp48:
	mov	edx, 8
	call	__ZN5Botan17deallocate_memoryEPvmm
Ltmp49:
LBB5_18:
	add	rsp, 208
	pop	rbx
	pop	r14
	pop	rbp
	ret
LBB5_41:
Ltmp50:
	mov	rdi, rax
	call	___clang_call_terminate
LBB5_40:
Ltmp47:
	mov	rdi, rax
	call	___clang_call_terminate
LBB5_39:
Ltmp35:
	mov	rdi, rax
	call	___clang_call_terminate
LBB5_38:
Ltmp32:
	mov	rdi, rax
	call	___clang_call_terminate
LBB5_31:
Ltmp38:
	jmp	LBB5_32
LBB5_24:
Ltmp16:
	mov	r14, rax
	jmp	LBB5_25
LBB5_30:
Ltmp13:
LBB5_32:
	mov	r14, rax
	jmp	LBB5_33
LBB5_19:
Ltmp23:
	mov	r14, rax
	mov	rdi, qword ptr [rbp - 176]
	mov	qword ptr [rbp - 176], 0
	test	rdi, rdi
	je	LBB5_21

	mov	rax, qword ptr [rdi]
	call	qword ptr [rax + 56]
LBB5_21:
	mov	rdi, qword ptr [rbp - 208]
	test	rdi, rdi
	je	LBB5_25

	mov	qword ptr [rbp - 200], rdi
	mov	rsi, qword ptr [rbp - 192]
	sub	rsi, rdi
Ltmp24:
	mov	edx, 1
	call	__ZN5Botan17deallocate_memoryEPvmm
Ltmp25:
LBB5_25:
	mov	rdi, qword ptr [rbp - 120]
	mov	qword ptr [rbp - 120], 0
	test	rdi, rdi
	je	LBB5_27

	mov	rax, qword ptr [rdi]
	call	qword ptr [rax + 56]
LBB5_27:
	mov	rdi, qword ptr [rbp - 152]
	test	rdi, rdi
	je	LBB5_33

	mov	qword ptr [rbp - 144], rdi
	mov	rsi, qword ptr [rbp - 136]
	sub	rsi, rdi
Ltmp27:
	mov	edx, 1
	call	__ZN5Botan17deallocate_memoryEPvmm
Ltmp28:
LBB5_33:
	mov	rdi, qword ptr [rbp - 112]
	test	rdi, rdi
	je	LBB5_35

	mov	qword ptr [rbp - 104], rdi
	mov	rsi, qword ptr [rbp - 96]
	sub	rsi, rdi
	sar	rsi, 3
Ltmp39:
	mov	edx, 8
	call	__ZN5Botan17deallocate_memoryEPvmm
Ltmp40:
LBB5_35:
	mov	rdi, qword ptr [rbp - 64]
	test	rdi, rdi
	je	LBB5_37

	mov	qword ptr [rbp - 56], rdi
	mov	rsi, qword ptr [rbp - 48]
	sub	rsi, rdi
	sar	rsi, 3
Ltmp42:
	mov	edx, 8
	call	__ZN5Botan17deallocate_memoryEPvmm
Ltmp43:
LBB5_37:
	lea	rdi, [rbp - 64]
	mov	rsi, rbx
	call	__ZN5Botan13RSA_PublicKeyC2ERKNS_19AlgorithmIdentifierERKNSt3__16vectorIhNS4_9allocatorIhEEEE.cold.1
	mov	rdi, r14
	call	__Unwind_Resume
	ud2
LBB5_23:
Ltmp26:
	mov	rdi, rax
	call	___clang_call_terminate
LBB5_29:
Ltmp29:
	mov	rdi, rax
	call	___clang_call_terminate
LBB5_43:
Ltmp44:
	mov	rdi, rax
	call	___clang_call_terminate
LBB5_42:
Ltmp41:
	mov	rdi, rax
	call	___clang_call_terminate
Lfunc_end1:
	.cfi_endproc
	.section	__TEXT,__gcc_except_tab
	.p2align	2
GCC_except_table5:
Lexception1:
	.byte	255                     
	.byte	155                     
	.uleb128 Lttbase0-Lttbaseref0
Lttbaseref0:
	.byte	1                       
	.uleb128 Lcst_end1-Lcst_begin1
Lcst_begin1:
	.uleb128 Ltmp11-Lfunc_begin1    
	.uleb128 Ltmp12-Ltmp11          
	.uleb128 Ltmp13-Lfunc_begin1    
	.byte	0                       
	.uleb128 Ltmp14-Lfunc_begin1    
	.uleb128 Ltmp15-Ltmp14          
	.uleb128 Ltmp16-Lfunc_begin1    
	.byte	0                       
	.uleb128 Ltmp17-Lfunc_begin1    
	.uleb128 Ltmp22-Ltmp17          
	.uleb128 Ltmp23-Lfunc_begin1    
	.byte	0                       
	.uleb128 Ltmp22-Lfunc_begin1    
	.uleb128 Ltmp30-Ltmp22          
	.byte	0                       
	.byte	0                       
	.uleb128 Ltmp30-Lfunc_begin1    
	.uleb128 Ltmp31-Ltmp30          
	.uleb128 Ltmp32-Lfunc_begin1    
	.byte	1                       
	.uleb128 Ltmp31-Lfunc_begin1    
	.uleb128 Ltmp33-Ltmp31          
	.byte	0                       
	.byte	0                       
	.uleb128 Ltmp33-Lfunc_begin1    
	.uleb128 Ltmp34-Ltmp33          
	.uleb128 Ltmp35-Lfunc_begin1    
	.byte	1                       
	.uleb128 Ltmp36-Lfunc_begin1    
	.uleb128 Ltmp37-Ltmp36          
	.uleb128 Ltmp38-Lfunc_begin1    
	.byte	0                       
	.uleb128 Ltmp45-Lfunc_begin1    
	.uleb128 Ltmp46-Ltmp45          
	.uleb128 Ltmp47-Lfunc_begin1    
	.byte	1                       
	.uleb128 Ltmp48-Lfunc_begin1    
	.uleb128 Ltmp49-Ltmp48          
	.uleb128 Ltmp50-Lfunc_begin1    
	.byte	1                       
	.uleb128 Ltmp49-Lfunc_begin1    
	.uleb128 Ltmp24-Ltmp49          
	.byte	0                       
	.byte	0                       
	.uleb128 Ltmp24-Lfunc_begin1    
	.uleb128 Ltmp25-Ltmp24          
	.uleb128 Ltmp26-Lfunc_begin1    
	.byte	1                       
	.uleb128 Ltmp25-Lfunc_begin1    
	.uleb128 Ltmp27-Ltmp25          
	.byte	0                       
	.byte	0                       
	.uleb128 Ltmp27-Lfunc_begin1    
	.uleb128 Ltmp28-Ltmp27          
	.uleb128 Ltmp29-Lfunc_begin1    
	.byte	1                       
	.uleb128 Ltmp39-Lfunc_begin1    
	.uleb128 Ltmp40-Ltmp39          
	.uleb128 Ltmp41-Lfunc_begin1    
	.byte	1                       
	.uleb128 Ltmp42-Lfunc_begin1    
	.uleb128 Ltmp43-Ltmp42          
	.uleb128 Ltmp44-Lfunc_begin1    
	.byte	1                       
	.uleb128 Ltmp43-Lfunc_begin1    
	.uleb128 Lfunc_end1-Ltmp43      
	.byte	0                       
	.byte	0                       
Lcst_end1:
	.byte	1                       
                                        
	.byte	0                       
	.p2align	2
                                        
	.long	0                       
Lttbase0:
	.p2align	2
                                        
	.section	__TEXT,__text,regular,pure_instructions
	.globl	__ZN5Botan13RSA_PublicKeyC1ERKNS_19AlgorithmIdentifierERKNSt3__16vectorIhNS4_9allocatorIhEEEE 
	.p2align	4, 0x90
__ZN5Botan13RSA_PublicKeyC1ERKNS_19AlgorithmIdentifierERKNSt3__16vectorIhNS4_9allocatorIhEEEE: 
Lfunc_begin2:
	.cfi_startproc
	.cfi_personality 155, ___gxx_personality_v0
	.cfi_lsda 16, Lexception2

	push	rbp
	.cfi_def_cfa_offset 16
	.cfi_offset rbp, -16
	mov	rbp, rsp
	.cfi_def_cfa_register rbp
	push	r14
	push	rbx
	sub	rsp, 208
	.cfi_offset rbx, -32
	.cfi_offset r14, -24
	mov	rbx, rdi
	lea	rax, [rip + __ZTVN5Botan13RSA_PublicKeyE+136]
	mov	qword ptr [rdi], rax
	mov	qword ptr [rdi + 8], 0
	mov	qword ptr [rdi + 16], 0
	xorps	xmm0, xmm0
	movaps	xmmword ptr [rbp - 64], xmm0
	mov	qword ptr [rbp - 48], 0
	mov	qword ptr [rbp - 40], -1
	mov	dword ptr [rbp - 32], 1
	movaps	xmmword ptr [rbp - 112], xmm0
	mov	qword ptr [rbp - 96], 0
	mov	qword ptr [rbp - 88], -1
	mov	dword ptr [rbp - 80], 1
Ltmp51:
	lea	rdi, [rbp - 168]
	mov	rsi, rdx
	call	__ZN5Botan11BER_DecoderC1ERKNSt3__16vectorIhNS1_9allocatorIhEEEE
Ltmp52:

Ltmp54:
	lea	rdi, [rbp - 224]
	lea	rsi, [rbp - 168]
	mov	edx, 16
	xor	ecx, ecx
	call	__ZN5Botan11BER_Decoder10start_consENS_9ASN1_TypeENS_10ASN1_ClassE
Ltmp55:

Ltmp57:
	lea	rdi, [rbp - 224]
	lea	rsi, [rbp - 64]
	mov	edx, 2
	xor	ecx, ecx
	call	__ZN5Botan11BER_Decoder6decodeERNS_6BigIntENS_9ASN1_TypeENS_10ASN1_ClassE
Ltmp58:

Ltmp59:
	lea	rsi, [rbp - 112]
	mov	rdi, rax
	mov	edx, 2
	xor	ecx, ecx
	call	__ZN5Botan11BER_Decoder6decodeERNS_6BigIntENS_9ASN1_TypeENS_10ASN1_ClassE
Ltmp60:

Ltmp61:
	mov	rdi, rax
	call	__ZN5Botan11BER_Decoder8end_consEv
Ltmp62:

	mov	rdi, qword ptr [rbp - 176]
	mov	qword ptr [rbp - 176], 0
	test	rdi, rdi
	je	LBB6_7

	mov	rax, qword ptr [rdi]
	call	qword ptr [rax + 56]
LBB6_7:
	mov	rdi, qword ptr [rbp - 208]
	test	rdi, rdi
	je	LBB6_9

	mov	qword ptr [rbp - 200], rdi
	mov	rsi, qword ptr [rbp - 192]
	sub	rsi, rdi
Ltmp70:
	mov	edx, 1
	call	__ZN5Botan17deallocate_memoryEPvmm
Ltmp71:
LBB6_9:
	mov	rdi, qword ptr [rbp - 120]
	mov	qword ptr [rbp - 120], 0
	test	rdi, rdi
	je	LBB6_11

	mov	rax, qword ptr [rdi]
	call	qword ptr [rax + 56]
LBB6_11:
	mov	rdi, qword ptr [rbp - 152]
	test	rdi, rdi
	je	LBB6_13

	mov	qword ptr [rbp - 144], rdi
	mov	rsi, qword ptr [rbp - 136]
	sub	rsi, rdi
Ltmp73:
	mov	edx, 1
	call	__ZN5Botan17deallocate_memoryEPvmm
Ltmp74:
LBB6_13:
Ltmp76:
	lea	rsi, [rbp - 64]
	lea	rdx, [rbp - 112]
	mov	rdi, rbx
	call	__ZN5Botan13RSA_PublicKey4initEONS_6BigIntES2_
Ltmp77:

	mov	rdi, qword ptr [rbp - 112]
	test	rdi, rdi
	je	LBB6_16

	mov	qword ptr [rbp - 104], rdi
	mov	rsi, qword ptr [rbp - 96]
	sub	rsi, rdi
	sar	rsi, 3
Ltmp85:
	mov	edx, 8
	call	__ZN5Botan17deallocate_memoryEPvmm
Ltmp86:
LBB6_16:
	mov	rdi, qword ptr [rbp - 64]
	test	rdi, rdi
	je	LBB6_18

	mov	qword ptr [rbp - 56], rdi
	mov	rsi, qword ptr [rbp - 48]
	sub	rsi, rdi
	sar	rsi, 3
Ltmp88:
	mov	edx, 8
	call	__ZN5Botan17deallocate_memoryEPvmm
Ltmp89:
LBB6_18:
	add	rsp, 208
	pop	rbx
	pop	r14
	pop	rbp
	ret
LBB6_41:
Ltmp90:
	mov	rdi, rax
	call	___clang_call_terminate
LBB6_40:
Ltmp87:
	mov	rdi, rax
	call	___clang_call_terminate
LBB6_39:
Ltmp75:
	mov	rdi, rax
	call	___clang_call_terminate
LBB6_38:
Ltmp72:
	mov	rdi, rax
	call	___clang_call_terminate
LBB6_31:
Ltmp78:
	jmp	LBB6_32
LBB6_24:
Ltmp56:
	mov	r14, rax
	jmp	LBB6_25
LBB6_30:
Ltmp53:
LBB6_32:
	mov	r14, rax
	jmp	LBB6_33
LBB6_19:
Ltmp63:
	mov	r14, rax
	mov	rdi, qword ptr [rbp - 176]
	mov	qword ptr [rbp - 176], 0
	test	rdi, rdi
	je	LBB6_21

	mov	rax, qword ptr [rdi]
	call	qword ptr [rax + 56]
LBB6_21:
	mov	rdi, qword ptr [rbp - 208]
	test	rdi, rdi
	je	LBB6_25

	mov	qword ptr [rbp - 200], rdi
	mov	rsi, qword ptr [rbp - 192]
	sub	rsi, rdi
Ltmp64:
	mov	edx, 1
	call	__ZN5Botan17deallocate_memoryEPvmm
Ltmp65:
LBB6_25:
	mov	rdi, qword ptr [rbp - 120]
	mov	qword ptr [rbp - 120], 0
	test	rdi, rdi
	je	LBB6_27

	mov	rax, qword ptr [rdi]
	call	qword ptr [rax + 56]
LBB6_27:
	mov	rdi, qword ptr [rbp - 152]
	test	rdi, rdi
	je	LBB6_33

	mov	qword ptr [rbp - 144], rdi
	mov	rsi, qword ptr [rbp - 136]
	sub	rsi, rdi
Ltmp67:
	mov	edx, 1
	call	__ZN5Botan17deallocate_memoryEPvmm
Ltmp68:
LBB6_33:
	mov	rdi, qword ptr [rbp - 112]
	test	rdi, rdi
	je	LBB6_35

	mov	qword ptr [rbp - 104], rdi
	mov	rsi, qword ptr [rbp - 96]
	sub	rsi, rdi
	sar	rsi, 3
Ltmp79:
	mov	edx, 8
	call	__ZN5Botan17deallocate_memoryEPvmm
Ltmp80:
LBB6_35:
	mov	rdi, qword ptr [rbp - 64]
	test	rdi, rdi
	je	LBB6_37

	mov	qword ptr [rbp - 56], rdi
	mov	rsi, qword ptr [rbp - 48]
	sub	rsi, rdi
	sar	rsi, 3
Ltmp82:
	mov	edx, 8
	call	__ZN5Botan17deallocate_memoryEPvmm
Ltmp83:
LBB6_37:
	lea	rdi, [rbp - 64]
	mov	rsi, rbx
	call	__ZN5Botan13RSA_PublicKeyC1ERKNS_19AlgorithmIdentifierERKNSt3__16vectorIhNS4_9allocatorIhEEEE.cold.1
	mov	rdi, r14
	call	__Unwind_Resume
	ud2
LBB6_23:
Ltmp66:
	mov	rdi, rax
	call	___clang_call_terminate
LBB6_29:
Ltmp69:
	mov	rdi, rax
	call	___clang_call_terminate
LBB6_43:
Ltmp84:
	mov	rdi, rax
	call	___clang_call_terminate
LBB6_42:
Ltmp81:
	mov	rdi, rax
	call	___clang_call_terminate
Lfunc_end2:
	.cfi_endproc
	.section	__TEXT,__gcc_except_tab
	.p2align	2
GCC_except_table6:
Lexception2:
	.byte	255                     
	.byte	155                     
	.uleb128 Lttbase1-Lttbaseref1
Lttbaseref1:
	.byte	1                       
	.uleb128 Lcst_end2-Lcst_begin2
Lcst_begin2:
	.uleb128 Ltmp51-Lfunc_begin2    
	.uleb128 Ltmp52-Ltmp51          
	.uleb128 Ltmp53-Lfunc_begin2    
	.byte	0                       
	.uleb128 Ltmp54-Lfunc_begin2    
	.uleb128 Ltmp55-Ltmp54          
	.uleb128 Ltmp56-Lfunc_begin2    
	.byte	0                       
	.uleb128 Ltmp57-Lfunc_begin2    
	.uleb128 Ltmp62-Ltmp57          
	.uleb128 Ltmp63-Lfunc_begin2    
	.byte	0                       
	.uleb128 Ltmp62-Lfunc_begin2    
	.uleb128 Ltmp70-Ltmp62          
	.byte	0                       
	.byte	0                       
	.uleb128 Ltmp70-Lfunc_begin2    
	.uleb128 Ltmp71-Ltmp70          
	.uleb128 Ltmp72-Lfunc_begin2    
	.byte	1                       
	.uleb128 Ltmp71-Lfunc_begin2    
	.uleb128 Ltmp73-Ltmp71          
	.byte	0                       
	.byte	0                       
	.uleb128 Ltmp73-Lfunc_begin2    
	.uleb128 Ltmp74-Ltmp73          
	.uleb128 Ltmp75-Lfunc_begin2    
	.byte	1                       
	.uleb128 Ltmp76-Lfunc_begin2    
	.uleb128 Ltmp77-Ltmp76          
	.uleb128 Ltmp78-Lfunc_begin2    
	.byte	0                       
	.uleb128 Ltmp85-Lfunc_begin2    
	.uleb128 Ltmp86-Ltmp85          
	.uleb128 Ltmp87-Lfunc_begin2    
	.byte	1                       
	.uleb128 Ltmp88-Lfunc_begin2    
	.uleb128 Ltmp89-Ltmp88          
	.uleb128 Ltmp90-Lfunc_begin2    
	.byte	1                       
	.uleb128 Ltmp89-Lfunc_begin2    
	.uleb128 Ltmp64-Ltmp89          
	.byte	0                       
	.byte	0                       
	.uleb128 Ltmp64-Lfunc_begin2    
	.uleb128 Ltmp65-Ltmp64          
	.uleb128 Ltmp66-Lfunc_begin2    
	.byte	1                       
	.uleb128 Ltmp65-Lfunc_begin2    
	.uleb128 Ltmp67-Ltmp65          
	.byte	0                       
	.byte	0                       
	.uleb128 Ltmp67-Lfunc_begin2    
	.uleb128 Ltmp68-Ltmp67          
	.uleb128 Ltmp69-Lfunc_begin2    
	.byte	1                       
	.uleb128 Ltmp79-Lfunc_begin2    
	.uleb128 Ltmp80-Ltmp79          
	.uleb128 Ltmp81-Lfunc_begin2    
	.byte	1                       
	.uleb128 Ltmp82-Lfunc_begin2    
	.uleb128 Ltmp83-Ltmp82          
	.uleb128 Ltmp84-Lfunc_begin2    
	.byte	1                       
	.uleb128 Ltmp83-Lfunc_begin2    
	.uleb128 Lfunc_end2-Ltmp83      
	.byte	0                       
	.byte	0                       
Lcst_end2:
	.byte	1                       
                                        
	.byte	0                       
	.p2align	2
                                        
	.long	0                       
Lttbase1:
	.p2align	2
                                        
	.section	__TEXT,__text,regular,pure_instructions
	.globl	__ZN5Botan13RSA_PublicKeyC2ERKNS_6BigIntES3_ 
	.p2align	4, 0x90
__ZN5Botan13RSA_PublicKeyC2ERKNS_6BigIntES3_: 
Lfunc_begin3:
	.cfi_startproc
	.cfi_personality 155, ___gxx_personality_v0
	.cfi_lsda 16, Lexception3

	push	rbp
	.cfi_def_cfa_offset 16
	.cfi_offset rbp, -16
	mov	rbp, rsp
	.cfi_def_cfa_register rbp
	push	r15
	push	r14
	push	rbx
	sub	rsp, 88
	.cfi_offset rbx, -40
	.cfi_offset r14, -32
	.cfi_offset r15, -24
	mov	r14, rcx
	mov	rbx, rdx
	mov	r15, rdi
	mov	rax, qword ptr [rsi]
	mov	qword ptr [rdi], rax
	mov	rcx, qword ptr [rsi + 8]
	mov	rax, qword ptr [rax - 136]
	mov	qword ptr [rdi + rax], rcx
	mov	qword ptr [rdi + 16], 0
	mov	qword ptr [rdi + 8], 0
Ltmp91:
	lea	rdi, [rbp - 104]
	mov	rsi, rdx
	call	__ZNSt3__16vectorIyN5Botan16secure_allocatorIyEEEC2ERKS4_
Ltmp92:

	mov	rax, qword ptr [rbx + 24]
	mov	qword ptr [rbp - 80], rax
	mov	eax, dword ptr [rbx + 32]
	mov	dword ptr [rbp - 72], eax
Ltmp94:
	lea	rdi, [rbp - 64]
	mov	rsi, r14
	call	__ZNSt3__16vectorIyN5Botan16secure_allocatorIyEEEC2ERKS4_
Ltmp95:

	mov	rax, qword ptr [r14 + 24]
	mov	qword ptr [rbp - 40], rax
	mov	eax, dword ptr [r14 + 32]
	mov	dword ptr [rbp - 32], eax
Ltmp97:
	lea	rsi, [rbp - 104]
	lea	rdx, [rbp - 64]
	mov	rdi, r15
	call	__ZN5Botan13RSA_PublicKey4initEONS_6BigIntES2_
Ltmp98:

	mov	rdi, qword ptr [rbp - 64]
	test	rdi, rdi
	je	LBB7_5

	mov	qword ptr [rbp - 56], rdi
	mov	rsi, qword ptr [rbp - 48]
	sub	rsi, rdi
	sar	rsi, 3
Ltmp106:
	mov	edx, 8
	call	__ZN5Botan17deallocate_memoryEPvmm
Ltmp107:
LBB7_5:
	mov	rdi, qword ptr [rbp - 104]
	test	rdi, rdi
	je	LBB7_7

	mov	qword ptr [rbp - 96], rdi
	mov	rsi, qword ptr [rbp - 88]
	sub	rsi, rdi
	sar	rsi, 3
Ltmp109:
	mov	edx, 8
	call	__ZN5Botan17deallocate_memoryEPvmm
Ltmp110:
LBB7_7:
	add	rsp, 88
	pop	rbx
	pop	r14
	pop	r15
	pop	rbp
	ret
LBB7_21:
Ltmp111:
	mov	rdi, rax
	call	___clang_call_terminate
LBB7_20:
Ltmp108:
	mov	rdi, rax
	call	___clang_call_terminate
LBB7_8:
Ltmp99:
	mov	r14, rax
	mov	rdi, qword ptr [rbp - 64]
	test	rdi, rdi
	je	LBB7_12

	mov	qword ptr [rbp - 56], rdi
	mov	rsi, qword ptr [rbp - 48]
	sub	rsi, rdi
	sar	rsi, 3
Ltmp100:
	mov	edx, 8
	call	__ZN5Botan17deallocate_memoryEPvmm
Ltmp101:
	jmp	LBB7_12
LBB7_10:
Ltmp102:
	mov	rdi, rax
	call	___clang_call_terminate
LBB7_11:
Ltmp96:
	mov	r14, rax
LBB7_12:
	mov	rdi, qword ptr [rbp - 104]
	test	rdi, rdi
	je	LBB7_16

	mov	qword ptr [rbp - 96], rdi
	mov	rsi, qword ptr [rbp - 88]
	sub	rsi, rdi
	sar	rsi, 3
Ltmp103:
	mov	edx, 8
	call	__ZN5Botan17deallocate_memoryEPvmm
Ltmp104:
	jmp	LBB7_16
LBB7_14:
Ltmp105:
	mov	rdi, rax
	call	___clang_call_terminate
LBB7_15:
Ltmp93:
	mov	r14, rax
LBB7_16:
	mov	rbx, qword ptr [r15 + 16]
	test	rbx, rbx
	je	LBB7_19

	mov	rax, -1
	lock		xadd	qword ptr [rbx + 8], rax
	test	rax, rax
	jne	LBB7_19

	mov	rax, qword ptr [rbx]
	mov	rdi, rbx
	call	qword ptr [rax + 16]
	mov	rdi, rbx
	call	__ZNSt3__119__shared_weak_count14__release_weakEv
LBB7_19:
	mov	rdi, r14
	call	__Unwind_Resume
	ud2
Lfunc_end3:
	.cfi_endproc
	.section	__TEXT,__gcc_except_tab
	.p2align	2
GCC_except_table7:
Lexception3:
	.byte	255                     
	.byte	155                     
	.uleb128 Lttbase2-Lttbaseref2
Lttbaseref2:
	.byte	1                       
	.uleb128 Lcst_end3-Lcst_begin3
Lcst_begin3:
	.uleb128 Ltmp91-Lfunc_begin3    
	.uleb128 Ltmp92-Ltmp91          
	.uleb128 Ltmp93-Lfunc_begin3    
	.byte	0                       
	.uleb128 Ltmp94-Lfunc_begin3    
	.uleb128 Ltmp95-Ltmp94          
	.uleb128 Ltmp96-Lfunc_begin3    
	.byte	0                       
	.uleb128 Ltmp97-Lfunc_begin3    
	.uleb128 Ltmp98-Ltmp97          
	.uleb128 Ltmp99-Lfunc_begin3    
	.byte	0                       
	.uleb128 Ltmp106-Lfunc_begin3   
	.uleb128 Ltmp107-Ltmp106        
	.uleb128 Ltmp108-Lfunc_begin3   
	.byte	1                       
	.uleb128 Ltmp109-Lfunc_begin3   
	.uleb128 Ltmp110-Ltmp109        
	.uleb128 Ltmp111-Lfunc_begin3   
	.byte	1                       
	.uleb128 Ltmp100-Lfunc_begin3   
	.uleb128 Ltmp101-Ltmp100        
	.uleb128 Ltmp102-Lfunc_begin3   
	.byte	1                       
	.uleb128 Ltmp103-Lfunc_begin3   
	.uleb128 Ltmp104-Ltmp103        
	.uleb128 Ltmp105-Lfunc_begin3   
	.byte	1                       
	.uleb128 Ltmp104-Lfunc_begin3   
	.uleb128 Lfunc_end3-Ltmp104     
	.byte	0                       
	.byte	0                       
Lcst_end3:
	.byte	1                       
                                        
	.byte	0                       
	.p2align	2
                                        
	.long	0                       
Lttbase2:
	.p2align	2
                                        
	.section	__TEXT,__text,regular,pure_instructions
	.globl	__ZN5Botan13RSA_PublicKeyC1ERKNS_6BigIntES3_ 
	.p2align	4, 0x90
__ZN5Botan13RSA_PublicKeyC1ERKNS_6BigIntES3_: 
Lfunc_begin4:
	.cfi_startproc
	.cfi_personality 155, ___gxx_personality_v0
	.cfi_lsda 16, Lexception4

	push	rbp
	.cfi_def_cfa_offset 16
	.cfi_offset rbp, -16
	mov	rbp, rsp
	.cfi_def_cfa_register rbp
	push	r15
	push	r14
	push	rbx
	sub	rsp, 88
	.cfi_offset rbx, -40
	.cfi_offset r14, -32
	.cfi_offset r15, -24
	mov	r14, rdx
	mov	rbx, rsi
	mov	r15, rdi
	lea	rax, [rip + __ZTVN5Botan13RSA_PublicKeyE+136]
	mov	qword ptr [rdi], rax
	mov	qword ptr [rdi + 8], 0
	mov	qword ptr [rdi + 16], 0
Ltmp112:
	lea	rdi, [rbp - 104]
	call	__ZNSt3__16vectorIyN5Botan16secure_allocatorIyEEEC2ERKS4_
Ltmp113:

	mov	rax, qword ptr [rbx + 24]
	mov	qword ptr [rbp - 80], rax
	mov	eax, dword ptr [rbx + 32]
	mov	dword ptr [rbp - 72], eax
Ltmp115:
	lea	rdi, [rbp - 64]
	mov	rsi, r14
	call	__ZNSt3__16vectorIyN5Botan16secure_allocatorIyEEEC2ERKS4_
Ltmp116:

	mov	rax, qword ptr [r14 + 24]
	mov	qword ptr [rbp - 40], rax
	mov	eax, dword ptr [r14 + 32]
	mov	dword ptr [rbp - 32], eax
Ltmp118:
	lea	rsi, [rbp - 104]
	lea	rdx, [rbp - 64]
	mov	rdi, r15
	call	__ZN5Botan13RSA_PublicKey4initEONS_6BigIntES2_
Ltmp119:

	mov	rdi, qword ptr [rbp - 64]
	test	rdi, rdi
	je	LBB8_5

	mov	qword ptr [rbp - 56], rdi
	mov	rsi, qword ptr [rbp - 48]
	sub	rsi, rdi
	sar	rsi, 3
Ltmp127:
	mov	edx, 8
	call	__ZN5Botan17deallocate_memoryEPvmm
Ltmp128:
LBB8_5:
	mov	rdi, qword ptr [rbp - 104]
	test	rdi, rdi
	je	LBB8_7

	mov	qword ptr [rbp - 96], rdi
	mov	rsi, qword ptr [rbp - 88]
	sub	rsi, rdi
	sar	rsi, 3
Ltmp130:
	mov	edx, 8
	call	__ZN5Botan17deallocate_memoryEPvmm
Ltmp131:
LBB8_7:
	add	rsp, 88
	pop	rbx
	pop	r14
	pop	r15
	pop	rbp
	ret
LBB8_21:
Ltmp132:
	mov	rdi, rax
	call	___clang_call_terminate
LBB8_20:
Ltmp129:
	mov	rdi, rax
	call	___clang_call_terminate
LBB8_8:
Ltmp120:
	mov	r14, rax
	mov	rdi, qword ptr [rbp - 64]
	test	rdi, rdi
	je	LBB8_12

	mov	qword ptr [rbp - 56], rdi
	mov	rsi, qword ptr [rbp - 48]
	sub	rsi, rdi
	sar	rsi, 3
Ltmp121:
	mov	edx, 8
	call	__ZN5Botan17deallocate_memoryEPvmm
Ltmp122:
	jmp	LBB8_12
LBB8_10:
Ltmp123:
	mov	rdi, rax
	call	___clang_call_terminate
LBB8_11:
Ltmp117:
	mov	r14, rax
LBB8_12:
	mov	rdi, qword ptr [rbp - 104]
	test	rdi, rdi
	je	LBB8_16

	mov	qword ptr [rbp - 96], rdi
	mov	rsi, qword ptr [rbp - 88]
	sub	rsi, rdi
	sar	rsi, 3
Ltmp124:
	mov	edx, 8
	call	__ZN5Botan17deallocate_memoryEPvmm
Ltmp125:
	jmp	LBB8_16
LBB8_14:
Ltmp126:
	mov	rdi, rax
	call	___clang_call_terminate
LBB8_15:
Ltmp114:
	mov	r14, rax
LBB8_16:
	mov	rbx, qword ptr [r15 + 16]
	test	rbx, rbx
	je	LBB8_19

	mov	rax, -1
	lock		xadd	qword ptr [rbx + 8], rax
	test	rax, rax
	jne	LBB8_19

	mov	rax, qword ptr [rbx]
	mov	rdi, rbx
	call	qword ptr [rax + 16]
	mov	rdi, rbx
	call	__ZNSt3__119__shared_weak_count14__release_weakEv
LBB8_19:
	mov	rdi, r14
	call	__Unwind_Resume
	ud2
Lfunc_end4:
	.cfi_endproc
	.section	__TEXT,__gcc_except_tab
	.p2align	2
GCC_except_table8:
Lexception4:
	.byte	255                     
	.byte	155                     
	.uleb128 Lttbase3-Lttbaseref3
Lttbaseref3:
	.byte	1                       
	.uleb128 Lcst_end4-Lcst_begin4
Lcst_begin4:
	.uleb128 Ltmp112-Lfunc_begin4   
	.uleb128 Ltmp113-Ltmp112        
	.uleb128 Ltmp114-Lfunc_begin4   
	.byte	0                       
	.uleb128 Ltmp115-Lfunc_begin4   
	.uleb128 Ltmp116-Ltmp115        
	.uleb128 Ltmp117-Lfunc_begin4   
	.byte	0                       
	.uleb128 Ltmp118-Lfunc_begin4   
	.uleb128 Ltmp119-Ltmp118        
	.uleb128 Ltmp120-Lfunc_begin4   
	.byte	0                       
	.uleb128 Ltmp127-Lfunc_begin4   
	.uleb128 Ltmp128-Ltmp127        
	.uleb128 Ltmp129-Lfunc_begin4   
	.byte	1                       
	.uleb128 Ltmp130-Lfunc_begin4   
	.uleb128 Ltmp131-Ltmp130        
	.uleb128 Ltmp132-Lfunc_begin4   
	.byte	1                       
	.uleb128 Ltmp121-Lfunc_begin4   
	.uleb128 Ltmp122-Ltmp121        
	.uleb128 Ltmp123-Lfunc_begin4   
	.byte	1                       
	.uleb128 Ltmp124-Lfunc_begin4   
	.uleb128 Ltmp125-Ltmp124        
	.uleb128 Ltmp126-Lfunc_begin4   
	.byte	1                       
	.uleb128 Ltmp125-Lfunc_begin4   
	.uleb128 Lfunc_end4-Ltmp125     
	.byte	0                       
	.byte	0                       
Lcst_end4:
	.byte	1                       
                                        
	.byte	0                       
	.p2align	2
                                        
	.long	0                       
Lttbase3:
	.p2align	2
                                        
	.section	__TEXT,__text,regular,pure_instructions
	.globl	__ZNK5Botan13RSA_PublicKey10key_lengthEv 
	.p2align	4, 0x90
__ZNK5Botan13RSA_PublicKey10key_lengthEv: 

	push	rbp
	mov	rbp, rsp
	mov	rax, qword ptr [rdi + 8]
	mov	rax, qword ptr [rax + 96]
	pop	rbp
	ret
                                        
	.globl	__ZTv0_n48_NK5Botan13RSA_PublicKey10key_lengthEv 
	.p2align	4, 0x90
__ZTv0_n48_NK5Botan13RSA_PublicKey10key_lengthEv: 

	push	rbp
	mov	rbp, rsp
	mov	rax, qword ptr [rdi]
	mov	rax, qword ptr [rax - 48]
	mov	rax, qword ptr [rdi + rax + 8]
	mov	rax, qword ptr [rax + 96]
	pop	rbp
	ret
                                        
	.globl	__ZNK5Botan13RSA_PublicKey18estimated_strengthEv 
	.p2align	4, 0x90
__ZNK5Botan13RSA_PublicKey18estimated_strengthEv: 
	.cfi_startproc

	push	rbp
	.cfi_def_cfa_offset 16
	.cfi_offset rbp, -16
	mov	rbp, rsp
	.cfi_def_cfa_register rbp
	mov	rax, qword ptr [rdi]
	call	qword ptr [rax + 32]
	mov	rdi, rax
	pop	rbp
	jmp	__ZN5Botan14if_work_factorEm 
	.cfi_endproc
                                        
	.globl	__ZTv0_n40_NK5Botan13RSA_PublicKey18estimated_strengthEv 
	.p2align	4, 0x90
__ZTv0_n40_NK5Botan13RSA_PublicKey18estimated_strengthEv: 
	.cfi_startproc

	push	rbp
	.cfi_def_cfa_offset 16
	.cfi_offset rbp, -16
	mov	rbp, rsp
	.cfi_def_cfa_register rbp
	mov	rax, qword ptr [rdi]
	mov	rcx, qword ptr [rax - 40]
	lea	rax, [rdi + rcx]
	mov	rcx, qword ptr [rdi + rcx]
	mov	rdi, rax
	call	qword ptr [rcx + 32]
	mov	rdi, rax
	pop	rbp
	jmp	__ZN5Botan14if_work_factorEm 
	.cfi_endproc
                                        
	.globl	__ZNK5Botan13RSA_PublicKey20algorithm_identifierEv 
	.p2align	4, 0x90
__ZNK5Botan13RSA_PublicKey20algorithm_identifierEv: 
Lfunc_begin5:
	.cfi_startproc
	.cfi_personality 155, ___gxx_personality_v0
	.cfi_lsda 16, Lexception5

	push	rbp
	.cfi_def_cfa_offset 16
	.cfi_offset rbp, -16
	mov	rbp, rsp
	.cfi_def_cfa_register rbp
	push	r14
	push	rbx
	sub	rsp, 32
	.cfi_offset rbx, -32
	.cfi_offset r14, -24
	mov	rbx, rdi
	mov	rax, qword ptr [rsi]
	mov	rcx, qword ptr [rax - 136]
	lea	rax, [rsi + rcx]
	mov	rcx, qword ptr [rsi + rcx]
	lea	r14, [rbp - 48]
	mov	rdi, r14
	mov	rsi, rax
	call	qword ptr [rcx + 40]
Ltmp133:
	mov	rdi, rbx
	mov	rsi, r14
	xor	edx, edx
	call	__ZN5Botan19AlgorithmIdentifierC1ERKNS_3OIDENS0_15Encoding_OptionE
Ltmp134:

	mov	rax, qword ptr [rip + __ZTVN5Botan3OIDE@GOTPCREL]
	add	rax, 16
	mov	qword ptr [rbp - 48], rax
	mov	rdi, qword ptr [rbp - 40]
	test	rdi, rdi
	je	LBB13_3

	mov	qword ptr [rbp - 32], rdi
	call	__ZdlPv
LBB13_3:
	mov	rax, rbx
	add	rsp, 32
	pop	rbx
	pop	r14
	pop	rbp
	ret
LBB13_4:
Ltmp135:
	mov	rbx, rax
	mov	rax, qword ptr [rip + __ZTVN5Botan3OIDE@GOTPCREL]
	add	rax, 16
	mov	qword ptr [rbp - 48], rax
	mov	rdi, qword ptr [rbp - 40]
	test	rdi, rdi
	je	LBB13_6

	mov	qword ptr [rbp - 32], rdi
	call	__ZdlPv
LBB13_6:
	mov	rdi, rbx
	call	__Unwind_Resume
	ud2
Lfunc_end5:
	.cfi_endproc
	.section	__TEXT,__gcc_except_tab
	.p2align	2
GCC_except_table13:
Lexception5:
	.byte	255                     
	.byte	255                     
	.byte	1                       
	.uleb128 Lcst_end5-Lcst_begin5
Lcst_begin5:
	.uleb128 Lfunc_begin5-Lfunc_begin5 
	.uleb128 Ltmp133-Lfunc_begin5   
	.byte	0                       
	.byte	0                       
	.uleb128 Ltmp133-Lfunc_begin5   
	.uleb128 Ltmp134-Ltmp133        
	.uleb128 Ltmp135-Lfunc_begin5   
	.byte	0                       
	.uleb128 Ltmp134-Lfunc_begin5   
	.uleb128 Lfunc_end5-Ltmp134     
	.byte	0                       
	.byte	0                       
Lcst_end5:
	.p2align	2
                                        
	.section	__TEXT,__text,regular,pure_instructions
	.globl	__ZTv0_n72_NK5Botan13RSA_PublicKey20algorithm_identifierEv 
	.p2align	4, 0x90
__ZTv0_n72_NK5Botan13RSA_PublicKey20algorithm_identifierEv: 
Lfunc_begin6:
	.cfi_startproc
	.cfi_personality 155, ___gxx_personality_v0
	.cfi_lsda 16, Lexception6

	push	rbp
	.cfi_def_cfa_offset 16
	.cfi_offset rbp, -16
	mov	rbp, rsp
	.cfi_def_cfa_register rbp
	push	r14
	push	rbx
	sub	rsp, 32
	.cfi_offset rbx, -32
	.cfi_offset r14, -24
	mov	rbx, rdi
	mov	rax, qword ptr [rsi]
	mov	rax, qword ptr [rax - 72]
	lea	rcx, [rsi + rax]
	mov	rax, qword ptr [rsi + rax]
	mov	rax, qword ptr [rax - 136]
	lea	rsi, [rcx + rax]
	mov	rax, qword ptr [rax + rcx]
	lea	r14, [rbp - 48]
	mov	rdi, r14
	call	qword ptr [rax + 40]
Ltmp136:
	mov	rdi, rbx
	mov	rsi, r14
	xor	edx, edx
	call	__ZN5Botan19AlgorithmIdentifierC1ERKNS_3OIDENS0_15Encoding_OptionE
Ltmp137:

	mov	rax, qword ptr [rip + __ZTVN5Botan3OIDE@GOTPCREL]
	add	rax, 16
	mov	qword ptr [rbp - 48], rax
	mov	rdi, qword ptr [rbp - 40]
	test	rdi, rdi
	je	LBB14_3

	mov	qword ptr [rbp - 32], rdi
	call	__ZdlPv
LBB14_3:
	mov	rax, rbx
	add	rsp, 32
	pop	rbx
	pop	r14
	pop	rbp
	ret
LBB14_4:
Ltmp138:
	mov	rbx, rax
	mov	rax, qword ptr [rip + __ZTVN5Botan3OIDE@GOTPCREL]
	add	rax, 16
	mov	qword ptr [rbp - 48], rax
	mov	rdi, qword ptr [rbp - 40]
	test	rdi, rdi
	je	LBB14_6

	mov	qword ptr [rbp - 32], rdi
	call	__ZdlPv
LBB14_6:
	mov	rdi, rbx
	call	__Unwind_Resume
	ud2
Lfunc_end6:
	.cfi_endproc
	.section	__TEXT,__gcc_except_tab
	.p2align	2
GCC_except_table14:
Lexception6:
	.byte	255                     
	.byte	255                     
	.byte	1                       
	.uleb128 Lcst_end6-Lcst_begin6
Lcst_begin6:
	.uleb128 Lfunc_begin6-Lfunc_begin6 
	.uleb128 Ltmp136-Lfunc_begin6   
	.byte	0                       
	.byte	0                       
	.uleb128 Ltmp136-Lfunc_begin6   
	.uleb128 Ltmp137-Ltmp136        
	.uleb128 Ltmp138-Lfunc_begin6   
	.byte	0                       
	.uleb128 Ltmp137-Lfunc_begin6   
	.uleb128 Lfunc_end6-Ltmp137     
	.byte	0                       
	.byte	0                       
Lcst_end6:
	.p2align	2
                                        
	.section	__TEXT,__text,regular,pure_instructions
	.globl	__ZNK5Botan13RSA_PublicKey15public_key_bitsEv 
	.p2align	4, 0x90
__ZNK5Botan13RSA_PublicKey15public_key_bitsEv: 
Lfunc_begin7:
	.cfi_startproc
	.cfi_personality 155, ___gxx_personality_v0
	.cfi_lsda 16, Lexception7

	push	rbp
	.cfi_def_cfa_offset 16
	.cfi_offset rbp, -16
	mov	rbp, rsp
	.cfi_def_cfa_register rbp
	push	r15
	push	r14
	push	r12
	push	rbx
	sub	rsp, 112
	.cfi_offset rbx, -48
	.cfi_offset r12, -40
	.cfi_offset r14, -32
	.cfi_offset r15, -24
	mov	rbx, rsi
	mov	r12, rdi
	mov	rax, qword ptr [rip + ___stack_chk_guard@GOTPCREL]
	mov	rax, qword ptr [rax]
	mov	qword ptr [rbp - 40], rax
	mov	qword ptr [rdi + 16], 0
	mov	qword ptr [rdi + 8], 0
	mov	qword ptr [rdi], 0
Ltmp139:
	lea	rdi, [rbp - 144]
	mov	rsi, r12
	call	__ZN5Botan11DER_EncoderC1ERNSt3__16vectorIhNS1_9allocatorIhEEEE
Ltmp140:

Ltmp142:
	lea	r14, [rbp - 144]
	mov	rdi, r14
	mov	esi, 16
	xor	edx, edx
	call	__ZN5Botan11DER_Encoder10start_consENS_9ASN1_TypeENS_10ASN1_ClassE
Ltmp143:

	mov	rsi, qword ptr [rbx + 8]
Ltmp144:
	mov	rdi, rax
	call	__ZN5Botan11DER_Encoder6encodeERKNS_6BigIntE
Ltmp145:

	mov	rsi, qword ptr [rbx + 8]
	add	rsi, 40
Ltmp146:
	mov	rdi, rax
	call	__ZN5Botan11DER_Encoder6encodeERKNS_6BigIntE
Ltmp147:

Ltmp148:
	mov	rdi, rax
	call	__ZN5Botan11DER_Encoder8end_consEv
Ltmp149:

	lea	rdi, [rbp - 72]
	call	__ZNSt3__113__vector_baseIN5Botan11DER_Encoder12DER_SequenceENS_9allocatorIS3_EEED2Ev
	mov	rdi, qword ptr [rbp - 96]
	test	rdi, rdi
	je	LBB15_7

	mov	qword ptr [rbp - 88], rdi
	mov	rsi, qword ptr [rbp - 80]
	sub	rsi, rdi
Ltmp154:
	mov	edx, 1
	call	__ZN5Botan17deallocate_memoryEPvmm
Ltmp155:
LBB15_7:
	mov	rdi, qword ptr [rbp - 112]
	cmp	r14, rdi
	je	LBB15_8

	test	rdi, rdi
	je	LBB15_11

	mov	rax, qword ptr [rdi]
	call	qword ptr [rax + 40]
	jmp	LBB15_11
LBB15_8:
	mov	rax, qword ptr [rdi]
	call	qword ptr [rax + 32]
LBB15_11:
	mov	rax, qword ptr [rip + ___stack_chk_guard@GOTPCREL]
	mov	rax, qword ptr [rax]
	cmp	rax, qword ptr [rbp - 40]
	jne	LBB15_24

	mov	rax, r12
	add	rsp, 112
	pop	rbx
	pop	r12
	pop	r14
	pop	r15
	pop	rbp
	ret
LBB15_24:
	call	___stack_chk_fail
LBB15_23:
Ltmp156:
	mov	rdi, rax
	call	___clang_call_terminate
LBB15_13:
Ltmp141:
	mov	r15, rax
	jmp	LBB15_20
LBB15_14:
Ltmp150:
	mov	r15, rax
	lea	rdi, [rbp - 72]
	call	__ZNSt3__113__vector_baseIN5Botan11DER_Encoder12DER_SequenceENS_9allocatorIS3_EEED2Ev
	mov	rdi, qword ptr [rbp - 96]
	test	rdi, rdi
	je	LBB15_16

	mov	qword ptr [rbp - 88], rdi
	mov	rsi, qword ptr [rbp - 80]
	sub	rsi, rdi
Ltmp151:
	mov	edx, 1
	call	__ZN5Botan17deallocate_memoryEPvmm
Ltmp152:
LBB15_16:
	mov	rdi, qword ptr [rbp - 112]
	cmp	r14, rdi
	jne	LBB15_18

	mov	rax, qword ptr [rdi]
	call	qword ptr [rax + 32]
	jmp	LBB15_20
LBB15_18:
	test	rdi, rdi
	je	LBB15_20

	mov	rax, qword ptr [rdi]
	call	qword ptr [rax + 40]
LBB15_20:
	mov	rdi, qword ptr [r12]
	test	rdi, rdi
	je	LBB15_22

	mov	qword ptr [r12 + 8], rdi
	call	__ZdlPv
LBB15_22:
	mov	rdi, r15
	call	__Unwind_Resume
	ud2
LBB15_25:
Ltmp153:
	mov	rdi, rax
	call	___clang_call_terminate
Lfunc_end7:
	.cfi_endproc
	.section	__TEXT,__gcc_except_tab
	.p2align	2
GCC_except_table15:
Lexception7:
	.byte	255                     
	.byte	155                     
	.uleb128 Lttbase4-Lttbaseref4
Lttbaseref4:
	.byte	1                       
	.uleb128 Lcst_end7-Lcst_begin7
Lcst_begin7:
	.uleb128 Ltmp139-Lfunc_begin7   
	.uleb128 Ltmp140-Ltmp139        
	.uleb128 Ltmp141-Lfunc_begin7   
	.byte	0                       
	.uleb128 Ltmp142-Lfunc_begin7   
	.uleb128 Ltmp149-Ltmp142        
	.uleb128 Ltmp150-Lfunc_begin7   
	.byte	0                       
	.uleb128 Ltmp154-Lfunc_begin7   
	.uleb128 Ltmp155-Ltmp154        
	.uleb128 Ltmp156-Lfunc_begin7   
	.byte	1                       
	.uleb128 Ltmp155-Lfunc_begin7   
	.uleb128 Ltmp151-Ltmp155        
	.byte	0                       
	.byte	0                       
	.uleb128 Ltmp151-Lfunc_begin7   
	.uleb128 Ltmp152-Ltmp151        
	.uleb128 Ltmp153-Lfunc_begin7   
	.byte	1                       
	.uleb128 Ltmp152-Lfunc_begin7   
	.uleb128 Lfunc_end7-Ltmp152     
	.byte	0                       
	.byte	0                       
Lcst_end7:
	.byte	1                       
                                        
	.byte	0                       
	.p2align	2
                                        
	.long	0                       
Lttbase4:
	.p2align	2
                                        
	.section	__TEXT,__text,regular,pure_instructions
	.globl	__ZTv0_n80_NK5Botan13RSA_PublicKey15public_key_bitsEv 
	.p2align	4, 0x90
__ZTv0_n80_NK5Botan13RSA_PublicKey15public_key_bitsEv: 
	.cfi_startproc

	push	rbp
	.cfi_def_cfa_offset 16
	.cfi_offset rbp, -16
	mov	rbp, rsp
	.cfi_def_cfa_register rbp
	push	rbx
	push	rax
	.cfi_offset rbx, -24
	mov	rbx, rdi
	mov	rax, qword ptr [rsi]
	add	rsi, qword ptr [rax - 80]
	call	__ZNK5Botan13RSA_PublicKey15public_key_bitsEv
	mov	rax, rbx
	add	rsp, 8
	pop	rbx
	pop	rbp
	ret
	.cfi_endproc
                                        
	.globl	__ZNK5Botan13RSA_PublicKey9check_keyERNS_21RandomNumberGeneratorEb 
	.p2align	4, 0x90
__ZNK5Botan13RSA_PublicKey9check_keyERNS_21RandomNumberGeneratorEb: 
	.cfi_startproc

	push	rbp
	.cfi_def_cfa_offset 16
	.cfi_offset rbp, -16
	mov	rbp, rsp
	.cfi_def_cfa_register rbp
	push	rbx
	push	rax
	.cfi_offset rbx, -24
	mov	rbx, rdi
	mov	rdi, qword ptr [rdi + 8]
	mov	esi, 35
	call	__ZNK5Botan6BigInt8cmp_wordEy
	test	eax, eax
	js	LBB17_6

	mov	rdi, qword ptr [rbx + 8]
	mov	rax, qword ptr [rdi]
	cmp	qword ptr [rdi + 8], rax
	je	LBB17_6

	test	byte ptr [rax], 1
	je	LBB17_6

	add	rdi, 40
	mov	esi, 3
	call	__ZNK5Botan6BigInt8cmp_wordEy
	test	eax, eax
	js	LBB17_6

	mov	rax, qword ptr [rbx + 8]
	mov	rcx, qword ptr [rax + 40]
	cmp	qword ptr [rax + 48], rcx
	je	LBB17_6

	mov	al, 1
	test	byte ptr [rcx], 1
	jne	LBB17_7
LBB17_6:
	xor	eax, eax
LBB17_7:
                                        
	add	rsp, 8
	pop	rbx
	pop	rbp
	ret
	.cfi_endproc
                                        
	.globl	__ZTv0_n64_NK5Botan13RSA_PublicKey9check_keyERNS_21RandomNumberGeneratorEb 
	.p2align	4, 0x90
__ZTv0_n64_NK5Botan13RSA_PublicKey9check_keyERNS_21RandomNumberGeneratorEb: 
	.cfi_startproc

	push	rbp
	.cfi_def_cfa_offset 16
	.cfi_offset rbp, -16
	mov	rbp, rsp
	.cfi_def_cfa_register rbp
	push	r14
	push	rbx
	.cfi_offset rbx, -32
	.cfi_offset r14, -24
	mov	rbx, rdi
	mov	rax, qword ptr [rdi]
	mov	r14, qword ptr [rax - 64]
	mov	rdi, qword ptr [rdi + r14 + 8]
	mov	esi, 35
	call	__ZNK5Botan6BigInt8cmp_wordEy
	test	eax, eax
	js	LBB18_6

	mov	rdi, qword ptr [rbx + r14 + 8]
	mov	rax, qword ptr [rdi]
	cmp	qword ptr [rdi + 8], rax
	je	LBB18_6

	test	byte ptr [rax], 1
	je	LBB18_6

	add	rdi, 40
	mov	esi, 3
	call	__ZNK5Botan6BigInt8cmp_wordEy
	test	eax, eax
	js	LBB18_6

	mov	rax, qword ptr [rbx + r14 + 8]
	mov	rcx, qword ptr [rax + 40]
	cmp	qword ptr [rax + 48], rcx
	je	LBB18_6

	mov	al, 1
	test	byte ptr [rcx], 1
	jne	LBB18_7
LBB18_6:
	xor	eax, eax
LBB18_7:
                                        
	pop	rbx
	pop	r14
	pop	rbp
	ret
	.cfi_endproc
                                        
	.globl	__ZNK5Botan14RSA_PrivateKey12private_dataEv 
	.p2align	4, 0x90
__ZNK5Botan14RSA_PrivateKey12private_dataEv: 

	push	rbp
	mov	rbp, rsp
	mov	rax, rdi
	mov	rcx, qword ptr [rsi + 32]
	mov	qword ptr [rdi], rcx
	mov	rcx, qword ptr [rsi + 40]
	mov	qword ptr [rdi + 8], rcx
	test	rcx, rcx
	je	LBB19_2

	lock		inc	qword ptr [rcx + 8]
LBB19_2:
	pop	rbp
	ret
                                        
	.globl	__ZNK5Botan14RSA_PrivateKey16private_key_bitsEv 
	.p2align	4, 0x90
__ZNK5Botan14RSA_PrivateKey16private_key_bitsEv: 
Lfunc_begin8:
	.cfi_startproc
	.cfi_personality 155, ___gxx_personality_v0
	.cfi_lsda 16, Lexception8

	push	rbp
	.cfi_def_cfa_offset 16
	.cfi_offset rbp, -16
	mov	rbp, rsp
	.cfi_def_cfa_register rbp
	push	r15
	push	r14
	push	rbx
	sub	rsp, 104
	.cfi_offset rbx, -40
	.cfi_offset r14, -32
	.cfi_offset r15, -24
	mov	rbx, rsi
	mov	r15, rdi
	mov	rax, qword ptr [rip + ___stack_chk_guard@GOTPCREL]
	mov	rax, qword ptr [rax]
	mov	qword ptr [rbp - 32], rax
	xorps	xmm0, xmm0
	movaps	xmmword ptr [rbp - 48], xmm0
	movaps	xmmword ptr [rbp - 64], xmm0
	movaps	xmmword ptr [rbp - 80], xmm0
	movaps	xmmword ptr [rbp - 96], xmm0
	movaps	xmmword ptr [rbp - 112], xmm0
	movaps	xmmword ptr [rbp - 128], xmm0
Ltmp157:
	lea	r14, [rbp - 128]
	mov	rdi, r14
	mov	esi, 16
	xor	edx, edx
	call	__ZN5Botan11DER_Encoder10start_consENS_9ASN1_TypeENS_10ASN1_ClassE
Ltmp158:

Ltmp159:
	mov	rdi, rax
	xor	esi, esi
	call	__ZN5Botan11DER_Encoder6encodeEm
Ltmp160:

	mov	rsi, qword ptr [rbx + 16]
Ltmp161:
	mov	rdi, rax
	call	__ZN5Botan11DER_Encoder6encodeERKNS_6BigIntE
Ltmp162:

	mov	rsi, qword ptr [rbx + 16]
	add	rsi, 40
Ltmp163:
	mov	rdi, rax
	call	__ZN5Botan11DER_Encoder6encodeERKNS_6BigIntE
Ltmp164:

	mov	rsi, qword ptr [rbx + 32]
Ltmp165:
	mov	rdi, rax
	call	__ZN5Botan11DER_Encoder6encodeERKNS_6BigIntE
Ltmp166:

	mov	rsi, qword ptr [rbx + 32]
	add	rsi, 40
Ltmp167:
	mov	rdi, rax
	call	__ZN5Botan11DER_Encoder6encodeERKNS_6BigIntE
Ltmp168:

	mov	rsi, qword ptr [rbx + 32]
	add	rsi, 80
Ltmp169:
	mov	rdi, rax
	call	__ZN5Botan11DER_Encoder6encodeERKNS_6BigIntE
Ltmp170:

	mov	rsi, qword ptr [rbx + 32]
	add	rsi, 120
Ltmp171:
	mov	rdi, rax
	call	__ZN5Botan11DER_Encoder6encodeERKNS_6BigIntE
Ltmp172:

	mov	esi, 160
	add	rsi, qword ptr [rbx + 32]
Ltmp173:
	mov	rdi, rax
	call	__ZN5Botan11DER_Encoder6encodeERKNS_6BigIntE
Ltmp174:

	mov	esi, 200
	add	rsi, qword ptr [rbx + 32]
Ltmp175:
	mov	rdi, rax
	call	__ZN5Botan11DER_Encoder6encodeERKNS_6BigIntE
Ltmp176:

Ltmp177:
	mov	rdi, rax
	call	__ZN5Botan11DER_Encoder8end_consEv
Ltmp178:

Ltmp179:
	mov	rdi, r15
	mov	rsi, rax
	call	__ZN5Botan11DER_Encoder12get_contentsEv
Ltmp180:

	lea	rdi, [rbp - 56]
	call	__ZNSt3__113__vector_baseIN5Botan11DER_Encoder12DER_SequenceENS_9allocatorIS3_EEED2Ev
	mov	rdi, qword ptr [rbp - 80]
	test	rdi, rdi
	je	LBB20_14

	mov	qword ptr [rbp - 72], rdi
	mov	rsi, qword ptr [rbp - 64]
	sub	rsi, rdi
Ltmp185:
	mov	edx, 1
	call	__ZN5Botan17deallocate_memoryEPvmm
Ltmp186:
LBB20_14:
	mov	rdi, qword ptr [rbp - 96]
	cmp	r14, rdi
	je	LBB20_15

	test	rdi, rdi
	je	LBB20_18

	mov	rax, qword ptr [rdi]
	call	qword ptr [rax + 40]
	jmp	LBB20_18
LBB20_15:
	mov	rax, qword ptr [rdi]
	call	qword ptr [rax + 32]
LBB20_18:
	mov	rax, qword ptr [rip + ___stack_chk_guard@GOTPCREL]
	mov	rax, qword ptr [rax]
	cmp	rax, qword ptr [rbp - 32]
	jne	LBB20_24

	mov	rax, r15
	add	rsp, 104
	pop	rbx
	pop	r14
	pop	r15
	pop	rbp
	ret
LBB20_24:
	call	___stack_chk_fail
LBB20_23:
Ltmp187:
	mov	rdi, rax
	call	___clang_call_terminate
LBB20_20:
Ltmp181:
	mov	rbx, rax
	lea	rdi, [rbp - 56]
	call	__ZNSt3__113__vector_baseIN5Botan11DER_Encoder12DER_SequenceENS_9allocatorIS3_EEED2Ev
	mov	rdi, qword ptr [rbp - 80]
	test	rdi, rdi
	je	LBB20_22

	mov	qword ptr [rbp - 72], rdi
	mov	rsi, qword ptr [rbp - 64]
	sub	rsi, rdi
Ltmp182:
	mov	edx, 1
	call	__ZN5Botan17deallocate_memoryEPvmm
Ltmp183:
LBB20_22:
	lea	rdi, [rbp - 96]
	lea	rsi, [rbp - 128]
	call	__ZNK5Botan14RSA_PrivateKey16private_key_bitsEv.cold.1
	mov	rdi, rbx
	call	__Unwind_Resume
	ud2
LBB20_25:
Ltmp184:
	mov	rdi, rax
	call	___clang_call_terminate
Lfunc_end8:
	.cfi_endproc
	.section	__TEXT,__gcc_except_tab
	.p2align	2
GCC_except_table20:
Lexception8:
	.byte	255                     
	.byte	155                     
	.uleb128 Lttbase5-Lttbaseref5
Lttbaseref5:
	.byte	1                       
	.uleb128 Lcst_end8-Lcst_begin8
Lcst_begin8:
	.uleb128 Ltmp157-Lfunc_begin8   
	.uleb128 Ltmp180-Ltmp157        
	.uleb128 Ltmp181-Lfunc_begin8   
	.byte	0                       
	.uleb128 Ltmp185-Lfunc_begin8   
	.uleb128 Ltmp186-Ltmp185        
	.uleb128 Ltmp187-Lfunc_begin8   
	.byte	1                       
	.uleb128 Ltmp186-Lfunc_begin8   
	.uleb128 Ltmp182-Ltmp186        
	.byte	0                       
	.byte	0                       
	.uleb128 Ltmp182-Lfunc_begin8   
	.uleb128 Ltmp183-Ltmp182        
	.uleb128 Ltmp184-Lfunc_begin8   
	.byte	1                       
	.uleb128 Ltmp183-Lfunc_begin8   
	.uleb128 Lfunc_end8-Ltmp183     
	.byte	0                       
	.byte	0                       
Lcst_end8:
	.byte	1                       
                                        
	.byte	0                       
	.p2align	2
                                        
	.long	0                       
Lttbase5:
	.p2align	2
                                        
	.section	__TEXT,__text,regular,pure_instructions
	.globl	__ZNK5Botan14RSA_PrivateKey5get_dEv 
	.p2align	4, 0x90
__ZNK5Botan14RSA_PrivateKey5get_dEv:    

	push	rbp
	mov	rbp, rsp
	mov	rax, qword ptr [rdi + 32]
	pop	rbp
	ret
                                        
	.globl	__ZNK5Botan14RSA_PrivateKey5get_pEv 
	.p2align	4, 0x90
__ZNK5Botan14RSA_PrivateKey5get_pEv:    

	push	rbp
	mov	rbp, rsp
	mov	rax, qword ptr [rdi + 32]
	add	rax, 40
	pop	rbp
	ret
                                        
	.globl	__ZNK5Botan14RSA_PrivateKey5get_qEv 
	.p2align	4, 0x90
__ZNK5Botan14RSA_PrivateKey5get_qEv:    

	push	rbp
	mov	rbp, rsp
	mov	rax, qword ptr [rdi + 32]
	add	rax, 80
	pop	rbp
	ret
                                        
	.globl	__ZNK5Botan14RSA_PrivateKey6get_d1Ev 
	.p2align	4, 0x90
__ZNK5Botan14RSA_PrivateKey6get_d1Ev:   

	push	rbp
	mov	rbp, rsp
	mov	rax, qword ptr [rdi + 32]
	add	rax, 120
	pop	rbp
	ret
                                        
	.globl	__ZNK5Botan14RSA_PrivateKey6get_d2Ev 
	.p2align	4, 0x90
__ZNK5Botan14RSA_PrivateKey6get_d2Ev:   

	push	rbp
	mov	rbp, rsp
	mov	eax, 160
	add	rax, qword ptr [rdi + 32]
	pop	rbp
	ret
                                        
	.globl	__ZNK5Botan14RSA_PrivateKey5get_cEv 
	.p2align	4, 0x90
__ZNK5Botan14RSA_PrivateKey5get_cEv:    

	push	rbp
	mov	rbp, rsp
	mov	eax, 200
	add	rax, qword ptr [rdi + 32]
	pop	rbp
	ret
                                        
	.globl	__ZN5Botan14RSA_PrivateKey4initEONS_6BigIntES2_S2_S2_S2_S2_ 
	.p2align	4, 0x90
__ZN5Botan14RSA_PrivateKey4initEONS_6BigIntES2_S2_S2_S2_S2_: 
Lfunc_begin9:
	.cfi_startproc
	.cfi_personality 155, ___gxx_personality_v0
	.cfi_lsda 16, Lexception9

	push	rbp
	.cfi_def_cfa_offset 16
	.cfi_offset rbp, -16
	mov	rbp, rsp
	.cfi_def_cfa_register rbp
	push	r15
	push	r14
	push	r13
	push	r12
	push	rbx
	sub	rsp, 40
	.cfi_offset rbx, -56
	.cfi_offset r12, -48
	.cfi_offset r13, -40
	.cfi_offset r14, -32
	.cfi_offset r15, -24
	mov	qword ptr [rbp - 72], r9 
	mov	qword ptr [rbp - 64], r8 
	mov	qword ptr [rbp - 56], rcx 
	mov	qword ptr [rbp - 48], rdx 
	mov	r15, rsi
	mov	r14, rdi
	mov	r13, qword ptr [rbp + 16]
	mov	edi, 488
	call	__Znwm
	mov	r12, rax
	mov	qword ptr [rax + 8], 0
	mov	qword ptr [rax + 16], 0
	mov	rax, qword ptr [rip + __ZTVNSt3__120__shared_ptr_emplaceIN5Botan16RSA_Private_DataENS_9allocatorIS2_EEEE@GOTPCREL]
	add	rax, 16
	mov	qword ptr [r12], rax
	mov	rbx, r12
	add	rbx, 24
Ltmp188:
	mov	qword ptr [rsp], r13
	mov	rdi, rbx
	mov	rsi, r15
	mov	rdx, qword ptr [rbp - 48] 
	mov	rcx, qword ptr [rbp - 56] 
	mov	r8, qword ptr [rbp - 64] 
	mov	r9, qword ptr [rbp - 72] 
	call	__ZN5Botan16RSA_Private_DataC2EONS_6BigIntES2_S2_S2_S2_S2_
Ltmp189:

	mov	qword ptr [r14 + 32], rbx
	mov	r15, qword ptr [r14 + 40]
	mov	qword ptr [r14 + 40], r12
	test	r15, r15
	je	LBB27_3

	mov	rax, -1
	lock		xadd	qword ptr [r15 + 8], rax
	test	rax, rax
	je	LBB27_5
LBB27_3:
	add	rsp, 40
	pop	rbx
	pop	r12
	pop	r13
	pop	r14
	pop	r15
	pop	rbp
	ret
LBB27_5:
	mov	rax, qword ptr [r15]
	mov	rdi, r15
	call	qword ptr [rax + 16]
	mov	rdi, r15
	add	rsp, 40
	pop	rbx
	pop	r12
	pop	r13
	pop	r14
	pop	r15
	pop	rbp
	jmp	__ZNSt3__119__shared_weak_count14__release_weakEv 
LBB27_4:
Ltmp190:
	mov	rbx, rax
	mov	rdi, r12
	call	__ZNSt3__119__shared_weak_countD2Ev
	mov	rdi, r12
	call	__ZdlPv
	mov	rdi, rbx
	call	__Unwind_Resume
	ud2
Lfunc_end9:
	.cfi_endproc
	.section	__TEXT,__gcc_except_tab
	.p2align	2
GCC_except_table27:
Lexception9:
	.byte	255                     
	.byte	255                     
	.byte	1                       
	.uleb128 Lcst_end9-Lcst_begin9
Lcst_begin9:
	.uleb128 Lfunc_begin9-Lfunc_begin9 
	.uleb128 Ltmp188-Lfunc_begin9   
	.byte	0                       
	.byte	0                       
	.uleb128 Ltmp188-Lfunc_begin9   
	.uleb128 Ltmp189-Ltmp188        
	.uleb128 Ltmp190-Lfunc_begin9   
	.byte	0                       
	.uleb128 Ltmp189-Lfunc_begin9   
	.uleb128 Lfunc_end9-Ltmp189     
	.byte	0                       
	.byte	0                       
Lcst_end9:
	.p2align	2
                                        
	.section	__TEXT,__literal16,16byte_literals
	.p2align	4               
LCPI28_0:
	.quad	49                      
	.quad	34                      
	.section	__TEXT,__text,regular,pure_instructions
	.globl	__ZN5Botan14RSA_PrivateKeyC2ERKNS_19AlgorithmIdentifierERKNSt3__16vectorIhNS_16secure_allocatorIhEEEE
	.p2align	4, 0x90
__ZN5Botan14RSA_PrivateKeyC2ERKNS_19AlgorithmIdentifierERKNSt3__16vectorIhNS_16secure_allocatorIhEEEE: 
Lfunc_begin10:
	.cfi_startproc
	.cfi_personality 155, ___gxx_personality_v0
	.cfi_lsda 16, Lexception10

	push	rbp
	.cfi_def_cfa_offset 16
	.cfi_offset rbp, -16
	mov	rbp, rsp
	.cfi_def_cfa_register rbp
	push	r15
	push	r14
	push	r13
	push	r12
	push	rbx
	sub	rsp, 552
	.cfi_offset rbx, -56
	.cfi_offset r12, -48
	.cfi_offset r13, -40
	.cfi_offset r14, -32
	.cfi_offset r15, -24
	mov	r14, rsi
	mov	r13, rdi
	mov	rax, qword ptr [rsi + 8]
	mov	qword ptr [rdi], rax
	mov	rdx, qword ptr [rsi + 16]
	mov	rax, qword ptr [rax - 136]
	mov	qword ptr [rdi + rax], rdx
	lea	rax, [rdi + 8]
	mov	qword ptr [rbp - 48], rax 
	mov	rax, qword ptr [rsi + 24]
	mov	qword ptr [rdi + 8], rax
	mov	rdx, qword ptr [rsi + 32]
	mov	rax, qword ptr [rax - 136]
	mov	qword ptr [rdi + rax + 8], rdx
	mov	qword ptr [rdi + 24], 0
	mov	qword ptr [rdi + 16], 0
	mov	rax, qword ptr [rsi]
	mov	qword ptr [rdi], rax
	mov	rdx, qword ptr [rsi + 40]
	mov	rax, qword ptr [rax - 136]
	mov	qword ptr [rdi + rax], rdx
	mov	rax, qword ptr [rsi + 48]
	mov	qword ptr [rdi + 8], rax
	mov	qword ptr [rdi + 32], 0
	mov	qword ptr [rdi + 40], 0
	xorps	xmm0, xmm0
	movaps	xmmword ptr [rbp - 96], xmm0
	mov	qword ptr [rbp - 80], 0
	mov	qword ptr [rbp - 72], -1
	mov	dword ptr [rbp - 64], 1
	movaps	xmmword ptr [rbp - 384], xmm0
	mov	qword ptr [rbp - 368], 0
	mov	qword ptr [rbp - 360], -1
	mov	dword ptr [rbp - 352], 1
	movaps	xmmword ptr [rbp - 336], xmm0
	mov	qword ptr [rbp - 320], 0
	mov	qword ptr [rbp - 312], -1
	mov	dword ptr [rbp - 304], 1
	movaps	xmmword ptr [rbp - 288], xmm0
	mov	qword ptr [rbp - 272], 0
	mov	qword ptr [rbp - 264], -1
	mov	dword ptr [rbp - 256], 1
	movaps	xmmword ptr [rbp - 240], xmm0
	mov	qword ptr [rbp - 224], 0
	mov	qword ptr [rbp - 216], -1
	mov	dword ptr [rbp - 208], 1
	movaps	xmmword ptr [rbp - 192], xmm0
	mov	qword ptr [rbp - 176], 0
	mov	qword ptr [rbp - 168], -1
	mov	dword ptr [rbp - 160], 1
	movaps	xmmword ptr [rbp - 144], xmm0
	mov	qword ptr [rbp - 128], 0
	mov	qword ptr [rbp - 120], -1
	mov	dword ptr [rbp - 112], 1
	movaps	xmmword ptr [rbp - 464], xmm0
	mov	qword ptr [rbp - 448], 0
	mov	qword ptr [rbp - 440], -1
	mov	dword ptr [rbp - 432], 1
Ltmp191:
	lea	rdi, [rbp - 584]
	mov	rsi, rcx
	call	__ZN5Botan11BER_DecoderC1ERKNSt3__16vectorIhNS_16secure_allocatorIhEEEE
Ltmp192:

Ltmp194:
	lea	rdi, [rbp - 528]
	lea	rsi, [rbp - 584]
	mov	edx, 16
	xor	ecx, ecx
	call	__ZN5Botan11BER_Decoder10start_consENS_9ASN1_TypeENS_10ASN1_ClassE
Ltmp195:

Ltmp197:
	mov	edi, 48
	call	__Znwm
Ltmp198:

	mov	qword ptr [rbp - 400], rax
	movaps	xmm0, xmmword ptr [rip + LCPI28_0] 
	movaps	xmmword ptr [rbp - 416], xmm0
	movabs	rcx, 7598542776403260513
	mov	qword ptr [rax + 24], rcx
	movabs	rcx, 7886488381901333867
	mov	qword ptr [rax + 16], rcx
	movabs	rcx, 2319673904815360848
	mov	qword ptr [rax + 8], rcx
	movabs	rcx, 2336936577129475669
	mov	qword ptr [rax], rcx
	mov	word ptr [rax + 32], 28271
	mov	byte ptr [rax + 34], 0
Ltmp200:
	lea	rdi, [rbp - 528]
	lea	rsi, [rbp - 472]
	mov	edx, 2
	xor	ecx, ecx
	call	__ZN5Botan11BER_Decoder6decodeERmNS_9ASN1_TypeENS_10ASN1_ClassE
Ltmp201:

	cmp	qword ptr [rbp - 472], 0
	jne	LBB28_5

Ltmp207:
	lea	rdi, [rbp - 528]
	lea	rsi, [rbp - 96]
	mov	edx, 2
	xor	ecx, ecx
	call	__ZN5Botan11BER_Decoder6decodeERNS_6BigIntENS_9ASN1_TypeENS_10ASN1_ClassE
Ltmp208:

Ltmp209:
	lea	rsi, [rbp - 384]
	mov	rdi, rax
	mov	edx, 2
	xor	ecx, ecx
	call	__ZN5Botan11BER_Decoder6decodeERNS_6BigIntENS_9ASN1_TypeENS_10ASN1_ClassE
Ltmp210:

Ltmp211:
	lea	rsi, [rbp - 336]
	mov	rdi, rax
	mov	edx, 2
	xor	ecx, ecx
	call	__ZN5Botan11BER_Decoder6decodeERNS_6BigIntENS_9ASN1_TypeENS_10ASN1_ClassE
Ltmp212:

Ltmp213:
	lea	rsi, [rbp - 288]
	mov	rdi, rax
	mov	edx, 2
	xor	ecx, ecx
	call	__ZN5Botan11BER_Decoder6decodeERNS_6BigIntENS_9ASN1_TypeENS_10ASN1_ClassE
Ltmp214:

Ltmp215:
	lea	rsi, [rbp - 240]
	mov	rdi, rax
	mov	edx, 2
	xor	ecx, ecx
	call	__ZN5Botan11BER_Decoder6decodeERNS_6BigIntENS_9ASN1_TypeENS_10ASN1_ClassE
Ltmp216:

Ltmp217:
	lea	rsi, [rbp - 192]
	mov	rdi, rax
	mov	edx, 2
	xor	ecx, ecx
	call	__ZN5Botan11BER_Decoder6decodeERNS_6BigIntENS_9ASN1_TypeENS_10ASN1_ClassE
Ltmp218:

Ltmp219:
	lea	rsi, [rbp - 144]
	mov	rdi, rax
	mov	edx, 2
	xor	ecx, ecx
	call	__ZN5Botan11BER_Decoder6decodeERNS_6BigIntENS_9ASN1_TypeENS_10ASN1_ClassE
Ltmp220:

Ltmp221:
	lea	r12, [rbp - 464]
	mov	rdi, rax
	mov	rsi, r12
	mov	edx, 2
	xor	ecx, ecx
	call	__ZN5Botan11BER_Decoder6decodeERNS_6BigIntENS_9ASN1_TypeENS_10ASN1_ClassE
Ltmp222:

Ltmp223:
	mov	rdi, rax
	call	__ZN5Botan11BER_Decoder8end_consEv
Ltmp224:

	test	byte ptr [rbp - 416], 1
	je	LBB28_20

	mov	rdi, qword ptr [rbp - 400]
	call	__ZdlPv
LBB28_20:
	mov	rdi, qword ptr [rbp - 480]
	mov	qword ptr [rbp - 480], 0
	test	rdi, rdi
	je	LBB28_22

	mov	rax, qword ptr [rdi]
	call	qword ptr [rax + 56]
LBB28_22:
	mov	rdi, qword ptr [rbp - 512]
	test	rdi, rdi
	je	LBB28_24

	mov	qword ptr [rbp - 504], rdi
	mov	rsi, qword ptr [rbp - 496]
	sub	rsi, rdi
Ltmp232:
	mov	edx, 1
	call	__ZN5Botan17deallocate_memoryEPvmm
Ltmp233:
LBB28_24:
	mov	rdi, qword ptr [rbp - 536]
	mov	qword ptr [rbp - 536], 0
	test	rdi, rdi
	je	LBB28_26

	mov	rax, qword ptr [rdi]
	call	qword ptr [rax + 56]
LBB28_26:
	mov	rdi, qword ptr [rbp - 568]
	test	rdi, rdi
	je	LBB28_28

	mov	qword ptr [rbp - 560], rdi
	mov	rsi, qword ptr [rbp - 552]
	sub	rsi, rdi
Ltmp235:
	mov	edx, 1
	call	__ZN5Botan17deallocate_memoryEPvmm
Ltmp236:
LBB28_28:
Ltmp238:
	lea	rsi, [rbp - 96]
	lea	rdx, [rbp - 384]
	mov	rdi, qword ptr [rbp - 48] 
	call	__ZN5Botan13RSA_PublicKey4initEONS_6BigIntES2_
Ltmp239:

Ltmp240:
	mov	edi, 488
	call	__Znwm
Ltmp241:

	mov	r15, rax
	mov	qword ptr [rax + 16], 0
	mov	qword ptr [rax + 8], 0
	mov	rax, qword ptr [rip + __ZTVNSt3__120__shared_ptr_emplaceIN5Botan16RSA_Private_DataENS_9allocatorIS2_EEEE@GOTPCREL]
	add	rax, 16
	mov	qword ptr [r15], rax
	mov	rbx, r15
	add	rbx, 24
Ltmp243:
	mov	qword ptr [rsp], r12
	lea	rsi, [rbp - 336]
	lea	rdx, [rbp - 288]
	lea	rcx, [rbp - 240]
	lea	r8, [rbp - 192]
	lea	r9, [rbp - 144]
	mov	rdi, rbx
	call	__ZN5Botan16RSA_Private_DataC2EONS_6BigIntES2_S2_S2_S2_S2_
Ltmp244:

	mov	qword ptr [r13 + 32], rbx
	mov	rbx, qword ptr [r13 + 40]
	mov	qword ptr [r13 + 40], r15
	test	rbx, rbx
	je	LBB28_34

	mov	rax, -1
	lock		xadd	qword ptr [rbx + 8], rax
	test	rax, rax
	jne	LBB28_34

	mov	rax, qword ptr [rbx]
	mov	rdi, rbx
	call	qword ptr [rax + 16]
	mov	rdi, rbx
	call	__ZNSt3__119__shared_weak_count14__release_weakEv
LBB28_34:
	mov	rdi, qword ptr [rbp - 464]
	test	rdi, rdi
	je	LBB28_36

	mov	qword ptr [rbp - 456], rdi
	mov	rsi, qword ptr [rbp - 448]
	sub	rsi, rdi
	sar	rsi, 3
Ltmp270:
	mov	edx, 8
	call	__ZN5Botan17deallocate_memoryEPvmm
Ltmp271:
LBB28_36:
	mov	rdi, qword ptr [rbp - 144]
	test	rdi, rdi
	je	LBB28_38

	mov	qword ptr [rbp - 136], rdi
	mov	rsi, qword ptr [rbp - 128]
	sub	rsi, rdi
	sar	rsi, 3
Ltmp273:
	mov	edx, 8
	call	__ZN5Botan17deallocate_memoryEPvmm
Ltmp274:
LBB28_38:
	mov	rdi, qword ptr [rbp - 192]
	test	rdi, rdi
	je	LBB28_40

	mov	qword ptr [rbp - 184], rdi
	mov	rsi, qword ptr [rbp - 176]
	sub	rsi, rdi
	sar	rsi, 3
Ltmp276:
	mov	edx, 8
	call	__ZN5Botan17deallocate_memoryEPvmm
Ltmp277:
LBB28_40:
	mov	rdi, qword ptr [rbp - 240]
	test	rdi, rdi
	je	LBB28_42

	mov	qword ptr [rbp - 232], rdi
	mov	rsi, qword ptr [rbp - 224]
	sub	rsi, rdi
	sar	rsi, 3
Ltmp279:
	mov	edx, 8
	call	__ZN5Botan17deallocate_memoryEPvmm
Ltmp280:
LBB28_42:
	mov	rdi, qword ptr [rbp - 288]
	test	rdi, rdi
	je	LBB28_44

	mov	qword ptr [rbp - 280], rdi
	mov	rsi, qword ptr [rbp - 272]
	sub	rsi, rdi
	sar	rsi, 3
Ltmp282:
	mov	edx, 8
	call	__ZN5Botan17deallocate_memoryEPvmm
Ltmp283:
LBB28_44:
	mov	rdi, qword ptr [rbp - 336]
	test	rdi, rdi
	je	LBB28_46

	mov	qword ptr [rbp - 328], rdi
	mov	rsi, qword ptr [rbp - 320]
	sub	rsi, rdi
	sar	rsi, 3
Ltmp285:
	mov	edx, 8
	call	__ZN5Botan17deallocate_memoryEPvmm
Ltmp286:
LBB28_46:
	mov	rdi, qword ptr [rbp - 384]
	test	rdi, rdi
	je	LBB28_48

	mov	qword ptr [rbp - 376], rdi
	mov	rsi, qword ptr [rbp - 368]
	sub	rsi, rdi
	sar	rsi, 3
Ltmp288:
	mov	edx, 8
	call	__ZN5Botan17deallocate_memoryEPvmm
Ltmp289:
LBB28_48:
	mov	rdi, qword ptr [rbp - 96]
	test	rdi, rdi
	je	LBB28_50

	mov	qword ptr [rbp - 88], rdi
	mov	rsi, qword ptr [rbp - 80]
	sub	rsi, rdi
	sar	rsi, 3
Ltmp291:
	mov	edx, 8
	call	__ZN5Botan17deallocate_memoryEPvmm
Ltmp292:
LBB28_50:
	add	rsp, 552
	pop	rbx
	pop	r12
	pop	r13
	pop	r14
	pop	r15
	pop	rbp
	ret
LBB28_5:
	mov	edi, 32
	call	___cxa_allocate_exception
	mov	rbx, rax
Ltmp202:
	lea	rsi, [rbp - 416]
	mov	rdi, rax
	call	__ZN5Botan14Decoding_ErrorC1ERKNSt3__112basic_stringIcNS1_11char_traitsIcEENS1_9allocatorIcEEEE
Ltmp203:

Ltmp205:
	mov	rsi, qword ptr [rip + __ZTIN5Botan14Decoding_ErrorE@GOTPCREL]
	mov	rdx, qword ptr [rip + __ZN5Botan14Decoding_ErrorD1Ev@GOTPCREL]
	mov	rdi, rbx
	call	___cxa_throw
Ltmp206:

	ud2
LBB28_8:
Ltmp204:
	mov	r12, rax
	mov	rdi, rbx
	call	___cxa_free_exception
	jmp	LBB28_53
LBB28_96:
Ltmp293:
	mov	rdi, rax
	call	___clang_call_terminate
LBB28_95:
Ltmp290:
	mov	rdi, rax
	call	___clang_call_terminate
LBB28_94:
Ltmp287:
	mov	rdi, rax
	call	___clang_call_terminate
LBB28_93:
Ltmp284:
	mov	rdi, rax
	call	___clang_call_terminate
LBB28_92:
Ltmp281:
	mov	rdi, rax
	call	___clang_call_terminate
LBB28_91:
Ltmp278:
	mov	rdi, rax
	call	___clang_call_terminate
LBB28_90:
Ltmp275:
	mov	rdi, rax
	call	___clang_call_terminate
LBB28_89:
Ltmp272:
	mov	rdi, rax
	call	___clang_call_terminate
LBB28_87:
Ltmp237:
	mov	rdi, rax
	call	___clang_call_terminate
LBB28_86:
Ltmp234:
	mov	rdi, rax
	call	___clang_call_terminate
LBB28_88:
Ltmp245:
	mov	r12, rax
	mov	rdi, r15
	call	__ZNSt3__119__shared_weak_countD2Ev
	mov	rdi, r15
	call	__ZdlPv
	jmp	LBB28_69
LBB28_51:
Ltmp199:
	mov	r12, rax
	jmp	LBB28_55
LBB28_60:
Ltmp196:
	mov	r12, rax
	jmp	LBB28_61
LBB28_66:
Ltmp193:
	jmp	LBB28_68
LBB28_67:
Ltmp242:
LBB28_68:
	mov	r12, rax
	jmp	LBB28_69
LBB28_52:
Ltmp225:
	mov	r12, rax
LBB28_53:
	test	byte ptr [rbp - 416], 1
	je	LBB28_55

	mov	rdi, qword ptr [rbp - 400]
	call	__ZdlPv
LBB28_55:
	mov	rdi, qword ptr [rbp - 480]
	mov	qword ptr [rbp - 480], 0
	test	rdi, rdi
	je	LBB28_57

	mov	rax, qword ptr [rdi]
	call	qword ptr [rax + 56]
LBB28_57:
	mov	rdi, qword ptr [rbp - 512]
	test	rdi, rdi
	je	LBB28_61

	mov	qword ptr [rbp - 504], rdi
	mov	rsi, qword ptr [rbp - 496]
	sub	rsi, rdi
Ltmp226:
	mov	edx, 1
	call	__ZN5Botan17deallocate_memoryEPvmm
Ltmp227:
LBB28_61:
	mov	rdi, qword ptr [rbp - 536]
	mov	qword ptr [rbp - 536], 0
	test	rdi, rdi
	je	LBB28_63

	mov	rax, qword ptr [rdi]
	call	qword ptr [rax + 56]
LBB28_63:
	mov	rdi, qword ptr [rbp - 568]
	test	rdi, rdi
	je	LBB28_69

	mov	qword ptr [rbp - 560], rdi
	mov	rsi, qword ptr [rbp - 552]
	sub	rsi, rdi
Ltmp229:
	mov	edx, 1
	call	__ZN5Botan17deallocate_memoryEPvmm
Ltmp230:
LBB28_69:
	mov	rdi, qword ptr [rbp - 464]
	test	rdi, rdi
	je	LBB28_71

	mov	qword ptr [rbp - 456], rdi
	mov	rsi, qword ptr [rbp - 448]
	sub	rsi, rdi
	sar	rsi, 3
Ltmp246:
	mov	edx, 8
	call	__ZN5Botan17deallocate_memoryEPvmm
Ltmp247:
LBB28_71:
	mov	rdi, qword ptr [rbp - 144]
	test	rdi, rdi
	je	LBB28_73

	mov	qword ptr [rbp - 136], rdi
	mov	rsi, qword ptr [rbp - 128]
	sub	rsi, rdi
	sar	rsi, 3
Ltmp249:
	mov	edx, 8
	call	__ZN5Botan17deallocate_memoryEPvmm
Ltmp250:
LBB28_73:
	mov	rdi, qword ptr [rbp - 192]
	test	rdi, rdi
	je	LBB28_75

	mov	qword ptr [rbp - 184], rdi
	mov	rsi, qword ptr [rbp - 176]
	sub	rsi, rdi
	sar	rsi, 3
Ltmp252:
	mov	edx, 8
	call	__ZN5Botan17deallocate_memoryEPvmm
Ltmp253:
LBB28_75:
	mov	rdi, qword ptr [rbp - 240]
	test	rdi, rdi
	je	LBB28_77

	mov	qword ptr [rbp - 232], rdi
	mov	rsi, qword ptr [rbp - 224]
	sub	rsi, rdi
	sar	rsi, 3
Ltmp255:
	mov	edx, 8
	call	__ZN5Botan17deallocate_memoryEPvmm
Ltmp256:
LBB28_77:
	mov	rdi, qword ptr [rbp - 288]
	test	rdi, rdi
	je	LBB28_79

	mov	qword ptr [rbp - 280], rdi
	mov	rsi, qword ptr [rbp - 272]
	sub	rsi, rdi
	sar	rsi, 3
Ltmp258:
	mov	edx, 8
	call	__ZN5Botan17deallocate_memoryEPvmm
Ltmp259:
LBB28_79:
	mov	rdi, qword ptr [rbp - 336]
	test	rdi, rdi
	je	LBB28_81

	mov	qword ptr [rbp - 328], rdi
	mov	rsi, qword ptr [rbp - 320]
	sub	rsi, rdi
	sar	rsi, 3
Ltmp261:
	mov	edx, 8
	call	__ZN5Botan17deallocate_memoryEPvmm
Ltmp262:
LBB28_81:
	mov	rdi, qword ptr [rbp - 384]
	test	rdi, rdi
	je	LBB28_83

	mov	qword ptr [rbp - 376], rdi
	mov	rsi, qword ptr [rbp - 368]
	sub	rsi, rdi
	sar	rsi, 3
Ltmp264:
	mov	edx, 8
	call	__ZN5Botan17deallocate_memoryEPvmm
Ltmp265:
LBB28_83:
	mov	rdi, qword ptr [rbp - 96]
	test	rdi, rdi
	je	LBB28_85

	mov	qword ptr [rbp - 88], rdi
	mov	rsi, qword ptr [rbp - 80]
	sub	rsi, rdi
	sar	rsi, 3
Ltmp267:
	mov	edx, 8
	call	__ZN5Botan17deallocate_memoryEPvmm
Ltmp268:
LBB28_85:
	lea	rdx, [r14 + 24]
	add	r14, 32
	lea	rdi, [rbp - 96]
	mov	rsi, r13
	mov	rcx, qword ptr [rbp - 48] 
	mov	r8, r14
	mov	r9, rcx
	call	__ZN5Botan14RSA_PrivateKeyC2ERKNS_19AlgorithmIdentifierERKNSt3__16vectorIhNS_16secure_allocatorIhEEEE.cold.1
	mov	rdi, r12
	call	__Unwind_Resume
	ud2
LBB28_59:
Ltmp228:
	mov	rdi, rax
	call	___clang_call_terminate
LBB28_65:
Ltmp231:
	mov	rdi, rax
	call	___clang_call_terminate
LBB28_104:
Ltmp269:
	mov	rdi, rax
	call	___clang_call_terminate
LBB28_103:
Ltmp266:
	mov	rdi, rax
	call	___clang_call_terminate
LBB28_102:
Ltmp263:
	mov	rdi, rax
	call	___clang_call_terminate
LBB28_101:
Ltmp260:
	mov	rdi, rax
	call	___clang_call_terminate
LBB28_100:
Ltmp257:
	mov	rdi, rax
	call	___clang_call_terminate
LBB28_99:
Ltmp254:
	mov	rdi, rax
	call	___clang_call_terminate
LBB28_98:
Ltmp251:
	mov	rdi, rax
	call	___clang_call_terminate
LBB28_97:
Ltmp248:
	mov	rdi, rax
	call	___clang_call_terminate
Lfunc_end10:
	.cfi_endproc
	.section	__TEXT,__gcc_except_tab
	.p2align	2
GCC_except_table28:
Lexception10:
	.byte	255                     
	.byte	155                     
	.uleb128 Lttbase6-Lttbaseref6
Lttbaseref6:
	.byte	1                       
	.uleb128 Lcst_end10-Lcst_begin10
Lcst_begin10:
	.uleb128 Ltmp191-Lfunc_begin10  
	.uleb128 Ltmp192-Ltmp191        
	.uleb128 Ltmp193-Lfunc_begin10  
	.byte	0                       
	.uleb128 Ltmp194-Lfunc_begin10  
	.uleb128 Ltmp195-Ltmp194        
	.uleb128 Ltmp196-Lfunc_begin10  
	.byte	0                       
	.uleb128 Ltmp197-Lfunc_begin10  
	.uleb128 Ltmp198-Ltmp197        
	.uleb128 Ltmp199-Lfunc_begin10  
	.byte	0                       
	.uleb128 Ltmp200-Lfunc_begin10  
	.uleb128 Ltmp224-Ltmp200        
	.uleb128 Ltmp225-Lfunc_begin10  
	.byte	0                       
	.uleb128 Ltmp224-Lfunc_begin10  
	.uleb128 Ltmp232-Ltmp224        
	.byte	0                       
	.byte	0                       
	.uleb128 Ltmp232-Lfunc_begin10  
	.uleb128 Ltmp233-Ltmp232        
	.uleb128 Ltmp234-Lfunc_begin10  
	.byte	1                       
	.uleb128 Ltmp233-Lfunc_begin10  
	.uleb128 Ltmp235-Ltmp233        
	.byte	0                       
	.byte	0                       
	.uleb128 Ltmp235-Lfunc_begin10  
	.uleb128 Ltmp236-Ltmp235        
	.uleb128 Ltmp237-Lfunc_begin10  
	.byte	1                       
	.uleb128 Ltmp238-Lfunc_begin10  
	.uleb128 Ltmp241-Ltmp238        
	.uleb128 Ltmp242-Lfunc_begin10  
	.byte	0                       
	.uleb128 Ltmp243-Lfunc_begin10  
	.uleb128 Ltmp244-Ltmp243        
	.uleb128 Ltmp245-Lfunc_begin10  
	.byte	0                       
	.uleb128 Ltmp244-Lfunc_begin10  
	.uleb128 Ltmp270-Ltmp244        
	.byte	0                       
	.byte	0                       
	.uleb128 Ltmp270-Lfunc_begin10  
	.uleb128 Ltmp271-Ltmp270        
	.uleb128 Ltmp272-Lfunc_begin10  
	.byte	1                       
	.uleb128 Ltmp273-Lfunc_begin10  
	.uleb128 Ltmp274-Ltmp273        
	.uleb128 Ltmp275-Lfunc_begin10  
	.byte	1                       
	.uleb128 Ltmp276-Lfunc_begin10  
	.uleb128 Ltmp277-Ltmp276        
	.uleb128 Ltmp278-Lfunc_begin10  
	.byte	1                       
	.uleb128 Ltmp279-Lfunc_begin10  
	.uleb128 Ltmp280-Ltmp279        
	.uleb128 Ltmp281-Lfunc_begin10  
	.byte	1                       
	.uleb128 Ltmp282-Lfunc_begin10  
	.uleb128 Ltmp283-Ltmp282        
	.uleb128 Ltmp284-Lfunc_begin10  
	.byte	1                       
	.uleb128 Ltmp285-Lfunc_begin10  
	.uleb128 Ltmp286-Ltmp285        
	.uleb128 Ltmp287-Lfunc_begin10  
	.byte	1                       
	.uleb128 Ltmp288-Lfunc_begin10  
	.uleb128 Ltmp289-Ltmp288        
	.uleb128 Ltmp290-Lfunc_begin10  
	.byte	1                       
	.uleb128 Ltmp291-Lfunc_begin10  
	.uleb128 Ltmp292-Ltmp291        
	.uleb128 Ltmp293-Lfunc_begin10  
	.byte	1                       
	.uleb128 Ltmp292-Lfunc_begin10  
	.uleb128 Ltmp202-Ltmp292        
	.byte	0                       
	.byte	0                       
	.uleb128 Ltmp202-Lfunc_begin10  
	.uleb128 Ltmp203-Ltmp202        
	.uleb128 Ltmp204-Lfunc_begin10  
	.byte	0                       
	.uleb128 Ltmp205-Lfunc_begin10  
	.uleb128 Ltmp206-Ltmp205        
	.uleb128 Ltmp225-Lfunc_begin10  
	.byte	0                       
	.uleb128 Ltmp206-Lfunc_begin10  
	.uleb128 Ltmp226-Ltmp206        
	.byte	0                       
	.byte	0                       
	.uleb128 Ltmp226-Lfunc_begin10  
	.uleb128 Ltmp227-Ltmp226        
	.uleb128 Ltmp228-Lfunc_begin10  
	.byte	1                       
	.uleb128 Ltmp227-Lfunc_begin10  
	.uleb128 Ltmp229-Ltmp227        
	.byte	0                       
	.byte	0                       
	.uleb128 Ltmp229-Lfunc_begin10  
	.uleb128 Ltmp230-Ltmp229        
	.uleb128 Ltmp231-Lfunc_begin10  
	.byte	1                       
	.uleb128 Ltmp246-Lfunc_begin10  
	.uleb128 Ltmp247-Ltmp246        
	.uleb128 Ltmp248-Lfunc_begin10  
	.byte	1                       
	.uleb128 Ltmp249-Lfunc_begin10  
	.uleb128 Ltmp250-Ltmp249        
	.uleb128 Ltmp251-Lfunc_begin10  
	.byte	1                       
	.uleb128 Ltmp252-Lfunc_begin10  
	.uleb128 Ltmp253-Ltmp252        
	.uleb128 Ltmp254-Lfunc_begin10  
	.byte	1                       
	.uleb128 Ltmp255-Lfunc_begin10  
	.uleb128 Ltmp256-Ltmp255        
	.uleb128 Ltmp257-Lfunc_begin10  
	.byte	1                       
	.uleb128 Ltmp258-Lfunc_begin10  
	.uleb128 Ltmp259-Ltmp258        
	.uleb128 Ltmp260-Lfunc_begin10  
	.byte	1                       
	.uleb128 Ltmp261-Lfunc_begin10  
	.uleb128 Ltmp262-Ltmp261        
	.uleb128 Ltmp263-Lfunc_begin10  
	.byte	1                       
	.uleb128 Ltmp264-Lfunc_begin10  
	.uleb128 Ltmp265-Ltmp264        
	.uleb128 Ltmp266-Lfunc_begin10  
	.byte	1                       
	.uleb128 Ltmp267-Lfunc_begin10  
	.uleb128 Ltmp268-Ltmp267        
	.uleb128 Ltmp269-Lfunc_begin10  
	.byte	1                       
	.uleb128 Ltmp268-Lfunc_begin10  
	.uleb128 Lfunc_end10-Ltmp268    
	.byte	0                       
	.byte	0                       
Lcst_end10:
	.byte	1                       
                                        
	.byte	0                       
	.p2align	2
                                        
	.long	0                       
Lttbase6:
	.p2align	2
                                        
	.section	__TEXT,__literal16,16byte_literals
	.p2align	4               
LCPI29_0:
	.quad	49                      
	.quad	34                      
	.section	__TEXT,__text,regular,pure_instructions
	.globl	__ZN5Botan14RSA_PrivateKeyC1ERKNS_19AlgorithmIdentifierERKNSt3__16vectorIhNS_16secure_allocatorIhEEEE
	.p2align	4, 0x90
__ZN5Botan14RSA_PrivateKeyC1ERKNS_19AlgorithmIdentifierERKNSt3__16vectorIhNS_16secure_allocatorIhEEEE: 
Lfunc_begin11:
	.cfi_startproc
	.cfi_personality 155, ___gxx_personality_v0
	.cfi_lsda 16, Lexception11

	push	rbp
	.cfi_def_cfa_offset 16
	.cfi_offset rbp, -16
	mov	rbp, rsp
	.cfi_def_cfa_register rbp
	push	r15
	push	r14
	push	r13
	push	r12
	push	rbx
	sub	rsp, 536
	.cfi_offset rbx, -56
	.cfi_offset r12, -48
	.cfi_offset r13, -40
	.cfi_offset r14, -32
	.cfi_offset r15, -24
	mov	r12, rdi
	lea	r14, [rdi + 8]
	mov	qword ptr [rdi + 24], 0
	mov	qword ptr [rdi + 16], 0
	lea	rax, [rip + __ZTVN5Botan14RSA_PrivateKeyE+136]
	mov	qword ptr [rdi], rax
	lea	rax, [rip + __ZTVN5Botan14RSA_PrivateKeyE+456]
	mov	qword ptr [rdi + 8], rax
	mov	qword ptr [rdi + 32], 0
	mov	qword ptr [rdi + 40], 0
	xorps	xmm0, xmm0
	movaps	xmmword ptr [rbp - 80], xmm0
	mov	qword ptr [rbp - 64], 0
	mov	qword ptr [rbp - 56], -1
	mov	dword ptr [rbp - 48], 1
	movaps	xmmword ptr [rbp - 368], xmm0
	mov	qword ptr [rbp - 352], 0
	mov	qword ptr [rbp - 344], -1
	mov	dword ptr [rbp - 336], 1
	movaps	xmmword ptr [rbp - 320], xmm0
	mov	qword ptr [rbp - 304], 0
	mov	qword ptr [rbp - 296], -1
	mov	dword ptr [rbp - 288], 1
	movaps	xmmword ptr [rbp - 272], xmm0
	mov	qword ptr [rbp - 256], 0
	mov	qword ptr [rbp - 248], -1
	mov	dword ptr [rbp - 240], 1
	movaps	xmmword ptr [rbp - 224], xmm0
	mov	qword ptr [rbp - 208], 0
	mov	qword ptr [rbp - 200], -1
	mov	dword ptr [rbp - 192], 1
	movaps	xmmword ptr [rbp - 176], xmm0
	mov	qword ptr [rbp - 160], 0
	mov	qword ptr [rbp - 152], -1
	mov	dword ptr [rbp - 144], 1
	movaps	xmmword ptr [rbp - 128], xmm0
	mov	qword ptr [rbp - 112], 0
	mov	qword ptr [rbp - 104], -1
	mov	dword ptr [rbp - 96], 1
	movaps	xmmword ptr [rbp - 448], xmm0
	mov	qword ptr [rbp - 432], 0
	mov	qword ptr [rbp - 424], -1
	mov	dword ptr [rbp - 416], 1
Ltmp294:
	lea	rdi, [rbp - 568]
	mov	rsi, rdx
	call	__ZN5Botan11BER_DecoderC1ERKNSt3__16vectorIhNS_16secure_allocatorIhEEEE
Ltmp295:

Ltmp297:
	lea	rdi, [rbp - 512]
	lea	rsi, [rbp - 568]
	mov	edx, 16
	xor	ecx, ecx
	call	__ZN5Botan11BER_Decoder10start_consENS_9ASN1_TypeENS_10ASN1_ClassE
Ltmp298:

Ltmp300:
	mov	edi, 48
	call	__Znwm
Ltmp301:

	mov	qword ptr [rbp - 384], rax
	movaps	xmm0, xmmword ptr [rip + LCPI29_0] 
	movaps	xmmword ptr [rbp - 400], xmm0
	movabs	rcx, 7598542776403260513
	mov	qword ptr [rax + 24], rcx
	movabs	rcx, 7886488381901333867
	mov	qword ptr [rax + 16], rcx
	movabs	rcx, 2319673904815360848
	mov	qword ptr [rax + 8], rcx
	movabs	rcx, 2336936577129475669
	mov	qword ptr [rax], rcx
	mov	word ptr [rax + 32], 28271
	mov	byte ptr [rax + 34], 0
Ltmp303:
	lea	rdi, [rbp - 512]
	lea	rsi, [rbp - 456]
	mov	edx, 2
	xor	ecx, ecx
	call	__ZN5Botan11BER_Decoder6decodeERmNS_9ASN1_TypeENS_10ASN1_ClassE
Ltmp304:

	cmp	qword ptr [rbp - 456], 0
	jne	LBB29_5

Ltmp310:
	lea	rdi, [rbp - 512]
	lea	rsi, [rbp - 80]
	mov	edx, 2
	xor	ecx, ecx
	call	__ZN5Botan11BER_Decoder6decodeERNS_6BigIntENS_9ASN1_TypeENS_10ASN1_ClassE
Ltmp311:

Ltmp312:
	lea	rsi, [rbp - 368]
	mov	rdi, rax
	mov	edx, 2
	xor	ecx, ecx
	call	__ZN5Botan11BER_Decoder6decodeERNS_6BigIntENS_9ASN1_TypeENS_10ASN1_ClassE
Ltmp313:

Ltmp314:
	lea	rsi, [rbp - 320]
	mov	rdi, rax
	mov	edx, 2
	xor	ecx, ecx
	call	__ZN5Botan11BER_Decoder6decodeERNS_6BigIntENS_9ASN1_TypeENS_10ASN1_ClassE
Ltmp315:

Ltmp316:
	lea	rsi, [rbp - 272]
	mov	rdi, rax
	mov	edx, 2
	xor	ecx, ecx
	call	__ZN5Botan11BER_Decoder6decodeERNS_6BigIntENS_9ASN1_TypeENS_10ASN1_ClassE
Ltmp317:

Ltmp318:
	lea	rsi, [rbp - 224]
	mov	rdi, rax
	mov	edx, 2
	xor	ecx, ecx
	call	__ZN5Botan11BER_Decoder6decodeERNS_6BigIntENS_9ASN1_TypeENS_10ASN1_ClassE
Ltmp319:

Ltmp320:
	lea	rsi, [rbp - 176]
	mov	rdi, rax
	mov	edx, 2
	xor	ecx, ecx
	call	__ZN5Botan11BER_Decoder6decodeERNS_6BigIntENS_9ASN1_TypeENS_10ASN1_ClassE
Ltmp321:

Ltmp322:
	lea	rsi, [rbp - 128]
	mov	rdi, rax
	mov	edx, 2
	xor	ecx, ecx
	call	__ZN5Botan11BER_Decoder6decodeERNS_6BigIntENS_9ASN1_TypeENS_10ASN1_ClassE
Ltmp323:

Ltmp324:
	lea	r15, [rbp - 448]
	mov	rdi, rax
	mov	rsi, r15
	mov	edx, 2
	xor	ecx, ecx
	call	__ZN5Botan11BER_Decoder6decodeERNS_6BigIntENS_9ASN1_TypeENS_10ASN1_ClassE
Ltmp325:

Ltmp326:
	mov	rdi, rax
	call	__ZN5Botan11BER_Decoder8end_consEv
Ltmp327:

	test	byte ptr [rbp - 400], 1
	je	LBB29_20

	mov	rdi, qword ptr [rbp - 384]
	call	__ZdlPv
LBB29_20:
	mov	rdi, qword ptr [rbp - 464]
	mov	qword ptr [rbp - 464], 0
	test	rdi, rdi
	je	LBB29_22

	mov	rax, qword ptr [rdi]
	call	qword ptr [rax + 56]
LBB29_22:
	mov	rdi, qword ptr [rbp - 496]
	test	rdi, rdi
	je	LBB29_24

	mov	qword ptr [rbp - 488], rdi
	mov	rsi, qword ptr [rbp - 480]
	sub	rsi, rdi
Ltmp335:
	mov	edx, 1
	call	__ZN5Botan17deallocate_memoryEPvmm
Ltmp336:
LBB29_24:
	mov	rdi, qword ptr [rbp - 520]
	mov	qword ptr [rbp - 520], 0
	test	rdi, rdi
	je	LBB29_26

	mov	rax, qword ptr [rdi]
	call	qword ptr [rax + 56]
LBB29_26:
	mov	rdi, qword ptr [rbp - 552]
	test	rdi, rdi
	je	LBB29_28

	mov	qword ptr [rbp - 544], rdi
	mov	rsi, qword ptr [rbp - 536]
	sub	rsi, rdi
Ltmp338:
	mov	edx, 1
	call	__ZN5Botan17deallocate_memoryEPvmm
Ltmp339:
LBB29_28:
Ltmp341:
	lea	rsi, [rbp - 80]
	lea	rdx, [rbp - 368]
	mov	rdi, r14
	call	__ZN5Botan13RSA_PublicKey4initEONS_6BigIntES2_
Ltmp342:

Ltmp343:
	mov	edi, 488
	call	__Znwm
Ltmp344:

	mov	r13, rax
	mov	qword ptr [rax + 16], 0
	mov	qword ptr [rax + 8], 0
	mov	rax, qword ptr [rip + __ZTVNSt3__120__shared_ptr_emplaceIN5Botan16RSA_Private_DataENS_9allocatorIS2_EEEE@GOTPCREL]
	add	rax, 16
	mov	qword ptr [r13], rax
	mov	rbx, r13
	add	rbx, 24
Ltmp346:
	mov	qword ptr [rsp], r15
	lea	rsi, [rbp - 320]
	lea	rdx, [rbp - 272]
	lea	rcx, [rbp - 224]
	lea	r8, [rbp - 176]
	lea	r9, [rbp - 128]
	mov	rdi, rbx
	call	__ZN5Botan16RSA_Private_DataC2EONS_6BigIntES2_S2_S2_S2_S2_
Ltmp347:

	mov	qword ptr [r12 + 32], rbx
	mov	rbx, qword ptr [r12 + 40]
	mov	qword ptr [r12 + 40], r13
	test	rbx, rbx
	je	LBB29_34

	mov	rax, -1
	lock		xadd	qword ptr [rbx + 8], rax
	test	rax, rax
	jne	LBB29_34

	mov	rax, qword ptr [rbx]
	mov	rdi, rbx
	call	qword ptr [rax + 16]
	mov	rdi, rbx
	call	__ZNSt3__119__shared_weak_count14__release_weakEv
LBB29_34:
	mov	rdi, qword ptr [rbp - 448]
	test	rdi, rdi
	je	LBB29_36

	mov	qword ptr [rbp - 440], rdi
	mov	rsi, qword ptr [rbp - 432]
	sub	rsi, rdi
	sar	rsi, 3
Ltmp373:
	mov	edx, 8
	call	__ZN5Botan17deallocate_memoryEPvmm
Ltmp374:
LBB29_36:
	mov	rdi, qword ptr [rbp - 128]
	test	rdi, rdi
	je	LBB29_38

	mov	qword ptr [rbp - 120], rdi
	mov	rsi, qword ptr [rbp - 112]
	sub	rsi, rdi
	sar	rsi, 3
Ltmp376:
	mov	edx, 8
	call	__ZN5Botan17deallocate_memoryEPvmm
Ltmp377:
LBB29_38:
	mov	rdi, qword ptr [rbp - 176]
	test	rdi, rdi
	je	LBB29_40

	mov	qword ptr [rbp - 168], rdi
	mov	rsi, qword ptr [rbp - 160]
	sub	rsi, rdi
	sar	rsi, 3
Ltmp379:
	mov	edx, 8
	call	__ZN5Botan17deallocate_memoryEPvmm
Ltmp380:
LBB29_40:
	mov	rdi, qword ptr [rbp - 224]
	test	rdi, rdi
	je	LBB29_42

	mov	qword ptr [rbp - 216], rdi
	mov	rsi, qword ptr [rbp - 208]
	sub	rsi, rdi
	sar	rsi, 3
Ltmp382:
	mov	edx, 8
	call	__ZN5Botan17deallocate_memoryEPvmm
Ltmp383:
LBB29_42:
	mov	rdi, qword ptr [rbp - 272]
	test	rdi, rdi
	je	LBB29_44

	mov	qword ptr [rbp - 264], rdi
	mov	rsi, qword ptr [rbp - 256]
	sub	rsi, rdi
	sar	rsi, 3
Ltmp385:
	mov	edx, 8
	call	__ZN5Botan17deallocate_memoryEPvmm
Ltmp386:
LBB29_44:
	mov	rdi, qword ptr [rbp - 320]
	test	rdi, rdi
	je	LBB29_46

	mov	qword ptr [rbp - 312], rdi
	mov	rsi, qword ptr [rbp - 304]
	sub	rsi, rdi
	sar	rsi, 3
Ltmp388:
	mov	edx, 8
	call	__ZN5Botan17deallocate_memoryEPvmm
Ltmp389:
LBB29_46:
	mov	rdi, qword ptr [rbp - 368]
	test	rdi, rdi
	je	LBB29_48

	mov	qword ptr [rbp - 360], rdi
	mov	rsi, qword ptr [rbp - 352]
	sub	rsi, rdi
	sar	rsi, 3
Ltmp391:
	mov	edx, 8
	call	__ZN5Botan17deallocate_memoryEPvmm
Ltmp392:
LBB29_48:
	mov	rdi, qword ptr [rbp - 80]
	test	rdi, rdi
	je	LBB29_50

	mov	qword ptr [rbp - 72], rdi
	mov	rsi, qword ptr [rbp - 64]
	sub	rsi, rdi
	sar	rsi, 3
Ltmp394:
	mov	edx, 8
	call	__ZN5Botan17deallocate_memoryEPvmm
Ltmp395:
LBB29_50:
	add	rsp, 536
	pop	rbx
	pop	r12
	pop	r13
	pop	r14
	pop	r15
	pop	rbp
	ret
LBB29_5:
	mov	edi, 32
	call	___cxa_allocate_exception
	mov	rbx, rax
Ltmp305:
	lea	rsi, [rbp - 400]
	mov	rdi, rax
	call	__ZN5Botan14Decoding_ErrorC1ERKNSt3__112basic_stringIcNS1_11char_traitsIcEENS1_9allocatorIcEEEE
Ltmp306:

Ltmp308:
	mov	rsi, qword ptr [rip + __ZTIN5Botan14Decoding_ErrorE@GOTPCREL]
	mov	rdx, qword ptr [rip + __ZN5Botan14Decoding_ErrorD1Ev@GOTPCREL]
	mov	rdi, rbx
	call	___cxa_throw
Ltmp309:

	ud2
LBB29_8:
Ltmp307:
	mov	r15, rax
	mov	rdi, rbx
	call	___cxa_free_exception
	jmp	LBB29_53
LBB29_96:
Ltmp396:
	mov	rdi, rax
	call	___clang_call_terminate
LBB29_95:
Ltmp393:
	mov	rdi, rax
	call	___clang_call_terminate
LBB29_94:
Ltmp390:
	mov	rdi, rax
	call	___clang_call_terminate
LBB29_93:
Ltmp387:
	mov	rdi, rax
	call	___clang_call_terminate
LBB29_92:
Ltmp384:
	mov	rdi, rax
	call	___clang_call_terminate
LBB29_91:
Ltmp381:
	mov	rdi, rax
	call	___clang_call_terminate
LBB29_90:
Ltmp378:
	mov	rdi, rax
	call	___clang_call_terminate
LBB29_89:
Ltmp375:
	mov	rdi, rax
	call	___clang_call_terminate
LBB29_87:
Ltmp340:
	mov	rdi, rax
	call	___clang_call_terminate
LBB29_86:
Ltmp337:
	mov	rdi, rax
	call	___clang_call_terminate
LBB29_88:
Ltmp348:
	mov	r15, rax
	mov	rdi, r13
	call	__ZNSt3__119__shared_weak_countD2Ev
	mov	rdi, r13
	call	__ZdlPv
	jmp	LBB29_69
LBB29_51:
Ltmp302:
	mov	r15, rax
	jmp	LBB29_55
LBB29_60:
Ltmp299:
	mov	r15, rax
	jmp	LBB29_61
LBB29_66:
Ltmp296:
	jmp	LBB29_68
LBB29_67:
Ltmp345:
LBB29_68:
	mov	r15, rax
	jmp	LBB29_69
LBB29_52:
Ltmp328:
	mov	r15, rax
LBB29_53:
	test	byte ptr [rbp - 400], 1
	je	LBB29_55

	mov	rdi, qword ptr [rbp - 384]
	call	__ZdlPv
LBB29_55:
	mov	rdi, qword ptr [rbp - 464]
	mov	qword ptr [rbp - 464], 0
	test	rdi, rdi
	je	LBB29_57

	mov	rax, qword ptr [rdi]
	call	qword ptr [rax + 56]
LBB29_57:
	mov	rdi, qword ptr [rbp - 496]
	test	rdi, rdi
	je	LBB29_61

	mov	qword ptr [rbp - 488], rdi
	mov	rsi, qword ptr [rbp - 480]
	sub	rsi, rdi
Ltmp329:
	mov	edx, 1
	call	__ZN5Botan17deallocate_memoryEPvmm
Ltmp330:
LBB29_61:
	mov	rdi, qword ptr [rbp - 520]
	mov	qword ptr [rbp - 520], 0
	test	rdi, rdi
	je	LBB29_63

	mov	rax, qword ptr [rdi]
	call	qword ptr [rax + 56]
LBB29_63:
	mov	rdi, qword ptr [rbp - 552]
	test	rdi, rdi
	je	LBB29_69

	mov	qword ptr [rbp - 544], rdi
	mov	rsi, qword ptr [rbp - 536]
	sub	rsi, rdi
Ltmp332:
	mov	edx, 1
	call	__ZN5Botan17deallocate_memoryEPvmm
Ltmp333:
LBB29_69:
	mov	rdi, qword ptr [rbp - 448]
	test	rdi, rdi
	je	LBB29_71

	mov	qword ptr [rbp - 440], rdi
	mov	rsi, qword ptr [rbp - 432]
	sub	rsi, rdi
	sar	rsi, 3
Ltmp349:
	mov	edx, 8
	call	__ZN5Botan17deallocate_memoryEPvmm
Ltmp350:
LBB29_71:
	mov	rdi, qword ptr [rbp - 128]
	test	rdi, rdi
	je	LBB29_73

	mov	qword ptr [rbp - 120], rdi
	mov	rsi, qword ptr [rbp - 112]
	sub	rsi, rdi
	sar	rsi, 3
Ltmp352:
	mov	edx, 8
	call	__ZN5Botan17deallocate_memoryEPvmm
Ltmp353:
LBB29_73:
	mov	rdi, qword ptr [rbp - 176]
	test	rdi, rdi
	je	LBB29_75

	mov	qword ptr [rbp - 168], rdi
	mov	rsi, qword ptr [rbp - 160]
	sub	rsi, rdi
	sar	rsi, 3
Ltmp355:
	mov	edx, 8
	call	__ZN5Botan17deallocate_memoryEPvmm
Ltmp356:
LBB29_75:
	mov	rdi, qword ptr [rbp - 224]
	test	rdi, rdi
	je	LBB29_77

	mov	qword ptr [rbp - 216], rdi
	mov	rsi, qword ptr [rbp - 208]
	sub	rsi, rdi
	sar	rsi, 3
Ltmp358:
	mov	edx, 8
	call	__ZN5Botan17deallocate_memoryEPvmm
Ltmp359:
LBB29_77:
	mov	rdi, qword ptr [rbp - 272]
	test	rdi, rdi
	je	LBB29_79

	mov	qword ptr [rbp - 264], rdi
	mov	rsi, qword ptr [rbp - 256]
	sub	rsi, rdi
	sar	rsi, 3
Ltmp361:
	mov	edx, 8
	call	__ZN5Botan17deallocate_memoryEPvmm
Ltmp362:
LBB29_79:
	mov	rdi, qword ptr [rbp - 320]
	test	rdi, rdi
	je	LBB29_81

	mov	qword ptr [rbp - 312], rdi
	mov	rsi, qword ptr [rbp - 304]
	sub	rsi, rdi
	sar	rsi, 3
Ltmp364:
	mov	edx, 8
	call	__ZN5Botan17deallocate_memoryEPvmm
Ltmp365:
LBB29_81:
	mov	rdi, qword ptr [rbp - 368]
	test	rdi, rdi
	je	LBB29_83

	mov	qword ptr [rbp - 360], rdi
	mov	rsi, qword ptr [rbp - 352]
	sub	rsi, rdi
	sar	rsi, 3
Ltmp367:
	mov	edx, 8
	call	__ZN5Botan17deallocate_memoryEPvmm
Ltmp368:
LBB29_83:
	mov	rdi, qword ptr [rbp - 80]
	test	rdi, rdi
	je	LBB29_85

	mov	qword ptr [rbp - 72], rdi
	mov	rsi, qword ptr [rbp - 64]
	sub	rsi, rdi
	sar	rsi, 3
Ltmp370:
	mov	edx, 8
	call	__ZN5Botan17deallocate_memoryEPvmm
Ltmp371:
LBB29_85:
	lea	rdi, [rbp - 80]
	mov	rsi, r12
	mov	rdx, r14
	mov	rcx, r12
	call	__ZN5Botan14RSA_PrivateKeyC1ERKNS_19AlgorithmIdentifierERKNSt3__16vectorIhNS_16secure_allocatorIhEEEE.cold.1
	mov	rdi, r15
	call	__Unwind_Resume
	ud2
LBB29_59:
Ltmp331:
	mov	rdi, rax
	call	___clang_call_terminate
LBB29_65:
Ltmp334:
	mov	rdi, rax
	call	___clang_call_terminate
LBB29_104:
Ltmp372:
	mov	rdi, rax
	call	___clang_call_terminate
LBB29_103:
Ltmp369:
	mov	rdi, rax
	call	___clang_call_terminate
LBB29_102:
Ltmp366:
	mov	rdi, rax
	call	___clang_call_terminate
LBB29_101:
Ltmp363:
	mov	rdi, rax
	call	___clang_call_terminate
LBB29_100:
Ltmp360:
	mov	rdi, rax
	call	___clang_call_terminate
LBB29_99:
Ltmp357:
	mov	rdi, rax
	call	___clang_call_terminate
LBB29_98:
Ltmp354:
	mov	rdi, rax
	call	___clang_call_terminate
LBB29_97:
Ltmp351:
	mov	rdi, rax
	call	___clang_call_terminate
Lfunc_end11:
	.cfi_endproc
	.section	__TEXT,__gcc_except_tab
	.p2align	2
GCC_except_table29:
Lexception11:
	.byte	255                     
	.byte	155                     
	.uleb128 Lttbase7-Lttbaseref7
Lttbaseref7:
	.byte	1                       
	.uleb128 Lcst_end11-Lcst_begin11
Lcst_begin11:
	.uleb128 Ltmp294-Lfunc_begin11  
	.uleb128 Ltmp295-Ltmp294        
	.uleb128 Ltmp296-Lfunc_begin11  
	.byte	0                       
	.uleb128 Ltmp297-Lfunc_begin11  
	.uleb128 Ltmp298-Ltmp297        
	.uleb128 Ltmp299-Lfunc_begin11  
	.byte	0                       
	.uleb128 Ltmp300-Lfunc_begin11  
	.uleb128 Ltmp301-Ltmp300        
	.uleb128 Ltmp302-Lfunc_begin11  
	.byte	0                       
	.uleb128 Ltmp303-Lfunc_begin11  
	.uleb128 Ltmp327-Ltmp303        
	.uleb128 Ltmp328-Lfunc_begin11  
	.byte	0                       
	.uleb128 Ltmp327-Lfunc_begin11  
	.uleb128 Ltmp335-Ltmp327        
	.byte	0                       
	.byte	0                       
	.uleb128 Ltmp335-Lfunc_begin11  
	.uleb128 Ltmp336-Ltmp335        
	.uleb128 Ltmp337-Lfunc_begin11  
	.byte	1                       
	.uleb128 Ltmp336-Lfunc_begin11  
	.uleb128 Ltmp338-Ltmp336        
	.byte	0                       
	.byte	0                       
	.uleb128 Ltmp338-Lfunc_begin11  
	.uleb128 Ltmp339-Ltmp338        
	.uleb128 Ltmp340-Lfunc_begin11  
	.byte	1                       
	.uleb128 Ltmp341-Lfunc_begin11  
	.uleb128 Ltmp344-Ltmp341        
	.uleb128 Ltmp345-Lfunc_begin11  
	.byte	0                       
	.uleb128 Ltmp346-Lfunc_begin11  
	.uleb128 Ltmp347-Ltmp346        
	.uleb128 Ltmp348-Lfunc_begin11  
	.byte	0                       
	.uleb128 Ltmp347-Lfunc_begin11  
	.uleb128 Ltmp373-Ltmp347        
	.byte	0                       
	.byte	0                       
	.uleb128 Ltmp373-Lfunc_begin11  
	.uleb128 Ltmp374-Ltmp373        
	.uleb128 Ltmp375-Lfunc_begin11  
	.byte	1                       
	.uleb128 Ltmp376-Lfunc_begin11  
	.uleb128 Ltmp377-Ltmp376        
	.uleb128 Ltmp378-Lfunc_begin11  
	.byte	1                       
	.uleb128 Ltmp379-Lfunc_begin11  
	.uleb128 Ltmp380-Ltmp379        
	.uleb128 Ltmp381-Lfunc_begin11  
	.byte	1                       
	.uleb128 Ltmp382-Lfunc_begin11  
	.uleb128 Ltmp383-Ltmp382        
	.uleb128 Ltmp384-Lfunc_begin11  
	.byte	1                       
	.uleb128 Ltmp385-Lfunc_begin11  
	.uleb128 Ltmp386-Ltmp385        
	.uleb128 Ltmp387-Lfunc_begin11  
	.byte	1                       
	.uleb128 Ltmp388-Lfunc_begin11  
	.uleb128 Ltmp389-Ltmp388        
	.uleb128 Ltmp390-Lfunc_begin11  
	.byte	1                       
	.uleb128 Ltmp391-Lfunc_begin11  
	.uleb128 Ltmp392-Ltmp391        
	.uleb128 Ltmp393-Lfunc_begin11  
	.byte	1                       
	.uleb128 Ltmp394-Lfunc_begin11  
	.uleb128 Ltmp395-Ltmp394        
	.uleb128 Ltmp396-Lfunc_begin11  
	.byte	1                       
	.uleb128 Ltmp395-Lfunc_begin11  
	.uleb128 Ltmp305-Ltmp395        
	.byte	0                       
	.byte	0                       
	.uleb128 Ltmp305-Lfunc_begin11  
	.uleb128 Ltmp306-Ltmp305        
	.uleb128 Ltmp307-Lfunc_begin11  
	.byte	0                       
	.uleb128 Ltmp308-Lfunc_begin11  
	.uleb128 Ltmp309-Ltmp308        
	.uleb128 Ltmp328-Lfunc_begin11  
	.byte	0                       
	.uleb128 Ltmp309-Lfunc_begin11  
	.uleb128 Ltmp329-Ltmp309        
	.byte	0                       
	.byte	0                       
	.uleb128 Ltmp329-Lfunc_begin11  
	.uleb128 Ltmp330-Ltmp329        
	.uleb128 Ltmp331-Lfunc_begin11  
	.byte	1                       
	.uleb128 Ltmp330-Lfunc_begin11  
	.uleb128 Ltmp332-Ltmp330        
	.byte	0                       
	.byte	0                       
	.uleb128 Ltmp332-Lfunc_begin11  
	.uleb128 Ltmp333-Ltmp332        
	.uleb128 Ltmp334-Lfunc_begin11  
	.byte	1                       
	.uleb128 Ltmp349-Lfunc_begin11  
	.uleb128 Ltmp350-Ltmp349        
	.uleb128 Ltmp351-Lfunc_begin11  
	.byte	1                       
	.uleb128 Ltmp352-Lfunc_begin11  
	.uleb128 Ltmp353-Ltmp352        
	.uleb128 Ltmp354-Lfunc_begin11  
	.byte	1                       
	.uleb128 Ltmp355-Lfunc_begin11  
	.uleb128 Ltmp356-Ltmp355        
	.uleb128 Ltmp357-Lfunc_begin11  
	.byte	1                       
	.uleb128 Ltmp358-Lfunc_begin11  
	.uleb128 Ltmp359-Ltmp358        
	.uleb128 Ltmp360-Lfunc_begin11  
	.byte	1                       
	.uleb128 Ltmp361-Lfunc_begin11  
	.uleb128 Ltmp362-Ltmp361        
	.uleb128 Ltmp363-Lfunc_begin11  
	.byte	1                       
	.uleb128 Ltmp364-Lfunc_begin11  
	.uleb128 Ltmp365-Ltmp364        
	.uleb128 Ltmp366-Lfunc_begin11  
	.byte	1                       
	.uleb128 Ltmp367-Lfunc_begin11  
	.uleb128 Ltmp368-Ltmp367        
	.uleb128 Ltmp369-Lfunc_begin11  
	.byte	1                       
	.uleb128 Ltmp370-Lfunc_begin11  
	.uleb128 Ltmp371-Ltmp370        
	.uleb128 Ltmp372-Lfunc_begin11  
	.byte	1                       
	.uleb128 Ltmp371-Lfunc_begin11  
	.uleb128 Lfunc_end11-Ltmp371    
	.byte	0                       
	.byte	0                       
Lcst_end11:
	.byte	1                       
                                        
	.byte	0                       
	.p2align	2
                                        
	.long	0                       
Lttbase7:
	.p2align	2
                                        
	.section	__TEXT,__text,regular,pure_instructions
	.globl	__ZN5Botan14RSA_PrivateKeyC2ERKNS_6BigIntES3_S3_S3_S3_ 
	.p2align	4, 0x90
__ZN5Botan14RSA_PrivateKeyC2ERKNS_6BigIntES3_S3_S3_S3_: 
Lfunc_begin12:
	.cfi_startproc
	.cfi_personality 155, ___gxx_personality_v0
	.cfi_lsda 16, Lexception12

	push	rbp
	.cfi_def_cfa_offset 16
	.cfi_offset rbp, -16
	mov	rbp, rsp
	.cfi_def_cfa_register rbp
	push	r15
	push	r14
	push	r13
	push	r12
	push	rbx
	sub	rsp, 440
	.cfi_offset rbx, -56
	.cfi_offset r12, -48
	.cfi_offset r13, -40
	.cfi_offset r14, -32
	.cfi_offset r15, -24
	mov	r15, r9
	mov	r13, r8
	mov	rbx, rcx
	mov	r14, rdx
	mov	r12, rdi
	mov	rax, qword ptr [rsi + 8]
	mov	qword ptr [rdi], rax
	mov	rcx, qword ptr [rsi + 16]
	mov	rax, qword ptr [rax - 136]
	mov	qword ptr [rdi + rax], rcx
	mov	rax, qword ptr [rsi + 24]
	mov	qword ptr [rdi + 8], rax
	mov	rcx, qword ptr [rsi + 32]
	mov	rax, qword ptr [rax - 136]
	mov	qword ptr [rdi + rax + 8], rcx
	mov	qword ptr [rdi + 24], 0
	mov	qword ptr [rdi + 16], 0
	mov	rax, qword ptr [rsi]
	mov	qword ptr [rdi], rax
	mov	rcx, qword ptr [rsi + 40]
	mov	rax, qword ptr [rax - 136]
	mov	qword ptr [rdi + rax], rcx
	mov	qword ptr [rbp - 384], rsi 
	mov	rax, qword ptr [rsi + 48]
	mov	qword ptr [rdi + 8], rax
	mov	qword ptr [rdi + 32], 0
	mov	qword ptr [rdi + 40], 0
Ltmp397:
	lea	rdi, [rbp - 336]
	mov	rsi, rdx
	call	__ZNSt3__16vectorIyN5Botan16secure_allocatorIyEEEC2ERKS4_
Ltmp398:

	mov	rax, qword ptr [r14 + 24]
	mov	qword ptr [rbp - 312], rax
	mov	eax, dword ptr [r14 + 32]
	mov	dword ptr [rbp - 304], eax
Ltmp400:
	lea	rdi, [rbp - 296]
	mov	rsi, rbx
	call	__ZNSt3__16vectorIyN5Botan16secure_allocatorIyEEEC2ERKS4_
Ltmp401:

	mov	r14, qword ptr [rbp + 16]
	mov	rax, qword ptr [rbx + 24]
	mov	qword ptr [rbp - 272], rax
	mov	eax, dword ptr [rbx + 32]
	mov	dword ptr [rbp - 264], eax
Ltmp403:
	lea	rdi, [rbp - 176]
	mov	rsi, r14
	call	__ZNSt3__16vectorIyN5Botan16secure_allocatorIyEEEC2ERKS4_
Ltmp404:

	mov	rax, qword ptr [r14 + 24]
	mov	qword ptr [rbp - 152], rax
	mov	ecx, dword ptr [r14 + 32]
	mov	dword ptr [rbp - 144], ecx
	cmp	rax, -1
	je	LBB30_4

	test	rax, rax
	jne	LBB30_10
	jmp	LBB30_7
LBB30_4:
Ltmp406:
	lea	rdi, [rbp - 176]
	call	__ZNK5Botan6BigInt4Data14calc_sig_wordsEv
Ltmp407:

	mov	qword ptr [rbp - 152], rax
	test	rax, rax
	jne	LBB30_10
LBB30_7:
Ltmp409:
	lea	rdi, [rbp - 128]
	lea	rsi, [rbp - 336]
	lea	rdx, [rbp - 296]
	call	__ZN5BotanmlERKNS_6BigIntES2_
Ltmp410:

	movaps	xmm1, xmmword ptr [rbp - 128]
	movaps	xmm2, xmmword ptr [rbp - 112]
	movdqa	xmm3, xmmword ptr [rbp - 176]
	movdqa	xmm0, xmmword ptr [rbp - 160]
	movaps	xmmword ptr [rbp - 176], xmm1
	movdqa	xmmword ptr [rbp - 128], xmm3
	movaps	xmmword ptr [rbp - 160], xmm2
	movdqa	xmmword ptr [rbp - 112], xmm0
	mov	eax, dword ptr [rbp - 144]
	mov	ecx, dword ptr [rbp - 96]
	mov	dword ptr [rbp - 144], ecx
	mov	dword ptr [rbp - 96], eax
	movq	rdi, xmm3
	test	rdi, rdi
	je	LBB30_10

	mov	qword ptr [rbp - 120], rdi
	movq	rsi, xmm0
	sub	rsi, rdi
	sar	rsi, 3
Ltmp412:
	mov	edx, 8
	call	__ZN5Botan17deallocate_memoryEPvmm
Ltmp413:
LBB30_10:
Ltmp415:
	lea	rdi, [rbp - 128]
	mov	rsi, r13
	call	__ZNSt3__16vectorIyN5Botan16secure_allocatorIyEEEC2ERKS4_
Ltmp416:

	mov	rax, qword ptr [r13 + 24]
	mov	qword ptr [rbp - 104], rax
	mov	eax, dword ptr [r13 + 32]
	mov	dword ptr [rbp - 96], eax
Ltmp418:
	lea	rdi, [rbp - 80]
	mov	rsi, r15
	call	__ZNSt3__16vectorIyN5Botan16secure_allocatorIyEEEC2ERKS4_
Ltmp419:

	mov	rax, qword ptr [r15 + 24]
	mov	qword ptr [rbp - 56], rax
	mov	eax, dword ptr [r15 + 32]
	mov	dword ptr [rbp - 48], eax
	mov	qword ptr [rbp - 376], 1
Ltmp421:
	lea	rdi, [rbp - 424]
	lea	rsi, [rbp - 336]
	lea	rdx, [rbp - 376]
	mov	ecx, 1
	xor	r8d, r8d
	call	__ZN5Botan6BigInt4add2ERKS0_PKymNS0_4SignE
Ltmp422:

	mov	qword ptr [rbp - 216], 1
Ltmp424:
	lea	rdi, [rbp - 376]
	lea	rsi, [rbp - 296]
	lea	rdx, [rbp - 216]
	mov	ecx, 1
	xor	r8d, r8d
	call	__ZN5Botan6BigInt4add2ERKS0_PKymNS0_4SignE
Ltmp425:

	mov	rax, qword ptr [rbp - 56]
	cmp	rax, -1
	je	LBB30_15

	test	rax, rax
	jne	LBB30_24
	jmp	LBB30_18
LBB30_15:
Ltmp427:
	lea	rdi, [rbp - 80]
	call	__ZNK5Botan6BigInt4Data14calc_sig_wordsEv
Ltmp428:

	mov	qword ptr [rbp - 56], rax
	test	rax, rax
	jne	LBB30_24
LBB30_18:
Ltmp430:
	lea	rdi, [rbp - 216]
	lea	rsi, [rbp - 424]
	lea	rdx, [rbp - 376]
	call	__ZN5Botan3lcmERKNS_6BigIntES2_
Ltmp431:

Ltmp433:
	lea	rdi, [rbp - 256]
	lea	rsi, [rbp - 128]
	lea	rdx, [rbp - 216]
	call	__ZN5Botan11inverse_modERKNS_6BigIntES2_
Ltmp434:

	movaps	xmm1, xmmword ptr [rbp - 256]
	movaps	xmm2, xmmword ptr [rbp - 240]
	movdqa	xmm3, xmmword ptr [rbp - 80]
	movdqa	xmm0, xmmword ptr [rbp - 64]
	movaps	xmmword ptr [rbp - 80], xmm1
	movdqa	xmmword ptr [rbp - 256], xmm3
	movaps	xmmword ptr [rbp - 64], xmm2
	movdqa	xmmword ptr [rbp - 240], xmm0
	mov	eax, dword ptr [rbp - 48]
	mov	ecx, dword ptr [rbp - 224]
	mov	dword ptr [rbp - 48], ecx
	mov	dword ptr [rbp - 224], eax
	movq	rdi, xmm3
	test	rdi, rdi
	je	LBB30_22

	mov	qword ptr [rbp - 248], rdi
	movq	rsi, xmm0
	sub	rsi, rdi
	sar	rsi, 3
Ltmp439:
	mov	edx, 8
	call	__ZN5Botan17deallocate_memoryEPvmm
Ltmp440:
LBB30_22:
	mov	rdi, qword ptr [rbp - 216]
	test	rdi, rdi
	je	LBB30_24

	mov	qword ptr [rbp - 208], rdi
	mov	rsi, qword ptr [rbp - 200]
	sub	rsi, rdi
	sar	rsi, 3
Ltmp442:
	mov	edx, 8
	call	__ZN5Botan17deallocate_memoryEPvmm
Ltmp443:
LBB30_24:
Ltmp445:
	lea	rdi, [rbp - 216]
	lea	rsi, [rbp - 80]
	lea	rdx, [rbp - 424]
	call	__ZN5Botan9ct_moduloERKNS_6BigIntES2_
Ltmp446:

Ltmp448:
	lea	rdi, [rbp - 256]
	lea	rsi, [rbp - 80]
	lea	rdx, [rbp - 376]
	call	__ZN5Botan9ct_moduloERKNS_6BigIntES2_
Ltmp449:

Ltmp451:
	lea	r15, [rbp - 464]
	lea	rsi, [rbp - 296]
	lea	rdx, [rbp - 336]
	mov	rdi, r15
	call	__ZN5Botan11inverse_modERKNS_6BigIntES2_
Ltmp452:

	lea	rdi, [r12 + 8]
Ltmp454:
	lea	rsi, [rbp - 176]
	lea	rdx, [rbp - 128]
	call	__ZN5Botan13RSA_PublicKey4initEONS_6BigIntES2_
Ltmp455:

Ltmp456:
	mov	edi, 488
	call	__Znwm
Ltmp457:

	mov	r14, rax
	mov	qword ptr [rax + 16], 0
	mov	qword ptr [rax + 8], 0
	mov	rax, qword ptr [rip + __ZTVNSt3__120__shared_ptr_emplaceIN5Botan16RSA_Private_DataENS_9allocatorIS2_EEEE@GOTPCREL]
	add	rax, 16
	mov	qword ptr [r14], rax
	mov	rbx, r14
	add	rbx, 24
Ltmp459:
	mov	qword ptr [rsp], r15
	lea	rsi, [rbp - 80]
	lea	rdx, [rbp - 336]
	lea	rcx, [rbp - 296]
	lea	r8, [rbp - 216]
	lea	r9, [rbp - 256]
	mov	rdi, rbx
	call	__ZN5Botan16RSA_Private_DataC2EONS_6BigIntES2_S2_S2_S2_S2_
Ltmp460:

	mov	qword ptr [r12 + 32], rbx
	mov	rbx, qword ptr [r12 + 40]
	mov	qword ptr [r12 + 40], r14
	test	rbx, rbx
	je	LBB30_33

	mov	rax, -1
	lock		xadd	qword ptr [rbx + 8], rax
	test	rax, rax
	jne	LBB30_33

	mov	rax, qword ptr [rbx]
	mov	rdi, rbx
	call	qword ptr [rax + 16]
	mov	rdi, rbx
	call	__ZNSt3__119__shared_weak_count14__release_weakEv
LBB30_33:
	mov	rdi, qword ptr [rbp - 464]
	test	rdi, rdi
	je	LBB30_35

	mov	qword ptr [rbp - 456], rdi
	mov	rsi, qword ptr [rbp - 448]
	sub	rsi, rdi
	sar	rsi, 3
Ltmp492:
	mov	edx, 8
	call	__ZN5Botan17deallocate_memoryEPvmm
Ltmp493:
LBB30_35:
	mov	rdi, qword ptr [rbp - 256]
	test	rdi, rdi
	je	LBB30_37

	mov	qword ptr [rbp - 248], rdi
	mov	rsi, qword ptr [rbp - 240]
	sub	rsi, rdi
	sar	rsi, 3
Ltmp495:
	mov	edx, 8
	call	__ZN5Botan17deallocate_memoryEPvmm
Ltmp496:
LBB30_37:
	mov	rdi, qword ptr [rbp - 216]
	test	rdi, rdi
	je	LBB30_39

	mov	qword ptr [rbp - 208], rdi
	mov	rsi, qword ptr [rbp - 200]
	sub	rsi, rdi
	sar	rsi, 3
Ltmp498:
	mov	edx, 8
	call	__ZN5Botan17deallocate_memoryEPvmm
Ltmp499:
LBB30_39:
	mov	rdi, qword ptr [rbp - 376]
	test	rdi, rdi
	je	LBB30_41

	mov	qword ptr [rbp - 368], rdi
	mov	rsi, qword ptr [rbp - 360]
	sub	rsi, rdi
	sar	rsi, 3
Ltmp501:
	mov	edx, 8
	call	__ZN5Botan17deallocate_memoryEPvmm
Ltmp502:
LBB30_41:
	mov	rdi, qword ptr [rbp - 424]
	test	rdi, rdi
	je	LBB30_43

	mov	qword ptr [rbp - 416], rdi
	mov	rsi, qword ptr [rbp - 408]
	sub	rsi, rdi
	sar	rsi, 3
Ltmp504:
	mov	edx, 8
	call	__ZN5Botan17deallocate_memoryEPvmm
Ltmp505:
LBB30_43:
	mov	rdi, qword ptr [rbp - 80]
	test	rdi, rdi
	je	LBB30_45

	mov	qword ptr [rbp - 72], rdi
	mov	rsi, qword ptr [rbp - 64]
	sub	rsi, rdi
	sar	rsi, 3
Ltmp507:
	mov	edx, 8
	call	__ZN5Botan17deallocate_memoryEPvmm
Ltmp508:
LBB30_45:
	mov	rdi, qword ptr [rbp - 128]
	test	rdi, rdi
	je	LBB30_47

	mov	qword ptr [rbp - 120], rdi
	mov	rsi, qword ptr [rbp - 112]
	sub	rsi, rdi
	sar	rsi, 3
Ltmp510:
	mov	edx, 8
	call	__ZN5Botan17deallocate_memoryEPvmm
Ltmp511:
LBB30_47:
	mov	rdi, qword ptr [rbp - 176]
	test	rdi, rdi
	je	LBB30_49

	mov	qword ptr [rbp - 168], rdi
	mov	rsi, qword ptr [rbp - 160]
	sub	rsi, rdi
	sar	rsi, 3
Ltmp513:
	mov	edx, 8
	call	__ZN5Botan17deallocate_memoryEPvmm
Ltmp514:
LBB30_49:
	mov	rdi, qword ptr [rbp - 296]
	test	rdi, rdi
	je	LBB30_51

	mov	qword ptr [rbp - 288], rdi
	mov	rsi, qword ptr [rbp - 280]
	sub	rsi, rdi
	sar	rsi, 3
Ltmp516:
	mov	edx, 8
	call	__ZN5Botan17deallocate_memoryEPvmm
Ltmp517:
LBB30_51:
	mov	rdi, qword ptr [rbp - 336]
	test	rdi, rdi
	je	LBB30_53

	mov	qword ptr [rbp - 328], rdi
	mov	rsi, qword ptr [rbp - 320]
	sub	rsi, rdi
	sar	rsi, 3
Ltmp519:
	mov	edx, 8
	call	__ZN5Botan17deallocate_memoryEPvmm
Ltmp520:
LBB30_53:
	add	rsp, 440
	pop	rbx
	pop	r12
	pop	r13
	pop	r14
	pop	r15
	pop	rbp
	ret
LBB30_57:
Ltmp444:
	mov	rdi, rax
	call	___clang_call_terminate
LBB30_56:
Ltmp441:
	mov	rdi, rax
	call	___clang_call_terminate
LBB30_124:
Ltmp414:
	mov	rdi, rax
	call	___clang_call_terminate
LBB30_59:
Ltmp435:
	mov	r15, rax
	mov	rdi, qword ptr [rbp - 216]
	test	rdi, rdi
	je	LBB30_88

	mov	qword ptr [rbp - 208], rdi
	mov	rsi, qword ptr [rbp - 200]
	sub	rsi, rdi
	sar	rsi, 3
Ltmp436:
	mov	edx, 8
	call	__ZN5Botan17deallocate_memoryEPvmm
Ltmp437:
	jmp	LBB30_88
LBB30_61:
Ltmp438:
	mov	rdi, rax
	call	___clang_call_terminate
LBB30_62:
Ltmp432:
	jmp	LBB30_87
LBB30_58:
Ltmp429:
	jmp	LBB30_87
LBB30_55:
Ltmp411:
	jmp	LBB30_104
LBB30_54:
Ltmp408:
	jmp	LBB30_104
LBB30_73:
Ltmp521:
	mov	rdi, rax
	call	___clang_call_terminate
LBB30_72:
Ltmp518:
	mov	rdi, rax
	call	___clang_call_terminate
LBB30_71:
Ltmp515:
	mov	rdi, rax
	call	___clang_call_terminate
LBB30_70:
Ltmp512:
	mov	rdi, rax
	call	___clang_call_terminate
LBB30_69:
Ltmp509:
	mov	rdi, rax
	call	___clang_call_terminate
LBB30_68:
Ltmp506:
	mov	rdi, rax
	call	___clang_call_terminate
LBB30_67:
Ltmp503:
	mov	rdi, rax
	call	___clang_call_terminate
LBB30_66:
Ltmp500:
	mov	rdi, rax
	call	___clang_call_terminate
LBB30_65:
Ltmp497:
	mov	rdi, rax
	call	___clang_call_terminate
LBB30_64:
Ltmp494:
	mov	rdi, rax
	call	___clang_call_terminate
LBB30_63:
Ltmp461:
	mov	r15, rax
	mov	rdi, r14
	call	__ZNSt3__119__shared_weak_countD2Ev
	mov	rdi, r14
	call	__ZdlPv
	jmp	LBB30_75
LBB30_78:
Ltmp453:
	mov	r15, rax
	jmp	LBB30_79
LBB30_82:
Ltmp450:
	mov	r15, rax
	jmp	LBB30_83
LBB30_86:
Ltmp447:
LBB30_87:
	mov	r15, rax
	jmp	LBB30_88
LBB30_91:
Ltmp426:
	mov	r15, rax
	jmp	LBB30_92
LBB30_95:
Ltmp423:
	mov	r15, rax
	jmp	LBB30_96
LBB30_99:
Ltmp420:
	mov	r15, rax
	jmp	LBB30_100
LBB30_103:
Ltmp417:
LBB30_104:
	mov	r15, rax
	jmp	LBB30_105
LBB30_108:
Ltmp405:
	mov	r15, rax
	jmp	LBB30_109
LBB30_112:
Ltmp402:
	mov	r15, rax
	jmp	LBB30_113
LBB30_116:
Ltmp399:
	mov	r15, rax
	jmp	LBB30_117
LBB30_74:
Ltmp458:
	mov	r15, rax
LBB30_75:
	mov	rdi, qword ptr [rbp - 464]
	test	rdi, rdi
	je	LBB30_79

	mov	qword ptr [rbp - 456], rdi
	mov	rsi, qword ptr [rbp - 448]
	sub	rsi, rdi
	sar	rsi, 3
Ltmp462:
	mov	edx, 8
	call	__ZN5Botan17deallocate_memoryEPvmm
Ltmp463:
LBB30_79:
	mov	rdi, qword ptr [rbp - 256]
	test	rdi, rdi
	je	LBB30_83

	mov	qword ptr [rbp - 248], rdi
	mov	rsi, qword ptr [rbp - 240]
	sub	rsi, rdi
	sar	rsi, 3
Ltmp465:
	mov	edx, 8
	call	__ZN5Botan17deallocate_memoryEPvmm
Ltmp466:
LBB30_83:
	mov	rdi, qword ptr [rbp - 216]
	test	rdi, rdi
	je	LBB30_88

	mov	qword ptr [rbp - 208], rdi
	mov	rsi, qword ptr [rbp - 200]
	sub	rsi, rdi
	sar	rsi, 3
Ltmp468:
	mov	edx, 8
	call	__ZN5Botan17deallocate_memoryEPvmm
Ltmp469:
LBB30_88:
	mov	rdi, qword ptr [rbp - 376]
	test	rdi, rdi
	je	LBB30_92

	mov	qword ptr [rbp - 368], rdi
	mov	rsi, qword ptr [rbp - 360]
	sub	rsi, rdi
	sar	rsi, 3
Ltmp471:
	mov	edx, 8
	call	__ZN5Botan17deallocate_memoryEPvmm
Ltmp472:
LBB30_92:
	mov	rdi, qword ptr [rbp - 424]
	test	rdi, rdi
	je	LBB30_96

	mov	qword ptr [rbp - 416], rdi
	mov	rsi, qword ptr [rbp - 408]
	sub	rsi, rdi
	sar	rsi, 3
Ltmp474:
	mov	edx, 8
	call	__ZN5Botan17deallocate_memoryEPvmm
Ltmp475:
LBB30_96:
	mov	rdi, qword ptr [rbp - 80]
	test	rdi, rdi
	je	LBB30_100

	mov	qword ptr [rbp - 72], rdi
	mov	rsi, qword ptr [rbp - 64]
	sub	rsi, rdi
	sar	rsi, 3
Ltmp477:
	mov	edx, 8
	call	__ZN5Botan17deallocate_memoryEPvmm
Ltmp478:
LBB30_100:
	mov	rdi, qword ptr [rbp - 128]
	test	rdi, rdi
	je	LBB30_105

	mov	qword ptr [rbp - 120], rdi
	mov	rsi, qword ptr [rbp - 112]
	sub	rsi, rdi
	sar	rsi, 3
Ltmp480:
	mov	edx, 8
	call	__ZN5Botan17deallocate_memoryEPvmm
Ltmp481:
LBB30_105:
	mov	rdi, qword ptr [rbp - 176]
	test	rdi, rdi
	je	LBB30_109

	mov	qword ptr [rbp - 168], rdi
	mov	rsi, qword ptr [rbp - 160]
	sub	rsi, rdi
	sar	rsi, 3
Ltmp483:
	mov	edx, 8
	call	__ZN5Botan17deallocate_memoryEPvmm
Ltmp484:
LBB30_109:
	mov	rdi, qword ptr [rbp - 296]
	test	rdi, rdi
	je	LBB30_113

	mov	qword ptr [rbp - 288], rdi
	mov	rsi, qword ptr [rbp - 280]
	sub	rsi, rdi
	sar	rsi, 3
Ltmp486:
	mov	edx, 8
	call	__ZN5Botan17deallocate_memoryEPvmm
Ltmp487:
LBB30_113:
	mov	rdi, qword ptr [rbp - 336]
	test	rdi, rdi
	je	LBB30_117

	mov	qword ptr [rbp - 328], rdi
	mov	rsi, qword ptr [rbp - 320]
	sub	rsi, rdi
	sar	rsi, 3
Ltmp489:
	mov	edx, 8
	call	__ZN5Botan17deallocate_memoryEPvmm
Ltmp490:
LBB30_117:
	mov	rbx, qword ptr [r12 + 40]
	test	rbx, rbx
	je	LBB30_120

	mov	rax, -1
	lock		xadd	qword ptr [rbx + 8], rax
	test	rax, rax
	jne	LBB30_120

	mov	rax, qword ptr [rbx]
	mov	rdi, rbx
	call	qword ptr [rax + 16]
	mov	rdi, rbx
	call	__ZNSt3__119__shared_weak_count14__release_weakEv
LBB30_120:
	mov	rcx, qword ptr [rbp - 384] 
	mov	rax, qword ptr [rcx + 24]
	mov	qword ptr [r12 + 8], rax
	mov	rcx, qword ptr [rcx + 32]
	mov	rax, qword ptr [rax - 136]
	mov	qword ptr [r12 + rax + 8], rcx
	mov	rbx, qword ptr [r12 + 24]
	test	rbx, rbx
	je	LBB30_123

	mov	rax, -1
	lock		xadd	qword ptr [rbx + 8], rax
	test	rax, rax
	jne	LBB30_123

	mov	rax, qword ptr [rbx]
	mov	rdi, rbx
	call	qword ptr [rax + 16]
	mov	rdi, rbx
	call	__ZNSt3__119__shared_weak_count14__release_weakEv
LBB30_123:
	mov	rdi, r15
	call	__Unwind_Resume
	ud2
LBB30_77:
Ltmp464:
	mov	rdi, rax
	call	___clang_call_terminate
LBB30_81:
Ltmp467:
	mov	rdi, rax
	call	___clang_call_terminate
LBB30_85:
Ltmp470:
	mov	rdi, rax
	call	___clang_call_terminate
LBB30_90:
Ltmp473:
	mov	rdi, rax
	call	___clang_call_terminate
LBB30_94:
Ltmp476:
	mov	rdi, rax
	call	___clang_call_terminate
LBB30_98:
Ltmp479:
	mov	rdi, rax
	call	___clang_call_terminate
LBB30_102:
Ltmp482:
	mov	rdi, rax
	call	___clang_call_terminate
LBB30_107:
Ltmp485:
	mov	rdi, rax
	call	___clang_call_terminate
LBB30_111:
Ltmp488:
	mov	rdi, rax
	call	___clang_call_terminate
LBB30_115:
Ltmp491:
	mov	rdi, rax
	call	___clang_call_terminate
Lfunc_end12:
	.cfi_endproc
	.section	__TEXT,__gcc_except_tab
	.p2align	2
GCC_except_table30:
Lexception12:
	.byte	255                     
	.byte	155                     
	.uleb128 Lttbase8-Lttbaseref8
Lttbaseref8:
	.byte	1                       
	.uleb128 Lcst_end12-Lcst_begin12
Lcst_begin12:
	.uleb128 Ltmp397-Lfunc_begin12  
	.uleb128 Ltmp398-Ltmp397        
	.uleb128 Ltmp399-Lfunc_begin12  
	.byte	0                       
	.uleb128 Ltmp400-Lfunc_begin12  
	.uleb128 Ltmp401-Ltmp400        
	.uleb128 Ltmp402-Lfunc_begin12  
	.byte	0                       
	.uleb128 Ltmp403-Lfunc_begin12  
	.uleb128 Ltmp404-Ltmp403        
	.uleb128 Ltmp405-Lfunc_begin12  
	.byte	0                       
	.uleb128 Ltmp406-Lfunc_begin12  
	.uleb128 Ltmp407-Ltmp406        
	.uleb128 Ltmp408-Lfunc_begin12  
	.byte	0                       
	.uleb128 Ltmp409-Lfunc_begin12  
	.uleb128 Ltmp410-Ltmp409        
	.uleb128 Ltmp411-Lfunc_begin12  
	.byte	0                       
	.uleb128 Ltmp412-Lfunc_begin12  
	.uleb128 Ltmp413-Ltmp412        
	.uleb128 Ltmp414-Lfunc_begin12  
	.byte	1                       
	.uleb128 Ltmp415-Lfunc_begin12  
	.uleb128 Ltmp416-Ltmp415        
	.uleb128 Ltmp417-Lfunc_begin12  
	.byte	0                       
	.uleb128 Ltmp418-Lfunc_begin12  
	.uleb128 Ltmp419-Ltmp418        
	.uleb128 Ltmp420-Lfunc_begin12  
	.byte	0                       
	.uleb128 Ltmp421-Lfunc_begin12  
	.uleb128 Ltmp422-Ltmp421        
	.uleb128 Ltmp423-Lfunc_begin12  
	.byte	0                       
	.uleb128 Ltmp424-Lfunc_begin12  
	.uleb128 Ltmp425-Ltmp424        
	.uleb128 Ltmp426-Lfunc_begin12  
	.byte	0                       
	.uleb128 Ltmp427-Lfunc_begin12  
	.uleb128 Ltmp428-Ltmp427        
	.uleb128 Ltmp429-Lfunc_begin12  
	.byte	0                       
	.uleb128 Ltmp430-Lfunc_begin12  
	.uleb128 Ltmp431-Ltmp430        
	.uleb128 Ltmp432-Lfunc_begin12  
	.byte	0                       
	.uleb128 Ltmp433-Lfunc_begin12  
	.uleb128 Ltmp434-Ltmp433        
	.uleb128 Ltmp435-Lfunc_begin12  
	.byte	0                       
	.uleb128 Ltmp439-Lfunc_begin12  
	.uleb128 Ltmp440-Ltmp439        
	.uleb128 Ltmp441-Lfunc_begin12  
	.byte	1                       
	.uleb128 Ltmp442-Lfunc_begin12  
	.uleb128 Ltmp443-Ltmp442        
	.uleb128 Ltmp444-Lfunc_begin12  
	.byte	1                       
	.uleb128 Ltmp445-Lfunc_begin12  
	.uleb128 Ltmp446-Ltmp445        
	.uleb128 Ltmp447-Lfunc_begin12  
	.byte	0                       
	.uleb128 Ltmp448-Lfunc_begin12  
	.uleb128 Ltmp449-Ltmp448        
	.uleb128 Ltmp450-Lfunc_begin12  
	.byte	0                       
	.uleb128 Ltmp451-Lfunc_begin12  
	.uleb128 Ltmp452-Ltmp451        
	.uleb128 Ltmp453-Lfunc_begin12  
	.byte	0                       
	.uleb128 Ltmp454-Lfunc_begin12  
	.uleb128 Ltmp457-Ltmp454        
	.uleb128 Ltmp458-Lfunc_begin12  
	.byte	0                       
	.uleb128 Ltmp459-Lfunc_begin12  
	.uleb128 Ltmp460-Ltmp459        
	.uleb128 Ltmp461-Lfunc_begin12  
	.byte	0                       
	.uleb128 Ltmp460-Lfunc_begin12  
	.uleb128 Ltmp492-Ltmp460        
	.byte	0                       
	.byte	0                       
	.uleb128 Ltmp492-Lfunc_begin12  
	.uleb128 Ltmp493-Ltmp492        
	.uleb128 Ltmp494-Lfunc_begin12  
	.byte	1                       
	.uleb128 Ltmp495-Lfunc_begin12  
	.uleb128 Ltmp496-Ltmp495        
	.uleb128 Ltmp497-Lfunc_begin12  
	.byte	1                       
	.uleb128 Ltmp498-Lfunc_begin12  
	.uleb128 Ltmp499-Ltmp498        
	.uleb128 Ltmp500-Lfunc_begin12  
	.byte	1                       
	.uleb128 Ltmp501-Lfunc_begin12  
	.uleb128 Ltmp502-Ltmp501        
	.uleb128 Ltmp503-Lfunc_begin12  
	.byte	1                       
	.uleb128 Ltmp504-Lfunc_begin12  
	.uleb128 Ltmp505-Ltmp504        
	.uleb128 Ltmp506-Lfunc_begin12  
	.byte	1                       
	.uleb128 Ltmp507-Lfunc_begin12  
	.uleb128 Ltmp508-Ltmp507        
	.uleb128 Ltmp509-Lfunc_begin12  
	.byte	1                       
	.uleb128 Ltmp510-Lfunc_begin12  
	.uleb128 Ltmp511-Ltmp510        
	.uleb128 Ltmp512-Lfunc_begin12  
	.byte	1                       
	.uleb128 Ltmp513-Lfunc_begin12  
	.uleb128 Ltmp514-Ltmp513        
	.uleb128 Ltmp515-Lfunc_begin12  
	.byte	1                       
	.uleb128 Ltmp516-Lfunc_begin12  
	.uleb128 Ltmp517-Ltmp516        
	.uleb128 Ltmp518-Lfunc_begin12  
	.byte	1                       
	.uleb128 Ltmp519-Lfunc_begin12  
	.uleb128 Ltmp520-Ltmp519        
	.uleb128 Ltmp521-Lfunc_begin12  
	.byte	1                       
	.uleb128 Ltmp436-Lfunc_begin12  
	.uleb128 Ltmp437-Ltmp436        
	.uleb128 Ltmp438-Lfunc_begin12  
	.byte	1                       
	.uleb128 Ltmp462-Lfunc_begin12  
	.uleb128 Ltmp463-Ltmp462        
	.uleb128 Ltmp464-Lfunc_begin12  
	.byte	1                       
	.uleb128 Ltmp465-Lfunc_begin12  
	.uleb128 Ltmp466-Ltmp465        
	.uleb128 Ltmp467-Lfunc_begin12  
	.byte	1                       
	.uleb128 Ltmp468-Lfunc_begin12  
	.uleb128 Ltmp469-Ltmp468        
	.uleb128 Ltmp470-Lfunc_begin12  
	.byte	1                       
	.uleb128 Ltmp471-Lfunc_begin12  
	.uleb128 Ltmp472-Ltmp471        
	.uleb128 Ltmp473-Lfunc_begin12  
	.byte	1                       
	.uleb128 Ltmp474-Lfunc_begin12  
	.uleb128 Ltmp475-Ltmp474        
	.uleb128 Ltmp476-Lfunc_begin12  
	.byte	1                       
	.uleb128 Ltmp477-Lfunc_begin12  
	.uleb128 Ltmp478-Ltmp477        
	.uleb128 Ltmp479-Lfunc_begin12  
	.byte	1                       
	.uleb128 Ltmp480-Lfunc_begin12  
	.uleb128 Ltmp481-Ltmp480        
	.uleb128 Ltmp482-Lfunc_begin12  
	.byte	1                       
	.uleb128 Ltmp483-Lfunc_begin12  
	.uleb128 Ltmp484-Ltmp483        
	.uleb128 Ltmp485-Lfunc_begin12  
	.byte	1                       
	.uleb128 Ltmp486-Lfunc_begin12  
	.uleb128 Ltmp487-Ltmp486        
	.uleb128 Ltmp488-Lfunc_begin12  
	.byte	1                       
	.uleb128 Ltmp489-Lfunc_begin12  
	.uleb128 Ltmp490-Ltmp489        
	.uleb128 Ltmp491-Lfunc_begin12  
	.byte	1                       
	.uleb128 Ltmp490-Lfunc_begin12  
	.uleb128 Lfunc_end12-Ltmp490    
	.byte	0                       
	.byte	0                       
Lcst_end12:
	.byte	1                       
                                        
	.byte	0                       
	.p2align	2
                                        
	.long	0                       
Lttbase8:
	.p2align	2
                                        
	.section	__TEXT,__text,regular,pure_instructions
	.globl	__ZN5Botan14RSA_PrivateKeyC1ERKNS_6BigIntES3_S3_S3_S3_ 
	.p2align	4, 0x90
__ZN5Botan14RSA_PrivateKeyC1ERKNS_6BigIntES3_S3_S3_S3_: 
Lfunc_begin13:
	.cfi_startproc
	.cfi_personality 155, ___gxx_personality_v0
	.cfi_lsda 16, Lexception13

	push	rbp
	.cfi_def_cfa_offset 16
	.cfi_offset rbp, -16
	mov	rbp, rsp
	.cfi_def_cfa_register rbp
	push	r15
	push	r14
	push	r13
	push	r12
	push	rbx
	sub	rsp, 424
	.cfi_offset rbx, -56
	.cfi_offset r12, -48
	.cfi_offset r13, -40
	.cfi_offset r14, -32
	.cfi_offset r15, -24
	mov	r13, r9
	mov	r14, r8
	mov	r12, rcx
	mov	rbx, rdx
	mov	r15, rsi
	mov	qword ptr [rdi + 24], 0
	mov	qword ptr [rdi + 16], 0
	lea	rax, [rip + __ZTVN5Botan14RSA_PrivateKeyE+136]
	mov	qword ptr [rdi], rax
	lea	rax, [rip + __ZTVN5Botan14RSA_PrivateKeyE+456]
	mov	qword ptr [rdi + 8], rax
	mov	qword ptr [rdi + 32], 0
	mov	qword ptr [rbp - 88], rdi 
	mov	qword ptr [rdi + 40], 0
Ltmp522:
	lea	rdi, [rbp - 336]
	call	__ZNSt3__16vectorIyN5Botan16secure_allocatorIyEEEC2ERKS4_
Ltmp523:

	mov	rax, qword ptr [r15 + 24]
	mov	qword ptr [rbp - 312], rax
	mov	eax, dword ptr [r15 + 32]
	mov	dword ptr [rbp - 304], eax
Ltmp525:
	lea	rdi, [rbp - 296]
	mov	rsi, rbx
	call	__ZNSt3__16vectorIyN5Botan16secure_allocatorIyEEEC2ERKS4_
Ltmp526:

	mov	rax, qword ptr [rbx + 24]
	mov	qword ptr [rbp - 272], rax
	mov	eax, dword ptr [rbx + 32]
	mov	dword ptr [rbp - 264], eax
Ltmp528:
	lea	rdi, [rbp - 176]
	mov	rsi, r13
	call	__ZNSt3__16vectorIyN5Botan16secure_allocatorIyEEEC2ERKS4_
Ltmp529:

	mov	rax, qword ptr [r13 + 24]
	mov	qword ptr [rbp - 152], rax
	mov	ecx, dword ptr [r13 + 32]
	mov	dword ptr [rbp - 144], ecx
	cmp	rax, -1
	mov	r15, qword ptr [rbp - 88] 
	je	LBB31_4

	test	rax, rax
	jne	LBB31_10
	jmp	LBB31_7
LBB31_4:
Ltmp531:
	lea	rdi, [rbp - 176]
	call	__ZNK5Botan6BigInt4Data14calc_sig_wordsEv
Ltmp532:

	mov	qword ptr [rbp - 152], rax
	test	rax, rax
	jne	LBB31_10
LBB31_7:
Ltmp534:
	lea	rdi, [rbp - 128]
	lea	rsi, [rbp - 336]
	lea	rdx, [rbp - 296]
	call	__ZN5BotanmlERKNS_6BigIntES2_
Ltmp535:

	movaps	xmm1, xmmword ptr [rbp - 128]
	movaps	xmm2, xmmword ptr [rbp - 112]
	movdqa	xmm3, xmmword ptr [rbp - 176]
	movdqa	xmm0, xmmword ptr [rbp - 160]
	movaps	xmmword ptr [rbp - 176], xmm1
	movdqa	xmmword ptr [rbp - 128], xmm3
	movaps	xmmword ptr [rbp - 160], xmm2
	movdqa	xmmword ptr [rbp - 112], xmm0
	mov	eax, dword ptr [rbp - 144]
	mov	ecx, dword ptr [rbp - 96]
	mov	dword ptr [rbp - 144], ecx
	mov	dword ptr [rbp - 96], eax
	movq	rdi, xmm3
	test	rdi, rdi
	je	LBB31_10

	mov	qword ptr [rbp - 120], rdi
	movq	rsi, xmm0
	sub	rsi, rdi
	sar	rsi, 3
Ltmp537:
	mov	edx, 8
	call	__ZN5Botan17deallocate_memoryEPvmm
Ltmp538:
LBB31_10:
Ltmp540:
	lea	rdi, [rbp - 128]
	mov	rsi, r12
	call	__ZNSt3__16vectorIyN5Botan16secure_allocatorIyEEEC2ERKS4_
Ltmp541:

	mov	rax, qword ptr [r12 + 24]
	mov	qword ptr [rbp - 104], rax
	mov	eax, dword ptr [r12 + 32]
	mov	dword ptr [rbp - 96], eax
Ltmp543:
	lea	rdi, [rbp - 80]
	mov	rsi, r14
	call	__ZNSt3__16vectorIyN5Botan16secure_allocatorIyEEEC2ERKS4_
Ltmp544:

	mov	rax, qword ptr [r14 + 24]
	mov	qword ptr [rbp - 56], rax
	mov	eax, dword ptr [r14 + 32]
	mov	dword ptr [rbp - 48], eax
	mov	qword ptr [rbp - 376], 1
Ltmp546:
	lea	rdi, [rbp - 416]
	lea	rsi, [rbp - 336]
	lea	rdx, [rbp - 376]
	mov	ecx, 1
	xor	r8d, r8d
	call	__ZN5Botan6BigInt4add2ERKS0_PKymNS0_4SignE
Ltmp547:

	mov	qword ptr [rbp - 216], 1
Ltmp549:
	lea	rdi, [rbp - 376]
	lea	rsi, [rbp - 296]
	lea	rdx, [rbp - 216]
	mov	ecx, 1
	xor	r8d, r8d
	call	__ZN5Botan6BigInt4add2ERKS0_PKymNS0_4SignE
Ltmp550:

	mov	rax, qword ptr [rbp - 56]
	cmp	rax, -1
	je	LBB31_15

	test	rax, rax
	jne	LBB31_24
	jmp	LBB31_18
LBB31_15:
Ltmp552:
	lea	rdi, [rbp - 80]
	call	__ZNK5Botan6BigInt4Data14calc_sig_wordsEv
Ltmp553:

	mov	qword ptr [rbp - 56], rax
	test	rax, rax
	jne	LBB31_24
LBB31_18:
Ltmp555:
	lea	rdi, [rbp - 216]
	lea	rsi, [rbp - 416]
	lea	rdx, [rbp - 376]
	call	__ZN5Botan3lcmERKNS_6BigIntES2_
Ltmp556:

Ltmp558:
	lea	rdi, [rbp - 256]
	lea	rsi, [rbp - 128]
	lea	rdx, [rbp - 216]
	call	__ZN5Botan11inverse_modERKNS_6BigIntES2_
Ltmp559:

	movaps	xmm1, xmmword ptr [rbp - 256]
	movaps	xmm2, xmmword ptr [rbp - 240]
	movdqa	xmm3, xmmword ptr [rbp - 80]
	movdqa	xmm0, xmmword ptr [rbp - 64]
	movaps	xmmword ptr [rbp - 80], xmm1
	movdqa	xmmword ptr [rbp - 256], xmm3
	movaps	xmmword ptr [rbp - 64], xmm2
	movdqa	xmmword ptr [rbp - 240], xmm0
	mov	eax, dword ptr [rbp - 48]
	mov	ecx, dword ptr [rbp - 224]
	mov	dword ptr [rbp - 48], ecx
	mov	dword ptr [rbp - 224], eax
	movq	rdi, xmm3
	test	rdi, rdi
	je	LBB31_22

	mov	qword ptr [rbp - 248], rdi
	movq	rsi, xmm0
	sub	rsi, rdi
	sar	rsi, 3
Ltmp564:
	mov	edx, 8
	call	__ZN5Botan17deallocate_memoryEPvmm
Ltmp565:
LBB31_22:
	mov	rdi, qword ptr [rbp - 216]
	test	rdi, rdi
	je	LBB31_24

	mov	qword ptr [rbp - 208], rdi
	mov	rsi, qword ptr [rbp - 200]
	sub	rsi, rdi
	sar	rsi, 3
Ltmp567:
	mov	edx, 8
	call	__ZN5Botan17deallocate_memoryEPvmm
Ltmp568:
LBB31_24:
Ltmp570:
	lea	rdi, [rbp - 216]
	lea	rsi, [rbp - 80]
	lea	rdx, [rbp - 416]
	call	__ZN5Botan9ct_moduloERKNS_6BigIntES2_
Ltmp571:

Ltmp573:
	lea	rdi, [rbp - 256]
	lea	rsi, [rbp - 80]
	lea	rdx, [rbp - 376]
	call	__ZN5Botan9ct_moduloERKNS_6BigIntES2_
Ltmp574:

Ltmp576:
	lea	r14, [rbp - 456]
	lea	rsi, [rbp - 296]
	lea	rdx, [rbp - 336]
	mov	rdi, r14
	call	__ZN5Botan11inverse_modERKNS_6BigIntES2_
Ltmp577:

	lea	rdi, [r15 + 8]
Ltmp579:
	lea	rsi, [rbp - 176]
	lea	rdx, [rbp - 128]
	call	__ZN5Botan13RSA_PublicKey4initEONS_6BigIntES2_
Ltmp580:

Ltmp581:
	mov	edi, 488
	call	__Znwm
Ltmp582:

	mov	r12, rax
	mov	qword ptr [rax + 16], 0
	mov	qword ptr [rax + 8], 0
	mov	rax, qword ptr [rip + __ZTVNSt3__120__shared_ptr_emplaceIN5Botan16RSA_Private_DataENS_9allocatorIS2_EEEE@GOTPCREL]
	add	rax, 16
	mov	qword ptr [r12], rax
	mov	rbx, r12
	add	rbx, 24
Ltmp584:
	mov	qword ptr [rsp], r14
	lea	rsi, [rbp - 80]
	lea	rdx, [rbp - 336]
	lea	rcx, [rbp - 296]
	lea	r8, [rbp - 216]
	lea	r9, [rbp - 256]
	mov	rdi, rbx
	call	__ZN5Botan16RSA_Private_DataC2EONS_6BigIntES2_S2_S2_S2_S2_
Ltmp585:

	mov	qword ptr [r15 + 32], rbx
	mov	rbx, qword ptr [r15 + 40]
	mov	qword ptr [r15 + 40], r12
	test	rbx, rbx
	je	LBB31_33

	mov	rax, -1
	lock		xadd	qword ptr [rbx + 8], rax
	test	rax, rax
	jne	LBB31_33

	mov	rax, qword ptr [rbx]
	mov	rdi, rbx
	call	qword ptr [rax + 16]
	mov	rdi, rbx
	call	__ZNSt3__119__shared_weak_count14__release_weakEv
LBB31_33:
	mov	rdi, qword ptr [rbp - 456]
	test	rdi, rdi
	je	LBB31_35

	mov	qword ptr [rbp - 448], rdi
	mov	rsi, qword ptr [rbp - 440]
	sub	rsi, rdi
	sar	rsi, 3
Ltmp617:
	mov	edx, 8
	call	__ZN5Botan17deallocate_memoryEPvmm
Ltmp618:
LBB31_35:
	mov	rdi, qword ptr [rbp - 256]
	test	rdi, rdi
	je	LBB31_37

	mov	qword ptr [rbp - 248], rdi
	mov	rsi, qword ptr [rbp - 240]
	sub	rsi, rdi
	sar	rsi, 3
Ltmp620:
	mov	edx, 8
	call	__ZN5Botan17deallocate_memoryEPvmm
Ltmp621:
LBB31_37:
	mov	rdi, qword ptr [rbp - 216]
	test	rdi, rdi
	je	LBB31_39

	mov	qword ptr [rbp - 208], rdi
	mov	rsi, qword ptr [rbp - 200]
	sub	rsi, rdi
	sar	rsi, 3
Ltmp623:
	mov	edx, 8
	call	__ZN5Botan17deallocate_memoryEPvmm
Ltmp624:
LBB31_39:
	mov	rdi, qword ptr [rbp - 376]
	test	rdi, rdi
	je	LBB31_41

	mov	qword ptr [rbp - 368], rdi
	mov	rsi, qword ptr [rbp - 360]
	sub	rsi, rdi
	sar	rsi, 3
Ltmp626:
	mov	edx, 8
	call	__ZN5Botan17deallocate_memoryEPvmm
Ltmp627:
LBB31_41:
	mov	rdi, qword ptr [rbp - 416]
	test	rdi, rdi
	je	LBB31_43

	mov	qword ptr [rbp - 408], rdi
	mov	rsi, qword ptr [rbp - 400]
	sub	rsi, rdi
	sar	rsi, 3
Ltmp629:
	mov	edx, 8
	call	__ZN5Botan17deallocate_memoryEPvmm
Ltmp630:
LBB31_43:
	mov	rdi, qword ptr [rbp - 80]
	test	rdi, rdi
	je	LBB31_45

	mov	qword ptr [rbp - 72], rdi
	mov	rsi, qword ptr [rbp - 64]
	sub	rsi, rdi
	sar	rsi, 3
Ltmp632:
	mov	edx, 8
	call	__ZN5Botan17deallocate_memoryEPvmm
Ltmp633:
LBB31_45:
	mov	rdi, qword ptr [rbp - 128]
	test	rdi, rdi
	je	LBB31_47

	mov	qword ptr [rbp - 120], rdi
	mov	rsi, qword ptr [rbp - 112]
	sub	rsi, rdi
	sar	rsi, 3
Ltmp635:
	mov	edx, 8
	call	__ZN5Botan17deallocate_memoryEPvmm
Ltmp636:
LBB31_47:
	mov	rdi, qword ptr [rbp - 176]
	test	rdi, rdi
	je	LBB31_49

	mov	qword ptr [rbp - 168], rdi
	mov	rsi, qword ptr [rbp - 160]
	sub	rsi, rdi
	sar	rsi, 3
Ltmp638:
	mov	edx, 8
	call	__ZN5Botan17deallocate_memoryEPvmm
Ltmp639:
LBB31_49:
	mov	rdi, qword ptr [rbp - 296]
	test	rdi, rdi
	je	LBB31_51

	mov	qword ptr [rbp - 288], rdi
	mov	rsi, qword ptr [rbp - 280]
	sub	rsi, rdi
	sar	rsi, 3
Ltmp641:
	mov	edx, 8
	call	__ZN5Botan17deallocate_memoryEPvmm
Ltmp642:
LBB31_51:
	mov	rdi, qword ptr [rbp - 336]
	test	rdi, rdi
	je	LBB31_53

	mov	qword ptr [rbp - 328], rdi
	mov	rsi, qword ptr [rbp - 320]
	sub	rsi, rdi
	sar	rsi, 3
Ltmp644:
	mov	edx, 8
	call	__ZN5Botan17deallocate_memoryEPvmm
Ltmp645:
LBB31_53:
	add	rsp, 424
	pop	rbx
	pop	r12
	pop	r13
	pop	r14
	pop	r15
	pop	rbp
	ret
LBB31_57:
Ltmp569:
	mov	rdi, rax
	call	___clang_call_terminate
LBB31_56:
Ltmp566:
	mov	rdi, rax
	call	___clang_call_terminate
LBB31_124:
Ltmp539:
	mov	rdi, rax
	call	___clang_call_terminate
LBB31_59:
Ltmp560:
	mov	r14, rax
	mov	rdi, qword ptr [rbp - 216]
	test	rdi, rdi
	je	LBB31_88

	mov	qword ptr [rbp - 208], rdi
	mov	rsi, qword ptr [rbp - 200]
	sub	rsi, rdi
	sar	rsi, 3
Ltmp561:
	mov	edx, 8
	call	__ZN5Botan17deallocate_memoryEPvmm
Ltmp562:
	jmp	LBB31_88
LBB31_61:
Ltmp563:
	mov	rdi, rax
	call	___clang_call_terminate
LBB31_62:
Ltmp557:
	jmp	LBB31_87
LBB31_58:
Ltmp554:
	jmp	LBB31_87
LBB31_55:
Ltmp536:
	jmp	LBB31_104
LBB31_54:
Ltmp533:
	jmp	LBB31_104
LBB31_73:
Ltmp646:
	mov	rdi, rax
	call	___clang_call_terminate
LBB31_72:
Ltmp643:
	mov	rdi, rax
	call	___clang_call_terminate
LBB31_71:
Ltmp640:
	mov	rdi, rax
	call	___clang_call_terminate
LBB31_70:
Ltmp637:
	mov	rdi, rax
	call	___clang_call_terminate
LBB31_69:
Ltmp634:
	mov	rdi, rax
	call	___clang_call_terminate
LBB31_68:
Ltmp631:
	mov	rdi, rax
	call	___clang_call_terminate
LBB31_67:
Ltmp628:
	mov	rdi, rax
	call	___clang_call_terminate
LBB31_66:
Ltmp625:
	mov	rdi, rax
	call	___clang_call_terminate
LBB31_65:
Ltmp622:
	mov	rdi, rax
	call	___clang_call_terminate
LBB31_64:
Ltmp619:
	mov	rdi, rax
	call	___clang_call_terminate
LBB31_63:
Ltmp586:
	mov	r14, rax
	mov	rdi, r12
	call	__ZNSt3__119__shared_weak_countD2Ev
	mov	rdi, r12
	call	__ZdlPv
	jmp	LBB31_75
LBB31_78:
Ltmp578:
	mov	r14, rax
	jmp	LBB31_79
LBB31_82:
Ltmp575:
	mov	r14, rax
	jmp	LBB31_83
LBB31_86:
Ltmp572:
LBB31_87:
	mov	r14, rax
	jmp	LBB31_88
LBB31_91:
Ltmp551:
	mov	r14, rax
	jmp	LBB31_92
LBB31_95:
Ltmp548:
	mov	r14, rax
	jmp	LBB31_96
LBB31_99:
Ltmp545:
	mov	r14, rax
	jmp	LBB31_100
LBB31_103:
Ltmp542:
LBB31_104:
	mov	r14, rax
	jmp	LBB31_105
LBB31_108:
Ltmp530:
	mov	r14, rax
	jmp	LBB31_109
LBB31_112:
Ltmp527:
	mov	r14, rax
	jmp	LBB31_113
LBB31_116:
Ltmp524:
	mov	r14, rax
	jmp	LBB31_117
LBB31_74:
Ltmp583:
	mov	r14, rax
LBB31_75:
	mov	rdi, qword ptr [rbp - 456]
	test	rdi, rdi
	je	LBB31_79

	mov	qword ptr [rbp - 448], rdi
	mov	rsi, qword ptr [rbp - 440]
	sub	rsi, rdi
	sar	rsi, 3
Ltmp587:
	mov	edx, 8
	call	__ZN5Botan17deallocate_memoryEPvmm
Ltmp588:
LBB31_79:
	mov	rdi, qword ptr [rbp - 256]
	test	rdi, rdi
	je	LBB31_83

	mov	qword ptr [rbp - 248], rdi
	mov	rsi, qword ptr [rbp - 240]
	sub	rsi, rdi
	sar	rsi, 3
Ltmp590:
	mov	edx, 8
	call	__ZN5Botan17deallocate_memoryEPvmm
Ltmp591:
LBB31_83:
	mov	rdi, qword ptr [rbp - 216]
	test	rdi, rdi
	je	LBB31_88

	mov	qword ptr [rbp - 208], rdi
	mov	rsi, qword ptr [rbp - 200]
	sub	rsi, rdi
	sar	rsi, 3
Ltmp593:
	mov	edx, 8
	call	__ZN5Botan17deallocate_memoryEPvmm
Ltmp594:
LBB31_88:
	mov	rdi, qword ptr [rbp - 376]
	test	rdi, rdi
	je	LBB31_92

	mov	qword ptr [rbp - 368], rdi
	mov	rsi, qword ptr [rbp - 360]
	sub	rsi, rdi
	sar	rsi, 3
Ltmp596:
	mov	edx, 8
	call	__ZN5Botan17deallocate_memoryEPvmm
Ltmp597:
LBB31_92:
	mov	rdi, qword ptr [rbp - 416]
	test	rdi, rdi
	je	LBB31_96

	mov	qword ptr [rbp - 408], rdi
	mov	rsi, qword ptr [rbp - 400]
	sub	rsi, rdi
	sar	rsi, 3
Ltmp599:
	mov	edx, 8
	call	__ZN5Botan17deallocate_memoryEPvmm
Ltmp600:
LBB31_96:
	mov	rdi, qword ptr [rbp - 80]
	test	rdi, rdi
	je	LBB31_100

	mov	qword ptr [rbp - 72], rdi
	mov	rsi, qword ptr [rbp - 64]
	sub	rsi, rdi
	sar	rsi, 3
Ltmp602:
	mov	edx, 8
	call	__ZN5Botan17deallocate_memoryEPvmm
Ltmp603:
LBB31_100:
	mov	rdi, qword ptr [rbp - 128]
	test	rdi, rdi
	je	LBB31_105

	mov	qword ptr [rbp - 120], rdi
	mov	rsi, qword ptr [rbp - 112]
	sub	rsi, rdi
	sar	rsi, 3
Ltmp605:
	mov	edx, 8
	call	__ZN5Botan17deallocate_memoryEPvmm
Ltmp606:
LBB31_105:
	mov	rdi, qword ptr [rbp - 176]
	test	rdi, rdi
	je	LBB31_109

	mov	qword ptr [rbp - 168], rdi
	mov	rsi, qword ptr [rbp - 160]
	sub	rsi, rdi
	sar	rsi, 3
Ltmp608:
	mov	edx, 8
	call	__ZN5Botan17deallocate_memoryEPvmm
Ltmp609:
LBB31_109:
	mov	rdi, qword ptr [rbp - 296]
	test	rdi, rdi
	je	LBB31_113

	mov	qword ptr [rbp - 288], rdi
	mov	rsi, qword ptr [rbp - 280]
	sub	rsi, rdi
	sar	rsi, 3
Ltmp611:
	mov	edx, 8
	call	__ZN5Botan17deallocate_memoryEPvmm
Ltmp612:
LBB31_113:
	mov	rdi, qword ptr [rbp - 336]
	test	rdi, rdi
	je	LBB31_117

	mov	qword ptr [rbp - 328], rdi
	mov	rsi, qword ptr [rbp - 320]
	sub	rsi, rdi
	sar	rsi, 3
Ltmp614:
	mov	edx, 8
	call	__ZN5Botan17deallocate_memoryEPvmm
Ltmp615:
LBB31_117:
	mov	rax, qword ptr [rbp - 88] 
	mov	rbx, qword ptr [rax + 40]
	test	rbx, rbx
	je	LBB31_120

	mov	rax, -1
	lock		xadd	qword ptr [rbx + 8], rax
	test	rax, rax
	jne	LBB31_120

	mov	rax, qword ptr [rbx]
	mov	rdi, rbx
	call	qword ptr [rax + 16]
	mov	rdi, rbx
	call	__ZNSt3__119__shared_weak_count14__release_weakEv
LBB31_120:
	lea	rax, [rip + __ZTCN5Botan14RSA_PrivateKeyE8_NS_13RSA_PublicKeyE+136]
	mov	rcx, qword ptr [rbp - 88] 
	mov	qword ptr [rcx + 8], rax
	lea	rax, [rip + __ZTCN5Botan14RSA_PrivateKeyE8_NS_13RSA_PublicKeyE+384]
	mov	qword ptr [rcx], rax
	mov	rbx, qword ptr [rcx + 24]
	test	rbx, rbx
	je	LBB31_123

	mov	rax, -1
	lock		xadd	qword ptr [rbx + 8], rax
	test	rax, rax
	jne	LBB31_123

	mov	rax, qword ptr [rbx]
	mov	rdi, rbx
	call	qword ptr [rax + 16]
	mov	rdi, rbx
	call	__ZNSt3__119__shared_weak_count14__release_weakEv
LBB31_123:
	mov	rdi, r14
	call	__Unwind_Resume
	ud2
LBB31_77:
Ltmp589:
	mov	rdi, rax
	call	___clang_call_terminate
LBB31_81:
Ltmp592:
	mov	rdi, rax
	call	___clang_call_terminate
LBB31_85:
Ltmp595:
	mov	rdi, rax
	call	___clang_call_terminate
LBB31_90:
Ltmp598:
	mov	rdi, rax
	call	___clang_call_terminate
LBB31_94:
Ltmp601:
	mov	rdi, rax
	call	___clang_call_terminate
LBB31_98:
Ltmp604:
	mov	rdi, rax
	call	___clang_call_terminate
LBB31_102:
Ltmp607:
	mov	rdi, rax
	call	___clang_call_terminate
LBB31_107:
Ltmp610:
	mov	rdi, rax
	call	___clang_call_terminate
LBB31_111:
Ltmp613:
	mov	rdi, rax
	call	___clang_call_terminate
LBB31_115:
Ltmp616:
	mov	rdi, rax
	call	___clang_call_terminate
Lfunc_end13:
	.cfi_endproc
	.section	__TEXT,__gcc_except_tab
	.p2align	2
GCC_except_table31:
Lexception13:
	.byte	255                     
	.byte	155                     
	.uleb128 Lttbase9-Lttbaseref9
Lttbaseref9:
	.byte	1                       
	.uleb128 Lcst_end13-Lcst_begin13
Lcst_begin13:
	.uleb128 Ltmp522-Lfunc_begin13  
	.uleb128 Ltmp523-Ltmp522        
	.uleb128 Ltmp524-Lfunc_begin13  
	.byte	0                       
	.uleb128 Ltmp525-Lfunc_begin13  
	.uleb128 Ltmp526-Ltmp525        
	.uleb128 Ltmp527-Lfunc_begin13  
	.byte	0                       
	.uleb128 Ltmp528-Lfunc_begin13  
	.uleb128 Ltmp529-Ltmp528        
	.uleb128 Ltmp530-Lfunc_begin13  
	.byte	0                       
	.uleb128 Ltmp531-Lfunc_begin13  
	.uleb128 Ltmp532-Ltmp531        
	.uleb128 Ltmp533-Lfunc_begin13  
	.byte	0                       
	.uleb128 Ltmp534-Lfunc_begin13  
	.uleb128 Ltmp535-Ltmp534        
	.uleb128 Ltmp536-Lfunc_begin13  
	.byte	0                       
	.uleb128 Ltmp537-Lfunc_begin13  
	.uleb128 Ltmp538-Ltmp537        
	.uleb128 Ltmp539-Lfunc_begin13  
	.byte	1                       
	.uleb128 Ltmp540-Lfunc_begin13  
	.uleb128 Ltmp541-Ltmp540        
	.uleb128 Ltmp542-Lfunc_begin13  
	.byte	0                       
	.uleb128 Ltmp543-Lfunc_begin13  
	.uleb128 Ltmp544-Ltmp543        
	.uleb128 Ltmp545-Lfunc_begin13  
	.byte	0                       
	.uleb128 Ltmp546-Lfunc_begin13  
	.uleb128 Ltmp547-Ltmp546        
	.uleb128 Ltmp548-Lfunc_begin13  
	.byte	0                       
	.uleb128 Ltmp549-Lfunc_begin13  
	.uleb128 Ltmp550-Ltmp549        
	.uleb128 Ltmp551-Lfunc_begin13  
	.byte	0                       
	.uleb128 Ltmp552-Lfunc_begin13  
	.uleb128 Ltmp553-Ltmp552        
	.uleb128 Ltmp554-Lfunc_begin13  
	.byte	0                       
	.uleb128 Ltmp555-Lfunc_begin13  
	.uleb128 Ltmp556-Ltmp555        
	.uleb128 Ltmp557-Lfunc_begin13  
	.byte	0                       
	.uleb128 Ltmp558-Lfunc_begin13  
	.uleb128 Ltmp559-Ltmp558        
	.uleb128 Ltmp560-Lfunc_begin13  
	.byte	0                       
	.uleb128 Ltmp564-Lfunc_begin13  
	.uleb128 Ltmp565-Ltmp564        
	.uleb128 Ltmp566-Lfunc_begin13  
	.byte	1                       
	.uleb128 Ltmp567-Lfunc_begin13  
	.uleb128 Ltmp568-Ltmp567        
	.uleb128 Ltmp569-Lfunc_begin13  
	.byte	1                       
	.uleb128 Ltmp570-Lfunc_begin13  
	.uleb128 Ltmp571-Ltmp570        
	.uleb128 Ltmp572-Lfunc_begin13  
	.byte	0                       
	.uleb128 Ltmp573-Lfunc_begin13  
	.uleb128 Ltmp574-Ltmp573        
	.uleb128 Ltmp575-Lfunc_begin13  
	.byte	0                       
	.uleb128 Ltmp576-Lfunc_begin13  
	.uleb128 Ltmp577-Ltmp576        
	.uleb128 Ltmp578-Lfunc_begin13  
	.byte	0                       
	.uleb128 Ltmp579-Lfunc_begin13  
	.uleb128 Ltmp582-Ltmp579        
	.uleb128 Ltmp583-Lfunc_begin13  
	.byte	0                       
	.uleb128 Ltmp584-Lfunc_begin13  
	.uleb128 Ltmp585-Ltmp584        
	.uleb128 Ltmp586-Lfunc_begin13  
	.byte	0                       
	.uleb128 Ltmp585-Lfunc_begin13  
	.uleb128 Ltmp617-Ltmp585        
	.byte	0                       
	.byte	0                       
	.uleb128 Ltmp617-Lfunc_begin13  
	.uleb128 Ltmp618-Ltmp617        
	.uleb128 Ltmp619-Lfunc_begin13  
	.byte	1                       
	.uleb128 Ltmp620-Lfunc_begin13  
	.uleb128 Ltmp621-Ltmp620        
	.uleb128 Ltmp622-Lfunc_begin13  
	.byte	1                       
	.uleb128 Ltmp623-Lfunc_begin13  
	.uleb128 Ltmp624-Ltmp623        
	.uleb128 Ltmp625-Lfunc_begin13  
	.byte	1                       
	.uleb128 Ltmp626-Lfunc_begin13  
	.uleb128 Ltmp627-Ltmp626        
	.uleb128 Ltmp628-Lfunc_begin13  
	.byte	1                       
	.uleb128 Ltmp629-Lfunc_begin13  
	.uleb128 Ltmp630-Ltmp629        
	.uleb128 Ltmp631-Lfunc_begin13  
	.byte	1                       
	.uleb128 Ltmp632-Lfunc_begin13  
	.uleb128 Ltmp633-Ltmp632        
	.uleb128 Ltmp634-Lfunc_begin13  
	.byte	1                       
	.uleb128 Ltmp635-Lfunc_begin13  
	.uleb128 Ltmp636-Ltmp635        
	.uleb128 Ltmp637-Lfunc_begin13  
	.byte	1                       
	.uleb128 Ltmp638-Lfunc_begin13  
	.uleb128 Ltmp639-Ltmp638        
	.uleb128 Ltmp640-Lfunc_begin13  
	.byte	1                       
	.uleb128 Ltmp641-Lfunc_begin13  
	.uleb128 Ltmp642-Ltmp641        
	.uleb128 Ltmp643-Lfunc_begin13  
	.byte	1                       
	.uleb128 Ltmp644-Lfunc_begin13  
	.uleb128 Ltmp645-Ltmp644        
	.uleb128 Ltmp646-Lfunc_begin13  
	.byte	1                       
	.uleb128 Ltmp561-Lfunc_begin13  
	.uleb128 Ltmp562-Ltmp561        
	.uleb128 Ltmp563-Lfunc_begin13  
	.byte	1                       
	.uleb128 Ltmp587-Lfunc_begin13  
	.uleb128 Ltmp588-Ltmp587        
	.uleb128 Ltmp589-Lfunc_begin13  
	.byte	1                       
	.uleb128 Ltmp590-Lfunc_begin13  
	.uleb128 Ltmp591-Ltmp590        
	.uleb128 Ltmp592-Lfunc_begin13  
	.byte	1                       
	.uleb128 Ltmp593-Lfunc_begin13  
	.uleb128 Ltmp594-Ltmp593        
	.uleb128 Ltmp595-Lfunc_begin13  
	.byte	1                       
	.uleb128 Ltmp596-Lfunc_begin13  
	.uleb128 Ltmp597-Ltmp596        
	.uleb128 Ltmp598-Lfunc_begin13  
	.byte	1                       
	.uleb128 Ltmp599-Lfunc_begin13  
	.uleb128 Ltmp600-Ltmp599        
	.uleb128 Ltmp601-Lfunc_begin13  
	.byte	1                       
	.uleb128 Ltmp602-Lfunc_begin13  
	.uleb128 Ltmp603-Ltmp602        
	.uleb128 Ltmp604-Lfunc_begin13  
	.byte	1                       
	.uleb128 Ltmp605-Lfunc_begin13  
	.uleb128 Ltmp606-Ltmp605        
	.uleb128 Ltmp607-Lfunc_begin13  
	.byte	1                       
	.uleb128 Ltmp608-Lfunc_begin13  
	.uleb128 Ltmp609-Ltmp608        
	.uleb128 Ltmp610-Lfunc_begin13  
	.byte	1                       
	.uleb128 Ltmp611-Lfunc_begin13  
	.uleb128 Ltmp612-Ltmp611        
	.uleb128 Ltmp613-Lfunc_begin13  
	.byte	1                       
	.uleb128 Ltmp614-Lfunc_begin13  
	.uleb128 Ltmp615-Ltmp614        
	.uleb128 Ltmp616-Lfunc_begin13  
	.byte	1                       
	.uleb128 Ltmp615-Lfunc_begin13  
	.uleb128 Lfunc_end13-Ltmp615    
	.byte	0                       
	.byte	0                       
Lcst_end13:
	.byte	1                       
                                        
	.byte	0                       
	.p2align	2
                                        
	.long	0                       
Lttbase9:
	.p2align	2
                                        
	.section	__TEXT,__literal16,16byte_literals
	.p2align	4               
LCPI32_0:
	.quad	49                      
	.quad	37                      
	.section	__TEXT,__text,regular,pure_instructions
	.globl	__ZN5Botan14RSA_PrivateKeyC2ERNS_21RandomNumberGeneratorEmm
	.p2align	4, 0x90
__ZN5Botan14RSA_PrivateKeyC2ERNS_21RandomNumberGeneratorEmm: 
Lfunc_begin14:
	.cfi_startproc
	.cfi_personality 155, ___gxx_personality_v0
	.cfi_lsda 16, Lexception14

	push	rbp
	.cfi_def_cfa_offset 16
	.cfi_offset rbp, -16
	mov	rbp, rsp
	.cfi_def_cfa_register rbp
	push	r15
	push	r14
	push	r13
	push	r12
	push	rbx
	sub	rsp, 584
	.cfi_offset rbx, -56
	.cfi_offset r12, -48
	.cfi_offset r13, -40
	.cfi_offset r14, -32
	.cfi_offset r15, -24
	mov	rbx, rdx
	mov	r13, rsi
	mov	r12, rdi
	mov	rax, qword ptr [rsi + 8]
	mov	qword ptr [rdi], rax
	mov	rdx, qword ptr [rsi + 16]
	mov	rax, qword ptr [rax - 136]
	mov	qword ptr [rdi + rax], rdx
	mov	rax, qword ptr [rsi + 24]
	mov	qword ptr [rdi + 8], rax
	mov	rdx, qword ptr [rsi + 32]
	mov	rax, qword ptr [rax - 136]
	mov	qword ptr [rdi + rax + 8], rdx
	mov	qword ptr [rdi + 24], 0
	mov	qword ptr [rdi + 16], 0
	mov	rax, qword ptr [rsi]
	mov	qword ptr [rdi], rax
	mov	rdx, qword ptr [rsi + 40]
	mov	rax, qword ptr [rax - 136]
	mov	qword ptr [rdi + rax], rdx
	mov	rax, qword ptr [rsi + 48]
	mov	qword ptr [rdi + 8], rax
	mov	qword ptr [rdi + 32], 0
	mov	qword ptr [rdi + 40], 0
	mov	qword ptr [rbp - 392], rcx 
	cmp	rcx, 1023
	jbe	LBB32_1

	cmp	r8, 3
	jb	LBB32_28

	mov	eax, r8d
	and	eax, 1
	test	rax, rax
	je	LBB32_28

	pxor	xmm0, xmm0
	movdqa	xmmword ptr [rbp - 240], xmm0
	mov	qword ptr [rbp - 224], 0
	mov	qword ptr [rbp - 216], -1
	mov	dword ptr [rbp - 208], 1
	movdqa	xmmword ptr [rbp - 192], xmm0
	mov	qword ptr [rbp - 176], 0
	mov	qword ptr [rbp - 168], -1
	mov	dword ptr [rbp - 160], 1
	movdqa	xmmword ptr [rbp - 384], xmm0
	mov	qword ptr [rbp - 368], 0
	mov	qword ptr [rbp - 360], -1
	mov	dword ptr [rbp - 352], 1
	movdqa	xmmword ptr [rbp - 336], xmm0
	mov	qword ptr [rbp - 320], 0
	mov	qword ptr [rbp - 312], -1
	mov	dword ptr [rbp - 304], 1
	movdqa	xmmword ptr [rbp - 288], xmm0
	mov	qword ptr [rbp - 272], 0
	mov	qword ptr [rbp - 264], -1
	mov	dword ptr [rbp - 256], 1
	movdqa	xmmword ptr [rbp - 528], xmm0
	mov	qword ptr [rbp - 512], 0
	mov	qword ptr [rbp - 504], -1
	mov	dword ptr [rbp - 496], 1
	movdqa	xmmword ptr [rbp - 480], xmm0
	mov	qword ptr [rbp - 464], 0
	mov	qword ptr [rbp - 456], -1
	mov	dword ptr [rbp - 448], 1
	movdqa	xmmword ptr [rbp - 432], xmm0
	mov	qword ptr [rbp - 416], 0
	mov	qword ptr [rbp - 408], -1
	mov	dword ptr [rbp - 400], 1
Ltmp647:
	lea	rdi, [rbp - 96]
	mov	rsi, r8
	call	__ZN5Botan6BigIntC1Ey
Ltmp648:

	mov	qword ptr [rbp - 56], r13 
	movaps	xmm1, xmmword ptr [rbp - 96]
	movaps	xmm2, xmmword ptr [rbp - 80]
	movdqa	xmm3, xmmword ptr [rbp - 192]
	movdqa	xmm0, xmmword ptr [rbp - 176]
	movaps	xmmword ptr [rbp - 192], xmm1
	movdqa	xmmword ptr [rbp - 96], xmm3
	movaps	xmmword ptr [rbp - 176], xmm2
	movdqa	xmmword ptr [rbp - 80], xmm0
	mov	eax, dword ptr [rbp - 160]
	mov	ecx, dword ptr [rbp - 64]
	mov	dword ptr [rbp - 160], ecx
	mov	dword ptr [rbp - 64], eax
	movq	rdi, xmm3
	test	rdi, rdi
	je	LBB32_41

	mov	qword ptr [rbp - 88], rdi
	movq	rsi, xmm0
	sub	rsi, rdi
	sar	rsi, 3
Ltmp650:
	mov	edx, 8
	call	__ZN5Botan17deallocate_memoryEPvmm
Ltmp651:
LBB32_41:
	mov	qword ptr [rbp - 48], r12 
	lea	rax, [r12 + 8]
	mov	qword ptr [rbp - 576], rax 
	mov	r13, qword ptr [rbp - 392] 
	lea	r15, [r13 + 1]
	shr	r15
	sub	r13, r15
	lea	r12, [rbp - 96]
	lea	r14, [rbp - 288]
	.p2align	4, 0x90
LBB32_42:                               
Ltmp653:
	mov	r9d, 128
	mov	rdi, r12
	mov	rsi, rbx
	mov	rdx, rbx
	mov	rcx, r15
	lea	r8, [rbp - 192]
	call	__ZN5Botan18generate_rsa_primeERNS_21RandomNumberGeneratorES1_mRKNS_6BigIntEm
Ltmp654:

	movaps	xmm1, xmmword ptr [rbp - 96]
	movaps	xmm2, xmmword ptr [rbp - 80]
	movdqa	xmm3, xmmword ptr [rbp - 336]
	movdqa	xmm0, xmmword ptr [rbp - 320]
	movaps	xmmword ptr [rbp - 336], xmm1
	movdqa	xmmword ptr [rbp - 96], xmm3
	movaps	xmmword ptr [rbp - 320], xmm2
	movdqa	xmmword ptr [rbp - 80], xmm0
	mov	eax, dword ptr [rbp - 304]
	mov	ecx, dword ptr [rbp - 64]
	mov	dword ptr [rbp - 304], ecx
	mov	dword ptr [rbp - 64], eax
	movq	rdi, xmm3
	test	rdi, rdi
	je	LBB32_45

	mov	qword ptr [rbp - 88], rdi
	movq	rsi, xmm0
	sub	rsi, rdi
	sar	rsi, 3
Ltmp656:
	mov	edx, 8
	call	__ZN5Botan17deallocate_memoryEPvmm
Ltmp657:
LBB32_45:                               
Ltmp659:
	mov	r9d, 128
	mov	rdi, r12
	mov	rsi, rbx
	mov	rdx, rbx
	mov	rcx, r13
	lea	r8, [rbp - 192]
	call	__ZN5Botan18generate_rsa_primeERNS_21RandomNumberGeneratorES1_mRKNS_6BigIntEm
Ltmp660:

	movaps	xmm1, xmmword ptr [rbp - 96]
	movaps	xmm2, xmmword ptr [rbp - 80]
	movdqa	xmm3, xmmword ptr [rbp - 288]
	movdqa	xmm0, xmmword ptr [rbp - 272]
	movaps	xmmword ptr [rbp - 288], xmm1
	movdqa	xmmword ptr [rbp - 96], xmm3
	movaps	xmmword ptr [rbp - 272], xmm2
	movdqa	xmmword ptr [rbp - 80], xmm0
	mov	eax, dword ptr [rbp - 256]
	mov	ecx, dword ptr [rbp - 64]
	mov	dword ptr [rbp - 256], ecx
	mov	dword ptr [rbp - 64], eax
	movq	rdi, xmm3
	test	rdi, rdi
	je	LBB32_48

	mov	qword ptr [rbp - 88], rdi
	movq	rsi, xmm0
	sub	rsi, rdi
	sar	rsi, 3
Ltmp662:
	mov	edx, 8
	call	__ZN5Botan17deallocate_memoryEPvmm
Ltmp663:
LBB32_48:                               
Ltmp665:
	lea	rdi, [rbp - 336]
	mov	rsi, r14
	call	__ZNK5Botan6BigInt8is_equalERKS0_
Ltmp666:

	test	al, al
	jne	LBB32_50

Ltmp667:
	mov	rdi, r12
	lea	rsi, [rbp - 336]
	mov	rdx, r14
	call	__ZN5BotanmlERKNS_6BigIntES2_
Ltmp668:

	movaps	xmm1, xmmword ptr [rbp - 96]
	movaps	xmm2, xmmword ptr [rbp - 80]
	movdqa	xmm3, xmmword ptr [rbp - 240]
	movdqa	xmm0, xmmword ptr [rbp - 224]
	movaps	xmmword ptr [rbp - 240], xmm1
	movdqa	xmmword ptr [rbp - 96], xmm3
	movaps	xmmword ptr [rbp - 224], xmm2
	movdqa	xmmword ptr [rbp - 80], xmm0
	mov	eax, dword ptr [rbp - 208]
	mov	ecx, dword ptr [rbp - 64]
	mov	dword ptr [rbp - 208], ecx
	mov	dword ptr [rbp - 64], eax
	movq	rdi, xmm3
	test	rdi, rdi
	je	LBB32_65

	mov	qword ptr [rbp - 88], rdi
	movq	rsi, xmm0
	sub	rsi, rdi
	sar	rsi, 3
Ltmp670:
	mov	edx, 8
	call	__ZN5Botan17deallocate_memoryEPvmm
Ltmp671:
LBB32_65:                               
Ltmp673:
	lea	rdi, [rbp - 240]
	call	__ZNK5Botan6BigInt4bitsEv
Ltmp674:

	cmp	rax, qword ptr [rbp - 392] 
	jne	LBB32_42

	mov	qword ptr [rbp - 568], 1
Ltmp676:
	lea	rdi, [rbp - 96]
	lea	rsi, [rbp - 336]
	lea	rdx, [rbp - 568]
	mov	ecx, 1
	xor	r8d, r8d
	call	__ZN5Botan6BigInt4add2ERKS0_PKymNS0_4SignE
Ltmp677:

	mov	qword ptr [rbp - 616], 1
Ltmp679:
	lea	rdi, [rbp - 568]
	lea	rsi, [rbp - 288]
	lea	rdx, [rbp - 616]
	mov	ecx, 1
	xor	r8d, r8d
	mov	r15, qword ptr [rbp - 48] 
	call	__ZN5Botan6BigInt4add2ERKS0_PKymNS0_4SignE
Ltmp680:

Ltmp682:
	lea	rdi, [rbp - 616]
	lea	rsi, [rbp - 96]
	lea	rdx, [rbp - 568]
	call	__ZN5Botan3lcmERKNS_6BigIntES2_
Ltmp683:

Ltmp685:
	lea	rdi, [rbp - 144]
	lea	rsi, [rbp - 192]
	lea	rdx, [rbp - 616]
	call	__ZN5Botan11inverse_modERKNS_6BigIntES2_
Ltmp686:

	movaps	xmm1, xmmword ptr [rbp - 144]
	movaps	xmm2, xmmword ptr [rbp - 128]
	movdqa	xmm3, xmmword ptr [rbp - 384]
	movdqa	xmm0, xmmword ptr [rbp - 368]
	movaps	xmmword ptr [rbp - 384], xmm1
	movdqa	xmmword ptr [rbp - 144], xmm3
	movaps	xmmword ptr [rbp - 368], xmm2
	movdqa	xmmword ptr [rbp - 128], xmm0
	mov	eax, dword ptr [rbp - 352]
	mov	ecx, dword ptr [rbp - 112]
	mov	dword ptr [rbp - 352], ecx
	mov	dword ptr [rbp - 112], eax
	movq	rdi, xmm3
	test	rdi, rdi
	je	LBB32_73

	mov	qword ptr [rbp - 136], rdi
	movq	rsi, xmm0
	sub	rsi, rdi
	sar	rsi, 3
Ltmp688:
	mov	edx, 8
	call	__ZN5Botan17deallocate_memoryEPvmm
Ltmp689:
LBB32_73:
Ltmp691:
	lea	rdi, [rbp - 144]
	lea	rsi, [rbp - 384]
	lea	rdx, [rbp - 96]
	call	__ZN5Botan9ct_moduloERKNS_6BigIntES2_
Ltmp692:

	movaps	xmm1, xmmword ptr [rbp - 144]
	movaps	xmm2, xmmword ptr [rbp - 128]
	movdqa	xmm3, xmmword ptr [rbp - 528]
	movdqa	xmm0, xmmword ptr [rbp - 512]
	movaps	xmmword ptr [rbp - 528], xmm1
	movdqa	xmmword ptr [rbp - 144], xmm3
	movaps	xmmword ptr [rbp - 512], xmm2
	movdqa	xmmword ptr [rbp - 128], xmm0
	mov	eax, dword ptr [rbp - 496]
	mov	ecx, dword ptr [rbp - 112]
	mov	dword ptr [rbp - 496], ecx
	mov	dword ptr [rbp - 112], eax
	movq	rdi, xmm3
	test	rdi, rdi
	je	LBB32_76

	mov	qword ptr [rbp - 136], rdi
	movq	rsi, xmm0
	sub	rsi, rdi
	sar	rsi, 3
Ltmp694:
	mov	edx, 8
	call	__ZN5Botan17deallocate_memoryEPvmm
Ltmp695:
LBB32_76:
Ltmp697:
	lea	rdi, [rbp - 144]
	lea	rsi, [rbp - 384]
	lea	rdx, [rbp - 568]
	call	__ZN5Botan9ct_moduloERKNS_6BigIntES2_
Ltmp698:

	movaps	xmm1, xmmword ptr [rbp - 144]
	movaps	xmm2, xmmword ptr [rbp - 128]
	movdqa	xmm3, xmmword ptr [rbp - 480]
	movdqa	xmm0, xmmword ptr [rbp - 464]
	movaps	xmmword ptr [rbp - 480], xmm1
	movdqa	xmmword ptr [rbp - 144], xmm3
	movaps	xmmword ptr [rbp - 464], xmm2
	movdqa	xmmword ptr [rbp - 128], xmm0
	mov	eax, dword ptr [rbp - 448]
	mov	ecx, dword ptr [rbp - 112]
	mov	dword ptr [rbp - 448], ecx
	mov	dword ptr [rbp - 112], eax
	movq	rdi, xmm3
	test	rdi, rdi
	je	LBB32_79

	mov	qword ptr [rbp - 136], rdi
	movq	rsi, xmm0
	sub	rsi, rdi
	sar	rsi, 3
Ltmp700:
	mov	edx, 8
	call	__ZN5Botan17deallocate_memoryEPvmm
Ltmp701:
LBB32_79:
Ltmp703:
	lea	rdi, [rbp - 144]
	lea	rsi, [rbp - 288]
	lea	rdx, [rbp - 336]
	call	__ZN5Botan11inverse_modERKNS_6BigIntES2_
Ltmp704:

	movaps	xmm1, xmmword ptr [rbp - 144]
	movaps	xmm2, xmmword ptr [rbp - 128]
	movdqa	xmm3, xmmword ptr [rbp - 432]
	movdqa	xmm0, xmmword ptr [rbp - 416]
	movaps	xmmword ptr [rbp - 432], xmm1
	movdqa	xmmword ptr [rbp - 144], xmm3
	movaps	xmmword ptr [rbp - 416], xmm2
	movdqa	xmmword ptr [rbp - 128], xmm0
	mov	eax, dword ptr [rbp - 400]
	mov	ecx, dword ptr [rbp - 112]
	mov	dword ptr [rbp - 400], ecx
	mov	dword ptr [rbp - 112], eax
	movq	rdi, xmm3
	test	rdi, rdi
	je	LBB32_82

	mov	qword ptr [rbp - 136], rdi
	movq	rsi, xmm0
	sub	rsi, rdi
	sar	rsi, 3
Ltmp706:
	mov	edx, 8
	call	__ZN5Botan17deallocate_memoryEPvmm
Ltmp707:
LBB32_82:
Ltmp709:
	lea	rsi, [rbp - 240]
	lea	rdx, [rbp - 192]
	mov	rdi, qword ptr [rbp - 576] 
	call	__ZN5Botan13RSA_PublicKey4initEONS_6BigIntES2_
Ltmp710:

Ltmp711:
	mov	edi, 488
	call	__Znwm
Ltmp712:

	mov	r14, rax
	mov	qword ptr [rax + 16], 0
	mov	qword ptr [rax + 8], 0
	mov	rax, qword ptr [rip + __ZTVNSt3__120__shared_ptr_emplaceIN5Botan16RSA_Private_DataENS_9allocatorIS2_EEEE@GOTPCREL]
	add	rax, 16
	mov	qword ptr [r14], rax
	mov	rbx, r14
	add	rbx, 24
Ltmp714:
	lea	rax, [rbp - 432]
	mov	qword ptr [rsp], rax
	lea	rsi, [rbp - 384]
	lea	rdx, [rbp - 336]
	lea	rcx, [rbp - 288]
	lea	r8, [rbp - 528]
	lea	r9, [rbp - 480]
	mov	rdi, rbx
	call	__ZN5Botan16RSA_Private_DataC2EONS_6BigIntES2_S2_S2_S2_S2_
Ltmp715:

	mov	qword ptr [r15 + 32], rbx
	mov	rbx, qword ptr [r15 + 40]
	mov	qword ptr [r15 + 40], r14
	test	rbx, rbx
	je	LBB32_88

	mov	rax, -1
	lock		xadd	qword ptr [rbx + 8], rax
	test	rax, rax
	jne	LBB32_88

	mov	rax, qword ptr [rbx]
	mov	rdi, rbx
	call	qword ptr [rax + 16]
	mov	rdi, rbx
	call	__ZNSt3__119__shared_weak_count14__release_weakEv
LBB32_88:
	mov	rdi, qword ptr [rbp - 616]
	test	rdi, rdi
	je	LBB32_90

	mov	qword ptr [rbp - 608], rdi
	mov	rsi, qword ptr [rbp - 600]
	sub	rsi, rdi
	sar	rsi, 3
Ltmp726:
	mov	edx, 8
	call	__ZN5Botan17deallocate_memoryEPvmm
Ltmp727:
LBB32_90:
	mov	rdi, qword ptr [rbp - 568]
	test	rdi, rdi
	je	LBB32_92

	mov	qword ptr [rbp - 560], rdi
	mov	rsi, qword ptr [rbp - 552]
	sub	rsi, rdi
	sar	rsi, 3
Ltmp729:
	mov	edx, 8
	call	__ZN5Botan17deallocate_memoryEPvmm
Ltmp730:
LBB32_92:
	mov	rdi, qword ptr [rbp - 96]
	test	rdi, rdi
	je	LBB32_94

	mov	qword ptr [rbp - 88], rdi
	mov	rsi, qword ptr [rbp - 80]
	sub	rsi, rdi
	sar	rsi, 3
Ltmp732:
	mov	edx, 8
	call	__ZN5Botan17deallocate_memoryEPvmm
Ltmp733:
LBB32_94:
	mov	rdi, qword ptr [rbp - 432]
	test	rdi, rdi
	je	LBB32_96

	mov	qword ptr [rbp - 424], rdi
	mov	rsi, qword ptr [rbp - 416]
	sub	rsi, rdi
	sar	rsi, 3
Ltmp735:
	mov	edx, 8
	call	__ZN5Botan17deallocate_memoryEPvmm
Ltmp736:
LBB32_96:
	mov	rdi, qword ptr [rbp - 480]
	test	rdi, rdi
	je	LBB32_98

	mov	qword ptr [rbp - 472], rdi
	mov	rsi, qword ptr [rbp - 464]
	sub	rsi, rdi
	sar	rsi, 3
Ltmp738:
	mov	edx, 8
	call	__ZN5Botan17deallocate_memoryEPvmm
Ltmp739:
LBB32_98:
	mov	rdi, qword ptr [rbp - 528]
	test	rdi, rdi
	je	LBB32_100

	mov	qword ptr [rbp - 520], rdi
	mov	rsi, qword ptr [rbp - 512]
	sub	rsi, rdi
	sar	rsi, 3
Ltmp741:
	mov	edx, 8
	call	__ZN5Botan17deallocate_memoryEPvmm
Ltmp742:
LBB32_100:
	mov	rdi, qword ptr [rbp - 288]
	test	rdi, rdi
	je	LBB32_102

	mov	qword ptr [rbp - 280], rdi
	mov	rsi, qword ptr [rbp - 272]
	sub	rsi, rdi
	sar	rsi, 3
Ltmp744:
	mov	edx, 8
	call	__ZN5Botan17deallocate_memoryEPvmm
Ltmp745:
LBB32_102:
	mov	rdi, qword ptr [rbp - 336]
	test	rdi, rdi
	je	LBB32_104

	mov	qword ptr [rbp - 328], rdi
	mov	rsi, qword ptr [rbp - 320]
	sub	rsi, rdi
	sar	rsi, 3
Ltmp747:
	mov	edx, 8
	call	__ZN5Botan17deallocate_memoryEPvmm
Ltmp748:
LBB32_104:
	mov	rdi, qword ptr [rbp - 384]
	test	rdi, rdi
	je	LBB32_106

	mov	qword ptr [rbp - 376], rdi
	mov	rsi, qword ptr [rbp - 368]
	sub	rsi, rdi
	sar	rsi, 3
Ltmp750:
	mov	edx, 8
	call	__ZN5Botan17deallocate_memoryEPvmm
Ltmp751:
LBB32_106:
	mov	rdi, qword ptr [rbp - 192]
	test	rdi, rdi
	je	LBB32_108

	mov	qword ptr [rbp - 184], rdi
	mov	rsi, qword ptr [rbp - 176]
	sub	rsi, rdi
	sar	rsi, 3
Ltmp753:
	mov	edx, 8
	call	__ZN5Botan17deallocate_memoryEPvmm
Ltmp754:
LBB32_108:
	mov	rdi, qword ptr [rbp - 240]
	test	rdi, rdi
	je	LBB32_110

	mov	qword ptr [rbp - 232], rdi
	mov	rsi, qword ptr [rbp - 224]
	sub	rsi, rdi
	sar	rsi, 3
Ltmp756:
	mov	edx, 8
	call	__ZN5Botan17deallocate_memoryEPvmm
Ltmp757:
LBB32_110:
	add	rsp, 584
	pop	rbx
	pop	r12
	pop	r13
	pop	r14
	pop	r15
	pop	rbp
	ret
LBB32_50:
	mov	edi, 32
	call	___cxa_allocate_exception
	mov	r14, rax
Ltmp759:
	mov	edi, 48
	call	__Znwm
Ltmp760:

	mov	qword ptr [rbp - 80], rax
	movdqa	xmm0, xmmword ptr [rip + LCPI32_0] 
	movdqa	xmmword ptr [rbp - 96], xmm0
	movabs	rcx, 7957695015158965614
	mov	qword ptr [rax + 29], rcx
	movabs	rcx, 8243116074772494693
	mov	qword ptr [rax + 24], rcx
	movabs	rcx, 7719241587428976494
	mov	qword ptr [rax + 16], rcx
	movabs	rcx, 7598264594228146805
	mov	qword ptr [rax + 8], rcx
	movabs	rcx, 7811882119906938450
	mov	qword ptr [rax], rcx
	mov	byte ptr [rax + 37], 0
	mov	bl, 1
Ltmp762:
	lea	rsi, [rbp - 96]
	mov	rdi, r14
	call	__ZN5Botan14Internal_ErrorC1ERKNSt3__112basic_stringIcNS1_11char_traitsIcEENS1_9allocatorIcEEEE
Ltmp763:

	xor	ebx, ebx
Ltmp764:
	mov	rsi, qword ptr [rip + __ZTIN5Botan14Internal_ErrorE@GOTPCREL]
	mov	rdx, qword ptr [rip + __ZN5Botan14Internal_ErrorD1Ev@GOTPCREL]
	mov	rdi, r14
	call	___cxa_throw
Ltmp765:
	jmp	LBB32_155
LBB32_28:
	mov	edi, 32
	call	___cxa_allocate_exception
	mov	rbx, rax
	mov	byte ptr [rbp - 192], 6
	mov	dword ptr [rbp - 191], 4281170
Ltmp791:
	lea	rsi, [rip + L_.str.4]
	lea	rdi, [rbp - 192]
	call	__ZNSt3__112basic_stringIcNS_11char_traitsIcEENS_9allocatorIcEEE6appendEPKc
Ltmp792:

	mov	rcx, qword ptr [rax + 16]
	mov	qword ptr [rbp - 224], rcx
	mov	rcx, qword ptr [rax]
	mov	rdx, qword ptr [rax + 8]
	mov	qword ptr [rbp - 232], rdx
	mov	qword ptr [rbp - 240], rcx
	mov	qword ptr [rax], 0
	mov	qword ptr [rax + 8], 0
	mov	qword ptr [rax + 16], 0
	mov	r14b, 1
Ltmp794:
	lea	rsi, [rbp - 240]
	mov	rdi, rbx
	call	__ZN5Botan16Invalid_ArgumentC1ERKNSt3__112basic_stringIcNS1_11char_traitsIcEENS1_9allocatorIcEEEE
Ltmp795:

	xor	r14d, r14d
Ltmp796:
	mov	rsi, qword ptr [rip + __ZTIN5Botan16Invalid_ArgumentE@GOTPCREL]
	mov	rdx, qword ptr [rip + __ZN5Botan16Invalid_ArgumentD1Ev@GOTPCREL]
	mov	rdi, rbx
	call	___cxa_throw
Ltmp797:
	jmp	LBB32_155
LBB32_1:
	mov	edi, 32
	call	___cxa_allocate_exception
	mov	r14, rax
	mov	byte ptr [rbp - 336], 6
	mov	dword ptr [rbp - 335], 4281170
Ltmp799:
	lea	rsi, [rip + L_.str.2]
	lea	rdi, [rbp - 336]
	call	__ZNSt3__112basic_stringIcNS_11char_traitsIcEENS_9allocatorIcEEE6appendEPKc
Ltmp800:

	mov	rcx, qword ptr [rax + 16]
	mov	qword ptr [rbp - 368], rcx
	mov	rcx, qword ptr [rax]
	mov	rdx, qword ptr [rax + 8]
	mov	qword ptr [rbp - 376], rdx
	mov	qword ptr [rbp - 384], rcx
	mov	qword ptr [rax], 0
	mov	qword ptr [rax + 8], 0
	mov	qword ptr [rax + 16], 0
Ltmp802:
	lea	rdi, [rbp - 288]
	mov	rsi, qword ptr [rbp - 392] 
	call	__ZNSt3__19to_stringEm
Ltmp803:

	movzx	edx, byte ptr [rbp - 288]
	test	dl, 1
	je	LBB32_4

	mov	rsi, qword ptr [rbp - 272]
	mov	rdx, qword ptr [rbp - 280]
	jmp	LBB32_6
LBB32_4:
	shr	rdx
	lea	rsi, [rbp - 287]
LBB32_6:
Ltmp805:
	lea	rdi, [rbp - 384]
	call	__ZNSt3__112basic_stringIcNS_11char_traitsIcEENS_9allocatorIcEEE6appendEPKcm
Ltmp806:

	mov	rcx, qword ptr [rax + 16]
	mov	qword ptr [rbp - 176], rcx
	mov	rcx, qword ptr [rax]
	mov	rdx, qword ptr [rax + 8]
	mov	qword ptr [rbp - 184], rdx
	mov	qword ptr [rbp - 192], rcx
	mov	qword ptr [rax], 0
	mov	qword ptr [rax + 8], 0
	mov	qword ptr [rax + 16], 0
Ltmp808:
	lea	rsi, [rip + L_.str.3]
	lea	rdi, [rbp - 192]
	call	__ZNSt3__112basic_stringIcNS_11char_traitsIcEENS_9allocatorIcEEE6appendEPKc
Ltmp809:

	mov	rcx, qword ptr [rax + 16]
	mov	qword ptr [rbp - 224], rcx
	mov	rcx, qword ptr [rax]
	mov	rdx, qword ptr [rax + 8]
	mov	qword ptr [rbp - 232], rdx
	mov	qword ptr [rbp - 240], rcx
	mov	qword ptr [rax], 0
	mov	qword ptr [rax + 8], 0
	mov	qword ptr [rax + 16], 0
	mov	bl, 1
Ltmp811:
	lea	rsi, [rbp - 240]
	mov	rdi, r14
	call	__ZN5Botan16Invalid_ArgumentC1ERKNSt3__112basic_stringIcNS1_11char_traitsIcEENS1_9allocatorIcEEEE
Ltmp812:

	xor	ebx, ebx
Ltmp813:
	mov	rsi, qword ptr [rip + __ZTIN5Botan16Invalid_ArgumentE@GOTPCREL]
	mov	rdx, qword ptr [rip + __ZN5Botan16Invalid_ArgumentD1Ev@GOTPCREL]
	mov	rdi, r14
	call	___cxa_throw
Ltmp814:
	jmp	LBB32_155
LBB32_13:
Ltmp810:
	mov	r15, rax
	mov	bl, 1
	test	byte ptr [rbp - 192], 1
	je	LBB32_18
	jmp	LBB32_17
LBB32_12:
Ltmp807:
	mov	r15, rax
	mov	bl, 1
	test	byte ptr [rbp - 288], 1
	je	LBB32_20
	jmp	LBB32_19
LBB32_11:
Ltmp804:
	mov	r15, rax
	mov	bl, 1
	test	byte ptr [rbp - 384], 1
	je	LBB32_22
	jmp	LBB32_21
LBB32_10:
Ltmp801:
	mov	r15, rax
	mov	bl, 1
	test	byte ptr [rbp - 336], 1
	je	LBB32_24
	jmp	LBB32_23
LBB32_14:
Ltmp815:
	mov	r15, rax
	test	byte ptr [rbp - 240], 1
	jne	LBB32_15

	test	byte ptr [rbp - 192], 1
	jne	LBB32_17
LBB32_18:
	test	byte ptr [rbp - 288], 1
	jne	LBB32_19
LBB32_20:
	test	byte ptr [rbp - 384], 1
	jne	LBB32_21
LBB32_22:
	test	byte ptr [rbp - 336], 1
	jne	LBB32_23
LBB32_24:
	test	bl, bl
	jne	LBB32_25
	jmp	LBB32_148
LBB32_15:
	mov	rdi, qword ptr [rbp - 224]
	call	__ZdlPv
	test	byte ptr [rbp - 192], 1
	je	LBB32_18
LBB32_17:
	mov	rdi, qword ptr [rbp - 176]
	call	__ZdlPv
	test	byte ptr [rbp - 288], 1
	je	LBB32_20
LBB32_19:
	mov	rdi, qword ptr [rbp - 272]
	call	__ZdlPv
	test	byte ptr [rbp - 384], 1
	je	LBB32_22
LBB32_21:
	mov	rdi, qword ptr [rbp - 368]
	call	__ZdlPv
	test	byte ptr [rbp - 336], 1
	je	LBB32_24
LBB32_23:
	mov	rdi, qword ptr [rbp - 320]
	call	__ZdlPv
	test	bl, bl
	je	LBB32_148
LBB32_25:
	mov	rdi, r14
	call	___cxa_free_exception
	jmp	LBB32_148
LBB32_31:
Ltmp793:
	mov	r15, rax
	mov	r14b, 1
	test	byte ptr [rbp - 192], 1
	je	LBB32_36
	jmp	LBB32_35
LBB32_32:
Ltmp798:
	mov	r15, rax
	test	byte ptr [rbp - 240], 1
	jne	LBB32_33

	test	byte ptr [rbp - 192], 1
	jne	LBB32_35
LBB32_36:
	test	r14b, r14b
	jne	LBB32_37
	jmp	LBB32_148
LBB32_33:
	mov	rdi, qword ptr [rbp - 224]
	call	__ZdlPv
	test	byte ptr [rbp - 192], 1
	je	LBB32_36
LBB32_35:
	mov	rdi, qword ptr [rbp - 176]
	call	__ZdlPv
	test	r14b, r14b
	je	LBB32_148
LBB32_37:
	mov	rdi, rbx
	call	___cxa_free_exception
	jmp	LBB32_148
LBB32_57:
Ltmp761:
	mov	r15, rax
	mov	r12, qword ptr [rbp - 48] 
	mov	r13, qword ptr [rbp - 56] 
	jmp	LBB32_61
LBB32_58:
Ltmp766:
	mov	r15, rax
	test	byte ptr [rbp - 96], 1
	je	LBB32_60

	mov	rdi, qword ptr [rbp - 80]
	call	__ZdlPv
LBB32_60:
	test	bl, bl
	mov	r12, qword ptr [rbp - 48] 
	mov	r13, qword ptr [rbp - 56] 
	je	LBB32_132
LBB32_61:
	mov	rdi, r14
	call	___cxa_free_exception
	jmp	LBB32_132
LBB32_175:
Ltmp758:
	mov	rdi, rax
	call	___clang_call_terminate
LBB32_174:
Ltmp755:
	mov	rdi, rax
	call	___clang_call_terminate
LBB32_173:
Ltmp752:
	mov	rdi, rax
	call	___clang_call_terminate
LBB32_172:
Ltmp749:
	mov	rdi, rax
	call	___clang_call_terminate
LBB32_171:
Ltmp746:
	mov	rdi, rax
	call	___clang_call_terminate
LBB32_170:
Ltmp743:
	mov	rdi, rax
	call	___clang_call_terminate
LBB32_169:
Ltmp740:
	mov	rdi, rax
	call	___clang_call_terminate
LBB32_168:
Ltmp737:
	mov	rdi, rax
	call	___clang_call_terminate
LBB32_167:
Ltmp734:
	mov	rdi, rax
	call	___clang_call_terminate
LBB32_166:
Ltmp731:
	mov	rdi, rax
	call	___clang_call_terminate
LBB32_165:
Ltmp728:
	mov	rdi, rax
	call	___clang_call_terminate
LBB32_163:
Ltmp708:
	mov	rdi, rax
	call	___clang_call_terminate
LBB32_162:
Ltmp702:
	mov	rdi, rax
	call	___clang_call_terminate
LBB32_161:
Ltmp696:
	mov	rdi, rax
	call	___clang_call_terminate
LBB32_160:
Ltmp690:
	mov	rdi, rax
	call	___clang_call_terminate
LBB32_156:
Ltmp652:
	mov	rdi, rax
	call	___clang_call_terminate
LBB32_164:
Ltmp716:
	mov	r15, rax
	mov	rdi, r14
	call	__ZNSt3__119__shared_weak_countD2Ev
	mov	rdi, r14
	call	__ZdlPv
	jmp	LBB32_118
LBB32_115:
Ltmp705:
	jmp	LBB32_117
LBB32_114:
Ltmp699:
	jmp	LBB32_117
LBB32_113:
Ltmp693:
	jmp	LBB32_117
LBB32_112:
Ltmp687:
	jmp	LBB32_117
LBB32_121:
Ltmp684:
	mov	r15, rax
	jmp	LBB32_122
LBB32_125:
Ltmp681:
	mov	r15, rax
	jmp	LBB32_126
LBB32_129:
Ltmp678:
	jmp	LBB32_130
LBB32_53:
Ltmp649:
	mov	r15, rax
	jmp	LBB32_132
LBB32_116:
Ltmp713:
LBB32_117:
	mov	r15, rax
LBB32_118:
	mov	rdi, qword ptr [rbp - 616]
	test	rdi, rdi
	je	LBB32_122

	mov	qword ptr [rbp - 608], rdi
	mov	rsi, qword ptr [rbp - 600]
	sub	rsi, rdi
	sar	rsi, 3
Ltmp717:
	mov	edx, 8
	call	__ZN5Botan17deallocate_memoryEPvmm
Ltmp718:
LBB32_122:
	mov	rdi, qword ptr [rbp - 568]
	test	rdi, rdi
	je	LBB32_126

	mov	qword ptr [rbp - 560], rdi
	mov	rsi, qword ptr [rbp - 552]
	sub	rsi, rdi
	sar	rsi, 3
Ltmp720:
	mov	edx, 8
	call	__ZN5Botan17deallocate_memoryEPvmm
Ltmp721:
LBB32_126:
	mov	rdi, qword ptr [rbp - 96]
	test	rdi, rdi
	je	LBB32_131

	mov	qword ptr [rbp - 88], rdi
	mov	rsi, qword ptr [rbp - 80]
	sub	rsi, rdi
	sar	rsi, 3
Ltmp723:
	mov	edx, 8
	call	__ZN5Botan17deallocate_memoryEPvmm
Ltmp724:
	jmp	LBB32_131
LBB32_120:
Ltmp719:
	mov	rdi, rax
	call	___clang_call_terminate
LBB32_124:
Ltmp722:
	mov	rdi, rax
	call	___clang_call_terminate
LBB32_128:
Ltmp725:
	mov	rdi, rax
	call	___clang_call_terminate
LBB32_159:
Ltmp672:
	mov	rdi, rax
	call	___clang_call_terminate
LBB32_158:
Ltmp664:
	mov	rdi, rax
	call	___clang_call_terminate
LBB32_157:
Ltmp658:
	mov	rdi, rax
	call	___clang_call_terminate
LBB32_111:
Ltmp669:
	jmp	LBB32_130
LBB32_55:
Ltmp661:
	jmp	LBB32_130
LBB32_54:
Ltmp655:
	jmp	LBB32_130
LBB32_56:
Ltmp675:
LBB32_130:
	mov	r15, rax
LBB32_131:
	mov	r12, qword ptr [rbp - 48] 
	mov	r13, qword ptr [rbp - 56] 
LBB32_132:
	mov	rdi, qword ptr [rbp - 432]
	test	rdi, rdi
	je	LBB32_134

	mov	qword ptr [rbp - 424], rdi
	mov	rsi, qword ptr [rbp - 416]
	sub	rsi, rdi
	sar	rsi, 3
Ltmp767:
	mov	edx, 8
	call	__ZN5Botan17deallocate_memoryEPvmm
Ltmp768:
LBB32_134:
	mov	rdi, qword ptr [rbp - 480]
	test	rdi, rdi
	je	LBB32_136

	mov	qword ptr [rbp - 472], rdi
	mov	rsi, qword ptr [rbp - 464]
	sub	rsi, rdi
	sar	rsi, 3
Ltmp770:
	mov	edx, 8
	call	__ZN5Botan17deallocate_memoryEPvmm
Ltmp771:
LBB32_136:
	mov	rdi, qword ptr [rbp - 528]
	test	rdi, rdi
	je	LBB32_138

	mov	qword ptr [rbp - 520], rdi
	mov	rsi, qword ptr [rbp - 512]
	sub	rsi, rdi
	sar	rsi, 3
Ltmp773:
	mov	edx, 8
	call	__ZN5Botan17deallocate_memoryEPvmm
Ltmp774:
LBB32_138:
	mov	rdi, qword ptr [rbp - 288]
	test	rdi, rdi
	je	LBB32_140

	mov	qword ptr [rbp - 280], rdi
	mov	rsi, qword ptr [rbp - 272]
	sub	rsi, rdi
	sar	rsi, 3
Ltmp776:
	mov	edx, 8
	call	__ZN5Botan17deallocate_memoryEPvmm
Ltmp777:
LBB32_140:
	mov	rdi, qword ptr [rbp - 336]
	test	rdi, rdi
	je	LBB32_142

	mov	qword ptr [rbp - 328], rdi
	mov	rsi, qword ptr [rbp - 320]
	sub	rsi, rdi
	sar	rsi, 3
Ltmp779:
	mov	edx, 8
	call	__ZN5Botan17deallocate_memoryEPvmm
Ltmp780:
LBB32_142:
	mov	rdi, qword ptr [rbp - 384]
	test	rdi, rdi
	je	LBB32_144

	mov	qword ptr [rbp - 376], rdi
	mov	rsi, qword ptr [rbp - 368]
	sub	rsi, rdi
	sar	rsi, 3
Ltmp782:
	mov	edx, 8
	call	__ZN5Botan17deallocate_memoryEPvmm
Ltmp783:
LBB32_144:
	mov	rdi, qword ptr [rbp - 192]
	test	rdi, rdi
	je	LBB32_146

	mov	qword ptr [rbp - 184], rdi
	mov	rsi, qword ptr [rbp - 176]
	sub	rsi, rdi
	sar	rsi, 3
Ltmp785:
	mov	edx, 8
	call	__ZN5Botan17deallocate_memoryEPvmm
Ltmp786:
LBB32_146:
	mov	rdi, qword ptr [rbp - 240]
	test	rdi, rdi
	je	LBB32_148

	mov	qword ptr [rbp - 232], rdi
	mov	rsi, qword ptr [rbp - 224]
	sub	rsi, rdi
	sar	rsi, 3
Ltmp788:
	mov	edx, 8
	call	__ZN5Botan17deallocate_memoryEPvmm
Ltmp789:
LBB32_148:
	mov	rbx, qword ptr [r12 + 40]
	test	rbx, rbx
	je	LBB32_151

	mov	rax, -1
	lock		xadd	qword ptr [rbx + 8], rax
	test	rax, rax
	jne	LBB32_151

	mov	rax, qword ptr [rbx]
	mov	rdi, rbx
	call	qword ptr [rax + 16]
	mov	rdi, rbx
	call	__ZNSt3__119__shared_weak_count14__release_weakEv
LBB32_151:
	mov	rax, qword ptr [r13 + 24]
	mov	qword ptr [r12 + 8], rax
	mov	rcx, qword ptr [r13 + 32]
	mov	rax, qword ptr [rax - 136]
	mov	qword ptr [r12 + rax + 8], rcx
	mov	rbx, qword ptr [r12 + 24]
	test	rbx, rbx
	je	LBB32_154

	mov	rax, -1
	lock		xadd	qword ptr [rbx + 8], rax
	test	rax, rax
	jne	LBB32_154

	mov	rax, qword ptr [rbx]
	mov	rdi, rbx
	call	qword ptr [rax + 16]
	mov	rdi, rbx
	call	__ZNSt3__119__shared_weak_count14__release_weakEv
LBB32_154:
	mov	rdi, r15
	call	__Unwind_Resume
LBB32_155:
	ud2
LBB32_183:
Ltmp790:
	mov	rdi, rax
	call	___clang_call_terminate
LBB32_182:
Ltmp787:
	mov	rdi, rax
	call	___clang_call_terminate
LBB32_181:
Ltmp784:
	mov	rdi, rax
	call	___clang_call_terminate
LBB32_180:
Ltmp781:
	mov	rdi, rax
	call	___clang_call_terminate
LBB32_179:
Ltmp778:
	mov	rdi, rax
	call	___clang_call_terminate
LBB32_178:
Ltmp775:
	mov	rdi, rax
	call	___clang_call_terminate
LBB32_177:
Ltmp772:
	mov	rdi, rax
	call	___clang_call_terminate
LBB32_176:
Ltmp769:
	mov	rdi, rax
	call	___clang_call_terminate
Lfunc_end14:
	.cfi_endproc
	.section	__TEXT,__gcc_except_tab
	.p2align	2
GCC_except_table32:
Lexception14:
	.byte	255                     
	.byte	155                     
	.uleb128 Lttbase10-Lttbaseref10
Lttbaseref10:
	.byte	1                       
	.uleb128 Lcst_end14-Lcst_begin14
Lcst_begin14:
	.uleb128 Ltmp647-Lfunc_begin14  
	.uleb128 Ltmp648-Ltmp647        
	.uleb128 Ltmp649-Lfunc_begin14  
	.byte	0                       
	.uleb128 Ltmp650-Lfunc_begin14  
	.uleb128 Ltmp651-Ltmp650        
	.uleb128 Ltmp652-Lfunc_begin14  
	.byte	1                       
	.uleb128 Ltmp653-Lfunc_begin14  
	.uleb128 Ltmp654-Ltmp653        
	.uleb128 Ltmp655-Lfunc_begin14  
	.byte	0                       
	.uleb128 Ltmp656-Lfunc_begin14  
	.uleb128 Ltmp657-Ltmp656        
	.uleb128 Ltmp658-Lfunc_begin14  
	.byte	1                       
	.uleb128 Ltmp659-Lfunc_begin14  
	.uleb128 Ltmp660-Ltmp659        
	.uleb128 Ltmp661-Lfunc_begin14  
	.byte	0                       
	.uleb128 Ltmp662-Lfunc_begin14  
	.uleb128 Ltmp663-Ltmp662        
	.uleb128 Ltmp664-Lfunc_begin14  
	.byte	1                       
	.uleb128 Ltmp665-Lfunc_begin14  
	.uleb128 Ltmp666-Ltmp665        
	.uleb128 Ltmp675-Lfunc_begin14  
	.byte	0                       
	.uleb128 Ltmp667-Lfunc_begin14  
	.uleb128 Ltmp668-Ltmp667        
	.uleb128 Ltmp669-Lfunc_begin14  
	.byte	0                       
	.uleb128 Ltmp670-Lfunc_begin14  
	.uleb128 Ltmp671-Ltmp670        
	.uleb128 Ltmp672-Lfunc_begin14  
	.byte	1                       
	.uleb128 Ltmp673-Lfunc_begin14  
	.uleb128 Ltmp674-Ltmp673        
	.uleb128 Ltmp675-Lfunc_begin14  
	.byte	0                       
	.uleb128 Ltmp676-Lfunc_begin14  
	.uleb128 Ltmp677-Ltmp676        
	.uleb128 Ltmp678-Lfunc_begin14  
	.byte	0                       
	.uleb128 Ltmp679-Lfunc_begin14  
	.uleb128 Ltmp680-Ltmp679        
	.uleb128 Ltmp681-Lfunc_begin14  
	.byte	0                       
	.uleb128 Ltmp682-Lfunc_begin14  
	.uleb128 Ltmp683-Ltmp682        
	.uleb128 Ltmp684-Lfunc_begin14  
	.byte	0                       
	.uleb128 Ltmp685-Lfunc_begin14  
	.uleb128 Ltmp686-Ltmp685        
	.uleb128 Ltmp687-Lfunc_begin14  
	.byte	0                       
	.uleb128 Ltmp688-Lfunc_begin14  
	.uleb128 Ltmp689-Ltmp688        
	.uleb128 Ltmp690-Lfunc_begin14  
	.byte	1                       
	.uleb128 Ltmp691-Lfunc_begin14  
	.uleb128 Ltmp692-Ltmp691        
	.uleb128 Ltmp693-Lfunc_begin14  
	.byte	0                       
	.uleb128 Ltmp694-Lfunc_begin14  
	.uleb128 Ltmp695-Ltmp694        
	.uleb128 Ltmp696-Lfunc_begin14  
	.byte	1                       
	.uleb128 Ltmp697-Lfunc_begin14  
	.uleb128 Ltmp698-Ltmp697        
	.uleb128 Ltmp699-Lfunc_begin14  
	.byte	0                       
	.uleb128 Ltmp700-Lfunc_begin14  
	.uleb128 Ltmp701-Ltmp700        
	.uleb128 Ltmp702-Lfunc_begin14  
	.byte	1                       
	.uleb128 Ltmp703-Lfunc_begin14  
	.uleb128 Ltmp704-Ltmp703        
	.uleb128 Ltmp705-Lfunc_begin14  
	.byte	0                       
	.uleb128 Ltmp706-Lfunc_begin14  
	.uleb128 Ltmp707-Ltmp706        
	.uleb128 Ltmp708-Lfunc_begin14  
	.byte	1                       
	.uleb128 Ltmp709-Lfunc_begin14  
	.uleb128 Ltmp712-Ltmp709        
	.uleb128 Ltmp713-Lfunc_begin14  
	.byte	0                       
	.uleb128 Ltmp714-Lfunc_begin14  
	.uleb128 Ltmp715-Ltmp714        
	.uleb128 Ltmp716-Lfunc_begin14  
	.byte	0                       
	.uleb128 Ltmp715-Lfunc_begin14  
	.uleb128 Ltmp726-Ltmp715        
	.byte	0                       
	.byte	0                       
	.uleb128 Ltmp726-Lfunc_begin14  
	.uleb128 Ltmp727-Ltmp726        
	.uleb128 Ltmp728-Lfunc_begin14  
	.byte	1                       
	.uleb128 Ltmp729-Lfunc_begin14  
	.uleb128 Ltmp730-Ltmp729        
	.uleb128 Ltmp731-Lfunc_begin14  
	.byte	1                       
	.uleb128 Ltmp732-Lfunc_begin14  
	.uleb128 Ltmp733-Ltmp732        
	.uleb128 Ltmp734-Lfunc_begin14  
	.byte	1                       
	.uleb128 Ltmp735-Lfunc_begin14  
	.uleb128 Ltmp736-Ltmp735        
	.uleb128 Ltmp737-Lfunc_begin14  
	.byte	1                       
	.uleb128 Ltmp738-Lfunc_begin14  
	.uleb128 Ltmp739-Ltmp738        
	.uleb128 Ltmp740-Lfunc_begin14  
	.byte	1                       
	.uleb128 Ltmp741-Lfunc_begin14  
	.uleb128 Ltmp742-Ltmp741        
	.uleb128 Ltmp743-Lfunc_begin14  
	.byte	1                       
	.uleb128 Ltmp744-Lfunc_begin14  
	.uleb128 Ltmp745-Ltmp744        
	.uleb128 Ltmp746-Lfunc_begin14  
	.byte	1                       
	.uleb128 Ltmp747-Lfunc_begin14  
	.uleb128 Ltmp748-Ltmp747        
	.uleb128 Ltmp749-Lfunc_begin14  
	.byte	1                       
	.uleb128 Ltmp750-Lfunc_begin14  
	.uleb128 Ltmp751-Ltmp750        
	.uleb128 Ltmp752-Lfunc_begin14  
	.byte	1                       
	.uleb128 Ltmp753-Lfunc_begin14  
	.uleb128 Ltmp754-Ltmp753        
	.uleb128 Ltmp755-Lfunc_begin14  
	.byte	1                       
	.uleb128 Ltmp756-Lfunc_begin14  
	.uleb128 Ltmp757-Ltmp756        
	.uleb128 Ltmp758-Lfunc_begin14  
	.byte	1                       
	.uleb128 Ltmp757-Lfunc_begin14  
	.uleb128 Ltmp759-Ltmp757        
	.byte	0                       
	.byte	0                       
	.uleb128 Ltmp759-Lfunc_begin14  
	.uleb128 Ltmp760-Ltmp759        
	.uleb128 Ltmp761-Lfunc_begin14  
	.byte	0                       
	.uleb128 Ltmp762-Lfunc_begin14  
	.uleb128 Ltmp765-Ltmp762        
	.uleb128 Ltmp766-Lfunc_begin14  
	.byte	0                       
	.uleb128 Ltmp765-Lfunc_begin14  
	.uleb128 Ltmp791-Ltmp765        
	.byte	0                       
	.byte	0                       
	.uleb128 Ltmp791-Lfunc_begin14  
	.uleb128 Ltmp792-Ltmp791        
	.uleb128 Ltmp793-Lfunc_begin14  
	.byte	0                       
	.uleb128 Ltmp794-Lfunc_begin14  
	.uleb128 Ltmp797-Ltmp794        
	.uleb128 Ltmp798-Lfunc_begin14  
	.byte	0                       
	.uleb128 Ltmp797-Lfunc_begin14  
	.uleb128 Ltmp799-Ltmp797        
	.byte	0                       
	.byte	0                       
	.uleb128 Ltmp799-Lfunc_begin14  
	.uleb128 Ltmp800-Ltmp799        
	.uleb128 Ltmp801-Lfunc_begin14  
	.byte	0                       
	.uleb128 Ltmp802-Lfunc_begin14  
	.uleb128 Ltmp803-Ltmp802        
	.uleb128 Ltmp804-Lfunc_begin14  
	.byte	0                       
	.uleb128 Ltmp805-Lfunc_begin14  
	.uleb128 Ltmp806-Ltmp805        
	.uleb128 Ltmp807-Lfunc_begin14  
	.byte	0                       
	.uleb128 Ltmp808-Lfunc_begin14  
	.uleb128 Ltmp809-Ltmp808        
	.uleb128 Ltmp810-Lfunc_begin14  
	.byte	0                       
	.uleb128 Ltmp811-Lfunc_begin14  
	.uleb128 Ltmp814-Ltmp811        
	.uleb128 Ltmp815-Lfunc_begin14  
	.byte	0                       
	.uleb128 Ltmp814-Lfunc_begin14  
	.uleb128 Ltmp717-Ltmp814        
	.byte	0                       
	.byte	0                       
	.uleb128 Ltmp717-Lfunc_begin14  
	.uleb128 Ltmp718-Ltmp717        
	.uleb128 Ltmp719-Lfunc_begin14  
	.byte	1                       
	.uleb128 Ltmp720-Lfunc_begin14  
	.uleb128 Ltmp721-Ltmp720        
	.uleb128 Ltmp722-Lfunc_begin14  
	.byte	1                       
	.uleb128 Ltmp723-Lfunc_begin14  
	.uleb128 Ltmp724-Ltmp723        
	.uleb128 Ltmp725-Lfunc_begin14  
	.byte	1                       
	.uleb128 Ltmp767-Lfunc_begin14  
	.uleb128 Ltmp768-Ltmp767        
	.uleb128 Ltmp769-Lfunc_begin14  
	.byte	1                       
	.uleb128 Ltmp770-Lfunc_begin14  
	.uleb128 Ltmp771-Ltmp770        
	.uleb128 Ltmp772-Lfunc_begin14  
	.byte	1                       
	.uleb128 Ltmp773-Lfunc_begin14  
	.uleb128 Ltmp774-Ltmp773        
	.uleb128 Ltmp775-Lfunc_begin14  
	.byte	1                       
	.uleb128 Ltmp776-Lfunc_begin14  
	.uleb128 Ltmp777-Ltmp776        
	.uleb128 Ltmp778-Lfunc_begin14  
	.byte	1                       
	.uleb128 Ltmp779-Lfunc_begin14  
	.uleb128 Ltmp780-Ltmp779        
	.uleb128 Ltmp781-Lfunc_begin14  
	.byte	1                       
	.uleb128 Ltmp782-Lfunc_begin14  
	.uleb128 Ltmp783-Ltmp782        
	.uleb128 Ltmp784-Lfunc_begin14  
	.byte	1                       
	.uleb128 Ltmp785-Lfunc_begin14  
	.uleb128 Ltmp786-Ltmp785        
	.uleb128 Ltmp787-Lfunc_begin14  
	.byte	1                       
	.uleb128 Ltmp788-Lfunc_begin14  
	.uleb128 Ltmp789-Ltmp788        
	.uleb128 Ltmp790-Lfunc_begin14  
	.byte	1                       
	.uleb128 Ltmp789-Lfunc_begin14  
	.uleb128 Lfunc_end14-Ltmp789    
	.byte	0                       
	.byte	0                       
Lcst_end14:
	.byte	1                       
                                        
	.byte	0                       
	.p2align	2
                                        
	.long	0                       
Lttbase10:
	.p2align	2
                                        
	.section	__TEXT,__text,regular,pure_instructions
	.globl	__ZNK5Botan13RSA_PublicKey9algo_nameEv 
	.weak_def_can_be_hidden	__ZNK5Botan13RSA_PublicKey9algo_nameEv
	.p2align	4, 0x90
__ZNK5Botan13RSA_PublicKey9algo_nameEv: 
	.cfi_startproc

	push	rbp
	.cfi_def_cfa_offset 16
	.cfi_offset rbp, -16
	mov	rbp, rsp
	.cfi_def_cfa_register rbp
	mov	rax, rdi
	mov	byte ptr [rdi], 6
	mov	dword ptr [rdi + 1], 4281170
	pop	rbp
	ret
	.cfi_endproc
                                        
	.globl	__ZN5Botan16Invalid_ArgumentD1Ev 
	.weak_def_can_be_hidden	__ZN5Botan16Invalid_ArgumentD1Ev
	.p2align	4, 0x90
__ZN5Botan16Invalid_ArgumentD1Ev:       
	.cfi_startproc

	push	rbp
	.cfi_def_cfa_offset 16
	.cfi_offset rbp, -16
	mov	rbp, rsp
	.cfi_def_cfa_register rbp
	push	rbx
	push	rax
	.cfi_offset rbx, -24
	mov	rbx, rdi
	mov	rax, qword ptr [rip + __ZTVN5Botan9ExceptionE@GOTPCREL]
	add	rax, 16
	mov	qword ptr [rdi], rax
	test	byte ptr [rdi + 8], 1
	je	LBB34_2

	mov	rdi, qword ptr [rbx + 24]
	call	__ZdlPv
LBB34_2:
	mov	rdi, rbx
	add	rsp, 8
	pop	rbx
	pop	rbp
	jmp	__ZNSt9exceptionD2Ev    
	.cfi_endproc
                                        
	.globl	__ZN5Botan14Internal_ErrorD1Ev 
	.weak_def_can_be_hidden	__ZN5Botan14Internal_ErrorD1Ev
	.p2align	4, 0x90
__ZN5Botan14Internal_ErrorD1Ev:         
	.cfi_startproc

	push	rbp
	.cfi_def_cfa_offset 16
	.cfi_offset rbp, -16
	mov	rbp, rsp
	.cfi_def_cfa_register rbp
	push	rbx
	push	rax
	.cfi_offset rbx, -24
	mov	rbx, rdi
	mov	rax, qword ptr [rip + __ZTVN5Botan9ExceptionE@GOTPCREL]
	add	rax, 16
	mov	qword ptr [rdi], rax
	test	byte ptr [rdi + 8], 1
	je	LBB35_2

	mov	rdi, qword ptr [rbx + 24]
	call	__ZdlPv
LBB35_2:
	mov	rdi, rbx
	add	rsp, 8
	pop	rbx
	pop	rbp
	jmp	__ZNSt9exceptionD2Ev    
	.cfi_endproc
                                        
	.section	__TEXT,__literal16,16byte_literals
	.p2align	4               
LCPI36_0:
	.quad	49                      
	.quad	37                      
	.section	__TEXT,__text,regular,pure_instructions
	.globl	__ZN5Botan14RSA_PrivateKeyC1ERNS_21RandomNumberGeneratorEmm
	.p2align	4, 0x90
__ZN5Botan14RSA_PrivateKeyC1ERNS_21RandomNumberGeneratorEmm: 
Lfunc_begin15:
	.cfi_startproc
	.cfi_personality 155, ___gxx_personality_v0
	.cfi_lsda 16, Lexception15

	push	rbp
	.cfi_def_cfa_offset 16
	.cfi_offset rbp, -16
	mov	rbp, rsp
	.cfi_def_cfa_register rbp
	push	r15
	push	r14
	push	r13
	push	r12
	push	rbx
	sub	rsp, 584
	.cfi_offset rbx, -56
	.cfi_offset r12, -48
	.cfi_offset r13, -40
	.cfi_offset r14, -32
	.cfi_offset r15, -24
	mov	r12, rdi
	mov	qword ptr [rdi + 24], 0
	mov	qword ptr [rdi + 16], 0
	lea	rax, [rip + __ZTVN5Botan14RSA_PrivateKeyE+136]
	mov	qword ptr [rdi], rax
	lea	rax, [rip + __ZTVN5Botan14RSA_PrivateKeyE+456]
	mov	qword ptr [rdi + 8], rax
	mov	qword ptr [rdi + 32], 0
	mov	qword ptr [rdi + 40], 0
	mov	qword ptr [rbp - 392], rdx 
	cmp	rdx, 1023
	jbe	LBB36_1

	cmp	rcx, 3
	jb	LBB36_28

	mov	eax, ecx
	and	eax, 1
	test	rax, rax
	je	LBB36_28

	mov	rbx, rsi
	pxor	xmm0, xmm0
	movdqa	xmmword ptr [rbp - 240], xmm0
	mov	qword ptr [rbp - 224], 0
	mov	qword ptr [rbp - 216], -1
	mov	dword ptr [rbp - 208], 1
	movdqa	xmmword ptr [rbp - 192], xmm0
	mov	qword ptr [rbp - 176], 0
	mov	qword ptr [rbp - 168], -1
	mov	dword ptr [rbp - 160], 1
	movdqa	xmmword ptr [rbp - 384], xmm0
	mov	qword ptr [rbp - 368], 0
	mov	qword ptr [rbp - 360], -1
	mov	dword ptr [rbp - 352], 1
	movdqa	xmmword ptr [rbp - 336], xmm0
	mov	qword ptr [rbp - 320], 0
	mov	qword ptr [rbp - 312], -1
	mov	dword ptr [rbp - 304], 1
	movdqa	xmmword ptr [rbp - 288], xmm0
	mov	qword ptr [rbp - 272], 0
	mov	qword ptr [rbp - 264], -1
	mov	dword ptr [rbp - 256], 1
	movdqa	xmmword ptr [rbp - 528], xmm0
	mov	qword ptr [rbp - 512], 0
	mov	qword ptr [rbp - 504], -1
	mov	dword ptr [rbp - 496], 1
	movdqa	xmmword ptr [rbp - 480], xmm0
	mov	qword ptr [rbp - 464], 0
	mov	qword ptr [rbp - 456], -1
	mov	dword ptr [rbp - 448], 1
	movdqa	xmmword ptr [rbp - 432], xmm0
	mov	qword ptr [rbp - 416], 0
	mov	qword ptr [rbp - 408], -1
	mov	dword ptr [rbp - 400], 1
Ltmp816:
	lea	rdi, [rbp - 96]
	mov	rsi, rcx
	call	__ZN5Botan6BigIntC1Ey
Ltmp817:

	movaps	xmm1, xmmword ptr [rbp - 96]
	movaps	xmm2, xmmword ptr [rbp - 80]
	movdqa	xmm3, xmmword ptr [rbp - 192]
	movdqa	xmm0, xmmword ptr [rbp - 176]
	movaps	xmmword ptr [rbp - 192], xmm1
	movdqa	xmmword ptr [rbp - 96], xmm3
	movaps	xmmword ptr [rbp - 176], xmm2
	movdqa	xmmword ptr [rbp - 80], xmm0
	mov	eax, dword ptr [rbp - 160]
	mov	ecx, dword ptr [rbp - 64]
	mov	dword ptr [rbp - 160], ecx
	mov	dword ptr [rbp - 64], eax
	movq	rdi, xmm3
	test	rdi, rdi
	je	LBB36_41

	mov	qword ptr [rbp - 88], rdi
	movq	rsi, xmm0
	sub	rsi, rdi
	sar	rsi, 3
Ltmp819:
	mov	edx, 8
	call	__ZN5Botan17deallocate_memoryEPvmm
Ltmp820:
LBB36_41:
	mov	qword ptr [rbp - 48], r12 
	lea	rax, [r12 + 8]
	mov	qword ptr [rbp - 576], rax 
	mov	r12, qword ptr [rbp - 392] 
	lea	r13, [r12 + 1]
	shr	r13
	sub	r12, r13
	lea	r15, [rbp - 96]
	lea	r14, [rbp - 288]
	.p2align	4, 0x90
LBB36_42:                               
Ltmp822:
	mov	r9d, 128
	mov	rdi, r15
	mov	rsi, rbx
	mov	rdx, rbx
	mov	rcx, r13
	lea	r8, [rbp - 192]
	call	__ZN5Botan18generate_rsa_primeERNS_21RandomNumberGeneratorES1_mRKNS_6BigIntEm
Ltmp823:

	movaps	xmm1, xmmword ptr [rbp - 96]
	movaps	xmm2, xmmword ptr [rbp - 80]
	movdqa	xmm3, xmmword ptr [rbp - 336]
	movdqa	xmm0, xmmword ptr [rbp - 320]
	movaps	xmmword ptr [rbp - 336], xmm1
	movdqa	xmmword ptr [rbp - 96], xmm3
	movaps	xmmword ptr [rbp - 320], xmm2
	movdqa	xmmword ptr [rbp - 80], xmm0
	mov	eax, dword ptr [rbp - 304]
	mov	ecx, dword ptr [rbp - 64]
	mov	dword ptr [rbp - 304], ecx
	mov	dword ptr [rbp - 64], eax
	movq	rdi, xmm3
	test	rdi, rdi
	je	LBB36_45

	mov	qword ptr [rbp - 88], rdi
	movq	rsi, xmm0
	sub	rsi, rdi
	sar	rsi, 3
Ltmp825:
	mov	edx, 8
	call	__ZN5Botan17deallocate_memoryEPvmm
Ltmp826:
LBB36_45:                               
Ltmp828:
	mov	r9d, 128
	mov	rdi, r15
	mov	rsi, rbx
	mov	rdx, rbx
	mov	rcx, r12
	lea	r8, [rbp - 192]
	call	__ZN5Botan18generate_rsa_primeERNS_21RandomNumberGeneratorES1_mRKNS_6BigIntEm
Ltmp829:

	movaps	xmm1, xmmword ptr [rbp - 96]
	movaps	xmm2, xmmword ptr [rbp - 80]
	movdqa	xmm3, xmmword ptr [rbp - 288]
	movdqa	xmm0, xmmword ptr [rbp - 272]
	movaps	xmmword ptr [rbp - 288], xmm1
	movdqa	xmmword ptr [rbp - 96], xmm3
	movaps	xmmword ptr [rbp - 272], xmm2
	movdqa	xmmword ptr [rbp - 80], xmm0
	mov	eax, dword ptr [rbp - 256]
	mov	ecx, dword ptr [rbp - 64]
	mov	dword ptr [rbp - 256], ecx
	mov	dword ptr [rbp - 64], eax
	movq	rdi, xmm3
	test	rdi, rdi
	je	LBB36_48

	mov	qword ptr [rbp - 88], rdi
	movq	rsi, xmm0
	sub	rsi, rdi
	sar	rsi, 3
Ltmp831:
	mov	edx, 8
	call	__ZN5Botan17deallocate_memoryEPvmm
Ltmp832:
LBB36_48:                               
Ltmp834:
	lea	rdi, [rbp - 336]
	mov	rsi, r14
	call	__ZNK5Botan6BigInt8is_equalERKS0_
Ltmp835:

	test	al, al
	jne	LBB36_50

Ltmp836:
	mov	rdi, r15
	lea	rsi, [rbp - 336]
	mov	rdx, r14
	call	__ZN5BotanmlERKNS_6BigIntES2_
Ltmp837:

	movaps	xmm1, xmmword ptr [rbp - 96]
	movaps	xmm2, xmmword ptr [rbp - 80]
	movdqa	xmm3, xmmword ptr [rbp - 240]
	movdqa	xmm0, xmmword ptr [rbp - 224]
	movaps	xmmword ptr [rbp - 240], xmm1
	movdqa	xmmword ptr [rbp - 96], xmm3
	movaps	xmmword ptr [rbp - 224], xmm2
	movdqa	xmmword ptr [rbp - 80], xmm0
	mov	eax, dword ptr [rbp - 208]
	mov	ecx, dword ptr [rbp - 64]
	mov	dword ptr [rbp - 208], ecx
	mov	dword ptr [rbp - 64], eax
	movq	rdi, xmm3
	test	rdi, rdi
	je	LBB36_65

	mov	qword ptr [rbp - 88], rdi
	movq	rsi, xmm0
	sub	rsi, rdi
	sar	rsi, 3
Ltmp839:
	mov	edx, 8
	call	__ZN5Botan17deallocate_memoryEPvmm
Ltmp840:
LBB36_65:                               
Ltmp842:
	lea	rdi, [rbp - 240]
	call	__ZNK5Botan6BigInt4bitsEv
Ltmp843:

	cmp	rax, qword ptr [rbp - 392] 
	jne	LBB36_42

	mov	qword ptr [rbp - 568], 1
Ltmp845:
	lea	rdi, [rbp - 96]
	lea	rsi, [rbp - 336]
	lea	rdx, [rbp - 568]
	mov	ecx, 1
	xor	r8d, r8d
	call	__ZN5Botan6BigInt4add2ERKS0_PKymNS0_4SignE
Ltmp846:

	mov	qword ptr [rbp - 616], 1
Ltmp848:
	lea	rdi, [rbp - 568]
	lea	rsi, [rbp - 288]
	lea	rdx, [rbp - 616]
	mov	ecx, 1
	xor	r8d, r8d
	mov	r14, qword ptr [rbp - 48] 
	call	__ZN5Botan6BigInt4add2ERKS0_PKymNS0_4SignE
Ltmp849:

Ltmp851:
	lea	rdi, [rbp - 616]
	lea	rsi, [rbp - 96]
	lea	rdx, [rbp - 568]
	call	__ZN5Botan3lcmERKNS_6BigIntES2_
Ltmp852:

Ltmp854:
	lea	rdi, [rbp - 144]
	lea	rsi, [rbp - 192]
	lea	rdx, [rbp - 616]
	call	__ZN5Botan11inverse_modERKNS_6BigIntES2_
Ltmp855:

	movaps	xmm1, xmmword ptr [rbp - 144]
	movaps	xmm2, xmmword ptr [rbp - 128]
	movdqa	xmm3, xmmword ptr [rbp - 384]
	movdqa	xmm0, xmmword ptr [rbp - 368]
	movaps	xmmword ptr [rbp - 384], xmm1
	movdqa	xmmword ptr [rbp - 144], xmm3
	movaps	xmmword ptr [rbp - 368], xmm2
	movdqa	xmmword ptr [rbp - 128], xmm0
	mov	eax, dword ptr [rbp - 352]
	mov	ecx, dword ptr [rbp - 112]
	mov	dword ptr [rbp - 352], ecx
	mov	dword ptr [rbp - 112], eax
	movq	rdi, xmm3
	test	rdi, rdi
	je	LBB36_73

	mov	qword ptr [rbp - 136], rdi
	movq	rsi, xmm0
	sub	rsi, rdi
	sar	rsi, 3
Ltmp857:
	mov	edx, 8
	call	__ZN5Botan17deallocate_memoryEPvmm
Ltmp858:
LBB36_73:
Ltmp860:
	lea	rdi, [rbp - 144]
	lea	rsi, [rbp - 384]
	lea	rdx, [rbp - 96]
	call	__ZN5Botan9ct_moduloERKNS_6BigIntES2_
Ltmp861:

	movaps	xmm1, xmmword ptr [rbp - 144]
	movaps	xmm2, xmmword ptr [rbp - 128]
	movdqa	xmm3, xmmword ptr [rbp - 528]
	movdqa	xmm0, xmmword ptr [rbp - 512]
	movaps	xmmword ptr [rbp - 528], xmm1
	movdqa	xmmword ptr [rbp - 144], xmm3
	movaps	xmmword ptr [rbp - 512], xmm2
	movdqa	xmmword ptr [rbp - 128], xmm0
	mov	eax, dword ptr [rbp - 496]
	mov	ecx, dword ptr [rbp - 112]
	mov	dword ptr [rbp - 496], ecx
	mov	dword ptr [rbp - 112], eax
	movq	rdi, xmm3
	test	rdi, rdi
	je	LBB36_76

	mov	qword ptr [rbp - 136], rdi
	movq	rsi, xmm0
	sub	rsi, rdi
	sar	rsi, 3
Ltmp863:
	mov	edx, 8
	call	__ZN5Botan17deallocate_memoryEPvmm
Ltmp864:
LBB36_76:
Ltmp866:
	lea	rdi, [rbp - 144]
	lea	rsi, [rbp - 384]
	lea	rdx, [rbp - 568]
	call	__ZN5Botan9ct_moduloERKNS_6BigIntES2_
Ltmp867:

	movaps	xmm1, xmmword ptr [rbp - 144]
	movaps	xmm2, xmmword ptr [rbp - 128]
	movdqa	xmm3, xmmword ptr [rbp - 480]
	movdqa	xmm0, xmmword ptr [rbp - 464]
	movaps	xmmword ptr [rbp - 480], xmm1
	movdqa	xmmword ptr [rbp - 144], xmm3
	movaps	xmmword ptr [rbp - 464], xmm2
	movdqa	xmmword ptr [rbp - 128], xmm0
	mov	eax, dword ptr [rbp - 448]
	mov	ecx, dword ptr [rbp - 112]
	mov	dword ptr [rbp - 448], ecx
	mov	dword ptr [rbp - 112], eax
	movq	rdi, xmm3
	test	rdi, rdi
	je	LBB36_79

	mov	qword ptr [rbp - 136], rdi
	movq	rsi, xmm0
	sub	rsi, rdi
	sar	rsi, 3
Ltmp869:
	mov	edx, 8
	call	__ZN5Botan17deallocate_memoryEPvmm
Ltmp870:
LBB36_79:
Ltmp872:
	lea	rdi, [rbp - 144]
	lea	rsi, [rbp - 288]
	lea	rdx, [rbp - 336]
	call	__ZN5Botan11inverse_modERKNS_6BigIntES2_
Ltmp873:

	movaps	xmm1, xmmword ptr [rbp - 144]
	movaps	xmm2, xmmword ptr [rbp - 128]
	movdqa	xmm3, xmmword ptr [rbp - 432]
	movdqa	xmm0, xmmword ptr [rbp - 416]
	movaps	xmmword ptr [rbp - 432], xmm1
	movdqa	xmmword ptr [rbp - 144], xmm3
	movaps	xmmword ptr [rbp - 416], xmm2
	movdqa	xmmword ptr [rbp - 128], xmm0
	mov	eax, dword ptr [rbp - 400]
	mov	ecx, dword ptr [rbp - 112]
	mov	dword ptr [rbp - 400], ecx
	mov	dword ptr [rbp - 112], eax
	movq	rdi, xmm3
	test	rdi, rdi
	je	LBB36_82

	mov	qword ptr [rbp - 136], rdi
	movq	rsi, xmm0
	sub	rsi, rdi
	sar	rsi, 3
Ltmp875:
	mov	edx, 8
	call	__ZN5Botan17deallocate_memoryEPvmm
Ltmp876:
LBB36_82:
Ltmp878:
	lea	rsi, [rbp - 240]
	lea	rdx, [rbp - 192]
	mov	rdi, qword ptr [rbp - 576] 
	call	__ZN5Botan13RSA_PublicKey4initEONS_6BigIntES2_
Ltmp879:

Ltmp880:
	mov	edi, 488
	call	__Znwm
Ltmp881:

	mov	r15, rax
	mov	qword ptr [rax + 16], 0
	mov	qword ptr [rax + 8], 0
	mov	rax, qword ptr [rip + __ZTVNSt3__120__shared_ptr_emplaceIN5Botan16RSA_Private_DataENS_9allocatorIS2_EEEE@GOTPCREL]
	add	rax, 16
	mov	qword ptr [r15], rax
	mov	rbx, r15
	add	rbx, 24
Ltmp883:
	lea	rax, [rbp - 432]
	mov	qword ptr [rsp], rax
	lea	rsi, [rbp - 384]
	lea	rdx, [rbp - 336]
	lea	rcx, [rbp - 288]
	lea	r8, [rbp - 528]
	lea	r9, [rbp - 480]
	mov	rdi, rbx
	call	__ZN5Botan16RSA_Private_DataC2EONS_6BigIntES2_S2_S2_S2_S2_
Ltmp884:

	mov	qword ptr [r14 + 32], rbx
	mov	rbx, qword ptr [r14 + 40]
	mov	qword ptr [r14 + 40], r15
	test	rbx, rbx
	je	LBB36_88

	mov	rax, -1
	lock		xadd	qword ptr [rbx + 8], rax
	test	rax, rax
	jne	LBB36_88

	mov	rax, qword ptr [rbx]
	mov	rdi, rbx
	call	qword ptr [rax + 16]
	mov	rdi, rbx
	call	__ZNSt3__119__shared_weak_count14__release_weakEv
LBB36_88:
	mov	rdi, qword ptr [rbp - 616]
	test	rdi, rdi
	je	LBB36_90

	mov	qword ptr [rbp - 608], rdi
	mov	rsi, qword ptr [rbp - 600]
	sub	rsi, rdi
	sar	rsi, 3
Ltmp895:
	mov	edx, 8
	call	__ZN5Botan17deallocate_memoryEPvmm
Ltmp896:
LBB36_90:
	mov	rdi, qword ptr [rbp - 568]
	test	rdi, rdi
	je	LBB36_92

	mov	qword ptr [rbp - 560], rdi
	mov	rsi, qword ptr [rbp - 552]
	sub	rsi, rdi
	sar	rsi, 3
Ltmp898:
	mov	edx, 8
	call	__ZN5Botan17deallocate_memoryEPvmm
Ltmp899:
LBB36_92:
	mov	rdi, qword ptr [rbp - 96]
	test	rdi, rdi
	je	LBB36_94

	mov	qword ptr [rbp - 88], rdi
	mov	rsi, qword ptr [rbp - 80]
	sub	rsi, rdi
	sar	rsi, 3
Ltmp901:
	mov	edx, 8
	call	__ZN5Botan17deallocate_memoryEPvmm
Ltmp902:
LBB36_94:
	mov	rdi, qword ptr [rbp - 432]
	test	rdi, rdi
	je	LBB36_96

	mov	qword ptr [rbp - 424], rdi
	mov	rsi, qword ptr [rbp - 416]
	sub	rsi, rdi
	sar	rsi, 3
Ltmp904:
	mov	edx, 8
	call	__ZN5Botan17deallocate_memoryEPvmm
Ltmp905:
LBB36_96:
	mov	rdi, qword ptr [rbp - 480]
	test	rdi, rdi
	je	LBB36_98

	mov	qword ptr [rbp - 472], rdi
	mov	rsi, qword ptr [rbp - 464]
	sub	rsi, rdi
	sar	rsi, 3
Ltmp907:
	mov	edx, 8
	call	__ZN5Botan17deallocate_memoryEPvmm
Ltmp908:
LBB36_98:
	mov	rdi, qword ptr [rbp - 528]
	test	rdi, rdi
	je	LBB36_100

	mov	qword ptr [rbp - 520], rdi
	mov	rsi, qword ptr [rbp - 512]
	sub	rsi, rdi
	sar	rsi, 3
Ltmp910:
	mov	edx, 8
	call	__ZN5Botan17deallocate_memoryEPvmm
Ltmp911:
LBB36_100:
	mov	rdi, qword ptr [rbp - 288]
	test	rdi, rdi
	je	LBB36_102

	mov	qword ptr [rbp - 280], rdi
	mov	rsi, qword ptr [rbp - 272]
	sub	rsi, rdi
	sar	rsi, 3
Ltmp913:
	mov	edx, 8
	call	__ZN5Botan17deallocate_memoryEPvmm
Ltmp914:
LBB36_102:
	mov	rdi, qword ptr [rbp - 336]
	test	rdi, rdi
	je	LBB36_104

	mov	qword ptr [rbp - 328], rdi
	mov	rsi, qword ptr [rbp - 320]
	sub	rsi, rdi
	sar	rsi, 3
Ltmp916:
	mov	edx, 8
	call	__ZN5Botan17deallocate_memoryEPvmm
Ltmp917:
LBB36_104:
	mov	rdi, qword ptr [rbp - 384]
	test	rdi, rdi
	je	LBB36_106

	mov	qword ptr [rbp - 376], rdi
	mov	rsi, qword ptr [rbp - 368]
	sub	rsi, rdi
	sar	rsi, 3
Ltmp919:
	mov	edx, 8
	call	__ZN5Botan17deallocate_memoryEPvmm
Ltmp920:
LBB36_106:
	mov	rdi, qword ptr [rbp - 192]
	test	rdi, rdi
	je	LBB36_108

	mov	qword ptr [rbp - 184], rdi
	mov	rsi, qword ptr [rbp - 176]
	sub	rsi, rdi
	sar	rsi, 3
Ltmp922:
	mov	edx, 8
	call	__ZN5Botan17deallocate_memoryEPvmm
Ltmp923:
LBB36_108:
	mov	rdi, qword ptr [rbp - 240]
	test	rdi, rdi
	je	LBB36_110

	mov	qword ptr [rbp - 232], rdi
	mov	rsi, qword ptr [rbp - 224]
	sub	rsi, rdi
	sar	rsi, 3
Ltmp925:
	mov	edx, 8
	call	__ZN5Botan17deallocate_memoryEPvmm
Ltmp926:
LBB36_110:
	add	rsp, 584
	pop	rbx
	pop	r12
	pop	r13
	pop	r14
	pop	r15
	pop	rbp
	ret
LBB36_50:
	mov	edi, 32
	call	___cxa_allocate_exception
	mov	r15, rax
Ltmp928:
	mov	edi, 48
	call	__Znwm
Ltmp929:

	mov	qword ptr [rbp - 80], rax
	movdqa	xmm0, xmmword ptr [rip + LCPI36_0] 
	movdqa	xmmword ptr [rbp - 96], xmm0
	movabs	rcx, 7957695015158965614
	mov	qword ptr [rax + 29], rcx
	movabs	rcx, 8243116074772494693
	mov	qword ptr [rax + 24], rcx
	movabs	rcx, 7719241587428976494
	mov	qword ptr [rax + 16], rcx
	movabs	rcx, 7598264594228146805
	mov	qword ptr [rax + 8], rcx
	movabs	rcx, 7811882119906938450
	mov	qword ptr [rax], rcx
	mov	byte ptr [rax + 37], 0
	mov	bl, 1
Ltmp931:
	lea	rsi, [rbp - 96]
	mov	rdi, r15
	call	__ZN5Botan14Internal_ErrorC1ERKNSt3__112basic_stringIcNS1_11char_traitsIcEENS1_9allocatorIcEEEE
Ltmp932:

	xor	ebx, ebx
Ltmp933:
	mov	rsi, qword ptr [rip + __ZTIN5Botan14Internal_ErrorE@GOTPCREL]
	mov	rdx, qword ptr [rip + __ZN5Botan14Internal_ErrorD1Ev@GOTPCREL]
	mov	rdi, r15
	call	___cxa_throw
Ltmp934:
	jmp	LBB36_155
LBB36_28:
	mov	edi, 32
	call	___cxa_allocate_exception
	mov	rbx, rax
	mov	byte ptr [rbp - 192], 6
	mov	dword ptr [rbp - 191], 4281170
Ltmp960:
	lea	rsi, [rip + L_.str.4]
	lea	rdi, [rbp - 192]
	call	__ZNSt3__112basic_stringIcNS_11char_traitsIcEENS_9allocatorIcEEE6appendEPKc
Ltmp961:

	mov	rcx, qword ptr [rax + 16]
	mov	qword ptr [rbp - 224], rcx
	mov	rcx, qword ptr [rax]
	mov	rdx, qword ptr [rax + 8]
	mov	qword ptr [rbp - 232], rdx
	mov	qword ptr [rbp - 240], rcx
	mov	qword ptr [rax], 0
	mov	qword ptr [rax + 8], 0
	mov	qword ptr [rax + 16], 0
	mov	r15b, 1
Ltmp963:
	lea	rsi, [rbp - 240]
	mov	rdi, rbx
	call	__ZN5Botan16Invalid_ArgumentC1ERKNSt3__112basic_stringIcNS1_11char_traitsIcEENS1_9allocatorIcEEEE
Ltmp964:

	xor	r15d, r15d
Ltmp965:
	mov	rsi, qword ptr [rip + __ZTIN5Botan16Invalid_ArgumentE@GOTPCREL]
	mov	rdx, qword ptr [rip + __ZN5Botan16Invalid_ArgumentD1Ev@GOTPCREL]
	mov	rdi, rbx
	call	___cxa_throw
Ltmp966:
	jmp	LBB36_155
LBB36_1:
	mov	edi, 32
	call	___cxa_allocate_exception
	mov	r15, rax
	mov	byte ptr [rbp - 336], 6
	mov	dword ptr [rbp - 335], 4281170
Ltmp968:
	lea	rsi, [rip + L_.str.2]
	lea	rdi, [rbp - 336]
	call	__ZNSt3__112basic_stringIcNS_11char_traitsIcEENS_9allocatorIcEEE6appendEPKc
Ltmp969:

	mov	rcx, qword ptr [rax + 16]
	mov	qword ptr [rbp - 368], rcx
	mov	rcx, qword ptr [rax]
	mov	rdx, qword ptr [rax + 8]
	mov	qword ptr [rbp - 376], rdx
	mov	qword ptr [rbp - 384], rcx
	mov	qword ptr [rax], 0
	mov	qword ptr [rax + 8], 0
	mov	qword ptr [rax + 16], 0
Ltmp971:
	lea	rdi, [rbp - 288]
	mov	rsi, qword ptr [rbp - 392] 
	call	__ZNSt3__19to_stringEm
Ltmp972:

	movzx	edx, byte ptr [rbp - 288]
	test	dl, 1
	je	LBB36_4

	mov	rsi, qword ptr [rbp - 272]
	mov	rdx, qword ptr [rbp - 280]
	jmp	LBB36_6
LBB36_4:
	shr	rdx
	lea	rsi, [rbp - 287]
LBB36_6:
Ltmp974:
	lea	rdi, [rbp - 384]
	call	__ZNSt3__112basic_stringIcNS_11char_traitsIcEENS_9allocatorIcEEE6appendEPKcm
Ltmp975:

	mov	rcx, qword ptr [rax + 16]
	mov	qword ptr [rbp - 176], rcx
	mov	rcx, qword ptr [rax]
	mov	rdx, qword ptr [rax + 8]
	mov	qword ptr [rbp - 184], rdx
	mov	qword ptr [rbp - 192], rcx
	mov	qword ptr [rax], 0
	mov	qword ptr [rax + 8], 0
	mov	qword ptr [rax + 16], 0
Ltmp977:
	lea	rsi, [rip + L_.str.3]
	lea	rdi, [rbp - 192]
	call	__ZNSt3__112basic_stringIcNS_11char_traitsIcEENS_9allocatorIcEEE6appendEPKc
Ltmp978:

	mov	rcx, qword ptr [rax + 16]
	mov	qword ptr [rbp - 224], rcx
	mov	rcx, qword ptr [rax]
	mov	rdx, qword ptr [rax + 8]
	mov	qword ptr [rbp - 232], rdx
	mov	qword ptr [rbp - 240], rcx
	mov	qword ptr [rax], 0
	mov	qword ptr [rax + 8], 0
	mov	qword ptr [rax + 16], 0
	mov	bl, 1
Ltmp980:
	lea	rsi, [rbp - 240]
	mov	rdi, r15
	call	__ZN5Botan16Invalid_ArgumentC1ERKNSt3__112basic_stringIcNS1_11char_traitsIcEENS1_9allocatorIcEEEE
Ltmp981:

	xor	ebx, ebx
Ltmp982:
	mov	rsi, qword ptr [rip + __ZTIN5Botan16Invalid_ArgumentE@GOTPCREL]
	mov	rdx, qword ptr [rip + __ZN5Botan16Invalid_ArgumentD1Ev@GOTPCREL]
	mov	rdi, r15
	call	___cxa_throw
Ltmp983:
	jmp	LBB36_155
LBB36_13:
Ltmp979:
	mov	r14, rax
	mov	bl, 1
	test	byte ptr [rbp - 192], 1
	je	LBB36_18
	jmp	LBB36_17
LBB36_12:
Ltmp976:
	mov	r14, rax
	mov	bl, 1
	test	byte ptr [rbp - 288], 1
	je	LBB36_20
	jmp	LBB36_19
LBB36_11:
Ltmp973:
	mov	r14, rax
	mov	bl, 1
	test	byte ptr [rbp - 384], 1
	je	LBB36_22
	jmp	LBB36_21
LBB36_10:
Ltmp970:
	mov	r14, rax
	mov	bl, 1
	test	byte ptr [rbp - 336], 1
	je	LBB36_24
	jmp	LBB36_23
LBB36_14:
Ltmp984:
	mov	r14, rax
	test	byte ptr [rbp - 240], 1
	jne	LBB36_15

	test	byte ptr [rbp - 192], 1
	jne	LBB36_17
LBB36_18:
	test	byte ptr [rbp - 288], 1
	jne	LBB36_19
LBB36_20:
	test	byte ptr [rbp - 384], 1
	jne	LBB36_21
LBB36_22:
	test	byte ptr [rbp - 336], 1
	jne	LBB36_23
LBB36_24:
	test	bl, bl
	jne	LBB36_25
	jmp	LBB36_148
LBB36_15:
	mov	rdi, qword ptr [rbp - 224]
	call	__ZdlPv
	test	byte ptr [rbp - 192], 1
	je	LBB36_18
LBB36_17:
	mov	rdi, qword ptr [rbp - 176]
	call	__ZdlPv
	test	byte ptr [rbp - 288], 1
	je	LBB36_20
LBB36_19:
	mov	rdi, qword ptr [rbp - 272]
	call	__ZdlPv
	test	byte ptr [rbp - 384], 1
	je	LBB36_22
LBB36_21:
	mov	rdi, qword ptr [rbp - 368]
	call	__ZdlPv
	test	byte ptr [rbp - 336], 1
	je	LBB36_24
LBB36_23:
	mov	rdi, qword ptr [rbp - 320]
	call	__ZdlPv
	test	bl, bl
	je	LBB36_148
LBB36_25:
	mov	rdi, r15
	call	___cxa_free_exception
	jmp	LBB36_148
LBB36_31:
Ltmp962:
	mov	r14, rax
	mov	r15b, 1
	test	byte ptr [rbp - 192], 1
	je	LBB36_36
	jmp	LBB36_35
LBB36_32:
Ltmp967:
	mov	r14, rax
	test	byte ptr [rbp - 240], 1
	jne	LBB36_33

	test	byte ptr [rbp - 192], 1
	jne	LBB36_35
LBB36_36:
	test	r15b, r15b
	jne	LBB36_37
	jmp	LBB36_148
LBB36_33:
	mov	rdi, qword ptr [rbp - 224]
	call	__ZdlPv
	test	byte ptr [rbp - 192], 1
	je	LBB36_36
LBB36_35:
	mov	rdi, qword ptr [rbp - 176]
	call	__ZdlPv
	test	r15b, r15b
	je	LBB36_148
LBB36_37:
	mov	rdi, rbx
	call	___cxa_free_exception
	jmp	LBB36_148
LBB36_57:
Ltmp930:
	mov	r14, rax
	mov	r12, qword ptr [rbp - 48] 
	jmp	LBB36_61
LBB36_58:
Ltmp935:
	mov	r14, rax
	test	byte ptr [rbp - 96], 1
	je	LBB36_60

	mov	rdi, qword ptr [rbp - 80]
	call	__ZdlPv
LBB36_60:
	test	bl, bl
	mov	r12, qword ptr [rbp - 48] 
	je	LBB36_132
LBB36_61:
	mov	rdi, r15
	call	___cxa_free_exception
	jmp	LBB36_132
LBB36_175:
Ltmp927:
	mov	rdi, rax
	call	___clang_call_terminate
LBB36_174:
Ltmp924:
	mov	rdi, rax
	call	___clang_call_terminate
LBB36_173:
Ltmp921:
	mov	rdi, rax
	call	___clang_call_terminate
LBB36_172:
Ltmp918:
	mov	rdi, rax
	call	___clang_call_terminate
LBB36_171:
Ltmp915:
	mov	rdi, rax
	call	___clang_call_terminate
LBB36_170:
Ltmp912:
	mov	rdi, rax
	call	___clang_call_terminate
LBB36_169:
Ltmp909:
	mov	rdi, rax
	call	___clang_call_terminate
LBB36_168:
Ltmp906:
	mov	rdi, rax
	call	___clang_call_terminate
LBB36_167:
Ltmp903:
	mov	rdi, rax
	call	___clang_call_terminate
LBB36_166:
Ltmp900:
	mov	rdi, rax
	call	___clang_call_terminate
LBB36_165:
Ltmp897:
	mov	rdi, rax
	call	___clang_call_terminate
LBB36_163:
Ltmp877:
	mov	rdi, rax
	call	___clang_call_terminate
LBB36_162:
Ltmp871:
	mov	rdi, rax
	call	___clang_call_terminate
LBB36_161:
Ltmp865:
	mov	rdi, rax
	call	___clang_call_terminate
LBB36_160:
Ltmp859:
	mov	rdi, rax
	call	___clang_call_terminate
LBB36_156:
Ltmp821:
	mov	rdi, rax
	call	___clang_call_terminate
LBB36_164:
Ltmp885:
	mov	r14, rax
	mov	rdi, r15
	call	__ZNSt3__119__shared_weak_countD2Ev
	mov	rdi, r15
	call	__ZdlPv
	jmp	LBB36_118
LBB36_115:
Ltmp874:
	jmp	LBB36_117
LBB36_114:
Ltmp868:
	jmp	LBB36_117
LBB36_113:
Ltmp862:
	jmp	LBB36_117
LBB36_112:
Ltmp856:
	jmp	LBB36_117
LBB36_121:
Ltmp853:
	mov	r14, rax
	jmp	LBB36_122
LBB36_125:
Ltmp850:
	mov	r14, rax
	jmp	LBB36_126
LBB36_129:
Ltmp847:
	jmp	LBB36_130
LBB36_53:
Ltmp818:
	mov	r14, rax
	jmp	LBB36_132
LBB36_116:
Ltmp882:
LBB36_117:
	mov	r14, rax
LBB36_118:
	mov	rdi, qword ptr [rbp - 616]
	test	rdi, rdi
	je	LBB36_122

	mov	qword ptr [rbp - 608], rdi
	mov	rsi, qword ptr [rbp - 600]
	sub	rsi, rdi
	sar	rsi, 3
Ltmp886:
	mov	edx, 8
	call	__ZN5Botan17deallocate_memoryEPvmm
Ltmp887:
LBB36_122:
	mov	rdi, qword ptr [rbp - 568]
	test	rdi, rdi
	je	LBB36_126

	mov	qword ptr [rbp - 560], rdi
	mov	rsi, qword ptr [rbp - 552]
	sub	rsi, rdi
	sar	rsi, 3
Ltmp889:
	mov	edx, 8
	call	__ZN5Botan17deallocate_memoryEPvmm
Ltmp890:
LBB36_126:
	mov	rdi, qword ptr [rbp - 96]
	test	rdi, rdi
	je	LBB36_131

	mov	qword ptr [rbp - 88], rdi
	mov	rsi, qword ptr [rbp - 80]
	sub	rsi, rdi
	sar	rsi, 3
Ltmp892:
	mov	edx, 8
	call	__ZN5Botan17deallocate_memoryEPvmm
Ltmp893:
	jmp	LBB36_131
LBB36_120:
Ltmp888:
	mov	rdi, rax
	call	___clang_call_terminate
LBB36_124:
Ltmp891:
	mov	rdi, rax
	call	___clang_call_terminate
LBB36_128:
Ltmp894:
	mov	rdi, rax
	call	___clang_call_terminate
LBB36_159:
Ltmp841:
	mov	rdi, rax
	call	___clang_call_terminate
LBB36_158:
Ltmp833:
	mov	rdi, rax
	call	___clang_call_terminate
LBB36_157:
Ltmp827:
	mov	rdi, rax
	call	___clang_call_terminate
LBB36_111:
Ltmp838:
	jmp	LBB36_130
LBB36_55:
Ltmp830:
	jmp	LBB36_130
LBB36_54:
Ltmp824:
	jmp	LBB36_130
LBB36_56:
Ltmp844:
LBB36_130:
	mov	r14, rax
LBB36_131:
	mov	r12, qword ptr [rbp - 48] 
LBB36_132:
	mov	rdi, qword ptr [rbp - 432]
	test	rdi, rdi
	je	LBB36_134

	mov	qword ptr [rbp - 424], rdi
	mov	rsi, qword ptr [rbp - 416]
	sub	rsi, rdi
	sar	rsi, 3
Ltmp936:
	mov	edx, 8
	call	__ZN5Botan17deallocate_memoryEPvmm
Ltmp937:
LBB36_134:
	mov	rdi, qword ptr [rbp - 480]
	test	rdi, rdi
	je	LBB36_136

	mov	qword ptr [rbp - 472], rdi
	mov	rsi, qword ptr [rbp - 464]
	sub	rsi, rdi
	sar	rsi, 3
Ltmp939:
	mov	edx, 8
	call	__ZN5Botan17deallocate_memoryEPvmm
Ltmp940:
LBB36_136:
	mov	rdi, qword ptr [rbp - 528]
	test	rdi, rdi
	je	LBB36_138

	mov	qword ptr [rbp - 520], rdi
	mov	rsi, qword ptr [rbp - 512]
	sub	rsi, rdi
	sar	rsi, 3
Ltmp942:
	mov	edx, 8
	call	__ZN5Botan17deallocate_memoryEPvmm
Ltmp943:
LBB36_138:
	mov	rdi, qword ptr [rbp - 288]
	test	rdi, rdi
	je	LBB36_140

	mov	qword ptr [rbp - 280], rdi
	mov	rsi, qword ptr [rbp - 272]
	sub	rsi, rdi
	sar	rsi, 3
Ltmp945:
	mov	edx, 8
	call	__ZN5Botan17deallocate_memoryEPvmm
Ltmp946:
LBB36_140:
	mov	rdi, qword ptr [rbp - 336]
	test	rdi, rdi
	je	LBB36_142

	mov	qword ptr [rbp - 328], rdi
	mov	rsi, qword ptr [rbp - 320]
	sub	rsi, rdi
	sar	rsi, 3
Ltmp948:
	mov	edx, 8
	call	__ZN5Botan17deallocate_memoryEPvmm
Ltmp949:
LBB36_142:
	mov	rdi, qword ptr [rbp - 384]
	test	rdi, rdi
	je	LBB36_144

	mov	qword ptr [rbp - 376], rdi
	mov	rsi, qword ptr [rbp - 368]
	sub	rsi, rdi
	sar	rsi, 3
Ltmp951:
	mov	edx, 8
	call	__ZN5Botan17deallocate_memoryEPvmm
Ltmp952:
LBB36_144:
	mov	rdi, qword ptr [rbp - 192]
	test	rdi, rdi
	je	LBB36_146

	mov	qword ptr [rbp - 184], rdi
	mov	rsi, qword ptr [rbp - 176]
	sub	rsi, rdi
	sar	rsi, 3
Ltmp954:
	mov	edx, 8
	call	__ZN5Botan17deallocate_memoryEPvmm
Ltmp955:
LBB36_146:
	mov	rdi, qword ptr [rbp - 240]
	test	rdi, rdi
	je	LBB36_148

	mov	qword ptr [rbp - 232], rdi
	mov	rsi, qword ptr [rbp - 224]
	sub	rsi, rdi
	sar	rsi, 3
Ltmp957:
	mov	edx, 8
	call	__ZN5Botan17deallocate_memoryEPvmm
Ltmp958:
LBB36_148:
	mov	rbx, qword ptr [r12 + 40]
	test	rbx, rbx
	je	LBB36_151

	mov	rax, -1
	lock		xadd	qword ptr [rbx + 8], rax
	test	rax, rax
	jne	LBB36_151

	mov	rax, qword ptr [rbx]
	mov	rdi, rbx
	call	qword ptr [rax + 16]
	mov	rdi, rbx
	call	__ZNSt3__119__shared_weak_count14__release_weakEv
LBB36_151:
	lea	rax, [rip + __ZTCN5Botan14RSA_PrivateKeyE8_NS_13RSA_PublicKeyE+136]
	mov	qword ptr [r12 + 8], rax
	lea	rax, [rip + __ZTCN5Botan14RSA_PrivateKeyE8_NS_13RSA_PublicKeyE+384]
	mov	qword ptr [r12], rax
	mov	rbx, qword ptr [r12 + 24]
	test	rbx, rbx
	je	LBB36_154

	mov	rax, -1
	lock		xadd	qword ptr [rbx + 8], rax
	test	rax, rax
	jne	LBB36_154

	mov	rax, qword ptr [rbx]
	mov	rdi, rbx
	call	qword ptr [rax + 16]
	mov	rdi, rbx
	call	__ZNSt3__119__shared_weak_count14__release_weakEv
LBB36_154:
	mov	rdi, r14
	call	__Unwind_Resume
LBB36_155:
	ud2
LBB36_183:
Ltmp959:
	mov	rdi, rax
	call	___clang_call_terminate
LBB36_182:
Ltmp956:
	mov	rdi, rax
	call	___clang_call_terminate
LBB36_181:
Ltmp953:
	mov	rdi, rax
	call	___clang_call_terminate
LBB36_180:
Ltmp950:
	mov	rdi, rax
	call	___clang_call_terminate
LBB36_179:
Ltmp947:
	mov	rdi, rax
	call	___clang_call_terminate
LBB36_178:
Ltmp944:
	mov	rdi, rax
	call	___clang_call_terminate
LBB36_177:
Ltmp941:
	mov	rdi, rax
	call	___clang_call_terminate
LBB36_176:
Ltmp938:
	mov	rdi, rax
	call	___clang_call_terminate
Lfunc_end15:
	.cfi_endproc
	.section	__TEXT,__gcc_except_tab
	.p2align	2
GCC_except_table36:
Lexception15:
	.byte	255                     
	.byte	155                     
	.uleb128 Lttbase11-Lttbaseref11
Lttbaseref11:
	.byte	1                       
	.uleb128 Lcst_end15-Lcst_begin15
Lcst_begin15:
	.uleb128 Ltmp816-Lfunc_begin15  
	.uleb128 Ltmp817-Ltmp816        
	.uleb128 Ltmp818-Lfunc_begin15  
	.byte	0                       
	.uleb128 Ltmp819-Lfunc_begin15  
	.uleb128 Ltmp820-Ltmp819        
	.uleb128 Ltmp821-Lfunc_begin15  
	.byte	1                       
	.uleb128 Ltmp822-Lfunc_begin15  
	.uleb128 Ltmp823-Ltmp822        
	.uleb128 Ltmp824-Lfunc_begin15  
	.byte	0                       
	.uleb128 Ltmp825-Lfunc_begin15  
	.uleb128 Ltmp826-Ltmp825        
	.uleb128 Ltmp827-Lfunc_begin15  
	.byte	1                       
	.uleb128 Ltmp828-Lfunc_begin15  
	.uleb128 Ltmp829-Ltmp828        
	.uleb128 Ltmp830-Lfunc_begin15  
	.byte	0                       
	.uleb128 Ltmp831-Lfunc_begin15  
	.uleb128 Ltmp832-Ltmp831        
	.uleb128 Ltmp833-Lfunc_begin15  
	.byte	1                       
	.uleb128 Ltmp834-Lfunc_begin15  
	.uleb128 Ltmp835-Ltmp834        
	.uleb128 Ltmp844-Lfunc_begin15  
	.byte	0                       
	.uleb128 Ltmp836-Lfunc_begin15  
	.uleb128 Ltmp837-Ltmp836        
	.uleb128 Ltmp838-Lfunc_begin15  
	.byte	0                       
	.uleb128 Ltmp839-Lfunc_begin15  
	.uleb128 Ltmp840-Ltmp839        
	.uleb128 Ltmp841-Lfunc_begin15  
	.byte	1                       
	.uleb128 Ltmp842-Lfunc_begin15  
	.uleb128 Ltmp843-Ltmp842        
	.uleb128 Ltmp844-Lfunc_begin15  
	.byte	0                       
	.uleb128 Ltmp845-Lfunc_begin15  
	.uleb128 Ltmp846-Ltmp845        
	.uleb128 Ltmp847-Lfunc_begin15  
	.byte	0                       
	.uleb128 Ltmp848-Lfunc_begin15  
	.uleb128 Ltmp849-Ltmp848        
	.uleb128 Ltmp850-Lfunc_begin15  
	.byte	0                       
	.uleb128 Ltmp851-Lfunc_begin15  
	.uleb128 Ltmp852-Ltmp851        
	.uleb128 Ltmp853-Lfunc_begin15  
	.byte	0                       
	.uleb128 Ltmp854-Lfunc_begin15  
	.uleb128 Ltmp855-Ltmp854        
	.uleb128 Ltmp856-Lfunc_begin15  
	.byte	0                       
	.uleb128 Ltmp857-Lfunc_begin15  
	.uleb128 Ltmp858-Ltmp857        
	.uleb128 Ltmp859-Lfunc_begin15  
	.byte	1                       
	.uleb128 Ltmp860-Lfunc_begin15  
	.uleb128 Ltmp861-Ltmp860        
	.uleb128 Ltmp862-Lfunc_begin15  
	.byte	0                       
	.uleb128 Ltmp863-Lfunc_begin15  
	.uleb128 Ltmp864-Ltmp863        
	.uleb128 Ltmp865-Lfunc_begin15  
	.byte	1                       
	.uleb128 Ltmp866-Lfunc_begin15  
	.uleb128 Ltmp867-Ltmp866        
	.uleb128 Ltmp868-Lfunc_begin15  
	.byte	0                       
	.uleb128 Ltmp869-Lfunc_begin15  
	.uleb128 Ltmp870-Ltmp869        
	.uleb128 Ltmp871-Lfunc_begin15  
	.byte	1                       
	.uleb128 Ltmp872-Lfunc_begin15  
	.uleb128 Ltmp873-Ltmp872        
	.uleb128 Ltmp874-Lfunc_begin15  
	.byte	0                       
	.uleb128 Ltmp875-Lfunc_begin15  
	.uleb128 Ltmp876-Ltmp875        
	.uleb128 Ltmp877-Lfunc_begin15  
	.byte	1                       
	.uleb128 Ltmp878-Lfunc_begin15  
	.uleb128 Ltmp881-Ltmp878        
	.uleb128 Ltmp882-Lfunc_begin15  
	.byte	0                       
	.uleb128 Ltmp883-Lfunc_begin15  
	.uleb128 Ltmp884-Ltmp883        
	.uleb128 Ltmp885-Lfunc_begin15  
	.byte	0                       
	.uleb128 Ltmp884-Lfunc_begin15  
	.uleb128 Ltmp895-Ltmp884        
	.byte	0                       
	.byte	0                       
	.uleb128 Ltmp895-Lfunc_begin15  
	.uleb128 Ltmp896-Ltmp895        
	.uleb128 Ltmp897-Lfunc_begin15  
	.byte	1                       
	.uleb128 Ltmp898-Lfunc_begin15  
	.uleb128 Ltmp899-Ltmp898        
	.uleb128 Ltmp900-Lfunc_begin15  
	.byte	1                       
	.uleb128 Ltmp901-Lfunc_begin15  
	.uleb128 Ltmp902-Ltmp901        
	.uleb128 Ltmp903-Lfunc_begin15  
	.byte	1                       
	.uleb128 Ltmp904-Lfunc_begin15  
	.uleb128 Ltmp905-Ltmp904        
	.uleb128 Ltmp906-Lfunc_begin15  
	.byte	1                       
	.uleb128 Ltmp907-Lfunc_begin15  
	.uleb128 Ltmp908-Ltmp907        
	.uleb128 Ltmp909-Lfunc_begin15  
	.byte	1                       
	.uleb128 Ltmp910-Lfunc_begin15  
	.uleb128 Ltmp911-Ltmp910        
	.uleb128 Ltmp912-Lfunc_begin15  
	.byte	1                       
	.uleb128 Ltmp913-Lfunc_begin15  
	.uleb128 Ltmp914-Ltmp913        
	.uleb128 Ltmp915-Lfunc_begin15  
	.byte	1                       
	.uleb128 Ltmp916-Lfunc_begin15  
	.uleb128 Ltmp917-Ltmp916        
	.uleb128 Ltmp918-Lfunc_begin15  
	.byte	1                       
	.uleb128 Ltmp919-Lfunc_begin15  
	.uleb128 Ltmp920-Ltmp919        
	.uleb128 Ltmp921-Lfunc_begin15  
	.byte	1                       
	.uleb128 Ltmp922-Lfunc_begin15  
	.uleb128 Ltmp923-Ltmp922        
	.uleb128 Ltmp924-Lfunc_begin15  
	.byte	1                       
	.uleb128 Ltmp925-Lfunc_begin15  
	.uleb128 Ltmp926-Ltmp925        
	.uleb128 Ltmp927-Lfunc_begin15  
	.byte	1                       
	.uleb128 Ltmp926-Lfunc_begin15  
	.uleb128 Ltmp928-Ltmp926        
	.byte	0                       
	.byte	0                       
	.uleb128 Ltmp928-Lfunc_begin15  
	.uleb128 Ltmp929-Ltmp928        
	.uleb128 Ltmp930-Lfunc_begin15  
	.byte	0                       
	.uleb128 Ltmp931-Lfunc_begin15  
	.uleb128 Ltmp934-Ltmp931        
	.uleb128 Ltmp935-Lfunc_begin15  
	.byte	0                       
	.uleb128 Ltmp934-Lfunc_begin15  
	.uleb128 Ltmp960-Ltmp934        
	.byte	0                       
	.byte	0                       
	.uleb128 Ltmp960-Lfunc_begin15  
	.uleb128 Ltmp961-Ltmp960        
	.uleb128 Ltmp962-Lfunc_begin15  
	.byte	0                       
	.uleb128 Ltmp963-Lfunc_begin15  
	.uleb128 Ltmp966-Ltmp963        
	.uleb128 Ltmp967-Lfunc_begin15  
	.byte	0                       
	.uleb128 Ltmp966-Lfunc_begin15  
	.uleb128 Ltmp968-Ltmp966        
	.byte	0                       
	.byte	0                       
	.uleb128 Ltmp968-Lfunc_begin15  
	.uleb128 Ltmp969-Ltmp968        
	.uleb128 Ltmp970-Lfunc_begin15  
	.byte	0                       
	.uleb128 Ltmp971-Lfunc_begin15  
	.uleb128 Ltmp972-Ltmp971        
	.uleb128 Ltmp973-Lfunc_begin15  
	.byte	0                       
	.uleb128 Ltmp974-Lfunc_begin15  
	.uleb128 Ltmp975-Ltmp974        
	.uleb128 Ltmp976-Lfunc_begin15  
	.byte	0                       
	.uleb128 Ltmp977-Lfunc_begin15  
	.uleb128 Ltmp978-Ltmp977        
	.uleb128 Ltmp979-Lfunc_begin15  
	.byte	0                       
	.uleb128 Ltmp980-Lfunc_begin15  
	.uleb128 Ltmp983-Ltmp980        
	.uleb128 Ltmp984-Lfunc_begin15  
	.byte	0                       
	.uleb128 Ltmp983-Lfunc_begin15  
	.uleb128 Ltmp886-Ltmp983        
	.byte	0                       
	.byte	0                       
	.uleb128 Ltmp886-Lfunc_begin15  
	.uleb128 Ltmp887-Ltmp886        
	.uleb128 Ltmp888-Lfunc_begin15  
	.byte	1                       
	.uleb128 Ltmp889-Lfunc_begin15  
	.uleb128 Ltmp890-Ltmp889        
	.uleb128 Ltmp891-Lfunc_begin15  
	.byte	1                       
	.uleb128 Ltmp892-Lfunc_begin15  
	.uleb128 Ltmp893-Ltmp892        
	.uleb128 Ltmp894-Lfunc_begin15  
	.byte	1                       
	.uleb128 Ltmp936-Lfunc_begin15  
	.uleb128 Ltmp937-Ltmp936        
	.uleb128 Ltmp938-Lfunc_begin15  
	.byte	1                       
	.uleb128 Ltmp939-Lfunc_begin15  
	.uleb128 Ltmp940-Ltmp939        
	.uleb128 Ltmp941-Lfunc_begin15  
	.byte	1                       
	.uleb128 Ltmp942-Lfunc_begin15  
	.uleb128 Ltmp943-Ltmp942        
	.uleb128 Ltmp944-Lfunc_begin15  
	.byte	1                       
	.uleb128 Ltmp945-Lfunc_begin15  
	.uleb128 Ltmp946-Ltmp945        
	.uleb128 Ltmp947-Lfunc_begin15  
	.byte	1                       
	.uleb128 Ltmp948-Lfunc_begin15  
	.uleb128 Ltmp949-Ltmp948        
	.uleb128 Ltmp950-Lfunc_begin15  
	.byte	1                       
	.uleb128 Ltmp951-Lfunc_begin15  
	.uleb128 Ltmp952-Ltmp951        
	.uleb128 Ltmp953-Lfunc_begin15  
	.byte	1                       
	.uleb128 Ltmp954-Lfunc_begin15  
	.uleb128 Ltmp955-Ltmp954        
	.uleb128 Ltmp956-Lfunc_begin15  
	.byte	1                       
	.uleb128 Ltmp957-Lfunc_begin15  
	.uleb128 Ltmp958-Ltmp957        
	.uleb128 Ltmp959-Lfunc_begin15  
	.byte	1                       
	.uleb128 Ltmp958-Lfunc_begin15  
	.uleb128 Lfunc_end15-Ltmp958    
	.byte	0                       
	.byte	0                       
Lcst_end15:
	.byte	1                       
                                        
	.byte	0                       
	.p2align	2
                                        
	.long	0                       
Lttbase11:
	.p2align	2
                                        
	.section	__TEXT,__text,regular,pure_instructions
	.globl	__ZNK5Botan14RSA_PrivateKey10public_keyEv 
	.p2align	4, 0x90
__ZNK5Botan14RSA_PrivateKey10public_keyEv: 
Lfunc_begin16:
	.cfi_startproc
	.cfi_personality 155, ___gxx_personality_v0
	.cfi_lsda 16, Lexception16

	push	rbp
	.cfi_def_cfa_offset 16
	.cfi_offset rbp, -16
	mov	rbp, rsp
	.cfi_def_cfa_register rbp
	push	r15
	push	r14
	push	rbx
	push	rax
	.cfi_offset rbx, -40
	.cfi_offset r14, -32
	.cfi_offset r15, -24
	mov	r14, rdi
	mov	r15, qword ptr [rsi + 16]
	mov	edi, 24
	call	__Znwm
	mov	rbx, rax
Ltmp985:
	lea	rdx, [r15 + 40]
	mov	rdi, rax
	mov	rsi, r15
	call	__ZN5Botan13RSA_PublicKeyC1ERKNS_6BigIntES3_
Ltmp986:

	mov	rax, qword ptr [rbx]
	mov	rax, qword ptr [rax - 136]
	add	rax, rbx
	mov	qword ptr [r14], rax
	mov	rax, r14
	add	rsp, 8
	pop	rbx
	pop	r14
	pop	r15
	pop	rbp
	ret
LBB37_2:
Ltmp987:
	mov	r14, rax
	mov	rdi, rbx
	call	__ZdlPv
	mov	rdi, r14
	call	__Unwind_Resume
	ud2
Lfunc_end16:
	.cfi_endproc
	.section	__TEXT,__gcc_except_tab
	.p2align	2
GCC_except_table37:
Lexception16:
	.byte	255                     
	.byte	255                     
	.byte	1                       
	.uleb128 Lcst_end16-Lcst_begin16
Lcst_begin16:
	.uleb128 Lfunc_begin16-Lfunc_begin16 
	.uleb128 Ltmp985-Lfunc_begin16  
	.byte	0                       
	.byte	0                       
	.uleb128 Ltmp985-Lfunc_begin16  
	.uleb128 Ltmp986-Ltmp985        
	.uleb128 Ltmp987-Lfunc_begin16  
	.byte	0                       
	.uleb128 Ltmp986-Lfunc_begin16  
	.uleb128 Lfunc_end16-Ltmp986    
	.byte	0                       
	.byte	0                       
Lcst_end16:
	.p2align	2
                                        
	.section	__TEXT,__text,regular,pure_instructions
	.globl	__ZNK5Botan14RSA_PrivateKey9check_keyERNS_21RandomNumberGeneratorEb 
	.p2align	4, 0x90
__ZNK5Botan14RSA_PrivateKey9check_keyERNS_21RandomNumberGeneratorEb: 
Lfunc_begin17:
	.cfi_startproc
	.cfi_personality 155, ___gxx_personality_v0
	.cfi_lsda 16, Lexception17

	push	rbp
	.cfi_def_cfa_offset 16
	.cfi_offset rbp, -16
	mov	rbp, rsp
	.cfi_def_cfa_register rbp
	push	r15
	push	r14
	push	r13
	push	r12
	push	rbx
	sub	rsp, 216
	.cfi_offset rbx, -56
	.cfi_offset r12, -48
	.cfi_offset r13, -40
	.cfi_offset r14, -32
	.cfi_offset r15, -24
	mov	r15d, edx
	mov	r14, rsi
	mov	r12, rdi
	mov	rdi, qword ptr [rdi + 16]
	mov	esi, 35
	call	__ZNK5Botan6BigInt8cmp_wordEy
	test	eax, eax
	js	LBB38_1

	mov	rdi, qword ptr [r12 + 16]
	mov	rax, qword ptr [rdi]
	cmp	qword ptr [rdi + 8], rax
	je	LBB38_1

	test	byte ptr [rax], 1
	je	LBB38_1

	add	rdi, 40
	mov	esi, 3
	call	__ZNK5Botan6BigInt8cmp_wordEy
	test	eax, eax
	js	LBB38_1

	mov	rcx, qword ptr [r12 + 16]
	mov	rax, qword ptr [rcx + 40]
	cmp	qword ptr [rcx + 48], rax
	je	LBB38_1

	test	byte ptr [rax], 1
	je	LBB38_1

	mov	rdi, qword ptr [r12 + 32]
	mov	esi, 2
	call	__ZNK5Botan6BigInt8cmp_wordEy
	test	eax, eax
	js	LBB38_1

	mov	rdi, qword ptr [r12 + 32]
	add	rdi, 40
	mov	esi, 3
	call	__ZNK5Botan6BigInt8cmp_wordEy
	test	eax, eax
	js	LBB38_1

	mov	rdi, qword ptr [r12 + 32]
	add	rdi, 80
	mov	esi, 3
	call	__ZNK5Botan6BigInt8cmp_wordEy
	test	eax, eax
	js	LBB38_1

	mov	rdx, qword ptr [r12 + 32]
	lea	rsi, [rdx + 40]
	add	rdx, 80
	lea	rbx, [rbp - 80]
	mov	rdi, rbx
	call	__ZN5BotanmlERKNS_6BigIntES2_
	mov	rsi, qword ptr [r12 + 16]
Ltmp988:
	mov	rdi, rbx
	call	__ZNK5Botan6BigInt8is_equalERKS0_
Ltmp989:

	mov	ebx, eax
	mov	rdi, qword ptr [rbp - 80]
	test	rdi, rdi
	je	LBB38_14

	mov	qword ptr [rbp - 72], rdi
	mov	rsi, qword ptr [rbp - 64]
	sub	rsi, rdi
	sar	rsi, 3
Ltmp994:
	mov	edx, 8
	call	__ZN5Botan17deallocate_memoryEPvmm
Ltmp995:
LBB38_14:
	test	bl, bl
	je	LBB38_1

	mov	rsi, qword ptr [r12 + 32]
	lea	rdi, [rsi + 40]
	add	rsi, 80
	call	__ZNK5Botan6BigInt8is_equalERKS0_
	test	al, al
	jne	LBB38_1

	mov	rbx, qword ptr [r12 + 32]
	lea	rsi, [rbx + 40]
	mov	qword ptr [rbp - 160], 1
	lea	r13, [rbp - 120]
	lea	rdx, [rbp - 160]
	mov	ecx, 1
	mov	rdi, r13
	xor	r8d, r8d
	call	__ZN5Botan6BigInt4add2ERKS0_PKymNS0_4SignE
Ltmp997:
	lea	rdi, [rbp - 80]
	mov	rsi, rbx
	mov	rdx, r13
	call	__ZN5Botan9ct_moduloERKNS_6BigIntES2_
Ltmp998:

	add	rbx, 120
Ltmp1000:
	lea	rsi, [rbp - 80]
	mov	rdi, rbx
	call	__ZNK5Botan6BigInt8is_equalERKS0_
Ltmp1001:

	mov	ebx, eax
	mov	rdi, qword ptr [rbp - 80]
	test	rdi, rdi
	je	LBB38_20

	mov	qword ptr [rbp - 72], rdi
	mov	rsi, qword ptr [rbp - 64]
	sub	rsi, rdi
	sar	rsi, 3
Ltmp1009:
	mov	edx, 8
	call	__ZN5Botan17deallocate_memoryEPvmm
Ltmp1010:
LBB38_20:
	mov	rdi, qword ptr [rbp - 120]
	test	rdi, rdi
	je	LBB38_22

	mov	qword ptr [rbp - 112], rdi
	mov	rsi, qword ptr [rbp - 104]
	sub	rsi, rdi
	sar	rsi, 3
Ltmp1012:
	mov	edx, 8
	call	__ZN5Botan17deallocate_memoryEPvmm
Ltmp1013:
LBB38_22:
	test	bl, bl
	je	LBB38_1

	mov	rbx, qword ptr [r12 + 32]
	lea	rsi, [rbx + 80]
	mov	qword ptr [rbp - 160], 1
	lea	r13, [rbp - 120]
	lea	rdx, [rbp - 160]
	mov	ecx, 1
	mov	rdi, r13
	xor	r8d, r8d
	call	__ZN5Botan6BigInt4add2ERKS0_PKymNS0_4SignE
Ltmp1015:
	lea	rdi, [rbp - 80]
	mov	rsi, rbx
	mov	rdx, r13
	call	__ZN5Botan9ct_moduloERKNS_6BigIntES2_
Ltmp1016:

	add	rbx, 160
Ltmp1018:
	lea	rsi, [rbp - 80]
	mov	rdi, rbx
	call	__ZNK5Botan6BigInt8is_equalERKS0_
Ltmp1019:

	mov	ebx, eax
	mov	rdi, qword ptr [rbp - 80]
	test	rdi, rdi
	je	LBB38_27

	mov	qword ptr [rbp - 72], rdi
	mov	rsi, qword ptr [rbp - 64]
	sub	rsi, rdi
	sar	rsi, 3
Ltmp1027:
	mov	edx, 8
	call	__ZN5Botan17deallocate_memoryEPvmm
Ltmp1028:
LBB38_27:
	mov	rdi, qword ptr [rbp - 120]
	test	rdi, rdi
	je	LBB38_29

	mov	qword ptr [rbp - 112], rdi
	mov	rsi, qword ptr [rbp - 104]
	sub	rsi, rdi
	sar	rsi, 3
Ltmp1030:
	mov	edx, 8
	call	__ZN5Botan17deallocate_memoryEPvmm
Ltmp1031:
LBB38_29:
	test	bl, bl
	je	LBB38_1

	mov	rax, qword ptr [r12 + 32]
	lea	rbx, [rax + 200]
	lea	rsi, [rax + 80]
	lea	rdx, [rax + 40]
	lea	r13, [rbp - 80]
	mov	rdi, r13
	call	__ZN5Botan11inverse_modERKNS_6BigIntES2_
Ltmp1033:
	mov	rdi, rbx
	mov	rsi, r13
	call	__ZNK5Botan6BigInt8is_equalERKS0_
Ltmp1034:

	mov	ebx, eax
	mov	rdi, qword ptr [rbp - 80]
	test	rdi, rdi
	je	LBB38_33

	mov	qword ptr [rbp - 72], rdi
	mov	rsi, qword ptr [rbp - 64]
	sub	rsi, rdi
	sar	rsi, 3
Ltmp1039:
	mov	edx, 8
	call	__ZN5Botan17deallocate_memoryEPvmm
Ltmp1040:
LBB38_33:
	test	bl, bl
	je	LBB38_1

	test	r15b, r15b
	mov	eax, 128
	mov	r13d, 12
	cmovne	r13, rax
	mov	rdi, qword ptr [r12 + 32]
	add	rdi, 40
	xor	ebx, ebx
	mov	rsi, r14
	mov	rdx, r13
	xor	ecx, ecx
	call	__ZN5Botan8is_primeERKNS_6BigIntERNS_21RandomNumberGeneratorEmb
	test	al, al
	je	LBB38_2

	mov	rdi, qword ptr [r12 + 32]
	add	rdi, 80
	mov	rsi, r14
	mov	rdx, r13
	xor	ecx, ecx
	call	__ZN5Botan8is_primeERKNS_6BigIntERNS_21RandomNumberGeneratorEmb
	mov	ebx, eax
	test	al, al
	je	LBB38_2

	test	r15b, r15b
	je	LBB38_2

	mov	rsi, qword ptr [r12 + 16]
	mov	rdx, qword ptr [r12 + 32]
	add	rsi, 40
	lea	rdi, [rbp - 120]
	call	__ZN5BotanmlERKNS_6BigIntES2_
	mov	rsi, qword ptr [r12 + 32]
	add	rsi, 40
	mov	qword ptr [rbp - 200], 1
Ltmp1042:
	lea	rdi, [rbp - 248]
	lea	rdx, [rbp - 200]
	mov	ecx, 1
	xor	r8d, r8d
	call	__ZN5Botan6BigInt4add2ERKS0_PKymNS0_4SignE
Ltmp1043:

	mov	rsi, qword ptr [r12 + 32]
	add	rsi, 80
	mov	qword ptr [rbp - 208], 1
Ltmp1045:
	lea	rdi, [rbp - 200]
	lea	rdx, [rbp - 208]
	mov	ecx, 1
	xor	r8d, r8d
	call	__ZN5Botan6BigInt4add2ERKS0_PKymNS0_4SignE
Ltmp1046:

Ltmp1048:
	lea	rdi, [rbp - 160]
	lea	rsi, [rbp - 248]
	lea	rdx, [rbp - 200]
	call	__ZN5Botan3lcmERKNS_6BigIntES2_
Ltmp1049:

Ltmp1051:
	lea	rdi, [rbp - 80]
	lea	rsi, [rbp - 120]
	lea	rdx, [rbp - 160]
	call	__ZN5Botan9ct_moduloERKNS_6BigIntES2_
Ltmp1052:

Ltmp1054:
	lea	rdi, [rbp - 80]
	mov	esi, 1
	call	__ZNK5Botan6BigInt8cmp_wordEy
Ltmp1055:

	mov	r15d, eax
	mov	rdi, qword ptr [rbp - 80]
	test	rdi, rdi
	je	LBB38_44

	mov	qword ptr [rbp - 72], rdi
	mov	rsi, qword ptr [rbp - 64]
	sub	rsi, rdi
	sar	rsi, 3
Ltmp1072:
	mov	edx, 8
	call	__ZN5Botan17deallocate_memoryEPvmm
Ltmp1073:
LBB38_44:
	mov	rdi, qword ptr [rbp - 160]
	test	rdi, rdi
	je	LBB38_46

	mov	qword ptr [rbp - 152], rdi
	mov	rsi, qword ptr [rbp - 144]
	sub	rsi, rdi
	sar	rsi, 3
Ltmp1075:
	mov	edx, 8
	call	__ZN5Botan17deallocate_memoryEPvmm
Ltmp1076:
LBB38_46:
	mov	rdi, qword ptr [rbp - 200]
	test	rdi, rdi
	je	LBB38_48

	mov	qword ptr [rbp - 192], rdi
	mov	rsi, qword ptr [rbp - 184]
	sub	rsi, rdi
	sar	rsi, 3
Ltmp1078:
	mov	edx, 8
	call	__ZN5Botan17deallocate_memoryEPvmm
Ltmp1079:
LBB38_48:
	mov	rdi, qword ptr [rbp - 248]
	test	rdi, rdi
	je	LBB38_50

	mov	qword ptr [rbp - 240], rdi
	mov	rsi, qword ptr [rbp - 232]
	sub	rsi, rdi
	sar	rsi, 3
Ltmp1081:
	mov	edx, 8
	call	__ZN5Botan17deallocate_memoryEPvmm
Ltmp1082:
LBB38_50:
	mov	rdi, qword ptr [rbp - 120]
	test	rdi, rdi
	je	LBB38_52

	mov	qword ptr [rbp - 112], rdi
	mov	rsi, qword ptr [rbp - 104]
	sub	rsi, rdi
	sar	rsi, 3
Ltmp1084:
	mov	edx, 8
	call	__ZN5Botan17deallocate_memoryEPvmm
Ltmp1085:
LBB38_52:
	test	r15d, r15d
	je	LBB38_53
LBB38_1:
	xor	ebx, ebx
LBB38_2:
	mov	eax, ebx
	add	rsp, 216
	pop	rbx
	pop	r12
	pop	r13
	pop	r14
	pop	r15
	pop	rbp
	ret
LBB38_53:
	mov	byte ptr [rbp - 80], 28
	movabs	rax, 5211553398697184581
	mov	qword ptr [rbp - 79], rax
	movabs	rax, 2969619493921310803
	mov	qword ptr [rbp - 73], rax
	mov	byte ptr [rbp - 65], 0
	mov	rax, qword ptr [r12]
	mov	rdx, qword ptr [rax - 136]
	add	rdx, r12
Ltmp1087:
	lea	rcx, [rbp - 80]
	mov	rdi, r14
	mov	rsi, r12
	call	__ZN5Botan7KeyPair27signature_consistency_checkERNS_21RandomNumberGeneratorERKNS_11Private_KeyERKNS_10Public_KeyERKNSt3__112basic_stringIcNS9_11char_traitsIcEENS9_9allocatorIcEEEE
Ltmp1088:

	mov	ebx, eax
	test	byte ptr [rbp - 80], 1
	je	LBB38_2

	mov	rdi, qword ptr [rbp - 64]
	call	__ZdlPv
	jmp	LBB38_2
LBB38_90:
Ltmp1089:
	mov	rbx, rax
	test	byte ptr [rbp - 80], 1
	je	LBB38_92

	mov	rdi, qword ptr [rbp - 64]
	call	__ZdlPv
	jmp	LBB38_92
LBB38_107:
Ltmp1086:
	mov	rdi, rax
	call	___clang_call_terminate
LBB38_106:
Ltmp1083:
	mov	rdi, rax
	call	___clang_call_terminate
LBB38_105:
Ltmp1080:
	mov	rdi, rax
	call	___clang_call_terminate
LBB38_104:
Ltmp1077:
	mov	rdi, rax
	call	___clang_call_terminate
LBB38_103:
Ltmp1074:
	mov	rdi, rax
	call	___clang_call_terminate
LBB38_72:
Ltmp1056:
	mov	rbx, rax
	mov	rdi, qword ptr [rbp - 80]
	test	rdi, rdi
	je	LBB38_76

	mov	qword ptr [rbp - 72], rdi
	mov	rsi, qword ptr [rbp - 64]
	sub	rsi, rdi
	sar	rsi, 3
Ltmp1057:
	mov	edx, 8
	call	__ZN5Botan17deallocate_memoryEPvmm
Ltmp1058:
	jmp	LBB38_76
LBB38_74:
Ltmp1059:
	mov	rdi, rax
	call	___clang_call_terminate
LBB38_75:
Ltmp1053:
	mov	rbx, rax
LBB38_76:
	mov	rdi, qword ptr [rbp - 160]
	test	rdi, rdi
	je	LBB38_80

	mov	qword ptr [rbp - 152], rdi
	mov	rsi, qword ptr [rbp - 144]
	sub	rsi, rdi
	sar	rsi, 3
Ltmp1060:
	mov	edx, 8
	call	__ZN5Botan17deallocate_memoryEPvmm
Ltmp1061:
	jmp	LBB38_80
LBB38_78:
Ltmp1062:
	mov	rdi, rax
	call	___clang_call_terminate
LBB38_79:
Ltmp1050:
	mov	rbx, rax
LBB38_80:
	mov	rdi, qword ptr [rbp - 200]
	test	rdi, rdi
	je	LBB38_84

	mov	qword ptr [rbp - 192], rdi
	mov	rsi, qword ptr [rbp - 184]
	sub	rsi, rdi
	sar	rsi, 3
Ltmp1063:
	mov	edx, 8
	call	__ZN5Botan17deallocate_memoryEPvmm
Ltmp1064:
	jmp	LBB38_84
LBB38_82:
Ltmp1065:
	mov	rdi, rax
	call	___clang_call_terminate
LBB38_83:
Ltmp1047:
	mov	rbx, rax
LBB38_84:
	mov	rdi, qword ptr [rbp - 248]
	test	rdi, rdi
	je	LBB38_88

	mov	qword ptr [rbp - 240], rdi
	mov	rsi, qword ptr [rbp - 232]
	sub	rsi, rdi
	sar	rsi, 3
Ltmp1066:
	mov	edx, 8
	call	__ZN5Botan17deallocate_memoryEPvmm
Ltmp1067:
	jmp	LBB38_88
LBB38_86:
Ltmp1068:
	mov	rdi, rax
	call	___clang_call_terminate
LBB38_87:
Ltmp1044:
	mov	rbx, rax
LBB38_88:
	mov	rdi, qword ptr [rbp - 120]
	test	rdi, rdi
	je	LBB38_92

	mov	qword ptr [rbp - 112], rdi
	mov	rsi, qword ptr [rbp - 104]
	sub	rsi, rdi
	sar	rsi, 3
Ltmp1069:
	mov	edx, 8
	call	__ZN5Botan17deallocate_memoryEPvmm
Ltmp1070:
	jmp	LBB38_92
LBB38_108:
Ltmp1071:
	mov	rdi, rax
	call	___clang_call_terminate
LBB38_101:
Ltmp1041:
	mov	rdi, rax
	call	___clang_call_terminate
LBB38_70:
Ltmp1035:
	mov	rbx, rax
	mov	rdi, qword ptr [rbp - 80]
	test	rdi, rdi
	je	LBB38_92

	mov	qword ptr [rbp - 72], rdi
	mov	rsi, qword ptr [rbp - 64]
	sub	rsi, rdi
	sar	rsi, 3
Ltmp1036:
	mov	edx, 8
	call	__ZN5Botan17deallocate_memoryEPvmm
Ltmp1037:
	jmp	LBB38_92
LBB38_102:
Ltmp1038:
	mov	rdi, rax
	call	___clang_call_terminate
LBB38_99:
Ltmp1032:
	mov	rdi, rax
	call	___clang_call_terminate
LBB38_98:
Ltmp1029:
	mov	rdi, rax
	call	___clang_call_terminate
LBB38_64:
Ltmp1020:
	mov	rbx, rax
	mov	rdi, qword ptr [rbp - 80]
	test	rdi, rdi
	je	LBB38_68

	mov	qword ptr [rbp - 72], rdi
	mov	rsi, qword ptr [rbp - 64]
	sub	rsi, rdi
	sar	rsi, 3
Ltmp1021:
	mov	edx, 8
	call	__ZN5Botan17deallocate_memoryEPvmm
Ltmp1022:
	jmp	LBB38_68
LBB38_66:
Ltmp1023:
	mov	rdi, rax
	call	___clang_call_terminate
LBB38_67:
Ltmp1017:
	mov	rbx, rax
LBB38_68:
	mov	rdi, qword ptr [rbp - 120]
	test	rdi, rdi
	je	LBB38_92

	mov	qword ptr [rbp - 112], rdi
	mov	rsi, qword ptr [rbp - 104]
	sub	rsi, rdi
	sar	rsi, 3
Ltmp1024:
	mov	edx, 8
	call	__ZN5Botan17deallocate_memoryEPvmm
Ltmp1025:
	jmp	LBB38_92
LBB38_100:
Ltmp1026:
	mov	rdi, rax
	call	___clang_call_terminate
LBB38_96:
Ltmp1014:
	mov	rdi, rax
	call	___clang_call_terminate
LBB38_95:
Ltmp1011:
	mov	rdi, rax
	call	___clang_call_terminate
LBB38_58:
Ltmp1002:
	mov	rbx, rax
	mov	rdi, qword ptr [rbp - 80]
	test	rdi, rdi
	je	LBB38_62

	mov	qword ptr [rbp - 72], rdi
	mov	rsi, qword ptr [rbp - 64]
	sub	rsi, rdi
	sar	rsi, 3
Ltmp1003:
	mov	edx, 8
	call	__ZN5Botan17deallocate_memoryEPvmm
Ltmp1004:
	jmp	LBB38_62
LBB38_60:
Ltmp1005:
	mov	rdi, rax
	call	___clang_call_terminate
LBB38_61:
Ltmp999:
	mov	rbx, rax
LBB38_62:
	mov	rdi, qword ptr [rbp - 120]
	test	rdi, rdi
	je	LBB38_92

	mov	qword ptr [rbp - 112], rdi
	mov	rsi, qword ptr [rbp - 104]
	sub	rsi, rdi
	sar	rsi, 3
Ltmp1006:
	mov	edx, 8
	call	__ZN5Botan17deallocate_memoryEPvmm
Ltmp1007:
	jmp	LBB38_92
LBB38_97:
Ltmp1008:
	mov	rdi, rax
	call	___clang_call_terminate
LBB38_93:
Ltmp996:
	mov	rdi, rax
	call	___clang_call_terminate
LBB38_56:
Ltmp990:
	mov	rbx, rax
	mov	rdi, qword ptr [rbp - 80]
	test	rdi, rdi
	je	LBB38_92

	mov	qword ptr [rbp - 72], rdi
	mov	rsi, qword ptr [rbp - 64]
	sub	rsi, rdi
	sar	rsi, 3
Ltmp991:
	mov	edx, 8
	call	__ZN5Botan17deallocate_memoryEPvmm
Ltmp992:
LBB38_92:
	mov	rdi, rbx
	call	__Unwind_Resume
	ud2
LBB38_94:
Ltmp993:
	mov	rdi, rax
	call	___clang_call_terminate
Lfunc_end17:
	.cfi_endproc
	.section	__TEXT,__gcc_except_tab
	.p2align	2
GCC_except_table38:
Lexception17:
	.byte	255                     
	.byte	155                     
	.uleb128 Lttbase12-Lttbaseref12
Lttbaseref12:
	.byte	1                       
	.uleb128 Lcst_end17-Lcst_begin17
Lcst_begin17:
	.uleb128 Lfunc_begin17-Lfunc_begin17 
	.uleb128 Ltmp988-Lfunc_begin17  
	.byte	0                       
	.byte	0                       
	.uleb128 Ltmp988-Lfunc_begin17  
	.uleb128 Ltmp989-Ltmp988        
	.uleb128 Ltmp990-Lfunc_begin17  
	.byte	0                       
	.uleb128 Ltmp994-Lfunc_begin17  
	.uleb128 Ltmp995-Ltmp994        
	.uleb128 Ltmp996-Lfunc_begin17  
	.byte	1                       
	.uleb128 Ltmp995-Lfunc_begin17  
	.uleb128 Ltmp997-Ltmp995        
	.byte	0                       
	.byte	0                       
	.uleb128 Ltmp997-Lfunc_begin17  
	.uleb128 Ltmp998-Ltmp997        
	.uleb128 Ltmp999-Lfunc_begin17  
	.byte	0                       
	.uleb128 Ltmp1000-Lfunc_begin17 
	.uleb128 Ltmp1001-Ltmp1000      
	.uleb128 Ltmp1002-Lfunc_begin17 
	.byte	0                       
	.uleb128 Ltmp1009-Lfunc_begin17 
	.uleb128 Ltmp1010-Ltmp1009      
	.uleb128 Ltmp1011-Lfunc_begin17 
	.byte	1                       
	.uleb128 Ltmp1012-Lfunc_begin17 
	.uleb128 Ltmp1013-Ltmp1012      
	.uleb128 Ltmp1014-Lfunc_begin17 
	.byte	1                       
	.uleb128 Ltmp1013-Lfunc_begin17 
	.uleb128 Ltmp1015-Ltmp1013      
	.byte	0                       
	.byte	0                       
	.uleb128 Ltmp1015-Lfunc_begin17 
	.uleb128 Ltmp1016-Ltmp1015      
	.uleb128 Ltmp1017-Lfunc_begin17 
	.byte	0                       
	.uleb128 Ltmp1018-Lfunc_begin17 
	.uleb128 Ltmp1019-Ltmp1018      
	.uleb128 Ltmp1020-Lfunc_begin17 
	.byte	0                       
	.uleb128 Ltmp1027-Lfunc_begin17 
	.uleb128 Ltmp1028-Ltmp1027      
	.uleb128 Ltmp1029-Lfunc_begin17 
	.byte	1                       
	.uleb128 Ltmp1030-Lfunc_begin17 
	.uleb128 Ltmp1031-Ltmp1030      
	.uleb128 Ltmp1032-Lfunc_begin17 
	.byte	1                       
	.uleb128 Ltmp1031-Lfunc_begin17 
	.uleb128 Ltmp1033-Ltmp1031      
	.byte	0                       
	.byte	0                       
	.uleb128 Ltmp1033-Lfunc_begin17 
	.uleb128 Ltmp1034-Ltmp1033      
	.uleb128 Ltmp1035-Lfunc_begin17 
	.byte	0                       
	.uleb128 Ltmp1039-Lfunc_begin17 
	.uleb128 Ltmp1040-Ltmp1039      
	.uleb128 Ltmp1041-Lfunc_begin17 
	.byte	1                       
	.uleb128 Ltmp1040-Lfunc_begin17 
	.uleb128 Ltmp1042-Ltmp1040      
	.byte	0                       
	.byte	0                       
	.uleb128 Ltmp1042-Lfunc_begin17 
	.uleb128 Ltmp1043-Ltmp1042      
	.uleb128 Ltmp1044-Lfunc_begin17 
	.byte	0                       
	.uleb128 Ltmp1045-Lfunc_begin17 
	.uleb128 Ltmp1046-Ltmp1045      
	.uleb128 Ltmp1047-Lfunc_begin17 
	.byte	0                       
	.uleb128 Ltmp1048-Lfunc_begin17 
	.uleb128 Ltmp1049-Ltmp1048      
	.uleb128 Ltmp1050-Lfunc_begin17 
	.byte	0                       
	.uleb128 Ltmp1051-Lfunc_begin17 
	.uleb128 Ltmp1052-Ltmp1051      
	.uleb128 Ltmp1053-Lfunc_begin17 
	.byte	0                       
	.uleb128 Ltmp1054-Lfunc_begin17 
	.uleb128 Ltmp1055-Ltmp1054      
	.uleb128 Ltmp1056-Lfunc_begin17 
	.byte	0                       
	.uleb128 Ltmp1072-Lfunc_begin17 
	.uleb128 Ltmp1073-Ltmp1072      
	.uleb128 Ltmp1074-Lfunc_begin17 
	.byte	1                       
	.uleb128 Ltmp1075-Lfunc_begin17 
	.uleb128 Ltmp1076-Ltmp1075      
	.uleb128 Ltmp1077-Lfunc_begin17 
	.byte	1                       
	.uleb128 Ltmp1078-Lfunc_begin17 
	.uleb128 Ltmp1079-Ltmp1078      
	.uleb128 Ltmp1080-Lfunc_begin17 
	.byte	1                       
	.uleb128 Ltmp1081-Lfunc_begin17 
	.uleb128 Ltmp1082-Ltmp1081      
	.uleb128 Ltmp1083-Lfunc_begin17 
	.byte	1                       
	.uleb128 Ltmp1084-Lfunc_begin17 
	.uleb128 Ltmp1085-Ltmp1084      
	.uleb128 Ltmp1086-Lfunc_begin17 
	.byte	1                       
	.uleb128 Ltmp1087-Lfunc_begin17 
	.uleb128 Ltmp1088-Ltmp1087      
	.uleb128 Ltmp1089-Lfunc_begin17 
	.byte	0                       
	.uleb128 Ltmp1057-Lfunc_begin17 
	.uleb128 Ltmp1058-Ltmp1057      
	.uleb128 Ltmp1059-Lfunc_begin17 
	.byte	1                       
	.uleb128 Ltmp1060-Lfunc_begin17 
	.uleb128 Ltmp1061-Ltmp1060      
	.uleb128 Ltmp1062-Lfunc_begin17 
	.byte	1                       
	.uleb128 Ltmp1063-Lfunc_begin17 
	.uleb128 Ltmp1064-Ltmp1063      
	.uleb128 Ltmp1065-Lfunc_begin17 
	.byte	1                       
	.uleb128 Ltmp1066-Lfunc_begin17 
	.uleb128 Ltmp1067-Ltmp1066      
	.uleb128 Ltmp1068-Lfunc_begin17 
	.byte	1                       
	.uleb128 Ltmp1069-Lfunc_begin17 
	.uleb128 Ltmp1070-Ltmp1069      
	.uleb128 Ltmp1071-Lfunc_begin17 
	.byte	1                       
	.uleb128 Ltmp1036-Lfunc_begin17 
	.uleb128 Ltmp1037-Ltmp1036      
	.uleb128 Ltmp1038-Lfunc_begin17 
	.byte	1                       
	.uleb128 Ltmp1021-Lfunc_begin17 
	.uleb128 Ltmp1022-Ltmp1021      
	.uleb128 Ltmp1023-Lfunc_begin17 
	.byte	1                       
	.uleb128 Ltmp1024-Lfunc_begin17 
	.uleb128 Ltmp1025-Ltmp1024      
	.uleb128 Ltmp1026-Lfunc_begin17 
	.byte	1                       
	.uleb128 Ltmp1003-Lfunc_begin17 
	.uleb128 Ltmp1004-Ltmp1003      
	.uleb128 Ltmp1005-Lfunc_begin17 
	.byte	1                       
	.uleb128 Ltmp1006-Lfunc_begin17 
	.uleb128 Ltmp1007-Ltmp1006      
	.uleb128 Ltmp1008-Lfunc_begin17 
	.byte	1                       
	.uleb128 Ltmp991-Lfunc_begin17  
	.uleb128 Ltmp992-Ltmp991        
	.uleb128 Ltmp993-Lfunc_begin17  
	.byte	1                       
	.uleb128 Ltmp992-Lfunc_begin17  
	.uleb128 Lfunc_end17-Ltmp992    
	.byte	0                       
	.byte	0                       
Lcst_end17:
	.byte	1                       
                                        
	.byte	0                       
	.p2align	2
                                        
	.long	0                       
Lttbase12:
	.p2align	2
                                        
	.section	__TEXT,__text,regular,pure_instructions
	.globl	__ZTv0_n64_NK5Botan14RSA_PrivateKey9check_keyERNS_21RandomNumberGeneratorEb 
	.p2align	4, 0x90
__ZTv0_n64_NK5Botan14RSA_PrivateKey9check_keyERNS_21RandomNumberGeneratorEb: 
	.cfi_startproc

	push	rbp
	.cfi_def_cfa_offset 16
	.cfi_offset rbp, -16
	mov	rbp, rsp
	.cfi_def_cfa_register rbp
	mov	rax, qword ptr [rdi]
	add	rdi, qword ptr [rax - 64]
	pop	rbp
	jmp	__ZNK5Botan14RSA_PrivateKey9check_keyERNS_21RandomNumberGeneratorEb 
	.cfi_endproc
                                        
	.globl	__ZThn8_NK5Botan14RSA_PrivateKey9check_keyERNS_21RandomNumberGeneratorEb 
	.p2align	4, 0x90
__ZThn8_NK5Botan14RSA_PrivateKey9check_keyERNS_21RandomNumberGeneratorEb: 
	.cfi_startproc

	push	rbp
	.cfi_def_cfa_offset 16
	.cfi_offset rbp, -16
	mov	rbp, rsp
	.cfi_def_cfa_register rbp
	add	rdi, -8
	pop	rbp
	jmp	__ZNK5Botan14RSA_PrivateKey9check_keyERNS_21RandomNumberGeneratorEb 
	.cfi_endproc
                                        
	.globl	__ZNK5Botan13RSA_PublicKey20create_encryption_opERNS_21RandomNumberGeneratorERKNSt3__112basic_stringIcNS3_11char_traitsIcEENS3_9allocatorIcEEEESB_ 
	.p2align	4, 0x90
__ZNK5Botan13RSA_PublicKey20create_encryption_opERNS_21RandomNumberGeneratorERKNSt3__112basic_stringIcNS3_11char_traitsIcEENS3_9allocatorIcEEEESB_: 
Lfunc_begin18:
	.cfi_startproc
	.cfi_personality 155, ___gxx_personality_v0
	.cfi_lsda 16, Lexception18

	push	rbp
	.cfi_def_cfa_offset 16
	.cfi_offset rbp, -16
	mov	rbp, rsp
	.cfi_def_cfa_register rbp
	push	r15
	push	r14
	push	r12
	push	rbx
	sub	rsp, 32
	.cfi_offset rbx, -48
	.cfi_offset r12, -40
	.cfi_offset r14, -32
	.cfi_offset r15, -24
	mov	rbx, r8
	mov	r12, rcx
	mov	r14, rsi
	mov	r15, rdi
	movzx	ecx, byte ptr [r8]
	mov	rax, rcx
	shr	rax
	and	cl, 1
	mov	rdx, qword ptr [r8 + 8]
	mov	rsi, rdx
	cmove	rsi, rax
	cmp	rsi, 4
	jne	LBB41_4

Ltmp1090:
	lea	rcx, [rip + L_.str.7]
	mov	r8d, 4
	mov	rdi, rbx
	xor	esi, esi
	mov	rdx, -1
	call	__ZNKSt3__112basic_stringIcNS_11char_traitsIcEENS_9allocatorIcEEE7compareEmmPKcm
Ltmp1091:

	test	eax, eax
	je	LBB41_5

	movzx	eax, byte ptr [rbx]
	mov	rdx, qword ptr [rbx + 8]
	mov	ecx, eax
	and	cl, 1
	shr	rax
LBB41_4:
	test	cl, cl
	cmovne	rax, rdx
	test	rax, rax
	jne	LBB41_9
LBB41_5:
	mov	edi, 32
	call	__Znwm
	mov	rbx, rax
Ltmp1101:
	mov	rdi, rax
	mov	rsi, r12
	call	__ZN5Botan6PK_Ops19Encryption_with_EMEC2ERKNSt3__112basic_stringIcNS2_11char_traitsIcEENS2_9allocatorIcEEEE
Ltmp1102:

	mov	rax, qword ptr [r14 + 8]
	mov	qword ptr [rbx + 16], rax
	mov	rax, qword ptr [r14 + 16]
	mov	qword ptr [rbx + 24], rax
	test	rax, rax
	je	LBB41_8

	lock		inc	qword ptr [rax + 8]
LBB41_8:
	lea	rax, [rip + __ZTVN5Botan12_GLOBAL__N_124RSA_Encryption_OperationE+16]
	mov	qword ptr [rbx], rax
	mov	qword ptr [r15], rbx
	mov	rax, r15
	add	rsp, 32
	pop	rbx
	pop	r12
	pop	r14
	pop	r15
	pop	rbp
	ret
LBB41_9:
	mov	edi, 32
	call	___cxa_allocate_exception
	mov	r15, rax
	mov	rax, qword ptr [r14]
Ltmp1093:
	lea	rdi, [rbp - 56]
	mov	rsi, r14
	call	qword ptr [rax + 16]
Ltmp1094:

	mov	r12b, 1
Ltmp1096:
	lea	rsi, [rbp - 56]
	mov	rdi, r15
	mov	rdx, rbx
	call	__ZN5Botan18Provider_Not_FoundC1ERKNSt3__112basic_stringIcNS1_11char_traitsIcEENS1_9allocatorIcEEEES9_
Ltmp1097:

	xor	r12d, r12d
Ltmp1098:
	mov	rsi, qword ptr [rip + __ZTIN5Botan18Provider_Not_FoundE@GOTPCREL]
	mov	rdx, qword ptr [rip + __ZN5Botan18Provider_Not_FoundD1Ev@GOTPCREL]
	mov	rdi, r15
	call	___cxa_throw
Ltmp1099:

	ud2
LBB41_13:
Ltmp1095:
	mov	r14, rax
	jmp	LBB41_17
LBB41_14:
Ltmp1100:
	mov	r14, rax
	test	byte ptr [rbp - 56], 1
	je	LBB41_16

	mov	rdi, qword ptr [rbp - 40]
	call	__ZdlPv
LBB41_16:
	test	r12b, r12b
	je	LBB41_19
LBB41_17:
	mov	rdi, r15
	call	___cxa_free_exception
	jmp	LBB41_19
LBB41_20:
Ltmp1092:
	mov	rdi, rax
	call	___clang_call_terminate
LBB41_18:
Ltmp1103:
	mov	r14, rax
	mov	rdi, rbx
	call	__ZdlPv
LBB41_19:
	mov	rdi, r14
	call	__Unwind_Resume
	ud2
Lfunc_end18:
	.cfi_endproc
	.section	__TEXT,__gcc_except_tab
	.p2align	2
GCC_except_table41:
Lexception18:
	.byte	255                     
	.byte	155                     
	.uleb128 Lttbase13-Lttbaseref13
Lttbaseref13:
	.byte	1                       
	.uleb128 Lcst_end18-Lcst_begin18
Lcst_begin18:
	.uleb128 Ltmp1090-Lfunc_begin18 
	.uleb128 Ltmp1091-Ltmp1090      
	.uleb128 Ltmp1092-Lfunc_begin18 
	.byte	1                       
	.uleb128 Ltmp1091-Lfunc_begin18 
	.uleb128 Ltmp1101-Ltmp1091      
	.byte	0                       
	.byte	0                       
	.uleb128 Ltmp1101-Lfunc_begin18 
	.uleb128 Ltmp1102-Ltmp1101      
	.uleb128 Ltmp1103-Lfunc_begin18 
	.byte	0                       
	.uleb128 Ltmp1102-Lfunc_begin18 
	.uleb128 Ltmp1093-Ltmp1102      
	.byte	0                       
	.byte	0                       
	.uleb128 Ltmp1093-Lfunc_begin18 
	.uleb128 Ltmp1094-Ltmp1093      
	.uleb128 Ltmp1095-Lfunc_begin18 
	.byte	0                       
	.uleb128 Ltmp1096-Lfunc_begin18 
	.uleb128 Ltmp1099-Ltmp1096      
	.uleb128 Ltmp1100-Lfunc_begin18 
	.byte	0                       
	.uleb128 Ltmp1099-Lfunc_begin18 
	.uleb128 Lfunc_end18-Ltmp1099   
	.byte	0                       
	.byte	0                       
Lcst_end18:
	.byte	1                       
                                        
	.byte	0                       
	.p2align	2
                                        
	.long	0                       
Lttbase13:
	.p2align	2
                                        
	.section	__TEXT,__text,regular,pure_instructions
	.globl	__ZN5Botan18Provider_Not_FoundD1Ev 
	.weak_def_can_be_hidden	__ZN5Botan18Provider_Not_FoundD1Ev
	.p2align	4, 0x90
__ZN5Botan18Provider_Not_FoundD1Ev:     
	.cfi_startproc

	push	rbp
	.cfi_def_cfa_offset 16
	.cfi_offset rbp, -16
	mov	rbp, rsp
	.cfi_def_cfa_register rbp
	push	rbx
	push	rax
	.cfi_offset rbx, -24
	mov	rbx, rdi
	mov	rax, qword ptr [rip + __ZTVN5Botan9ExceptionE@GOTPCREL]
	add	rax, 16
	mov	qword ptr [rdi], rax
	test	byte ptr [rdi + 8], 1
	je	LBB42_2

	mov	rdi, qword ptr [rbx + 24]
	call	__ZdlPv
LBB42_2:
	mov	rdi, rbx
	add	rsp, 8
	pop	rbx
	pop	rbp
	jmp	__ZNSt9exceptionD2Ev    
	.cfi_endproc
                                        
	.globl	__ZTv0_n112_NK5Botan13RSA_PublicKey20create_encryption_opERNS_21RandomNumberGeneratorERKNSt3__112basic_stringIcNS3_11char_traitsIcEENS3_9allocatorIcEEEESB_ 
	.p2align	4, 0x90
__ZTv0_n112_NK5Botan13RSA_PublicKey20create_encryption_opERNS_21RandomNumberGeneratorERKNSt3__112basic_stringIcNS3_11char_traitsIcEENS3_9allocatorIcEEEESB_: 
	.cfi_startproc

	push	rbp
	.cfi_def_cfa_offset 16
	.cfi_offset rbp, -16
	mov	rbp, rsp
	.cfi_def_cfa_register rbp
	push	rbx
	push	rax
	.cfi_offset rbx, -24
	mov	rbx, rdi
	mov	rax, qword ptr [rsi]
	add	rsi, qword ptr [rax - 112]
	call	__ZNK5Botan13RSA_PublicKey20create_encryption_opERNS_21RandomNumberGeneratorERKNSt3__112basic_stringIcNS3_11char_traitsIcEENS3_9allocatorIcEEEESB_
	mov	rax, rbx
	add	rsp, 8
	pop	rbx
	pop	rbp
	ret
	.cfi_endproc
                                        
	.globl	__ZNK5Botan13RSA_PublicKey24create_kem_encryption_opERNS_21RandomNumberGeneratorERKNSt3__112basic_stringIcNS3_11char_traitsIcEENS3_9allocatorIcEEEESB_ 
	.p2align	4, 0x90
__ZNK5Botan13RSA_PublicKey24create_kem_encryption_opERNS_21RandomNumberGeneratorERKNSt3__112basic_stringIcNS3_11char_traitsIcEENS3_9allocatorIcEEEESB_: 
Lfunc_begin19:
	.cfi_startproc
	.cfi_personality 155, ___gxx_personality_v0
	.cfi_lsda 16, Lexception19

	push	rbp
	.cfi_def_cfa_offset 16
	.cfi_offset rbp, -16
	mov	rbp, rsp
	.cfi_def_cfa_register rbp
	push	r15
	push	r14
	push	r12
	push	rbx
	sub	rsp, 32
	.cfi_offset rbx, -48
	.cfi_offset r12, -40
	.cfi_offset r14, -32
	.cfi_offset r15, -24
	mov	rbx, r8
	mov	r12, rcx
	mov	r14, rsi
	mov	r15, rdi
	movzx	ecx, byte ptr [r8]
	mov	rax, rcx
	shr	rax
	and	cl, 1
	mov	rdx, qword ptr [r8 + 8]
	mov	rsi, rdx
	cmove	rsi, rax
	cmp	rsi, 4
	jne	LBB44_4

Ltmp1104:
	lea	rcx, [rip + L_.str.7]
	mov	r8d, 4
	mov	rdi, rbx
	xor	esi, esi
	mov	rdx, -1
	call	__ZNKSt3__112basic_stringIcNS_11char_traitsIcEENS_9allocatorIcEEE7compareEmmPKcm
Ltmp1105:

	test	eax, eax
	je	LBB44_5

	movzx	eax, byte ptr [rbx]
	mov	rdx, qword ptr [rbx + 8]
	mov	ecx, eax
	and	cl, 1
	shr	rax
LBB44_4:
	test	cl, cl
	cmovne	rax, rdx
	test	rax, rax
	jne	LBB44_9
LBB44_5:
	mov	edi, 32
	call	__Znwm
	mov	rbx, rax
Ltmp1115:
	mov	rdi, rax
	mov	rsi, r12
	call	__ZN5Botan6PK_Ops23KEM_Encryption_with_KDFC2ERKNSt3__112basic_stringIcNS2_11char_traitsIcEENS2_9allocatorIcEEEE
Ltmp1116:

	mov	rax, qword ptr [r14 + 8]
	mov	qword ptr [rbx + 16], rax
	mov	rax, qword ptr [r14 + 16]
	mov	qword ptr [rbx + 24], rax
	test	rax, rax
	je	LBB44_8

	lock		inc	qword ptr [rax + 8]
LBB44_8:
	lea	rax, [rip + __ZTVN5Botan12_GLOBAL__N_128RSA_KEM_Encryption_OperationE+16]
	mov	qword ptr [rbx], rax
	mov	qword ptr [r15], rbx
	mov	rax, r15
	add	rsp, 32
	pop	rbx
	pop	r12
	pop	r14
	pop	r15
	pop	rbp
	ret
LBB44_9:
	mov	edi, 32
	call	___cxa_allocate_exception
	mov	r15, rax
	mov	rax, qword ptr [r14]
Ltmp1107:
	lea	rdi, [rbp - 56]
	mov	rsi, r14
	call	qword ptr [rax + 16]
Ltmp1108:

	mov	r12b, 1
Ltmp1110:
	lea	rsi, [rbp - 56]
	mov	rdi, r15
	mov	rdx, rbx
	call	__ZN5Botan18Provider_Not_FoundC1ERKNSt3__112basic_stringIcNS1_11char_traitsIcEENS1_9allocatorIcEEEES9_
Ltmp1111:

	xor	r12d, r12d
Ltmp1112:
	mov	rsi, qword ptr [rip + __ZTIN5Botan18Provider_Not_FoundE@GOTPCREL]
	mov	rdx, qword ptr [rip + __ZN5Botan18Provider_Not_FoundD1Ev@GOTPCREL]
	mov	rdi, r15
	call	___cxa_throw
Ltmp1113:

	ud2
LBB44_13:
Ltmp1109:
	mov	r14, rax
	jmp	LBB44_17
LBB44_14:
Ltmp1114:
	mov	r14, rax
	test	byte ptr [rbp - 56], 1
	je	LBB44_16

	mov	rdi, qword ptr [rbp - 40]
	call	__ZdlPv
LBB44_16:
	test	r12b, r12b
	je	LBB44_19
LBB44_17:
	mov	rdi, r15
	call	___cxa_free_exception
	jmp	LBB44_19
LBB44_20:
Ltmp1106:
	mov	rdi, rax
	call	___clang_call_terminate
LBB44_18:
Ltmp1117:
	mov	r14, rax
	mov	rdi, rbx
	call	__ZdlPv
LBB44_19:
	mov	rdi, r14
	call	__Unwind_Resume
	ud2
Lfunc_end19:
	.cfi_endproc
	.section	__TEXT,__gcc_except_tab
	.p2align	2
GCC_except_table44:
Lexception19:
	.byte	255                     
	.byte	155                     
	.uleb128 Lttbase14-Lttbaseref14
Lttbaseref14:
	.byte	1                       
	.uleb128 Lcst_end19-Lcst_begin19
Lcst_begin19:
	.uleb128 Ltmp1104-Lfunc_begin19 
	.uleb128 Ltmp1105-Ltmp1104      
	.uleb128 Ltmp1106-Lfunc_begin19 
	.byte	1                       
	.uleb128 Ltmp1105-Lfunc_begin19 
	.uleb128 Ltmp1115-Ltmp1105      
	.byte	0                       
	.byte	0                       
	.uleb128 Ltmp1115-Lfunc_begin19 
	.uleb128 Ltmp1116-Ltmp1115      
	.uleb128 Ltmp1117-Lfunc_begin19 
	.byte	0                       
	.uleb128 Ltmp1116-Lfunc_begin19 
	.uleb128 Ltmp1107-Ltmp1116      
	.byte	0                       
	.byte	0                       
	.uleb128 Ltmp1107-Lfunc_begin19 
	.uleb128 Ltmp1108-Ltmp1107      
	.uleb128 Ltmp1109-Lfunc_begin19 
	.byte	0                       
	.uleb128 Ltmp1110-Lfunc_begin19 
	.uleb128 Ltmp1113-Ltmp1110      
	.uleb128 Ltmp1114-Lfunc_begin19 
	.byte	0                       
	.uleb128 Ltmp1113-Lfunc_begin19 
	.uleb128 Lfunc_end19-Ltmp1113   
	.byte	0                       
	.byte	0                       
Lcst_end19:
	.byte	1                       
                                        
	.byte	0                       
	.p2align	2
                                        
	.long	0                       
Lttbase14:
	.p2align	2
                                        
	.section	__TEXT,__text,regular,pure_instructions
	.globl	__ZTv0_n120_NK5Botan13RSA_PublicKey24create_kem_encryption_opERNS_21RandomNumberGeneratorERKNSt3__112basic_stringIcNS3_11char_traitsIcEENS3_9allocatorIcEEEESB_ 
	.p2align	4, 0x90
__ZTv0_n120_NK5Botan13RSA_PublicKey24create_kem_encryption_opERNS_21RandomNumberGeneratorERKNSt3__112basic_stringIcNS3_11char_traitsIcEENS3_9allocatorIcEEEESB_: 
	.cfi_startproc

	push	rbp
	.cfi_def_cfa_offset 16
	.cfi_offset rbp, -16
	mov	rbp, rsp
	.cfi_def_cfa_register rbp
	push	rbx
	push	rax
	.cfi_offset rbx, -24
	mov	rbx, rdi
	mov	rax, qword ptr [rsi]
	add	rsi, qword ptr [rax - 120]
	call	__ZNK5Botan13RSA_PublicKey24create_kem_encryption_opERNS_21RandomNumberGeneratorERKNSt3__112basic_stringIcNS3_11char_traitsIcEENS3_9allocatorIcEEEESB_
	mov	rax, rbx
	add	rsp, 8
	pop	rbx
	pop	rbp
	ret
	.cfi_endproc
                                        
	.globl	__ZNK5Botan13RSA_PublicKey22create_verification_opERKNSt3__112basic_stringIcNS1_11char_traitsIcEENS1_9allocatorIcEEEES9_ 
	.p2align	4, 0x90
__ZNK5Botan13RSA_PublicKey22create_verification_opERKNSt3__112basic_stringIcNS1_11char_traitsIcEENS1_9allocatorIcEEEES9_: 
Lfunc_begin20:
	.cfi_startproc
	.cfi_personality 155, ___gxx_personality_v0
	.cfi_lsda 16, Lexception20

	push	rbp
	.cfi_def_cfa_offset 16
	.cfi_offset rbp, -16
	mov	rbp, rsp
	.cfi_def_cfa_register rbp
	push	r15
	push	r14
	push	r12
	push	rbx
	sub	rsp, 32
	.cfi_offset rbx, -48
	.cfi_offset r12, -40
	.cfi_offset r14, -32
	.cfi_offset r15, -24
	mov	rbx, rcx
	mov	r12, rdx
	mov	r14, rsi
	mov	r15, rdi
	movzx	ecx, byte ptr [rcx]
	mov	rax, rcx
	shr	rax
	and	cl, 1
	mov	rdx, qword ptr [rbx + 8]
	mov	rsi, rdx
	cmove	rsi, rax
	cmp	rsi, 4
	jne	LBB46_4

Ltmp1118:
	lea	rcx, [rip + L_.str.7]
	mov	r8d, 4
	mov	rdi, rbx
	xor	esi, esi
	mov	rdx, -1
	call	__ZNKSt3__112basic_stringIcNS_11char_traitsIcEENS_9allocatorIcEEE7compareEmmPKcm
Ltmp1119:

	test	eax, eax
	je	LBB46_5

	movzx	eax, byte ptr [rbx]
	mov	rdx, qword ptr [rbx + 8]
	mov	ecx, eax
	and	cl, 1
	shr	rax
LBB46_4:
	test	cl, cl
	cmovne	rax, rdx
	test	rax, rax
	jne	LBB46_9
LBB46_5:
	mov	edi, 64
	call	__Znwm
	mov	rbx, rax
Ltmp1129:
	mov	rdi, rax
	mov	rsi, r12
	call	__ZN5Botan6PK_Ops22Verification_with_EMSAC2ERKNSt3__112basic_stringIcNS2_11char_traitsIcEENS2_9allocatorIcEEEE
Ltmp1130:

	mov	rax, qword ptr [r14 + 8]
	mov	qword ptr [rbx + 48], rax
	mov	rax, qword ptr [r14 + 16]
	mov	qword ptr [rbx + 56], rax
	test	rax, rax
	je	LBB46_8

	lock		inc	qword ptr [rax + 8]
LBB46_8:
	lea	rax, [rip + __ZTVN5Botan12_GLOBAL__N_120RSA_Verify_OperationE+16]
	mov	qword ptr [rbx], rax
	mov	qword ptr [r15], rbx
	mov	rax, r15
	add	rsp, 32
	pop	rbx
	pop	r12
	pop	r14
	pop	r15
	pop	rbp
	ret
LBB46_9:
	mov	edi, 32
	call	___cxa_allocate_exception
	mov	r15, rax
	mov	rax, qword ptr [r14]
Ltmp1121:
	lea	rdi, [rbp - 56]
	mov	rsi, r14
	call	qword ptr [rax + 16]
Ltmp1122:

	mov	r12b, 1
Ltmp1124:
	lea	rsi, [rbp - 56]
	mov	rdi, r15
	mov	rdx, rbx
	call	__ZN5Botan18Provider_Not_FoundC1ERKNSt3__112basic_stringIcNS1_11char_traitsIcEENS1_9allocatorIcEEEES9_
Ltmp1125:

	xor	r12d, r12d
Ltmp1126:
	mov	rsi, qword ptr [rip + __ZTIN5Botan18Provider_Not_FoundE@GOTPCREL]
	mov	rdx, qword ptr [rip + __ZN5Botan18Provider_Not_FoundD1Ev@GOTPCREL]
	mov	rdi, r15
	call	___cxa_throw
Ltmp1127:

	ud2
LBB46_13:
Ltmp1123:
	mov	r14, rax
	jmp	LBB46_17
LBB46_14:
Ltmp1128:
	mov	r14, rax
	test	byte ptr [rbp - 56], 1
	je	LBB46_16

	mov	rdi, qword ptr [rbp - 40]
	call	__ZdlPv
LBB46_16:
	test	r12b, r12b
	je	LBB46_19
LBB46_17:
	mov	rdi, r15
	call	___cxa_free_exception
	jmp	LBB46_19
LBB46_20:
Ltmp1120:
	mov	rdi, rax
	call	___clang_call_terminate
LBB46_18:
Ltmp1131:
	mov	r14, rax
	mov	rdi, rbx
	call	__ZdlPv
LBB46_19:
	mov	rdi, r14
	call	__Unwind_Resume
	ud2
Lfunc_end20:
	.cfi_endproc
	.section	__TEXT,__gcc_except_tab
	.p2align	2
GCC_except_table46:
Lexception20:
	.byte	255                     
	.byte	155                     
	.uleb128 Lttbase15-Lttbaseref15
Lttbaseref15:
	.byte	1                       
	.uleb128 Lcst_end20-Lcst_begin20
Lcst_begin20:
	.uleb128 Ltmp1118-Lfunc_begin20 
	.uleb128 Ltmp1119-Ltmp1118      
	.uleb128 Ltmp1120-Lfunc_begin20 
	.byte	1                       
	.uleb128 Ltmp1119-Lfunc_begin20 
	.uleb128 Ltmp1129-Ltmp1119      
	.byte	0                       
	.byte	0                       
	.uleb128 Ltmp1129-Lfunc_begin20 
	.uleb128 Ltmp1130-Ltmp1129      
	.uleb128 Ltmp1131-Lfunc_begin20 
	.byte	0                       
	.uleb128 Ltmp1130-Lfunc_begin20 
	.uleb128 Ltmp1121-Ltmp1130      
	.byte	0                       
	.byte	0                       
	.uleb128 Ltmp1121-Lfunc_begin20 
	.uleb128 Ltmp1122-Ltmp1121      
	.uleb128 Ltmp1123-Lfunc_begin20 
	.byte	0                       
	.uleb128 Ltmp1124-Lfunc_begin20 
	.uleb128 Ltmp1127-Ltmp1124      
	.uleb128 Ltmp1128-Lfunc_begin20 
	.byte	0                       
	.uleb128 Ltmp1127-Lfunc_begin20 
	.uleb128 Lfunc_end20-Ltmp1127   
	.byte	0                       
	.byte	0                       
Lcst_end20:
	.byte	1                       
                                        
	.byte	0                       
	.p2align	2
                                        
	.long	0                       
Lttbase15:
	.p2align	2
                                        
	.section	__TEXT,__text,regular,pure_instructions
	.globl	__ZTv0_n128_NK5Botan13RSA_PublicKey22create_verification_opERKNSt3__112basic_stringIcNS1_11char_traitsIcEENS1_9allocatorIcEEEES9_ 
	.p2align	4, 0x90
__ZTv0_n128_NK5Botan13RSA_PublicKey22create_verification_opERKNSt3__112basic_stringIcNS1_11char_traitsIcEENS1_9allocatorIcEEEES9_: 
	.cfi_startproc

	push	rbp
	.cfi_def_cfa_offset 16
	.cfi_offset rbp, -16
	mov	rbp, rsp
	.cfi_def_cfa_register rbp
	push	rbx
	push	rax
	.cfi_offset rbx, -24
	mov	rbx, rdi
	mov	rax, qword ptr [rsi]
	add	rsi, qword ptr [rax - 128]
	call	__ZNK5Botan13RSA_PublicKey22create_verification_opERKNSt3__112basic_stringIcNS1_11char_traitsIcEENS1_9allocatorIcEEEES9_
	mov	rax, rbx
	add	rsp, 8
	pop	rbx
	pop	rbp
	ret
	.cfi_endproc
                                        
	.globl	__ZNK5Botan14RSA_PrivateKey20create_decryption_opERNS_21RandomNumberGeneratorERKNSt3__112basic_stringIcNS3_11char_traitsIcEENS3_9allocatorIcEEEESB_ 
	.p2align	4, 0x90
__ZNK5Botan14RSA_PrivateKey20create_decryption_opERNS_21RandomNumberGeneratorERKNSt3__112basic_stringIcNS3_11char_traitsIcEENS3_9allocatorIcEEEESB_: 
Lfunc_begin21:
	.cfi_startproc
	.cfi_personality 155, ___gxx_personality_v0
	.cfi_lsda 16, Lexception21

	push	rbp
	.cfi_def_cfa_offset 16
	.cfi_offset rbp, -16
	mov	rbp, rsp
	.cfi_def_cfa_register rbp
	push	r15
	push	r14
	push	r13
	push	r12
	push	rbx
	sub	rsp, 24
	.cfi_offset rbx, -56
	.cfi_offset r12, -48
	.cfi_offset r13, -40
	.cfi_offset r14, -32
	.cfi_offset r15, -24
	mov	rbx, r8
	mov	r13, rcx
	mov	r14, rdx
	mov	r15, rsi
	mov	r12, rdi
	movzx	ecx, byte ptr [r8]
	mov	rax, rcx
	shr	rax
	and	cl, 1
	mov	rdx, qword ptr [r8 + 8]
	mov	rsi, rdx
	cmove	rsi, rax
	cmp	rsi, 4
	jne	LBB48_4

Ltmp1132:
	lea	rcx, [rip + L_.str.7]
	mov	r8d, 4
	mov	rdi, rbx
	xor	esi, esi
	mov	rdx, -1
	call	__ZNKSt3__112basic_stringIcNS_11char_traitsIcEENS_9allocatorIcEEE7compareEmmPKcm
Ltmp1133:

	test	eax, eax
	je	LBB48_5

	movzx	eax, byte ptr [rbx]
	mov	rdx, qword ptr [rbx + 8]
	mov	ecx, eax
	and	cl, 1
	shr	rax
LBB48_4:
	test	cl, cl
	cmovne	rax, rdx
	test	rax, rax
	jne	LBB48_12
LBB48_5:
	mov	edi, 368
	call	__Znwm
	mov	rbx, rax
Ltmp1140:
	mov	rdi, rax
	mov	rsi, r13
	call	__ZN5Botan6PK_Ops19Decryption_with_EMEC2ERKNSt3__112basic_stringIcNS2_11char_traitsIcEENS2_9allocatorIcEEEE
Ltmp1141:

	mov	rdi, rbx
	add	rdi, 16
Ltmp1143:
	mov	rsi, r15
	mov	rdx, r14
	call	__ZN5Botan12_GLOBAL__N_121RSA_Private_OperationC2ERKNS_14RSA_PrivateKeyERNS_21RandomNumberGeneratorE
Ltmp1144:

	lea	rax, [rip + __ZTVN5Botan12_GLOBAL__N_124RSA_Decryption_OperationE+16]
	mov	qword ptr [rbx], rax
	mov	qword ptr [r12], rbx
	mov	rax, r12
	add	rsp, 24
	pop	rbx
	pop	r12
	pop	r13
	pop	r14
	pop	r15
	pop	rbp
	ret
LBB48_12:
	mov	edi, 32
	call	___cxa_allocate_exception
	mov	r15, rax
	mov	byte ptr [rbp - 64], 6
	mov	dword ptr [rbp - 63], 4281170
	mov	r12b, 1
Ltmp1135:
	lea	rsi, [rbp - 64]
	mov	rdi, rax
	mov	rdx, rbx
	call	__ZN5Botan18Provider_Not_FoundC1ERKNSt3__112basic_stringIcNS1_11char_traitsIcEENS1_9allocatorIcEEEES9_
Ltmp1136:

	xor	r12d, r12d
Ltmp1137:
	mov	rsi, qword ptr [rip + __ZTIN5Botan18Provider_Not_FoundE@GOTPCREL]
	mov	rdx, qword ptr [rip + __ZN5Botan18Provider_Not_FoundD1Ev@GOTPCREL]
	mov	rdi, r15
	call	___cxa_throw
Ltmp1138:

	ud2
LBB48_15:
Ltmp1139:
	mov	r14, rax
	test	byte ptr [rbp - 64], 1
	je	LBB48_17

	mov	rdi, qword ptr [rbp - 48]
	call	__ZdlPv
LBB48_17:
	test	r12b, r12b
	je	LBB48_19

	mov	rdi, r15
	call	___cxa_free_exception
	jmp	LBB48_19
LBB48_20:
Ltmp1134:
	mov	rdi, rax
	call	___clang_call_terminate
LBB48_8:
Ltmp1145:
	mov	r14, rax
	mov	rax, qword ptr [rip + __ZTVN5Botan6PK_Ops19Decryption_with_EMEE@GOTPCREL]
	add	rax, 16
	mov	qword ptr [rbx], rax
	mov	rdi, qword ptr [rbx + 8]
	mov	qword ptr [rbx + 8], 0
	test	rdi, rdi
	je	LBB48_11

	mov	rax, qword ptr [rdi]
	call	qword ptr [rax + 8]
	jmp	LBB48_11
LBB48_10:
Ltmp1142:
	mov	r14, rax
LBB48_11:
	mov	rdi, rbx
	call	__ZdlPv
LBB48_19:
	mov	rdi, r14
	call	__Unwind_Resume
	ud2
Lfunc_end21:
	.cfi_endproc
	.section	__TEXT,__gcc_except_tab
	.p2align	2
GCC_except_table48:
Lexception21:
	.byte	255                     
	.byte	155                     
	.uleb128 Lttbase16-Lttbaseref16
Lttbaseref16:
	.byte	1                       
	.uleb128 Lcst_end21-Lcst_begin21
Lcst_begin21:
	.uleb128 Ltmp1132-Lfunc_begin21 
	.uleb128 Ltmp1133-Ltmp1132      
	.uleb128 Ltmp1134-Lfunc_begin21 
	.byte	1                       
	.uleb128 Ltmp1133-Lfunc_begin21 
	.uleb128 Ltmp1140-Ltmp1133      
	.byte	0                       
	.byte	0                       
	.uleb128 Ltmp1140-Lfunc_begin21 
	.uleb128 Ltmp1141-Ltmp1140      
	.uleb128 Ltmp1142-Lfunc_begin21 
	.byte	0                       
	.uleb128 Ltmp1143-Lfunc_begin21 
	.uleb128 Ltmp1144-Ltmp1143      
	.uleb128 Ltmp1145-Lfunc_begin21 
	.byte	0                       
	.uleb128 Ltmp1144-Lfunc_begin21 
	.uleb128 Ltmp1135-Ltmp1144      
	.byte	0                       
	.byte	0                       
	.uleb128 Ltmp1135-Lfunc_begin21 
	.uleb128 Ltmp1138-Ltmp1135      
	.uleb128 Ltmp1139-Lfunc_begin21 
	.byte	0                       
	.uleb128 Ltmp1138-Lfunc_begin21 
	.uleb128 Lfunc_end21-Ltmp1138   
	.byte	0                       
	.byte	0                       
Lcst_end21:
	.byte	1                       
                                        
	.byte	0                       
	.p2align	2
                                        
	.long	0                       
Lttbase16:
	.p2align	2
                                        
	.section	__TEXT,__text,regular,pure_instructions
	.globl	__ZNK5Botan14RSA_PrivateKey24create_kem_decryption_opERNS_21RandomNumberGeneratorERKNSt3__112basic_stringIcNS3_11char_traitsIcEENS3_9allocatorIcEEEESB_ 
	.p2align	4, 0x90
__ZNK5Botan14RSA_PrivateKey24create_kem_decryption_opERNS_21RandomNumberGeneratorERKNSt3__112basic_stringIcNS3_11char_traitsIcEENS3_9allocatorIcEEEESB_: 
Lfunc_begin22:
	.cfi_startproc
	.cfi_personality 155, ___gxx_personality_v0
	.cfi_lsda 16, Lexception22

	push	rbp
	.cfi_def_cfa_offset 16
	.cfi_offset rbp, -16
	mov	rbp, rsp
	.cfi_def_cfa_register rbp
	push	r15
	push	r14
	push	r13
	push	r12
	push	rbx
	sub	rsp, 24
	.cfi_offset rbx, -56
	.cfi_offset r12, -48
	.cfi_offset r13, -40
	.cfi_offset r14, -32
	.cfi_offset r15, -24
	mov	rbx, r8
	mov	r13, rcx
	mov	r14, rdx
	mov	r15, rsi
	mov	r12, rdi
	movzx	ecx, byte ptr [r8]
	mov	rax, rcx
	shr	rax
	and	cl, 1
	mov	rdx, qword ptr [r8 + 8]
	mov	rsi, rdx
	cmove	rsi, rax
	cmp	rsi, 4
	jne	LBB49_4

Ltmp1146:
	lea	rcx, [rip + L_.str.7]
	mov	r8d, 4
	mov	rdi, rbx
	xor	esi, esi
	mov	rdx, -1
	call	__ZNKSt3__112basic_stringIcNS_11char_traitsIcEENS_9allocatorIcEEE7compareEmmPKcm
Ltmp1147:

	test	eax, eax
	je	LBB49_5

	movzx	eax, byte ptr [rbx]
	mov	rdx, qword ptr [rbx + 8]
	mov	ecx, eax
	and	cl, 1
	shr	rax
LBB49_4:
	test	cl, cl
	cmovne	rax, rdx
	test	rax, rax
	jne	LBB49_12
LBB49_5:
	mov	edi, 368
	call	__Znwm
	mov	rbx, rax
Ltmp1154:
	mov	rdi, rax
	mov	rsi, r13
	call	__ZN5Botan6PK_Ops23KEM_Decryption_with_KDFC2ERKNSt3__112basic_stringIcNS2_11char_traitsIcEENS2_9allocatorIcEEEE
Ltmp1155:

	mov	rdi, rbx
	add	rdi, 16
Ltmp1157:
	mov	rsi, r15
	mov	rdx, r14
	call	__ZN5Botan12_GLOBAL__N_121RSA_Private_OperationC2ERKNS_14RSA_PrivateKeyERNS_21RandomNumberGeneratorE
Ltmp1158:

	lea	rax, [rip + __ZTVN5Botan12_GLOBAL__N_128RSA_KEM_Decryption_OperationE+16]
	mov	qword ptr [rbx], rax
	mov	qword ptr [r12], rbx
	mov	rax, r12
	add	rsp, 24
	pop	rbx
	pop	r12
	pop	r13
	pop	r14
	pop	r15
	pop	rbp
	ret
LBB49_12:
	mov	edi, 32
	call	___cxa_allocate_exception
	mov	r15, rax
	mov	byte ptr [rbp - 64], 6
	mov	dword ptr [rbp - 63], 4281170
	mov	r12b, 1
Ltmp1149:
	lea	rsi, [rbp - 64]
	mov	rdi, rax
	mov	rdx, rbx
	call	__ZN5Botan18Provider_Not_FoundC1ERKNSt3__112basic_stringIcNS1_11char_traitsIcEENS1_9allocatorIcEEEES9_
Ltmp1150:

	xor	r12d, r12d
Ltmp1151:
	mov	rsi, qword ptr [rip + __ZTIN5Botan18Provider_Not_FoundE@GOTPCREL]
	mov	rdx, qword ptr [rip + __ZN5Botan18Provider_Not_FoundD1Ev@GOTPCREL]
	mov	rdi, r15
	call	___cxa_throw
Ltmp1152:

	ud2
LBB49_15:
Ltmp1153:
	mov	r14, rax
	test	byte ptr [rbp - 64], 1
	je	LBB49_17

	mov	rdi, qword ptr [rbp - 48]
	call	__ZdlPv
LBB49_17:
	test	r12b, r12b
	je	LBB49_19

	mov	rdi, r15
	call	___cxa_free_exception
	jmp	LBB49_19
LBB49_20:
Ltmp1148:
	mov	rdi, rax
	call	___clang_call_terminate
LBB49_8:
Ltmp1159:
	mov	r14, rax
	mov	rax, qword ptr [rip + __ZTVN5Botan6PK_Ops23KEM_Decryption_with_KDFE@GOTPCREL]
	add	rax, 16
	mov	qword ptr [rbx], rax
	mov	rdi, qword ptr [rbx + 8]
	mov	qword ptr [rbx + 8], 0
	test	rdi, rdi
	je	LBB49_11

	mov	rax, qword ptr [rdi]
	call	qword ptr [rax + 8]
	jmp	LBB49_11
LBB49_10:
Ltmp1156:
	mov	r14, rax
LBB49_11:
	mov	rdi, rbx
	call	__ZdlPv
LBB49_19:
	mov	rdi, r14
	call	__Unwind_Resume
	ud2
Lfunc_end22:
	.cfi_endproc
	.section	__TEXT,__gcc_except_tab
	.p2align	2
GCC_except_table49:
Lexception22:
	.byte	255                     
	.byte	155                     
	.uleb128 Lttbase17-Lttbaseref17
Lttbaseref17:
	.byte	1                       
	.uleb128 Lcst_end22-Lcst_begin22
Lcst_begin22:
	.uleb128 Ltmp1146-Lfunc_begin22 
	.uleb128 Ltmp1147-Ltmp1146      
	.uleb128 Ltmp1148-Lfunc_begin22 
	.byte	1                       
	.uleb128 Ltmp1147-Lfunc_begin22 
	.uleb128 Ltmp1154-Ltmp1147      
	.byte	0                       
	.byte	0                       
	.uleb128 Ltmp1154-Lfunc_begin22 
	.uleb128 Ltmp1155-Ltmp1154      
	.uleb128 Ltmp1156-Lfunc_begin22 
	.byte	0                       
	.uleb128 Ltmp1157-Lfunc_begin22 
	.uleb128 Ltmp1158-Ltmp1157      
	.uleb128 Ltmp1159-Lfunc_begin22 
	.byte	0                       
	.uleb128 Ltmp1158-Lfunc_begin22 
	.uleb128 Ltmp1149-Ltmp1158      
	.byte	0                       
	.byte	0                       
	.uleb128 Ltmp1149-Lfunc_begin22 
	.uleb128 Ltmp1152-Ltmp1149      
	.uleb128 Ltmp1153-Lfunc_begin22 
	.byte	0                       
	.uleb128 Ltmp1152-Lfunc_begin22 
	.uleb128 Lfunc_end22-Ltmp1152   
	.byte	0                       
	.byte	0                       
Lcst_end22:
	.byte	1                       
                                        
	.byte	0                       
	.p2align	2
                                        
	.long	0                       
Lttbase17:
	.p2align	2
                                        
	.section	__TEXT,__text,regular,pure_instructions
	.globl	__ZNK5Botan14RSA_PrivateKey19create_signature_opERNS_21RandomNumberGeneratorERKNSt3__112basic_stringIcNS3_11char_traitsIcEENS3_9allocatorIcEEEESB_ 
	.p2align	4, 0x90
__ZNK5Botan14RSA_PrivateKey19create_signature_opERNS_21RandomNumberGeneratorERKNSt3__112basic_stringIcNS3_11char_traitsIcEENS3_9allocatorIcEEEESB_: 
Lfunc_begin23:
	.cfi_startproc
	.cfi_personality 155, ___gxx_personality_v0
	.cfi_lsda 16, Lexception23

	push	rbp
	.cfi_def_cfa_offset 16
	.cfi_offset rbp, -16
	mov	rbp, rsp
	.cfi_def_cfa_register rbp
	push	r15
	push	r14
	push	r13
	push	r12
	push	rbx
	sub	rsp, 24
	.cfi_offset rbx, -56
	.cfi_offset r12, -48
	.cfi_offset r13, -40
	.cfi_offset r14, -32
	.cfi_offset r15, -24
	mov	rbx, r8
