	.section	__TEXT,__text,regular,pure_instructions
	.build_version macos, 11, 0	sdk_version 11, 1
	.intel_syntax noprefix
	.globl	__ZNK8CryptoPP11RSAFunction14GetAlgorithmIDEv 
	.p2align	1, 0x90
__ZNK8CryptoPP11RSAFunction14GetAlgorithmIDEv: 
Lfunc_begin0:
	.cfi_startproc
	.cfi_personality 155, ___gxx_personality_v0
	.cfi_lsda 16, Lexception0

	push	rbp
	.cfi_def_cfa_offset 16
	.cfi_offset rbp, -16
	mov	rbp, rsp
	.cfi_def_cfa_register rbp
	push	r14
	push	rbx
	sub	rsp, 32
	.cfi_offset rbx, -32
	.cfi_offset r14, -24
	mov	rbx, rdi
	lea	r14, [rbp - 48]
	mov	rdi, r14
	call	__ZN8CryptoPP4ASN16pkcs_1Ev
Ltmp0:
	mov	edx, 1
	mov	rdi, rbx
	mov	rsi, r14
	call	__ZN8CryptoPPplERKNS_3OIDEm
Ltmp1:

	mov	rax, qword ptr [rip + __ZTVN8CryptoPP3OIDE@GOTPCREL]
	add	rax, 16
	mov	qword ptr [rbp - 48], rax
	mov	rdi, qword ptr [rbp - 40]
	test	rdi, rdi
	je	LBB0_3

	mov	qword ptr [rbp - 32], rdi
	call	__ZdlPv
LBB0_3:
	mov	rax, rbx
	add	rsp, 32
	pop	rbx
	pop	r14
	pop	rbp
	ret
LBB0_4:
Ltmp2:
	mov	rbx, rax
	mov	rax, qword ptr [rip + __ZTVN8CryptoPP3OIDE@GOTPCREL]
	add	rax, 16
	mov	qword ptr [rbp - 48], rax
	mov	rdi, qword ptr [rbp - 40]
	test	rdi, rdi
	je	LBB0_6

	mov	qword ptr [rbp - 32], rdi
	call	__ZdlPv
LBB0_6:
	mov	rdi, rbx
	call	__Unwind_Resume
	ud2
Lfunc_end0:
	.cfi_endproc
	.section	__TEXT,__gcc_except_tab
	.p2align	2
GCC_except_table0:
Lexception0:
	.byte	255                     
	.byte	255                     
	.byte	1                       
	.uleb128 Lcst_end0-Lcst_begin0
Lcst_begin0:
	.uleb128 Lfunc_begin0-Lfunc_begin0 
	.uleb128 Ltmp0-Lfunc_begin0     
	.byte	0                       
	.byte	0                       
	.uleb128 Ltmp0-Lfunc_begin0     
	.uleb128 Ltmp1-Ltmp0            
	.uleb128 Ltmp2-Lfunc_begin0     
	.byte	0                       
	.uleb128 Ltmp1-Lfunc_begin0     
	.uleb128 Lfunc_end0-Ltmp1       
	.byte	0                       
	.byte	0                       
Lcst_end0:
	.p2align	2
                                        
	.section	__TEXT,__text,regular,pure_instructions
	.globl	__ZThn8_NK8CryptoPP11RSAFunction14GetAlgorithmIDEv 
	.p2align	1, 0x90
__ZThn8_NK8CryptoPP11RSAFunction14GetAlgorithmIDEv: 
	.cfi_startproc

	push	rbp
	.cfi_def_cfa_offset 16
	.cfi_offset rbp, -16
	mov	rbp, rsp
	.cfi_def_cfa_register rbp
	push	rbx
	push	rax
	.cfi_offset rbx, -24
	mov	rbx, rdi
	call	__ZNK8CryptoPP11RSAFunction14GetAlgorithmIDEv
	mov	rax, rbx
	add	rsp, 8
	pop	rbx
	pop	rbp
	ret
	.cfi_endproc
                                        
	.globl	__ZN8CryptoPP11RSAFunction18BERDecodePublicKeyERNS_22BufferedTransformationEbm 
	.p2align	1, 0x90
__ZN8CryptoPP11RSAFunction18BERDecodePublicKeyERNS_22BufferedTransformationEbm: 
Lfunc_begin1:
	.cfi_startproc
	.cfi_personality 155, ___gxx_personality_v0
	.cfi_lsda 16, Lexception1

	push	rbp
	.cfi_def_cfa_offset 16
	.cfi_offset rbp, -16
	mov	rbp, rsp
	.cfi_def_cfa_register rbp
	push	r14
	push	rbx
	sub	rsp, 64
	.cfi_offset rbx, -32
	.cfi_offset r14, -24
	mov	rbx, rdi
	mov	rax, qword ptr [rip + ___stack_chk_guard@GOTPCREL]
	mov	rax, qword ptr [rax]
	mov	qword ptr [rbp - 24], rax
	lea	r14, [rbp - 80]
	mov	rdi, r14
	mov	edx, 48
	call	__ZN8CryptoPP17BERGeneralDecoderC2ERNS_22BufferedTransformationEh
	mov	rax, qword ptr [rip + __ZTVN8CryptoPP18BERSequenceDecoderE@GOTPCREL]
	lea	rcx, [rax + 16]
	mov	qword ptr [r14], rcx
	add	rax, 424
	mov	qword ptr [r14 + 8], rax
	lea	rdi, [rbx + 24]
Ltmp3:
	mov	rsi, r14
	call	__ZN8CryptoPP7Integer9BERDecodeERNS_22BufferedTransformationE
Ltmp4:

	add	rbx, 72
Ltmp5:
	lea	rsi, [rbp - 80]
	mov	rdi, rbx
	call	__ZN8CryptoPP7Integer9BERDecodeERNS_22BufferedTransformationE
Ltmp6:

Ltmp7:
	lea	rdi, [rbp - 80]
	call	__ZN8CryptoPP17BERGeneralDecoder10MessageEndEv
Ltmp8:

	lea	rdi, [rbp - 80]
	call	__ZN8CryptoPP17BERGeneralDecoderD2Ev
	mov	rax, qword ptr [rip + ___stack_chk_guard@GOTPCREL]
	mov	rax, qword ptr [rax]
	cmp	rax, qword ptr [rbp - 24]
	jne	LBB2_8

	add	rsp, 64
	pop	rbx
	pop	r14
	pop	rbp
	ret
LBB2_8:
	call	___stack_chk_fail
LBB2_5:
Ltmp9:
	mov	rbx, rax
Ltmp10:
	lea	rdi, [rbp - 80]
	call	__ZN8CryptoPP17BERGeneralDecoderD2Ev
Ltmp11:

	mov	rdi, rbx
	call	__Unwind_Resume
	ud2
LBB2_7:
Ltmp12:
	mov	rdi, rax
	call	___clang_call_terminate
Lfunc_end1:
	.cfi_endproc
	.section	__TEXT,__gcc_except_tab
	.p2align	2
GCC_except_table2:
Lexception1:
	.byte	255                     
	.byte	155                     
	.uleb128 Lttbase0-Lttbaseref0
Lttbaseref0:
	.byte	1                       
	.uleb128 Lcst_end1-Lcst_begin1
Lcst_begin1:
	.uleb128 Lfunc_begin1-Lfunc_begin1 
	.uleb128 Ltmp3-Lfunc_begin1     
	.byte	0                       
	.byte	0                       
	.uleb128 Ltmp3-Lfunc_begin1     
	.uleb128 Ltmp8-Ltmp3            
	.uleb128 Ltmp9-Lfunc_begin1     
	.byte	0                       
	.uleb128 Ltmp8-Lfunc_begin1     
	.uleb128 Ltmp10-Ltmp8           
	.byte	0                       
	.byte	0                       
	.uleb128 Ltmp10-Lfunc_begin1    
	.uleb128 Ltmp11-Ltmp10          
	.uleb128 Ltmp12-Lfunc_begin1    
	.byte	1                       
	.uleb128 Ltmp11-Lfunc_begin1    
	.uleb128 Lfunc_end1-Ltmp11      
	.byte	0                       
	.byte	0                       
Lcst_end1:
	.byte	1                       
                                        
	.byte	0                       
	.p2align	2
                                        
	.long	0                       
Lttbase0:
	.p2align	2
                                        
	.section	__TEXT,__text,regular,pure_instructions
	.globl	__ZN8CryptoPP18BERSequenceDecoderD1Ev 
	.weak_def_can_be_hidden	__ZN8CryptoPP18BERSequenceDecoderD1Ev
	.p2align	1, 0x90
__ZN8CryptoPP18BERSequenceDecoderD1Ev:  
	.cfi_startproc

	push	rbp
	.cfi_def_cfa_offset 16
	.cfi_offset rbp, -16
	mov	rbp, rsp
	.cfi_def_cfa_register rbp
	pop	rbp
	jmp	__ZN8CryptoPP17BERGeneralDecoderD2Ev 
	.cfi_endproc
                                        
	.private_extern	___clang_call_terminate 
	.globl	___clang_call_terminate
	.weak_def_can_be_hidden	___clang_call_terminate
	.p2align	4, 0x90
___clang_call_terminate:                

	push	rax
	call	___cxa_begin_catch
	call	__ZSt9terminatev
                                        
	.globl	__ZThn8_N8CryptoPP11RSAFunction18BERDecodePublicKeyERNS_22BufferedTransformationEbm 
	.p2align	1, 0x90
__ZThn8_N8CryptoPP11RSAFunction18BERDecodePublicKeyERNS_22BufferedTransformationEbm: 
	.cfi_startproc

	push	rbp
	.cfi_def_cfa_offset 16
	.cfi_offset rbp, -16
	mov	rbp, rsp
	.cfi_def_cfa_register rbp
	add	rdi, -8
	xor	edx, edx
	pop	rbp
	jmp	__ZN8CryptoPP11RSAFunction18BERDecodePublicKeyERNS_22BufferedTransformationEbm 
	.cfi_endproc
                                        
	.globl	__ZNK8CryptoPP11RSAFunction18DEREncodePublicKeyERNS_22BufferedTransformationE 
	.p2align	1, 0x90
__ZNK8CryptoPP11RSAFunction18DEREncodePublicKeyERNS_22BufferedTransformationE: 
Lfunc_begin2:
	.cfi_startproc
	.cfi_personality 155, ___gxx_personality_v0
	.cfi_lsda 16, Lexception2

	push	rbp
	.cfi_def_cfa_offset 16
	.cfi_offset rbp, -16
	mov	rbp, rsp
	.cfi_def_cfa_register rbp
	push	r14
	push	rbx
	sub	rsp, 112
	.cfi_offset rbx, -32
	.cfi_offset r14, -24
	mov	rbx, rdi
	mov	rax, qword ptr [rip + ___stack_chk_guard@GOTPCREL]
	mov	rax, qword ptr [rax]
	mov	qword ptr [rbp - 24], rax
	lea	r14, [rbp - 120]
	mov	rdi, r14
	mov	edx, 48
	call	__ZN8CryptoPP17DERGeneralEncoderC2ERNS_22BufferedTransformationEh
	mov	rax, qword ptr [rip + __ZTVN8CryptoPP18DERSequenceEncoderE@GOTPCREL]
	lea	rcx, [rax + 16]
	mov	qword ptr [r14], rcx
	add	rax, 416
	mov	qword ptr [r14 + 8], rax
	lea	rdi, [rbx + 24]
Ltmp13:
	mov	rsi, r14
	call	__ZNK8CryptoPP7Integer9DEREncodeERNS_22BufferedTransformationE
Ltmp14:

	add	rbx, 72
Ltmp15:
	lea	rsi, [rbp - 120]
	mov	rdi, rbx
	call	__ZNK8CryptoPP7Integer9DEREncodeERNS_22BufferedTransformationE
Ltmp16:

Ltmp17:
	lea	rdi, [rbp - 120]
	call	__ZN8CryptoPP17DERGeneralEncoder10MessageEndEv
Ltmp18:

	lea	rdi, [rbp - 120]
	call	__ZN8CryptoPP17DERGeneralEncoderD2Ev
	mov	rax, qword ptr [rip + ___stack_chk_guard@GOTPCREL]
	mov	rax, qword ptr [rax]
	cmp	rax, qword ptr [rbp - 24]
	jne	LBB6_8

	add	rsp, 112
	pop	rbx
	pop	r14
	pop	rbp
	ret
LBB6_8:
	call	___stack_chk_fail
LBB6_5:
Ltmp19:
	mov	rbx, rax
Ltmp20:
	lea	rdi, [rbp - 120]
	call	__ZN8CryptoPP17DERGeneralEncoderD2Ev
Ltmp21:

	mov	rdi, rbx
	call	__Unwind_Resume
	ud2
LBB6_7:
Ltmp22:
	mov	rdi, rax
	call	___clang_call_terminate
Lfunc_end2:
	.cfi_endproc
	.section	__TEXT,__gcc_except_tab
	.p2align	2
GCC_except_table6:
Lexception2:
	.byte	255                     
	.byte	155                     
	.uleb128 Lttbase1-Lttbaseref1
Lttbaseref1:
	.byte	1                       
	.uleb128 Lcst_end2-Lcst_begin2
Lcst_begin2:
	.uleb128 Lfunc_begin2-Lfunc_begin2 
	.uleb128 Ltmp13-Lfunc_begin2    
	.byte	0                       
	.byte	0                       
	.uleb128 Ltmp13-Lfunc_begin2    
	.uleb128 Ltmp18-Ltmp13          
	.uleb128 Ltmp19-Lfunc_begin2    
	.byte	0                       
	.uleb128 Ltmp18-Lfunc_begin2    
	.uleb128 Ltmp20-Ltmp18          
	.byte	0                       
	.byte	0                       
	.uleb128 Ltmp20-Lfunc_begin2    
	.uleb128 Ltmp21-Ltmp20          
	.uleb128 Ltmp22-Lfunc_begin2    
	.byte	1                       
	.uleb128 Ltmp21-Lfunc_begin2    
	.uleb128 Lfunc_end2-Ltmp21      
	.byte	0                       
	.byte	0                       
Lcst_end2:
	.byte	1                       
                                        
	.byte	0                       
	.p2align	2
                                        
	.long	0                       
Lttbase1:
	.p2align	2
                                        
	.section	__TEXT,__text,regular,pure_instructions
	.globl	__ZN8CryptoPP18DERSequenceEncoderD1Ev 
	.weak_def_can_be_hidden	__ZN8CryptoPP18DERSequenceEncoderD1Ev
	.p2align	1, 0x90
__ZN8CryptoPP18DERSequenceEncoderD1Ev:  
	.cfi_startproc

	push	rbp
	.cfi_def_cfa_offset 16
	.cfi_offset rbp, -16
	mov	rbp, rsp
	.cfi_def_cfa_register rbp
	pop	rbp
	jmp	__ZN8CryptoPP17DERGeneralEncoderD2Ev 
	.cfi_endproc
                                        
	.globl	__ZThn8_NK8CryptoPP11RSAFunction18DEREncodePublicKeyERNS_22BufferedTransformationE 
	.p2align	1, 0x90
__ZThn8_NK8CryptoPP11RSAFunction18DEREncodePublicKeyERNS_22BufferedTransformationE: 
	.cfi_startproc

	push	rbp
	.cfi_def_cfa_offset 16
	.cfi_offset rbp, -16
	mov	rbp, rsp
	.cfi_def_cfa_register rbp
	add	rdi, -8
	pop	rbp
	jmp	__ZNK8CryptoPP11RSAFunction18DEREncodePublicKeyERNS_22BufferedTransformationE 
	.cfi_endproc
                                        
	.globl	__ZNK8CryptoPP11RSAFunction13ApplyFunctionERKNS_7IntegerE 
	.p2align	1, 0x90
__ZNK8CryptoPP11RSAFunction13ApplyFunctionERKNS_7IntegerE: 
	.cfi_startproc

	push	rbp
	.cfi_def_cfa_offset 16
	.cfi_offset rbp, -16
	mov	rbp, rsp
	.cfi_def_cfa_register rbp
	push	r15
	push	r14
	push	r13
	push	r12
	push	rbx
	push	rax
	.cfi_offset rbx, -56
	.cfi_offset r12, -48
	.cfi_offset r13, -40
	.cfi_offset r14, -32
	.cfi_offset r15, -24
	mov	r14, rdx
	mov	rbx, rsi
	mov	r15, rdi
	mov	rax, qword ptr [rsi]
	mov	r13, qword ptr [rax - 24]
	lea	r12, [rsi + r13]
	call	__ZN8CryptoPP7NullRNGEv
	mov	rcx, qword ptr [rbx + r13]
	mov	rdi, r12
	mov	rsi, rax
	xor	edx, edx
	call	qword ptr [rcx + 40]
	lea	rdx, [rbx + 72]
	lea	rcx, [rbx + 24]
	mov	rdi, r15
	mov	rsi, r14
	call	__ZN8CryptoPP13a_exp_b_mod_cERKNS_7IntegerES2_S2_
	mov	rax, r15
	add	rsp, 8
	pop	rbx
	pop	r12
	pop	r13
	pop	r14
	pop	r15
	pop	rbp
	ret
	.cfi_endproc
                                        
	.globl	__ZNK8CryptoPP11RSAFunction8ValidateERNS_21RandomNumberGeneratorEj 
	.p2align	1, 0x90
__ZNK8CryptoPP11RSAFunction8ValidateERNS_21RandomNumberGeneratorEj: 
	.cfi_startproc

	push	rbp
	.cfi_def_cfa_offset 16
	.cfi_offset rbp, -16
	mov	rbp, rsp
	.cfi_def_cfa_register rbp
	push	r15
	push	r14
	push	rbx
	push	rax
	.cfi_offset rbx, -40
	.cfi_offset r14, -32
	.cfi_offset r15, -24
	mov	r15, rdi
	lea	r14, [rdi + 24]
	call	__ZN8CryptoPP7Integer3OneEv
	mov	rdi, r14
	mov	rsi, rax
	call	__ZNK8CryptoPP7Integer7CompareERKS0_
	test	eax, eax
	jle	LBB10_1

	xor	ebx, ebx
	mov	rdi, r14
	xor	esi, esi
	call	__ZNK8CryptoPP7Integer6GetBitEm
	test	al, al
	je	LBB10_6

	add	r15, 72
	call	__ZN8CryptoPP7Integer3OneEv
	mov	rdi, r15
	mov	rsi, rax
	call	__ZNK8CryptoPP7Integer7CompareERKS0_
	test	eax, eax
	jle	LBB10_1

	xor	ebx, ebx
	mov	rdi, r15
	xor	esi, esi
	call	__ZNK8CryptoPP7Integer6GetBitEm
	test	al, al
	je	LBB10_6

	mov	rdi, r15
	mov	rsi, r14
	call	__ZNK8CryptoPP7Integer7CompareERKS0_
	mov	ebx, eax
	shr	ebx, 31
	jmp	LBB10_6
LBB10_1:
	xor	ebx, ebx
LBB10_6:
	mov	eax, ebx
	add	rsp, 8
	pop	rbx
	pop	r14
	pop	r15
	pop	rbp
	ret
	.cfi_endproc
                                        
	.globl	__ZTv0_n48_NK8CryptoPP11RSAFunction8ValidateERNS_21RandomNumberGeneratorEj 
	.p2align	1, 0x90
__ZTv0_n48_NK8CryptoPP11RSAFunction8ValidateERNS_21RandomNumberGeneratorEj: 
	.cfi_startproc

	push	rbp
	.cfi_def_cfa_offset 16
	.cfi_offset rbp, -16
	mov	rbp, rsp
	.cfi_def_cfa_register rbp
	mov	rax, qword ptr [rdi]
	add	rdi, qword ptr [rax - 48]
	pop	rbp
	jmp	__ZNK8CryptoPP11RSAFunction8ValidateERNS_21RandomNumberGeneratorEj 
	.cfi_endproc
                                        
	.globl	__ZNK8CryptoPP11RSAFunction12GetVoidValueEPKcRKSt9type_infoPv 
	.p2align	1, 0x90
__ZNK8CryptoPP11RSAFunction12GetVoidValueEPKcRKSt9type_infoPv: 
	.cfi_startproc

	push	rbp
	.cfi_def_cfa_offset 16
	.cfi_offset rbp, -16
	mov	rbp, rsp
	.cfi_def_cfa_register rbp
	push	rbx
	sub	rsp, 40
	.cfi_offset rbx, -24
	mov	r8, rcx
	mov	rcx, rdx
	mov	rdx, rsi
	mov	rsi, rdi
	lea	rbx, [rbp - 48]
	mov	rdi, rbx
	xor	r9d, r9d
	call	__ZN8CryptoPP19GetValueHelperClassINS_11RSAFunctionES1_EC2EPKS1_PKcRKSt9type_infoPvPKNS_14NameValuePairsE
	mov	rdi, rbx
	call	__ZN8CryptoPP19GetValueHelperClassINS_11RSAFunctionES1_E10AssignableEv
	lea	rsi, [rip + L_.str.10]
	mov	rdx, qword ptr [rip + __ZNK8CryptoPP11RSAFunction10GetModulusEv@GOTPCREL]
	mov	rdi, rax
	xor	ecx, ecx
	call	__ZN8CryptoPP19GetValueHelperClassINS_11RSAFunctionES1_EclINS_7IntegerEEERS2_PKcMS1_KFRKT_vE
	lea	rsi, [rip + L_.str.11]
	mov	rdx, qword ptr [rip + __ZNK8CryptoPP11RSAFunction17GetPublicExponentEv@GOTPCREL]
	mov	rdi, rax
	xor	ecx, ecx
	call	__ZN8CryptoPP19GetValueHelperClassINS_11RSAFunctionES1_EclINS_7IntegerEEERS2_PKcMS1_KFRKT_vE
	mov	al, byte ptr [rax + 32]
	add	rsp, 40
	pop	rbx
	pop	rbp
	ret
	.cfi_endproc
                                        
	.globl	__ZN8CryptoPP19GetValueHelperClassINS_11RSAFunctionES1_E10AssignableEv 
	.weak_def_can_be_hidden	__ZN8CryptoPP19GetValueHelperClassINS_11RSAFunctionES1_E10AssignableEv
	.p2align	1, 0x90
__ZN8CryptoPP19GetValueHelperClassINS_11RSAFunctionES1_E10AssignableEv: 
	.cfi_startproc

	push	rbp
	.cfi_def_cfa_offset 16
	.cfi_offset rbp, -16
	mov	rbp, rsp
	.cfi_def_cfa_register rbp
	push	r15
	push	r14
	push	rbx
	push	rax
	.cfi_offset rbx, -40
	.cfi_offset r14, -32
	.cfi_offset r15, -24
	mov	rbx, rdi
	cmp	byte ptr [rdi + 33], 0
	je	LBB13_2

	mov	rdi, qword ptr [rbx + 24]
	lea	rsi, [rip + L_.str.45]
	call	__ZNSt3__112basic_stringIcNS_11char_traitsIcEENS_9allocatorIcEEE6appendEPKc
	lea	rsi, [rip + __ZTSN8CryptoPP11RSAFunctionE]
	mov	rdi, rax
	call	__ZNSt3__112basic_stringIcNS_11char_traitsIcEENS_9allocatorIcEEE6appendEPKc
	mov	rdi, rax
	mov	esi, 59
	call	__ZNSt3__112basic_stringIcNS_11char_traitsIcEENS_9allocatorIcEEE9push_backEc
LBB13_2:
	cmp	byte ptr [rbx + 32], 0
	jne	LBB13_6

	mov	r14, qword ptr [rbx + 8]
	lea	rsi, [rip + L_.str.45]
	mov	edx, 11
	mov	rdi, r14
	call	_strncmp
	test	eax, eax
	jne	LBB13_6

	lea	rdi, [r14 + 11]
	lea	rsi, [rip + __ZTSN8CryptoPP11RSAFunctionE]
	call	_strcmp
	test	eax, eax
	jne	LBB13_6

	mov	rdx, qword ptr [rbx + 16]
	lea	rsi, [rip + __ZTIN8CryptoPP11RSAFunctionE]
	mov	rdi, r14
	call	__ZN8CryptoPP14NameValuePairs19ThrowIfTypeMismatchEPKcRKSt9type_infoS5_
	mov	r14, qword ptr [rbx]
	mov	r15, qword ptr [rbx + 24]
	mov	esi, 24
	lea	rdi, [r15 + rsi]
	add	rsi, r14
	call	__ZN8CryptoPP7IntegeraSERKS0_
	mov	eax, 72
	add	r15, rax
	add	r14, rax
	mov	rdi, r15
	mov	rsi, r14
	call	__ZN8CryptoPP7IntegeraSERKS0_
	mov	byte ptr [rbx + 32], 1
LBB13_6:
	mov	rax, rbx
	add	rsp, 8
	pop	rbx
	pop	r14
	pop	r15
	pop	rbp
	ret
	.cfi_endproc
                                        
	.globl	__ZN8CryptoPP19GetValueHelperClassINS_11RSAFunctionES1_EclINS_7IntegerEEERS2_PKcMS1_KFRKT_vE 
	.weak_def_can_be_hidden	__ZN8CryptoPP19GetValueHelperClassINS_11RSAFunctionES1_EclINS_7IntegerEEERS2_PKcMS1_KFRKT_vE
	.p2align	1, 0x90
__ZN8CryptoPP19GetValueHelperClassINS_11RSAFunctionES1_EclINS_7IntegerEEERS2_PKcMS1_KFRKT_vE: 
	.cfi_startproc

	push	rbp
	.cfi_def_cfa_offset 16
	.cfi_offset rbp, -16
	mov	rbp, rsp
	.cfi_def_cfa_register rbp
	push	r15
	push	r14
	push	r12
	push	rbx
	.cfi_offset rbx, -48
	.cfi_offset r12, -40
	.cfi_offset r14, -32
	.cfi_offset r15, -24
	mov	r14, rcx
	mov	r15, rdx
	mov	r12, rsi
	mov	rbx, rdi
	cmp	byte ptr [rdi + 33], 0
	je	LBB14_2

	mov	rdi, qword ptr [rbx + 24]
	mov	rsi, r12
	call	__ZNSt3__112basic_stringIcNS_11char_traitsIcEENS_9allocatorIcEEE6appendEPKc
	lea	rsi, [rip + L_.str.46]
	mov	rdi, rax
	call	__ZNSt3__112basic_stringIcNS_11char_traitsIcEENS_9allocatorIcEEE6appendEPKc
LBB14_2:
	cmp	byte ptr [rbx + 32], 0
	jne	LBB14_7

	mov	rsi, qword ptr [rbx + 8]
	mov	rdi, r12
	call	_strcmp
	test	eax, eax
	jne	LBB14_7

	mov	rdx, qword ptr [rbx + 16]
	mov	rsi, qword ptr [rip + __ZTIN8CryptoPP7IntegerE@GOTPCREL]
	mov	rdi, r12
	call	__ZN8CryptoPP14NameValuePairs19ThrowIfTypeMismatchEPKcRKSt9type_infoS5_
	add	r14, qword ptr [rbx]
	test	r15b, 1
	je	LBB14_6

	mov	rax, qword ptr [r14]
	mov	r15, qword ptr [r15 + rax - 1]
LBB14_6:
	mov	rdi, r14
	call	r15
	mov	rdi, qword ptr [rbx + 24]
	mov	rsi, rax
	call	__ZN8CryptoPP7IntegeraSERKS0_
	mov	byte ptr [rbx + 32], 1
LBB14_7:
	mov	rax, rbx
	pop	rbx
	pop	r12
	pop	r14
	pop	r15
	pop	rbp
	ret
	.cfi_endproc
                                        
	.globl	__ZNK8CryptoPP11RSAFunction10GetModulusEv 
	.weak_definition	__ZNK8CryptoPP11RSAFunction10GetModulusEv
	.p2align	1, 0x90
__ZNK8CryptoPP11RSAFunction10GetModulusEv: 

	push	rbp
	mov	rbp, rsp
	lea	rax, [rdi + 24]
	pop	rbp
	ret
                                        
	.globl	__ZNK8CryptoPP11RSAFunction17GetPublicExponentEv 
	.weak_definition	__ZNK8CryptoPP11RSAFunction17GetPublicExponentEv
	.p2align	1, 0x90
__ZNK8CryptoPP11RSAFunction17GetPublicExponentEv: 

	push	rbp
	mov	rbp, rsp
	lea	rax, [rdi + 72]
	pop	rbp
	ret
                                        
	.globl	__ZTv0_n32_NK8CryptoPP11RSAFunction12GetVoidValueEPKcRKSt9type_infoPv 
	.p2align	1, 0x90
__ZTv0_n32_NK8CryptoPP11RSAFunction12GetVoidValueEPKcRKSt9type_infoPv: 
	.cfi_startproc

	push	rbp
	.cfi_def_cfa_offset 16
	.cfi_offset rbp, -16
	mov	rbp, rsp
	.cfi_def_cfa_register rbp
	mov	rax, qword ptr [rdi]
	add	rdi, qword ptr [rax - 32]
	pop	rbp
	jmp	__ZNK8CryptoPP11RSAFunction12GetVoidValueEPKcRKSt9type_infoPv 
	.cfi_endproc
                                        
	.globl	__ZN8CryptoPP11RSAFunction10AssignFromERKNS_14NameValuePairsE 
	.p2align	1, 0x90
__ZN8CryptoPP11RSAFunction10AssignFromERKNS_14NameValuePairsE: 
	.cfi_startproc

	push	rbp
	.cfi_def_cfa_offset 16
	.cfi_offset rbp, -16
	mov	rbp, rsp
	.cfi_def_cfa_register rbp
	sub	rsp, 32
	mov	rax, rdi
	mov	qword ptr [rbp - 24], rdi
	mov	qword ptr [rbp - 16], rsi
	mov	byte ptr [rbp - 8], 0
	mov	rdi, rsi
	mov	rsi, rax
	call	__ZNK8CryptoPP14NameValuePairs13GetThisObjectINS_11RSAFunctionEEEbRT_
	test	al, al
	je	LBB18_2

	mov	byte ptr [rbp - 8], 1
LBB18_2:
	lea	rsi, [rip + L_.str.10]
	mov	rdx, qword ptr [rip + __ZN8CryptoPP11RSAFunction10SetModulusERKNS_7IntegerE@GOTPCREL]
	lea	rdi, [rbp - 24]
	xor	ecx, ecx
	call	__ZN8CryptoPP21AssignFromHelperClassINS_11RSAFunctionES1_EclINS_7IntegerEEERS2_PKcMS1_FvRKT_E
	lea	rsi, [rip + L_.str.11]
	mov	rdx, qword ptr [rip + __ZN8CryptoPP11RSAFunction17SetPublicExponentERKNS_7IntegerE@GOTPCREL]
	mov	rdi, rax
	xor	ecx, ecx
	call	__ZN8CryptoPP21AssignFromHelperClassINS_11RSAFunctionES1_EclINS_7IntegerEEERS2_PKcMS1_FvRKT_E
	add	rsp, 32
	pop	rbp
	ret
	.cfi_endproc
                                        
	.globl	__ZN8CryptoPP21AssignFromHelperClassINS_11RSAFunctionES1_EclINS_7IntegerEEERS2_PKcMS1_FvRKT_E 
	.weak_def_can_be_hidden	__ZN8CryptoPP21AssignFromHelperClassINS_11RSAFunctionES1_EclINS_7IntegerEEERS2_PKcMS1_FvRKT_E
	.p2align	1, 0x90
__ZN8CryptoPP21AssignFromHelperClassINS_11RSAFunctionES1_EclINS_7IntegerEEERS2_PKcMS1_FvRKT_E: 
Lfunc_begin3:
	.cfi_startproc
	.cfi_personality 155, ___gxx_personality_v0
	.cfi_lsda 16, Lexception3

	push	rbp
	.cfi_def_cfa_offset 16
	.cfi_offset rbp, -16
	mov	rbp, rsp
	.cfi_def_cfa_register rbp
	push	r15
	push	r14
	push	r13
	push	r12
	push	rbx
	sub	rsp, 152
	.cfi_offset rbx, -56
	.cfi_offset r12, -48
	.cfi_offset r13, -40
	.cfi_offset r14, -32
	.cfi_offset r15, -24
	mov	rbx, rdi
	cmp	byte ptr [rdi + 16], 0
	jne	LBB19_29

	mov	r12, rcx
	mov	r14, rdx
	mov	r15, rsi
	lea	r13, [rbp - 88]
	mov	rdi, r13
	call	__ZN8CryptoPP7IntegerC1Ev
	mov	rdi, qword ptr [rbx + 8]
	mov	rax, qword ptr [rdi]
Ltmp23:
	mov	rdx, qword ptr [rip + __ZTIN8CryptoPP7IntegerE@GOTPCREL]
	mov	rsi, r15
	mov	rcx, r13
	call	qword ptr [rax + 16]
Ltmp24:

	test	al, al
	je	LBB19_3

	add	r12, qword ptr [rbx]
	test	r14b, 1
	je	LBB19_26

	mov	rax, qword ptr [r12]
	mov	r14, qword ptr [r14 + rax - 1]
LBB19_26:
Ltmp42:
	lea	rsi, [rbp - 88]
	mov	rdi, r12
	call	r14
Ltmp43:

	mov	rax, qword ptr [rip + __ZTVN8CryptoPP7IntegerE@GOTPCREL]
	add	rax, 16
	mov	qword ptr [rbp - 88], rax
	mov	rdx, qword ptr [rbp - 56]
	test	rdx, rdx
	je	LBB19_29

	mov	rax, qword ptr [rbp - 72]
	mov	rcx, qword ptr [rbp - 64]
	cmp	rax, rcx
	cmovb	rcx, rax
	xor	eax, eax
	mov	rdi, rdx
	
	rep		stosq	qword ptr es:[rdi], rax
	
	mov	rdi, rdx
	call	__ZN8CryptoPP17AlignedDeallocateEPv
LBB19_29:
	mov	rax, rbx
	add	rsp, 152
	pop	rbx
	pop	r12
	pop	r13
	pop	r14
	pop	r15
	pop	rbp
	ret
LBB19_3:
	mov	edi, 40
	call	___cxa_allocate_exception
	mov	r14, rax
Ltmp25:
	lea	rsi, [rip + __ZTSN8CryptoPP11RSAFunctionE]
	lea	rdi, [rbp - 112]
	call	__ZNSt3__112basic_stringIcNS_11char_traitsIcEENS_9allocatorIcEEEC1INS_9nullptr_tEEEPKc
Ltmp26:

Ltmp28:
	lea	rdx, [rip + L_.str.47]
	lea	rdi, [rbp - 136]
	lea	rsi, [rbp - 112]
	call	__ZNSt3__1plIcNS_11char_traitsIcEENS_9allocatorIcEEEENS_12basic_stringIT_T0_T1_EERKS9_PKS6_
Ltmp29:

Ltmp31:
	lea	rdi, [rbp - 160]
	lea	rsi, [rbp - 136]
	mov	rdx, r15
	call	__ZNSt3__1plIcNS_11char_traitsIcEENS_9allocatorIcEEEENS_12basic_stringIT_T0_T1_EERKS9_PKS6_
Ltmp32:

Ltmp34:
	lea	rdx, [rip + L_.str.44]
	lea	rdi, [rbp - 184]
	lea	rsi, [rbp - 160]
	call	__ZNSt3__1plIcNS_11char_traitsIcEENS_9allocatorIcEEEENS_12basic_stringIT_T0_T1_EERKS9_PKS6_
Ltmp35:

	mov	r15b, 1
Ltmp37:
	lea	rdx, [rbp - 184]
	mov	rdi, r14
	mov	esi, 1
	call	__ZN8CryptoPP9ExceptionC2ENS0_9ErrorTypeERKNSt3__112basic_stringIcNS2_11char_traitsIcEENS2_9allocatorIcEEEE
Ltmp38:

	mov	rax, qword ptr [rip + __ZTVN8CryptoPP15InvalidArgumentE@GOTPCREL]
	add	rax, 16
	mov	qword ptr [r14], rax
	xor	r15d, r15d
Ltmp39:
	mov	rsi, qword ptr [rip + __ZTIN8CryptoPP15InvalidArgumentE@GOTPCREL]
	mov	rdx, qword ptr [rip + __ZN8CryptoPP15InvalidArgumentD1Ev@GOTPCREL]
	mov	rdi, r14
	call	___cxa_throw
Ltmp40:

	ud2
LBB19_13:
Ltmp36:
	mov	rbx, rax
	mov	r15b, 1
	jmp	LBB19_16
LBB19_12:
Ltmp33:
	mov	rbx, rax
	mov	r15b, 1
	jmp	LBB19_18
LBB19_11:
Ltmp30:
	mov	rbx, rax
	mov	r15b, 1
	jmp	LBB19_20
LBB19_10:
Ltmp27:
	mov	rbx, rax
	mov	r15b, 1
	jmp	LBB19_22
LBB19_14:
Ltmp41:
	mov	rbx, rax
	test	byte ptr [rbp - 184], 1
	je	LBB19_16

	mov	rdi, qword ptr [rbp - 168]
	call	__ZdlPv
LBB19_16:
	test	byte ptr [rbp - 160], 1
	je	LBB19_18

	mov	rdi, qword ptr [rbp - 144]
	call	__ZdlPv
LBB19_18:
	test	byte ptr [rbp - 136], 1
	je	LBB19_20

	mov	rdi, qword ptr [rbp - 120]
	call	__ZdlPv
LBB19_20:
	test	byte ptr [rbp - 112], 1
	je	LBB19_22

	mov	rdi, qword ptr [rbp - 96]
	call	__ZdlPv
LBB19_22:
	test	r15b, r15b
	je	LBB19_31

	mov	rdi, r14
	call	___cxa_free_exception
	jmp	LBB19_31
LBB19_30:
Ltmp44:
	mov	rbx, rax
LBB19_31:
	mov	rax, qword ptr [rip + __ZTVN8CryptoPP7IntegerE@GOTPCREL]
	add	rax, 16
	mov	qword ptr [rbp - 88], rax
	mov	rdx, qword ptr [rbp - 56]
	test	rdx, rdx
	je	LBB19_33

	mov	rax, qword ptr [rbp - 72]
	mov	rcx, qword ptr [rbp - 64]
	cmp	rax, rcx
	cmovb	rcx, rax
	xor	eax, eax
	mov	rdi, rdx
	
	rep		stosq	qword ptr es:[rdi], rax
	
Ltmp45:
	mov	rdi, rdx
	call	__ZN8CryptoPP17AlignedDeallocateEPv
Ltmp46:
LBB19_33:
	mov	rdi, rbx
	call	__Unwind_Resume
	ud2
LBB19_34:
Ltmp47:
	mov	rdi, rax
	call	___clang_call_terminate
Lfunc_end3:
	.cfi_endproc
	.section	__TEXT,__gcc_except_tab
	.p2align	2
GCC_except_table19:
Lexception3:
	.byte	255                     
	.byte	155                     
	.uleb128 Lttbase2-Lttbaseref2
Lttbaseref2:
	.byte	1                       
	.uleb128 Lcst_end3-Lcst_begin3
Lcst_begin3:
	.uleb128 Lfunc_begin3-Lfunc_begin3 
	.uleb128 Ltmp23-Lfunc_begin3    
	.byte	0                       
	.byte	0                       
	.uleb128 Ltmp23-Lfunc_begin3    
	.uleb128 Ltmp43-Ltmp23          
	.uleb128 Ltmp44-Lfunc_begin3    
	.byte	0                       
	.uleb128 Ltmp43-Lfunc_begin3    
	.uleb128 Ltmp25-Ltmp43          
	.byte	0                       
	.byte	0                       
	.uleb128 Ltmp25-Lfunc_begin3    
	.uleb128 Ltmp26-Ltmp25          
	.uleb128 Ltmp27-Lfunc_begin3    
	.byte	0                       
	.uleb128 Ltmp28-Lfunc_begin3    
	.uleb128 Ltmp29-Ltmp28          
	.uleb128 Ltmp30-Lfunc_begin3    
	.byte	0                       
	.uleb128 Ltmp31-Lfunc_begin3    
	.uleb128 Ltmp32-Ltmp31          
	.uleb128 Ltmp33-Lfunc_begin3    
	.byte	0                       
	.uleb128 Ltmp34-Lfunc_begin3    
	.uleb128 Ltmp35-Ltmp34          
	.uleb128 Ltmp36-Lfunc_begin3    
	.byte	0                       
	.uleb128 Ltmp37-Lfunc_begin3    
	.uleb128 Ltmp40-Ltmp37          
	.uleb128 Ltmp41-Lfunc_begin3    
	.byte	0                       
	.uleb128 Ltmp40-Lfunc_begin3    
	.uleb128 Ltmp45-Ltmp40          
	.byte	0                       
	.byte	0                       
	.uleb128 Ltmp45-Lfunc_begin3    
	.uleb128 Ltmp46-Ltmp45          
	.uleb128 Ltmp47-Lfunc_begin3    
	.byte	1                       
	.uleb128 Ltmp46-Lfunc_begin3    
	.uleb128 Lfunc_end3-Ltmp46      
	.byte	0                       
	.byte	0                       
Lcst_end3:
	.byte	1                       
                                        
	.byte	0                       
	.p2align	2
                                        
	.long	0                       
Lttbase2:
	.p2align	2
                                        
	.section	__TEXT,__text,regular,pure_instructions
	.globl	__ZN8CryptoPP11RSAFunction10SetModulusERKNS_7IntegerE 
	.weak_definition	__ZN8CryptoPP11RSAFunction10SetModulusERKNS_7IntegerE
	.p2align	1, 0x90
__ZN8CryptoPP11RSAFunction10SetModulusERKNS_7IntegerE: 
	.cfi_startproc

	push	rbp
	.cfi_def_cfa_offset 16
	.cfi_offset rbp, -16
	mov	rbp, rsp
	.cfi_def_cfa_register rbp
	add	rdi, 24
	pop	rbp
	jmp	__ZN8CryptoPP7IntegeraSERKS0_ 
	.cfi_endproc
                                        
	.globl	__ZN8CryptoPP11RSAFunction17SetPublicExponentERKNS_7IntegerE 
	.weak_definition	__ZN8CryptoPP11RSAFunction17SetPublicExponentERKNS_7IntegerE
	.p2align	1, 0x90
__ZN8CryptoPP11RSAFunction17SetPublicExponentERKNS_7IntegerE: 
	.cfi_startproc

	push	rbp
	.cfi_def_cfa_offset 16
	.cfi_offset rbp, -16
	mov	rbp, rsp
	.cfi_def_cfa_register rbp
	add	rdi, 72
	pop	rbp
	jmp	__ZN8CryptoPP7IntegeraSERKS0_ 
	.cfi_endproc
                                        
	.globl	__ZTv0_n40_N8CryptoPP11RSAFunction10AssignFromERKNS_14NameValuePairsE 
	.p2align	1, 0x90
__ZTv0_n40_N8CryptoPP11RSAFunction10AssignFromERKNS_14NameValuePairsE: 
	.cfi_startproc

	push	rbp
	.cfi_def_cfa_offset 16
	.cfi_offset rbp, -16
	mov	rbp, rsp
	.cfi_def_cfa_register rbp
	mov	rax, qword ptr [rdi]
	add	rdi, qword ptr [rax - 40]
	pop	rbp
	jmp	__ZN8CryptoPP11RSAFunction10AssignFromERKNS_14NameValuePairsE 
	.cfi_endproc
                                        
	.globl	__ZN8CryptoPP21InvertibleRSAFunction14GenerateRandomERNS_21RandomNumberGeneratorERKNS_14NameValuePairsE 
	.p2align	1, 0x90
__ZN8CryptoPP21InvertibleRSAFunction14GenerateRandomERNS_21RandomNumberGeneratorERKNS_14NameValuePairsE: 
Lfunc_begin4:
	.cfi_startproc
	.cfi_personality 155, ___gxx_personality_v0
	.cfi_lsda 16, Lexception4

	push	rbp
	.cfi_def_cfa_offset 16
	.cfi_offset rbp, -16
	mov	rbp, rsp
	.cfi_def_cfa_register rbp
	push	r15
	push	r14
	push	r13
	push	r12
	push	rbx
	sub	rsp, 1608
	.cfi_offset rbx, -56
	.cfi_offset r12, -48
	.cfi_offset r13, -40
	.cfi_offset r14, -32
	.cfi_offset r15, -24
	mov	rbx, rdx
	mov	r15, rsi
	mov	r13, rdi
	mov	rax, qword ptr [rip + ___stack_chk_guard@GOTPCREL]
	mov	rax, qword ptr [rax]
	mov	qword ptr [rbp - 48], rax
	lea	rcx, [rbp - 1124]
	mov	dword ptr [rcx], 2048
	mov	rax, qword ptr [rdx]
	lea	rsi, [rip + L_.str.12]
	mov	rdx, qword ptr [rip + __ZTIi@GOTPCREL]
	mov	rdi, rbx
	call	qword ptr [rax + 16]
	test	al, al
	jne	LBB23_2

	mov	rax, qword ptr [rbx]
	lea	rsi, [rip + L_.str.13]
	mov	rdx, qword ptr [rip + __ZTIi@GOTPCREL]
	lea	rcx, [rbp - 1124]
	mov	rdi, rbx
	call	qword ptr [rax + 16]
LBB23_2:
	cmp	dword ptr [rbp - 1124], 15
	jle	LBB23_88

	lea	r14, [rbp - 1504]
	mov	esi, 17
	mov	rdi, r14
	call	__ZN8CryptoPP7IntegerC1El
Ltmp48:
	lea	rdx, [rip + L_.str.11]
	lea	rdi, [rbp - 584]
	mov	rsi, rbx
	mov	rcx, r14
	call	__ZNK8CryptoPP14NameValuePairs19GetValueWithDefaultINS_7IntegerEEET_PKcS3_
Ltmp49:

	lea	r12, [r13 + 72]
Ltmp50:
	lea	rsi, [rbp - 584]
	mov	rdi, r12
	call	__ZN8CryptoPP7IntegeraSERKS0_
Ltmp51:

	mov	rax, qword ptr [rip + __ZTVN8CryptoPP7IntegerE@GOTPCREL]
	lea	r14, [rax + 16]
	mov	qword ptr [rbp - 584], r14
	mov	rdx, qword ptr [rbp - 552]
	test	rdx, rdx
	je	LBB23_7

	mov	rax, qword ptr [rbp - 568]
	mov	rcx, qword ptr [rbp - 560]
	cmp	rax, rcx
	cmovb	rcx, rax
	xor	eax, eax
	mov	rdi, rdx
	
	rep		stosq	qword ptr es:[rdi], rax
	
Ltmp55:
	mov	rdi, rdx
	call	__ZN8CryptoPP17AlignedDeallocateEPv
Ltmp56:
LBB23_7:
	mov	qword ptr [rbp - 1504], r14
	mov	rdx, qword ptr [rbp - 1472]
	test	rdx, rdx
	je	LBB23_9

	mov	rax, qword ptr [rbp - 1488]
	mov	rcx, qword ptr [rbp - 1480]
	cmp	rax, rcx
	cmovb	rcx, rax
	xor	eax, eax
	mov	rdi, rdx
	
	rep		stosq	qword ptr es:[rdi], rax
	
	mov	rdi, rdx
	call	__ZN8CryptoPP17AlignedDeallocateEPv
LBB23_9:
	lea	rbx, [rbp - 584]
	mov	esi, 3
	mov	rdi, rbx
	call	__ZN8CryptoPP7IntegerC1El
Ltmp60:
	mov	rdi, r12
	mov	rsi, rbx
	call	__ZNK8CryptoPP7Integer7CompareERKS0_
Ltmp61:

	test	eax, eax
	js	LBB23_91

Ltmp62:
	mov	rdi, r12
	xor	esi, esi
	call	__ZNK8CryptoPP7Integer6GetBitEm
Ltmp63:

	mov	ebx, eax
	mov	qword ptr [rbp - 584], r14
	mov	rdx, qword ptr [rbp - 552]
	test	rdx, rdx
	je	LBB23_14

	mov	rax, qword ptr [rbp - 568]
	mov	rcx, qword ptr [rbp - 560]
	cmp	rax, rcx
	cmovb	rcx, rax
	xor	eax, eax
	mov	rdi, rdx
	
	rep		stosq	qword ptr es:[rdi], rax
	
	mov	rdi, rdx
	call	__ZN8CryptoPP17AlignedDeallocateEPv
LBB23_14:
	test	bl, bl
	je	LBB23_93

	mov	rax, qword ptr [rip + __ZTVN8CryptoPP16RSAPrimeSelectorE@GOTPCREL]
	add	rax, 16
	lea	rdi, [rbp - 1352]
	mov	qword ptr [rdi - 8], rax
	mov	rsi, r12
	call	__ZN8CryptoPP7IntegerC1ERKS0_
	mov	esi, dword ptr [rbp - 1124]
Ltmp67:
	lea	rdi, [rbp - 584]
	call	__ZN8CryptoPP37MakeParametersForTwoPrimesOfEqualSizeEj
Ltmp68:

	mov	bl, byte ptr [rbp - 568]
Ltmp69:
	mov	edi, 40
	call	__Znwm
Ltmp70:

	lea	rcx, [rip + L_.str.14]
	mov	qword ptr [rax + 8], rcx
	mov	byte ptr [rax + 16], bl
	mov	ecx, 16
	add	rcx, qword ptr [rip + __ZTVN8CryptoPP27AlgorithmParametersTemplateIPKNS_13PrimeSelectorEEE@GOTPCREL]
	mov	byte ptr [rax + 17], 0
	mov	qword ptr [rax], rcx
	lea	rcx, [rbp - 1360]
	mov	qword ptr [rax + 32], rcx
	lea	rsi, [rbp - 584]
	mov	rcx, qword ptr [rsi + 8]
	mov	qword ptr [rax + 24], rcx
	mov	qword ptr [rsi + 8], rax
Ltmp71:
	lea	rdi, [rbp - 1160]
	call	__ZN8CryptoPP19AlgorithmParametersC1ERKS0_
Ltmp72:

	mov	rax, qword ptr [rip + __ZTVN8CryptoPP19AlgorithmParametersE@GOTPCREL]
	add	rax, 16
	mov	qword ptr [rbp - 1136], rax 
	mov	qword ptr [rbp - 584], rax
	mov	rdi, qword ptr [rbp - 576]
	test	rdi, rdi
	je	LBB23_20

	mov	rax, qword ptr [rdi]
Ltmp76:
	call	qword ptr [rax + 8]
Ltmp77:
LBB23_20:
	lea	rbx, [r13 + 272]
Ltmp79:
	lea	rdx, [rbp - 1160]
	mov	rdi, rbx
	mov	rsi, r15
	call	__ZN8CryptoPP7Integer14GenerateRandomERNS_21RandomNumberGeneratorERKNS_14NameValuePairsE
Ltmp80:

	mov	rsi, r15
	lea	r15, [r13 + 320]
Ltmp81:
	lea	rdx, [rbp - 1160]
	mov	rdi, r15
	call	__ZN8CryptoPP7Integer14GenerateRandomERNS_21RandomNumberGeneratorERKNS_14NameValuePairsE
Ltmp82:

Ltmp83:
	lea	rdi, [rbp - 1648]
	mov	esi, 1
	call	__ZN8CryptoPP7IntegerC1El
Ltmp84:

Ltmp85:
	lea	rdi, [rbp - 1304]
	lea	rdx, [rbp - 1648]
	mov	rsi, rbx
	call	__ZNK8CryptoPP7Integer5MinusERKS0_
Ltmp86:

Ltmp87:
	lea	rdi, [rbp - 1408]
	mov	esi, 1
	call	__ZN8CryptoPP7IntegerC1El
Ltmp88:

Ltmp89:
	lea	rdi, [rbp - 1456]
	lea	rdx, [rbp - 1408]
	mov	rsi, r15
	call	__ZNK8CryptoPP7Integer5MinusERKS0_
Ltmp90:

Ltmp91:
	lea	rdi, [rbp - 1120]
	lea	rsi, [rbp - 1304]
	lea	rdx, [rbp - 1456]
	call	__ZN8CryptoPP3LCMERKNS_7IntegerES2_
Ltmp92:

Ltmp93:
	lea	rdi, [rbp - 584]
	lea	rdx, [rbp - 1120]
	mov	rsi, r12
	call	__ZNK8CryptoPP7Integer10InverseModERKS0_
Ltmp94:

	lea	r12, [r13 + 224]
Ltmp95:
	lea	rsi, [rbp - 584]
	mov	rdi, r12
	call	__ZN8CryptoPP7IntegeraSERKS0_
Ltmp96:

	mov	qword ptr [rbp - 584], r14
	mov	rdx, qword ptr [rbp - 552]
	test	rdx, rdx
	je	LBB23_31

	mov	rax, qword ptr [rbp - 568]
	mov	rcx, qword ptr [rbp - 560]
	cmp	rax, rcx
	cmovb	rcx, rax
	xor	eax, eax
	mov	rdi, rdx
	
	rep		stosq	qword ptr es:[rdi], rax
	
Ltmp100:
	mov	rdi, rdx
	call	__ZN8CryptoPP17AlignedDeallocateEPv
Ltmp101:
LBB23_31:
	mov	qword ptr [rbp - 1120], r14
	mov	rdx, qword ptr [rbp - 1088]
	test	rdx, rdx
	je	LBB23_33

	mov	rax, qword ptr [rbp - 1104]
	mov	rcx, qword ptr [rbp - 1096]
	cmp	rax, rcx
	cmovb	rcx, rax
	xor	eax, eax
	mov	rdi, rdx
	
	rep		stosq	qword ptr es:[rdi], rax
	
Ltmp105:
	mov	rdi, rdx
	call	__ZN8CryptoPP17AlignedDeallocateEPv
Ltmp106:
LBB23_33:
	mov	qword ptr [rbp - 1456], r14
	mov	rdx, qword ptr [rbp - 1424]
	test	rdx, rdx
	je	LBB23_35

	mov	rax, qword ptr [rbp - 1440]
	mov	rcx, qword ptr [rbp - 1432]
	cmp	rax, rcx
	cmovb	rcx, rax
	xor	eax, eax
	mov	rdi, rdx
	
	rep		stosq	qword ptr es:[rdi], rax
	
Ltmp110:
	mov	rdi, rdx
	call	__ZN8CryptoPP17AlignedDeallocateEPv
Ltmp111:
LBB23_35:
	mov	qword ptr [rbp - 1408], r14
	mov	rdx, qword ptr [rbp - 1376]
	test	rdx, rdx
	je	LBB23_37

	mov	rax, qword ptr [rbp - 1392]
	mov	rcx, qword ptr [rbp - 1384]
	cmp	rax, rcx
	cmovb	rcx, rax
	xor	eax, eax
	mov	rdi, rdx
	
	rep		stosq	qword ptr es:[rdi], rax
	
Ltmp115:
	mov	rdi, rdx
	call	__ZN8CryptoPP17AlignedDeallocateEPv
Ltmp116:
LBB23_37:
	mov	qword ptr [rbp - 1304], r14
	mov	rdx, qword ptr [rbp - 1272]
	test	rdx, rdx
	je	LBB23_39

	mov	rax, qword ptr [rbp - 1288]
	mov	rcx, qword ptr [rbp - 1280]
	cmp	rax, rcx
	cmovb	rcx, rax
	xor	eax, eax
	mov	rdi, rdx
	
	rep		stosq	qword ptr es:[rdi], rax
	
Ltmp120:
	mov	rdi, rdx
	call	__ZN8CryptoPP17AlignedDeallocateEPv
Ltmp121:
LBB23_39:
	mov	qword ptr [rbp - 1648], r14
	mov	rdx, qword ptr [rbp - 1616]
	test	rdx, rdx
	je	LBB23_41

	mov	rax, qword ptr [rbp - 1632]
	mov	rcx, qword ptr [rbp - 1624]
	cmp	rax, rcx
	cmovb	rcx, rax
	xor	eax, eax
	mov	rdi, rdx
	
	rep		stosq	qword ptr es:[rdi], rax
	
Ltmp125:
	mov	rdi, rdx
	call	__ZN8CryptoPP17AlignedDeallocateEPv
Ltmp126:
LBB23_41:
Ltmp128:
	lea	rdi, [rbp - 1304]
	mov	esi, 1
	call	__ZN8CryptoPP7IntegerC1El
Ltmp129:

Ltmp130:
	lea	rdi, [rbp - 1120]
	lea	rdx, [rbp - 1304]
	mov	rsi, rbx
	call	__ZNK8CryptoPP7Integer5MinusERKS0_
Ltmp131:

Ltmp132:
	lea	rdi, [rbp - 584]
	lea	rdx, [rbp - 1120]
	mov	rsi, r12
	call	__ZNK8CryptoPP7Integer6ModuloERKS0_
Ltmp133:

	lea	rdi, [r13 + 368]
Ltmp134:
	lea	rsi, [rbp - 584]
	call	__ZN8CryptoPP7IntegeraSERKS0_
Ltmp135:

	mov	qword ptr [rbp - 584], r14
	mov	rdx, qword ptr [rbp - 552]
	test	rdx, rdx
	je	LBB23_47

	mov	rax, qword ptr [rbp - 568]
	mov	rcx, qword ptr [rbp - 560]
	cmp	rax, rcx
	cmovb	rcx, rax
	xor	eax, eax
	mov	rdi, rdx
	
	rep		stosq	qword ptr es:[rdi], rax
	
Ltmp139:
	mov	rdi, rdx
	call	__ZN8CryptoPP17AlignedDeallocateEPv
Ltmp140:
LBB23_47:
	mov	qword ptr [rbp - 1120], r14
	mov	rdx, qword ptr [rbp - 1088]
	test	rdx, rdx
	je	LBB23_49

	mov	rax, qword ptr [rbp - 1104]
	mov	rcx, qword ptr [rbp - 1096]
	cmp	rax, rcx
	cmovb	rcx, rax
	xor	eax, eax
	mov	rdi, rdx
	
	rep		stosq	qword ptr es:[rdi], rax
	
Ltmp144:
	mov	rdi, rdx
	call	__ZN8CryptoPP17AlignedDeallocateEPv
Ltmp145:
LBB23_49:
	mov	qword ptr [rbp - 1304], r14
	mov	rdx, qword ptr [rbp - 1272]
	test	rdx, rdx
	je	LBB23_51

	mov	rax, qword ptr [rbp - 1288]
	mov	rcx, qword ptr [rbp - 1280]
	cmp	rax, rcx
	cmovb	rcx, rax
	xor	eax, eax
	mov	rdi, rdx
	
	rep		stosq	qword ptr es:[rdi], rax
	
Ltmp149:
	mov	rdi, rdx
	call	__ZN8CryptoPP17AlignedDeallocateEPv
Ltmp150:
LBB23_51:
Ltmp152:
	lea	rdi, [rbp - 1304]
	mov	esi, 1
	call	__ZN8CryptoPP7IntegerC1El
Ltmp153:

Ltmp154:
	lea	rdi, [rbp - 1120]
	lea	rdx, [rbp - 1304]
	mov	rsi, r15
	call	__ZNK8CryptoPP7Integer5MinusERKS0_
Ltmp155:

Ltmp156:
	lea	rdi, [rbp - 584]
	lea	rdx, [rbp - 1120]
	mov	rsi, r12
	call	__ZNK8CryptoPP7Integer6ModuloERKS0_
Ltmp157:

	lea	rdi, [r13 + 416]
Ltmp158:
	lea	rsi, [rbp - 584]
	call	__ZN8CryptoPP7IntegeraSERKS0_
Ltmp159:

	mov	qword ptr [rbp - 584], r14
	mov	rdx, qword ptr [rbp - 552]
	test	rdx, rdx
	je	LBB23_57

	mov	rax, qword ptr [rbp - 568]
	mov	rcx, qword ptr [rbp - 560]
	cmp	rax, rcx
	cmovb	rcx, rax
	xor	eax, eax
	mov	rdi, rdx
	
	rep		stosq	qword ptr es:[rdi], rax
	
Ltmp163:
	mov	rdi, rdx
	call	__ZN8CryptoPP17AlignedDeallocateEPv
Ltmp164:
LBB23_57:
	mov	qword ptr [rbp - 1120], r14
	mov	rdx, qword ptr [rbp - 1088]
	test	rdx, rdx
	je	LBB23_59

	mov	rax, qword ptr [rbp - 1104]
	mov	rcx, qword ptr [rbp - 1096]
	cmp	rax, rcx
	cmovb	rcx, rax
	xor	eax, eax
	mov	rdi, rdx
	
	rep		stosq	qword ptr es:[rdi], rax
	
Ltmp168:
	mov	rdi, rdx
	call	__ZN8CryptoPP17AlignedDeallocateEPv
Ltmp169:
LBB23_59:
	mov	qword ptr [rbp - 1304], r14
	mov	rdx, qword ptr [rbp - 1272]
	test	rdx, rdx
	je	LBB23_61

	mov	rax, qword ptr [rbp - 1288]
	mov	rcx, qword ptr [rbp - 1280]
	cmp	rax, rcx
	cmovb	rcx, rax
	xor	eax, eax
	mov	rdi, rdx
	
	rep		stosq	qword ptr es:[rdi], rax
	
Ltmp173:
	mov	rdi, rdx
	call	__ZN8CryptoPP17AlignedDeallocateEPv
Ltmp174:
LBB23_61:
Ltmp176:
	lea	rdi, [rbp - 584]
	mov	rsi, rbx
	mov	rdx, r15
	call	__ZNK8CryptoPP7Integer5TimesERKS0_
Ltmp177:

	lea	rdi, [r13 + 24]
Ltmp178:
	lea	rsi, [rbp - 584]
	call	__ZN8CryptoPP7IntegeraSERKS0_
Ltmp179:

	mov	qword ptr [rbp - 584], r14
	mov	rdx, qword ptr [rbp - 552]
	test	rdx, rdx
	je	LBB23_65

	mov	rax, qword ptr [rbp - 568]
	mov	rcx, qword ptr [rbp - 560]
	cmp	rax, rcx
	cmovb	rcx, rax
	xor	eax, eax
	mov	rdi, rdx
	
	rep		stosq	qword ptr es:[rdi], rax
	
Ltmp183:
	mov	rdi, rdx
	call	__ZN8CryptoPP17AlignedDeallocateEPv
Ltmp184:
LBB23_65:
Ltmp186:
	lea	rdi, [rbp - 584]
	mov	rsi, r15
	mov	rdx, rbx
	call	__ZNK8CryptoPP7Integer10InverseModERKS0_
Ltmp187:

	lea	rdi, [r13 + 464]
Ltmp188:
	lea	rsi, [rbp - 584]
	call	__ZN8CryptoPP7IntegeraSERKS0_
Ltmp189:

	mov	qword ptr [rbp - 584], r14
	mov	rdx, qword ptr [rbp - 552]
	test	rdx, rdx
	je	LBB23_69

	mov	rax, qword ptr [rbp - 568]
	mov	rcx, qword ptr [rbp - 560]
	cmp	rax, rcx
	cmovb	rcx, rax
	xor	eax, eax
	mov	rdi, rdx
	
	rep		stosq	qword ptr es:[rdi], rax
	
Ltmp193:
	mov	rdi, rdx
	call	__ZN8CryptoPP17AlignedDeallocateEPv
Ltmp194:
LBB23_69:
Ltmp196:
	call	__ZN8CryptoPP28FIPS_140_2_ComplianceEnabledEv
Ltmp197:

	test	al, al
	je	LBB23_81

	mov	rax, qword ptr [r13]
	mov	rsi, qword ptr [rax - 24]
	add	rsi, r13
Ltmp199:
	lea	rdi, [rbp - 584]
	call	__ZN8CryptoPP16PK_FinalTemplateINS_13TF_SignerImplINS_25TF_SignatureSchemeOptionsINS_5TF_SSINS_3RSAENS_8PKCS1v15ENS_4SHA1EiEES4_NS_39PKCS1v15_SignatureMessageEncodingMethodES6_EEEEEC2ERKNS_14CryptoMaterialE
Ltmp200:

	lea	rsi, [rbp - 576]
Ltmp201:
	lea	rdi, [rbp - 1304]
	call	__ZN8CryptoPP16PK_FinalTemplateINS_15TF_VerifierImplINS_25TF_SignatureSchemeOptionsINS_5TF_SSINS_3RSAENS_8PKCS1v15ENS_4SHA1EiEES4_NS_39PKCS1v15_SignatureMessageEncodingMethodES6_EEEEEC2ERKNS_19AsymmetricAlgorithmE
Ltmp202:

Ltmp203:
	lea	rdi, [rbp - 584]
	lea	rsi, [rbp - 1304]
	call	__ZN8CryptoPP46SignaturePairwiseConsistencyTest_FIPS_140_OnlyERKNS_9PK_SignerERKNS_11PK_VerifierE
Ltmp204:

	mov	rax, qword ptr [r13]
	add	r13, qword ptr [rax - 24]
Ltmp206:
	lea	rdi, [rbp - 1120]
	mov	rsi, r13
	call	__ZN8CryptoPP16PK_FinalTemplateINS_16TF_DecryptorImplINS_22TF_CryptoSchemeOptionsINS_5TF_ESINS_3RSAENS_4OAEPINS_4SHA1ENS_10P1363_MGF1EEEiEES4_S8_EEEEEC2ERKNS_14CryptoMaterialE
Ltmp207:

	lea	rsi, [rbp - 1112]
Ltmp208:
	lea	rdi, [rbp - 1648]
	call	__ZN8CryptoPP16PK_FinalTemplateINS_16TF_EncryptorImplINS_22TF_CryptoSchemeOptionsINS_5TF_ESINS_3RSAENS_4OAEPINS_4SHA1ENS_10P1363_MGF1EEEiEES4_S8_EEEEEC2ERKNS_19AsymmetricAlgorithmE
Ltmp209:

Ltmp210:
	lea	rdi, [rbp - 1648]
	lea	rsi, [rbp - 1120]
	call	__ZN8CryptoPP47EncryptionPairwiseConsistencyTest_FIPS_140_OnlyERKNS_12PK_EncryptorERKNS_12PK_DecryptorE
Ltmp211:

Ltmp215:
	lea	rdi, [rbp - 1648]
	call	__ZN8CryptoPP13TF_ObjectImplINS_16TF_EncryptorBaseENS_22TF_CryptoSchemeOptionsINS_5TF_ESINS_3RSAENS_4OAEPINS_4SHA1ENS_10P1363_MGF1EEEiEES4_S8_EENS_11RSAFunctionEED2Ev
Ltmp216:

	mov	rax, qword ptr [rip + __ZTVN8CryptoPP13TF_ObjectImplINS_16TF_DecryptorBaseENS_22TF_CryptoSchemeOptionsINS_5TF_ESINS_3RSAENS_4OAEPINS_4SHA1ENS_10P1363_MGF1EEEiEES4_S8_EENS_21InvertibleRSAFunctionEEE@GOTPCREL]
	lea	rcx, [rax + 16]
	lea	rdi, [rbp - 1096]
	mov	qword ptr [rdi - 24], rcx
	lea	rcx, [rax + 168]
	mov	qword ptr [rdi - 16], rcx
	add	rax, 256
	mov	qword ptr [rdi - 8], rax
Ltmp220:
	lea	rsi, [rip + __ZTTN8CryptoPP21InvertibleRSAFunctionE]
	call	__ZN8CryptoPP21InvertibleRSAFunctionD2Ev
Ltmp221:

Ltmp225:
	lea	rdi, [rbp - 1304]
	call	__ZN8CryptoPP13TF_ObjectImplINS_15TF_VerifierBaseENS_25TF_SignatureSchemeOptionsINS_5TF_SSINS_3RSAENS_8PKCS1v15ENS_4SHA1EiEES4_NS_39PKCS1v15_SignatureMessageEncodingMethodES6_EENS_11RSAFunctionEED2Ev
Ltmp226:

	mov	rax, qword ptr [rip + __ZTVN8CryptoPP13TF_ObjectImplINS_13TF_SignerBaseENS_25TF_SignatureSchemeOptionsINS_5TF_SSINS_3RSAENS_8PKCS1v15ENS_4SHA1EiEES4_NS_39PKCS1v15_SignatureMessageEncodingMethodES6_EENS_21InvertibleRSAFunctionEEE@GOTPCREL]
	lea	rcx, [rax + 16]
	lea	rdi, [rbp - 560]
	mov	qword ptr [rdi - 24], rcx
	lea	rcx, [rax + 240]
	mov	qword ptr [rdi - 16], rcx
	add	rax, 328
	mov	qword ptr [rdi - 8], rax
Ltmp230:
	lea	rsi, [rip + __ZTTN8CryptoPP21InvertibleRSAFunctionE]
	call	__ZN8CryptoPP21InvertibleRSAFunctionD2Ev
Ltmp231:
LBB23_81:
	mov	rax, qword ptr [rbp - 1136] 
	mov	qword ptr [rbp - 1160], rax
	mov	rdi, qword ptr [rbp - 1152]
	test	rdi, rdi
	je	LBB23_83

	mov	rax, qword ptr [rdi]
Ltmp235:
	call	qword ptr [rax + 8]
Ltmp236:
LBB23_83:
	mov	eax, 16
	mov	rcx, qword ptr [rip + __ZTVN8CryptoPP16RSAPrimeSelectorE@GOTPCREL]
	add	rcx, rax
	mov	qword ptr [rbp - 1360], rcx
	mov	rcx, qword ptr [rip + __ZTVN8CryptoPP7IntegerE@GOTPCREL]
	add	rcx, rax
	mov	qword ptr [rbp - 1352], rcx
	mov	rdx, qword ptr [rbp - 1320]
	test	rdx, rdx
	je	LBB23_85

	mov	rax, qword ptr [rbp - 1336]
	mov	rcx, qword ptr [rbp - 1328]
	cmp	rax, rcx
	cmovb	rcx, rax
	xor	eax, eax
	mov	rdi, rdx
	
	rep		stosq	qword ptr es:[rdi], rax
	
	mov	rdi, rdx
	call	__ZN8CryptoPP17AlignedDeallocateEPv
LBB23_85:
	mov	rax, qword ptr [rip + ___stack_chk_guard@GOTPCREL]
	mov	rax, qword ptr [rax]
	cmp	rax, qword ptr [rbp - 48]
	jne	LBB23_87

	add	rsp, 1608
	pop	rbx
	pop	r12
	pop	r13
	pop	r14
	pop	r15
	pop	rbp
	ret
LBB23_87:
	call	___stack_chk_fail
LBB23_88:
	mov	edi, 40
	call	___cxa_allocate_exception
	mov	r14, rax
Ltmp249:
	lea	rsi, [rip + L_.str]
	lea	rdi, [rbp - 584]
	call	__ZNSt3__112basic_stringIcNS_11char_traitsIcEENS_9allocatorIcEEEC1INS_9nullptr_tEEEPKc
Ltmp250:

	mov	bl, 1
Ltmp252:
	lea	rdx, [rbp - 584]
	mov	rdi, r14
	mov	esi, 1
	call	__ZN8CryptoPP9ExceptionC2ENS0_9ErrorTypeERKNSt3__112basic_stringIcNS2_11char_traitsIcEENS2_9allocatorIcEEEE
Ltmp253:

	mov	rax, qword ptr [rip + __ZTVN8CryptoPP15InvalidArgumentE@GOTPCREL]
	add	rax, 16
	mov	qword ptr [r14], rax
	xor	ebx, ebx
Ltmp254:
	mov	rsi, qword ptr [rip + __ZTIN8CryptoPP15InvalidArgumentE@GOTPCREL]
	mov	rdx, qword ptr [rip + __ZN8CryptoPP15InvalidArgumentD1Ev@GOTPCREL]
	mov	rdi, r14
	call	___cxa_throw
Ltmp255:
	jmp	LBB23_96
LBB23_91:
	mov	qword ptr [rbp - 584], r14
	mov	rdx, qword ptr [rbp - 552]
	test	rdx, rdx
	je	LBB23_93

	mov	rax, qword ptr [rbp - 568]
	mov	rcx, qword ptr [rbp - 560]
	cmp	rax, rcx
	cmovb	rcx, rax
	xor	eax, eax
	mov	rdi, rdx
	
	rep		stosq	qword ptr es:[rdi], rax
	
	mov	rdi, rdx
	call	__ZN8CryptoPP17AlignedDeallocateEPv
LBB23_93:
	mov	edi, 40
	call	___cxa_allocate_exception
	mov	r14, rax
Ltmp241:
	lea	rsi, [rip + L_.str.1]
	lea	rdi, [rbp - 584]
	call	__ZNSt3__112basic_stringIcNS_11char_traitsIcEENS_9allocatorIcEEEC1INS_9nullptr_tEEEPKc
Ltmp242:

	mov	bl, 1
Ltmp244:
	lea	rdx, [rbp - 584]
	mov	rdi, r14
	mov	esi, 1
	call	__ZN8CryptoPP9ExceptionC2ENS0_9ErrorTypeERKNSt3__112basic_stringIcNS2_11char_traitsIcEENS2_9allocatorIcEEEE
Ltmp245:

	mov	rax, qword ptr [rip + __ZTVN8CryptoPP15InvalidArgumentE@GOTPCREL]
	add	rax, 16
	mov	qword ptr [r14], rax
	xor	ebx, ebx
Ltmp246:
	mov	rsi, qword ptr [rip + __ZTIN8CryptoPP15InvalidArgumentE@GOTPCREL]
	mov	rdx, qword ptr [rip + __ZN8CryptoPP15InvalidArgumentD1Ev@GOTPCREL]
	mov	rdi, r14
	call	___cxa_throw
Ltmp247:
LBB23_96:
	ud2
LBB23_97:
Ltmp251:
	jmp	LBB23_98
LBB23_99:
Ltmp243:
LBB23_98:
	mov	r15, rax
	jmp	LBB23_105
LBB23_100:
Ltmp256:
	jmp	LBB23_102
LBB23_101:
Ltmp248:
LBB23_102:
	mov	r15, rax
	test	byte ptr [rbp - 584], 1
	je	LBB23_104

	mov	rdi, qword ptr [rbp - 568]
	call	__ZdlPv
LBB23_104:
	test	bl, bl
	je	LBB23_176
LBB23_105:
	mov	rdi, r14
	call	___cxa_free_exception
	jmp	LBB23_176
LBB23_106:
Ltmp212:
	mov	r15, rax
Ltmp213:
	lea	rdi, [rbp - 1648]
	call	__ZN8CryptoPP13TF_ObjectImplINS_16TF_EncryptorBaseENS_22TF_CryptoSchemeOptionsINS_5TF_ESINS_3RSAENS_4OAEPINS_4SHA1ENS_10P1363_MGF1EEEiEES4_S8_EENS_11RSAFunctionEED2Ev
Ltmp214:
	jmp	LBB23_112
LBB23_107:
Ltmp205:
	jmp	LBB23_108
LBB23_109:
Ltmp237:
	jmp	LBB23_162
LBB23_110:
Ltmp222:
LBB23_108:
	mov	r15, rax
	jmp	LBB23_113
LBB23_111:
Ltmp217:
	mov	r15, rax
LBB23_112:
	mov	rax, qword ptr [rip + __ZTVN8CryptoPP13TF_ObjectImplINS_16TF_DecryptorBaseENS_22TF_CryptoSchemeOptionsINS_5TF_ESINS_3RSAENS_4OAEPINS_4SHA1ENS_10P1363_MGF1EEEiEES4_S8_EENS_21InvertibleRSAFunctionEEE@GOTPCREL]
	lea	rcx, [rax + 16]
	lea	rdi, [rbp - 1096]
	mov	qword ptr [rdi - 24], rcx
	lea	rcx, [rax + 168]
	mov	qword ptr [rdi - 16], rcx
	add	rax, 256
	mov	qword ptr [rdi - 8], rax
Ltmp218:
	lea	rsi, [rip + __ZTTN8CryptoPP21InvertibleRSAFunctionE]
	call	__ZN8CryptoPP21InvertibleRSAFunctionD2Ev
Ltmp219:
LBB23_113:
Ltmp223:
	lea	rdi, [rbp - 1304]
	call	__ZN8CryptoPP13TF_ObjectImplINS_15TF_VerifierBaseENS_25TF_SignatureSchemeOptionsINS_5TF_SSINS_3RSAENS_8PKCS1v15ENS_4SHA1EiEES4_NS_39PKCS1v15_SignatureMessageEncodingMethodES6_EENS_11RSAFunctionEED2Ev
Ltmp224:
	jmp	LBB23_116
LBB23_114:
Ltmp232:
	jmp	LBB23_171
LBB23_115:
Ltmp227:
	mov	r15, rax
LBB23_116:
	mov	rax, qword ptr [rip + __ZTVN8CryptoPP13TF_ObjectImplINS_13TF_SignerBaseENS_25TF_SignatureSchemeOptionsINS_5TF_SSINS_3RSAENS_8PKCS1v15ENS_4SHA1EiEES4_NS_39PKCS1v15_SignatureMessageEncodingMethodES6_EENS_21InvertibleRSAFunctionEEE@GOTPCREL]
	lea	rcx, [rax + 16]
	lea	rdi, [rbp - 560]
	mov	qword ptr [rdi - 24], rcx
	lea	rcx, [rax + 240]
	mov	qword ptr [rdi - 16], rcx
	add	rax, 328
	mov	qword ptr [rdi - 8], rax
Ltmp228:
	lea	rsi, [rip + __ZTTN8CryptoPP21InvertibleRSAFunctionE]
	call	__ZN8CryptoPP21InvertibleRSAFunctionD2Ev
Ltmp229:
	jmp	LBB23_172
LBB23_117:
Ltmp190:
	mov	r15, rax
	mov	qword ptr [rbp - 584], r14
	mov	rdx, qword ptr [rbp - 552]
	test	rdx, rdx
	je	LBB23_172

	mov	rax, qword ptr [rbp - 568]
	mov	rcx, qword ptr [rbp - 560]
	cmp	rax, rcx
	cmovb	rcx, rax
	xor	eax, eax
	mov	rdi, rdx
	
	rep		stosq	qword ptr es:[rdi], rax
	
Ltmp191:
	mov	rdi, rdx
	call	__ZN8CryptoPP17AlignedDeallocateEPv
Ltmp192:
	jmp	LBB23_172
LBB23_119:
Ltmp180:
	mov	r15, rax
	mov	qword ptr [rbp - 584], r14
	mov	rdx, qword ptr [rbp - 552]
	test	rdx, rdx
	je	LBB23_172

	mov	rax, qword ptr [rbp - 568]
	mov	rcx, qword ptr [rbp - 560]
	cmp	rax, rcx
	cmovb	rcx, rax
	xor	eax, eax
	mov	rdi, rdx
	
	rep		stosq	qword ptr es:[rdi], rax
	
Ltmp181:
	mov	rdi, rdx
	call	__ZN8CryptoPP17AlignedDeallocateEPv
Ltmp182:
	jmp	LBB23_172
LBB23_121:
Ltmp160:
	mov	r15, rax
	mov	qword ptr [rbp - 584], r14
	mov	rdx, qword ptr [rbp - 552]
	test	rdx, rdx
	je	LBB23_132

	mov	rax, qword ptr [rbp - 568]
	mov	rcx, qword ptr [rbp - 560]
	cmp	rax, rcx
	cmovb	rcx, rax
	xor	eax, eax
	mov	rdi, rdx
	
	rep		stosq	qword ptr es:[rdi], rax
	
Ltmp161:
	mov	rdi, rdx
	call	__ZN8CryptoPP17AlignedDeallocateEPv
Ltmp162:
	jmp	LBB23_132
LBB23_123:
Ltmp136:
	mov	r15, rax
	mov	qword ptr [rbp - 584], r14
	mov	rdx, qword ptr [rbp - 552]
	test	rdx, rdx
	je	LBB23_139

	mov	rax, qword ptr [rbp - 568]
	mov	rcx, qword ptr [rbp - 560]
	cmp	rax, rcx
	cmovb	rcx, rax
	xor	eax, eax
	mov	rdi, rdx
	
	rep		stosq	qword ptr es:[rdi], rax
	
Ltmp137:
	mov	rdi, rdx
	call	__ZN8CryptoPP17AlignedDeallocateEPv
Ltmp138:
	jmp	LBB23_139
LBB23_125:
Ltmp97:
	mov	r15, rax
	mov	qword ptr [rbp - 584], r14
	mov	rdx, qword ptr [rbp - 552]
	test	rdx, rdx
	je	LBB23_146

	mov	rax, qword ptr [rbp - 568]
	mov	rcx, qword ptr [rbp - 560]
	cmp	rax, rcx
	cmovb	rcx, rax
	xor	eax, eax
	mov	rdi, rdx
	
	rep		stosq	qword ptr es:[rdi], rax
	
Ltmp98:
	mov	rdi, rdx
	call	__ZN8CryptoPP17AlignedDeallocateEPv
Ltmp99:
	jmp	LBB23_146
LBB23_127:
Ltmp52:
	mov	r15, rax
	mov	rax, qword ptr [rip + __ZTVN8CryptoPP7IntegerE@GOTPCREL]
	add	rax, 16
	mov	qword ptr [rbp - 584], rax
	mov	rdx, qword ptr [rbp - 552]
	test	rdx, rdx
	je	LBB23_164

	mov	rax, qword ptr [rbp - 568]
	mov	rcx, qword ptr [rbp - 560]
	cmp	rax, rcx
	cmovb	rcx, rax
	xor	eax, eax
	mov	rdi, rdx
	
	rep		stosq	qword ptr es:[rdi], rax
	
Ltmp53:
	mov	rdi, rdx
	call	__ZN8CryptoPP17AlignedDeallocateEPv
Ltmp54:
	jmp	LBB23_164
LBB23_129:
Ltmp195:
	jmp	LBB23_171
LBB23_130:
Ltmp185:
	jmp	LBB23_171
LBB23_131:
Ltmp165:
	mov	r15, rax
LBB23_132:
	mov	qword ptr [rbp - 1120], r14
	mov	rdx, qword ptr [rbp - 1088]
	test	rdx, rdx
	je	LBB23_135

	mov	rax, qword ptr [rbp - 1104]
	mov	rcx, qword ptr [rbp - 1096]
	cmp	rax, rcx
	cmovb	rcx, rax
	xor	eax, eax
	mov	rdi, rdx
	
	rep		stosq	qword ptr es:[rdi], rax
	
Ltmp166:
	mov	rdi, rdx
	call	__ZN8CryptoPP17AlignedDeallocateEPv
Ltmp167:
	jmp	LBB23_135
LBB23_134:
Ltmp170:
	mov	r15, rax
LBB23_135:
	mov	qword ptr [rbp - 1304], r14
	mov	rdx, qword ptr [rbp - 1272]
	test	rdx, rdx
	je	LBB23_172

	mov	rax, qword ptr [rbp - 1288]
	mov	rcx, qword ptr [rbp - 1280]
	cmp	rax, rcx
	cmovb	rcx, rax
	xor	eax, eax
	mov	rdi, rdx
	
	rep		stosq	qword ptr es:[rdi], rax
	
Ltmp171:
	mov	rdi, rdx
	call	__ZN8CryptoPP17AlignedDeallocateEPv
Ltmp172:
	jmp	LBB23_172
LBB23_137:
Ltmp175:
	jmp	LBB23_171
LBB23_138:
Ltmp141:
	mov	r15, rax
LBB23_139:
	mov	qword ptr [rbp - 1120], r14
	mov	rdx, qword ptr [rbp - 1088]
	test	rdx, rdx
	je	LBB23_142

	mov	rax, qword ptr [rbp - 1104]
	mov	rcx, qword ptr [rbp - 1096]
	cmp	rax, rcx
	cmovb	rcx, rax
	xor	eax, eax
	mov	rdi, rdx
	
	rep		stosq	qword ptr es:[rdi], rax
	
Ltmp142:
	mov	rdi, rdx
	call	__ZN8CryptoPP17AlignedDeallocateEPv
Ltmp143:
	jmp	LBB23_142
LBB23_141:
Ltmp146:
	mov	r15, rax
LBB23_142:
	mov	qword ptr [rbp - 1304], r14
	mov	rdx, qword ptr [rbp - 1272]
	test	rdx, rdx
	je	LBB23_172

	mov	rax, qword ptr [rbp - 1288]
	mov	rcx, qword ptr [rbp - 1280]
	cmp	rax, rcx
	cmovb	rcx, rax
	xor	eax, eax
	mov	rdi, rdx
	
	rep		stosq	qword ptr es:[rdi], rax
	
Ltmp147:
	mov	rdi, rdx
	call	__ZN8CryptoPP17AlignedDeallocateEPv
Ltmp148:
	jmp	LBB23_172
LBB23_144:
Ltmp151:
	jmp	LBB23_171
LBB23_145:
Ltmp102:
	mov	r15, rax
LBB23_146:
	mov	qword ptr [rbp - 1120], r14
	mov	rdx, qword ptr [rbp - 1088]
	test	rdx, rdx
	je	LBB23_149

	mov	rax, qword ptr [rbp - 1104]
	mov	rcx, qword ptr [rbp - 1096]
	cmp	rax, rcx
	cmovb	rcx, rax
	xor	eax, eax
	mov	rdi, rdx
	
	rep		stosq	qword ptr es:[rdi], rax
	
Ltmp103:
	mov	rdi, rdx
	call	__ZN8CryptoPP17AlignedDeallocateEPv
Ltmp104:
	jmp	LBB23_149
LBB23_148:
Ltmp107:
	mov	r15, rax
LBB23_149:
	mov	qword ptr [rbp - 1456], r14
	mov	rdx, qword ptr [rbp - 1424]
	test	rdx, rdx
	je	LBB23_152

	mov	rax, qword ptr [rbp - 1440]
	mov	rcx, qword ptr [rbp - 1432]
	cmp	rax, rcx
	cmovb	rcx, rax
	xor	eax, eax
	mov	rdi, rdx
	
	rep		stosq	qword ptr es:[rdi], rax
	
Ltmp108:
	mov	rdi, rdx
	call	__ZN8CryptoPP17AlignedDeallocateEPv
Ltmp109:
	jmp	LBB23_152
LBB23_151:
Ltmp112:
	mov	r15, rax
LBB23_152:
	mov	qword ptr [rbp - 1408], r14
	mov	rdx, qword ptr [rbp - 1376]
	test	rdx, rdx
	je	LBB23_155

	mov	rax, qword ptr [rbp - 1392]
	mov	rcx, qword ptr [rbp - 1384]
	cmp	rax, rcx
	cmovb	rcx, rax
	xor	eax, eax
	mov	rdi, rdx
	
	rep		stosq	qword ptr es:[rdi], rax
	
Ltmp113:
	mov	rdi, rdx
	call	__ZN8CryptoPP17AlignedDeallocateEPv
Ltmp114:
	jmp	LBB23_155
LBB23_154:
Ltmp117:
	mov	r15, rax
LBB23_155:
	mov	qword ptr [rbp - 1304], r14
	mov	rdx, qword ptr [rbp - 1272]
	test	rdx, rdx
	je	LBB23_158

	mov	rax, qword ptr [rbp - 1288]
	mov	rcx, qword ptr [rbp - 1280]
	cmp	rax, rcx
	cmovb	rcx, rax
	xor	eax, eax
	mov	rdi, rdx
	
	rep		stosq	qword ptr es:[rdi], rax
	
Ltmp118:
	mov	rdi, rdx
	call	__ZN8CryptoPP17AlignedDeallocateEPv
Ltmp119:
	jmp	LBB23_158
LBB23_157:
Ltmp122:
	mov	r15, rax
LBB23_158:
	mov	qword ptr [rbp - 1648], r14
	mov	rdx, qword ptr [rbp - 1616]
	test	rdx, rdx
	je	LBB23_172

	mov	rax, qword ptr [rbp - 1632]
	mov	rcx, qword ptr [rbp - 1624]
	cmp	rax, rcx
	cmovb	rcx, rax
	xor	eax, eax
	mov	rdi, rdx
	
	rep		stosq	qword ptr es:[rdi], rax
	
Ltmp123:
	mov	rdi, rdx
	call	__ZN8CryptoPP17AlignedDeallocateEPv
Ltmp124:
	jmp	LBB23_172
LBB23_160:
Ltmp127:
	jmp	LBB23_171
LBB23_161:
Ltmp78:
LBB23_162:
	mov	r15, rax
	jmp	LBB23_174
LBB23_163:
Ltmp57:
	mov	r15, rax
LBB23_164:
	mov	rax, qword ptr [rip + __ZTVN8CryptoPP7IntegerE@GOTPCREL]
	add	rax, 16
	mov	qword ptr [rbp - 1504], rax
	mov	rdx, qword ptr [rbp - 1472]
	test	rdx, rdx
	je	LBB23_176

	mov	rax, qword ptr [rbp - 1488]
	mov	rcx, qword ptr [rbp - 1480]
	cmp	rax, rcx
	cmovb	rcx, rax
	xor	eax, eax
	mov	rdi, rdx
	
	rep		stosq	qword ptr es:[rdi], rax
	
Ltmp58:
	mov	rdi, rdx
	call	__ZN8CryptoPP17AlignedDeallocateEPv
Ltmp59:
	jmp	LBB23_176
LBB23_166:
Ltmp73:
	mov	r15, rax
	mov	rax, qword ptr [rip + __ZTVN8CryptoPP19AlgorithmParametersE@GOTPCREL]
	add	rax, 16
	mov	qword ptr [rbp - 584], rax
	mov	rdi, qword ptr [rbp - 576]
	test	rdi, rdi
	je	LBB23_174

	mov	rax, qword ptr [rdi]
Ltmp74:
	call	qword ptr [rax + 8]
Ltmp75:
	jmp	LBB23_174
LBB23_168:
Ltmp64:
	mov	r15, rax
	mov	qword ptr [rbp - 584], r14
	mov	rdx, qword ptr [rbp - 552]
	test	rdx, rdx
	je	LBB23_176

	mov	rax, qword ptr [rbp - 568]
	mov	rcx, qword ptr [rbp - 560]
	cmp	rax, rcx
	cmovb	rcx, rax
	xor	eax, eax
	mov	rdi, rdx
	
	rep		stosq	qword ptr es:[rdi], rax
	
Ltmp65:
	mov	rdi, rdx
	call	__ZN8CryptoPP17AlignedDeallocateEPv
Ltmp66:
	jmp	LBB23_176
LBB23_170:
Ltmp198:
LBB23_171:
	mov	r15, rax
LBB23_172:
	mov	rax, qword ptr [rbp - 1136] 
	mov	qword ptr [rbp - 1160], rax
	mov	rdi, qword ptr [rbp - 1152]
	test	rdi, rdi
	je	LBB23_174

	mov	rax, qword ptr [rdi]
Ltmp233:
	call	qword ptr [rax + 8]
Ltmp234:
LBB23_174:
	mov	eax, 16
	mov	rcx, qword ptr [rip + __ZTVN8CryptoPP16RSAPrimeSelectorE@GOTPCREL]
	add	rcx, rax
	mov	qword ptr [rbp - 1360], rcx
	mov	rcx, qword ptr [rip + __ZTVN8CryptoPP7IntegerE@GOTPCREL]
	add	rcx, rax
	mov	qword ptr [rbp - 1352], rcx
	mov	rdx, qword ptr [rbp - 1320]
	test	rdx, rdx
	je	LBB23_176

	mov	rax, qword ptr [rbp - 1336]
	mov	rcx, qword ptr [rbp - 1328]
	cmp	rax, rcx
	cmovb	rcx, rax
	xor	eax, eax
	mov	rdi, rdx
	
	rep		stosq	qword ptr es:[rdi], rax
	
Ltmp238:
	mov	rdi, rdx
	call	__ZN8CryptoPP17AlignedDeallocateEPv
Ltmp239:
LBB23_176:
	mov	rdi, r15
	call	__Unwind_Resume
	ud2
LBB23_177:
Ltmp240:
	mov	rdi, rax
	call	___clang_call_terminate
Lfunc_end4:
	.cfi_endproc
	.section	__TEXT,__gcc_except_tab
	.p2align	2
GCC_except_table23:
Lexception4:
	.byte	255                     
	.byte	155                     
	.uleb128 Lttbase3-Lttbaseref3
Lttbaseref3:
	.byte	1                       
	.uleb128 Lcst_end4-Lcst_begin4
Lcst_begin4:
	.uleb128 Lfunc_begin4-Lfunc_begin4 
	.uleb128 Ltmp48-Lfunc_begin4    
	.byte	0                       
	.byte	0                       
	.uleb128 Ltmp48-Lfunc_begin4    
	.uleb128 Ltmp49-Ltmp48          
	.uleb128 Ltmp57-Lfunc_begin4    
	.byte	0                       
	.uleb128 Ltmp50-Lfunc_begin4    
	.uleb128 Ltmp51-Ltmp50          
	.uleb128 Ltmp52-Lfunc_begin4    
	.byte	0                       
	.uleb128 Ltmp55-Lfunc_begin4    
	.uleb128 Ltmp56-Ltmp55          
	.uleb128 Ltmp57-Lfunc_begin4    
	.byte	0                       
	.uleb128 Ltmp56-Lfunc_begin4    
	.uleb128 Ltmp60-Ltmp56          
	.byte	0                       
	.byte	0                       
	.uleb128 Ltmp60-Lfunc_begin4    
	.uleb128 Ltmp63-Ltmp60          
	.uleb128 Ltmp64-Lfunc_begin4    
	.byte	0                       
	.uleb128 Ltmp63-Lfunc_begin4    
	.uleb128 Ltmp67-Ltmp63          
	.byte	0                       
	.byte	0                       
	.uleb128 Ltmp67-Lfunc_begin4    
	.uleb128 Ltmp68-Ltmp67          
	.uleb128 Ltmp78-Lfunc_begin4    
	.byte	0                       
	.uleb128 Ltmp69-Lfunc_begin4    
	.uleb128 Ltmp72-Ltmp69          
	.uleb128 Ltmp73-Lfunc_begin4    
	.byte	0                       
	.uleb128 Ltmp76-Lfunc_begin4    
	.uleb128 Ltmp77-Ltmp76          
	.uleb128 Ltmp78-Lfunc_begin4    
	.byte	0                       
	.uleb128 Ltmp79-Lfunc_begin4    
	.uleb128 Ltmp82-Ltmp79          
	.uleb128 Ltmp198-Lfunc_begin4   
	.byte	0                       
	.uleb128 Ltmp83-Lfunc_begin4    
	.uleb128 Ltmp84-Ltmp83          
	.uleb128 Ltmp127-Lfunc_begin4   
	.byte	0                       
	.uleb128 Ltmp85-Lfunc_begin4    
	.uleb128 Ltmp86-Ltmp85          
	.uleb128 Ltmp122-Lfunc_begin4   
	.byte	0                       
	.uleb128 Ltmp87-Lfunc_begin4    
	.uleb128 Ltmp88-Ltmp87          
	.uleb128 Ltmp117-Lfunc_begin4   
	.byte	0                       
	.uleb128 Ltmp89-Lfunc_begin4    
	.uleb128 Ltmp90-Ltmp89          
	.uleb128 Ltmp112-Lfunc_begin4   
	.byte	0                       
	.uleb128 Ltmp91-Lfunc_begin4    
	.uleb128 Ltmp92-Ltmp91          
	.uleb128 Ltmp107-Lfunc_begin4   
	.byte	0                       
	.uleb128 Ltmp93-Lfunc_begin4    
	.uleb128 Ltmp94-Ltmp93          
	.uleb128 Ltmp102-Lfunc_begin4   
	.byte	0                       
	.uleb128 Ltmp95-Lfunc_begin4    
	.uleb128 Ltmp96-Ltmp95          
	.uleb128 Ltmp97-Lfunc_begin4    
	.byte	0                       
	.uleb128 Ltmp100-Lfunc_begin4   
	.uleb128 Ltmp101-Ltmp100        
	.uleb128 Ltmp102-Lfunc_begin4   
	.byte	0                       
	.uleb128 Ltmp105-Lfunc_begin4   
	.uleb128 Ltmp106-Ltmp105        
	.uleb128 Ltmp107-Lfunc_begin4   
	.byte	0                       
	.uleb128 Ltmp110-Lfunc_begin4   
	.uleb128 Ltmp111-Ltmp110        
	.uleb128 Ltmp112-Lfunc_begin4   
	.byte	0                       
	.uleb128 Ltmp115-Lfunc_begin4   
	.uleb128 Ltmp116-Ltmp115        
	.uleb128 Ltmp117-Lfunc_begin4   
	.byte	0                       
	.uleb128 Ltmp120-Lfunc_begin4   
	.uleb128 Ltmp121-Ltmp120        
	.uleb128 Ltmp122-Lfunc_begin4   
	.byte	0                       
	.uleb128 Ltmp125-Lfunc_begin4   
	.uleb128 Ltmp126-Ltmp125        
	.uleb128 Ltmp127-Lfunc_begin4   
	.byte	0                       
	.uleb128 Ltmp128-Lfunc_begin4   
	.uleb128 Ltmp129-Ltmp128        
	.uleb128 Ltmp151-Lfunc_begin4   
	.byte	0                       
	.uleb128 Ltmp130-Lfunc_begin4   
	.uleb128 Ltmp131-Ltmp130        
	.uleb128 Ltmp146-Lfunc_begin4   
	.byte	0                       
	.uleb128 Ltmp132-Lfunc_begin4   
	.uleb128 Ltmp133-Ltmp132        
	.uleb128 Ltmp141-Lfunc_begin4   
	.byte	0                       
	.uleb128 Ltmp134-Lfunc_begin4   
	.uleb128 Ltmp135-Ltmp134        
	.uleb128 Ltmp136-Lfunc_begin4   
	.byte	0                       
	.uleb128 Ltmp139-Lfunc_begin4   
	.uleb128 Ltmp140-Ltmp139        
	.uleb128 Ltmp141-Lfunc_begin4   
	.byte	0                       
	.uleb128 Ltmp144-Lfunc_begin4   
	.uleb128 Ltmp145-Ltmp144        
	.uleb128 Ltmp146-Lfunc_begin4   
	.byte	0                       
	.uleb128 Ltmp149-Lfunc_begin4   
	.uleb128 Ltmp150-Ltmp149        
	.uleb128 Ltmp151-Lfunc_begin4   
	.byte	0                       
	.uleb128 Ltmp152-Lfunc_begin4   
	.uleb128 Ltmp153-Ltmp152        
	.uleb128 Ltmp175-Lfunc_begin4   
	.byte	0                       
	.uleb128 Ltmp154-Lfunc_begin4   
	.uleb128 Ltmp155-Ltmp154        
	.uleb128 Ltmp170-Lfunc_begin4   
	.byte	0                       
	.uleb128 Ltmp156-Lfunc_begin4   
	.uleb128 Ltmp157-Ltmp156        
	.uleb128 Ltmp165-Lfunc_begin4   
	.byte	0                       
	.uleb128 Ltmp158-Lfunc_begin4   
	.uleb128 Ltmp159-Ltmp158        
	.uleb128 Ltmp160-Lfunc_begin4   
	.byte	0                       
	.uleb128 Ltmp163-Lfunc_begin4   
	.uleb128 Ltmp164-Ltmp163        
	.uleb128 Ltmp165-Lfunc_begin4   
	.byte	0                       
	.uleb128 Ltmp168-Lfunc_begin4   
	.uleb128 Ltmp169-Ltmp168        
	.uleb128 Ltmp170-Lfunc_begin4   
	.byte	0                       
	.uleb128 Ltmp173-Lfunc_begin4   
	.uleb128 Ltmp174-Ltmp173        
	.uleb128 Ltmp175-Lfunc_begin4   
	.byte	0                       
	.uleb128 Ltmp176-Lfunc_begin4   
	.uleb128 Ltmp177-Ltmp176        
	.uleb128 Ltmp185-Lfunc_begin4   
	.byte	0                       
	.uleb128 Ltmp178-Lfunc_begin4   
	.uleb128 Ltmp179-Ltmp178        
	.uleb128 Ltmp180-Lfunc_begin4   
	.byte	0                       
	.uleb128 Ltmp183-Lfunc_begin4   
	.uleb128 Ltmp184-Ltmp183        
	.uleb128 Ltmp185-Lfunc_begin4   
	.byte	0                       
	.uleb128 Ltmp186-Lfunc_begin4   
	.uleb128 Ltmp187-Ltmp186        
	.uleb128 Ltmp195-Lfunc_begin4   
	.byte	0                       
	.uleb128 Ltmp188-Lfunc_begin4   
	.uleb128 Ltmp189-Ltmp188        
	.uleb128 Ltmp190-Lfunc_begin4   
	.byte	0                       
	.uleb128 Ltmp193-Lfunc_begin4   
	.uleb128 Ltmp194-Ltmp193        
	.uleb128 Ltmp195-Lfunc_begin4   
	.byte	0                       
	.uleb128 Ltmp196-Lfunc_begin4   
	.uleb128 Ltmp197-Ltmp196        
	.uleb128 Ltmp198-Lfunc_begin4   
	.byte	0                       
	.uleb128 Ltmp199-Lfunc_begin4   
	.uleb128 Ltmp200-Ltmp199        
	.uleb128 Ltmp232-Lfunc_begin4   
	.byte	0                       
	.uleb128 Ltmp201-Lfunc_begin4   
	.uleb128 Ltmp202-Ltmp201        
	.uleb128 Ltmp227-Lfunc_begin4   
	.byte	0                       
	.uleb128 Ltmp203-Lfunc_begin4   
	.uleb128 Ltmp204-Ltmp203        
	.uleb128 Ltmp205-Lfunc_begin4   
	.byte	0                       
	.uleb128 Ltmp206-Lfunc_begin4   
	.uleb128 Ltmp207-Ltmp206        
	.uleb128 Ltmp222-Lfunc_begin4   
	.byte	0                       
	.uleb128 Ltmp208-Lfunc_begin4   
	.uleb128 Ltmp209-Ltmp208        
	.uleb128 Ltmp217-Lfunc_begin4   
	.byte	0                       
	.uleb128 Ltmp210-Lfunc_begin4   
	.uleb128 Ltmp211-Ltmp210        
	.uleb128 Ltmp212-Lfunc_begin4   
	.byte	0                       
	.uleb128 Ltmp215-Lfunc_begin4   
	.uleb128 Ltmp216-Ltmp215        
	.uleb128 Ltmp217-Lfunc_begin4   
	.byte	0                       
	.uleb128 Ltmp220-Lfunc_begin4   
	.uleb128 Ltmp221-Ltmp220        
	.uleb128 Ltmp222-Lfunc_begin4   
	.byte	0                       
	.uleb128 Ltmp225-Lfunc_begin4   
	.uleb128 Ltmp226-Ltmp225        
	.uleb128 Ltmp227-Lfunc_begin4   
	.byte	0                       
	.uleb128 Ltmp230-Lfunc_begin4   
	.uleb128 Ltmp231-Ltmp230        
	.uleb128 Ltmp232-Lfunc_begin4   
	.byte	0                       
	.uleb128 Ltmp235-Lfunc_begin4   
	.uleb128 Ltmp236-Ltmp235        
	.uleb128 Ltmp237-Lfunc_begin4   
	.byte	0                       
	.uleb128 Ltmp236-Lfunc_begin4   
	.uleb128 Ltmp249-Ltmp236        
	.byte	0                       
	.byte	0                       
	.uleb128 Ltmp249-Lfunc_begin4   
	.uleb128 Ltmp250-Ltmp249        
	.uleb128 Ltmp251-Lfunc_begin4   
	.byte	0                       
	.uleb128 Ltmp252-Lfunc_begin4   
	.uleb128 Ltmp255-Ltmp252        
	.uleb128 Ltmp256-Lfunc_begin4   
	.byte	0                       
	.uleb128 Ltmp255-Lfunc_begin4   
	.uleb128 Ltmp241-Ltmp255        
	.byte	0                       
	.byte	0                       
	.uleb128 Ltmp241-Lfunc_begin4   
	.uleb128 Ltmp242-Ltmp241        
	.uleb128 Ltmp243-Lfunc_begin4   
	.byte	0                       
	.uleb128 Ltmp244-Lfunc_begin4   
	.uleb128 Ltmp247-Ltmp244        
	.uleb128 Ltmp248-Lfunc_begin4   
	.byte	0                       
	.uleb128 Ltmp247-Lfunc_begin4   
	.uleb128 Ltmp213-Ltmp247        
	.byte	0                       
	.byte	0                       
	.uleb128 Ltmp213-Lfunc_begin4   
	.uleb128 Ltmp239-Ltmp213        
	.uleb128 Ltmp240-Lfunc_begin4   
	.byte	1                       
	.uleb128 Ltmp239-Lfunc_begin4   
	.uleb128 Lfunc_end4-Ltmp239     
	.byte	0                       
	.byte	0                       
Lcst_end4:
	.byte	1                       
                                        
	.byte	0                       
	.p2align	2
                                        
	.long	0                       
Lttbase3:
	.p2align	2
                                        
	.section	__TEXT,__text,regular,pure_instructions
	.p2align	1, 0x90         
__ZNSt3__112basic_stringIcNS_11char_traitsIcEENS_9allocatorIcEEEC1INS_9nullptr_tEEEPKc: 
	.cfi_startproc

	push	rbp
	.cfi_def_cfa_offset 16
	.cfi_offset rbp, -16
	mov	rbp, rsp
	.cfi_def_cfa_register rbp
	push	r15
	push	r14
	push	r12
	push	rbx
	.cfi_offset rbx, -48
	.cfi_offset r12, -40
	.cfi_offset r14, -32
	.cfi_offset r15, -24
	mov	r15, rsi
	mov	r14, rdi
	mov	rdi, rsi
	call	_strlen
	cmp	rax, -16
	jae	LBB24_6

	mov	r12, rax
	cmp	rax, 23
	jae	LBB24_2

	lea	eax, [r12 + r12]
	mov	byte ptr [r14], al
	inc	r14
	test	r12, r12
	jne	LBB24_4
	jmp	LBB24_5
LBB24_2:
	mov	rbx, r12
	add	rbx, 16
	and	rbx, -16
	mov	rdi, rbx
	call	__Znwm
	mov	qword ptr [r14 + 16], rax
	or	rbx, 1
	mov	qword ptr [r14], rbx
	mov	qword ptr [r14 + 8], r12
	mov	r14, rax
LBB24_4:
	mov	rdi, r14
	mov	rsi, r15
	mov	rdx, r12
	call	_memcpy
LBB24_5:
	mov	byte ptr [r14 + r12], 0
	pop	rbx
	pop	r12
	pop	r14
	pop	r15
	pop	rbp
	ret
LBB24_6:
	mov	rdi, r14
	call	__ZNKSt3__121__basic_string_commonILb1EE20__throw_length_errorEv
	.cfi_endproc
                                        
	.globl	__ZN8CryptoPP15InvalidArgumentD1Ev 
	.weak_def_can_be_hidden	__ZN8CryptoPP15InvalidArgumentD1Ev
	.p2align	1, 0x90
__ZN8CryptoPP15InvalidArgumentD1Ev:     

	push	rbp
	mov	rbp, rsp
	pop	rbp
	jmp	__ZN8CryptoPP9ExceptionD2Ev 
                                        
	.globl	__ZNK8CryptoPP14NameValuePairs19GetValueWithDefaultINS_7IntegerEEET_PKcS3_ 
	.weak_def_can_be_hidden	__ZNK8CryptoPP14NameValuePairs19GetValueWithDefaultINS_7IntegerEEET_PKcS3_
	.p2align	1, 0x90
__ZNK8CryptoPP14NameValuePairs19GetValueWithDefaultINS_7IntegerEEET_PKcS3_: 
Lfunc_begin5:
	.cfi_startproc
	.cfi_personality 155, ___gxx_personality_v0
	.cfi_lsda 16, Lexception5

	push	rbp
	.cfi_def_cfa_offset 16
	.cfi_offset rbp, -16
	mov	rbp, rsp
	.cfi_def_cfa_register rbp
	push	r15
	push	r14
	push	r13
	push	r12
	push	rbx
	sub	rsp, 56
	.cfi_offset rbx, -56
	.cfi_offset r12, -48
	.cfi_offset r13, -40
	.cfi_offset r14, -32
	.cfi_offset r15, -24
	mov	r14, rcx
	mov	r12, rdx
	mov	rbx, rsi
	mov	r15, rdi
	lea	r13, [rbp - 88]
	mov	rdi, r13
	call	__ZN8CryptoPP7IntegerC1Ev
	mov	rax, qword ptr [rbx]
Ltmp257:
	mov	rdx, qword ptr [rip + __ZTIN8CryptoPP7IntegerE@GOTPCREL]
	mov	rdi, rbx
	mov	rsi, r12
	mov	rcx, r13
	call	qword ptr [rax + 16]
Ltmp258:

	test	al, al
	je	LBB26_6

Ltmp261:
	lea	rsi, [rbp - 88]
	mov	rdi, r15
	call	__ZN8CryptoPP7IntegerC1ERKS0_
Ltmp262:
	jmp	LBB26_7
LBB26_6:
Ltmp259:
	mov	rdi, r15
	mov	rsi, r14
	call	__ZN8CryptoPP7IntegerC1ERKS0_
Ltmp260:
LBB26_7:
	mov	rax, qword ptr [rip + __ZTVN8CryptoPP7IntegerE@GOTPCREL]
	add	rax, 16
	mov	qword ptr [rbp - 88], rax
	mov	rdx, qword ptr [rbp - 56]
	test	rdx, rdx
	je	LBB26_9

	mov	rax, qword ptr [rbp - 72]
	mov	rcx, qword ptr [rbp - 64]
	cmp	rax, rcx
	cmovb	rcx, rax
	xor	eax, eax
	mov	rdi, rdx
	
	rep		stosq	qword ptr es:[rdi], rax
	
	mov	rdi, rdx
	call	__ZN8CryptoPP17AlignedDeallocateEPv
LBB26_9:
	mov	rax, r15
	add	rsp, 56
	pop	rbx
	pop	r12
	pop	r13
	pop	r14
	pop	r15
	pop	rbp
	ret
LBB26_3:
Ltmp263:
	mov	rbx, rax
	mov	rax, qword ptr [rip + __ZTVN8CryptoPP7IntegerE@GOTPCREL]
	add	rax, 16
	mov	qword ptr [rbp - 88], rax
	mov	rdx, qword ptr [rbp - 56]
	test	rdx, rdx
	je	LBB26_5

	mov	rax, qword ptr [rbp - 72]
	mov	rcx, qword ptr [rbp - 64]
	cmp	rax, rcx
	cmovb	rcx, rax
	xor	eax, eax
	mov	rdi, rdx
	
	rep		stosq	qword ptr es:[rdi], rax
	
Ltmp264:
	mov	rdi, rdx
	call	__ZN8CryptoPP17AlignedDeallocateEPv
Ltmp265:
LBB26_5:
	mov	rdi, rbx
	call	__Unwind_Resume
	ud2
LBB26_10:
Ltmp266:
	mov	rdi, rax
	call	___clang_call_terminate
Lfunc_end5:
	.cfi_endproc
	.section	__TEXT,__gcc_except_tab
	.p2align	2
GCC_except_table26:
Lexception5:
	.byte	255                     
	.byte	155                     
	.uleb128 Lttbase4-Lttbaseref4
Lttbaseref4:
	.byte	1                       
	.uleb128 Lcst_end5-Lcst_begin5
Lcst_begin5:
	.uleb128 Lfunc_begin5-Lfunc_begin5 
	.uleb128 Ltmp257-Lfunc_begin5   
	.byte	0                       
	.byte	0                       
	.uleb128 Ltmp257-Lfunc_begin5   
	.uleb128 Ltmp260-Ltmp257        
	.uleb128 Ltmp263-Lfunc_begin5   
	.byte	0                       
	.uleb128 Ltmp260-Lfunc_begin5   
	.uleb128 Ltmp264-Ltmp260        
	.byte	0                       
	.byte	0                       
	.uleb128 Ltmp264-Lfunc_begin5   
	.uleb128 Ltmp265-Ltmp264        
	.uleb128 Ltmp266-Lfunc_begin5   
	.byte	1                       
	.uleb128 Ltmp265-Lfunc_begin5   
	.uleb128 Lfunc_end5-Ltmp265     
	.byte	0                       
	.byte	0                       
Lcst_end5:
	.byte	1                       
                                        
	.byte	0                       
	.p2align	2
                                        
	.long	0                       
Lttbase4:
	.p2align	2
                                        
	.section	__TEXT,__text,regular,pure_instructions
	.globl	__ZN8CryptoPP7Integer14GenerateRandomERNS_21RandomNumberGeneratorERKNS_14NameValuePairsE 
	.weak_def_can_be_hidden	__ZN8CryptoPP7Integer14GenerateRandomERNS_21RandomNumberGeneratorERKNS_14NameValuePairsE
	.p2align	1, 0x90
__ZN8CryptoPP7Integer14GenerateRandomERNS_21RandomNumberGeneratorERKNS_14NameValuePairsE: 
Lfunc_begin6:
	.cfi_startproc
	.cfi_personality 155, ___gxx_personality_v0
	.cfi_lsda 16, Lexception6

	push	rbp
	.cfi_def_cfa_offset 16
	.cfi_offset rbp, -16
	mov	rbp, rsp
	.cfi_def_cfa_register rbp
	push	r14
	push	rbx
	.cfi_offset rbx, -32
	.cfi_offset r14, -24
	call	__ZN8CryptoPP7Integer21GenerateRandomNoThrowERNS_21RandomNumberGeneratorERKNS_14NameValuePairsE
	test	al, al
	je	LBB27_1

	pop	rbx
	pop	r14
	pop	rbp
	ret
LBB27_1:
	mov	edi, 40
	call	___cxa_allocate_exception
	mov	rbx, rax
Ltmp267:
	mov	rdi, rax
	call	__ZN8CryptoPP7Integer20RandomNumberNotFoundC1Ev
Ltmp268:

	mov	rsi, qword ptr [rip + __ZTIN8CryptoPP7Integer20RandomNumberNotFoundE@GOTPCREL]
	mov	rdx, qword ptr [rip + __ZN8CryptoPP7Integer20RandomNumberNotFoundD1Ev@GOTPCREL]
	mov	rdi, rbx
	call	___cxa_throw
LBB27_3:
Ltmp269:
	mov	r14, rax
	mov	rdi, rbx
	call	___cxa_free_exception
	mov	rdi, r14
	call	__Unwind_Resume
	ud2
Lfunc_end6:
	.cfi_endproc
	.section	__TEXT,__gcc_except_tab
	.p2align	2
GCC_except_table27:
Lexception6:
	.byte	255                     
	.byte	255                     
	.byte	1                       
	.uleb128 Lcst_end6-Lcst_begin6
Lcst_begin6:
	.uleb128 Lfunc_begin6-Lfunc_begin6 
	.uleb128 Ltmp267-Lfunc_begin6   
	.byte	0                       
	.byte	0                       
	.uleb128 Ltmp267-Lfunc_begin6   
	.uleb128 Ltmp268-Ltmp267        
	.uleb128 Ltmp269-Lfunc_begin6   
	.byte	0                       
	.uleb128 Ltmp268-Lfunc_begin6   
	.uleb128 Lfunc_end6-Ltmp268     
	.byte	0                       
	.byte	0                       
Lcst_end6:
	.p2align	2
                                        
	.section	__TEXT,__text,regular,pure_instructions
	.globl	__ZN8CryptoPP3LCMERKNS_7IntegerES2_ 
	.weak_def_can_be_hidden	__ZN8CryptoPP3LCMERKNS_7IntegerES2_
__ZN8CryptoPP3LCMERKNS_7IntegerES2_:    
Lfunc_begin7:
	.cfi_startproc
	.cfi_personality 155, ___gxx_personality_v0
	.cfi_lsda 16, Lexception7

	push	rbp
	.cfi_def_cfa_offset 16
	.cfi_offset rbp, -16
	mov	rbp, rsp
	.cfi_def_cfa_register rbp
	push	r15
	push	r14
	push	r12
	push	rbx
	sub	rsp, 96
	.cfi_offset rbx, -48
	.cfi_offset r12, -40
	.cfi_offset r14, -32
	.cfi_offset r15, -24
	mov	r15, rdx
	mov	rbx, rsi
	mov	r14, rdi
	lea	r12, [rbp - 128]
	mov	rdi, r12
	call	__ZN8CryptoPP7Integer3GcdERKS0_S2_
Ltmp270:
	lea	rdi, [rbp - 80]
	mov	rsi, rbx
	mov	rdx, r12
	call	__ZNK8CryptoPP7Integer9DividedByERKS0_
Ltmp271:

Ltmp272:
	lea	rsi, [rbp - 80]
	mov	rdi, r14
	mov	rdx, r15
	call	__ZNK8CryptoPP7Integer5TimesERKS0_
Ltmp273:

	mov	rbx, qword ptr [rip + __ZTVN8CryptoPP7IntegerE@GOTPCREL]
	add	rbx, 16
	mov	qword ptr [rbp - 80], rbx
	mov	rdx, qword ptr [rbp - 48]
	test	rdx, rdx
	je	LBB28_4

	mov	rax, qword ptr [rbp - 64]
	mov	rcx, qword ptr [rbp - 56]
	cmp	rax, rcx
	cmovb	rcx, rax
	xor	eax, eax
	mov	rdi, rdx
	
	rep		stosq	qword ptr es:[rdi], rax
	
Ltmp277:
	mov	rdi, rdx
	call	__ZN8CryptoPP17AlignedDeallocateEPv
Ltmp278:
LBB28_4:
	mov	qword ptr [rbp - 128], rbx
	mov	rdx, qword ptr [rbp - 96]
	test	rdx, rdx
	je	LBB28_6

	mov	rax, qword ptr [rbp - 112]
	mov	rcx, qword ptr [rbp - 104]
	cmp	rax, rcx
	cmovb	rcx, rax
	xor	eax, eax
	mov	rdi, rdx
	
	rep		stosq	qword ptr es:[rdi], rax
	
	mov	rdi, rdx
	call	__ZN8CryptoPP17AlignedDeallocateEPv
LBB28_6:
	mov	rax, r14
	add	rsp, 96
	pop	rbx
	pop	r12
	pop	r14
	pop	r15
	pop	rbp
	ret
LBB28_8:
Ltmp274:
	mov	rbx, rax
	mov	rax, qword ptr [rip + __ZTVN8CryptoPP7IntegerE@GOTPCREL]
	add	rax, 16
	mov	qword ptr [rbp - 80], rax
	mov	rdx, qword ptr [rbp - 48]
	test	rdx, rdx
	je	LBB28_10

	mov	rax, qword ptr [rbp - 64]
	mov	rcx, qword ptr [rbp - 56]
	cmp	rax, rcx
	cmovb	rcx, rax
	xor	eax, eax
	mov	rdi, rdx
	
	rep		stosq	qword ptr es:[rdi], rax
	
Ltmp275:
	mov	rdi, rdx
	call	__ZN8CryptoPP17AlignedDeallocateEPv
Ltmp276:
	jmp	LBB28_10
LBB28_7:
Ltmp279:
	mov	rbx, rax
LBB28_10:
	mov	rax, qword ptr [rip + __ZTVN8CryptoPP7IntegerE@GOTPCREL]
	add	rax, 16
	mov	qword ptr [rbp - 128], rax
	mov	rdx, qword ptr [rbp - 96]
	test	rdx, rdx
	je	LBB28_12

	mov	rax, qword ptr [rbp - 112]
	mov	rcx, qword ptr [rbp - 104]
	cmp	rax, rcx
	cmovb	rcx, rax
	xor	eax, eax
	mov	rdi, rdx
	
	rep		stosq	qword ptr es:[rdi], rax
	
Ltmp280:
	mov	rdi, rdx
	call	__ZN8CryptoPP17AlignedDeallocateEPv
Ltmp281:
LBB28_12:
	mov	rdi, rbx
	call	__Unwind_Resume
	ud2
LBB28_13:
Ltmp282:
	mov	rdi, rax
	call	___clang_call_terminate
Lfunc_end7:
	.cfi_endproc
	.section	__TEXT,__gcc_except_tab
	.p2align	2
GCC_except_table28:
Lexception7:
	.byte	255                     
	.byte	155                     
	.uleb128 Lttbase5-Lttbaseref5
Lttbaseref5:
	.byte	1                       
	.uleb128 Lcst_end7-Lcst_begin7
Lcst_begin7:
	.uleb128 Lfunc_begin7-Lfunc_begin7 
	.uleb128 Ltmp270-Lfunc_begin7   
	.byte	0                       
	.byte	0                       
	.uleb128 Ltmp270-Lfunc_begin7   
	.uleb128 Ltmp271-Ltmp270        
	.uleb128 Ltmp279-Lfunc_begin7   
	.byte	0                       
	.uleb128 Ltmp272-Lfunc_begin7   
	.uleb128 Ltmp273-Ltmp272        
	.uleb128 Ltmp274-Lfunc_begin7   
	.byte	0                       
	.uleb128 Ltmp277-Lfunc_begin7   
	.uleb128 Ltmp278-Ltmp277        
	.uleb128 Ltmp279-Lfunc_begin7   
	.byte	0                       
	.uleb128 Ltmp278-Lfunc_begin7   
	.uleb128 Ltmp275-Ltmp278        
	.byte	0                       
	.byte	0                       
	.uleb128 Ltmp275-Lfunc_begin7   
	.uleb128 Ltmp281-Ltmp275        
	.uleb128 Ltmp282-Lfunc_begin7   
	.byte	1                       
	.uleb128 Ltmp281-Lfunc_begin7   
	.uleb128 Lfunc_end7-Ltmp281     
	.byte	0                       
	.byte	0                       
Lcst_end7:
	.byte	1                       
                                        
	.byte	0                       
	.p2align	2
                                        
	.long	0                       
Lttbase5:
	.p2align	2
                                        
	.section	__TEXT,__text,regular,pure_instructions
	.globl	__ZN8CryptoPP16PK_FinalTemplateINS_16TF_EncryptorImplINS_22TF_CryptoSchemeOptionsINS_5TF_ESINS_3RSAENS_4OAEPINS_4SHA1ENS_10P1363_MGF1EEEiEES4_S8_EEEEED1Ev 
	.weak_def_can_be_hidden	__ZN8CryptoPP16PK_FinalTemplateINS_16TF_EncryptorImplINS_22TF_CryptoSchemeOptionsINS_5TF_ESINS_3RSAENS_4OAEPINS_4SHA1ENS_10P1363_MGF1EEEiEES4_S8_EEEEED1Ev
	.p2align	1, 0x90
__ZN8CryptoPP16PK_FinalTemplateINS_16TF_EncryptorImplINS_22TF_CryptoSchemeOptionsINS_5TF_ESINS_3RSAENS_4OAEPINS_4SHA1ENS_10P1363_MGF1EEEiEES4_S8_EEEEED1Ev: 
	.cfi_startproc

	push	rbp
	.cfi_def_cfa_offset 16
	.cfi_offset rbp, -16
	mov	rbp, rsp
	.cfi_def_cfa_register rbp
	pop	rbp
	jmp	__ZN8CryptoPP13TF_ObjectImplINS_16TF_EncryptorBaseENS_22TF_CryptoSchemeOptionsINS_5TF_ESINS_3RSAENS_4OAEPINS_4SHA1ENS_10P1363_MGF1EEEiEES4_S8_EENS_11RSAFunctionEED2Ev 
	.cfi_endproc
                                        
	.globl	__ZN8CryptoPP16PK_FinalTemplateINS_16TF_DecryptorImplINS_22TF_CryptoSchemeOptionsINS_5TF_ESINS_3RSAENS_4OAEPINS_4SHA1ENS_10P1363_MGF1EEEiEES4_S8_EEEEED1Ev 
	.weak_def_can_be_hidden	__ZN8CryptoPP16PK_FinalTemplateINS_16TF_DecryptorImplINS_22TF_CryptoSchemeOptionsINS_5TF_ESINS_3RSAENS_4OAEPINS_4SHA1ENS_10P1363_MGF1EEEiEES4_S8_EEEEED1Ev
	.p2align	1, 0x90
__ZN8CryptoPP16PK_FinalTemplateINS_16TF_DecryptorImplINS_22TF_CryptoSchemeOptionsINS_5TF_ESINS_3RSAENS_4OAEPINS_4SHA1ENS_10P1363_MGF1EEEiEES4_S8_EEEEED1Ev: 
	.cfi_startproc

	push	rbp
	.cfi_def_cfa_offset 16
	.cfi_offset rbp, -16
	mov	rbp, rsp
	.cfi_def_cfa_register rbp
	mov	rax, qword ptr [rip + __ZTVN8CryptoPP13TF_ObjectImplINS_16TF_DecryptorBaseENS_22TF_CryptoSchemeOptionsINS_5TF_ESINS_3RSAENS_4OAEPINS_4SHA1ENS_10P1363_MGF1EEEiEES4_S8_EENS_21InvertibleRSAFunctionEEE@GOTPCREL]
	lea	rcx, [rax + 16]
	mov	qword ptr [rdi], rcx
	lea	rcx, [rax + 168]
	mov	qword ptr [rdi + 8], rcx
	add	rax, 256
	mov	qword ptr [rdi + 16], rax
	add	rdi, 24
	lea	rsi, [rip + __ZTTN8CryptoPP21InvertibleRSAFunctionE]
	pop	rbp
	jmp	__ZN8CryptoPP21InvertibleRSAFunctionD2Ev 
	.cfi_endproc
                                        
	.globl	__ZN8CryptoPP16PK_FinalTemplateINS_15TF_VerifierImplINS_25TF_SignatureSchemeOptionsINS_5TF_SSINS_3RSAENS_8PKCS1v15ENS_4SHA1EiEES4_NS_39PKCS1v15_SignatureMessageEncodingMethodES6_EEEEED1Ev 
	.weak_def_can_be_hidden	__ZN8CryptoPP16PK_FinalTemplateINS_15TF_VerifierImplINS_25TF_SignatureSchemeOptionsINS_5TF_SSINS_3RSAENS_8PKCS1v15ENS_4SHA1EiEES4_NS_39PKCS1v15_SignatureMessageEncodingMethodES6_EEEEED1Ev
	.p2align	1, 0x90
__ZN8CryptoPP16PK_FinalTemplateINS_15TF_VerifierImplINS_25TF_SignatureSchemeOptionsINS_5TF_SSINS_3RSAENS_8PKCS1v15ENS_4SHA1EiEES4_NS_39PKCS1v15_SignatureMessageEncodingMethodES6_EEEEED1Ev: 
	.cfi_startproc

	push	rbp
	.cfi_def_cfa_offset 16
	.cfi_offset rbp, -16
	mov	rbp, rsp
	.cfi_def_cfa_register rbp
	pop	rbp
	jmp	__ZN8CryptoPP13TF_ObjectImplINS_15TF_VerifierBaseENS_25TF_SignatureSchemeOptionsINS_5TF_SSINS_3RSAENS_8PKCS1v15ENS_4SHA1EiEES4_NS_39PKCS1v15_SignatureMessageEncodingMethodES6_EENS_11RSAFunctionEED2Ev 
	.cfi_endproc
                                        
	.globl	__ZN8CryptoPP16PK_FinalTemplateINS_13TF_SignerImplINS_25TF_SignatureSchemeOptionsINS_5TF_SSINS_3RSAENS_8PKCS1v15ENS_4SHA1EiEES4_NS_39PKCS1v15_SignatureMessageEncodingMethodES6_EEEEED1Ev 
	.weak_def_can_be_hidden	__ZN8CryptoPP16PK_FinalTemplateINS_13TF_SignerImplINS_25TF_SignatureSchemeOptionsINS_5TF_SSINS_3RSAENS_8PKCS1v15ENS_4SHA1EiEES4_NS_39PKCS1v15_SignatureMessageEncodingMethodES6_EEEEED1Ev
	.p2align	1, 0x90
__ZN8CryptoPP16PK_FinalTemplateINS_13TF_SignerImplINS_25TF_SignatureSchemeOptionsINS_5TF_SSINS_3RSAENS_8PKCS1v15ENS_4SHA1EiEES4_NS_39PKCS1v15_SignatureMessageEncodingMethodES6_EEEEED1Ev: 
	.cfi_startproc

	push	rbp
	.cfi_def_cfa_offset 16
	.cfi_offset rbp, -16
	mov	rbp, rsp
	.cfi_def_cfa_register rbp
	mov	rax, qword ptr [rip + __ZTVN8CryptoPP13TF_ObjectImplINS_13TF_SignerBaseENS_25TF_SignatureSchemeOptionsINS_5TF_SSINS_3RSAENS_8PKCS1v15ENS_4SHA1EiEES4_NS_39PKCS1v15_SignatureMessageEncodingMethodES6_EENS_21InvertibleRSAFunctionEEE@GOTPCREL]
	lea	rcx, [rax + 16]
	mov	qword ptr [rdi], rcx
	lea	rcx, [rax + 240]
	mov	qword ptr [rdi + 8], rcx
	add	rax, 328
	mov	qword ptr [rdi + 16], rax
	add	rdi, 24
	lea	rsi, [rip + __ZTTN8CryptoPP21InvertibleRSAFunctionE]
	pop	rbp
	jmp	__ZN8CryptoPP21InvertibleRSAFunctionD2Ev 
	.cfi_endproc
                                        
	.globl	__ZN8CryptoPP16RSAPrimeSelectorD1Ev 
	.weak_def_can_be_hidden	__ZN8CryptoPP16RSAPrimeSelectorD1Ev
	.p2align	1, 0x90
__ZN8CryptoPP16RSAPrimeSelectorD1Ev:    
	.cfi_startproc

	push	rbp
	.cfi_def_cfa_offset 16
	.cfi_offset rbp, -16
	mov	rbp, rsp
	.cfi_def_cfa_register rbp
	mov	eax, 16
	mov	rcx, qword ptr [rip + __ZTVN8CryptoPP16RSAPrimeSelectorE@GOTPCREL]
	add	rcx, rax
	mov	qword ptr [rdi], rcx
	mov	rcx, qword ptr [rip + __ZTVN8CryptoPP7IntegerE@GOTPCREL]
	add	rcx, rax
	mov	qword ptr [rdi + 8], rcx
	add	rdi, rax
	pop	rbp
	jmp	__ZN8CryptoPP8SecBlockImNS_20AllocatorWithCleanupImLb1EEEED2Ev 
	.cfi_endproc
                                        
	.globl	__ZThn136_N8CryptoPP21InvertibleRSAFunction14GenerateRandomERNS_21RandomNumberGeneratorERKNS_14NameValuePairsE 
	.p2align	1, 0x90
__ZThn136_N8CryptoPP21InvertibleRSAFunction14GenerateRandomERNS_21RandomNumberGeneratorERKNS_14NameValuePairsE: 
	.cfi_startproc

	push	rbp
	.cfi_def_cfa_offset 16
	.cfi_offset rbp, -16
	mov	rbp, rsp
	.cfi_def_cfa_register rbp
	add	rdi, -136
	pop	rbp
	jmp	__ZN8CryptoPP21InvertibleRSAFunction14GenerateRandomERNS_21RandomNumberGeneratorERKNS_14NameValuePairsE 
	.cfi_endproc
                                        
	.globl	__ZN8CryptoPP21InvertibleRSAFunction10InitializeERNS_21RandomNumberGeneratorEjRKNS_7IntegerE 
	.p2align	1, 0x90
__ZN8CryptoPP21InvertibleRSAFunction10InitializeERNS_21RandomNumberGeneratorEjRKNS_7IntegerE: 
Lfunc_begin8:
	.cfi_startproc
	.cfi_personality 155, ___gxx_personality_v0
	.cfi_lsda 16, Lexception8

	push	rbp
	.cfi_def_cfa_offset 16
	.cfi_offset rbp, -16
	mov	rbp, rsp
	.cfi_def_cfa_register rbp
	push	r15
	push	r14
	push	rbx
	sub	rsp, 136
	.cfi_offset rbx, -40
	.cfi_offset r14, -32
	.cfi_offset r15, -24
	mov	rbx, rcx
	mov	r14, rsi
	mov	r15, rdi
	lea	rax, [rbp - 52]
	mov	dword ptr [rax], edx
	lea	rsi, [rip + L_.str.12]
	lea	rdi, [rbp - 48]
	mov	rdx, rax
	mov	ecx, 1
	call	__ZN8CryptoPP14MakeParametersIiEENS_19AlgorithmParametersEPKcRKT_b
Ltmp283:
	mov	rdi, rbx
	xor	esi, esi
	call	__ZNK8CryptoPP7Integer6GetBitEm
Ltmp284:

	xor	al, 1
	movzx	esi, al
Ltmp285:
	lea	rdi, [rbp - 104]
	call	__ZN8CryptoPP7IntegerC1El
Ltmp286:

Ltmp287:
	lea	rdi, [rbp - 152]
	lea	rdx, [rbp - 104]
	mov	rsi, rbx
	call	__ZNK8CryptoPP7Integer4PlusERKS0_
Ltmp288:

	lea	rdi, [rbp - 48]
	movzx	ecx, byte ptr [rdi + 16]
Ltmp289:
	lea	rsi, [rip + L_.str.11]
	lea	rdx, [rbp - 152]
	call	__ZN8CryptoPP19AlgorithmParametersclINS_7IntegerEEERS0_PKcRKT_b
Ltmp290:

	mov	rcx, qword ptr [r15]
Ltmp291:
	mov	rdi, r15
	mov	rsi, r14
	mov	rdx, rax
	call	qword ptr [rcx + 176]
Ltmp292:

	mov	rbx, qword ptr [rip + __ZTVN8CryptoPP7IntegerE@GOTPCREL]
	add	rbx, 16
	mov	qword ptr [rbp - 152], rbx
	mov	rdx, qword ptr [rbp - 120]
	test	rdx, rdx
	je	LBB35_7

	mov	rax, qword ptr [rbp - 136]
	mov	rcx, qword ptr [rbp - 128]
	cmp	rax, rcx
	cmovb	rcx, rax
	xor	eax, eax
	mov	rdi, rdx
	
	rep		stosq	qword ptr es:[rdi], rax
	
Ltmp296:
	mov	rdi, rdx
	call	__ZN8CryptoPP17AlignedDeallocateEPv
Ltmp297:
LBB35_7:
	mov	qword ptr [rbp - 104], rbx
	mov	rdx, qword ptr [rbp - 72]
	test	rdx, rdx
	je	LBB35_9

	mov	rax, qword ptr [rbp - 88]
	mov	rcx, qword ptr [rbp - 80]
	cmp	rax, rcx
	cmovb	rcx, rax
	xor	eax, eax
	mov	rdi, rdx
	
	rep		stosq	qword ptr es:[rdi], rax
	
Ltmp301:
	mov	rdi, rdx
	call	__ZN8CryptoPP17AlignedDeallocateEPv
Ltmp302:
LBB35_9:
	mov	rax, qword ptr [rip + __ZTVN8CryptoPP19AlgorithmParametersE@GOTPCREL]
	add	rax, 16
	mov	qword ptr [rbp - 48], rax
	mov	rdi, qword ptr [rbp - 40]
	test	rdi, rdi
	je	LBB35_11

	mov	rax, qword ptr [rdi]
	call	qword ptr [rax + 8]
LBB35_11:
	add	rsp, 136
	pop	rbx
	pop	r14
	pop	r15
	pop	rbp
	ret
LBB35_13:
Ltmp298:
	mov	rbx, rax
	jmp	LBB35_16
LBB35_14:
Ltmp293:
	mov	rbx, rax
	mov	rax, qword ptr [rip + __ZTVN8CryptoPP7IntegerE@GOTPCREL]
	add	rax, 16
	mov	qword ptr [rbp - 152], rax
	mov	rdx, qword ptr [rbp - 120]
	test	rdx, rdx
	je	LBB35_16

	mov	rax, qword ptr [rbp - 136]
	mov	rcx, qword ptr [rbp - 128]
	cmp	rax, rcx
	cmovb	rcx, rax
	xor	eax, eax
	mov	rdi, rdx
	
	rep		stosq	qword ptr es:[rdi], rax
	
Ltmp294:
	mov	rdi, rdx
	call	__ZN8CryptoPP17AlignedDeallocateEPv
Ltmp295:
LBB35_16:
	mov	rax, qword ptr [rip + __ZTVN8CryptoPP7IntegerE@GOTPCREL]
	add	rax, 16
	mov	qword ptr [rbp - 104], rax
	mov	rdx, qword ptr [rbp - 72]
	test	rdx, rdx
	je	LBB35_18

	mov	rax, qword ptr [rbp - 88]
	mov	rcx, qword ptr [rbp - 80]
	cmp	rax, rcx
	cmovb	rcx, rax
	xor	eax, eax
	mov	rdi, rdx
	
	rep		stosq	qword ptr es:[rdi], rax
	
Ltmp299:
	mov	rdi, rdx
	call	__ZN8CryptoPP17AlignedDeallocateEPv
Ltmp300:
	jmp	LBB35_18
LBB35_12:
Ltmp303:
	mov	rbx, rax
LBB35_18:
	mov	rax, qword ptr [rip + __ZTVN8CryptoPP19AlgorithmParametersE@GOTPCREL]
	add	rax, 16
	mov	qword ptr [rbp - 48], rax
	mov	rdi, qword ptr [rbp - 40]
	test	rdi, rdi
	je	LBB35_20

	mov	rax, qword ptr [rdi]
Ltmp304:
	call	qword ptr [rax + 8]
Ltmp305:
LBB35_20:
	mov	rdi, rbx
	call	__Unwind_Resume
	ud2
LBB35_21:
Ltmp306:
	mov	rdi, rax
	call	___clang_call_terminate
Lfunc_end8:
	.cfi_endproc
	.section	__TEXT,__gcc_except_tab
	.p2align	2
GCC_except_table35:
Lexception8:
	.byte	255                     
	.byte	155                     
	.uleb128 Lttbase6-Lttbaseref6
Lttbaseref6:
	.byte	1                       
	.uleb128 Lcst_end8-Lcst_begin8
Lcst_begin8:
	.uleb128 Lfunc_begin8-Lfunc_begin8 
	.uleb128 Ltmp283-Lfunc_begin8   
	.byte	0                       
	.byte	0                       
	.uleb128 Ltmp283-Lfunc_begin8   
	.uleb128 Ltmp286-Ltmp283        
	.uleb128 Ltmp303-Lfunc_begin8   
	.byte	0                       
	.uleb128 Ltmp287-Lfunc_begin8   
	.uleb128 Ltmp288-Ltmp287        
	.uleb128 Ltmp298-Lfunc_begin8   
	.byte	0                       
	.uleb128 Ltmp289-Lfunc_begin8   
	.uleb128 Ltmp292-Ltmp289        
	.uleb128 Ltmp293-Lfunc_begin8   
	.byte	0                       
	.uleb128 Ltmp296-Lfunc_begin8   
	.uleb128 Ltmp297-Ltmp296        
	.uleb128 Ltmp298-Lfunc_begin8   
	.byte	0                       
	.uleb128 Ltmp301-Lfunc_begin8   
	.uleb128 Ltmp302-Ltmp301        
	.uleb128 Ltmp303-Lfunc_begin8   
	.byte	0                       
	.uleb128 Ltmp302-Lfunc_begin8   
	.uleb128 Ltmp294-Ltmp302        
	.byte	0                       
	.byte	0                       
	.uleb128 Ltmp294-Lfunc_begin8   
	.uleb128 Ltmp305-Ltmp294        
	.uleb128 Ltmp306-Lfunc_begin8   
	.byte	1                       
	.uleb128 Ltmp305-Lfunc_begin8   
	.uleb128 Lfunc_end8-Ltmp305     
	.byte	0                       
	.byte	0                       
Lcst_end8:
	.byte	1                       
                                        
	.byte	0                       
	.p2align	2
                                        
	.long	0                       
Lttbase6:
	.p2align	2
                                        
	.section	__TEXT,__text,regular,pure_instructions
	.globl	__ZN8CryptoPP14MakeParametersIiEENS_19AlgorithmParametersEPKcRKT_b 
	.weak_def_can_be_hidden	__ZN8CryptoPP14MakeParametersIiEENS_19AlgorithmParametersEPKcRKT_b
__ZN8CryptoPP14MakeParametersIiEENS_19AlgorithmParametersEPKcRKT_b: 
Lfunc_begin9:
	.cfi_startproc
	.cfi_personality 155, ___gxx_personality_v0
	.cfi_lsda 16, Lexception9

	push	rbp
	.cfi_def_cfa_offset 16
	.cfi_offset rbp, -16
	mov	rbp, rsp
	.cfi_def_cfa_register rbp
	push	r15
	push	r14
	push	r12
	push	rbx
	sub	rsp, 32
	.cfi_offset rbx, -48
	.cfi_offset r12, -40
	.cfi_offset r14, -32
	.cfi_offset r15, -24
	mov	ebx, ecx
	mov	r15, rdx
	mov	r12, rsi
	mov	r14, rdi
	lea	rdi, [rbp - 56]
	call	__ZN8CryptoPP19AlgorithmParametersC1Ev
Ltmp307:
	mov	edi, 40
	call	__Znwm
Ltmp308:

	mov	qword ptr [rax + 8], r12
	mov	byte ptr [rax + 16], bl
	mov	byte ptr [rax + 17], 0
	mov	ecx, 16
	add	rcx, qword ptr [rip + __ZTVN8CryptoPP27AlgorithmParametersTemplateIiEE@GOTPCREL]
	mov	qword ptr [rax], rcx
	mov	ecx, dword ptr [r15]
	mov	dword ptr [rax + 32], ecx
	lea	rsi, [rbp - 56]
	mov	rcx, qword ptr [rsi + 8]
	mov	qword ptr [rax + 24], rcx
	mov	qword ptr [rsi + 8], rax
	mov	byte ptr [rsi + 16], bl
Ltmp309:
	mov	rdi, r14
	call	__ZN8CryptoPP19AlgorithmParametersC1ERKS0_
Ltmp310:

	mov	rax, qword ptr [rip + __ZTVN8CryptoPP19AlgorithmParametersE@GOTPCREL]
	add	rax, 16
	mov	qword ptr [rbp - 56], rax
	mov	rdi, qword ptr [rbp - 48]
	test	rdi, rdi
	je	LBB36_4

	mov	rax, qword ptr [rdi]
	call	qword ptr [rax + 8]
LBB36_4:
	mov	rax, r14
	add	rsp, 32
	pop	rbx
	pop	r12
	pop	r14
	pop	r15
	pop	rbp
	ret
LBB36_5:
Ltmp311:
	mov	rbx, rax
	mov	rax, qword ptr [rip + __ZTVN8CryptoPP19AlgorithmParametersE@GOTPCREL]
	add	rax, 16
	mov	qword ptr [rbp - 56], rax
	mov	rdi, qword ptr [rbp - 48]
	test	rdi, rdi
	je	LBB36_7

	mov	rax, qword ptr [rdi]
Ltmp312:
	call	qword ptr [rax + 8]
Ltmp313:
LBB36_7:
	mov	rdi, rbx
	call	__Unwind_Resume
	ud2
LBB36_8:
Ltmp314:
	mov	rdi, rax
	call	___clang_call_terminate
Lfunc_end9:
	.cfi_endproc
	.section	__TEXT,__gcc_except_tab
	.p2align	2
GCC_except_table36:
Lexception9:
	.byte	255                     
	.byte	155                     
	.uleb128 Lttbase7-Lttbaseref7
Lttbaseref7:
	.byte	1                       
	.uleb128 Lcst_end9-Lcst_begin9
Lcst_begin9:
	.uleb128 Lfunc_begin9-Lfunc_begin9 
	.uleb128 Ltmp307-Lfunc_begin9   
	.byte	0                       
	.byte	0                       
	.uleb128 Ltmp307-Lfunc_begin9   
	.uleb128 Ltmp310-Ltmp307        
	.uleb128 Ltmp311-Lfunc_begin9   
	.byte	0                       
	.uleb128 Ltmp310-Lfunc_begin9   
	.uleb128 Ltmp312-Ltmp310        
	.byte	0                       
	.byte	0                       
	.uleb128 Ltmp312-Lfunc_begin9   
	.uleb128 Ltmp313-Ltmp312        
	.uleb128 Ltmp314-Lfunc_begin9   
	.byte	1                       
	.uleb128 Ltmp313-Lfunc_begin9   
	.uleb128 Lfunc_end9-Ltmp313     
	.byte	0                       
	.byte	0                       
Lcst_end9:
	.byte	1                       
                                        
	.byte	0                       
	.p2align	2
                                        
	.long	0                       
Lttbase7:
	.p2align	2
                                        
	.section	__TEXT,__text,regular,pure_instructions
	.globl	__ZN8CryptoPP21InvertibleRSAFunction10InitializeERKNS_7IntegerES3_S3_ 
	.p2align	1, 0x90
__ZN8CryptoPP21InvertibleRSAFunction10InitializeERKNS_7IntegerES3_S3_: 
Lfunc_begin10:
	.cfi_startproc
	.cfi_personality 155, ___gxx_personality_v0
	.cfi_lsda 16, Lexception10

	push	rbp
	.cfi_def_cfa_offset 16
	.cfi_offset rbp, -16
	mov	rbp, rsp
	.cfi_def_cfa_register rbp
	push	r15
	push	r14
	push	r13
	push	r12
	push	rbx
	sub	rsp, 568
	.cfi_offset rbx, -56
	.cfi_offset r12, -48
	.cfi_offset r13, -40
	.cfi_offset r14, -32
	.cfi_offset r15, -24
	mov	r12, rcx
	mov	r15, rdx
	mov	r14, rdi
	mov	qword ptr [rbp - 144], rsi 
	mov	rdi, rsi
	xor	esi, esi
	call	__ZNK8CryptoPP7Integer6GetBitEm
	test	al, al
	je	LBB37_98

	mov	rdi, r15
	xor	esi, esi
	call	__ZNK8CryptoPP7Integer6GetBitEm
	mov	ebx, eax
	mov	rdi, r12
	xor	esi, esi
	call	__ZNK8CryptoPP7Integer6GetBitEm
	test	bl, bl
	je	LBB37_98

	test	al, al
	je	LBB37_98

	lea	rdi, [r14 + 24]
	mov	rsi, qword ptr [rbp - 144] 
	call	__ZN8CryptoPP7IntegeraSERKS0_
	lea	rdi, [r14 + 72]
	mov	rsi, r15
	call	__ZN8CryptoPP7IntegeraSERKS0_
	lea	rdi, [r14 + 224]
	mov	qword ptr [rbp - 216], rdi 
	mov	rsi, r12
	call	__ZN8CryptoPP7IntegeraSERKS0_
	lea	rbx, [rbp - 608]
	mov	rdi, rbx
	mov	rsi, r12
	mov	rdx, r15
	call	__ZNK8CryptoPP7Integer5TimesERKS0_
Ltmp323:
	mov	rdi, rbx
	call	__ZN8CryptoPP7IntegermmEv
Ltmp324:

Ltmp325:
	lea	rdi, [rbp - 440]
	mov	rsi, rax
	call	__ZN8CryptoPP7IntegerC1ERKS0_
Ltmp326:

	mov	r15, qword ptr [rip + __ZTVN8CryptoPP7IntegerE@GOTPCREL]
	add	r15, 16
	mov	qword ptr [rbp - 608], r15
	mov	rdx, qword ptr [rbp - 576]
	test	rdx, rdx
	je	LBB37_7

	mov	rax, qword ptr [rbp - 592]
	mov	rcx, qword ptr [rbp - 584]
	cmp	rax, rcx
	cmovb	rcx, rax
	xor	eax, eax
	mov	rdi, rdx
	
	rep		stosq	qword ptr es:[rdi], rax
	
	mov	rdi, rdx
	call	__ZN8CryptoPP17AlignedDeallocateEPv
LBB37_7:
	xor	ebx, ebx
	lea	r12, [rbp - 440]
LBB37_8:                                
Ltmp330:
	mov	rdi, r12
	xor	esi, esi
	call	__ZNK8CryptoPP7Integer6GetBitEm
Ltmp331:

	test	al, al
	jne	LBB37_12

Ltmp332:
	mov	esi, 1
	mov	rdi, r12
	call	__ZN8CryptoPP7IntegerrSEm
Ltmp333:

	inc	ebx
	jmp	LBB37_8
LBB37_12:
Ltmp335:
	lea	rdi, [rbp - 608]
	mov	rsi, qword ptr [rbp - 144] 
	call	__ZN8CryptoPP17ModularArithmeticC2ERKNS_7IntegerE
Ltmp336:

Ltmp337:
	mov	qword ptr [rbp - 344], rbx 
	lea	rdi, [rbp - 392]
	mov	esi, 2
	call	__ZN8CryptoPP7IntegerC1El
Ltmp338:

	lea	rax, [r14 + 272]
	mov	qword ptr [rbp - 152], rax 
	lea	rax, [r14 + 320]
	mov	qword ptr [rbp - 208], rax 
	lea	rax, [r14 + 368]
	mov	qword ptr [rbp - 336], rax 
	lea	rax, [r14 + 416]
	mov	qword ptr [rbp - 328], rax 
	lea	rax, [r14 + 464]
	mov	qword ptr [rbp - 320], rax 
	lea	rbx, [rbp - 392]
	lea	r12, [rbp - 264]
	lea	r14, [rbp - 88]
LBB37_15:                               
                                        
Ltmp339:
	lea	rdi, [rbp - 312]
	lea	rsi, [rbp - 608]
	mov	rdx, rbx
	lea	rcx, [rbp - 440]
	call	__ZNK8CryptoPP12AbstractRingINS_7IntegerEE12ExponentiateERKS1_S4_
Ltmp340:

Ltmp341:
	mov	esi, 1
	mov	rdi, r12
	call	__ZN8CryptoPP7IntegerC1El
Ltmp342:

Ltmp343:
	lea	rdi, [rbp - 312]
	mov	rsi, r12
	call	__ZNK8CryptoPP7Integer7CompareERKS0_
Ltmp344:

	mov	ebx, eax
	mov	qword ptr [rbp - 264], r15
	mov	rdx, qword ptr [rbp - 232]
	test	rdx, rdx
	je	LBB37_20

	mov	rax, qword ptr [rbp - 248]
	mov	rcx, qword ptr [rbp - 240]
	cmp	rax, rcx
	cmovb	rcx, rax
	xor	eax, eax
	mov	rdi, rdx
	
	rep		stosq	qword ptr es:[rdi], rax
	
Ltmp348:
	mov	rdi, rdx
	call	__ZN8CryptoPP17AlignedDeallocateEPv
Ltmp349:
LBB37_20:                               
	test	ebx, ebx
	je	LBB37_40

Ltmp351:
	mov	rdi, r12
	call	__ZN8CryptoPP7IntegerC1Ev
Ltmp352:

	mov	rax, qword ptr [rbp - 344] 
	mov	r13d, eax
LBB37_23:                               
                                        
Ltmp353:
	mov	esi, 1
	lea	rdi, [rbp - 136]
	call	__ZN8CryptoPP7IntegerC1El
Ltmp354:

Ltmp355:
	mov	rdi, r14
	mov	rsi, qword ptr [rbp - 144] 
	lea	rdx, [rbp - 136]
	call	__ZNK8CryptoPP7Integer5MinusERKS0_
Ltmp356:

Ltmp357:
	lea	rdi, [rbp - 312]
	mov	rsi, r14
	call	__ZNK8CryptoPP7Integer7CompareERKS0_
Ltmp358:

	mov	ebx, eax
	mov	qword ptr [rbp - 88], r15
	mov	rdx, qword ptr [rbp - 56]
	test	rdx, rdx
	je	LBB37_28

	mov	rax, qword ptr [rbp - 72]
	mov	rcx, qword ptr [rbp - 64]
	cmp	rax, rcx
	cmovb	rcx, rax
	xor	eax, eax
	mov	rdi, rdx
	
	rep		stosq	qword ptr es:[rdi], rax
	
Ltmp362:
	mov	rdi, rdx
	call	__ZN8CryptoPP17AlignedDeallocateEPv
Ltmp363:
LBB37_28:                               
	mov	qword ptr [rbp - 136], r15
	mov	rdx, qword ptr [rbp - 104]
	test	rdx, rdx
	je	LBB37_30

	mov	rax, qword ptr [rbp - 120]
	mov	rcx, qword ptr [rbp - 112]
	cmp	rax, rcx
	cmovb	rcx, rax
	xor	eax, eax
	mov	rdi, rdx
	
	rep		stosq	qword ptr es:[rdi], rax
	
Ltmp367:
	mov	rdi, rdx
	call	__ZN8CryptoPP17AlignedDeallocateEPv
Ltmp368:
LBB37_30:                               
	test	ebx, ebx
	je	LBB37_41

Ltmp370:
	lea	rdi, [rbp - 608]
	lea	rsi, [rbp - 312]
	call	__ZNK8CryptoPP17ModularArithmetic6SquareERKNS_7IntegerE
Ltmp371:

Ltmp372:
	mov	rdi, r12
	mov	rsi, rax
	call	__ZN8CryptoPP7IntegeraSERKS0_
Ltmp373:

Ltmp374:
	mov	esi, 1
	mov	rdi, r14
	call	__ZN8CryptoPP7IntegerC1El
Ltmp375:

Ltmp376:
	mov	rdi, r12
	mov	rsi, r14
	call	__ZNK8CryptoPP7Integer7CompareERKS0_
Ltmp377:

	mov	ebx, eax
	mov	qword ptr [rbp - 88], r15
	mov	rdx, qword ptr [rbp - 56]
	test	rdx, rdx
	je	LBB37_37

	mov	rax, qword ptr [rbp - 72]
	mov	rcx, qword ptr [rbp - 64]
	cmp	rax, rcx
	cmovb	rcx, rax
	xor	eax, eax
	mov	rdi, rdx
	
	rep		stosq	qword ptr es:[rdi], rax
	
Ltmp381:
	mov	rdi, rdx
	call	__ZN8CryptoPP17AlignedDeallocateEPv
Ltmp382:
LBB37_37:                               
	test	ebx, ebx
	je	LBB37_42

	dec	r13d
	je	LBB37_94

Ltmp384:
	lea	rdi, [rbp - 312]
	mov	rsi, r12
	call	__ZN8CryptoPP7IntegeraSERKS0_
Ltmp385:
	jmp	LBB37_23
LBB37_40:                               
	mov	ebx, 6
	jmp	LBB37_83
LBB37_41:                               
	xor	ebx, ebx
	jmp	LBB37_81
LBB37_42:                               
Ltmp395:
	mov	esi, 1
	lea	rbx, [rbp - 200]
	mov	rdi, rbx
	call	__ZN8CryptoPP7IntegerC1El
Ltmp396:

Ltmp397:
	lea	rdi, [rbp - 136]
	lea	rsi, [rbp - 312]
	mov	rdx, rbx
	call	__ZNK8CryptoPP7Integer5MinusERKS0_
Ltmp398:

Ltmp399:
	mov	rdi, r14
	lea	rsi, [rbp - 136]
	mov	rdx, qword ptr [rbp - 144] 
	call	__ZN8CryptoPP7Integer3GcdERKS0_S2_
Ltmp400:

Ltmp401:
	mov	rdi, qword ptr [rbp - 152] 
	mov	rsi, r14
	call	__ZN8CryptoPP7IntegeraSERKS0_
Ltmp402:

	mov	qword ptr [rbp - 88], r15
	mov	rdx, qword ptr [rbp - 56]
	test	rdx, rdx
	je	LBB37_48

	mov	rax, qword ptr [rbp - 72]
	mov	rcx, qword ptr [rbp - 64]
	cmp	rax, rcx
	cmovb	rcx, rax
	xor	eax, eax
	mov	rdi, rdx
	
	rep		stosq	qword ptr es:[rdi], rax
	
Ltmp406:
	mov	rdi, rdx
	call	__ZN8CryptoPP17AlignedDeallocateEPv
Ltmp407:
LBB37_48:                               
	mov	qword ptr [rbp - 136], r15
	mov	rdx, qword ptr [rbp - 104]
	test	rdx, rdx
	je	LBB37_50

	mov	rax, qword ptr [rbp - 120]
	mov	rcx, qword ptr [rbp - 112]
	cmp	rax, rcx
	cmovb	rcx, rax
	xor	eax, eax
	mov	rdi, rdx
	
	rep		stosq	qword ptr es:[rdi], rax
	
Ltmp411:
	mov	rdi, rdx
	call	__ZN8CryptoPP17AlignedDeallocateEPv
Ltmp412:
LBB37_50:                               
	mov	qword ptr [rbp - 200], r15
	mov	rdx, qword ptr [rbp - 168]
	test	rdx, rdx
	je	LBB37_52

	mov	rax, qword ptr [rbp - 184]
	mov	rcx, qword ptr [rbp - 176]
	cmp	rax, rcx
	cmovb	rcx, rax
	xor	eax, eax
	mov	rdi, rdx
	
	rep		stosq	qword ptr es:[rdi], rax
	
Ltmp416:
	mov	rdi, rdx
	call	__ZN8CryptoPP17AlignedDeallocateEPv
Ltmp417:
LBB37_52:                               
Ltmp419:
	mov	rdi, r14
	mov	rsi, qword ptr [rbp - 144] 
	mov	rdx, qword ptr [rbp - 152] 
	call	__ZNK8CryptoPP7Integer9DividedByERKS0_
Ltmp420:

Ltmp421:
	mov	rdi, qword ptr [rbp - 208] 
	mov	rsi, r14
	call	__ZN8CryptoPP7IntegeraSERKS0_
Ltmp422:

	mov	qword ptr [rbp - 88], r15
	mov	rdx, qword ptr [rbp - 56]
	test	rdx, rdx
	je	LBB37_56

	mov	rax, qword ptr [rbp - 72]
	mov	rcx, qword ptr [rbp - 64]
	cmp	rax, rcx
	cmovb	rcx, rax
	xor	eax, eax
	mov	rdi, rdx
	
	rep		stosq	qword ptr es:[rdi], rax
	
Ltmp426:
	mov	rdi, rdx
	call	__ZN8CryptoPP17AlignedDeallocateEPv
Ltmp427:
LBB37_56:                               
Ltmp429:
	mov	esi, 1
	mov	rdi, rbx
	call	__ZN8CryptoPP7IntegerC1El
Ltmp430:

Ltmp431:
	lea	rdi, [rbp - 136]
	mov	rsi, qword ptr [rbp - 152] 
	mov	rdx, rbx
	call	__ZNK8CryptoPP7Integer5MinusERKS0_
Ltmp432:

Ltmp433:
	mov	rdi, r14
	mov	rsi, qword ptr [rbp - 216] 
	lea	rdx, [rbp - 136]
	call	__ZNK8CryptoPP7Integer6ModuloERKS0_
Ltmp434:

Ltmp435:
	mov	rdi, qword ptr [rbp - 336] 
	mov	rsi, r14
	call	__ZN8CryptoPP7IntegeraSERKS0_
Ltmp436:

	mov	qword ptr [rbp - 88], r15
	mov	rdx, qword ptr [rbp - 56]
	test	rdx, rdx
	je	LBB37_62

	mov	rax, qword ptr [rbp - 72]
	mov	rcx, qword ptr [rbp - 64]
	cmp	rax, rcx
	cmovb	rcx, rax
	xor	eax, eax
	mov	rdi, rdx
	
	rep		stosq	qword ptr es:[rdi], rax
	
Ltmp440:
	mov	rdi, rdx
	call	__ZN8CryptoPP17AlignedDeallocateEPv
Ltmp441:
LBB37_62:                               
	mov	qword ptr [rbp - 136], r15
	mov	rdx, qword ptr [rbp - 104]
	test	rdx, rdx
	je	LBB37_64

	mov	rax, qword ptr [rbp - 120]
	mov	rcx, qword ptr [rbp - 112]
	cmp	rax, rcx
	cmovb	rcx, rax
	xor	eax, eax
	mov	rdi, rdx
	
	rep		stosq	qword ptr es:[rdi], rax
	
Ltmp445:
	mov	rdi, rdx
	call	__ZN8CryptoPP17AlignedDeallocateEPv
Ltmp446:
LBB37_64:                               
	mov	qword ptr [rbp - 200], r15
	mov	rdx, qword ptr [rbp - 168]
	test	rdx, rdx
	je	LBB37_66

	mov	rax, qword ptr [rbp - 184]
	mov	rcx, qword ptr [rbp - 176]
	cmp	rax, rcx
	cmovb	rcx, rax
	xor	eax, eax
	mov	rdi, rdx
	
	rep		stosq	qword ptr es:[rdi], rax
	
Ltmp450:
	mov	rdi, rdx
	call	__ZN8CryptoPP17AlignedDeallocateEPv
Ltmp451:
LBB37_66:                               
Ltmp453:
	mov	esi, 1
	mov	rdi, rbx
	call	__ZN8CryptoPP7IntegerC1El
Ltmp454:

Ltmp455:
	lea	rdi, [rbp - 136]
	mov	rsi, qword ptr [rbp - 208] 
	mov	rdx, rbx
	call	__ZNK8CryptoPP7Integer5MinusERKS0_
Ltmp456:

Ltmp457:
	mov	rdi, r14
	mov	rsi, qword ptr [rbp - 216] 
	lea	rdx, [rbp - 136]
	call	__ZNK8CryptoPP7Integer6ModuloERKS0_
Ltmp458:

Ltmp459:
	mov	rdi, qword ptr [rbp - 328] 
	mov	rsi, r14
	call	__ZN8CryptoPP7IntegeraSERKS0_
Ltmp460:

	mov	qword ptr [rbp - 88], r15
	mov	rdx, qword ptr [rbp - 56]
	test	rdx, rdx
	je	LBB37_72

	mov	rax, qword ptr [rbp - 72]
	mov	rcx, qword ptr [rbp - 64]
	cmp	rax, rcx
	cmovb	rcx, rax
	xor	eax, eax
	mov	rdi, rdx
	
	rep		stosq	qword ptr es:[rdi], rax
	
Ltmp464:
	mov	rdi, rdx
	call	__ZN8CryptoPP17AlignedDeallocateEPv
Ltmp465:
LBB37_72:                               
	mov	qword ptr [rbp - 136], r15
	mov	rdx, qword ptr [rbp - 104]
	test	rdx, rdx
	je	LBB37_74

	mov	rax, qword ptr [rbp - 120]
	mov	rcx, qword ptr [rbp - 112]
	cmp	rax, rcx
	cmovb	rcx, rax
	xor	eax, eax
	mov	rdi, rdx
	
	rep		stosq	qword ptr es:[rdi], rax
	
Ltmp469:
	mov	rdi, rdx
	call	__ZN8CryptoPP17AlignedDeallocateEPv
Ltmp470:
LBB37_74:                               
	mov	qword ptr [rbp - 200], r15
	mov	rdx, qword ptr [rbp - 168]
	test	rdx, rdx
	je	LBB37_76

	mov	rax, qword ptr [rbp - 184]
	mov	rcx, qword ptr [rbp - 176]
	cmp	rax, rcx
	cmovb	rcx, rax
	xor	eax, eax
	mov	rdi, rdx
	
	rep		stosq	qword ptr es:[rdi], rax
	
Ltmp474:
	mov	rdi, rdx
	call	__ZN8CryptoPP17AlignedDeallocateEPv
Ltmp475:
LBB37_76:                               
Ltmp477:
	mov	rdi, r14
	mov	rsi, qword ptr [rbp - 208] 
	mov	rdx, qword ptr [rbp - 152] 
	call	__ZNK8CryptoPP7Integer10InverseModERKS0_
Ltmp478:

Ltmp479:
	mov	rdi, qword ptr [rbp - 320] 
	mov	rsi, r14
	call	__ZN8CryptoPP7IntegeraSERKS0_
Ltmp480:

	mov	qword ptr [rbp - 88], r15
	mov	rdx, qword ptr [rbp - 56]
	test	rdx, rdx
	je	LBB37_80

	mov	rax, qword ptr [rbp - 72]
	mov	rcx, qword ptr [rbp - 64]
	cmp	rax, rcx
	cmovb	rcx, rax
	xor	eax, eax
	mov	rdi, rdx
	
	rep		stosq	qword ptr es:[rdi], rax
	
Ltmp484:
	mov	rdi, rdx
	call	__ZN8CryptoPP17AlignedDeallocateEPv
Ltmp485:
LBB37_80:                               
	mov	ebx, 1
LBB37_81:                               
	mov	qword ptr [rbp - 264], r15
	mov	rdx, qword ptr [rbp - 232]
	test	rdx, rdx
	je	LBB37_83

	mov	rax, qword ptr [rbp - 248]
	mov	rcx, qword ptr [rbp - 240]
	cmp	rax, rcx
	cmovb	rcx, rax
	xor	eax, eax
	mov	rdi, rdx
	
	rep		stosq	qword ptr es:[rdi], rax
	
Ltmp489:
	mov	rdi, rdx
	call	__ZN8CryptoPP17AlignedDeallocateEPv
Ltmp490:
LBB37_83:                               
	mov	qword ptr [rbp - 312], r15
	mov	rdx, qword ptr [rbp - 280]
	test	rdx, rdx
	je	LBB37_85

	mov	rax, qword ptr [rbp - 296]
	mov	rcx, qword ptr [rbp - 288]
	cmp	rax, rcx
	cmovb	rcx, rax
	xor	eax, eax
	mov	rdi, rdx
	
	rep		stosq	qword ptr es:[rdi], rax
	
Ltmp494:
	mov	rdi, rdx
	call	__ZN8CryptoPP17AlignedDeallocateEPv
Ltmp495:
LBB37_85:                               
	cmp	ebx, 6
	je	LBB37_87

	test	ebx, ebx
	jne	LBB37_88
LBB37_87:                               
Ltmp497:
	lea	rbx, [rbp - 392]
	mov	rdi, rbx
	call	__ZN8CryptoPP7IntegerppEv
Ltmp498:
	jmp	LBB37_15
LBB37_88:
	mov	qword ptr [rbp - 392], r15
	mov	rdx, qword ptr [rbp - 360]
	test	rdx, rdx
	je	LBB37_90

	mov	rax, qword ptr [rbp - 376]
	mov	rcx, qword ptr [rbp - 368]
	cmp	rax, rcx
	cmovb	rcx, rax
	xor	eax, eax
	mov	rdi, rdx
	
	rep		stosq	qword ptr es:[rdi], rax
	
Ltmp502:
	mov	rdi, rdx
	call	__ZN8CryptoPP17AlignedDeallocateEPv
Ltmp503:
LBB37_90:
Ltmp507:
	lea	rdi, [rbp - 608]
	call	__ZN8CryptoPP17ModularArithmeticD2Ev
Ltmp508:

	mov	qword ptr [rbp - 440], r15
	mov	rdx, qword ptr [rbp - 408]
	test	rdx, rdx
	je	LBB37_93

	mov	rax, qword ptr [rbp - 424]
	mov	rcx, qword ptr [rbp - 416]
	cmp	rax, rcx
	cmovb	rcx, rax
	xor	eax, eax
	mov	rdi, rdx
	
	rep		stosq	qword ptr es:[rdi], rax
	
	mov	rdi, rdx
	call	__ZN8CryptoPP17AlignedDeallocateEPv
LBB37_93:
	add	rsp, 568
	pop	rbx
	pop	r12
	pop	r13
	pop	r14
	pop	r15
	pop	rbp
	ret
LBB37_94:
	mov	edi, 40
	call	___cxa_allocate_exception
	mov	r14, rax
Ltmp387:
	lea	rsi, [rip + L_.str.2]
	lea	rdi, [rbp - 88]
	call	__ZNSt3__112basic_stringIcNS_11char_traitsIcEENS_9allocatorIcEEEC1INS_9nullptr_tEEEPKc
Ltmp388:

	mov	r12b, 1
Ltmp390:
	lea	rdx, [rbp - 88]
	mov	rdi, r14
	mov	esi, 1
	call	__ZN8CryptoPP9ExceptionC2ENS0_9ErrorTypeERKNSt3__112basic_stringIcNS2_11char_traitsIcEENS2_9allocatorIcEEEE
Ltmp391:

	mov	rax, qword ptr [rip + __ZTVN8CryptoPP15InvalidArgumentE@GOTPCREL]
	add	rax, 16
	mov	qword ptr [r14], rax
	xor	r12d, r12d
Ltmp392:
	mov	rsi, qword ptr [rip + __ZTIN8CryptoPP15InvalidArgumentE@GOTPCREL]
	mov	rdx, qword ptr [rip + __ZN8CryptoPP15InvalidArgumentD1Ev@GOTPCREL]
	mov	rdi, r14
	call	___cxa_throw
Ltmp393:
LBB37_97:
	ud2
LBB37_98:
	mov	edi, 40
	call	___cxa_allocate_exception
	mov	r14, rax
Ltmp315:
	lea	rsi, [rip + L_.str.2]
	lea	rdi, [rbp - 608]
	call	__ZNSt3__112basic_stringIcNS_11char_traitsIcEENS_9allocatorIcEEEC1INS_9nullptr_tEEEPKc
Ltmp316:

	mov	r15b, 1
Ltmp318:
	lea	rdx, [rbp - 608]
	mov	rdi, r14
	mov	esi, 1
	call	__ZN8CryptoPP9ExceptionC2ENS0_9ErrorTypeERKNSt3__112basic_stringIcNS2_11char_traitsIcEENS2_9allocatorIcEEEE
Ltmp319:

	mov	rax, qword ptr [rip + __ZTVN8CryptoPP15InvalidArgumentE@GOTPCREL]
	add	rax, 16
	mov	qword ptr [r14], rax
	xor	r15d, r15d
Ltmp320:
	mov	rsi, qword ptr [rip + __ZTIN8CryptoPP15InvalidArgumentE@GOTPCREL]
	mov	rdx, qword ptr [rip + __ZN8CryptoPP15InvalidArgumentD1Ev@GOTPCREL]
	mov	rdi, r14
	call	___cxa_throw
Ltmp321:
	jmp	LBB37_97
LBB37_101:
Ltmp317:
	mov	rbx, rax
	jmp	LBB37_105
LBB37_102:
Ltmp322:
	mov	rbx, rax
	test	byte ptr [rbp - 608], 1
	je	LBB37_104

	mov	rdi, qword ptr [rbp - 592]
	call	__ZdlPv
LBB37_104:
	test	r15b, r15b
	je	LBB37_178
LBB37_105:
	mov	rdi, r14
	call	___cxa_free_exception
	jmp	LBB37_178
LBB37_106:
Ltmp389:
	mov	rbx, rax
	jmp	LBB37_110
LBB37_107:
Ltmp394:
	mov	rbx, rax
	test	byte ptr [rbp - 88], 1
	je	LBB37_109

	mov	rdi, qword ptr [rbp - 72]
	call	__ZdlPv
LBB37_109:
	test	r12b, r12b
	je	LBB37_169
LBB37_110:
	mov	rdi, r14
	call	___cxa_free_exception
	jmp	LBB37_169
LBB37_111:
Ltmp504:
	mov	rbx, rax
	jmp	LBB37_175
LBB37_112:
Ltmp509:
	jmp	LBB37_157
LBB37_113:
Ltmp327:
	mov	rbx, rax
	mov	rax, qword ptr [rip + __ZTVN8CryptoPP7IntegerE@GOTPCREL]
	add	rax, 16
	mov	qword ptr [rbp - 608], rax
	mov	rdx, qword ptr [rbp - 576]
	test	rdx, rdx
	je	LBB37_178

	mov	rax, qword ptr [rbp - 592]
	mov	rcx, qword ptr [rbp - 584]
	cmp	rax, rcx
	cmovb	rcx, rax
	xor	eax, eax
	mov	rdi, rdx
	
	rep		stosq	qword ptr es:[rdi], rax
	
Ltmp328:
	mov	rdi, rdx
	call	__ZN8CryptoPP17AlignedDeallocateEPv
Ltmp329:
	jmp	LBB37_178
LBB37_115:
Ltmp481:
	mov	rbx, rax
	mov	qword ptr [rbp - 88], r15
	mov	rdx, qword ptr [rbp - 56]
	test	rdx, rdx
	je	LBB37_169

	mov	rax, qword ptr [rbp - 72]
	mov	rcx, qword ptr [rbp - 64]
	cmp	rax, rcx
	cmovb	rcx, rax
	xor	eax, eax
	mov	rdi, rdx
	
	rep		stosq	qword ptr es:[rdi], rax
	
Ltmp482:
	mov	rdi, rdx
	call	__ZN8CryptoPP17AlignedDeallocateEPv
Ltmp483:
	jmp	LBB37_169
LBB37_117:
Ltmp461:
	mov	rbx, rax
	mov	qword ptr [rbp - 88], r15
	mov	rdx, qword ptr [rbp - 56]
	test	rdx, rdx
	je	LBB37_143

	mov	rax, qword ptr [rbp - 72]
	mov	rcx, qword ptr [rbp - 64]
	cmp	rax, rcx
	cmovb	rcx, rax
	xor	eax, eax
	mov	rdi, rdx
	
	rep		stosq	qword ptr es:[rdi], rax
	
Ltmp462:
	mov	rdi, rdx
	call	__ZN8CryptoPP17AlignedDeallocateEPv
Ltmp463:
	jmp	LBB37_143
LBB37_119:
Ltmp437:
	mov	rbx, rax
	mov	qword ptr [rbp - 88], r15
	mov	rdx, qword ptr [rbp - 56]
	test	rdx, rdx
	je	LBB37_134

	mov	rax, qword ptr [rbp - 72]
	mov	rcx, qword ptr [rbp - 64]
	cmp	rax, rcx
	cmovb	rcx, rax
	xor	eax, eax
	mov	rdi, rdx
	
	rep		stosq	qword ptr es:[rdi], rax
	
Ltmp438:
	mov	rdi, rdx
	call	__ZN8CryptoPP17AlignedDeallocateEPv
Ltmp439:
	jmp	LBB37_134
LBB37_121:
Ltmp423:
	mov	rbx, rax
	mov	qword ptr [rbp - 88], r15
	mov	rdx, qword ptr [rbp - 56]
	test	rdx, rdx
	je	LBB37_169

	mov	rax, qword ptr [rbp - 72]
	mov	rcx, qword ptr [rbp - 64]
	cmp	rax, rcx
	cmovb	rcx, rax
	xor	eax, eax
	mov	rdi, rdx
	
	rep		stosq	qword ptr es:[rdi], rax
	
Ltmp424:
	mov	rdi, rdx
	call	__ZN8CryptoPP17AlignedDeallocateEPv
Ltmp425:
	jmp	LBB37_169
LBB37_123:
Ltmp403:
	mov	rbx, rax
	mov	qword ptr [rbp - 88], r15
	mov	rdx, qword ptr [rbp - 56]
	test	rdx, rdx
	je	LBB37_128

	mov	rax, qword ptr [rbp - 72]
	mov	rcx, qword ptr [rbp - 64]
	cmp	rax, rcx
	cmovb	rcx, rax
	xor	eax, eax
	mov	rdi, rdx
	
	rep		stosq	qword ptr es:[rdi], rax
	
Ltmp404:
	mov	rdi, rdx
	call	__ZN8CryptoPP17AlignedDeallocateEPv
Ltmp405:
	jmp	LBB37_128
LBB37_125:
Ltmp486:
	jmp	LBB37_168
LBB37_126:
Ltmp447:
	mov	rbx, rax
	jmp	LBB37_136
LBB37_127:
Ltmp408:
	mov	rbx, rax
LBB37_128:
	mov	qword ptr [rbp - 136], r15
	mov	rdx, qword ptr [rbp - 104]
	test	rdx, rdx
	je	LBB37_140

	mov	rax, qword ptr [rbp - 120]
	mov	rcx, qword ptr [rbp - 112]
	cmp	rax, rcx
	cmovb	rcx, rax
	xor	eax, eax
	mov	rdi, rdx
	
	rep		stosq	qword ptr es:[rdi], rax
	
Ltmp409:
	mov	rdi, rdx
	call	__ZN8CryptoPP17AlignedDeallocateEPv
Ltmp410:
	jmp	LBB37_140
LBB37_130:
Ltmp418:
	jmp	LBB37_168
LBB37_131:
Ltmp471:
	mov	rbx, rax
	jmp	LBB37_145
LBB37_132:
Ltmp428:
	jmp	LBB37_168
LBB37_133:
Ltmp442:
	mov	rbx, rax
LBB37_134:
	mov	qword ptr [rbp - 136], r15
	mov	rdx, qword ptr [rbp - 104]
	test	rdx, rdx
	je	LBB37_136

	mov	rax, qword ptr [rbp - 120]
	mov	rcx, qword ptr [rbp - 112]
	cmp	rax, rcx
	cmovb	rcx, rax
	xor	eax, eax
	mov	rdi, rdx
	
	rep		stosq	qword ptr es:[rdi], rax
	
Ltmp443:
	mov	rdi, rdx
	call	__ZN8CryptoPP17AlignedDeallocateEPv
Ltmp444:
LBB37_136:
	mov	qword ptr [rbp - 200], r15
	mov	rdx, qword ptr [rbp - 168]
	test	rdx, rdx
	je	LBB37_169

	mov	rax, qword ptr [rbp - 184]
	mov	rcx, qword ptr [rbp - 176]
	cmp	rax, rcx
	cmovb	rcx, rax
	xor	eax, eax
	mov	rdi, rdx
	
	rep		stosq	qword ptr es:[rdi], rax
	
Ltmp448:
	mov	rdi, rdx
	call	__ZN8CryptoPP17AlignedDeallocateEPv
Ltmp449:
	jmp	LBB37_169
LBB37_138:
Ltmp452:
	jmp	LBB37_168
LBB37_139:
Ltmp413:
	mov	rbx, rax
LBB37_140:
	mov	qword ptr [rbp - 200], r15
	mov	rdx, qword ptr [rbp - 168]
	test	rdx, rdx
	je	LBB37_169

	mov	rax, qword ptr [rbp - 184]
	mov	rcx, qword ptr [rbp - 176]
	cmp	rax, rcx
	cmovb	rcx, rax
	xor	eax, eax
	mov	rdi, rdx
	
	rep		stosq	qword ptr es:[rdi], rax
	
Ltmp414:
	mov	rdi, rdx
	call	__ZN8CryptoPP17AlignedDeallocateEPv
Ltmp415:
	jmp	LBB37_169
LBB37_142:
Ltmp466:
	mov	rbx, rax
LBB37_143:
	mov	qword ptr [rbp - 136], r15
	mov	rdx, qword ptr [rbp - 104]
	test	rdx, rdx
	je	LBB37_145

	mov	rax, qword ptr [rbp - 120]
	mov	rcx, qword ptr [rbp - 112]
	cmp	rax, rcx
	cmovb	rcx, rax
	xor	eax, eax
	mov	rdi, rdx
	
	rep		stosq	qword ptr es:[rdi], rax
	
Ltmp467:
	mov	rdi, rdx
	call	__ZN8CryptoPP17AlignedDeallocateEPv
Ltmp468:
LBB37_145:
	mov	qword ptr [rbp - 200], r15
	mov	rdx, qword ptr [rbp - 168]
	test	rdx, rdx
	je	LBB37_169

	mov	rax, qword ptr [rbp - 184]
	mov	rcx, qword ptr [rbp - 176]
	cmp	rax, rcx
	cmovb	rcx, rax
	xor	eax, eax
	mov	rdi, rdx
	
	rep		stosq	qword ptr es:[rdi], rax
	
Ltmp472:
	mov	rdi, rdx
	call	__ZN8CryptoPP17AlignedDeallocateEPv
Ltmp473:
	jmp	LBB37_169
LBB37_147:
Ltmp476:
	jmp	LBB37_168
LBB37_148:
Ltmp499:
	jmp	LBB37_153
LBB37_149:
Ltmp345:
	mov	rbx, rax
	mov	qword ptr [rbp - 264], r15
	mov	rdx, qword ptr [rbp - 232]
	test	rdx, rdx
	je	LBB37_171

	mov	rax, qword ptr [rbp - 248]
	mov	rcx, qword ptr [rbp - 240]
	cmp	rax, rcx
	cmovb	rcx, rax
	xor	eax, eax
	mov	rdi, rdx
	
	rep		stosq	qword ptr es:[rdi], rax
	
Ltmp346:
	mov	rdi, rdx
	call	__ZN8CryptoPP17AlignedDeallocateEPv
Ltmp347:
	jmp	LBB37_171
LBB37_151:
Ltmp491:
	jmp	LBB37_155
LBB37_152:
Ltmp496:
LBB37_153:
	mov	rbx, rax
	jmp	LBB37_173
LBB37_154:
Ltmp350:
LBB37_155:
	mov	rbx, rax
	jmp	LBB37_171
LBB37_156:
Ltmp334:
LBB37_157:
	mov	rbx, rax
	jmp	LBB37_176
LBB37_158:
Ltmp378:
	mov	rbx, rax
	mov	qword ptr [rbp - 88], r15
	mov	rdx, qword ptr [rbp - 56]
	test	rdx, rdx
	je	LBB37_169

	mov	rax, qword ptr [rbp - 72]
	mov	rcx, qword ptr [rbp - 64]
	cmp	rax, rcx
	cmovb	rcx, rax
	xor	eax, eax
	mov	rdi, rdx
	
	rep		stosq	qword ptr es:[rdi], rax
	
Ltmp379:
	mov	rdi, rdx
	call	__ZN8CryptoPP17AlignedDeallocateEPv
Ltmp380:
	jmp	LBB37_169
LBB37_160:
Ltmp359:
	mov	rbx, rax
	mov	qword ptr [rbp - 88], r15
	mov	rdx, qword ptr [rbp - 56]
	test	rdx, rdx
	je	LBB37_164

	mov	rax, qword ptr [rbp - 72]
	mov	rcx, qword ptr [rbp - 64]
	cmp	rax, rcx
	cmovb	rcx, rax
	xor	eax, eax
	mov	rdi, rdx
	
	rep		stosq	qword ptr es:[rdi], rax
	
Ltmp360:
	mov	rdi, rdx
	call	__ZN8CryptoPP17AlignedDeallocateEPv
Ltmp361:
	jmp	LBB37_164
LBB37_162:
Ltmp383:
	jmp	LBB37_168
LBB37_163:
Ltmp364:
	mov	rbx, rax
LBB37_164:
	mov	qword ptr [rbp - 136], r15
	mov	rdx, qword ptr [rbp - 104]
	test	rdx, rdx
	je	LBB37_169

	mov	rax, qword ptr [rbp - 120]
	mov	rcx, qword ptr [rbp - 112]
	cmp	rax, rcx
	cmovb	rcx, rax
	xor	eax, eax
	mov	rdi, rdx
	
	rep		stosq	qword ptr es:[rdi], rax
	
Ltmp365:
	mov	rdi, rdx
	call	__ZN8CryptoPP17AlignedDeallocateEPv
Ltmp366:
	jmp	LBB37_169
LBB37_166:
Ltmp369:
	jmp	LBB37_168
LBB37_167:
Ltmp386:
LBB37_168:
	mov	rbx, rax
LBB37_169:
	mov	qword ptr [rbp - 264], r15
	mov	rdx, qword ptr [rbp - 232]
	test	rdx, rdx
	je	LBB37_171

	mov	rax, qword ptr [rbp - 248]
	mov	rcx, qword ptr [rbp - 240]
	cmp	rax, rcx
	cmovb	rcx, rax
	xor	eax, eax
	mov	rdi, rdx
	
	rep		stosq	qword ptr es:[rdi], rax
	
Ltmp487:
	mov	rdi, rdx
	call	__ZN8CryptoPP17AlignedDeallocateEPv
Ltmp488:
LBB37_171:
	mov	qword ptr [rbp - 312], r15
	mov	rdx, qword ptr [rbp - 280]
	test	rdx, rdx
	je	LBB37_173

	mov	rax, qword ptr [rbp - 296]
	mov	rcx, qword ptr [rbp - 288]
	cmp	rax, rcx
	cmovb	rcx, rax
	xor	eax, eax
	mov	rdi, rdx
	
	rep		stosq	qword ptr es:[rdi], rax
	
Ltmp492:
	mov	rdi, rdx
	call	__ZN8CryptoPP17AlignedDeallocateEPv
Ltmp493:
LBB37_173:
	mov	qword ptr [rbp - 392], r15
	mov	rdx, qword ptr [rbp - 360]
	test	rdx, rdx
	je	LBB37_175

	mov	rax, qword ptr [rbp - 376]
	mov	rcx, qword ptr [rbp - 368]
	cmp	rax, rcx
	cmovb	rcx, rax
	xor	eax, eax
	mov	rdi, rdx
	
	rep		stosq	qword ptr es:[rdi], rax
	
Ltmp500:
	mov	rdi, rdx
	call	__ZN8CryptoPP17AlignedDeallocateEPv
Ltmp501:
LBB37_175:
Ltmp505:
	lea	rdi, [rbp - 608]
	call	__ZN8CryptoPP17ModularArithmeticD2Ev
Ltmp506:
LBB37_176:
	mov	qword ptr [rbp - 440], r15
	mov	rdx, qword ptr [rbp - 408]
	test	rdx, rdx
	je	LBB37_178

	mov	rax, qword ptr [rbp - 424]
	mov	rcx, qword ptr [rbp - 416]
	cmp	rax, rcx
	cmovb	rcx, rax
	xor	eax, eax
	mov	rdi, rdx
	
	rep		stosq	qword ptr es:[rdi], rax
	
Ltmp510:
	mov	rdi, rdx
	call	__ZN8CryptoPP17AlignedDeallocateEPv
Ltmp511:
LBB37_178:
	mov	rdi, rbx
	call	__Unwind_Resume
	ud2
LBB37_179:
Ltmp512:
	mov	rdi, rax
	call	___clang_call_terminate
Lfunc_end10:
	.cfi_endproc
	.section	__TEXT,__gcc_except_tab
	.p2align	2
GCC_except_table37:
Lexception10:
	.byte	255                     
	.byte	155                     
	.uleb128 Lttbase8-Lttbaseref8
Lttbaseref8:
	.byte	1                       
	.uleb128 Lcst_end10-Lcst_begin10
Lcst_begin10:
	.uleb128 Lfunc_begin10-Lfunc_begin10 
	.uleb128 Ltmp323-Lfunc_begin10  
	.byte	0                       
	.byte	0                       
	.uleb128 Ltmp323-Lfunc_begin10  
	.uleb128 Ltmp326-Ltmp323        
	.uleb128 Ltmp327-Lfunc_begin10  
	.byte	0                       
	.uleb128 Ltmp326-Lfunc_begin10  
	.uleb128 Ltmp330-Ltmp326        
	.byte	0                       
	.byte	0                       
	.uleb128 Ltmp330-Lfunc_begin10  
	.uleb128 Ltmp333-Ltmp330        
	.uleb128 Ltmp334-Lfunc_begin10  
	.byte	0                       
	.uleb128 Ltmp335-Lfunc_begin10  
	.uleb128 Ltmp336-Ltmp335        
	.uleb128 Ltmp509-Lfunc_begin10  
	.byte	0                       
	.uleb128 Ltmp337-Lfunc_begin10  
	.uleb128 Ltmp338-Ltmp337        
	.uleb128 Ltmp504-Lfunc_begin10  
	.byte	0                       
	.uleb128 Ltmp339-Lfunc_begin10  
	.uleb128 Ltmp340-Ltmp339        
	.uleb128 Ltmp496-Lfunc_begin10  
	.byte	0                       
	.uleb128 Ltmp341-Lfunc_begin10  
	.uleb128 Ltmp342-Ltmp341        
	.uleb128 Ltmp350-Lfunc_begin10  
	.byte	0                       
	.uleb128 Ltmp343-Lfunc_begin10  
	.uleb128 Ltmp344-Ltmp343        
	.uleb128 Ltmp345-Lfunc_begin10  
	.byte	0                       
	.uleb128 Ltmp348-Lfunc_begin10  
	.uleb128 Ltmp349-Ltmp348        
	.uleb128 Ltmp350-Lfunc_begin10  
	.byte	0                       
	.uleb128 Ltmp351-Lfunc_begin10  
	.uleb128 Ltmp352-Ltmp351        
	.uleb128 Ltmp491-Lfunc_begin10  
	.byte	0                       
	.uleb128 Ltmp353-Lfunc_begin10  
	.uleb128 Ltmp354-Ltmp353        
	.uleb128 Ltmp369-Lfunc_begin10  
	.byte	0                       
	.uleb128 Ltmp355-Lfunc_begin10  
	.uleb128 Ltmp356-Ltmp355        
	.uleb128 Ltmp364-Lfunc_begin10  
	.byte	0                       
	.uleb128 Ltmp357-Lfunc_begin10  
	.uleb128 Ltmp358-Ltmp357        
	.uleb128 Ltmp359-Lfunc_begin10  
	.byte	0                       
	.uleb128 Ltmp362-Lfunc_begin10  
	.uleb128 Ltmp363-Ltmp362        
	.uleb128 Ltmp364-Lfunc_begin10  
	.byte	0                       
	.uleb128 Ltmp367-Lfunc_begin10  
	.uleb128 Ltmp368-Ltmp367        
	.uleb128 Ltmp369-Lfunc_begin10  
	.byte	0                       
	.uleb128 Ltmp370-Lfunc_begin10  
	.uleb128 Ltmp373-Ltmp370        
	.uleb128 Ltmp386-Lfunc_begin10  
	.byte	0                       
	.uleb128 Ltmp374-Lfunc_begin10  
	.uleb128 Ltmp375-Ltmp374        
	.uleb128 Ltmp383-Lfunc_begin10  
	.byte	0                       
	.uleb128 Ltmp376-Lfunc_begin10  
	.uleb128 Ltmp377-Ltmp376        
	.uleb128 Ltmp378-Lfunc_begin10  
	.byte	0                       
	.uleb128 Ltmp381-Lfunc_begin10  
	.uleb128 Ltmp382-Ltmp381        
	.uleb128 Ltmp383-Lfunc_begin10  
	.byte	0                       
	.uleb128 Ltmp384-Lfunc_begin10  
	.uleb128 Ltmp385-Ltmp384        
	.uleb128 Ltmp386-Lfunc_begin10  
	.byte	0                       
	.uleb128 Ltmp395-Lfunc_begin10  
	.uleb128 Ltmp396-Ltmp395        
	.uleb128 Ltmp418-Lfunc_begin10  
	.byte	0                       
	.uleb128 Ltmp397-Lfunc_begin10  
	.uleb128 Ltmp398-Ltmp397        
	.uleb128 Ltmp413-Lfunc_begin10  
	.byte	0                       
	.uleb128 Ltmp399-Lfunc_begin10  
	.uleb128 Ltmp400-Ltmp399        
	.uleb128 Ltmp408-Lfunc_begin10  
	.byte	0                       
	.uleb128 Ltmp401-Lfunc_begin10  
	.uleb128 Ltmp402-Ltmp401        
	.uleb128 Ltmp403-Lfunc_begin10  
	.byte	0                       
	.uleb128 Ltmp406-Lfunc_begin10  
	.uleb128 Ltmp407-Ltmp406        
	.uleb128 Ltmp408-Lfunc_begin10  
	.byte	0                       
	.uleb128 Ltmp411-Lfunc_begin10  
	.uleb128 Ltmp412-Ltmp411        
	.uleb128 Ltmp413-Lfunc_begin10  
	.byte	0                       
	.uleb128 Ltmp416-Lfunc_begin10  
	.uleb128 Ltmp417-Ltmp416        
	.uleb128 Ltmp418-Lfunc_begin10  
	.byte	0                       
	.uleb128 Ltmp419-Lfunc_begin10  
	.uleb128 Ltmp420-Ltmp419        
	.uleb128 Ltmp428-Lfunc_begin10  
	.byte	0                       
	.uleb128 Ltmp421-Lfunc_begin10  
	.uleb128 Ltmp422-Ltmp421        
	.uleb128 Ltmp423-Lfunc_begin10  
	.byte	0                       
	.uleb128 Ltmp426-Lfunc_begin10  
	.uleb128 Ltmp427-Ltmp426        
	.uleb128 Ltmp428-Lfunc_begin10  
	.byte	0                       
	.uleb128 Ltmp429-Lfunc_begin10  
	.uleb128 Ltmp430-Ltmp429        
	.uleb128 Ltmp452-Lfunc_begin10  
	.byte	0                       
	.uleb128 Ltmp431-Lfunc_begin10  
	.uleb128 Ltmp432-Ltmp431        
	.uleb128 Ltmp447-Lfunc_begin10  
	.byte	0                       
	.uleb128 Ltmp433-Lfunc_begin10  
	.uleb128 Ltmp434-Ltmp433        
	.uleb128 Ltmp442-Lfunc_begin10  
	.byte	0                       
	.uleb128 Ltmp435-Lfunc_begin10  
	.uleb128 Ltmp436-Ltmp435        
	.uleb128 Ltmp437-Lfunc_begin10  
	.byte	0                       
	.uleb128 Ltmp440-Lfunc_begin10  
	.uleb128 Ltmp441-Ltmp440        
	.uleb128 Ltmp442-Lfunc_begin10  
	.byte	0                       
	.uleb128 Ltmp445-Lfunc_begin10  
	.uleb128 Ltmp446-Ltmp445        
	.uleb128 Ltmp447-Lfunc_begin10  
	.byte	0                       
	.uleb128 Ltmp450-Lfunc_begin10  
	.uleb128 Ltmp451-Ltmp450        
	.uleb128 Ltmp452-Lfunc_begin10  
	.byte	0                       
	.uleb128 Ltmp453-Lfunc_begin10  
	.uleb128 Ltmp454-Ltmp453        
	.uleb128 Ltmp476-Lfunc_begin10  
	.byte	0                       
	.uleb128 Ltmp455-Lfunc_begin10  
	.uleb128 Ltmp456-Ltmp455        
	.uleb128 Ltmp471-Lfunc_begin10  
	.byte	0                       
	.uleb128 Ltmp457-Lfunc_begin10  
	.uleb128 Ltmp458-Ltmp457        
	.uleb128 Ltmp466-Lfunc_begin10  
	.byte	0                       
	.uleb128 Ltmp459-Lfunc_begin10  
	.uleb128 Ltmp460-Ltmp459        
	.uleb128 Ltmp461-Lfunc_begin10  
	.byte	0                       
	.uleb128 Ltmp464-Lfunc_begin10  
	.uleb128 Ltmp465-Ltmp464        
	.uleb128 Ltmp466-Lfunc_begin10  
	.byte	0                       
	.uleb128 Ltmp469-Lfunc_begin10  
	.uleb128 Ltmp470-Ltmp469        
	.uleb128 Ltmp471-Lfunc_begin10  
	.byte	0                       
	.uleb128 Ltmp474-Lfunc_begin10  
	.uleb128 Ltmp475-Ltmp474        
	.uleb128 Ltmp476-Lfunc_begin10  
	.byte	0                       
	.uleb128 Ltmp477-Lfunc_begin10  
	.uleb128 Ltmp478-Ltmp477        
	.uleb128 Ltmp486-Lfunc_begin10  
	.byte	0                       
	.uleb128 Ltmp479-Lfunc_begin10  
	.uleb128 Ltmp480-Ltmp479        
	.uleb128 Ltmp481-Lfunc_begin10  
	.byte	0                       
	.uleb128 Ltmp484-Lfunc_begin10  
	.uleb128 Ltmp485-Ltmp484        
	.uleb128 Ltmp486-Lfunc_begin10  
	.byte	0                       
	.uleb128 Ltmp489-Lfunc_begin10  
	.uleb128 Ltmp490-Ltmp489        
	.uleb128 Ltmp491-Lfunc_begin10  
	.byte	0                       
	.uleb128 Ltmp494-Lfunc_begin10  
	.uleb128 Ltmp495-Ltmp494        
	.uleb128 Ltmp496-Lfunc_begin10  
	.byte	0                       
	.uleb128 Ltmp497-Lfunc_begin10  
	.uleb128 Ltmp498-Ltmp497        
	.uleb128 Ltmp499-Lfunc_begin10  
	.byte	0                       
	.uleb128 Ltmp502-Lfunc_begin10  
	.uleb128 Ltmp503-Ltmp502        
	.uleb128 Ltmp504-Lfunc_begin10  
	.byte	0                       
	.uleb128 Ltmp507-Lfunc_begin10  
	.uleb128 Ltmp508-Ltmp507        
	.uleb128 Ltmp509-Lfunc_begin10  
	.byte	0                       
	.uleb128 Ltmp508-Lfunc_begin10  
	.uleb128 Ltmp387-Ltmp508        
	.byte	0                       
	.byte	0                       
	.uleb128 Ltmp387-Lfunc_begin10  
	.uleb128 Ltmp388-Ltmp387        
	.uleb128 Ltmp389-Lfunc_begin10  
	.byte	0                       
	.uleb128 Ltmp390-Lfunc_begin10  
	.uleb128 Ltmp393-Ltmp390        
	.uleb128 Ltmp394-Lfunc_begin10  
	.byte	0                       
	.uleb128 Ltmp393-Lfunc_begin10  
	.uleb128 Ltmp315-Ltmp393        
	.byte	0                       
	.byte	0                       
	.uleb128 Ltmp315-Lfunc_begin10  
	.uleb128 Ltmp316-Ltmp315        
	.uleb128 Ltmp317-Lfunc_begin10  
	.byte	0                       
	.uleb128 Ltmp318-Lfunc_begin10  
	.uleb128 Ltmp321-Ltmp318        
	.uleb128 Ltmp322-Lfunc_begin10  
	.byte	0                       
	.uleb128 Ltmp321-Lfunc_begin10  
	.uleb128 Ltmp328-Ltmp321        
	.byte	0                       
	.byte	0                       
	.uleb128 Ltmp328-Lfunc_begin10  
	.uleb128 Ltmp511-Ltmp328        
	.uleb128 Ltmp512-Lfunc_begin10  
	.byte	1                       
	.uleb128 Ltmp511-Lfunc_begin10  
	.uleb128 Lfunc_end10-Ltmp511    
	.byte	0                       
	.byte	0                       
Lcst_end10:
	.byte	1                       
                                        
	.byte	0                       
	.p2align	2
                                        
	.long	0                       
Lttbase8:
	.p2align	2
                                        
	.section	__TEXT,__text,regular,pure_instructions
	.globl	__ZNK8CryptoPP17ModularArithmetic6SquareERKNS_7IntegerE 
	.weak_def_can_be_hidden	__ZNK8CryptoPP17ModularArithmetic6SquareERKNS_7IntegerE
	.p2align	1, 0x90
__ZNK8CryptoPP17ModularArithmetic6SquareERKNS_7IntegerE: 
Lfunc_begin11:
	.cfi_startproc
	.cfi_personality 155, ___gxx_personality_v0
	.cfi_lsda 16, Lexception11

	push	rbp
	.cfi_def_cfa_offset 16
	.cfi_offset rbp, -16
	mov	rbp, rsp
	.cfi_def_cfa_register rbp
	push	r14
	push	rbx
	sub	rsp, 96
	.cfi_offset rbx, -32
	.cfi_offset r14, -24
	mov	rbx, rdi
	lea	r14, [rbp - 112]
	mov	rdi, r14
	mov	rdx, rsi
	call	__ZNK8CryptoPP7Integer5TimesERKS0_
	lea	rdx, [rbx + 24]
Ltmp513:
	lea	rdi, [rbp - 64]
	mov	rsi, r14
	call	__ZNK8CryptoPP7Integer6ModuloERKS0_
Ltmp514:

	add	rbx, 120
Ltmp515:
	lea	rsi, [rbp - 64]
	mov	rdi, rbx
	call	__ZN8CryptoPP7IntegeraSERKS0_
Ltmp516:

	mov	r14, rax
	mov	rbx, qword ptr [rip + __ZTVN8CryptoPP7IntegerE@GOTPCREL]
	add	rbx, 16
	mov	qword ptr [rbp - 64], rbx
	mov	rdx, qword ptr [rbp - 32]
	test	rdx, rdx
	je	LBB38_4

	mov	rax, qword ptr [rbp - 48]
	mov	rcx, qword ptr [rbp - 40]
	cmp	rax, rcx
	cmovb	rcx, rax
	xor	eax, eax
	mov	rdi, rdx
	
	rep		stosq	qword ptr es:[rdi], rax
	
Ltmp520:
	mov	rdi, rdx
	call	__ZN8CryptoPP17AlignedDeallocateEPv
Ltmp521:
LBB38_4:
	mov	qword ptr [rbp - 112], rbx
	mov	rdx, qword ptr [rbp - 80]
	test	rdx, rdx
	je	LBB38_6

	mov	rax, qword ptr [rbp - 96]
	mov	rcx, qword ptr [rbp - 88]
	cmp	rax, rcx
	cmovb	rcx, rax
	xor	eax, eax
	mov	rdi, rdx
	
	rep		stosq	qword ptr es:[rdi], rax
	
	mov	rdi, rdx
	call	__ZN8CryptoPP17AlignedDeallocateEPv
LBB38_6:
	mov	rax, r14
	add	rsp, 96
	pop	rbx
	pop	r14
	pop	rbp
	ret
LBB38_8:
Ltmp517:
	mov	rbx, rax
	mov	rax, qword ptr [rip + __ZTVN8CryptoPP7IntegerE@GOTPCREL]
	add	rax, 16
	mov	qword ptr [rbp - 64], rax
	mov	rdx, qword ptr [rbp - 32]
	test	rdx, rdx
	je	LBB38_10

	mov	rax, qword ptr [rbp - 48]
	mov	rcx, qword ptr [rbp - 40]
	cmp	rax, rcx
	cmovb	rcx, rax
	xor	eax, eax
	mov	rdi, rdx
	
	rep		stosq	qword ptr es:[rdi], rax
	
Ltmp518:
	mov	rdi, rdx
	call	__ZN8CryptoPP17AlignedDeallocateEPv
Ltmp519:
	jmp	LBB38_10
LBB38_7:
Ltmp522:
	mov	rbx, rax
LBB38_10:
	mov	rax, qword ptr [rip + __ZTVN8CryptoPP7IntegerE@GOTPCREL]
	add	rax, 16
	mov	qword ptr [rbp - 112], rax
	mov	rdx, qword ptr [rbp - 80]
	test	rdx, rdx
	je	LBB38_12

	mov	rax, qword ptr [rbp - 96]
	mov	rcx, qword ptr [rbp - 88]
	cmp	rax, rcx
	cmovb	rcx, rax
	xor	eax, eax
	mov	rdi, rdx
	
	rep		stosq	qword ptr es:[rdi], rax
	
Ltmp523:
	mov	rdi, rdx
	call	__ZN8CryptoPP17AlignedDeallocateEPv
Ltmp524:
LBB38_12:
	mov	rdi, rbx
	call	__Unwind_Resume
	ud2
LBB38_13:
Ltmp525:
	mov	rdi, rax
	call	___clang_call_terminate
Lfunc_end11:
	.cfi_endproc
	.section	__TEXT,__gcc_except_tab
	.p2align	2
GCC_except_table38:
Lexception11:
	.byte	255                     
	.byte	155                     
	.uleb128 Lttbase9-Lttbaseref9
Lttbaseref9:
	.byte	1                       
	.uleb128 Lcst_end11-Lcst_begin11
Lcst_begin11:
	.uleb128 Lfunc_begin11-Lfunc_begin11 
	.uleb128 Ltmp513-Lfunc_begin11  
	.byte	0                       
	.byte	0                       
	.uleb128 Ltmp513-Lfunc_begin11  
	.uleb128 Ltmp514-Ltmp513        
	.uleb128 Ltmp522-Lfunc_begin11  
	.byte	0                       
	.uleb128 Ltmp515-Lfunc_begin11  
	.uleb128 Ltmp516-Ltmp515        
	.uleb128 Ltmp517-Lfunc_begin11  
	.byte	0                       
	.uleb128 Ltmp520-Lfunc_begin11  
	.uleb128 Ltmp521-Ltmp520        
	.uleb128 Ltmp522-Lfunc_begin11  
	.byte	0                       
	.uleb128 Ltmp521-Lfunc_begin11  
	.uleb128 Ltmp518-Ltmp521        
	.byte	0                       
	.byte	0                       
	.uleb128 Ltmp518-Lfunc_begin11  
	.uleb128 Ltmp524-Ltmp518        
	.uleb128 Ltmp525-Lfunc_begin11  
	.byte	1                       
	.uleb128 Ltmp524-Lfunc_begin11  
	.uleb128 Lfunc_end11-Ltmp524    
	.byte	0                       
	.byte	0                       
Lcst_end11:
	.byte	1                       
                                        
	.byte	0                       
	.p2align	2
                                        
	.long	0                       
Lttbase9:
	.p2align	2
                                        
	.section	__TEXT,__text,regular,pure_instructions
	.globl	__ZN8CryptoPP21InvertibleRSAFunction19BERDecodePrivateKeyERNS_22BufferedTransformationEbm 
	.p2align	1, 0x90
__ZN8CryptoPP21InvertibleRSAFunction19BERDecodePrivateKeyERNS_22BufferedTransformationEbm: 
Lfunc_begin12:
	.cfi_startproc
	.cfi_personality 155, ___gxx_personality_v0
	.cfi_lsda 16, Lexception12

	push	rbp
	.cfi_def_cfa_offset 16
	.cfi_offset rbp, -16
	mov	rbp, rsp
	.cfi_def_cfa_register rbp
	push	r14
	push	rbx
	sub	rsp, 80
	.cfi_offset rbx, -32
	.cfi_offset r14, -24
	mov	rbx, rdi
	mov	rax, qword ptr [rip + ___stack_chk_guard@GOTPCREL]
	mov	rax, qword ptr [rax]
	mov	qword ptr [rbp - 24], rax
	lea	r14, [rbp - 80]
	mov	rdi, r14
	mov	edx, 48
	call	__ZN8CryptoPP17BERGeneralDecoderC2ERNS_22BufferedTransformationEh
	mov	rax, qword ptr [rip + __ZTVN8CryptoPP18BERSequenceDecoderE@GOTPCREL]
	lea	rcx, [rax + 16]
	mov	qword ptr [r14], rcx
	add	rax, 424
	mov	qword ptr [r14 + 8], rax
Ltmp526:
	lea	rsi, [rbp - 84]
	mov	rdi, r14
	mov	edx, 2
	xor	ecx, ecx
	xor	r8d, r8d
	call	__ZN8CryptoPP17BERDecodeUnsignedIjEEvRNS_22BufferedTransformationERT_hS3_S3_
Ltmp527:

	lea	rdi, [rbx + 24]
Ltmp528:
	lea	rsi, [rbp - 80]
	call	__ZN8CryptoPP7Integer9BERDecodeERNS_22BufferedTransformationE
Ltmp529:

	lea	rdi, [rbx + 72]
Ltmp530:
	lea	rsi, [rbp - 80]
	call	__ZN8CryptoPP7Integer9BERDecodeERNS_22BufferedTransformationE
Ltmp531:

	lea	rdi, [rbx + 224]
Ltmp532:
	lea	rsi, [rbp - 80]
	call	__ZN8CryptoPP7Integer9BERDecodeERNS_22BufferedTransformationE
Ltmp533:

	lea	rdi, [rbx + 272]
Ltmp534:
	lea	rsi, [rbp - 80]
	call	__ZN8CryptoPP7Integer9BERDecodeERNS_22BufferedTransformationE
Ltmp535:

	lea	rdi, [rbx + 320]
Ltmp536:
	lea	rsi, [rbp - 80]
	call	__ZN8CryptoPP7Integer9BERDecodeERNS_22BufferedTransformationE
Ltmp537:

	lea	rdi, [rbx + 368]
Ltmp538:
	lea	rsi, [rbp - 80]
	call	__ZN8CryptoPP7Integer9BERDecodeERNS_22BufferedTransformationE
Ltmp539:

	lea	rdi, [rbx + 416]
Ltmp540:
	lea	rsi, [rbp - 80]
	call	__ZN8CryptoPP7Integer9BERDecodeERNS_22BufferedTransformationE
Ltmp541:

	add	rbx, 464
Ltmp542:
	lea	rsi, [rbp - 80]
	mov	rdi, rbx
	call	__ZN8CryptoPP7Integer9BERDecodeERNS_22BufferedTransformationE
Ltmp543:

Ltmp544:
	lea	rdi, [rbp - 80]
	call	__ZN8CryptoPP17BERGeneralDecoder10MessageEndEv
Ltmp545:

	lea	rdi, [rbp - 80]
	call	__ZN8CryptoPP17BERGeneralDecoderD2Ev
	mov	rax, qword ptr [rip + ___stack_chk_guard@GOTPCREL]
	mov	rax, qword ptr [rax]
	cmp	rax, qword ptr [rbp - 24]
	jne	LBB39_15

	add	rsp, 80
	pop	rbx
	pop	r14
	pop	rbp
	ret
LBB39_15:
	call	___stack_chk_fail
LBB39_12:
Ltmp546:
	mov	rbx, rax
Ltmp547:
	lea	rdi, [rbp - 80]
	call	__ZN8CryptoPP17BERGeneralDecoderD2Ev
Ltmp548:

	mov	rdi, rbx
	call	__Unwind_Resume
	ud2
LBB39_14:
Ltmp549:
	mov	rdi, rax
	call	___clang_call_terminate
Lfunc_end12:
	.cfi_endproc
	.section	__TEXT,__gcc_except_tab
	.p2align	2
GCC_except_table39:
Lexception12:
	.byte	255                     
	.byte	155                     
	.uleb128 Lttbase10-Lttbaseref10
Lttbaseref10:
	.byte	1                       
	.uleb128 Lcst_end12-Lcst_begin12
Lcst_begin12:
	.uleb128 Lfunc_begin12-Lfunc_begin12 
	.uleb128 Ltmp526-Lfunc_begin12  
	.byte	0                       
	.byte	0                       
	.uleb128 Ltmp526-Lfunc_begin12  
	.uleb128 Ltmp545-Ltmp526        
	.uleb128 Ltmp546-Lfunc_begin12  
	.byte	0                       
	.uleb128 Ltmp545-Lfunc_begin12  
	.uleb128 Ltmp547-Ltmp545        
	.byte	0                       
	.byte	0                       
	.uleb128 Ltmp547-Lfunc_begin12  
	.uleb128 Ltmp548-Ltmp547        
	.uleb128 Ltmp549-Lfunc_begin12  
	.byte	1                       
	.uleb128 Ltmp548-Lfunc_begin12  
	.uleb128 Lfunc_end12-Ltmp548    
	.byte	0                       
	.byte	0                       
Lcst_end12:
	.byte	1                       
                                        
	.byte	0                       
	.p2align	2
                                        
	.long	0                       
Lttbase10:
	.p2align	2
                                        
	.section	__TEXT,__text,regular,pure_instructions
	.globl	__ZN8CryptoPP17BERDecodeUnsignedIjEEvRNS_22BufferedTransformationERT_hS3_S3_ 
	.weak_def_can_be_hidden	__ZN8CryptoPP17BERDecodeUnsignedIjEEvRNS_22BufferedTransformationERT_hS3_S3_
__ZN8CryptoPP17BERDecodeUnsignedIjEEvRNS_22BufferedTransformationERT_hS3_S3_: 
Lfunc_begin13:
	.cfi_startproc
	.cfi_personality 155, ___gxx_personality_v0
	.cfi_lsda 16, Lexception13

	push	rbp
	.cfi_def_cfa_offset 16
	.cfi_offset rbp, -16
	mov	rbp, rsp
	.cfi_def_cfa_register rbp
	push	r15
	push	r14
	push	r13
	push	r12
	push	rbx
	sub	rsp, 40
	.cfi_offset rbx, -56
	.cfi_offset r12, -48
	.cfi_offset r13, -40
	.cfi_offset r14, -32
	.cfi_offset r15, -24
	mov	ebx, r8d
	mov	dword ptr [rbp - 60], ecx 
	mov	r13d, edx
	mov	r14, rsi
	mov	r15, rdi
	mov	rax, qword ptr [rdi]
	lea	rsi, [rbp - 41]
	call	qword ptr [rax + 168]
	test	rax, rax
	je	LBB40_2

	cmp	byte ptr [rbp - 41], r13b
	jne	LBB40_2

	mov	dword ptr [rbp - 64], ebx 
	lea	rsi, [rbp - 56]
	mov	rdi, r15
	call	__ZN8CryptoPP15BERLengthDecodeERNS_22BufferedTransformationERm
	test	al, al
	je	LBB40_7

	mov	rbx, qword ptr [rbp - 56]
	mov	rax, qword ptr [r15]
	mov	rdi, r15
	call	qword ptr [rax + 152]
	cmp	rbx, rax
	ja	LBB40_10

	mov	rdi, qword ptr [rbp - 56]
	cmp	r13b, 1
	jne	LBB40_16

	cmp	rdi, 1
	jne	LBB40_14
LBB40_16:
	or	r13b, 8
	cmp	r13b, 10
	mov	qword ptr [rbp - 72], rdi 
	jne	LBB40_20

	test	rdi, rdi
	jne	LBB40_22

	mov	edi, 40
	call	___cxa_allocate_exception
	mov	r14, rax
Ltmp556:
	mov	rdi, rax
	call	__ZN8CryptoPP12BERDecodeErrC1Ev
Ltmp557:
	jmp	LBB40_3
LBB40_20:
	test	rdi, rdi
	je	LBB40_21
LBB40_22:
	call	__ZN8CryptoPP17UnalignedAllocateEm
	mov	r13, rax
	mov	r12, qword ptr [rbp - 56]
LBB40_23:
	mov	rax, qword ptr [r15]
Ltmp559:
	mov	rdi, r15
	mov	rsi, r13
	mov	rdx, r12
	call	qword ptr [rax + 176]
Ltmp560:

	cmp	r12, rax
	jne	LBB40_25

	mov	rcx, qword ptr [rbp - 56]
	cmp	rcx, 5
	jb	LBB40_41

	lea	rax, [rcx + r13 - 4]
	mov	rdx, r13
LBB40_32:                               
	cmp	byte ptr [rdx], 0
	jne	LBB40_38

	dec	rcx
	mov	qword ptr [rbp - 56], rcx
	inc	rdx
	cmp	rcx, 4
	ja	LBB40_32

	mov	dword ptr [r14], 0
	mov	ecx, 4
	jmp	LBB40_35
LBB40_41:
	mov	dword ptr [r14], 0
	mov	rax, r13
	test	rcx, rcx
	je	LBB40_42
LBB40_35:
	xor	edi, edi
	mov	edx, 1
	xor	ebx, ebx
LBB40_36:                               
	shl	edi, 8
	movzx	esi, byte ptr [rax + rbx]
	or	esi, edi
	mov	dword ptr [r14], esi
	mov	ebx, edx
	inc	edx
	mov	edi, esi
	cmp	rcx, rbx
	ja	LBB40_36
LBB40_43:
	cmp	esi, dword ptr [rbp - 60] 
	jb	LBB40_45

	cmp	esi, dword ptr [rbp - 64] 
	ja	LBB40_45

	test	r13, r13
	je	LBB40_50

	xor	eax, eax
	mov	rcx, qword ptr [rbp - 72] 
	mov	rdi, r13
	
	rep		stosb	byte ptr es:[rdi], al
	
	mov	rdi, r13
	call	__ZN8CryptoPP19UnalignedDeallocateEPv
LBB40_50:
	add	rsp, 40
	pop	rbx
	pop	r12
	pop	r13
	pop	r14
	pop	r15
	pop	rbp
	ret
LBB40_42:
	xor	esi, esi
	jmp	LBB40_43
LBB40_21:
	xor	r12d, r12d
	xor	r13d, r13d
	jmp	LBB40_23
LBB40_38:
	mov	edi, 40
	call	___cxa_allocate_exception
	mov	r15, rax
Ltmp567:
	mov	rdi, rax
	call	__ZN8CryptoPP12BERDecodeErrC2Ev
Ltmp568:

Ltmp570:
	mov	rsi, qword ptr [rip + __ZTIN8CryptoPP12BERDecodeErrE@GOTPCREL]
	mov	rdx, qword ptr [rip + __ZN8CryptoPP12BERDecodeErrD1Ev@GOTPCREL]
	mov	rdi, r15
	call	___cxa_throw
Ltmp571:
LBB40_27:
	ud2
LBB40_2:
	mov	edi, 40
	call	___cxa_allocate_exception
	mov	r14, rax
Ltmp550:
	mov	rdi, rax
	call	__ZN8CryptoPP12BERDecodeErrC1Ev
Ltmp551:
	jmp	LBB40_3
LBB40_45:
	mov	edi, 40
	call	___cxa_allocate_exception
	mov	r15, rax
Ltmp572:
	mov	rdi, rax
	call	__ZN8CryptoPP12BERDecodeErrC2Ev
Ltmp573:

Ltmp575:
	mov	rsi, qword ptr [rip + __ZTIN8CryptoPP12BERDecodeErrE@GOTPCREL]
	mov	rdx, qword ptr [rip + __ZN8CryptoPP12BERDecodeErrD1Ev@GOTPCREL]
	mov	rdi, r15
	call	___cxa_throw
Ltmp576:
	jmp	LBB40_27
LBB40_7:
	mov	edi, 40
	call	___cxa_allocate_exception
	mov	r14, rax
Ltmp553:
	mov	rdi, rax
	call	__ZN8CryptoPP12BERDecodeErrC1Ev
Ltmp554:
	jmp	LBB40_3
LBB40_10:
	mov	edi, 40
	call	___cxa_allocate_exception
	mov	r14, rax
Ltmp584:
	mov	rdi, rax
	call	__ZN8CryptoPP12BERDecodeErrC1Ev
Ltmp585:
	jmp	LBB40_3
LBB40_14:
	mov	edi, 40
	call	___cxa_allocate_exception
	mov	r14, rax
Ltmp581:
	mov	rdi, rax
	call	__ZN8CryptoPP12BERDecodeErrC1Ev
Ltmp582:
LBB40_3:
	mov	rsi, qword ptr [rip + __ZTIN8CryptoPP12BERDecodeErrE@GOTPCREL]
	mov	rdx, qword ptr [rip + __ZN8CryptoPP12BERDecodeErrD1Ev@GOTPCREL]
	mov	rdi, r14
	call	___cxa_throw
LBB40_25:
	mov	edi, 40
	call	___cxa_allocate_exception
	mov	r15, rax
Ltmp561:
	mov	rdi, rax
	call	__ZN8CryptoPP12BERDecodeErrC2Ev
Ltmp562:

Ltmp564:
	mov	rsi, qword ptr [rip + __ZTIN8CryptoPP12BERDecodeErrE@GOTPCREL]
	mov	rdx, qword ptr [rip + __ZN8CryptoPP12BERDecodeErrD1Ev@GOTPCREL]
	mov	rdi, r15
	call	___cxa_throw
Ltmp565:
	jmp	LBB40_27
LBB40_19:
Ltmp558:
	jmp	LBB40_5
LBB40_28:
Ltmp563:
	jmp	LBB40_29
LBB40_15:
Ltmp583:
	jmp	LBB40_5
LBB40_11:
Ltmp586:
	jmp	LBB40_5
LBB40_8:
Ltmp555:
	jmp	LBB40_5
LBB40_47:
Ltmp574:
	jmp	LBB40_29
LBB40_4:
Ltmp552:
LBB40_5:
	mov	rbx, rax
	mov	rdi, r14
	call	___cxa_free_exception
	jmp	LBB40_55
LBB40_40:
Ltmp569:
LBB40_29:
	mov	rbx, rax
	mov	rdi, r15
	call	___cxa_free_exception
	jmp	LBB40_53
LBB40_37:
Ltmp577:
	jmp	LBB40_52
LBB40_51:
Ltmp566:
LBB40_52:
	mov	rbx, rax
LBB40_53:
	test	r13, r13
	je	LBB40_55

	xor	eax, eax
	mov	rdi, r13
	mov	rcx, qword ptr [rbp - 72] 
	
	rep		stosb	byte ptr es:[rdi], al
	
Ltmp578:
	mov	rdi, r13
	call	__ZN8CryptoPP19UnalignedDeallocateEPv
Ltmp579:
LBB40_55:
	mov	rdi, rbx
	call	__Unwind_Resume
	ud2
LBB40_56:
Ltmp580:
	mov	rdi, rax
	call	___clang_call_terminate
Lfunc_end13:
	.cfi_endproc
	.section	__TEXT,__gcc_except_tab
	.p2align	2
GCC_except_table40:
Lexception13:
	.byte	255                     
	.byte	155                     
	.uleb128 Lttbase11-Lttbaseref11
Lttbaseref11:
	.byte	1                       
	.uleb128 Lcst_end13-Lcst_begin13
Lcst_begin13:
	.uleb128 Lfunc_begin13-Lfunc_begin13 
	.uleb128 Ltmp556-Lfunc_begin13  
	.byte	0                       
	.byte	0                       
	.uleb128 Ltmp556-Lfunc_begin13  
	.uleb128 Ltmp557-Ltmp556        
	.uleb128 Ltmp558-Lfunc_begin13  
	.byte	0                       
	.uleb128 Ltmp557-Lfunc_begin13  
	.uleb128 Ltmp559-Ltmp557        
	.byte	0                       
	.byte	0                       
	.uleb128 Ltmp559-Lfunc_begin13  
	.uleb128 Ltmp560-Ltmp559        
	.uleb128 Ltmp566-Lfunc_begin13  
	.byte	0                       
	.uleb128 Ltmp560-Lfunc_begin13  
	.uleb128 Ltmp567-Ltmp560        
	.byte	0                       
	.byte	0                       
	.uleb128 Ltmp567-Lfunc_begin13  
	.uleb128 Ltmp568-Ltmp567        
	.uleb128 Ltmp569-Lfunc_begin13  
	.byte	0                       
	.uleb128 Ltmp570-Lfunc_begin13  
	.uleb128 Ltmp571-Ltmp570        
	.uleb128 Ltmp577-Lfunc_begin13  
	.byte	0                       
	.uleb128 Ltmp571-Lfunc_begin13  
	.uleb128 Ltmp550-Ltmp571        
	.byte	0                       
	.byte	0                       
	.uleb128 Ltmp550-Lfunc_begin13  
	.uleb128 Ltmp551-Ltmp550        
	.uleb128 Ltmp552-Lfunc_begin13  
	.byte	0                       
	.uleb128 Ltmp551-Lfunc_begin13  
	.uleb128 Ltmp572-Ltmp551        
	.byte	0                       
	.byte	0                       
	.uleb128 Ltmp572-Lfunc_begin13  
	.uleb128 Ltmp573-Ltmp572        
	.uleb128 Ltmp574-Lfunc_begin13  
	.byte	0                       
	.uleb128 Ltmp575-Lfunc_begin13  
	.uleb128 Ltmp576-Ltmp575        
	.uleb128 Ltmp577-Lfunc_begin13  
	.byte	0                       
	.uleb128 Ltmp576-Lfunc_begin13  
	.uleb128 Ltmp553-Ltmp576        
	.byte	0                       
	.byte	0                       
	.uleb128 Ltmp553-Lfunc_begin13  
	.uleb128 Ltmp554-Ltmp553        
	.uleb128 Ltmp555-Lfunc_begin13  
	.byte	0                       
	.uleb128 Ltmp554-Lfunc_begin13  
	.uleb128 Ltmp584-Ltmp554        
	.byte	0                       
	.byte	0                       
	.uleb128 Ltmp584-Lfunc_begin13  
	.uleb128 Ltmp585-Ltmp584        
	.uleb128 Ltmp586-Lfunc_begin13  
	.byte	0                       
	.uleb128 Ltmp585-Lfunc_begin13  
	.uleb128 Ltmp581-Ltmp585        
	.byte	0                       
	.byte	0                       
	.uleb128 Ltmp581-Lfunc_begin13  
	.uleb128 Ltmp582-Ltmp581        
	.uleb128 Ltmp583-Lfunc_begin13  
	.byte	0                       
	.uleb128 Ltmp582-Lfunc_begin13  
	.uleb128 Ltmp561-Ltmp582        
	.byte	0                       
	.byte	0                       
	.uleb128 Ltmp561-Lfunc_begin13  
	.uleb128 Ltmp562-Ltmp561        
	.uleb128 Ltmp563-Lfunc_begin13  
	.byte	0                       
	.uleb128 Ltmp564-Lfunc_begin13  
	.uleb128 Ltmp565-Ltmp564        
	.uleb128 Ltmp566-Lfunc_begin13  
	.byte	0                       
	.uleb128 Ltmp565-Lfunc_begin13  
	.uleb128 Ltmp578-Ltmp565        
	.byte	0                       
	.byte	0                       
	.uleb128 Ltmp578-Lfunc_begin13  
	.uleb128 Ltmp579-Ltmp578        
	.uleb128 Ltmp580-Lfunc_begin13  
	.byte	1                       
	.uleb128 Ltmp579-Lfunc_begin13  
	.uleb128 Lfunc_end13-Ltmp579    
	.byte	0                       
	.byte	0                       
Lcst_end13:
	.byte	1                       
                                        
	.byte	0                       
	.p2align	2
                                        
	.long	0                       
Lttbase11:
	.p2align	2
                                        
	.section	__TEXT,__text,regular,pure_instructions
	.globl	__ZThn128_N8CryptoPP21InvertibleRSAFunction19BERDecodePrivateKeyERNS_22BufferedTransformationEbm 
	.p2align	1, 0x90
__ZThn128_N8CryptoPP21InvertibleRSAFunction19BERDecodePrivateKeyERNS_22BufferedTransformationEbm: 
	.cfi_startproc

	push	rbp
	.cfi_def_cfa_offset 16
	.cfi_offset rbp, -16
	mov	rbp, rsp
	.cfi_def_cfa_register rbp
	add	rdi, -128
	xor	edx, edx
	pop	rbp
	jmp	__ZN8CryptoPP21InvertibleRSAFunction19BERDecodePrivateKeyERNS_22BufferedTransformationEbm 
	.cfi_endproc
                                        
	.globl	__ZNK8CryptoPP21InvertibleRSAFunction19DEREncodePrivateKeyERNS_22BufferedTransformationE 
	.p2align	1, 0x90
__ZNK8CryptoPP21InvertibleRSAFunction19DEREncodePrivateKeyERNS_22BufferedTransformationE: 
Lfunc_begin14:
	.cfi_startproc
	.cfi_personality 155, ___gxx_personality_v0
	.cfi_lsda 16, Lexception14

	push	rbp
	.cfi_def_cfa_offset 16
	.cfi_offset rbp, -16
	mov	rbp, rsp
	.cfi_def_cfa_register rbp
	push	r14
	push	rbx
	sub	rsp, 112
	.cfi_offset rbx, -32
	.cfi_offset r14, -24
	mov	rbx, rdi
	mov	rax, qword ptr [rip + ___stack_chk_guard@GOTPCREL]
	mov	rax, qword ptr [rax]
	mov	qword ptr [rbp - 24], rax
	lea	r14, [rbp - 120]
	mov	rdi, r14
	mov	edx, 48
	call	__ZN8CryptoPP17DERGeneralEncoderC2ERNS_22BufferedTransformationEh
	mov	rax, qword ptr [rip + __ZTVN8CryptoPP18DERSequenceEncoderE@GOTPCREL]
	lea	rcx, [rax + 16]
	mov	qword ptr [r14], rcx
	add	rax, 416
	mov	qword ptr [r14 + 8], rax
Ltmp587:
	mov	rdi, r14
	xor	esi, esi
	mov	edx, 2
	call	__ZN8CryptoPP17DEREncodeUnsignedIjEEmRNS_22BufferedTransformationET_h
Ltmp588:

	lea	rdi, [rbx + 24]
Ltmp589:
	lea	rsi, [rbp - 120]
	call	__ZNK8CryptoPP7Integer9DEREncodeERNS_22BufferedTransformationE
Ltmp590:

	lea	rdi, [rbx + 72]
Ltmp591:
	lea	rsi, [rbp - 120]
	call	__ZNK8CryptoPP7Integer9DEREncodeERNS_22BufferedTransformationE
Ltmp592:

	lea	rdi, [rbx + 224]
Ltmp593:
	lea	rsi, [rbp - 120]
	call	__ZNK8CryptoPP7Integer9DEREncodeERNS_22BufferedTransformationE
Ltmp594:

	lea	rdi, [rbx + 272]
Ltmp595:
	lea	rsi, [rbp - 120]
	call	__ZNK8CryptoPP7Integer9DEREncodeERNS_22BufferedTransformationE
Ltmp596:

	lea	rdi, [rbx + 320]
Ltmp597:
	lea	rsi, [rbp - 120]
	call	__ZNK8CryptoPP7Integer9DEREncodeERNS_22BufferedTransformationE
Ltmp598:

	lea	rdi, [rbx + 368]
Ltmp599:
	lea	rsi, [rbp - 120]
	call	__ZNK8CryptoPP7Integer9DEREncodeERNS_22BufferedTransformationE
Ltmp600:

	lea	rdi, [rbx + 416]
Ltmp601:
	lea	rsi, [rbp - 120]
	call	__ZNK8CryptoPP7Integer9DEREncodeERNS_22BufferedTransformationE
Ltmp602:

	add	rbx, 464
Ltmp603:
	lea	rsi, [rbp - 120]
	mov	rdi, rbx
	call	__ZNK8CryptoPP7Integer9DEREncodeERNS_22BufferedTransformationE
Ltmp604:

Ltmp605:
	lea	rdi, [rbp - 120]
	call	__ZN8CryptoPP17DERGeneralEncoder10MessageEndEv
Ltmp606:

	lea	rdi, [rbp - 120]
	call	__ZN8CryptoPP17DERGeneralEncoderD2Ev
	mov	rax, qword ptr [rip + ___stack_chk_guard@GOTPCREL]
	mov	rax, qword ptr [rax]
	cmp	rax, qword ptr [rbp - 24]
	jne	LBB42_15

	add	rsp, 112
	pop	rbx
	pop	r14
	pop	rbp
	ret
LBB42_15:
	call	___stack_chk_fail
LBB42_12:
Ltmp607:
	mov	rbx, rax
Ltmp608:
	lea	rdi, [rbp - 120]
	call	__ZN8CryptoPP17DERGeneralEncoderD2Ev
Ltmp609:

	mov	rdi, rbx
	call	__Unwind_Resume
	ud2
LBB42_14:
Ltmp610:
	mov	rdi, rax
	call	___clang_call_terminate
Lfunc_end14:
	.cfi_endproc
	.section	__TEXT,__gcc_except_tab
	.p2align	2
GCC_except_table42:
Lexception14:
	.byte	255                     
	.byte	155                     
	.uleb128 Lttbase12-Lttbaseref12
Lttbaseref12:
	.byte	1                       
	.uleb128 Lcst_end14-Lcst_begin14
Lcst_begin14:
	.uleb128 Lfunc_begin14-Lfunc_begin14 
	.uleb128 Ltmp587-Lfunc_begin14  
	.byte	0                       
	.byte	0                       
	.uleb128 Ltmp587-Lfunc_begin14  
	.uleb128 Ltmp606-Ltmp587        
	.uleb128 Ltmp607-Lfunc_begin14  
	.byte	0                       
	.uleb128 Ltmp606-Lfunc_begin14  
	.uleb128 Ltmp608-Ltmp606        
	.byte	0                       
	.byte	0                       
	.uleb128 Ltmp608-Lfunc_begin14  
	.uleb128 Ltmp609-Ltmp608        
	.uleb128 Ltmp610-Lfunc_begin14  
	.byte	1                       
	.uleb128 Ltmp609-Lfunc_begin14  
	.uleb128 Lfunc_end14-Ltmp609    
	.byte	0                       
	.byte	0                       
Lcst_end14:
	.byte	1                       
                                        
	.byte	0                       
	.p2align	2
                                        
	.long	0                       
Lttbase12:
	.p2align	2
                                        
	.section	__TEXT,__literal16,16byte_literals
	.p2align	4               
LCPI43_0:
	.byte	3                       
	.byte	2                       
	.byte	1                       
	.byte	0                       
	.space	1
	.space	1
	.space	1
	.space	1
	.space	1
	.space	1
	.space	1
	.space	1
	.space	1
	.space	1
	.space	1
	.space	1
	.section	__TEXT,__text,regular,pure_instructions
	.globl	__ZN8CryptoPP17DEREncodeUnsignedIjEEmRNS_22BufferedTransformationET_h
	.weak_def_can_be_hidden	__ZN8CryptoPP17DEREncodeUnsignedIjEEmRNS_22BufferedTransformationET_h
__ZN8CryptoPP17DEREncodeUnsignedIjEEmRNS_22BufferedTransformationET_h: 
	.cfi_startproc

	push	rbp
	.cfi_def_cfa_offset 16
	.cfi_offset rbp, -16
	mov	rbp, rsp
	.cfi_def_cfa_register rbp
	push	r15
	push	r14
	push	rbx
	push	rax
	.cfi_offset rbx, -40
	.cfi_offset r14, -32
	.cfi_offset r15, -24
	mov	r14, rdi
	cmp	dl, 1
	jne	LBB43_2

	neg	esi
	sbb	al, al
	mov	byte ptr [rbp - 26], al
	mov	ebx, 1
	jmp	LBB43_7
LBB43_2:
	lea	rax, [rbp - 30]
	mov	byte ptr [rax], 0
	movd	xmm0, esi
	pshufb	xmm0, xmmword ptr [rip + LCPI43_0] 
	movd	dword ptr [rax + 1], xmm0
	mov	ecx, 4
LBB43_3:                                
	mov	esi, ecx
	mov	rdi, rax
	sub	rdi, rsi
	cmp	byte ptr [rdi + 5], 0
	jne	LBB43_6

	dec	ecx
	cmp	ecx, 1
	ja	LBB43_3

	mov	ecx, 1
LBB43_6:
	mov	esi, ecx
	sub	rax, rsi
	movzx	ebx, byte ptr [rax + 5]
	shr	ebx, 7
	add	ebx, ecx
LBB43_7:
	lea	rsi, [rbp - 25]
	mov	byte ptr [rsi], dl
	mov	rax, qword ptr [r14]
	mov	edx, 1
	mov	rdi, r14
	xor	ecx, ecx
	mov	r8d, 1
	call	qword ptr [rax + 56]
	mov	rdi, r14
	mov	rsi, rbx
	call	__ZN8CryptoPP15DERLengthEncodeERNS_22BufferedTransformationEm
	mov	r15, rax
	lea	rsi, [rbp - 30]
	sub	rsi, rbx
	add	rsi, 5
	mov	rax, qword ptr [r14]
	mov	rdi, r14
	mov	rdx, rbx
	xor	ecx, ecx
	mov	r8d, 1
	call	qword ptr [rax + 56]
	lea	rax, [rbx + r15 + 1]
	add	rsp, 8
	pop	rbx
	pop	r14
	pop	r15
	pop	rbp
	ret
	.cfi_endproc
                                        
	.globl	__ZThn128_NK8CryptoPP21InvertibleRSAFunction19DEREncodePrivateKeyERNS_22BufferedTransformationE 
	.p2align	1, 0x90
__ZThn128_NK8CryptoPP21InvertibleRSAFunction19DEREncodePrivateKeyERNS_22BufferedTransformationE: 
	.cfi_startproc

	push	rbp
	.cfi_def_cfa_offset 16
	.cfi_offset rbp, -16
	mov	rbp, rsp
	.cfi_def_cfa_register rbp
	add	rdi, -128
	pop	rbp
	jmp	__ZNK8CryptoPP21InvertibleRSAFunction19DEREncodePrivateKeyERNS_22BufferedTransformationE 
	.cfi_endproc
                                        
	.globl	__ZNK8CryptoPP21InvertibleRSAFunction16CalculateInverseERNS_21RandomNumberGeneratorERKNS_7IntegerE 
	.p2align	1, 0x90
__ZNK8CryptoPP21InvertibleRSAFunction16CalculateInverseERNS_21RandomNumberGeneratorERKNS_7IntegerE: 
Lfunc_begin15:
	.cfi_startproc
	.cfi_personality 155, ___gxx_personality_v0
	.cfi_lsda 16, Lexception15

	push	rbp
	.cfi_def_cfa_offset 16
	.cfi_offset rbp, -16
	mov	rbp, rsp
	.cfi_def_cfa_register rbp
	push	r15
	push	r14
	push	r13
	push	r12
	push	rbx
	sub	rsp, 408
	.cfi_offset rbx, -56
	.cfi_offset r12, -48
	.cfi_offset r13, -40
	.cfi_offset r14, -32
	.cfi_offset r15, -24
	mov	qword ptr [rbp - 112], rcx 
	mov	qword ptr [rbp - 176], rdx 
	mov	rbx, rsi
	mov	r15, rdi
	mov	rax, qword ptr [rsi]
	mov	r12, qword ptr [rax - 24]
	lea	r14, [rsi + r12]
	call	__ZN8CryptoPP7NullRNGEv
	mov	rcx, qword ptr [rbx + r12]
	mov	rdi, r14
	mov	rsi, rax
	xor	edx, edx
	call	qword ptr [rcx + 40]
	mov	qword ptr [rbp - 120], rbx 
	add	rbx, 24
	lea	rdi, [rbp - 440]
	mov	rsi, rbx
	call	__ZN8CryptoPP17ModularArithmeticC2ERKNS_7IntegerE
Ltmp611:
	lea	rdi, [rbp - 272]
	call	__ZN8CryptoPP7IntegerC1Ev
Ltmp612:

Ltmp613:
	lea	rdi, [rbp - 224]
	call	__ZN8CryptoPP7IntegerC1Ev
Ltmp614:

	mov	qword ptr [rbp - 104], r15 
	lea	r14, [rbp - 96]
	lea	r15, [rbp - 272]
	mov	rax, qword ptr [rip + __ZTVN8CryptoPP7IntegerE@GOTPCREL]
	add	rax, 16
	mov	qword ptr [rbp - 48], rax 
	lea	r12, [rbp - 224]
LBB45_3:                                
Ltmp615:
	call	__ZN8CryptoPP7Integer3OneEv
Ltmp616:

	mov	r13, rax
Ltmp617:
	call	__ZN8CryptoPP7Integer3OneEv
Ltmp618:

Ltmp619:
	mov	rdi, r14
	mov	rsi, rbx
	mov	rdx, rax
	call	__ZNK8CryptoPP7Integer5MinusERKS0_
Ltmp620:

Ltmp621:
	mov	rdi, r15
	mov	rsi, qword ptr [rbp - 176] 
	mov	rdx, r13
	mov	rcx, r14
	call	__ZN8CryptoPP7Integer9RandomizeERNS_21RandomNumberGeneratorERKS0_S4_
Ltmp622:

	mov	rax, qword ptr [rbp - 48] 
	mov	qword ptr [rbp - 96], rax
	mov	rdx, qword ptr [rbp - 64]
	test	rdx, rdx
	je	LBB45_9

	mov	rax, qword ptr [rbp - 80]
	mov	rcx, qword ptr [rbp - 72]
	cmp	rax, rcx
	cmovb	rcx, rax
	xor	eax, eax
	mov	rdi, rdx
	
	rep		stosq	qword ptr es:[rdi], rax
	
Ltmp626:
	mov	rdi, rdx
	call	__ZN8CryptoPP17AlignedDeallocateEPv
Ltmp627:
LBB45_9:                                
Ltmp629:
	lea	rdi, [rbp - 440]
	mov	rsi, r15
	call	__ZNK8CryptoPP17ModularArithmetic21MultiplicativeInverseERKNS_7IntegerE
Ltmp630:

Ltmp631:
	mov	rdi, r12
	mov	rsi, rax
	call	__ZN8CryptoPP7IntegeraSERKS0_
Ltmp632:

Ltmp633:
	mov	rdi, r12
	call	__ZNK8CryptoPP7IntegerntEv
Ltmp634:

	test	al, al
	jne	LBB45_3

	mov	rax, qword ptr [rbp - 120] 
	lea	rbx, [rax + 72]
Ltmp636:
	lea	rdi, [rbp - 96]
	lea	rsi, [rbp - 440]
	lea	rdx, [rbp - 272]
	mov	rcx, rbx
	call	__ZNK8CryptoPP12AbstractRingINS_7IntegerEE12ExponentiateERKS1_S4_
Ltmp637:
	mov	r14, qword ptr [rbp - 104] 

Ltmp638:
	lea	rdi, [rbp - 440]
	lea	rsi, [rbp - 96]
	mov	rdx, qword ptr [rbp - 112] 
	call	__ZNK8CryptoPP17ModularArithmetic8MultiplyERKNS_7IntegerES3_
Ltmp639:

Ltmp640:
	lea	rdi, [rbp - 96]
	mov	rsi, rax
	call	__ZN8CryptoPP7IntegeraSERKS0_
Ltmp641:

	mov	rax, qword ptr [rbp - 120] 
	lea	rdx, [rax + 416]
	lea	rcx, [rax + 368]
	lea	r8, [rax + 320]
	lea	r9, [rax + 272]
	lea	rax, [rax + 464]
Ltmp642:
	mov	qword ptr [rsp], rax
	lea	rsi, [rbp - 96]
	mov	rdi, r14
	call	__ZN8CryptoPP11ModularRootERKNS_7IntegerES2_S2_S2_S2_S2_
Ltmp643:

Ltmp645:
	lea	rdi, [rbp - 440]
	lea	rdx, [rbp - 224]
	mov	rsi, r14
	call	__ZNK8CryptoPP17ModularArithmetic8MultiplyERKNS_7IntegerES3_
Ltmp646:

Ltmp647:
	mov	rdi, r14
	mov	rsi, rax
	call	__ZN8CryptoPP7IntegeraSERKS0_
Ltmp648:

Ltmp650:
	lea	rdi, [rbp - 168]
	lea	rsi, [rbp - 440]
	mov	rdx, r14
	mov	rcx, rbx
	call	__ZNK8CryptoPP12AbstractRingINS_7IntegerEE12ExponentiateERKS1_S4_
Ltmp651:

Ltmp652:
	lea	rdi, [rbp - 168]
	mov	rsi, qword ptr [rbp - 112] 
	call	__ZNK8CryptoPP7Integer7CompareERKS0_
Ltmp653:

	mov	ebx, eax
	mov	rax, qword ptr [rbp - 48] 
	mov	qword ptr [rbp - 168], rax
	mov	rdx, qword ptr [rbp - 136]
	test	rdx, rdx
	je	LBB45_23

	mov	rax, qword ptr [rbp - 152]
	mov	rcx, qword ptr [rbp - 144]
	cmp	rax, rcx
	cmovb	rcx, rax
	xor	eax, eax
	mov	rdi, rdx
	
	rep		stosq	qword ptr es:[rdi], rax
	
Ltmp657:
	mov	rdi, rdx
	call	__ZN8CryptoPP17AlignedDeallocateEPv
Ltmp658:
LBB45_23:
	test	ebx, ebx
	jne	LBB45_24

	mov	rax, qword ptr [rbp - 48] 
	mov	qword ptr [rbp - 96], rax
	mov	rdx, qword ptr [rbp - 64]
	test	rdx, rdx
	je	LBB45_43

	mov	rax, qword ptr [rbp - 80]
	mov	rcx, qword ptr [rbp - 72]
	cmp	rax, rcx
	cmovb	rcx, rax
	xor	eax, eax
	mov	rdi, rdx
	
	rep		stosq	qword ptr es:[rdi], rax
	
Ltmp672:
	mov	rdi, rdx
	call	__ZN8CryptoPP17AlignedDeallocateEPv
Ltmp673:
LBB45_43:
	mov	rax, qword ptr [rbp - 48] 
	mov	qword ptr [rbp - 224], rax
	mov	rdx, qword ptr [rbp - 192]
	test	rdx, rdx
	je	LBB45_45

	mov	rax, qword ptr [rbp - 208]
	mov	rcx, qword ptr [rbp - 200]
	cmp	rax, rcx
	cmovb	rcx, rax
	xor	eax, eax
	mov	rdi, rdx
	
	rep		stosq	qword ptr es:[rdi], rax
	
Ltmp677:
	mov	rdi, rdx
	call	__ZN8CryptoPP17AlignedDeallocateEPv
Ltmp678:
LBB45_45:
	mov	rax, qword ptr [rbp - 48] 
	mov	qword ptr [rbp - 272], rax
	mov	rdx, qword ptr [rbp - 240]
	test	rdx, rdx
	je	LBB45_47

	mov	rax, qword ptr [rbp - 256]
	mov	rcx, qword ptr [rbp - 248]
	cmp	rax, rcx
	cmovb	rcx, rax
	xor	eax, eax
	mov	rdi, rdx
	
	rep		stosq	qword ptr es:[rdi], rax
	
Ltmp682:
	mov	rdi, rdx
	call	__ZN8CryptoPP17AlignedDeallocateEPv
Ltmp683:
LBB45_47:
	lea	rdi, [rbp - 440]
	call	__ZN8CryptoPP17ModularArithmeticD2Ev
	mov	rax, r14
	add	rsp, 408
	pop	rbx
	pop	r12
	pop	r13
	pop	r14
	pop	r15
	pop	rbp
	ret
LBB45_24:
	mov	edi, 40
	call	___cxa_allocate_exception
	mov	rbx, rax
Ltmp660:
	lea	rsi, [rip + L_.str.3]
	lea	rdi, [rbp - 168]
	call	__ZNSt3__112basic_stringIcNS_11char_traitsIcEENS_9allocatorIcEEEC1INS_9nullptr_tEEEPKc
Ltmp661:

	mov	r15b, 1
Ltmp663:
	lea	rdx, [rbp - 168]
	mov	rdi, rbx
	mov	esi, 6
	call	__ZN8CryptoPP9ExceptionC2ENS0_9ErrorTypeERKNSt3__112basic_stringIcNS2_11char_traitsIcEENS2_9allocatorIcEEEE
Ltmp664:

	xor	r15d, r15d
Ltmp665:
	mov	rsi, qword ptr [rip + __ZTIN8CryptoPP9ExceptionE@GOTPCREL]
	mov	rdx, qword ptr [rip + __ZN8CryptoPP9ExceptionD1Ev@GOTPCREL]
	mov	rdi, rbx
	call	___cxa_throw
Ltmp666:

	ud2
LBB45_36:
Ltmp662:
	mov	r14, rax
	jmp	LBB45_40
LBB45_37:
Ltmp667:
	mov	r14, rax
	test	byte ptr [rbp - 168], 1
	je	LBB45_39

	mov	rdi, qword ptr [rbp - 152]
	call	__ZdlPv
LBB45_39:
	test	r15b, r15b
	je	LBB45_50
LBB45_40:
	mov	rdi, rbx
	call	___cxa_free_exception
	jmp	LBB45_50
LBB45_34:
Ltmp654:
	mov	r14, rax
	mov	rax, qword ptr [rbp - 48] 
	mov	qword ptr [rbp - 168], rax
	mov	rdx, qword ptr [rbp - 136]
	test	rdx, rdx
	je	LBB45_50

	mov	rax, qword ptr [rbp - 152]
	mov	rcx, qword ptr [rbp - 144]
	cmp	rax, rcx
	cmovb	rcx, rax
	xor	eax, eax
	mov	rdi, rdx
	
	rep		stosq	qword ptr es:[rdi], rax
	
Ltmp655:
	mov	rdi, rdx
	call	__ZN8CryptoPP17AlignedDeallocateEPv
Ltmp656:
	jmp	LBB45_50
LBB45_33:
Ltmp659:
	jmp	LBB45_49
LBB45_32:
Ltmp674:
	jmp	LBB45_55
LBB45_28:
Ltmp679:
	mov	r14, rax
	jmp	LBB45_58
LBB45_60:
Ltmp684:
	mov	r14, rax
	jmp	LBB45_61
LBB45_48:
Ltmp649:
LBB45_49:
	mov	r14, rax
LBB45_50:
	mov	rax, qword ptr [rbp - 48] 
	mov	rdi, qword ptr [rbp - 104] 
	mov	qword ptr [rdi], rax
	add	rdi, 8
Ltmp668:
	call	__ZN8CryptoPP8SecBlockImNS_20AllocatorWithCleanupImLb1EEEED2Ev
Ltmp669:
	jmp	LBB45_52
LBB45_51:
Ltmp644:
	mov	r14, rax
LBB45_52:
	mov	rax, qword ptr [rbp - 48] 
	mov	qword ptr [rbp - 96], rax
	mov	rdx, qword ptr [rbp - 64]
	test	rdx, rdx
	je	LBB45_56

	mov	rax, qword ptr [rbp - 80]
	mov	rcx, qword ptr [rbp - 72]
	cmp	rax, rcx
	cmovb	rcx, rax
	xor	eax, eax
	mov	rdi, rdx
	
	rep		stosq	qword ptr es:[rdi], rax
	
Ltmp670:
	mov	rdi, rdx
	call	__ZN8CryptoPP17AlignedDeallocateEPv
Ltmp671:
	jmp	LBB45_56
LBB45_30:
Ltmp623:
	mov	r14, rax
	mov	rax, qword ptr [rbp - 48] 
	mov	qword ptr [rbp - 96], rax
	mov	rdx, qword ptr [rbp - 64]
	test	rdx, rdx
	je	LBB45_56

	mov	rax, qword ptr [rbp - 80]
	mov	rcx, qword ptr [rbp - 72]
	cmp	rax, rcx
	cmovb	rcx, rax
	xor	eax, eax
	mov	rdi, rdx
	
	rep		stosq	qword ptr es:[rdi], rax
	
Ltmp624:
	mov	rdi, rdx
	call	__ZN8CryptoPP17AlignedDeallocateEPv
Ltmp625:
	jmp	LBB45_56
LBB45_29:
Ltmp628:
	jmp	LBB45_55
LBB45_54:
Ltmp635:
LBB45_55:
	mov	r14, rax
LBB45_56:
	mov	rax, qword ptr [rbp - 48] 
	mov	qword ptr [rbp - 224], rax
	mov	rdx, qword ptr [rbp - 192]
	test	rdx, rdx
	je	LBB45_58

	mov	rax, qword ptr [rbp - 208]
	mov	rcx, qword ptr [rbp - 200]
	cmp	rax, rcx
	cmovb	rcx, rax
	xor	eax, eax
	mov	rdi, rdx
	
	rep		stosq	qword ptr es:[rdi], rax
	
Ltmp675:
	mov	rdi, rdx
	call	__ZN8CryptoPP17AlignedDeallocateEPv
Ltmp676:
LBB45_58:
	mov	rax, qword ptr [rip + __ZTVN8CryptoPP7IntegerE@GOTPCREL]
	add	rax, 16
	mov	qword ptr [rbp - 272], rax
	mov	rdx, qword ptr [rbp - 240]
	test	rdx, rdx
	je	LBB45_61

	mov	rax, qword ptr [rbp - 256]
	mov	rcx, qword ptr [rbp - 248]
	cmp	rax, rcx
	cmovb	rcx, rax
	xor	eax, eax
	mov	rdi, rdx
	
	rep		stosq	qword ptr es:[rdi], rax
	
Ltmp680:
	mov	rdi, rdx
	call	__ZN8CryptoPP17AlignedDeallocateEPv
Ltmp681:
LBB45_61:
Ltmp685:
	lea	rdi, [rbp - 440]
	call	__ZN8CryptoPP17ModularArithmeticD2Ev
Ltmp686:

	mov	rdi, r14
	call	__Unwind_Resume
	ud2
LBB45_63:
Ltmp687:
	mov	rdi, rax
	call	___clang_call_terminate
Lfunc_end15:
	.cfi_endproc
	.section	__TEXT,__gcc_except_tab
	.p2align	2
GCC_except_table45:
Lexception15:
	.byte	255                     
	.byte	155                     
	.uleb128 Lttbase13-Lttbaseref13
Lttbaseref13:
	.byte	1                       
	.uleb128 Lcst_end15-Lcst_begin15
Lcst_begin15:
	.uleb128 Lfunc_begin15-Lfunc_begin15 
	.uleb128 Ltmp611-Lfunc_begin15  
	.byte	0                       
	.byte	0                       
	.uleb128 Ltmp611-Lfunc_begin15  
	.uleb128 Ltmp612-Ltmp611        
	.uleb128 Ltmp684-Lfunc_begin15  
	.byte	0                       
	.uleb128 Ltmp613-Lfunc_begin15  
	.uleb128 Ltmp614-Ltmp613        
	.uleb128 Ltmp679-Lfunc_begin15  
	.byte	0                       
	.uleb128 Ltmp615-Lfunc_begin15  
	.uleb128 Ltmp616-Ltmp615        
	.uleb128 Ltmp635-Lfunc_begin15  
	.byte	0                       
	.uleb128 Ltmp617-Lfunc_begin15  
	.uleb128 Ltmp620-Ltmp617        
	.uleb128 Ltmp628-Lfunc_begin15  
	.byte	0                       
	.uleb128 Ltmp621-Lfunc_begin15  
	.uleb128 Ltmp622-Ltmp621        
	.uleb128 Ltmp623-Lfunc_begin15  
	.byte	0                       
	.uleb128 Ltmp626-Lfunc_begin15  
	.uleb128 Ltmp627-Ltmp626        
	.uleb128 Ltmp628-Lfunc_begin15  
	.byte	0                       
	.uleb128 Ltmp629-Lfunc_begin15  
	.uleb128 Ltmp634-Ltmp629        
	.uleb128 Ltmp635-Lfunc_begin15  
	.byte	0                       
	.uleb128 Ltmp636-Lfunc_begin15  
	.uleb128 Ltmp637-Ltmp636        
	.uleb128 Ltmp674-Lfunc_begin15  
	.byte	0                       
	.uleb128 Ltmp638-Lfunc_begin15  
	.uleb128 Ltmp643-Ltmp638        
	.uleb128 Ltmp644-Lfunc_begin15  
	.byte	0                       
	.uleb128 Ltmp645-Lfunc_begin15  
	.uleb128 Ltmp648-Ltmp645        
	.uleb128 Ltmp649-Lfunc_begin15  
	.byte	0                       
	.uleb128 Ltmp650-Lfunc_begin15  
	.uleb128 Ltmp651-Ltmp650        
	.uleb128 Ltmp659-Lfunc_begin15  
	.byte	0                       
	.uleb128 Ltmp652-Lfunc_begin15  
	.uleb128 Ltmp653-Ltmp652        
	.uleb128 Ltmp654-Lfunc_begin15  
	.byte	0                       
	.uleb128 Ltmp657-Lfunc_begin15  
	.uleb128 Ltmp658-Ltmp657        
	.uleb128 Ltmp659-Lfunc_begin15  
	.byte	0                       
	.uleb128 Ltmp672-Lfunc_begin15  
	.uleb128 Ltmp673-Ltmp672        
	.uleb128 Ltmp674-Lfunc_begin15  
	.byte	0                       
	.uleb128 Ltmp677-Lfunc_begin15  
	.uleb128 Ltmp678-Ltmp677        
	.uleb128 Ltmp679-Lfunc_begin15  
	.byte	0                       
	.uleb128 Ltmp682-Lfunc_begin15  
	.uleb128 Ltmp683-Ltmp682        
	.uleb128 Ltmp684-Lfunc_begin15  
	.byte	0                       
	.uleb128 Ltmp683-Lfunc_begin15  
	.uleb128 Ltmp660-Ltmp683        
	.byte	0                       
	.byte	0                       
	.uleb128 Ltmp660-Lfunc_begin15  
	.uleb128 Ltmp661-Ltmp660        
	.uleb128 Ltmp662-Lfunc_begin15  
	.byte	0                       
	.uleb128 Ltmp663-Lfunc_begin15  
	.uleb128 Ltmp666-Ltmp663        
	.uleb128 Ltmp667-Lfunc_begin15  
	.byte	0                       
	.uleb128 Ltmp666-Lfunc_begin15  
	.uleb128 Ltmp655-Ltmp666        
	.byte	0                       
	.byte	0                       
	.uleb128 Ltmp655-Lfunc_begin15  
	.uleb128 Ltmp686-Ltmp655        
	.uleb128 Ltmp687-Lfunc_begin15  
	.byte	1                       
	.uleb128 Ltmp686-Lfunc_begin15  
	.uleb128 Lfunc_end15-Ltmp686    
	.byte	0                       
	.byte	0                       
Lcst_end15:
	.byte	1                       
                                        
	.byte	0                       
	.p2align	2
                                        
	.long	0                       
Lttbase13:
	.p2align	2
                                        
	.section	__TEXT,__text,regular,pure_instructions
	.globl	__ZNK8CryptoPP17ModularArithmetic21MultiplicativeInverseERKNS_7IntegerE 
	.weak_def_can_be_hidden	__ZNK8CryptoPP17ModularArithmetic21MultiplicativeInverseERKNS_7IntegerE
	.p2align	1, 0x90
__ZNK8CryptoPP17ModularArithmetic21MultiplicativeInverseERKNS_7IntegerE: 
Lfunc_begin16:
	.cfi_startproc
	.cfi_personality 155, ___gxx_personality_v0
	.cfi_lsda 16, Lexception16

	push	rbp
	.cfi_def_cfa_offset 16
	.cfi_offset rbp, -16
	mov	rbp, rsp
	.cfi_def_cfa_register rbp
	push	r14
	push	rbx
	sub	rsp, 48
	.cfi_offset rbx, -32
	.cfi_offset r14, -24
	mov	rbx, rdi
	lea	rdx, [rdi + 24]
	lea	r14, [rbp - 64]
	mov	rdi, r14
	call	__ZNK8CryptoPP7Integer10InverseModERKS0_
	add	rbx, 120
Ltmp688:
	mov	rdi, rbx
	mov	rsi, r14
	call	__ZN8CryptoPP7IntegeraSERKS0_
Ltmp689:

	mov	rbx, rax
	mov	rax, qword ptr [rip + __ZTVN8CryptoPP7IntegerE@GOTPCREL]
	add	rax, 16
	mov	qword ptr [rbp - 64], rax
	mov	rdx, qword ptr [rbp - 32]
	test	rdx, rdx
	je	LBB46_3

	mov	rax, qword ptr [rbp - 48]
	mov	rcx, qword ptr [rbp - 40]
	cmp	rax, rcx
	cmovb	rcx, rax
	xor	eax, eax
	mov	rdi, rdx
	
	rep		stosq	qword ptr es:[rdi], rax
	
	mov	rdi, rdx
	call	__ZN8CryptoPP17AlignedDeallocateEPv
LBB46_3:
	mov	rax, rbx
	add	rsp, 48
	pop	rbx
	pop	r14
	pop	rbp
	ret
LBB46_4:
Ltmp690:
	mov	rbx, rax
	mov	rax, qword ptr [rip + __ZTVN8CryptoPP7IntegerE@GOTPCREL]
	add	rax, 16
	mov	qword ptr [rbp - 64], rax
	mov	rdx, qword ptr [rbp - 32]
	test	rdx, rdx
	je	LBB46_6

	mov	rax, qword ptr [rbp - 48]
	mov	rcx, qword ptr [rbp - 40]
	cmp	rax, rcx
	cmovb	rcx, rax
	xor	eax, eax
	mov	rdi, rdx
	
	rep		stosq	qword ptr es:[rdi], rax
	
Ltmp691:
	mov	rdi, rdx
	call	__ZN8CryptoPP17AlignedDeallocateEPv
Ltmp692:
LBB46_6:
	mov	rdi, rbx
	call	__Unwind_Resume
	ud2
LBB46_7:
Ltmp693:
	mov	rdi, rax
	call	___clang_call_terminate
Lfunc_end16:
	.cfi_endproc
	.section	__TEXT,__gcc_except_tab
	.p2align	2
GCC_except_table46:
Lexception16:
	.byte	255                     
	.byte	155                     
	.uleb128 Lttbase14-Lttbaseref14
Lttbaseref14:
	.byte	1                       
	.uleb128 Lcst_end16-Lcst_begin16
Lcst_begin16:
	.uleb128 Lfunc_begin16-Lfunc_begin16 
	.uleb128 Ltmp688-Lfunc_begin16  
	.byte	0                       
	.byte	0                       
	.uleb128 Ltmp688-Lfunc_begin16  
	.uleb128 Ltmp689-Ltmp688        
	.uleb128 Ltmp690-Lfunc_begin16  
	.byte	0                       
	.uleb128 Ltmp689-Lfunc_begin16  
	.uleb128 Ltmp691-Ltmp689        
	.byte	0                       
	.byte	0                       
	.uleb128 Ltmp691-Lfunc_begin16  
	.uleb128 Ltmp692-Ltmp691        
	.uleb128 Ltmp693-Lfunc_begin16  
	.byte	1                       
	.uleb128 Ltmp692-Lfunc_begin16  
	.uleb128 Lfunc_end16-Ltmp692    
	.byte	0                       
	.byte	0                       
Lcst_end16:
	.byte	1                       
                                        
	.byte	0                       
	.p2align	2
                                        
	.long	0                       
Lttbase14:
	.p2align	2
                                        
	.section	__TEXT,__text,regular,pure_instructions
	.globl	__ZNK8CryptoPP17ModularArithmetic8MultiplyERKNS_7IntegerES3_ 
	.weak_def_can_be_hidden	__ZNK8CryptoPP17ModularArithmetic8MultiplyERKNS_7IntegerES3_
	.p2align	1, 0x90
__ZNK8CryptoPP17ModularArithmetic8MultiplyERKNS_7IntegerES3_: 
Lfunc_begin17:
	.cfi_startproc
	.cfi_personality 155, ___gxx_personality_v0
	.cfi_lsda 16, Lexception17

	push	rbp
	.cfi_def_cfa_offset 16
	.cfi_offset rbp, -16
	mov	rbp, rsp
	.cfi_def_cfa_register rbp
	push	r14
	push	rbx
	sub	rsp, 96
	.cfi_offset rbx, -32
	.cfi_offset r14, -24
	mov	rbx, rdi
	lea	r14, [rbp - 112]
	mov	rdi, r14
	call	__ZNK8CryptoPP7Integer5TimesERKS0_
	lea	rdx, [rbx + 24]
Ltmp694:
	lea	rdi, [rbp - 64]
	mov	rsi, r14
	call	__ZNK8CryptoPP7Integer6ModuloERKS0_
Ltmp695:

	add	rbx, 120
Ltmp696:
	lea	rsi, [rbp - 64]
	mov	rdi, rbx
	call	__ZN8CryptoPP7IntegeraSERKS0_
Ltmp697:

	mov	r14, rax
	mov	rbx, qword ptr [rip + __ZTVN8CryptoPP7IntegerE@GOTPCREL]
	add	rbx, 16
	mov	qword ptr [rbp - 64], rbx
	mov	rdx, qword ptr [rbp - 32]
	test	rdx, rdx
	je	LBB47_4

	mov	rax, qword ptr [rbp - 48]
	mov	rcx, qword ptr [rbp - 40]
	cmp	rax, rcx
	cmovb	rcx, rax
	xor	eax, eax
	mov	rdi, rdx
	
	rep		stosq	qword ptr es:[rdi], rax
	
Ltmp701:
	mov	rdi, rdx
	call	__ZN8CryptoPP17AlignedDeallocateEPv
Ltmp702:
LBB47_4:
	mov	qword ptr [rbp - 112], rbx
	mov	rdx, qword ptr [rbp - 80]
	test	rdx, rdx
	je	LBB47_6

	mov	rax, qword ptr [rbp - 96]
	mov	rcx, qword ptr [rbp - 88]
	cmp	rax, rcx
	cmovb	rcx, rax
	xor	eax, eax
	mov	rdi, rdx
	
	rep		stosq	qword ptr es:[rdi], rax
	
	mov	rdi, rdx
	call	__ZN8CryptoPP17AlignedDeallocateEPv
LBB47_6:
	mov	rax, r14
	add	rsp, 96
	pop	rbx
	pop	r14
	pop	rbp
	ret
LBB47_8:
Ltmp698:
	mov	rbx, rax
	mov	rax, qword ptr [rip + __ZTVN8CryptoPP7IntegerE@GOTPCREL]
	add	rax, 16
	mov	qword ptr [rbp - 64], rax
	mov	rdx, qword ptr [rbp - 32]
	test	rdx, rdx
	je	LBB47_10

	mov	rax, qword ptr [rbp - 48]
	mov	rcx, qword ptr [rbp - 40]
	cmp	rax, rcx
	cmovb	rcx, rax
	xor	eax, eax
	mov	rdi, rdx
	
	rep		stosq	qword ptr es:[rdi], rax
	
Ltmp699:
	mov	rdi, rdx
	call	__ZN8CryptoPP17AlignedDeallocateEPv
Ltmp700:
	jmp	LBB47_10
LBB47_7:
Ltmp703:
	mov	rbx, rax
LBB47_10:
	mov	rax, qword ptr [rip + __ZTVN8CryptoPP7IntegerE@GOTPCREL]
	add	rax, 16
	mov	qword ptr [rbp - 112], rax
	mov	rdx, qword ptr [rbp - 80]
	test	rdx, rdx
	je	LBB47_12

	mov	rax, qword ptr [rbp - 96]
	mov	rcx, qword ptr [rbp - 88]
	cmp	rax, rcx
	cmovb	rcx, rax
	xor	eax, eax
	mov	rdi, rdx
	
	rep		stosq	qword ptr es:[rdi], rax
	
Ltmp704:
	mov	rdi, rdx
	call	__ZN8CryptoPP17AlignedDeallocateEPv
Ltmp705:
LBB47_12:
	mov	rdi, rbx
	call	__Unwind_Resume
	ud2
LBB47_13:
Ltmp706:
	mov	rdi, rax
	call	___clang_call_terminate
Lfunc_end17:
	.cfi_endproc
	.section	__TEXT,__gcc_except_tab
	.p2align	2
GCC_except_table47:
Lexception17:
	.byte	255                     
	.byte	155                     
	.uleb128 Lttbase15-Lttbaseref15
Lttbaseref15:
	.byte	1                       
	.uleb128 Lcst_end17-Lcst_begin17
Lcst_begin17:
	.uleb128 Lfunc_begin17-Lfunc_begin17 
	.uleb128 Ltmp694-Lfunc_begin17  
	.byte	0                       
	.byte	0                       
	.uleb128 Ltmp694-Lfunc_begin17  
	.uleb128 Ltmp695-Ltmp694        
	.uleb128 Ltmp703-Lfunc_begin17  
	.byte	0                       
	.uleb128 Ltmp696-Lfunc_begin17  
	.uleb128 Ltmp697-Ltmp696        
	.uleb128 Ltmp698-Lfunc_begin17  
	.byte	0                       
	.uleb128 Ltmp701-Lfunc_begin17  
	.uleb128 Ltmp702-Ltmp701        
	.uleb128 Ltmp703-Lfunc_begin17  
	.byte	0                       
	.uleb128 Ltmp702-Lfunc_begin17  
	.uleb128 Ltmp699-Ltmp702        
	.byte	0                       
	.byte	0                       
	.uleb128 Ltmp699-Lfunc_begin17  
	.uleb128 Ltmp705-Ltmp699        
	.uleb128 Ltmp706-Lfunc_begin17  
	.byte	1                       
	.uleb128 Ltmp705-Lfunc_begin17  
	.uleb128 Lfunc_end17-Ltmp705    
	.byte	0                       
	.byte	0                       
Lcst_end17:
	.byte	1                       
                                        
	.byte	0                       
	.p2align	2
                                        
	.long	0                       
Lttbase15:
	.p2align	2
                                        
	.section	__TEXT,__text,regular,pure_instructions
	.globl	__ZN8CryptoPP9ExceptionD1Ev 
	.weak_def_can_be_hidden	__ZN8CryptoPP9ExceptionD1Ev
	.p2align	1, 0x90
__ZN8CryptoPP9ExceptionD1Ev:            

	push	rbp
	mov	rbp, rsp
	pop	rbp
	jmp	__ZN8CryptoPP9ExceptionD2Ev 
                                        
	.globl	__ZThn120_NK8CryptoPP21InvertibleRSAFunction16CalculateInverseERNS_21RandomNumberGeneratorERKNS_7IntegerE 
	.p2align	1, 0x90
__ZThn120_NK8CryptoPP21InvertibleRSAFunction16CalculateInverseERNS_21RandomNumberGeneratorERKNS_7IntegerE: 
	.cfi_startproc

	push	rbp
	.cfi_def_cfa_offset 16
	.cfi_offset rbp, -16
	mov	rbp, rsp
	.cfi_def_cfa_register rbp
	push	rbx
	push	rax
	.cfi_offset rbx, -24
	mov	rbx, rdi
	add	rsi, -120
	call	__ZNK8CryptoPP21InvertibleRSAFunction16CalculateInverseERNS_21RandomNumberGeneratorERKNS_7IntegerE
	mov	rax, rbx
	add	rsp, 8
	pop	rbx
	pop	rbp
	ret
	.cfi_endproc
                                        
	.globl	__ZNK8CryptoPP21InvertibleRSAFunction8ValidateERNS_21RandomNumberGeneratorEj 
	.p2align	1, 0x90
__ZNK8CryptoPP21InvertibleRSAFunction8ValidateERNS_21RandomNumberGeneratorEj: 
Lfunc_begin18:
	.cfi_startproc
	.cfi_personality 155, ___gxx_personality_v0
	.cfi_lsda 16, Lexception18

	push	rbp
	.cfi_def_cfa_offset 16
	.cfi_offset rbp, -16
	mov	rbp, rsp
	.cfi_def_cfa_register rbp
	push	r15
	push	r14
	push	r13
	push	r12
	push	rbx
	sub	rsp, 408
	.cfi_offset rbx, -56
	.cfi_offset r12, -48
	.cfi_offset r13, -40
	.cfi_offset r14, -32
	.cfi_offset r15, -24
	mov	r14d, edx
	mov	rbx, rsi
	mov	r15, rdi
	call	__ZNK8CryptoPP11RSAFunction8ValidateERNS_21RandomNumberGeneratorEj
	test	al, al
	mov	qword ptr [rbp - 352], rbx 
	je	LBB50_4

	lea	r12, [r15 + 272]
	call	__ZN8CryptoPP7Integer3OneEv
	mov	rdi, r12
	mov	rsi, rax
	call	__ZNK8CryptoPP7Integer7CompareERKS0_
	test	eax, eax
	jle	LBB50_4

	xor	ebx, ebx
	mov	rdi, r12
	xor	esi, esi
	call	__ZNK8CryptoPP7Integer6GetBitEm
	test	al, al
	je	LBB50_5

	lea	r13, [r15 + 24]
	mov	rdi, r12
	mov	rsi, r13
	call	__ZNK8CryptoPP7Integer7CompareERKS0_
	test	eax, eax
	js	LBB50_41
LBB50_4:
	xor	ebx, ebx
LBB50_5:
	test	r14d, r14d
	je	LBB50_88

	test	bl, bl
	je	LBB50_82

	lea	r12, [r15 + 272]
	lea	rdx, [r15 + 320]
	lea	rbx, [rbp - 96]
	mov	rdi, rbx
	mov	rsi, r12
	mov	qword ptr [rbp - 48], rdx 
	call	__ZNK8CryptoPP7Integer5TimesERKS0_
	lea	rsi, [r15 + 24]
Ltmp707:
	mov	rdi, rbx
	call	__ZNK8CryptoPP7Integer7CompareERKS0_
Ltmp708:

	mov	ebx, eax
	mov	r13, qword ptr [rip + __ZTVN8CryptoPP7IntegerE@GOTPCREL]
	add	r13, 16
	mov	qword ptr [rbp - 96], r13
	mov	rdx, qword ptr [rbp - 64]
	test	rdx, rdx
	je	LBB50_10

	mov	rax, qword ptr [rbp - 80]
	mov	rcx, qword ptr [rbp - 72]
	cmp	rax, rcx
	cmovb	rcx, rax
	xor	eax, eax
	mov	rdi, rdx
	
	rep		stosq	qword ptr es:[rdi], rax
	
	mov	rdi, rdx
	call	__ZN8CryptoPP17AlignedDeallocateEPv
LBB50_10:
	test	ebx, ebx
	jne	LBB50_82

	lea	rsi, [r15 + 72]
	lea	rdx, [r15 + 224]
	lea	rdi, [rbp - 200]
	mov	qword ptr [rbp - 104], rdx 
	call	__ZNK8CryptoPP7Integer5TimesERKS0_
Ltmp712:
	lea	rdi, [rbp - 296]
	mov	esi, 1
	call	__ZN8CryptoPP7IntegerC1El
Ltmp713:

Ltmp714:
	lea	rdi, [rbp - 344]
	lea	rdx, [rbp - 296]
	mov	rsi, r12
	call	__ZNK8CryptoPP7Integer5MinusERKS0_
Ltmp715:

Ltmp716:
	lea	rdi, [rbp - 448]
	mov	esi, 1
	call	__ZN8CryptoPP7IntegerC1El
Ltmp717:

Ltmp718:
	lea	rdi, [rbp - 248]
	lea	rdx, [rbp - 448]
	mov	rsi, qword ptr [rbp - 48] 
	call	__ZNK8CryptoPP7Integer5MinusERKS0_
Ltmp719:

Ltmp720:
	lea	rdi, [rbp - 152]
	lea	rsi, [rbp - 344]
	lea	rdx, [rbp - 248]
	call	__ZN8CryptoPP3LCMERKNS_7IntegerES2_
Ltmp721:

Ltmp722:
	lea	rdi, [rbp - 96]
	lea	rsi, [rbp - 200]
	lea	rdx, [rbp - 152]
	call	__ZNK8CryptoPP7Integer6ModuloERKS0_
Ltmp723:

Ltmp724:
	lea	rdi, [rbp - 400]
	mov	esi, 1
	call	__ZN8CryptoPP7IntegerC1El
Ltmp725:

Ltmp726:
	lea	rdi, [rbp - 96]
	lea	rsi, [rbp - 400]
	call	__ZNK8CryptoPP7Integer7CompareERKS0_
Ltmp727:

	mov	ebx, eax
	mov	qword ptr [rbp - 400], r13
	mov	rdx, qword ptr [rbp - 368]
	test	rdx, rdx
	je	LBB50_21

	mov	rax, qword ptr [rbp - 384]
	mov	rcx, qword ptr [rbp - 376]
	cmp	rax, rcx
	cmovb	rcx, rax
	xor	eax, eax
	mov	rdi, rdx
	
	rep		stosq	qword ptr es:[rdi], rax
	
Ltmp731:
	mov	rdi, rdx
	call	__ZN8CryptoPP17AlignedDeallocateEPv
Ltmp732:
LBB50_21:
	mov	qword ptr [rbp - 96], r13
	mov	rdx, qword ptr [rbp - 64]
	test	rdx, rdx
	je	LBB50_23

	mov	rax, qword ptr [rbp - 80]
	mov	rcx, qword ptr [rbp - 72]
	cmp	rax, rcx
	cmovb	rcx, rax
	xor	eax, eax
	mov	rdi, rdx
	
	rep		stosq	qword ptr es:[rdi], rax
	
Ltmp736:
	mov	rdi, rdx
	call	__ZN8CryptoPP17AlignedDeallocateEPv
Ltmp737:
LBB50_23:
	mov	qword ptr [rbp - 152], r13
	mov	rdx, qword ptr [rbp - 120]
	test	rdx, rdx
	je	LBB50_25

	mov	rax, qword ptr [rbp - 136]
	mov	rcx, qword ptr [rbp - 128]
	cmp	rax, rcx
	cmovb	rcx, rax
	xor	eax, eax
	mov	rdi, rdx
	
	rep		stosq	qword ptr es:[rdi], rax
	
Ltmp741:
	mov	rdi, rdx
	call	__ZN8CryptoPP17AlignedDeallocateEPv
Ltmp742:
LBB50_25:
	mov	qword ptr [rbp - 248], r13
	mov	rdx, qword ptr [rbp - 216]
	test	rdx, rdx
	je	LBB50_27

	mov	rax, qword ptr [rbp - 232]
	mov	rcx, qword ptr [rbp - 224]
	cmp	rax, rcx
	cmovb	rcx, rax
	xor	eax, eax
	mov	rdi, rdx
	
	rep		stosq	qword ptr es:[rdi], rax
	
Ltmp746:
	mov	rdi, rdx
	call	__ZN8CryptoPP17AlignedDeallocateEPv
Ltmp747:
LBB50_27:
	mov	qword ptr [rbp - 448], r13
	mov	rdx, qword ptr [rbp - 416]
	test	rdx, rdx
	je	LBB50_29

	mov	rax, qword ptr [rbp - 432]
	mov	rcx, qword ptr [rbp - 424]
	cmp	rax, rcx
	cmovb	rcx, rax
	xor	eax, eax
	mov	rdi, rdx
	
	rep		stosq	qword ptr es:[rdi], rax
	
Ltmp751:
	mov	rdi, rdx
	call	__ZN8CryptoPP17AlignedDeallocateEPv
Ltmp752:
LBB50_29:
	mov	qword ptr [rbp - 344], r13
	mov	rdx, qword ptr [rbp - 312]
	test	rdx, rdx
	je	LBB50_31

	mov	rax, qword ptr [rbp - 328]
	mov	rcx, qword ptr [rbp - 320]
	cmp	rax, rcx
	cmovb	rcx, rax
	xor	eax, eax
	mov	rdi, rdx
	
	rep		stosq	qword ptr es:[rdi], rax
	
Ltmp756:
	mov	rdi, rdx
	call	__ZN8CryptoPP17AlignedDeallocateEPv
Ltmp757:
LBB50_31:
	mov	qword ptr [rbp - 296], r13
	mov	rdx, qword ptr [rbp - 264]
	test	rdx, rdx
	je	LBB50_33

	mov	rax, qword ptr [rbp - 280]
	mov	rcx, qword ptr [rbp - 272]
	cmp	rax, rcx
	cmovb	rcx, rax
	xor	eax, eax
	mov	rdi, rdx
	
	rep		stosq	qword ptr es:[rdi], rax
	
Ltmp761:
	mov	rdi, rdx
	call	__ZN8CryptoPP17AlignedDeallocateEPv
Ltmp762:
LBB50_33:
	mov	qword ptr [rbp - 200], r13
	mov	rdx, qword ptr [rbp - 168]
	test	rdx, rdx
	je	LBB50_35

	mov	rax, qword ptr [rbp - 184]
	mov	rcx, qword ptr [rbp - 176]
	cmp	rax, rcx
	cmovb	rcx, rax
	xor	eax, eax
	mov	rdi, rdx
	
	rep		stosq	qword ptr es:[rdi], rax
	
	mov	rdi, rdx
	call	__ZN8CryptoPP17AlignedDeallocateEPv
LBB50_35:
	test	ebx, ebx
	jne	LBB50_82

	lea	rbx, [rbp - 152]
	mov	esi, 1
	mov	rdi, rbx
	call	__ZN8CryptoPP7IntegerC1El
Ltmp766:
	lea	rdi, [rbp - 200]
	mov	rsi, r12
	mov	rdx, rbx
	call	__ZNK8CryptoPP7Integer5MinusERKS0_
Ltmp767:

Ltmp768:
	lea	rdi, [rbp - 96]
	lea	rdx, [rbp - 200]
	mov	rbx, qword ptr [rbp - 104] 
	mov	rsi, rbx
	call	__ZNK8CryptoPP7Integer6ModuloERKS0_
Ltmp769:

	lea	rdi, [r15 + 368]
Ltmp770:
	lea	rsi, [rbp - 96]
	call	__ZNK8CryptoPP7Integer7CompareERKS0_
Ltmp771:

	test	eax, eax
	je	LBB50_56

	xor	ebx, ebx
	jmp	LBB50_66
LBB50_41:
	lea	rbx, [r15 + 320]
	call	__ZN8CryptoPP7Integer3OneEv
	mov	rdi, rbx
	mov	rsi, rax
	call	__ZNK8CryptoPP7Integer7CompareERKS0_
	test	eax, eax
	jle	LBB50_4

	mov	rdi, rbx
	xor	ebx, ebx
	mov	qword ptr [rbp - 48], rdi 
	xor	esi, esi
	call	__ZNK8CryptoPP7Integer6GetBitEm
	test	al, al
	je	LBB50_5

	mov	rdi, qword ptr [rbp - 48] 
	mov	rsi, r13
	call	__ZNK8CryptoPP7Integer7CompareERKS0_
	test	eax, eax
	jns	LBB50_4

	lea	rbx, [r15 + 224]
	call	__ZN8CryptoPP7Integer3OneEv
	mov	qword ptr [rbp - 104], rbx 
	mov	rdi, rbx
	mov	rsi, rax
	call	__ZNK8CryptoPP7Integer7CompareERKS0_
	test	eax, eax
	jle	LBB50_4

	xor	ebx, ebx
	mov	rdi, qword ptr [rbp - 104] 
	xor	esi, esi
	call	__ZNK8CryptoPP7Integer6GetBitEm
	test	al, al
	je	LBB50_5

	mov	rdi, qword ptr [rbp - 104] 
	mov	rsi, r13
	call	__ZNK8CryptoPP7Integer7CompareERKS0_
	test	eax, eax
	jns	LBB50_4

	lea	r13, [r15 + 368]
	call	__ZN8CryptoPP7Integer3OneEv
	mov	rdi, r13
	mov	rsi, rax
	call	__ZNK8CryptoPP7Integer7CompareERKS0_
	test	eax, eax
	jle	LBB50_4

	xor	ebx, ebx
	mov	rdi, r13
	xor	esi, esi
	call	__ZNK8CryptoPP7Integer6GetBitEm
	test	al, al
	je	LBB50_5

	mov	rdi, r13
	mov	rsi, r12
	call	__ZNK8CryptoPP7Integer7CompareERKS0_
	test	eax, eax
	jns	LBB50_4

	lea	r13, [r15 + 416]
	call	__ZN8CryptoPP7Integer3OneEv
	mov	rdi, r13
	mov	rsi, rax
	call	__ZNK8CryptoPP7Integer7CompareERKS0_
	test	eax, eax
	jle	LBB50_4

	xor	ebx, ebx
	mov	rdi, r13
	xor	esi, esi
	call	__ZNK8CryptoPP7Integer6GetBitEm
	test	al, al
	mov	rsi, qword ptr [rbp - 48] 
	je	LBB50_5

	mov	rdi, r13
	call	__ZNK8CryptoPP7Integer7CompareERKS0_
	test	eax, eax
	jns	LBB50_4

	cmp	dword ptr [r15 + 504], 1
	je	LBB50_4

	lea	rbx, [r15 + 464]
	mov	rdi, rbx
	call	__ZNK8CryptoPP7IntegerntEv
	test	al, al
	jne	LBB50_4

	mov	rdi, rbx
	mov	rsi, r12
	call	__ZNK8CryptoPP7Integer7CompareERKS0_
	mov	ebx, eax
	shr	ebx, 31
	jmp	LBB50_5
LBB50_56:
Ltmp773:
	lea	rdi, [rbp - 248]
	mov	esi, 1
	call	__ZN8CryptoPP7IntegerC1El
Ltmp774:

Ltmp775:
	lea	rdi, [rbp - 296]
	lea	rdx, [rbp - 248]
	mov	rsi, qword ptr [rbp - 48] 
	call	__ZNK8CryptoPP7Integer5MinusERKS0_
Ltmp776:

Ltmp777:
	lea	rdi, [rbp - 344]
	lea	rdx, [rbp - 296]
	mov	rsi, rbx
	call	__ZNK8CryptoPP7Integer6ModuloERKS0_
Ltmp778:

	lea	rdi, [r15 + 416]
Ltmp779:
	lea	rsi, [rbp - 344]
	call	__ZNK8CryptoPP7Integer7CompareERKS0_
Ltmp780:

	test	eax, eax
	sete	bl
	mov	qword ptr [rbp - 344], r13
	mov	rdx, qword ptr [rbp - 312]
	test	rdx, rdx
	je	LBB50_62

	mov	rax, qword ptr [rbp - 328]
	mov	rcx, qword ptr [rbp - 320]
	cmp	rax, rcx
	cmovb	rcx, rax
	xor	eax, eax
	mov	rdi, rdx
	
	rep		stosq	qword ptr es:[rdi], rax
	
Ltmp784:
	mov	rdi, rdx
	call	__ZN8CryptoPP17AlignedDeallocateEPv
Ltmp785:
LBB50_62:
	mov	qword ptr [rbp - 296], r13
	mov	rdx, qword ptr [rbp - 264]
	test	rdx, rdx
	je	LBB50_64

	mov	rax, qword ptr [rbp - 280]
	mov	rcx, qword ptr [rbp - 272]
	cmp	rax, rcx
	cmovb	rcx, rax
	xor	eax, eax
	mov	rdi, rdx
	
	rep		stosq	qword ptr es:[rdi], rax
	
Ltmp789:
	mov	rdi, rdx
	call	__ZN8CryptoPP17AlignedDeallocateEPv
Ltmp790:
LBB50_64:
	mov	qword ptr [rbp - 248], r13
	mov	rdx, qword ptr [rbp - 216]
	test	rdx, rdx
	je	LBB50_66

	mov	rax, qword ptr [rbp - 232]
	mov	rcx, qword ptr [rbp - 224]
	cmp	rax, rcx
	cmovb	rcx, rax
	xor	eax, eax
	mov	rdi, rdx
	
	rep		stosq	qword ptr es:[rdi], rax
	
Ltmp794:
	mov	rdi, rdx
	call	__ZN8CryptoPP17AlignedDeallocateEPv
Ltmp795:
LBB50_66:
	mov	qword ptr [rbp - 96], r13
	mov	rdx, qword ptr [rbp - 64]
	test	rdx, rdx
	je	LBB50_68

	mov	rax, qword ptr [rbp - 80]
	mov	rcx, qword ptr [rbp - 72]
	cmp	rax, rcx
	cmovb	rcx, rax
	xor	eax, eax
	mov	rdi, rdx
	
	rep		stosq	qword ptr es:[rdi], rax
	
Ltmp799:
	mov	rdi, rdx
	call	__ZN8CryptoPP17AlignedDeallocateEPv
Ltmp800:
LBB50_68:
	mov	qword ptr [rbp - 200], r13
	mov	rdx, qword ptr [rbp - 168]
	test	rdx, rdx
	je	LBB50_70

	mov	rax, qword ptr [rbp - 184]
	mov	rcx, qword ptr [rbp - 176]
	cmp	rax, rcx
	cmovb	rcx, rax
	xor	eax, eax
	mov	rdi, rdx
	
	rep		stosq	qword ptr es:[rdi], rax
	
Ltmp804:
	mov	rdi, rdx
	call	__ZN8CryptoPP17AlignedDeallocateEPv
Ltmp805:
LBB50_70:
	mov	qword ptr [rbp - 152], r13
	mov	rdx, qword ptr [rbp - 120]
	test	rdx, rdx
	je	LBB50_72

	mov	rax, qword ptr [rbp - 136]
	mov	rcx, qword ptr [rbp - 128]
	cmp	rax, rcx
	cmovb	rcx, rax
	xor	eax, eax
	mov	rdi, rdx
	
	rep		stosq	qword ptr es:[rdi], rax
	
	mov	rdi, rdx
	call	__ZN8CryptoPP17AlignedDeallocateEPv
LBB50_72:
	test	bl, bl
	je	LBB50_82

	lea	rsi, [r15 + 464]
	lea	rbx, [rbp - 200]
	mov	rdi, rbx
	mov	rdx, qword ptr [rbp - 48] 
	call	__ZNK8CryptoPP7Integer5TimesERKS0_
Ltmp809:
	lea	rdi, [rbp - 96]
	mov	rsi, rbx
	mov	rdx, r12
	call	__ZNK8CryptoPP7Integer6ModuloERKS0_
Ltmp810:

Ltmp811:
	lea	rdi, [rbp - 152]
	mov	esi, 1
	call	__ZN8CryptoPP7IntegerC1El
Ltmp812:

Ltmp813:
	lea	rdi, [rbp - 96]
	lea	rsi, [rbp - 152]
	call	__ZNK8CryptoPP7Integer7CompareERKS0_
Ltmp814:

	test	eax, eax
	sete	bl
	mov	qword ptr [rbp - 152], r13
	mov	rdx, qword ptr [rbp - 120]
	test	rdx, rdx
	je	LBB50_78

	mov	rax, qword ptr [rbp - 136]
	mov	rcx, qword ptr [rbp - 128]
	cmp	rax, rcx
	cmovb	rcx, rax
	xor	eax, eax
	mov	rdi, rdx
	
	rep		stosq	qword ptr es:[rdi], rax
	
Ltmp818:
	mov	rdi, rdx
	call	__ZN8CryptoPP17AlignedDeallocateEPv
Ltmp819:
LBB50_78:
	mov	qword ptr [rbp - 96], r13
	mov	rdx, qword ptr [rbp - 64]
	test	rdx, rdx
	je	LBB50_80

	mov	rax, qword ptr [rbp - 80]
	mov	rcx, qword ptr [rbp - 72]
	cmp	rax, rcx
	cmovb	rcx, rax
	xor	eax, eax
	mov	rdi, rdx
	
	rep		stosq	qword ptr es:[rdi], rax
	
Ltmp823:
	mov	rdi, rdx
	call	__ZN8CryptoPP17AlignedDeallocateEPv
Ltmp824:
LBB50_80:
	mov	qword ptr [rbp - 200], r13
	mov	rdx, qword ptr [rbp - 168]
	test	rdx, rdx
	je	LBB50_83

	mov	rax, qword ptr [rbp - 184]
	mov	rcx, qword ptr [rbp - 176]
	cmp	rax, rcx
	cmovb	rcx, rax
	xor	eax, eax
	mov	rdi, rdx
	
	rep		stosq	qword ptr es:[rdi], rax
	
	mov	rdi, rdx
	call	__ZN8CryptoPP17AlignedDeallocateEPv
	jmp	LBB50_83
LBB50_82:
	xor	ebx, ebx
LBB50_83:
	cmp	r14d, 2
	jb	LBB50_88

	test	bl, bl
	je	LBB50_87

	lea	rsi, [r15 + 272]
	add	r14d, -2
	mov	rbx, qword ptr [rbp - 352] 
	mov	rdi, rbx
	mov	edx, r14d
	call	__ZN8CryptoPP11VerifyPrimeERNS_21RandomNumberGeneratorERKNS_7IntegerEj
	test	al, al
	je	LBB50_87

	add	r15, 320
	mov	rdi, rbx
	mov	rsi, r15
	mov	edx, r14d
	call	__ZN8CryptoPP11VerifyPrimeERNS_21RandomNumberGeneratorERKNS_7IntegerEj
	mov	ebx, eax
	jmp	LBB50_88
LBB50_87:
	xor	ebx, ebx
LBB50_88:
	mov	eax, ebx
	add	rsp, 408
	pop	rbx
	pop	r12
	pop	r13
	pop	r14
	pop	r15
	pop	rbp
	ret
LBB50_89:
Ltmp781:
	mov	rbx, rax
	mov	qword ptr [rbp - 344], r13
	mov	rdx, qword ptr [rbp - 312]
	test	rdx, rdx
	je	LBB50_96

	mov	rax, qword ptr [rbp - 328]
	mov	rcx, qword ptr [rbp - 320]
	cmp	rax, rcx
	cmovb	rcx, rax
	xor	eax, eax
	mov	rdi, rdx
	
	rep		stosq	qword ptr es:[rdi], rax
	
Ltmp782:
	mov	rdi, rdx
	call	__ZN8CryptoPP17AlignedDeallocateEPv
Ltmp783:
	jmp	LBB50_96
LBB50_91:
Ltmp815:
	mov	rbx, rax
	mov	qword ptr [rbp - 152], r13
	mov	rdx, qword ptr [rbp - 120]
	test	rdx, rdx
	je	LBB50_102

	mov	rax, qword ptr [rbp - 136]
	mov	rcx, qword ptr [rbp - 128]
	cmp	rax, rcx
	cmovb	rcx, rax
	xor	eax, eax
	mov	rdi, rdx
	
	rep		stosq	qword ptr es:[rdi], rax
	
Ltmp816:
	mov	rdi, rdx
	call	__ZN8CryptoPP17AlignedDeallocateEPv
Ltmp817:
	jmp	LBB50_102
LBB50_93:
Ltmp796:
	jmp	LBB50_107
LBB50_94:
Ltmp791:
	mov	rbx, rax
	jmp	LBB50_98
LBB50_95:
Ltmp786:
	mov	rbx, rax
LBB50_96:
	mov	qword ptr [rbp - 296], r13
	mov	rdx, qword ptr [rbp - 264]
	test	rdx, rdx
	je	LBB50_98

	mov	rax, qword ptr [rbp - 280]
	mov	rcx, qword ptr [rbp - 272]
	cmp	rax, rcx
	cmovb	rcx, rax
	xor	eax, eax
	mov	rdi, rdx
	
	rep		stosq	qword ptr es:[rdi], rax
	
Ltmp787:
	mov	rdi, rdx
	call	__ZN8CryptoPP17AlignedDeallocateEPv
Ltmp788:
LBB50_98:
	mov	qword ptr [rbp - 248], r13
	mov	rdx, qword ptr [rbp - 216]
	test	rdx, rdx
	je	LBB50_108

	mov	rax, qword ptr [rbp - 232]
	mov	rcx, qword ptr [rbp - 224]
	cmp	rax, rcx
	cmovb	rcx, rax
	xor	eax, eax
	mov	rdi, rdx
	
	rep		stosq	qword ptr es:[rdi], rax
	
Ltmp792:
	mov	rdi, rdx
	call	__ZN8CryptoPP17AlignedDeallocateEPv
Ltmp793:
	jmp	LBB50_108
LBB50_100:
Ltmp825:
	mov	rbx, rax
	jmp	LBB50_104
LBB50_101:
Ltmp820:
	mov	rbx, rax
LBB50_102:
	mov	qword ptr [rbp - 96], r13
	mov	rdx, qword ptr [rbp - 64]
	test	rdx, rdx
	je	LBB50_104

	mov	rax, qword ptr [rbp - 80]
	mov	rcx, qword ptr [rbp - 72]
	cmp	rax, rcx
	cmovb	rcx, rax
	xor	eax, eax
	mov	rdi, rdx
	
	rep		stosq	qword ptr es:[rdi], rax
	
Ltmp821:
	mov	rdi, rdx
	call	__ZN8CryptoPP17AlignedDeallocateEPv
Ltmp822:
LBB50_104:
	mov	qword ptr [rbp - 200], r13
	mov	rdx, qword ptr [rbp - 168]
	test	rdx, rdx
	je	LBB50_139

	mov	rax, qword ptr [rbp - 184]
	mov	rcx, qword ptr [rbp - 176]
	cmp	rax, rcx
	cmovb	rcx, rax
	xor	eax, eax
	mov	rdi, rdx
	
	rep		stosq	qword ptr es:[rdi], rax
	
Ltmp826:
	mov	rdi, rdx
	call	__ZN8CryptoPP17AlignedDeallocateEPv
Ltmp827:
	jmp	LBB50_139
LBB50_106:
Ltmp772:
LBB50_107:
	mov	rbx, rax
LBB50_108:
	mov	qword ptr [rbp - 96], r13
	mov	rdx, qword ptr [rbp - 64]
	test	rdx, rdx
	je	LBB50_112

	mov	rax, qword ptr [rbp - 80]
	mov	rcx, qword ptr [rbp - 72]
	cmp	rax, rcx
	cmovb	rcx, rax
	xor	eax, eax
	mov	rdi, rdx
	
	rep		stosq	qword ptr es:[rdi], rax
	
Ltmp797:
	mov	rdi, rdx
	call	__ZN8CryptoPP17AlignedDeallocateEPv
Ltmp798:
	jmp	LBB50_112
LBB50_110:
Ltmp806:
	mov	rbx, rax
	jmp	LBB50_114
LBB50_111:
Ltmp801:
	mov	rbx, rax
LBB50_112:
	mov	qword ptr [rbp - 200], r13
	mov	rdx, qword ptr [rbp - 168]
	test	rdx, rdx
	je	LBB50_114

	mov	rax, qword ptr [rbp - 184]
	mov	rcx, qword ptr [rbp - 176]
	cmp	rax, rcx
	cmovb	rcx, rax
	xor	eax, eax
	mov	rdi, rdx
	
	rep		stosq	qword ptr es:[rdi], rax
	
Ltmp802:
	mov	rdi, rdx
	call	__ZN8CryptoPP17AlignedDeallocateEPv
Ltmp803:
LBB50_114:
	mov	qword ptr [rbp - 152], r13
	mov	rdx, qword ptr [rbp - 120]
	test	rdx, rdx
	je	LBB50_139

	mov	rax, qword ptr [rbp - 136]
	mov	rcx, qword ptr [rbp - 128]
	cmp	rax, rcx
	cmovb	rcx, rax
	xor	eax, eax
	mov	rdi, rdx
	
	rep		stosq	qword ptr es:[rdi], rax
	
Ltmp807:
	mov	rdi, rdx
	call	__ZN8CryptoPP17AlignedDeallocateEPv
Ltmp808:
	jmp	LBB50_139
LBB50_116:
Ltmp728:
	mov	rbx, rax
	mov	qword ptr [rbp - 400], r13
	mov	rdx, qword ptr [rbp - 368]
	test	rdx, rdx
	je	LBB50_121

	mov	rax, qword ptr [rbp - 384]
	mov	rcx, qword ptr [rbp - 376]
	cmp	rax, rcx
	cmovb	rcx, rax
	xor	eax, eax
	mov	rdi, rdx
	
	rep		stosq	qword ptr es:[rdi], rax
	
Ltmp729:
	mov	rdi, rdx
	call	__ZN8CryptoPP17AlignedDeallocateEPv
Ltmp730:
	jmp	LBB50_121
LBB50_118:
Ltmp743:
	mov	rbx, rax
	jmp	LBB50_125
LBB50_119:
Ltmp738:
	mov	rbx, rax
	jmp	LBB50_123
LBB50_120:
Ltmp733:
	mov	rbx, rax
LBB50_121:
	mov	qword ptr [rbp - 96], r13
	mov	rdx, qword ptr [rbp - 64]
	test	rdx, rdx
	je	LBB50_123

	mov	rax, qword ptr [rbp - 80]
	mov	rcx, qword ptr [rbp - 72]
	cmp	rax, rcx
	cmovb	rcx, rax
	xor	eax, eax
	mov	rdi, rdx
	
	rep		stosq	qword ptr es:[rdi], rax
	
Ltmp734:
	mov	rdi, rdx
	call	__ZN8CryptoPP17AlignedDeallocateEPv
Ltmp735:
LBB50_123:
	mov	qword ptr [rbp - 152], r13
	mov	rdx, qword ptr [rbp - 120]
	test	rdx, rdx
	je	LBB50_125

	mov	rax, qword ptr [rbp - 136]
	mov	rcx, qword ptr [rbp - 128]
	cmp	rax, rcx
	cmovb	rcx, rax
	xor	eax, eax
	mov	rdi, rdx
	
	rep		stosq	qword ptr es:[rdi], rax
	
Ltmp739:
	mov	rdi, rdx
	call	__ZN8CryptoPP17AlignedDeallocateEPv
Ltmp740:
LBB50_125:
	mov	qword ptr [rbp - 248], r13
	mov	rdx, qword ptr [rbp - 216]
	test	rdx, rdx
	je	LBB50_131

	mov	rax, qword ptr [rbp - 232]
	mov	rcx, qword ptr [rbp - 224]
	cmp	rax, rcx
	cmovb	rcx, rax
	xor	eax, eax
	mov	rdi, rdx
	
	rep		stosq	qword ptr es:[rdi], rax
	
Ltmp744:
	mov	rdi, rdx
	call	__ZN8CryptoPP17AlignedDeallocateEPv
Ltmp745:
	jmp	LBB50_131
LBB50_127:
Ltmp763:
	mov	rbx, rax
	jmp	LBB50_137
LBB50_128:
Ltmp758:
	mov	rbx, rax
	jmp	LBB50_135
LBB50_129:
Ltmp753:
	mov	rbx, rax
	jmp	LBB50_133
LBB50_130:
Ltmp748:
	mov	rbx, rax
LBB50_131:
	mov	qword ptr [rbp - 448], r13
	mov	rdx, qword ptr [rbp - 416]
	test	rdx, rdx
	je	LBB50_133

	mov	rax, qword ptr [rbp - 432]
	mov	rcx, qword ptr [rbp - 424]
	cmp	rax, rcx
	cmovb	rcx, rax
	xor	eax, eax
	mov	rdi, rdx
	
	rep		stosq	qword ptr es:[rdi], rax
	
Ltmp749:
	mov	rdi, rdx
	call	__ZN8CryptoPP17AlignedDeallocateEPv
Ltmp750:
LBB50_133:
	mov	qword ptr [rbp - 344], r13
	mov	rdx, qword ptr [rbp - 312]
	test	rdx, rdx
	je	LBB50_135

	mov	rax, qword ptr [rbp - 328]
	mov	rcx, qword ptr [rbp - 320]
	cmp	rax, rcx
	cmovb	rcx, rax
	xor	eax, eax
	mov	rdi, rdx
	
	rep		stosq	qword ptr es:[rdi], rax
	
Ltmp754:
	mov	rdi, rdx
	call	__ZN8CryptoPP17AlignedDeallocateEPv
Ltmp755:
LBB50_135:
	mov	qword ptr [rbp - 296], r13
	mov	rdx, qword ptr [rbp - 264]
	test	rdx, rdx
	je	LBB50_137

	mov	rax, qword ptr [rbp - 280]
	mov	rcx, qword ptr [rbp - 272]
	cmp	rax, rcx
	cmovb	rcx, rax
	xor	eax, eax
	mov	rdi, rdx
	
	rep		stosq	qword ptr es:[rdi], rax
	
Ltmp759:
	mov	rdi, rdx
	call	__ZN8CryptoPP17AlignedDeallocateEPv
Ltmp760:
LBB50_137:
	mov	qword ptr [rbp - 200], r13
	mov	rdx, qword ptr [rbp - 168]
	test	rdx, rdx
	je	LBB50_139

	mov	rax, qword ptr [rbp - 184]
	mov	rcx, qword ptr [rbp - 176]
	cmp	rax, rcx
	cmovb	rcx, rax
	xor	eax, eax
	mov	rdi, rdx
	
	rep		stosq	qword ptr es:[rdi], rax
	
Ltmp764:
	mov	rdi, rdx
	call	__ZN8CryptoPP17AlignedDeallocateEPv
Ltmp765:
LBB50_139:
	mov	rdi, rbx
	call	__Unwind_Resume
	ud2
LBB50_140:
Ltmp709:
	mov	rbx, rax
	mov	rax, qword ptr [rip + __ZTVN8CryptoPP7IntegerE@GOTPCREL]
	add	rax, 16
	mov	qword ptr [rbp - 96], rax
	mov	rdx, qword ptr [rbp - 64]
	test	rdx, rdx
	je	LBB50_139

	mov	rax, qword ptr [rbp - 80]
	mov	rcx, qword ptr [rbp - 72]
	cmp	rax, rcx
	cmovb	rcx, rax
	xor	eax, eax
	mov	rdi, rdx
	
	rep		stosq	qword ptr es:[rdi], rax
	
Ltmp710:
	mov	rdi, rdx
	call	__ZN8CryptoPP17AlignedDeallocateEPv
Ltmp711:
	jmp	LBB50_139
LBB50_142:
Ltmp828:
	mov	rdi, rax
	call	___clang_call_terminate
Lfunc_end18:
	.cfi_endproc
	.section	__TEXT,__gcc_except_tab
	.p2align	2
GCC_except_table50:
Lexception18:
	.byte	255                     
	.byte	155                     
	.uleb128 Lttbase16-Lttbaseref16
Lttbaseref16:
	.byte	1                       
	.uleb128 Lcst_end18-Lcst_begin18
Lcst_begin18:
	.uleb128 Lfunc_begin18-Lfunc_begin18 
	.uleb128 Ltmp707-Lfunc_begin18  
	.byte	0                       
	.byte	0                       
	.uleb128 Ltmp707-Lfunc_begin18  
	.uleb128 Ltmp708-Ltmp707        
	.uleb128 Ltmp709-Lfunc_begin18  
	.byte	0                       
	.uleb128 Ltmp708-Lfunc_begin18  
	.uleb128 Ltmp712-Ltmp708        
	.byte	0                       
	.byte	0                       
	.uleb128 Ltmp712-Lfunc_begin18  
	.uleb128 Ltmp713-Ltmp712        
	.uleb128 Ltmp763-Lfunc_begin18  
	.byte	0                       
	.uleb128 Ltmp714-Lfunc_begin18  
	.uleb128 Ltmp715-Ltmp714        
	.uleb128 Ltmp758-Lfunc_begin18  
	.byte	0                       
	.uleb128 Ltmp716-Lfunc_begin18  
	.uleb128 Ltmp717-Ltmp716        
	.uleb128 Ltmp753-Lfunc_begin18  
	.byte	0                       
	.uleb128 Ltmp718-Lfunc_begin18  
	.uleb128 Ltmp719-Ltmp718        
	.uleb128 Ltmp748-Lfunc_begin18  
	.byte	0                       
	.uleb128 Ltmp720-Lfunc_begin18  
	.uleb128 Ltmp721-Ltmp720        
	.uleb128 Ltmp743-Lfunc_begin18  
	.byte	0                       
	.uleb128 Ltmp722-Lfunc_begin18  
	.uleb128 Ltmp723-Ltmp722        
	.uleb128 Ltmp738-Lfunc_begin18  
	.byte	0                       
	.uleb128 Ltmp724-Lfunc_begin18  
	.uleb128 Ltmp725-Ltmp724        
	.uleb128 Ltmp733-Lfunc_begin18  
	.byte	0                       
	.uleb128 Ltmp726-Lfunc_begin18  
	.uleb128 Ltmp727-Ltmp726        
	.uleb128 Ltmp728-Lfunc_begin18  
	.byte	0                       
	.uleb128 Ltmp731-Lfunc_begin18  
	.uleb128 Ltmp732-Ltmp731        
	.uleb128 Ltmp733-Lfunc_begin18  
	.byte	0                       
	.uleb128 Ltmp736-Lfunc_begin18  
	.uleb128 Ltmp737-Ltmp736        
	.uleb128 Ltmp738-Lfunc_begin18  
	.byte	0                       
	.uleb128 Ltmp741-Lfunc_begin18  
	.uleb128 Ltmp742-Ltmp741        
	.uleb128 Ltmp743-Lfunc_begin18  
	.byte	0                       
	.uleb128 Ltmp746-Lfunc_begin18  
	.uleb128 Ltmp747-Ltmp746        
	.uleb128 Ltmp748-Lfunc_begin18  
	.byte	0                       
	.uleb128 Ltmp751-Lfunc_begin18  
	.uleb128 Ltmp752-Ltmp751        
	.uleb128 Ltmp753-Lfunc_begin18  
	.byte	0                       
	.uleb128 Ltmp756-Lfunc_begin18  
	.uleb128 Ltmp757-Ltmp756        
	.uleb128 Ltmp758-Lfunc_begin18  
	.byte	0                       
	.uleb128 Ltmp761-Lfunc_begin18  
	.uleb128 Ltmp762-Ltmp761        
	.uleb128 Ltmp763-Lfunc_begin18  
	.byte	0                       
	.uleb128 Ltmp762-Lfunc_begin18  
	.uleb128 Ltmp766-Ltmp762        
	.byte	0                       
	.byte	0                       
	.uleb128 Ltmp766-Lfunc_begin18  
	.uleb128 Ltmp767-Ltmp766        
	.uleb128 Ltmp806-Lfunc_begin18  
	.byte	0                       
	.uleb128 Ltmp768-Lfunc_begin18  
	.uleb128 Ltmp769-Ltmp768        
	.uleb128 Ltmp801-Lfunc_begin18  
	.byte	0                       
	.uleb128 Ltmp770-Lfunc_begin18  
	.uleb128 Ltmp771-Ltmp770        
	.uleb128 Ltmp772-Lfunc_begin18  
	.byte	0                       
	.uleb128 Ltmp771-Lfunc_begin18  
	.uleb128 Ltmp773-Ltmp771        
	.byte	0                       
	.byte	0                       
	.uleb128 Ltmp773-Lfunc_begin18  
	.uleb128 Ltmp774-Ltmp773        
	.uleb128 Ltmp796-Lfunc_begin18  
	.byte	0                       
	.uleb128 Ltmp775-Lfunc_begin18  
	.uleb128 Ltmp776-Ltmp775        
	.uleb128 Ltmp791-Lfunc_begin18  
	.byte	0                       
	.uleb128 Ltmp777-Lfunc_begin18  
	.uleb128 Ltmp778-Ltmp777        
	.uleb128 Ltmp786-Lfunc_begin18  
	.byte	0                       
	.uleb128 Ltmp779-Lfunc_begin18  
	.uleb128 Ltmp780-Ltmp779        
	.uleb128 Ltmp781-Lfunc_begin18  
	.byte	0                       
	.uleb128 Ltmp784-Lfunc_begin18  
	.uleb128 Ltmp785-Ltmp784        
	.uleb128 Ltmp786-Lfunc_begin18  
	.byte	0                       
	.uleb128 Ltmp789-Lfunc_begin18  
	.uleb128 Ltmp790-Ltmp789        
	.uleb128 Ltmp791-Lfunc_begin18  
	.byte	0                       
	.uleb128 Ltmp794-Lfunc_begin18  
	.uleb128 Ltmp795-Ltmp794        
	.uleb128 Ltmp796-Lfunc_begin18  
	.byte	0                       
	.uleb128 Ltmp799-Lfunc_begin18  
	.uleb128 Ltmp800-Ltmp799        
	.uleb128 Ltmp801-Lfunc_begin18  
	.byte	0                       
	.uleb128 Ltmp804-Lfunc_begin18  
	.uleb128 Ltmp805-Ltmp804        
	.uleb128 Ltmp806-Lfunc_begin18  
	.byte	0                       
	.uleb128 Ltmp805-Lfunc_begin18  
	.uleb128 Ltmp809-Ltmp805        
	.byte	0                       
	.byte	0                       
	.uleb128 Ltmp809-Lfunc_begin18  
	.uleb128 Ltmp810-Ltmp809        
	.uleb128 Ltmp825-Lfunc_begin18  
	.byte	0                       
	.uleb128 Ltmp811-Lfunc_begin18  
	.uleb128 Ltmp812-Ltmp811        
	.uleb128 Ltmp820-Lfunc_begin18  
	.byte	0                       
	.uleb128 Ltmp813-Lfunc_begin18  
	.uleb128 Ltmp814-Ltmp813        
	.uleb128 Ltmp815-Lfunc_begin18  
	.byte	0                       
	.uleb128 Ltmp818-Lfunc_begin18  
	.uleb128 Ltmp819-Ltmp818        
	.uleb128 Ltmp820-Lfunc_begin18  
	.byte	0                       
	.uleb128 Ltmp823-Lfunc_begin18  
	.uleb128 Ltmp824-Ltmp823        
	.uleb128 Ltmp825-Lfunc_begin18  
	.byte	0                       
	.uleb128 Ltmp824-Lfunc_begin18  
	.uleb128 Ltmp782-Ltmp824        
	.byte	0                       
	.byte	0                       
	.uleb128 Ltmp782-Lfunc_begin18  
	.uleb128 Ltmp765-Ltmp782        
	.uleb128 Ltmp828-Lfunc_begin18  
	.byte	1                       
	.uleb128 Ltmp765-Lfunc_begin18  
	.uleb128 Ltmp710-Ltmp765        
	.byte	0                       
	.byte	0                       
	.uleb128 Ltmp710-Lfunc_begin18  
	.uleb128 Ltmp711-Ltmp710        
	.uleb128 Ltmp828-Lfunc_begin18  
	.byte	1                       
Lcst_end18:
	.byte	1                       
                                        
	.byte	0                       
	.p2align	2
                                        
	.long	0                       
Lttbase16:
	.p2align	2
                                        
	.section	__TEXT,__text,regular,pure_instructions
	.globl	__ZTv0_n48_NK8CryptoPP21InvertibleRSAFunction8ValidateERNS_21RandomNumberGeneratorEj 
	.p2align	1, 0x90
__ZTv0_n48_NK8CryptoPP21InvertibleRSAFunction8ValidateERNS_21RandomNumberGeneratorEj: 
	.cfi_startproc

	push	rbp
	.cfi_def_cfa_offset 16
	.cfi_offset rbp, -16
	mov	rbp, rsp
	.cfi_def_cfa_register rbp
	mov	rax, qword ptr [rdi]
	add	rdi, qword ptr [rax - 48]
	pop	rbp
	jmp	__ZNK8CryptoPP21InvertibleRSAFunction8ValidateERNS_21RandomNumberGeneratorEj 
	.cfi_endproc
                                        
	.globl	__ZNK8CryptoPP21InvertibleRSAFunction12GetVoidValueEPKcRKSt9type_infoPv 
	.p2align	1, 0x90
__ZNK8CryptoPP21InvertibleRSAFunction12GetVoidValueEPKcRKSt9type_infoPv: 
	.cfi_startproc

	push	rbp
	.cfi_def_cfa_offset 16
	.cfi_offset rbp, -16
	mov	rbp, rsp
	.cfi_def_cfa_register rbp
	push	rbx
	sub	rsp, 40
	.cfi_offset rbx, -24
	mov	r8, rcx
	mov	rcx, rdx
	mov	rdx, rsi
	mov	rsi, rdi
	lea	rbx, [rbp - 48]
	mov	rdi, rbx
	xor	r9d, r9d
	call	__ZN8CryptoPP19GetValueHelperClassINS_21InvertibleRSAFunctionENS_11RSAFunctionEEC2EPKS1_PKcRKSt9type_infoPvPKNS_14NameValuePairsE
	mov	rdi, rbx
	call	__ZN8CryptoPP19GetValueHelperClassINS_21InvertibleRSAFunctionENS_11RSAFunctionEE10AssignableEv
	lea	rsi, [rip + L_.str.28]
	mov	rdx, qword ptr [rip + __ZNK8CryptoPP21InvertibleRSAFunction9GetPrime1Ev@GOTPCREL]
	mov	rdi, rax
	xor	ecx, ecx
	call	__ZN8CryptoPP19GetValueHelperClassINS_21InvertibleRSAFunctionENS_11RSAFunctionEEclINS_7IntegerEEERS3_PKcMS1_KFRKT_vE
	lea	rsi, [rip + L_.str.29]
	mov	rdx, qword ptr [rip + __ZNK8CryptoPP21InvertibleRSAFunction9GetPrime2Ev@GOTPCREL]
	mov	rdi, rax
	xor	ecx, ecx
	call	__ZN8CryptoPP19GetValueHelperClassINS_21InvertibleRSAFunctionENS_11RSAFunctionEEclINS_7IntegerEEERS3_PKcMS1_KFRKT_vE
	lea	rsi, [rip + L_.str.30]
	mov	rdx, qword ptr [rip + __ZNK8CryptoPP21InvertibleRSAFunction18GetPrivateExponentEv@GOTPCREL]
	mov	rdi, rax
	xor	ecx, ecx
	call	__ZN8CryptoPP19GetValueHelperClassINS_21InvertibleRSAFunctionENS_11RSAFunctionEEclINS_7IntegerEEERS3_PKcMS1_KFRKT_vE
	lea	rsi, [rip + L_.str.31]
	mov	rdx, qword ptr [rip + __ZNK8CryptoPP21InvertibleRSAFunction27GetModPrime1PrivateExponentEv@GOTPCREL]
	mov	rdi, rax
	xor	ecx, ecx
	call	__ZN8CryptoPP19GetValueHelperClassINS_21InvertibleRSAFunctionENS_11RSAFunctionEEclINS_7IntegerEEERS3_PKcMS1_KFRKT_vE
	lea	rsi, [rip + L_.str.32]
	mov	rdx, qword ptr [rip + __ZNK8CryptoPP21InvertibleRSAFunction27GetModPrime2PrivateExponentEv@GOTPCREL]
	mov	rdi, rax
	xor	ecx, ecx
	call	__ZN8CryptoPP19GetValueHelperClassINS_21InvertibleRSAFunctionENS_11RSAFunctionEEclINS_7IntegerEEERS3_PKcMS1_KFRKT_vE
	lea	rsi, [rip + L_.str.33]
	mov	rdx, qword ptr [rip + __ZNK8CryptoPP21InvertibleRSAFunction41GetMultiplicativeInverseOfPrime2ModPrime1Ev@GOTPCREL]
	mov	rdi, rax
	xor	ecx, ecx
	call	__ZN8CryptoPP19GetValueHelperClassINS_21InvertibleRSAFunctionENS_11RSAFunctionEEclINS_7IntegerEEERS3_PKcMS1_KFRKT_vE
	mov	al, byte ptr [rax + 32]
	add	rsp, 40
	pop	rbx
	pop	rbp
	ret
	.cfi_endproc
                                        
	.globl	__ZN8CryptoPP19GetValueHelperClassINS_21InvertibleRSAFunctionENS_11RSAFunctionEE10AssignableEv 
	.weak_def_can_be_hidden	__ZN8CryptoPP19GetValueHelperClassINS_21InvertibleRSAFunctionENS_11RSAFunctionEE10AssignableEv
	.p2align	1, 0x90
__ZN8CryptoPP19GetValueHelperClassINS_21InvertibleRSAFunctionENS_11RSAFunctionEE10AssignableEv: 
	.cfi_startproc

	push	rbp
	.cfi_def_cfa_offset 16
	.cfi_offset rbp, -16
	mov	rbp, rsp
	.cfi_def_cfa_register rbp
	push	r15
	push	r14
	push	rbx
	push	rax
	.cfi_offset rbx, -40
	.cfi_offset r14, -32
	.cfi_offset r15, -24
	mov	rbx, rdi
	cmp	byte ptr [rdi + 33], 0
	je	LBB53_2

	mov	rdi, qword ptr [rbx + 24]
	lea	rsi, [rip + L_.str.45]
	call	__ZNSt3__112basic_stringIcNS_11char_traitsIcEENS_9allocatorIcEEE6appendEPKc
	lea	rsi, [rip + __ZTSN8CryptoPP21InvertibleRSAFunctionE]
	mov	rdi, rax
	call	__ZNSt3__112basic_stringIcNS_11char_traitsIcEENS_9allocatorIcEEE6appendEPKc
	mov	rdi, rax
	mov	esi, 59
	call	__ZNSt3__112basic_stringIcNS_11char_traitsIcEENS_9allocatorIcEEE9push_backEc
LBB53_2:
	cmp	byte ptr [rbx + 32], 0
	jne	LBB53_6

	mov	r14, qword ptr [rbx + 8]
	lea	rsi, [rip + L_.str.45]
	mov	edx, 11
	mov	rdi, r14
	call	_strncmp
	test	eax, eax
	jne	LBB53_6

	lea	rdi, [r14 + 11]
	lea	rsi, [rip + __ZTSN8CryptoPP21InvertibleRSAFunctionE]
	call	_strcmp
	test	eax, eax
	jne	LBB53_6

	mov	rdx, qword ptr [rbx + 16]
	lea	rsi, [rip + __ZTIN8CryptoPP21InvertibleRSAFunctionE]
	mov	rdi, r14
	call	__ZN8CryptoPP14NameValuePairs19ThrowIfTypeMismatchEPKcRKSt9type_infoS5_
	mov	r14, qword ptr [rbx]
	mov	r15, qword ptr [rbx + 24]
	mov	esi, 24
	lea	rdi, [r15 + rsi]
	add	rsi, r14
	call	__ZN8CryptoPP7IntegeraSERKS0_
	mov	esi, 72
	lea	rdi, [r15 + rsi]
	add	rsi, r14
	call	__ZN8CryptoPP7IntegeraSERKS0_
	mov	esi, 144
	lea	rdi, [r15 + rsi]
	add	rsi, r14
	call	__ZN8CryptoPP9ByteQueueaSERKS0_
	mov	esi, 224
	lea	rdi, [r15 + rsi]
	add	rsi, r14
	call	__ZN8CryptoPP7IntegeraSERKS0_
	mov	esi, 272
	lea	rdi, [r15 + rsi]
	add	rsi, r14
	call	__ZN8CryptoPP7IntegeraSERKS0_
	mov	esi, 320
	lea	rdi, [r15 + rsi]
	add	rsi, r14
	call	__ZN8CryptoPP7IntegeraSERKS0_
	mov	esi, 368
	lea	rdi, [r15 + rsi]
	add	rsi, r14
	call	__ZN8CryptoPP7IntegeraSERKS0_
	mov	esi, 416
	lea	rdi, [r15 + rsi]
	add	rsi, r14
	call	__ZN8CryptoPP7IntegeraSERKS0_
	mov	eax, 464
	add	r15, rax
	add	r14, rax
	mov	rdi, r15
	mov	rsi, r14
	call	__ZN8CryptoPP7IntegeraSERKS0_
	mov	byte ptr [rbx + 32], 1
LBB53_6:
	mov	rax, rbx
	add	rsp, 8
	pop	rbx
	pop	r14
	pop	r15
	pop	rbp
	ret
	.cfi_endproc
                                        
	.globl	__ZN8CryptoPP19GetValueHelperClassINS_21InvertibleRSAFunctionENS_11RSAFunctionEEclINS_7IntegerEEERS3_PKcMS1_KFRKT_vE 
	.weak_def_can_be_hidden	__ZN8CryptoPP19GetValueHelperClassINS_21InvertibleRSAFunctionENS_11RSAFunctionEEclINS_7IntegerEEERS3_PKcMS1_KFRKT_vE
	.p2align	1, 0x90
__ZN8CryptoPP19GetValueHelperClassINS_21InvertibleRSAFunctionENS_11RSAFunctionEEclINS_7IntegerEEERS3_PKcMS1_KFRKT_vE: 
	.cfi_startproc

	push	rbp
	.cfi_def_cfa_offset 16
	.cfi_offset rbp, -16
	mov	rbp, rsp
	.cfi_def_cfa_register rbp
	push	r15
	push	r14
	push	r12
	push	rbx
	.cfi_offset rbx, -48
	.cfi_offset r12, -40
	.cfi_offset r14, -32
	.cfi_offset r15, -24
	mov	r14, rcx
	mov	r15, rdx
	mov	r12, rsi
	mov	rbx, rdi
	cmp	byte ptr [rdi + 33], 0
	je	LBB54_2

	mov	rdi, qword ptr [rbx + 24]
	mov	rsi, r12
	call	__ZNSt3__112basic_stringIcNS_11char_traitsIcEENS_9allocatorIcEEE6appendEPKc
	lea	rsi, [rip + L_.str.46]
	mov	rdi, rax
	call	__ZNSt3__112basic_stringIcNS_11char_traitsIcEENS_9allocatorIcEEE6appendEPKc
LBB54_2:
	cmp	byte ptr [rbx + 32], 0
	jne	LBB54_7

	mov	rsi, qword ptr [rbx + 8]
	mov	rdi, r12
	call	_strcmp
	test	eax, eax
	jne	LBB54_7

	mov	rdx, qword ptr [rbx + 16]
	mov	rsi, qword ptr [rip + __ZTIN8CryptoPP7IntegerE@GOTPCREL]
	mov	rdi, r12
	call	__ZN8CryptoPP14NameValuePairs19ThrowIfTypeMismatchEPKcRKSt9type_infoS5_
	add	r14, qword ptr [rbx]
	test	r15b, 1
	je	LBB54_6

	mov	rax, qword ptr [r14]
	mov	r15, qword ptr [r15 + rax - 1]
LBB54_6:
	mov	rdi, r14
	call	r15
	mov	rdi, qword ptr [rbx + 24]
	mov	rsi, rax
	call	__ZN8CryptoPP7IntegeraSERKS0_
	mov	byte ptr [rbx + 32], 1
LBB54_7:
	mov	rax, rbx
	pop	rbx
	pop	r12
	pop	r14
	pop	r15
	pop	rbp
	ret
	.cfi_endproc
                                        
	.globl	__ZNK8CryptoPP21InvertibleRSAFunction9GetPrime1Ev 
	.weak_definition	__ZNK8CryptoPP21InvertibleRSAFunction9GetPrime1Ev
	.p2align	1, 0x90
__ZNK8CryptoPP21InvertibleRSAFunction9GetPrime1Ev: 

	push	rbp
	mov	rbp, rsp
	lea	rax, [rdi + 272]
	pop	rbp
	ret
                                        
	.globl	__ZNK8CryptoPP21InvertibleRSAFunction9GetPrime2Ev 
	.weak_definition	__ZNK8CryptoPP21InvertibleRSAFunction9GetPrime2Ev
	.p2align	1, 0x90
__ZNK8CryptoPP21InvertibleRSAFunction9GetPrime2Ev: 

	push	rbp
	mov	rbp, rsp
	lea	rax, [rdi + 320]
	pop	rbp
	ret
                                        
	.globl	__ZNK8CryptoPP21InvertibleRSAFunction18GetPrivateExponentEv 
	.weak_definition	__ZNK8CryptoPP21InvertibleRSAFunction18GetPrivateExponentEv
	.p2align	1, 0x90
__ZNK8CryptoPP21InvertibleRSAFunction18GetPrivateExponentEv: 

	push	rbp
	mov	rbp, rsp
	lea	rax, [rdi + 224]
	pop	rbp
	ret
                                        
	.globl	__ZNK8CryptoPP21InvertibleRSAFunction27GetModPrime1PrivateExponentEv 
	.weak_definition	__ZNK8CryptoPP21InvertibleRSAFunction27GetModPrime1PrivateExponentEv
	.p2align	1, 0x90
__ZNK8CryptoPP21InvertibleRSAFunction27GetModPrime1PrivateExponentEv: 

	push	rbp
	mov	rbp, rsp
	lea	rax, [rdi + 368]
	pop	rbp
	ret
                                        
	.globl	__ZNK8CryptoPP21InvertibleRSAFunction27GetModPrime2PrivateExponentEv 
	.weak_definition	__ZNK8CryptoPP21InvertibleRSAFunction27GetModPrime2PrivateExponentEv
	.p2align	1, 0x90
__ZNK8CryptoPP21InvertibleRSAFunction27GetModPrime2PrivateExponentEv: 

	push	rbp
	mov	rbp, rsp
	lea	rax, [rdi + 416]
	pop	rbp
	ret
                                        
	.globl	__ZNK8CryptoPP21InvertibleRSAFunction41GetMultiplicativeInverseOfPrime2ModPrime1Ev 
	.weak_definition	__ZNK8CryptoPP21InvertibleRSAFunction41GetMultiplicativeInverseOfPrime2ModPrime1Ev
	.p2align	1, 0x90
__ZNK8CryptoPP21InvertibleRSAFunction41GetMultiplicativeInverseOfPrime2ModPrime1Ev: 

	push	rbp
	mov	rbp, rsp
	lea	rax, [rdi + 464]
	pop	rbp
	ret
                                        
	.globl	__ZTv0_n32_NK8CryptoPP21InvertibleRSAFunction12GetVoidValueEPKcRKSt9type_infoPv 
	.p2align	1, 0x90
__ZTv0_n32_NK8CryptoPP21InvertibleRSAFunction12GetVoidValueEPKcRKSt9type_infoPv: 
	.cfi_startproc

	push	rbp
	.cfi_def_cfa_offset 16
	.cfi_offset rbp, -16
	mov	rbp, rsp
	.cfi_def_cfa_register rbp
	mov	rax, qword ptr [rdi]
	add	rdi, qword ptr [rax - 32]
	pop	rbp
	jmp	__ZNK8CryptoPP21InvertibleRSAFunction12GetVoidValueEPKcRKSt9type_infoPv 
	.cfi_endproc
                                        
	.globl	__ZN8CryptoPP21InvertibleRSAFunction10AssignFromERKNS_14NameValuePairsE 
	.p2align	1, 0x90
__ZN8CryptoPP21InvertibleRSAFunction10AssignFromERKNS_14NameValuePairsE: 
	.cfi_startproc

	push	rbp
	.cfi_def_cfa_offset 16
	.cfi_offset rbp, -16
	mov	rbp, rsp
	.cfi_def_cfa_register rbp
	push	r14
	push	rbx
	sub	rsp, 32
	.cfi_offset rbx, -32
	.cfi_offset r14, -24
	mov	r14, rsi
	mov	rbx, rdi
	mov	qword ptr [rbp - 40], rdi
	mov	qword ptr [rbp - 32], rsi
	mov	byte ptr [rbp - 24], 0
	mov	rdi, rsi
	mov	rsi, rbx
	call	__ZNK8CryptoPP14NameValuePairs13GetThisObjectINS_21InvertibleRSAFunctionEEEbRT_
	test	al, al
	je	LBB62_2

	mov	byte ptr [rbp - 24], 1
	jmp	LBB62_3
LBB62_2:
	mov	rdi, rbx
	mov	rsi, r14
	call	__ZN8CryptoPP11RSAFunction10AssignFromERKNS_14NameValuePairsE
LBB62_3:
	lea	rsi, [rip + L_.str.28]
	mov	rdx, qword ptr [rip + __ZN8CryptoPP21InvertibleRSAFunction9SetPrime1ERKNS_7IntegerE@GOTPCREL]
	lea	rdi, [rbp - 40]
	xor	ecx, ecx
	call	__ZN8CryptoPP21AssignFromHelperClassINS_21InvertibleRSAFunctionENS_11RSAFunctionEEclINS_7IntegerEEERS3_PKcMS1_FvRKT_E
	lea	rsi, [rip + L_.str.29]
	mov	rdx, qword ptr [rip + __ZN8CryptoPP21InvertibleRSAFunction9SetPrime2ERKNS_7IntegerE@GOTPCREL]
	mov	rdi, rax
	xor	ecx, ecx
	call	__ZN8CryptoPP21AssignFromHelperClassINS_21InvertibleRSAFunctionENS_11RSAFunctionEEclINS_7IntegerEEERS3_PKcMS1_FvRKT_E
	lea	rsi, [rip + L_.str.30]
	mov	rdx, qword ptr [rip + __ZN8CryptoPP21InvertibleRSAFunction18SetPrivateExponentERKNS_7IntegerE@GOTPCREL]
	mov	rdi, rax
	xor	ecx, ecx
	call	__ZN8CryptoPP21AssignFromHelperClassINS_21InvertibleRSAFunctionENS_11RSAFunctionEEclINS_7IntegerEEERS3_PKcMS1_FvRKT_E
	lea	rsi, [rip + L_.str.31]
	mov	rdx, qword ptr [rip + __ZN8CryptoPP21InvertibleRSAFunction27SetModPrime1PrivateExponentERKNS_7IntegerE@GOTPCREL]
	mov	rdi, rax
	xor	ecx, ecx
	call	__ZN8CryptoPP21AssignFromHelperClassINS_21InvertibleRSAFunctionENS_11RSAFunctionEEclINS_7IntegerEEERS3_PKcMS1_FvRKT_E
	lea	rsi, [rip + L_.str.32]
	mov	rdx, qword ptr [rip + __ZN8CryptoPP21InvertibleRSAFunction27SetModPrime2PrivateExponentERKNS_7IntegerE@GOTPCREL]
	mov	rdi, rax
	xor	ecx, ecx
	call	__ZN8CryptoPP21AssignFromHelperClassINS_21InvertibleRSAFunctionENS_11RSAFunctionEEclINS_7IntegerEEERS3_PKcMS1_FvRKT_E
	lea	rsi, [rip + L_.str.33]
	mov	rdx, qword ptr [rip + __ZN8CryptoPP21InvertibleRSAFunction41SetMultiplicativeInverseOfPrime2ModPrime1ERKNS_7IntegerE@GOTPCREL]
	mov	rdi, rax
	xor	ecx, ecx
	call	__ZN8CryptoPP21AssignFromHelperClassINS_21InvertibleRSAFunctionENS_11RSAFunctionEEclINS_7IntegerEEERS3_PKcMS1_FvRKT_E
	add	rsp, 32
	pop	rbx
	pop	r14
	pop	rbp
	ret
	.cfi_endproc
                                        
	.globl	__ZN8CryptoPP21AssignFromHelperClassINS_21InvertibleRSAFunctionENS_11RSAFunctionEEclINS_7IntegerEEERS3_PKcMS1_FvRKT_E 
	.weak_def_can_be_hidden	__ZN8CryptoPP21AssignFromHelperClassINS_21InvertibleRSAFunctionENS_11RSAFunctionEEclINS_7IntegerEEERS3_PKcMS1_FvRKT_E
	.p2align	1, 0x90
__ZN8CryptoPP21AssignFromHelperClassINS_21InvertibleRSAFunctionENS_11RSAFunctionEEclINS_7IntegerEEERS3_PKcMS1_FvRKT_E: 
Lfunc_begin19:
	.cfi_startproc
	.cfi_personality 155, ___gxx_personality_v0
	.cfi_lsda 16, Lexception19

	push	rbp
	.cfi_def_cfa_offset 16
	.cfi_offset rbp, -16
	mov	rbp, rsp
	.cfi_def_cfa_register rbp
	push	r15
	push	r14
	push	r13
	push	r12
	push	rbx
	sub	rsp, 152
	.cfi_offset rbx, -56
	.cfi_offset r12, -48
	.cfi_offset r13, -40
	.cfi_offset r14, -32
	.cfi_offset r15, -24
	mov	rbx, rdi
	cmp	byte ptr [rdi + 16], 0
	jne	LBB63_29

	mov	r12, rcx
	mov	r14, rdx
	mov	r15, rsi
	lea	r13, [rbp - 88]
	mov	rdi, r13
	call	__ZN8CryptoPP7IntegerC1Ev
	mov	rdi, qword ptr [rbx + 8]
	mov	rax, qword ptr [rdi]
Ltmp829:
	mov	rdx, qword ptr [rip + __ZTIN8CryptoPP7IntegerE@GOTPCREL]
	mov	rsi, r15
	mov	rcx, r13
	call	qword ptr [rax + 16]
Ltmp830:

	test	al, al
	je	LBB63_3

	add	r12, qword ptr [rbx]
	test	r14b, 1
	je	LBB63_26

	mov	rax, qword ptr [r12]
	mov	r14, qword ptr [r14 + rax - 1]
LBB63_26:
Ltmp848:
	lea	rsi, [rbp - 88]
	mov	rdi, r12
	call	r14
Ltmp849:

	mov	rax, qword ptr [rip + __ZTVN8CryptoPP7IntegerE@GOTPCREL]
	add	rax, 16
	mov	qword ptr [rbp - 88], rax
	mov	rdx, qword ptr [rbp - 56]
	test	rdx, rdx
	je	LBB63_29

	mov	rax, qword ptr [rbp - 72]
	mov	rcx, qword ptr [rbp - 64]
	cmp	rax, rcx
	cmovb	rcx, rax
	xor	eax, eax
	mov	rdi, rdx
	
	rep		stosq	qword ptr es:[rdi], rax
	
	mov	rdi, rdx
	call	__ZN8CryptoPP17AlignedDeallocateEPv
LBB63_29:
	mov	rax, rbx
	add	rsp, 152
	pop	rbx
	pop	r12
	pop	r13
	pop	r14
	pop	r15
	pop	rbp
	ret
LBB63_3:
	mov	edi, 40
	call	___cxa_allocate_exception
	mov	r14, rax
Ltmp831:
	lea	rsi, [rip + __ZTSN8CryptoPP21InvertibleRSAFunctionE]
	lea	rdi, [rbp - 112]
	call	__ZNSt3__112basic_stringIcNS_11char_traitsIcEENS_9allocatorIcEEEC1INS_9nullptr_tEEEPKc
Ltmp832:

Ltmp834:
	lea	rdx, [rip + L_.str.47]
	lea	rdi, [rbp - 136]
	lea	rsi, [rbp - 112]
	call	__ZNSt3__1plIcNS_11char_traitsIcEENS_9allocatorIcEEEENS_12basic_stringIT_T0_T1_EERKS9_PKS6_
Ltmp835:

Ltmp837:
	lea	rdi, [rbp - 160]
	lea	rsi, [rbp - 136]
	mov	rdx, r15
	call	__ZNSt3__1plIcNS_11char_traitsIcEENS_9allocatorIcEEEENS_12basic_stringIT_T0_T1_EERKS9_PKS6_
Ltmp838:

Ltmp840:
	lea	rdx, [rip + L_.str.44]
	lea	rdi, [rbp - 184]
	lea	rsi, [rbp - 160]
	call	__ZNSt3__1plIcNS_11char_traitsIcEENS_9allocatorIcEEEENS_12basic_stringIT_T0_T1_EERKS9_PKS6_
Ltmp841:

	mov	r15b, 1
Ltmp843:
	lea	rdx, [rbp - 184]
	mov	rdi, r14
	mov	esi, 1
	call	__ZN8CryptoPP9ExceptionC2ENS0_9ErrorTypeERKNSt3__112basic_stringIcNS2_11char_traitsIcEENS2_9allocatorIcEEEE
Ltmp844:

	mov	rax, qword ptr [rip + __ZTVN8CryptoPP15InvalidArgumentE@GOTPCREL]
	add	rax, 16
	mov	qword ptr [r14], rax
	xor	r15d, r15d
Ltmp845:
	mov	rsi, qword ptr [rip + __ZTIN8CryptoPP15InvalidArgumentE@GOTPCREL]
	mov	rdx, qword ptr [rip + __ZN8CryptoPP15InvalidArgumentD1Ev@GOTPCREL]
	mov	rdi, r14
	call	___cxa_throw
Ltmp846:

	ud2
LBB63_13:
Ltmp842:
	mov	rbx, rax
	mov	r15b, 1
	jmp	LBB63_16
LBB63_12:
Ltmp839:
	mov	rbx, rax
	mov	r15b, 1
	jmp	LBB63_18
LBB63_11:
Ltmp836:
	mov	rbx, rax
	mov	r15b, 1
	jmp	LBB63_20
LBB63_10:
Ltmp833:
	mov	rbx, rax
	mov	r15b, 1
	jmp	LBB63_22
LBB63_14:
Ltmp847:
	mov	rbx, rax
	test	byte ptr [rbp - 184], 1
	je	LBB63_16

	mov	rdi, qword ptr [rbp - 168]
	call	__ZdlPv
LBB63_16:
	test	byte ptr [rbp - 160], 1
	je	LBB63_18

	mov	rdi, qword ptr [rbp - 144]
	call	__ZdlPv
LBB63_18:
	test	byte ptr [rbp - 136], 1
	je	LBB63_20

	mov	rdi, qword ptr [rbp - 120]
	call	__ZdlPv
LBB63_20:
	test	byte ptr [rbp - 112], 1
	je	LBB63_22

	mov	rdi, qword ptr [rbp - 96]
	call	__ZdlPv
LBB63_22:
	test	r15b, r15b
	je	LBB63_31

	mov	rdi, r14
	call	___cxa_free_exception
	jmp	LBB63_31
LBB63_30:
Ltmp850:
	mov	rbx, rax
LBB63_31:
	mov	rax, qword ptr [rip + __ZTVN8CryptoPP7IntegerE@GOTPCREL]
	add	rax, 16
	mov	qword ptr [rbp - 88], rax
	mov	rdx, qword ptr [rbp - 56]
	test	rdx, rdx
	je	LBB63_33

	mov	rax, qword ptr [rbp - 72]
	mov	rcx, qword ptr [rbp - 64]
	cmp	rax, rcx
	cmovb	rcx, rax
	xor	eax, eax
	mov	rdi, rdx
	
	rep		stosq	qword ptr es:[rdi], rax
	
Ltmp851:
	mov	rdi, rdx
	call	__ZN8CryptoPP17AlignedDeallocateEPv
Ltmp852:
LBB63_33:
	mov	rdi, rbx
	call	__Unwind_Resume
	ud2
LBB63_34:
Ltmp853:
	mov	rdi, rax
	call	___clang_call_terminate
Lfunc_end19:
	.cfi_endproc
	.section	__TEXT,__gcc_except_tab
	.p2align	2
GCC_except_table63:
Lexception19:
	.byte	255                     
	.byte	155                     
	.uleb128 Lttbase17-Lttbaseref17
Lttbaseref17:
	.byte	1                       
	.uleb128 Lcst_end19-Lcst_begin19
Lcst_begin19:
	.uleb128 Lfunc_begin19-Lfunc_begin19 
	.uleb128 Ltmp829-Lfunc_begin19  
	.byte	0                       
	.byte	0                       
	.uleb128 Ltmp829-Lfunc_begin19  
	.uleb128 Ltmp849-Ltmp829        
	.uleb128 Ltmp850-Lfunc_begin19  
	.byte	0                       
	.uleb128 Ltmp849-Lfunc_begin19  
	.uleb128 Ltmp831-Ltmp849        
	.byte	0                       
	.byte	0                       
	.uleb128 Ltmp831-Lfunc_begin19  
	.uleb128 Ltmp832-Ltmp831        
	.uleb128 Ltmp833-Lfunc_begin19  
	.byte	0                       
	.uleb128 Ltmp834-Lfunc_begin19  
	.uleb128 Ltmp835-Ltmp834        
	.uleb128 Ltmp836-Lfunc_begin19  
	.byte	0                       
	.uleb128 Ltmp837-Lfunc_begin19  
	.uleb128 Ltmp838-Ltmp837        
	.uleb128 Ltmp839-Lfunc_begin19  
	.byte	0                       
	.uleb128 Ltmp840-Lfunc_begin19  
	.uleb128 Ltmp841-Ltmp840        
	.uleb128 Ltmp842-Lfunc_begin19  
	.byte	0                       
	.uleb128 Ltmp843-Lfunc_begin19  
	.uleb128 Ltmp846-Ltmp843        
	.uleb128 Ltmp847-Lfunc_begin19  
	.byte	0                       
	.uleb128 Ltmp846-Lfunc_begin19  
	.uleb128 Ltmp851-Ltmp846        
	.byte	0                       
	.byte	0                       
	.uleb128 Ltmp851-Lfunc_begin19  
	.uleb128 Ltmp852-Ltmp851        
	.uleb128 Ltmp853-Lfunc_begin19  
	.byte	1                       
	.uleb128 Ltmp852-Lfunc_begin19  
	.uleb128 Lfunc_end19-Ltmp852    
	.byte	0                       
	.byte	0                       
Lcst_end19:
	.byte	1                       
                                        
	.byte	0                       
	.p2align	2
                                        
	.long	0                       
Lttbase17:
	.p2align	2
                                        
	.section	__TEXT,__text,regular,pure_instructions
	.globl	__ZN8CryptoPP21InvertibleRSAFunction9SetPrime1ERKNS_7IntegerE 
	.weak_definition	__ZN8CryptoPP21InvertibleRSAFunction9SetPrime1ERKNS_7IntegerE
	.p2align	1, 0x90
__ZN8CryptoPP21InvertibleRSAFunction9SetPrime1ERKNS_7IntegerE: 
	.cfi_startproc

	push	rbp
	.cfi_def_cfa_offset 16
	.cfi_offset rbp, -16
	mov	rbp, rsp
	.cfi_def_cfa_register rbp
	add	rdi, 272
	pop	rbp
	jmp	__ZN8CryptoPP7IntegeraSERKS0_ 
	.cfi_endproc
                                        
	.globl	__ZN8CryptoPP21InvertibleRSAFunction9SetPrime2ERKNS_7IntegerE 
	.weak_definition	__ZN8CryptoPP21InvertibleRSAFunction9SetPrime2ERKNS_7IntegerE
	.p2align	1, 0x90
__ZN8CryptoPP21InvertibleRSAFunction9SetPrime2ERKNS_7IntegerE: 
	.cfi_startproc

	push	rbp
	.cfi_def_cfa_offset 16
	.cfi_offset rbp, -16
	mov	rbp, rsp
	.cfi_def_cfa_register rbp
	add	rdi, 320
	pop	rbp
	jmp	__ZN8CryptoPP7IntegeraSERKS0_ 
	.cfi_endproc
                                        
	.globl	__ZN8CryptoPP21InvertibleRSAFunction18SetPrivateExponentERKNS_7IntegerE 
	.weak_definition	__ZN8CryptoPP21InvertibleRSAFunction18SetPrivateExponentERKNS_7IntegerE
	.p2align	1, 0x90
__ZN8CryptoPP21InvertibleRSAFunction18SetPrivateExponentERKNS_7IntegerE: 
	.cfi_startproc

	push	rbp
	.cfi_def_cfa_offset 16
	.cfi_offset rbp, -16
	mov	rbp, rsp
	.cfi_def_cfa_register rbp
	add	rdi, 224
	pop	rbp
	jmp	__ZN8CryptoPP7IntegeraSERKS0_ 
	.cfi_endproc
                                        
	.globl	__ZN8CryptoPP21InvertibleRSAFunction27SetModPrime1PrivateExponentERKNS_7IntegerE 
	.weak_definition	__ZN8CryptoPP21InvertibleRSAFunction27SetModPrime1PrivateExponentERKNS_7IntegerE
	.p2align	1, 0x90
__ZN8CryptoPP21InvertibleRSAFunction27SetModPrime1PrivateExponentERKNS_7IntegerE: 
	.cfi_startproc

	push	rbp
	.cfi_def_cfa_offset 16
	.cfi_offset rbp, -16
	mov	rbp, rsp
	.cfi_def_cfa_register rbp
	add	rdi, 368
	pop	rbp
	jmp	__ZN8CryptoPP7IntegeraSERKS0_ 
	.cfi_endproc
                                        
	.globl	__ZN8CryptoPP21InvertibleRSAFunction27SetModPrime2PrivateExponentERKNS_7IntegerE 
	.weak_definition	__ZN8CryptoPP21InvertibleRSAFunction27SetModPrime2PrivateExponentERKNS_7IntegerE
	.p2align	1, 0x90
__ZN8CryptoPP21InvertibleRSAFunction27SetModPrime2PrivateExponentERKNS_7IntegerE: 
	.cfi_startproc

	push	rbp
	.cfi_def_cfa_offset 16
	.cfi_offset rbp, -16
	mov	rbp, rsp
	.cfi_def_cfa_register rbp
	add	rdi, 416
	pop	rbp
	jmp	__ZN8CryptoPP7IntegeraSERKS0_ 
	.cfi_endproc
                                        
	.globl	__ZN8CryptoPP21InvertibleRSAFunction41SetMultiplicativeInverseOfPrime2ModPrime1ERKNS_7IntegerE 
	.weak_definition	__ZN8CryptoPP21InvertibleRSAFunction41SetMultiplicativeInverseOfPrime2ModPrime1ERKNS_7IntegerE
	.p2align	1, 0x90
__ZN8CryptoPP21InvertibleRSAFunction41SetMultiplicativeInverseOfPrime2ModPrime1ERKNS_7IntegerE: 
	.cfi_startproc

	push	rbp
	.cfi_def_cfa_offset 16
	.cfi_offset rbp, -16
	mov	rbp, rsp
	.cfi_def_cfa_register rbp
	add	rdi, 464
	pop	rbp
	jmp	__ZN8CryptoPP7IntegeraSERKS0_ 
	.cfi_endproc
                                        
	.globl	__ZTv0_n40_N8CryptoPP21InvertibleRSAFunction10AssignFromERKNS_14NameValuePairsE 
	.p2align	1, 0x90
__ZTv0_n40_N8CryptoPP21InvertibleRSAFunction10AssignFromERKNS_14NameValuePairsE: 
	.cfi_startproc

	push	rbp
	.cfi_def_cfa_offset 16
	.cfi_offset rbp, -16
	mov	rbp, rsp
	.cfi_def_cfa_register rbp
	mov	rax, qword ptr [rdi]
	add	rdi, qword ptr [rax - 40]
	pop	rbp
	jmp	__ZN8CryptoPP21InvertibleRSAFunction10AssignFromERKNS_14NameValuePairsE 
	.cfi_endproc
                                        
	.globl	__ZNK8CryptoPP15RSAFunction_ISO13ApplyFunctionERKNS_7IntegerE 
	.p2align	1, 0x90
__ZNK8CryptoPP15RSAFunction_ISO13ApplyFunctionERKNS_7IntegerE: 
Lfunc_begin20:
	.cfi_startproc
	.cfi_personality 155, ___gxx_personality_v0
	.cfi_lsda 16, Lexception20

	push	rbp
	.cfi_def_cfa_offset 16
	.cfi_offset rbp, -16
	mov	rbp, rsp
	.cfi_def_cfa_register rbp
	push	r15
	push	r14
	push	rbx
	sub	rsp, 56
	.cfi_offset rbx, -40
	.cfi_offset r14, -32
	.cfi_offset r15, -24
	mov	rbx, rsi
	mov	r14, rdi
	lea	r15, [rbp - 72]
	mov	rdi, r15
	call	__ZNK8CryptoPP11RSAFunction13ApplyFunctionERKNS_7IntegerE
Ltmp854:
	mov	esi, 16
	mov	rdi, r15
	call	__ZNK8CryptoPP7Integer6ModuloEm
Ltmp855:

	cmp	rax, 12
	jne	LBB71_3

Ltmp858:
	lea	rsi, [rbp - 72]
	mov	rdi, r14
	call	__ZN8CryptoPP7IntegerC1ERKS0_
Ltmp859:
	jmp	LBB71_4
LBB71_3:
	add	rbx, 24
Ltmp856:
	lea	rdx, [rbp - 72]
	mov	rdi, r14
	mov	rsi, rbx
	call	__ZNK8CryptoPP7Integer5MinusERKS0_
Ltmp857:
LBB71_4:
	mov	rax, qword ptr [rip + __ZTVN8CryptoPP7IntegerE@GOTPCREL]
	add	rax, 16
	mov	qword ptr [rbp - 72], rax
	mov	rdx, qword ptr [rbp - 40]
	test	rdx, rdx
	je	LBB71_6

	mov	rax, qword ptr [rbp - 56]
	mov	rcx, qword ptr [rbp - 48]
	cmp	rax, rcx
	cmovb	rcx, rax
	xor	eax, eax
	mov	rdi, rdx
	
	rep		stosq	qword ptr es:[rdi], rax
	
	mov	rdi, rdx
	call	__ZN8CryptoPP17AlignedDeallocateEPv
LBB71_6:
	mov	rax, r14
	add	rsp, 56
	pop	rbx
	pop	r14
	pop	r15
	pop	rbp
	ret
LBB71_7:
Ltmp860:
	mov	rbx, rax
	mov	rax, qword ptr [rip + __ZTVN8CryptoPP7IntegerE@GOTPCREL]
	add	rax, 16
	mov	qword ptr [rbp - 72], rax
	mov	rdx, qword ptr [rbp - 40]
	test	rdx, rdx
	je	LBB71_9

	mov	rax, qword ptr [rbp - 56]
	mov	rcx, qword ptr [rbp - 48]
	cmp	rax, rcx
	cmovb	rcx, rax
	xor	eax, eax
	mov	rdi, rdx
	
	rep		stosq	qword ptr es:[rdi], rax
	
Ltmp861:
	mov	rdi, rdx
	call	__ZN8CryptoPP17AlignedDeallocateEPv
Ltmp862:
LBB71_9:
	mov	rdi, rbx
	call	__Unwind_Resume
	ud2
LBB71_10:
Ltmp863:
	mov	rdi, rax
	call	___clang_call_terminate
Lfunc_end20:
	.cfi_endproc
	.section	__TEXT,__gcc_except_tab
	.p2align	2
GCC_except_table71:
Lexception20:
	.byte	255                     
	.byte	155                     
	.uleb128 Lttbase18-Lttbaseref18
Lttbaseref18:
	.byte	1                       
	.uleb128 Lcst_end20-Lcst_begin20
Lcst_begin20:
	.uleb128 Lfunc_begin20-Lfunc_begin20 
	.uleb128 Ltmp854-Lfunc_begin20  
	.byte	0                       
	.byte	0                       
	.uleb128 Ltmp854-Lfunc_begin20  
	.uleb128 Ltmp857-Ltmp854        
	.uleb128 Ltmp860-Lfunc_begin20  
	.byte	0                       
	.uleb128 Ltmp857-Lfunc_begin20  
	.uleb128 Ltmp861-Ltmp857        
	.byte	0                       
	.byte	0                       
	.uleb128 Ltmp861-Lfunc_begin20  
	.uleb128 Ltmp862-Ltmp861        
	.uleb128 Ltmp863-Lfunc_begin20  
	.byte	1                       
	.uleb128 Ltmp862-Lfunc_begin20  
	.uleb128 Lfunc_end20-Ltmp862    
	.byte	0                       
	.byte	0                       
Lcst_end20:
	.byte	1                       
                                        
	.byte	0                       
	.p2align	2
                                        
	.long	0                       
Lttbase18:
	.p2align	2
                                        
	.section	__TEXT,__text,regular,pure_instructions
	.globl	__ZNK8CryptoPP25InvertibleRSAFunction_ISO16CalculateInverseERNS_21RandomNumberGeneratorERKNS_7IntegerE 
	.p2align	1, 0x90
__ZNK8CryptoPP25InvertibleRSAFunction_ISO16CalculateInverseERNS_21RandomNumberGeneratorERKNS_7IntegerE: 
Lfunc_begin21:
	.cfi_startproc
	.cfi_personality 155, ___gxx_personality_v0
	.cfi_lsda 16, Lexception21

	push	rbp
	.cfi_def_cfa_offset 16
	.cfi_offset rbp, -16
	mov	rbp, rsp
	.cfi_def_cfa_register rbp
	push	r15
	push	r14
	push	rbx
	sub	rsp, 104
	.cfi_offset rbx, -40
	.cfi_offset r14, -32
	.cfi_offset r15, -24
	mov	rbx, rsi
	mov	r14, rdi
	lea	r15, [rbp - 120]
	mov	rdi, r15
	call	__ZNK8CryptoPP21InvertibleRSAFunction16CalculateInverseERNS_21RandomNumberGeneratorERKNS_7IntegerE
	add	rbx, 24
Ltmp864:
	lea	rdi, [rbp - 72]
	mov	rsi, rbx
	mov	rdx, r15
	call	__ZNK8CryptoPP7Integer5MinusERKS0_
Ltmp865:

Ltmp866:
	lea	r15, [rbp - 72]
	lea	rbx, [rbp - 120]
	mov	rdi, r15
	mov	rsi, rbx
	call	__ZNK8CryptoPP7Integer7CompareERKS0_
Ltmp867:

	test	eax, eax
	cmovs	rbx, r15
Ltmp868:
	mov	rdi, r14
	mov	rsi, rbx
	call	__ZN8CryptoPP7IntegerC1ERKS0_
Ltmp869:

	mov	rbx, qword ptr [rip + __ZTVN8CryptoPP7IntegerE@GOTPCREL]
	add	rbx, 16
	mov	qword ptr [rbp - 72], rbx
	mov	rdx, qword ptr [rbp - 40]
	test	rdx, rdx
	je	LBB72_5

	mov	rax, qword ptr [rbp - 56]
	mov	rcx, qword ptr [rbp - 48]
	cmp	rax, rcx
	cmovb	rcx, rax
	xor	eax, eax
	mov	rdi, rdx
	
	rep		stosq	qword ptr es:[rdi], rax
	
Ltmp873:
	mov	rdi, rdx
	call	__ZN8CryptoPP17AlignedDeallocateEPv
Ltmp874:
LBB72_5:
	mov	qword ptr [rbp - 120], rbx
	mov	rdx, qword ptr [rbp - 88]
	test	rdx, rdx
	je	LBB72_7

	mov	rax, qword ptr [rbp - 104]
	mov	rcx, qword ptr [rbp - 96]
	cmp	rax, rcx
	cmovb	rcx, rax
	xor	eax, eax
	mov	rdi, rdx
	
	rep		stosq	qword ptr es:[rdi], rax
	
	mov	rdi, rdx
	call	__ZN8CryptoPP17AlignedDeallocateEPv
LBB72_7:
	mov	rax, r14
	add	rsp, 104
	pop	rbx
	pop	r14
	pop	r15
	pop	rbp
	ret
LBB72_8:
Ltmp875:
	mov	rbx, rax
	jmp	LBB72_11
LBB72_9:
Ltmp870:
	mov	rbx, rax
	mov	rax, qword ptr [rip + __ZTVN8CryptoPP7IntegerE@GOTPCREL]
	add	rax, 16
	mov	qword ptr [rbp - 72], rax
	mov	rdx, qword ptr [rbp - 40]
	test	rdx, rdx
	je	LBB72_11

	mov	rax, qword ptr [rbp - 56]
	mov	rcx, qword ptr [rbp - 48]
	cmp	rax, rcx
	cmovb	rcx, rax
	xor	eax, eax
	mov	rdi, rdx
	
	rep		stosq	qword ptr es:[rdi], rax
	
Ltmp871:
	mov	rdi, rdx
	call	__ZN8CryptoPP17AlignedDeallocateEPv
Ltmp872:
LBB72_11:
	mov	rax, qword ptr [rip + __ZTVN8CryptoPP7IntegerE@GOTPCREL]
	add	rax, 16
	mov	qword ptr [rbp - 120], rax
	mov	rdx, qword ptr [rbp - 88]
	test	rdx, rdx
	je	LBB72_13

	mov	rax, qword ptr [rbp - 104]
	mov	rcx, qword ptr [rbp - 96]
	cmp	rax, rcx
	cmovb	rcx, rax
	xor	eax, eax
	mov	rdi, rdx
	
	rep		stosq	qword ptr es:[rdi], rax
	
Ltmp876:
	mov	rdi, rdx
	call	__ZN8CryptoPP17AlignedDeallocateEPv
Ltmp877:
LBB72_13:
	mov	rdi, rbx
	call	__Unwind_Resume
	ud2
LBB72_14:
Ltmp878:
	mov	rdi, rax
	call	___clang_call_terminate
Lfunc_end21:
	.cfi_endproc
	.section	__TEXT,__gcc_except_tab
	.p2align	2
GCC_except_table72:
Lexception21:
	.byte	255                     
	.byte	155                     
	.uleb128 Lttbase19-Lttbaseref19
Lttbaseref19:
	.byte	1                       
	.uleb128 Lcst_end21-Lcst_begin21
Lcst_begin21:
	.uleb128 Lfunc_begin21-Lfunc_begin21 
	.uleb128 Ltmp864-Lfunc_begin21  
	.byte	0                       
	.byte	0                       
	.uleb128 Ltmp864-Lfunc_begin21  
	.uleb128 Ltmp865-Ltmp864        
	.uleb128 Ltmp875-Lfunc_begin21  
	.byte	0                       
	.uleb128 Ltmp866-Lfunc_begin21  
	.uleb128 Ltmp869-Ltmp866        
	.uleb128 Ltmp870-Lfunc_begin21  
	.byte	0                       
	.uleb128 Ltmp873-Lfunc_begin21  
	.uleb128 Ltmp874-Ltmp873        
	.uleb128 Ltmp875-Lfunc_begin21  
	.byte	0                       
	.uleb128 Ltmp874-Lfunc_begin21  
	.uleb128 Ltmp871-Ltmp874        
	.byte	0                       
	.byte	0                       
	.uleb128 Ltmp871-Lfunc_begin21  
	.uleb128 Ltmp877-Ltmp871        
	.uleb128 Ltmp878-Lfunc_begin21  
	.byte	1                       
	.uleb128 Ltmp877-Lfunc_begin21  
	.uleb128 Lfunc_end21-Ltmp877    
	.byte	0                       
	.byte	0                       
Lcst_end21:
	.byte	1                       
                                        
	.byte	0                       
	.p2align	2
                                        
	.long	0                       
Lttbase19:
	.p2align	2
                                        
	.section	__TEXT,__text,regular,pure_instructions
	.globl	__ZThn120_NK8CryptoPP25InvertibleRSAFunction_ISO16CalculateInverseERNS_21RandomNumberGeneratorERKNS_7IntegerE 
	.p2align	1, 0x90
__ZThn120_NK8CryptoPP25InvertibleRSAFunction_ISO16CalculateInverseERNS_21RandomNumberGeneratorERKNS_7IntegerE: 
	.cfi_startproc

	push	rbp
	.cfi_def_cfa_offset 16
	.cfi_offset rbp, -16
	mov	rbp, rsp
	.cfi_def_cfa_register rbp
	push	rbx
	push	rax
	.cfi_offset rbx, -24
	mov	rbx, rdi
	add	rsi, -120
	call	__ZNK8CryptoPP25InvertibleRSAFunction_ISO16CalculateInverseERNS_21RandomNumberGeneratorERKNS_7IntegerE
	mov	rax, rbx
	add	rsp, 8
	pop	rbx
	pop	rbp
	ret
	.cfi_endproc
                                        
	.globl	__ZN8CryptoPP13X509PublicKeyD1Ev 
	.weak_def_can_be_hidden	__ZN8CryptoPP13X509PublicKeyD1Ev
	.p2align	1, 0x90
__ZN8CryptoPP13X509PublicKeyD1Ev:       

	push	rbp
	mov	rbp, rsp
	ud2
                                        
	.globl	__ZN8CryptoPP13X509PublicKeyD0Ev 
	.weak_def_can_be_hidden	__ZN8CryptoPP13X509PublicKeyD0Ev
	.p2align	1, 0x90
__ZN8CryptoPP13X509PublicKeyD0Ev:       

	push	rbp
	mov	rbp, rsp
	ud2
                                        
	.globl	__ZNK8CryptoPP10ASN1Object9BEREncodeERNS_22BufferedTransformationE 
	.weak_def_can_be_hidden	__ZNK8CryptoPP10ASN1Object9BEREncodeERNS_22BufferedTransformationE
	.p2align	1, 0x90
__ZNK8CryptoPP10ASN1Object9BEREncodeERNS_22BufferedTransformationE: 
	.cfi_startproc

	push	rbp
	.cfi_def_cfa_offset 16
	.cfi_offset rbp, -16
	mov	rbp, rsp
	.cfi_def_cfa_register rbp
	mov	rax, qword ptr [rdi]
	mov	rax, qword ptr [rax + 24]
	pop	rbp
	jmp	rax                     
	.cfi_endproc
                                        
	.globl	__ZNK8CryptoPP18ASN1CryptoMaterialINS_9PublicKeyEE4SaveERNS_22BufferedTransformationE 
	.weak_def_can_be_hidden	__ZNK8CryptoPP18ASN1CryptoMaterialINS_9PublicKeyEE4SaveERNS_22BufferedTransformationE
	.p2align	1, 0x90
__ZNK8CryptoPP18ASN1CryptoMaterialINS_9PublicKeyEE4SaveERNS_22BufferedTransformationE: 
	.cfi_startproc

	push	rbp
	.cfi_def_cfa_offset 16
	.cfi_offset rbp, -16
	mov	rbp, rsp
	.cfi_def_cfa_register rbp
	mov	rax, qword ptr [rdi]
	mov	rax, qword ptr [rax + 32]
	pop	rbp
	jmp	rax                     
	.cfi_endproc
                                        
	.globl	__ZN8CryptoPP18ASN1CryptoMaterialINS_9PublicKeyEE4LoadERNS_22BufferedTransformationE 
	.weak_def_can_be_hidden	__ZN8CryptoPP18ASN1CryptoMaterialINS_9PublicKeyEE4LoadERNS_22BufferedTransformationE
	.p2align	1, 0x90
__ZN8CryptoPP18ASN1CryptoMaterialINS_9PublicKeyEE4LoadERNS_22BufferedTransformationE: 
	.cfi_startproc

	push	rbp
	.cfi_def_cfa_offset 16
	.cfi_offset rbp, -16
	mov	rbp, rsp
	.cfi_def_cfa_register rbp
	mov	rax, qword ptr [rdi]
	mov	rax, qword ptr [rax + 16]
	pop	rbp
	jmp	rax                     
	.cfi_endproc
                                        
	.globl	__ZN8CryptoPP13X509PublicKey28BERDecodeAlgorithmParametersERNS_22BufferedTransformationE 
	.weak_def_can_be_hidden	__ZN8CryptoPP13X509PublicKey28BERDecodeAlgorithmParametersERNS_22BufferedTransformationE
	.p2align	1, 0x90
__ZN8CryptoPP13X509PublicKey28BERDecodeAlgorithmParametersERNS_22BufferedTransformationE: 
	.cfi_startproc

	push	rbp
	.cfi_def_cfa_offset 16
	.cfi_offset rbp, -16
	mov	rbp, rsp
	.cfi_def_cfa_register rbp
	mov	rdi, rsi
	call	__ZN8CryptoPP13BERDecodeNullERNS_22BufferedTransformationE
	xor	eax, eax
	pop	rbp
	ret
	.cfi_endproc
                                        
	.globl	__ZNK8CryptoPP13X509PublicKey28DEREncodeAlgorithmParametersERNS_22BufferedTransformationE 
	.weak_def_can_be_hidden	__ZNK8CryptoPP13X509PublicKey28DEREncodeAlgorithmParametersERNS_22BufferedTransformationE
	.p2align	1, 0x90
__ZNK8CryptoPP13X509PublicKey28DEREncodeAlgorithmParametersERNS_22BufferedTransformationE: 
	.cfi_startproc

	push	rbp
	.cfi_def_cfa_offset 16
	.cfi_offset rbp, -16
	mov	rbp, rsp
	.cfi_def_cfa_register rbp
	mov	rdi, rsi
	call	__ZN8CryptoPP13DEREncodeNullERNS_22BufferedTransformationE
	xor	eax, eax
	pop	rbp
	ret
	.cfi_endproc
                                        
	.globl	__ZThn8_N8CryptoPP13X509PublicKeyD1Ev 
	.weak_def_can_be_hidden	__ZThn8_N8CryptoPP13X509PublicKeyD1Ev
	.p2align	1, 0x90
__ZThn8_N8CryptoPP13X509PublicKeyD1Ev:  
	.cfi_startproc

	push	rbp
	.cfi_def_cfa_offset 16
	.cfi_offset rbp, -16
	mov	rbp, rsp
	.cfi_def_cfa_register rbp
	ud2
	.cfi_endproc
                                        
	.globl	__ZThn8_N8CryptoPP13X509PublicKeyD0Ev 
	.weak_def_can_be_hidden	__ZThn8_N8CryptoPP13X509PublicKeyD0Ev
	.p2align	1, 0x90
__ZThn8_N8CryptoPP13X509PublicKeyD0Ev:  
	.cfi_startproc

	push	rbp
	.cfi_def_cfa_offset 16
	.cfi_offset rbp, -16
	mov	rbp, rsp
	.cfi_def_cfa_register rbp
	ud2
	.cfi_endproc
                                        
	.globl	__ZNK8CryptoPP14CryptoMaterial14ThrowIfInvalidERNS_21RandomNumberGeneratorEj 
	.weak_def_can_be_hidden	__ZNK8CryptoPP14CryptoMaterial14ThrowIfInvalidERNS_21RandomNumberGeneratorEj
	.p2align	1, 0x90
__ZNK8CryptoPP14CryptoMaterial14ThrowIfInvalidERNS_21RandomNumberGeneratorEj: 
Lfunc_begin22:
	.cfi_startproc
	.cfi_personality 155, ___gxx_personality_v0
	.cfi_lsda 16, Lexception22

	push	rbp
	.cfi_def_cfa_offset 16
	.cfi_offset rbp, -16
	mov	rbp, rsp
	.cfi_def_cfa_register rbp
	push	r15
	push	r14
	push	rbx
	sub	rsp, 24
	.cfi_offset rbx, -40
	.cfi_offset r14, -32
	.cfi_offset r15, -24
	mov	rax, qword ptr [rdi]
	call	qword ptr [rax + 32]
	test	al, al
	je	LBB83_1

	add	rsp, 24
	pop	rbx
	pop	r14
	pop	r15
	pop	rbp
	ret
LBB83_1:
	mov	edi, 40
	call	___cxa_allocate_exception
	mov	rbx, rax
Ltmp879:
	lea	rsi, [rip + L_.str.34]
	lea	rdi, [rbp - 48]
	call	__ZNSt3__112basic_stringIcNS_11char_traitsIcEENS_9allocatorIcEEEC1INS_9nullptr_tEEEPKc
Ltmp880:

	mov	r15b, 1
Ltmp882:
	lea	rdx, [rbp - 48]
	mov	rdi, rbx
	mov	esi, 4
	call	__ZN8CryptoPP9ExceptionC2ENS0_9ErrorTypeERKNSt3__112basic_stringIcNS2_11char_traitsIcEENS2_9allocatorIcEEEE
Ltmp883:

	mov	rax, qword ptr [rip + __ZTVN8CryptoPP14CryptoMaterial15InvalidMaterialE@GOTPCREL]
	add	rax, 16
	mov	qword ptr [rbx], rax
	xor	r15d, r15d
Ltmp884:
	mov	rsi, qword ptr [rip + __ZTIN8CryptoPP14CryptoMaterial15InvalidMaterialE@GOTPCREL]
	mov	rdx, qword ptr [rip + __ZN8CryptoPP14CryptoMaterial15InvalidMaterialD1Ev@GOTPCREL]
	mov	rdi, rbx
	call	___cxa_throw
Ltmp885:

	ud2
LBB83_4:
Ltmp881:
	mov	r14, rax
	jmp	LBB83_8
LBB83_5:
Ltmp886:
	mov	r14, rax
	test	byte ptr [rbp - 48], 1
	je	LBB83_7

	mov	rdi, qword ptr [rbp - 32]
	call	__ZdlPv
LBB83_7:
	test	r15b, r15b
	je	LBB83_9
LBB83_8:
	mov	rdi, rbx
	call	___cxa_free_exception
LBB83_9:
	mov	rdi, r14
	call	__Unwind_Resume
	ud2
Lfunc_end22:
	.cfi_endproc
	.section	__TEXT,__gcc_except_tab
	.p2align	2
GCC_except_table83:
Lexception22:
	.byte	255                     
	.byte	255                     
	.byte	1                       
	.uleb128 Lcst_end22-Lcst_begin22
Lcst_begin22:
	.uleb128 Lfunc_begin22-Lfunc_begin22 
	.uleb128 Ltmp879-Lfunc_begin22  
	.byte	0                       
	.byte	0                       
	.uleb128 Ltmp879-Lfunc_begin22  
	.uleb128 Ltmp880-Ltmp879        
	.uleb128 Ltmp881-Lfunc_begin22  
	.byte	0                       
	.uleb128 Ltmp882-Lfunc_begin22  
	.uleb128 Ltmp885-Ltmp882        
	.uleb128 Ltmp886-Lfunc_begin22  
	.byte	0                       
	.uleb128 Ltmp885-Lfunc_begin22  
	.uleb128 Lfunc_end22-Ltmp885    
	.byte	0                       
	.byte	0                       
Lcst_end22:
	.p2align	2
                                        
	.section	__TEXT,__text,regular,pure_instructions
	.globl	__ZTv0_n64_NK8CryptoPP18ASN1CryptoMaterialINS_9PublicKeyEE4SaveERNS_22BufferedTransformationE 
	.weak_def_can_be_hidden	__ZTv0_n64_NK8CryptoPP18ASN1CryptoMaterialINS_9PublicKeyEE4SaveERNS_22BufferedTransformationE
	.p2align	1, 0x90
__ZTv0_n64_NK8CryptoPP18ASN1CryptoMaterialINS_9PublicKeyEE4SaveERNS_22BufferedTransformationE: 
	.cfi_startproc

	push	rbp
	.cfi_def_cfa_offset 16
	.cfi_offset rbp, -16
	mov	rbp, rsp
	.cfi_def_cfa_register rbp
	mov	rax, qword ptr [rdi]
	mov	rcx, qword ptr [rax - 64]
	lea	rax, [rdi + rcx]
	mov	rcx, qword ptr [rdi + rcx]
	mov	rcx, qword ptr [rcx + 32]
	mov	rdi, rax
	pop	rbp
	jmp	rcx                     
	.cfi_endproc
                                        
	.globl	__ZTv0_n72_N8CryptoPP18ASN1CryptoMaterialINS_9PublicKeyEE4LoadERNS_22BufferedTransformationE 
	.weak_def_can_be_hidden	__ZTv0_n72_N8CryptoPP18ASN1CryptoMaterialINS_9PublicKeyEE4LoadERNS_22BufferedTransformationE
	.p2align	1, 0x90
__ZTv0_n72_N8CryptoPP18ASN1CryptoMaterialINS_9PublicKeyEE4LoadERNS_22BufferedTransformationE: 
	.cfi_startproc

	push	rbp
	.cfi_def_cfa_offset 16
	.cfi_offset rbp, -16
	mov	rbp, rsp
	.cfi_def_cfa_register rbp
	mov	rax, qword ptr [rdi]
	mov	rcx, qword ptr [rax - 72]
	lea	rax, [rdi + rcx]
	mov	rcx, qword ptr [rdi + rcx]
	mov	rcx, qword ptr [rcx + 16]
	mov	rdi, rax
	pop	rbp
	jmp	rcx                     
	.cfi_endproc
                                        
	.globl	__ZNK8CryptoPP14CryptoMaterial22SupportsPrecomputationEv 
	.weak_def_can_be_hidden	__ZNK8CryptoPP14CryptoMaterial22SupportsPrecomputationEv
	.p2align	1, 0x90
__ZNK8CryptoPP14CryptoMaterial22SupportsPrecomputationEv: 

	push	rbp
	mov	rbp, rsp
	xor	eax, eax
	pop	rbp
	ret
                                        
	.globl	__ZN8CryptoPP14CryptoMaterial10PrecomputeEj 
	.weak_def_can_be_hidden	__ZN8CryptoPP14CryptoMaterial10PrecomputeEj
	.p2align	1, 0x90
__ZN8CryptoPP14CryptoMaterial10PrecomputeEj: 
Lfunc_begin23:
	.cfi_startproc
	.cfi_personality 155, ___gxx_personality_v0
	.cfi_lsda 16, Lexception23

	push	rbp
	.cfi_def_cfa_offset 16
	.cfi_offset rbp, -16
	mov	rbp, rsp
	.cfi_def_cfa_register rbp
	push	r15
	push	r14
	push	rbx
	sub	rsp, 24
	.cfi_offset rbx, -40
	.cfi_offset r14, -32
	.cfi_offset r15, -24
	mov	edi, 40
	call	___cxa_allocate_exception
	mov	rbx, rax
Ltmp887:
	lea	rsi, [rip + L_.str.35]
	lea	rdi, [rbp - 48]
	call	__ZNSt3__112basic_stringIcNS_11char_traitsIcEENS_9allocatorIcEEEC1INS_9nullptr_tEEEPKc
Ltmp888:

	mov	r15b, 1
Ltmp890:
	lea	rdx, [rbp - 48]
	mov	rdi, rbx
	xor	esi, esi
	call	__ZN8CryptoPP9ExceptionC2ENS0_9ErrorTypeERKNSt3__112basic_stringIcNS2_11char_traitsIcEENS2_9allocatorIcEEEE
Ltmp891:

	mov	rax, qword ptr [rip + __ZTVN8CryptoPP14NotImplementedE@GOTPCREL]
	add	rax, 16
	mov	qword ptr [rbx], rax
	xor	r15d, r15d
Ltmp892:
	mov	rsi, qword ptr [rip + __ZTIN8CryptoPP14NotImplementedE@GOTPCREL]
	mov	rdx, qword ptr [rip + __ZN8CryptoPP14NotImplementedD1Ev@GOTPCREL]
	mov	rdi, rbx
	call	___cxa_throw
Ltmp893:

	ud2
LBB87_3:
Ltmp889:
	mov	r14, rax
	jmp	LBB87_7
LBB87_4:
Ltmp894:
	mov	r14, rax
	test	byte ptr [rbp - 48], 1
	je	LBB87_6

	mov	rdi, qword ptr [rbp - 32]
	call	__ZdlPv
LBB87_6:
	test	r15b, r15b
	je	LBB87_8
LBB87_7:
	mov	rdi, rbx
	call	___cxa_free_exception
LBB87_8:
	mov	rdi, r14
	call	__Unwind_Resume
	ud2
Lfunc_end23:
	.cfi_endproc
	.section	__TEXT,__gcc_except_tab
	.p2align	2
GCC_except_table87:
Lexception23:
	.byte	255                     
	.byte	255                     
	.byte	1                       
	.uleb128 Lcst_end23-Lcst_begin23
Lcst_begin23:
	.uleb128 Lfunc_begin23-Lfunc_begin23 
	.uleb128 Ltmp887-Lfunc_begin23  
	.byte	0                       
	.byte	0                       
	.uleb128 Ltmp887-Lfunc_begin23  
	.uleb128 Ltmp888-Ltmp887        
	.uleb128 Ltmp889-Lfunc_begin23  
	.byte	0                       
	.uleb128 Ltmp890-Lfunc_begin23  
	.uleb128 Ltmp893-Ltmp890        
	.uleb128 Ltmp894-Lfunc_begin23  
	.byte	0                       
	.uleb128 Ltmp893-Lfunc_begin23  
	.uleb128 Lfunc_end23-Ltmp893    
	.byte	0                       
	.byte	0                       
Lcst_end23:
	.p2align	2
                                        
	.section	__TEXT,__text,regular,pure_instructions
	.globl	__ZN8CryptoPP14CryptoMaterial18LoadPrecomputationERNS_22BufferedTransformationE 
	.weak_def_can_be_hidden	__ZN8CryptoPP14CryptoMaterial18LoadPrecomputationERNS_22BufferedTransformationE
	.p2align	1, 0x90
__ZN8CryptoPP14CryptoMaterial18LoadPrecomputationERNS_22BufferedTransformationE: 
Lfunc_begin24:
	.cfi_startproc
	.cfi_personality 155, ___gxx_personality_v0
	.cfi_lsda 16, Lexception24

	push	rbp
	.cfi_def_cfa_offset 16
	.cfi_offset rbp, -16
	mov	rbp, rsp
	.cfi_def_cfa_register rbp
	push	r15
	push	r14
	push	rbx
	sub	rsp, 24
	.cfi_offset rbx, -40
	.cfi_offset r14, -32
	.cfi_offset r15, -24
	mov	edi, 40
	call	___cxa_allocate_exception
	mov	rbx, rax
Ltmp895:
	lea	rsi, [rip + L_.str.35]
	lea	rdi, [rbp - 48]
	call	__ZNSt3__112basic_stringIcNS_11char_traitsIcEENS_9allocatorIcEEEC1INS_9nullptr_tEEEPKc
Ltmp896:

	mov	r15b, 1
Ltmp898:
	lea	rdx, [rbp - 48]
	mov	rdi, rbx
	xor	esi, esi
	call	__ZN8CryptoPP9ExceptionC2ENS0_9ErrorTypeERKNSt3__112basic_stringIcNS2_11char_traitsIcEENS2_9allocatorIcEEEE
Ltmp899:

	mov	rax, qword ptr [rip + __ZTVN8CryptoPP14NotImplementedE@GOTPCREL]
	add	rax, 16
	mov	qword ptr [rbx], rax
	xor	r15d, r15d
Ltmp900:
	mov	rsi, qword ptr [rip + __ZTIN8CryptoPP14NotImplementedE@GOTPCREL]
	mov	rdx, qword ptr [rip + __ZN8CryptoPP14NotImplementedD1Ev@GOTPCREL]
	mov	rdi, rbx
	call	___cxa_throw
Ltmp901:

	ud2
LBB88_3:
Ltmp897:
	mov	r14, rax
	jmp	LBB88_7
LBB88_4:
Ltmp902:
	mov	r14, rax
	test	byte ptr [rbp - 48], 1
	je	LBB88_6

	mov	rdi, qword ptr [rbp - 32]
	call	__ZdlPv
LBB88_6:
	test	r15b, r15b
	je	LBB88_8
LBB88_7:
	mov	rdi, rbx
	call	___cxa_free_exception
LBB88_8:
	mov	rdi, r14
	call	__Unwind_Resume
	ud2
Lfunc_end24:
	.cfi_endproc
	.section	__TEXT,__gcc_except_tab
	.p2align	2
GCC_except_table88:
Lexception24:
	.byte	255                     
	.byte	255                     
	.byte	1                       
	.uleb128 Lcst_end24-Lcst_begin24
Lcst_begin24:
	.uleb128 Lfunc_begin24-Lfunc_begin24 
	.uleb128 Ltmp895-Lfunc_begin24  
	.byte	0                       
	.byte	0                       
	.uleb128 Ltmp895-Lfunc_begin24  
	.uleb128 Ltmp896-Ltmp895        
	.uleb128 Ltmp897-Lfunc_begin24  
	.byte	0                       
	.uleb128 Ltmp898-Lfunc_begin24  
	.uleb128 Ltmp901-Ltmp898        
	.uleb128 Ltmp902-Lfunc_begin24  
	.byte	0                       
	.uleb128 Ltmp901-Lfunc_begin24  
	.uleb128 Lfunc_end24-Ltmp901    
	.byte	0                       
	.byte	0                       
Lcst_end24:
	.p2align	2
                                        
	.section	__TEXT,__text,regular,pure_instructions
	.globl	__ZNK8CryptoPP14CryptoMaterial18SavePrecomputationERNS_22BufferedTransformationE 
	.weak_def_can_be_hidden	__ZNK8CryptoPP14CryptoMaterial18SavePrecomputationERNS_22BufferedTransformationE
	.p2align	1, 0x90
__ZNK8CryptoPP14CryptoMaterial18SavePrecomputationERNS_22BufferedTransformationE: 
Lfunc_begin25:
	.cfi_startproc
	.cfi_personality 155, ___gxx_personality_v0
	.cfi_lsda 16, Lexception25

	push	rbp
	.cfi_def_cfa_offset 16
	.cfi_offset rbp, -16
	mov	rbp, rsp
	.cfi_def_cfa_register rbp
	push	r15
	push	r14
	push	rbx
	sub	rsp, 24
	.cfi_offset rbx, -40
	.cfi_offset r14, -32
	.cfi_offset r15, -24
	mov	edi, 40
	call	___cxa_allocate_exception
	mov	rbx, rax
Ltmp903:
	lea	rsi, [rip + L_.str.35]
	lea	rdi, [rbp - 48]
	call	__ZNSt3__112basic_stringIcNS_11char_traitsIcEENS_9allocatorIcEEEC1INS_9nullptr_tEEEPKc
Ltmp904:

	mov	r15b, 1
Ltmp906:
	lea	rdx, [rbp - 48]
	mov	rdi, rbx
	xor	esi, esi
	call	__ZN8CryptoPP9ExceptionC2ENS0_9ErrorTypeERKNSt3__112basic_stringIcNS2_11char_traitsIcEENS2_9allocatorIcEEEE
Ltmp907:

	mov	rax, qword ptr [rip + __ZTVN8CryptoPP14NotImplementedE@GOTPCREL]
	add	rax, 16
	mov	qword ptr [rbx], rax
	xor	r15d, r15d
Ltmp908:
	mov	rsi, qword ptr [rip + __ZTIN8CryptoPP14NotImplementedE@GOTPCREL]
	mov	rdx, qword ptr [rip + __ZN8CryptoPP14NotImplementedD1Ev@GOTPCREL]
	mov	rdi, rbx
	call	___cxa_throw
Ltmp909:

	ud2
LBB89_3:
Ltmp905:
	mov	r14, rax
	jmp	LBB89_7
LBB89_4:
Ltmp910:
	mov	r14, rax
	test	byte ptr [rbp - 48], 1
	je	LBB89_6

	mov	rdi, qword ptr [rbp - 32]
	call	__ZdlPv
LBB89_6:
	test	r15b, r15b
	je	LBB89_8
LBB89_7:
	mov	rdi, rbx
	call	___cxa_free_exception
LBB89_8:
	mov	rdi, r14
	call	__Unwind_Resume
	ud2
Lfunc_end25:
	.cfi_endproc
	.section	__TEXT,__gcc_except_tab
	.p2align	2
GCC_except_table89:
Lexception25:
	.byte	255                     
	.byte	255                     
	.byte	1                       
	.uleb128 Lcst_end25-Lcst_begin25
Lcst_begin25:
	.uleb128 Lfunc_begin25-Lfunc_begin25 
	.uleb128 Ltmp903-Lfunc_begin25  
	.byte	0                       
	.byte	0                       
	.uleb128 Ltmp903-Lfunc_begin25  
	.uleb128 Ltmp904-Ltmp903        
	.uleb128 Ltmp905-Lfunc_begin25  
	.byte	0                       
	.uleb128 Ltmp906-Lfunc_begin25  
	.uleb128 Ltmp909-Ltmp906        
	.uleb128 Ltmp910-Lfunc_begin25  
	.byte	0                       
	.uleb128 Ltmp909-Lfunc_begin25  
	.uleb128 Lfunc_end25-Ltmp909    
	.byte	0                       
	.byte	0                       
Lcst_end25:
	.p2align	2
                                        
	.section	__TEXT,__text,regular,pure_instructions
	.globl	__ZN8CryptoPP18ASN1CryptoMaterialINS_9PublicKeyEED1Ev 
	.weak_def_can_be_hidden	__ZN8CryptoPP18ASN1CryptoMaterialINS_9PublicKeyEED1Ev
	.p2align	1, 0x90
__ZN8CryptoPP18ASN1CryptoMaterialINS_9PublicKeyEED1Ev: 

	push	rbp
	mov	rbp, rsp
	ud2
                                        
	.globl	__ZN8CryptoPP18ASN1CryptoMaterialINS_9PublicKeyEED0Ev 
	.weak_def_can_be_hidden	__ZN8CryptoPP18ASN1CryptoMaterialINS_9PublicKeyEED0Ev
	.p2align	1, 0x90
__ZN8CryptoPP18ASN1CryptoMaterialINS_9PublicKeyEED0Ev: 

	push	rbp
	mov	rbp, rsp
	ud2
                                        
	.globl	__ZThn8_N8CryptoPP18ASN1CryptoMaterialINS_9PublicKeyEED1Ev 
	.weak_def_can_be_hidden	__ZThn8_N8CryptoPP18ASN1CryptoMaterialINS_9PublicKeyEED1Ev
	.p2align	1, 0x90
__ZThn8_N8CryptoPP18ASN1CryptoMaterialINS_9PublicKeyEED1Ev: 
	.cfi_startproc

	push	rbp
	.cfi_def_cfa_offset 16
	.cfi_offset rbp, -16
	mov	rbp, rsp
	.cfi_def_cfa_register rbp
	ud2
	.cfi_endproc
                                        
	.globl	__ZThn8_N8CryptoPP18ASN1CryptoMaterialINS_9PublicKeyEED0Ev 
	.weak_def_can_be_hidden	__ZThn8_N8CryptoPP18ASN1CryptoMaterialINS_9PublicKeyEED0Ev
	.p2align	1, 0x90
__ZThn8_N8CryptoPP18ASN1CryptoMaterialINS_9PublicKeyEED0Ev: 
	.cfi_startproc

	push	rbp
	.cfi_def_cfa_offset 16
	.cfi_offset rbp, -16
	mov	rbp, rsp
	.cfi_def_cfa_register rbp
	ud2
	.cfi_endproc
                                        
	.globl	__ZN8CryptoPP9PublicKeyD1Ev 
	.weak_def_can_be_hidden	__ZN8CryptoPP9PublicKeyD1Ev
	.p2align	1, 0x90
__ZN8CryptoPP9PublicKeyD1Ev:            

	push	rbp
	mov	rbp, rsp
	ud2
                                        
	.globl	__ZN8CryptoPP9PublicKeyD0Ev 
	.weak_def_can_be_hidden	__ZN8CryptoPP9PublicKeyD0Ev
	.p2align	1, 0x90
__ZN8CryptoPP9PublicKeyD0Ev:            

	push	rbp
	mov	rbp, rsp
	ud2
                                        
	.globl	__ZNK8CryptoPP14CryptoMaterial4SaveERNS_22BufferedTransformationE 
	.weak_def_can_be_hidden	__ZNK8CryptoPP14CryptoMaterial4SaveERNS_22BufferedTransformationE
	.p2align	1, 0x90
__ZNK8CryptoPP14CryptoMaterial4SaveERNS_22BufferedTransformationE: 
Lfunc_begin26:
	.cfi_startproc
	.cfi_personality 155, ___gxx_personality_v0
	.cfi_lsda 16, Lexception26

	push	rbp
	.cfi_def_cfa_offset 16
	.cfi_offset rbp, -16
	mov	rbp, rsp
	.cfi_def_cfa_register rbp
	push	r15
	push	r14
	push	rbx
	sub	rsp, 24
	.cfi_offset rbx, -40
	.cfi_offset r14, -32
	.cfi_offset r15, -24
	mov	edi, 40
	call	___cxa_allocate_exception
	mov	rbx, rax
Ltmp911:
	lea	rsi, [rip + L_.str.36]
	lea	rdi, [rbp - 48]
	call	__ZNSt3__112basic_stringIcNS_11char_traitsIcEENS_9allocatorIcEEEC1INS_9nullptr_tEEEPKc
Ltmp912:

	mov	r15b, 1
Ltmp914:
	lea	rdx, [rbp - 48]
	mov	rdi, rbx
	xor	esi, esi
	call	__ZN8CryptoPP9ExceptionC2ENS0_9ErrorTypeERKNSt3__112basic_stringIcNS2_11char_traitsIcEENS2_9allocatorIcEEEE
Ltmp915:

	mov	rax, qword ptr [rip + __ZTVN8CryptoPP14NotImplementedE@GOTPCREL]
	add	rax, 16
	mov	qword ptr [rbx], rax
	xor	r15d, r15d
Ltmp916:
	mov	rsi, qword ptr [rip + __ZTIN8CryptoPP14NotImplementedE@GOTPCREL]
	mov	rdx, qword ptr [rip + __ZN8CryptoPP14NotImplementedD1Ev@GOTPCREL]
	mov	rdi, rbx
	call	___cxa_throw
Ltmp917:

	ud2
LBB96_3:
Ltmp913:
	mov	r14, rax
	jmp	LBB96_7
LBB96_4:
Ltmp918:
	mov	r14, rax
	test	byte ptr [rbp - 48], 1
	je	LBB96_6

	mov	rdi, qword ptr [rbp - 32]
	call	__ZdlPv
LBB96_6:
	test	r15b, r15b
	je	LBB96_8
LBB96_7:
	mov	rdi, rbx
	call	___cxa_free_exception
LBB96_8:
	mov	rdi, r14
	call	__Unwind_Resume
	ud2
Lfunc_end26:
	.cfi_endproc
	.section	__TEXT,__gcc_except_tab
	.p2align	2
GCC_except_table96:
Lexception26:
	.byte	255                     
	.byte	255                     
	.byte	1                       
	.uleb128 Lcst_end26-Lcst_begin26
Lcst_begin26:
	.uleb128 Lfunc_begin26-Lfunc_begin26 
	.uleb128 Ltmp911-Lfunc_begin26  
	.byte	0                       
	.byte	0                       
	.uleb128 Ltmp911-Lfunc_begin26  
	.uleb128 Ltmp912-Ltmp911        
	.uleb128 Ltmp913-Lfunc_begin26  
	.byte	0                       
	.uleb128 Ltmp914-Lfunc_begin26  
	.uleb128 Ltmp917-Ltmp914        
	.uleb128 Ltmp918-Lfunc_begin26  
	.byte	0                       
	.uleb128 Ltmp917-Lfunc_begin26  
	.uleb128 Lfunc_end26-Ltmp917    
	.byte	0                       
	.byte	0                       
Lcst_end26:
	.p2align	2
                                        
	.section	__TEXT,__text,regular,pure_instructions
	.globl	__ZN8CryptoPP14CryptoMaterial4LoadERNS_22BufferedTransformationE 
	.weak_def_can_be_hidden	__ZN8CryptoPP14CryptoMaterial4LoadERNS_22BufferedTransformationE
	.p2align	1, 0x90
__ZN8CryptoPP14CryptoMaterial4LoadERNS_22BufferedTransformationE: 
Lfunc_begin27:
	.cfi_startproc
	.cfi_personality 155, ___gxx_personality_v0
	.cfi_lsda 16, Lexception27

	push	rbp
	.cfi_def_cfa_offset 16
	.cfi_offset rbp, -16
	mov	rbp, rsp
	.cfi_def_cfa_register rbp
	push	r15
	push	r14
	push	rbx
	sub	rsp, 24
	.cfi_offset rbx, -40
	.cfi_offset r14, -32
	.cfi_offset r15, -24
	mov	edi, 40
	call	___cxa_allocate_exception
	mov	rbx, rax
Ltmp919:
	lea	rsi, [rip + L_.str.37]
	lea	rdi, [rbp - 48]
	call	__ZNSt3__112basic_stringIcNS_11char_traitsIcEENS_9allocatorIcEEEC1INS_9nullptr_tEEEPKc
Ltmp920:

	mov	r15b, 1
Ltmp922:
	lea	rdx, [rbp - 48]
	mov	rdi, rbx
	xor	esi, esi
	call	__ZN8CryptoPP9ExceptionC2ENS0_9ErrorTypeERKNSt3__112basic_stringIcNS2_11char_traitsIcEENS2_9allocatorIcEEEE
Ltmp923:

	mov	rax, qword ptr [rip + __ZTVN8CryptoPP14NotImplementedE@GOTPCREL]
	add	rax, 16
	mov	qword ptr [rbx], rax
	xor	r15d, r15d
Ltmp924:
	mov	rsi, qword ptr [rip + __ZTIN8CryptoPP14NotImplementedE@GOTPCREL]
	mov	rdx, qword ptr [rip + __ZN8CryptoPP14NotImplementedD1Ev@GOTPCREL]
	mov	rdi, rbx
	call	___cxa_throw
Ltmp925:

	ud2
LBB97_3:
Ltmp921:
	mov	r14, rax
	jmp	LBB97_7
LBB97_4:
Ltmp926:
	mov	r14, rax
	test	byte ptr [rbp - 48], 1
	je	LBB97_6

	mov	rdi, qword ptr [rbp - 32]
	call	__ZdlPv
LBB97_6:
	test	r15b, r15b
	je	LBB97_8
LBB97_7:
	mov	rdi, rbx
	call	___cxa_free_exception
LBB97_8:
	mov	rdi, r14
	call	__Unwind_Resume
	ud2
Lfunc_end27:
	.cfi_endproc
	.section	__TEXT,__gcc_except_tab
	.p2align	2
GCC_except_table97:
Lexception27:
	.byte	255                     
	.byte	255                     
	.byte	1                       
	.uleb128 Lcst_end27-Lcst_begin27
Lcst_begin27:
	.uleb128 Lfunc_begin27-Lfunc_begin27 
	.uleb128 Ltmp919-Lfunc_begin27  
	.byte	0                       
	.byte	0                       
	.uleb128 Ltmp919-Lfunc_begin27  
	.uleb128 Ltmp920-Ltmp919        
	.uleb128 Ltmp921-Lfunc_begin27  
	.byte	0                       
	.uleb128 Ltmp922-Lfunc_begin27  
	.uleb128 Ltmp925-Ltmp922        
	.uleb128 Ltmp926-Lfunc_begin27  
	.byte	0                       
	.uleb128 Ltmp925-Lfunc_begin27  
	.uleb128 Lfunc_end27-Ltmp925    
	.byte	0                       
	.byte	0                       
Lcst_end27:
	.p2align	2
                                        
	.section	__TEXT,__text,regular,pure_instructions
	.globl	__ZN8CryptoPP11RSAFunctionD1Ev 
	.weak_def_can_be_hidden	__ZN8CryptoPP11RSAFunctionD1Ev
	.p2align	1, 0x90
__ZN8CryptoPP11RSAFunctionD1Ev:         
Lfunc_begin28:
	.cfi_startproc
	.cfi_personality 155, ___gxx_personality_v0
	.cfi_lsda 16, Lexception28

	push	rbp
	.cfi_def_cfa_offset 16
	.cfi_offset rbp, -16
	mov	rbp, rsp
	.cfi_def_cfa_register rbp
	push	r15
	push	r14
	push	rbx
	push	rax
	.cfi_offset rbx, -40
	.cfi_offset r14, -32
	.cfi_offset r15, -24
	mov	rbx, rdi
	lea	rax, [rip + __ZTVN8CryptoPP11RSAFunctionE+24]
	mov	qword ptr [rdi], rax
	lea	rax, [rip + __ZTVN8CryptoPP11RSAFunctionE+168]
	mov	qword ptr [rdi + 8], rax
	lea	rax, [rip + __ZTVN8CryptoPP11RSAFunctionE+376]
	mov	qword ptr [rdi + 16], rax
	mov	r15, qword ptr [rip + __ZTVN8CryptoPP7IntegerE@GOTPCREL]
	add	r15, 16
	mov	qword ptr [rdi + 72], r15
	add	rdi, 80
Ltmp927:
	call	__ZN8CryptoPP8SecBlockImNS_20AllocatorWithCleanupImLb1EEEED2Ev
Ltmp928:

	mov	qword ptr [rbx + 24], r15
	add	rbx, 32
Ltmp933:
	mov	rdi, rbx
	call	__ZN8CryptoPP8SecBlockImNS_20AllocatorWithCleanupImLb1EEEED2Ev
Ltmp934:

	add	rsp, 8
	pop	rbx
	pop	r14
	pop	r15
	pop	rbp
	ret
LBB98_4:
Ltmp935:
	mov	r14, rax
	jmp	LBB98_5
LBB98_3:
Ltmp929:
	mov	r14, rax
	mov	qword ptr [rbx + 24], r15
	add	rbx, 32
Ltmp930:
	mov	rdi, rbx
	call	__ZN8CryptoPP8SecBlockImNS_20AllocatorWithCleanupImLb1EEEED2Ev
Ltmp931:
LBB98_5:
	mov	rdi, r14
	call	__Unwind_Resume
	ud2
LBB98_6:
Ltmp932:
	mov	rdi, rax
	call	___clang_call_terminate
Lfunc_end28:
	.cfi_endproc
	.section	__TEXT,__gcc_except_tab
	.p2align	2
GCC_except_table98:
Lexception28:
	.byte	255                     
	.byte	155                     
	.uleb128 Lttbase20-Lttbaseref20
Lttbaseref20:
	.byte	1                       
	.uleb128 Lcst_end28-Lcst_begin28
Lcst_begin28:
	.uleb128 Ltmp927-Lfunc_begin28  
	.uleb128 Ltmp928-Ltmp927        
	.uleb128 Ltmp929-Lfunc_begin28  
	.byte	0                       
	.uleb128 Ltmp933-Lfunc_begin28  
	.uleb128 Ltmp934-Ltmp933        
	.uleb128 Ltmp935-Lfunc_begin28  
	.byte	0                       
	.uleb128 Ltmp930-Lfunc_begin28  
	.uleb128 Ltmp931-Ltmp930        
	.uleb128 Ltmp932-Lfunc_begin28  
	.byte	1                       
	.uleb128 Ltmp931-Lfunc_begin28  
	.uleb128 Lfunc_end28-Ltmp931    
