	.section	__TEXT,__text,regular,pure_instructions
	.build_version macos, 11, 0	sdk_version 11, 1
	.intel_syntax noprefix
	.globl	__ZNK8CryptoPP11RSAFunction14GetAlgorithmIDEv 
	.p2align	4, 0x90
__ZNK8CryptoPP11RSAFunction14GetAlgorithmIDEv: 
Lfunc_begin0:
	.cfi_startproc
	.cfi_personality 155, ___gxx_personality_v0
	.cfi_lsda 16, Lexception0

	push	rbp
	.cfi_def_cfa_offset 16
	.cfi_offset rbp, -16
	mov	rbp, rsp
	.cfi_def_cfa_register rbp
	push	r14
	push	rbx
	sub	rsp, 32
	.cfi_offset rbx, -32
	.cfi_offset r14, -24
	mov	rbx, rdi
	lea	r14, [rbp - 48]
	mov	rdi, r14
	call	__ZN8CryptoPP4ASN16pkcs_1Ev
Ltmp0:
	mov	edx, 1
	mov	rdi, rbx
	mov	rsi, r14
	call	__ZN8CryptoPPplERKNS_3OIDEm
Ltmp1:

	mov	rax, qword ptr [rip + __ZTVN8CryptoPP3OIDE@GOTPCREL]
	add	rax, 16
	mov	qword ptr [rbp - 48], rax
	mov	rdi, qword ptr [rbp - 40]
	test	rdi, rdi
	je	LBB0_3

	mov	qword ptr [rbp - 32], rdi
	call	__ZdlPv
LBB0_3:
	mov	rax, rbx
	add	rsp, 32
	pop	rbx
	pop	r14
	pop	rbp
	ret
LBB0_4:
Ltmp2:
	mov	rbx, rax
	mov	rax, qword ptr [rip + __ZTVN8CryptoPP3OIDE@GOTPCREL]
	add	rax, 16
	mov	qword ptr [rbp - 48], rax
	mov	rdi, qword ptr [rbp - 40]
	test	rdi, rdi
	je	LBB0_6

	mov	qword ptr [rbp - 32], rdi
	call	__ZdlPv
LBB0_6:
	mov	rdi, rbx
	call	__Unwind_Resume
	ud2
Lfunc_end0:
	.cfi_endproc
	.section	__TEXT,__gcc_except_tab
	.p2align	2
GCC_except_table0:
Lexception0:
	.byte	255                     
	.byte	255                     
	.byte	1                       
	.uleb128 Lcst_end0-Lcst_begin0
Lcst_begin0:
	.uleb128 Lfunc_begin0-Lfunc_begin0 
	.uleb128 Ltmp0-Lfunc_begin0     
	.byte	0                       
	.byte	0                       
	.uleb128 Ltmp0-Lfunc_begin0     
	.uleb128 Ltmp1-Ltmp0            
	.uleb128 Ltmp2-Lfunc_begin0     
	.byte	0                       
	.uleb128 Ltmp1-Lfunc_begin0     
	.uleb128 Lfunc_end0-Ltmp1       
	.byte	0                       
	.byte	0                       
Lcst_end0:
	.p2align	2
                                        
	.section	__TEXT,__text,regular,pure_instructions
	.globl	__ZThn8_NK8CryptoPP11RSAFunction14GetAlgorithmIDEv 
	.p2align	4, 0x90
__ZThn8_NK8CryptoPP11RSAFunction14GetAlgorithmIDEv: 
Lfunc_begin1:
	.cfi_startproc
	.cfi_personality 155, ___gxx_personality_v0
	.cfi_lsda 16, Lexception1

	push	rbp
	.cfi_def_cfa_offset 16
	.cfi_offset rbp, -16
	mov	rbp, rsp
	.cfi_def_cfa_register rbp
	push	r14
	push	rbx
	sub	rsp, 32
	.cfi_offset rbx, -32
	.cfi_offset r14, -24
	mov	rbx, rdi
	lea	r14, [rbp - 48]
	mov	rdi, r14
	call	__ZN8CryptoPP4ASN16pkcs_1Ev
Ltmp3:
	mov	edx, 1
	mov	rdi, rbx
	mov	rsi, r14
	call	__ZN8CryptoPPplERKNS_3OIDEm
Ltmp4:

	mov	rax, qword ptr [rip + __ZTVN8CryptoPP3OIDE@GOTPCREL]
	add	rax, 16
	mov	qword ptr [rbp - 48], rax
	mov	rdi, qword ptr [rbp - 40]
	test	rdi, rdi
	je	LBB1_3

	mov	qword ptr [rbp - 32], rdi
	call	__ZdlPv
LBB1_3:
	mov	rax, rbx
	add	rsp, 32
	pop	rbx
	pop	r14
	pop	rbp
	ret
LBB1_4:
Ltmp5:
	mov	rbx, rax
	mov	rax, qword ptr [rip + __ZTVN8CryptoPP3OIDE@GOTPCREL]
	add	rax, 16
	mov	qword ptr [rbp - 48], rax
	mov	rdi, qword ptr [rbp - 40]
	test	rdi, rdi
	je	LBB1_6

	mov	qword ptr [rbp - 32], rdi
	call	__ZdlPv
LBB1_6:
	mov	rdi, rbx
	call	__Unwind_Resume
	ud2
Lfunc_end1:
	.cfi_endproc
	.section	__TEXT,__gcc_except_tab
	.p2align	2
GCC_except_table1:
Lexception1:
	.byte	255                     
	.byte	255                     
	.byte	1                       
	.uleb128 Lcst_end1-Lcst_begin1
Lcst_begin1:
	.uleb128 Lfunc_begin1-Lfunc_begin1 
	.uleb128 Ltmp3-Lfunc_begin1     
	.byte	0                       
	.byte	0                       
	.uleb128 Ltmp3-Lfunc_begin1     
	.uleb128 Ltmp4-Ltmp3            
	.uleb128 Ltmp5-Lfunc_begin1     
	.byte	0                       
	.uleb128 Ltmp4-Lfunc_begin1     
	.uleb128 Lfunc_end1-Ltmp4       
	.byte	0                       
	.byte	0                       
Lcst_end1:
	.p2align	2
                                        
	.section	__TEXT,__text,regular,pure_instructions
	.globl	__ZN8CryptoPP11RSAFunction18BERDecodePublicKeyERNS_22BufferedTransformationEbm 
	.p2align	4, 0x90
__ZN8CryptoPP11RSAFunction18BERDecodePublicKeyERNS_22BufferedTransformationEbm: 
Lfunc_begin2:
	.cfi_startproc
	.cfi_personality 155, ___gxx_personality_v0
	.cfi_lsda 16, Lexception2

	push	rbp
	.cfi_def_cfa_offset 16
	.cfi_offset rbp, -16
	mov	rbp, rsp
	.cfi_def_cfa_register rbp
	push	r14
	push	rbx
	sub	rsp, 64
	.cfi_offset rbx, -32
	.cfi_offset r14, -24
	mov	rbx, rdi
	mov	rax, qword ptr [rip + ___stack_chk_guard@GOTPCREL]
	mov	rax, qword ptr [rax]
	mov	qword ptr [rbp - 24], rax
	lea	r14, [rbp - 80]
	mov	rdi, r14
	mov	edx, 48
	call	__ZN8CryptoPP17BERGeneralDecoderC2ERNS_22BufferedTransformationEh
	mov	rax, qword ptr [rip + __ZTVN8CryptoPP18BERSequenceDecoderE@GOTPCREL]
	lea	rcx, [rax + 16]
	mov	qword ptr [rbp - 80], rcx
	add	rax, 424
	mov	qword ptr [rbp - 72], rax
	lea	rdi, [rbx + 24]
Ltmp6:
	mov	rsi, r14
	call	__ZN8CryptoPP7Integer9BERDecodeERNS_22BufferedTransformationE
Ltmp7:

	add	rbx, 72
Ltmp8:
	lea	rsi, [rbp - 80]
	mov	rdi, rbx
	call	__ZN8CryptoPP7Integer9BERDecodeERNS_22BufferedTransformationE
Ltmp9:

Ltmp10:
	lea	rdi, [rbp - 80]
	call	__ZN8CryptoPP17BERGeneralDecoder10MessageEndEv
Ltmp11:

	lea	rdi, [rbp - 80]
	call	__ZN8CryptoPP17BERGeneralDecoderD2Ev
	mov	rax, qword ptr [rip + ___stack_chk_guard@GOTPCREL]
	mov	rax, qword ptr [rax]
	cmp	rax, qword ptr [rbp - 24]
	jne	LBB2_8

	add	rsp, 64
	pop	rbx
	pop	r14
	pop	rbp
	ret
LBB2_8:
	call	___stack_chk_fail
LBB2_5:
Ltmp12:
	mov	rbx, rax
Ltmp13:
	lea	rdi, [rbp - 80]
	call	__ZN8CryptoPP17BERGeneralDecoderD2Ev
Ltmp14:

	mov	rdi, rbx
	call	__Unwind_Resume
	ud2
LBB2_7:
Ltmp15:
	mov	rdi, rax
	call	___clang_call_terminate
Lfunc_end2:
	.cfi_endproc
	.section	__TEXT,__gcc_except_tab
	.p2align	2
GCC_except_table2:
Lexception2:
	.byte	255                     
	.byte	155                     
	.uleb128 Lttbase0-Lttbaseref0
Lttbaseref0:
	.byte	1                       
	.uleb128 Lcst_end2-Lcst_begin2
Lcst_begin2:
	.uleb128 Lfunc_begin2-Lfunc_begin2 
	.uleb128 Ltmp6-Lfunc_begin2     
	.byte	0                       
	.byte	0                       
	.uleb128 Ltmp6-Lfunc_begin2     
	.uleb128 Ltmp11-Ltmp6           
	.uleb128 Ltmp12-Lfunc_begin2    
	.byte	0                       
	.uleb128 Ltmp11-Lfunc_begin2    
	.uleb128 Ltmp13-Ltmp11          
	.byte	0                       
	.byte	0                       
	.uleb128 Ltmp13-Lfunc_begin2    
	.uleb128 Ltmp14-Ltmp13          
	.uleb128 Ltmp15-Lfunc_begin2    
	.byte	1                       
	.uleb128 Ltmp14-Lfunc_begin2    
	.uleb128 Lfunc_end2-Ltmp14      
	.byte	0                       
	.byte	0                       
Lcst_end2:
	.byte	1                       
                                        
	.byte	0                       
	.p2align	2
                                        
	.long	0                       
Lttbase0:
	.p2align	2
                                        
	.section	__TEXT,__text,regular,pure_instructions
	.globl	__ZN8CryptoPP18BERSequenceDecoderD1Ev 
	.weak_def_can_be_hidden	__ZN8CryptoPP18BERSequenceDecoderD1Ev
	.p2align	4, 0x90
__ZN8CryptoPP18BERSequenceDecoderD1Ev:  
	.cfi_startproc

	push	rbp
	.cfi_def_cfa_offset 16
	.cfi_offset rbp, -16
	mov	rbp, rsp
	.cfi_def_cfa_register rbp
	pop	rbp
	jmp	__ZN8CryptoPP17BERGeneralDecoderD2Ev 
	.cfi_endproc
                                        
	.private_extern	___clang_call_terminate 
	.globl	___clang_call_terminate
	.weak_def_can_be_hidden	___clang_call_terminate
	.p2align	4, 0x90
___clang_call_terminate:                

	push	rax
	call	___cxa_begin_catch
	call	__ZSt9terminatev
                                        
	.globl	__ZThn8_N8CryptoPP11RSAFunction18BERDecodePublicKeyERNS_22BufferedTransformationEbm 
	.p2align	4, 0x90
__ZThn8_N8CryptoPP11RSAFunction18BERDecodePublicKeyERNS_22BufferedTransformationEbm: 
	.cfi_startproc

	push	rbp
	.cfi_def_cfa_offset 16
	.cfi_offset rbp, -16
	mov	rbp, rsp
	.cfi_def_cfa_register rbp
	add	rdi, -8
	xor	edx, edx
	pop	rbp
	jmp	__ZN8CryptoPP11RSAFunction18BERDecodePublicKeyERNS_22BufferedTransformationEbm 
	.cfi_endproc
                                        
	.globl	__ZNK8CryptoPP11RSAFunction18DEREncodePublicKeyERNS_22BufferedTransformationE 
	.p2align	4, 0x90
__ZNK8CryptoPP11RSAFunction18DEREncodePublicKeyERNS_22BufferedTransformationE: 
Lfunc_begin3:
	.cfi_startproc
	.cfi_personality 155, ___gxx_personality_v0
	.cfi_lsda 16, Lexception3

	push	rbp
	.cfi_def_cfa_offset 16
	.cfi_offset rbp, -16
	mov	rbp, rsp
	.cfi_def_cfa_register rbp
	push	r14
	push	rbx
	sub	rsp, 112
	.cfi_offset rbx, -32
	.cfi_offset r14, -24
	mov	rbx, rdi
	mov	rax, qword ptr [rip + ___stack_chk_guard@GOTPCREL]
	mov	rax, qword ptr [rax]
	mov	qword ptr [rbp - 24], rax
	lea	r14, [rbp - 120]
	mov	rdi, r14
	mov	edx, 48
	call	__ZN8CryptoPP17DERGeneralEncoderC2ERNS_22BufferedTransformationEh
	mov	rax, qword ptr [rip + __ZTVN8CryptoPP18DERSequenceEncoderE@GOTPCREL]
	lea	rcx, [rax + 16]
	mov	qword ptr [rbp - 120], rcx
	add	rax, 416
	mov	qword ptr [rbp - 112], rax
	lea	rdi, [rbx + 24]
Ltmp16:
	mov	rsi, r14
	call	__ZNK8CryptoPP7Integer9DEREncodeERNS_22BufferedTransformationE
Ltmp17:

	add	rbx, 72
Ltmp18:
	lea	rsi, [rbp - 120]
	mov	rdi, rbx
	call	__ZNK8CryptoPP7Integer9DEREncodeERNS_22BufferedTransformationE
Ltmp19:

Ltmp20:
	lea	rdi, [rbp - 120]
	call	__ZN8CryptoPP17DERGeneralEncoder10MessageEndEv
Ltmp21:

	lea	rdi, [rbp - 120]
	call	__ZN8CryptoPP17DERGeneralEncoderD2Ev
	mov	rax, qword ptr [rip + ___stack_chk_guard@GOTPCREL]
	mov	rax, qword ptr [rax]
	cmp	rax, qword ptr [rbp - 24]
	jne	LBB6_8

	add	rsp, 112
	pop	rbx
	pop	r14
	pop	rbp
	ret
LBB6_8:
	call	___stack_chk_fail
LBB6_5:
Ltmp22:
	mov	rbx, rax
Ltmp23:
	lea	rdi, [rbp - 120]
	call	__ZN8CryptoPP17DERGeneralEncoderD2Ev
Ltmp24:

	mov	rdi, rbx
	call	__Unwind_Resume
	ud2
LBB6_7:
Ltmp25:
	mov	rdi, rax
	call	___clang_call_terminate
Lfunc_end3:
	.cfi_endproc
	.section	__TEXT,__gcc_except_tab
	.p2align	2
GCC_except_table6:
Lexception3:
	.byte	255                     
	.byte	155                     
	.uleb128 Lttbase1-Lttbaseref1
Lttbaseref1:
	.byte	1                       
	.uleb128 Lcst_end3-Lcst_begin3
Lcst_begin3:
	.uleb128 Lfunc_begin3-Lfunc_begin3 
	.uleb128 Ltmp16-Lfunc_begin3    
	.byte	0                       
	.byte	0                       
	.uleb128 Ltmp16-Lfunc_begin3    
	.uleb128 Ltmp21-Ltmp16          
	.uleb128 Ltmp22-Lfunc_begin3    
	.byte	0                       
	.uleb128 Ltmp21-Lfunc_begin3    
	.uleb128 Ltmp23-Ltmp21          
	.byte	0                       
	.byte	0                       
	.uleb128 Ltmp23-Lfunc_begin3    
	.uleb128 Ltmp24-Ltmp23          
	.uleb128 Ltmp25-Lfunc_begin3    
	.byte	1                       
	.uleb128 Ltmp24-Lfunc_begin3    
	.uleb128 Lfunc_end3-Ltmp24      
	.byte	0                       
	.byte	0                       
Lcst_end3:
	.byte	1                       
                                        
	.byte	0                       
	.p2align	2
                                        
	.long	0                       
Lttbase1:
	.p2align	2
                                        
	.section	__TEXT,__text,regular,pure_instructions
	.globl	__ZN8CryptoPP18DERSequenceEncoderD1Ev 
	.weak_def_can_be_hidden	__ZN8CryptoPP18DERSequenceEncoderD1Ev
	.p2align	4, 0x90
__ZN8CryptoPP18DERSequenceEncoderD1Ev:  
	.cfi_startproc

	push	rbp
	.cfi_def_cfa_offset 16
	.cfi_offset rbp, -16
	mov	rbp, rsp
	.cfi_def_cfa_register rbp
	pop	rbp
	jmp	__ZN8CryptoPP17DERGeneralEncoderD2Ev 
	.cfi_endproc
                                        
	.globl	__ZThn8_NK8CryptoPP11RSAFunction18DEREncodePublicKeyERNS_22BufferedTransformationE 
	.p2align	4, 0x90
__ZThn8_NK8CryptoPP11RSAFunction18DEREncodePublicKeyERNS_22BufferedTransformationE: 
	.cfi_startproc

	push	rbp
	.cfi_def_cfa_offset 16
	.cfi_offset rbp, -16
	mov	rbp, rsp
	.cfi_def_cfa_register rbp
	add	rdi, -8
	pop	rbp
	jmp	__ZNK8CryptoPP11RSAFunction18DEREncodePublicKeyERNS_22BufferedTransformationE 
	.cfi_endproc
                                        
	.globl	__ZNK8CryptoPP11RSAFunction13ApplyFunctionERKNS_7IntegerE 
	.p2align	4, 0x90
__ZNK8CryptoPP11RSAFunction13ApplyFunctionERKNS_7IntegerE: 
	.cfi_startproc

	push	rbp
	.cfi_def_cfa_offset 16
	.cfi_offset rbp, -16
	mov	rbp, rsp
	.cfi_def_cfa_register rbp
	push	r15
	push	r14
	push	r13
	push	r12
	push	rbx
	push	rax
	.cfi_offset rbx, -56
	.cfi_offset r12, -48
	.cfi_offset r13, -40
	.cfi_offset r14, -32
	.cfi_offset r15, -24
	mov	r14, rdx
	mov	rbx, rsi
	mov	r15, rdi
	mov	rax, qword ptr [rsi]
	mov	r13, qword ptr [rax - 24]
	lea	r12, [rsi + r13]
	call	__ZN8CryptoPP7NullRNGEv
	mov	rcx, qword ptr [rbx + r13]
	mov	rdi, r12
	mov	rsi, rax
	xor	edx, edx
	call	qword ptr [rcx + 40]
	lea	rdx, [rbx + 72]
	lea	rcx, [rbx + 24]
	mov	rdi, r15
	mov	rsi, r14
	call	__ZN8CryptoPP13a_exp_b_mod_cERKNS_7IntegerES2_S2_
	mov	rax, r15
	add	rsp, 8
	pop	rbx
	pop	r12
	pop	r13
	pop	r14
	pop	r15
	pop	rbp
	ret
	.cfi_endproc
                                        
	.globl	__ZNK8CryptoPP11RSAFunction8ValidateERNS_21RandomNumberGeneratorEj 
	.p2align	4, 0x90
__ZNK8CryptoPP11RSAFunction8ValidateERNS_21RandomNumberGeneratorEj: 
	.cfi_startproc

	push	rbp
	.cfi_def_cfa_offset 16
	.cfi_offset rbp, -16
	mov	rbp, rsp
	.cfi_def_cfa_register rbp
	push	r15
	push	r14
	push	rbx
	push	rax
	.cfi_offset rbx, -40
	.cfi_offset r14, -32
	.cfi_offset r15, -24
	mov	r15, rdi
	lea	r14, [rdi + 24]
	call	__ZN8CryptoPP7Integer3OneEv
	mov	rdi, r14
	mov	rsi, rax
	call	__ZNK8CryptoPP7Integer7CompareERKS0_
	xor	ebx, ebx
	test	eax, eax
	jle	LBB10_5

	mov	rdi, r14
	xor	esi, esi
	call	__ZNK8CryptoPP7Integer6GetBitEm
	test	al, al
	je	LBB10_5

	add	r15, 72
	call	__ZN8CryptoPP7Integer3OneEv
	mov	rdi, r15
	mov	rsi, rax
	call	__ZNK8CryptoPP7Integer7CompareERKS0_
	xor	ebx, ebx
	test	eax, eax
	jle	LBB10_5

	mov	rdi, r15
	xor	esi, esi
	call	__ZNK8CryptoPP7Integer6GetBitEm
	test	al, al
	je	LBB10_5

	mov	rdi, r15
	mov	rsi, r14
	call	__ZNK8CryptoPP7Integer7CompareERKS0_
	mov	ebx, eax
	shr	ebx, 31
LBB10_5:
	mov	eax, ebx
	add	rsp, 8
	pop	rbx
	pop	r14
	pop	r15
	pop	rbp
	ret
	.cfi_endproc
                                        
	.globl	__ZTv0_n48_NK8CryptoPP11RSAFunction8ValidateERNS_21RandomNumberGeneratorEj 
	.p2align	4, 0x90
__ZTv0_n48_NK8CryptoPP11RSAFunction8ValidateERNS_21RandomNumberGeneratorEj: 
	.cfi_startproc

	push	rbp
	.cfi_def_cfa_offset 16
	.cfi_offset rbp, -16
	mov	rbp, rsp
	.cfi_def_cfa_register rbp
	mov	rax, qword ptr [rdi]
	add	rdi, qword ptr [rax - 48]
	pop	rbp
	jmp	__ZNK8CryptoPP11RSAFunction8ValidateERNS_21RandomNumberGeneratorEj 
	.cfi_endproc
                                        
	.globl	__ZNK8CryptoPP11RSAFunction12GetVoidValueEPKcRKSt9type_infoPv 
	.p2align	4, 0x90
__ZNK8CryptoPP11RSAFunction12GetVoidValueEPKcRKSt9type_infoPv: 
	.cfi_startproc

	push	rbp
	.cfi_def_cfa_offset 16
	.cfi_offset rbp, -16
	mov	rbp, rsp
	.cfi_def_cfa_register rbp
	push	r15
	push	r14
	push	rbx
	sub	rsp, 40
	.cfi_offset rbx, -40
	.cfi_offset r14, -32
	.cfi_offset r15, -24
	mov	r8, rcx
	mov	rcx, rdx
	mov	rdx, rsi
	mov	rsi, rdi
	lea	rbx, [rbp - 64]
	mov	rdi, rbx
	xor	r9d, r9d
	call	__ZN8CryptoPP19GetValueHelperClassINS_11RSAFunctionES1_EC2EPKS1_PKcRKSt9type_infoPvPKNS_14NameValuePairsE
	mov	rdi, rbx
	call	__ZN8CryptoPP19GetValueHelperClassINS_11RSAFunctionES1_E10AssignableEv
	mov	rbx, rax
	cmp	byte ptr [rax + 33], 0
	je	LBB12_2

	mov	rdi, qword ptr [rbx + 24]
	lea	rsi, [rip + L_.str.10]
	call	__ZNSt3__112basic_stringIcNS_11char_traitsIcEENS_9allocatorIcEEE6appendEPKc
	lea	rsi, [rip + L_.str.46]
	mov	rdi, rax
	call	__ZNSt3__112basic_stringIcNS_11char_traitsIcEENS_9allocatorIcEEE6appendEPKc
LBB12_2:
	mov	r15b, 1
	cmp	byte ptr [rbx + 32], 0
	jne	LBB12_6

	mov	rsi, qword ptr [rbx + 8]
	lea	rdi, [rip + L_.str.10]
	call	_strcmp
	test	eax, eax
	je	LBB12_5

	xor	r15d, r15d
LBB12_6:
	cmp	byte ptr [rbx + 33], 0
	je	LBB12_8
LBB12_7:
	mov	rdi, qword ptr [rbx + 24]
	lea	rsi, [rip + L_.str.11]
	call	__ZNSt3__112basic_stringIcNS_11char_traitsIcEENS_9allocatorIcEEE6appendEPKc
	lea	rsi, [rip + L_.str.46]
	mov	rdi, rax
	call	__ZNSt3__112basic_stringIcNS_11char_traitsIcEENS_9allocatorIcEEE6appendEPKc
	mov	r15b, byte ptr [rbx + 32]
LBB12_8:
	mov	r14b, 1
	test	r15b, r15b
	jne	LBB12_12

	mov	rsi, qword ptr [rbx + 8]
	lea	rdi, [rip + L_.str.11]
	call	_strcmp
	test	eax, eax
	je	LBB12_11

	xor	r14d, r14d
	jmp	LBB12_12
LBB12_5:
	mov	rdx, qword ptr [rbx + 16]
	lea	rdi, [rip + L_.str.10]
	mov	rsi, qword ptr [rip + __ZTIN8CryptoPP7IntegerE@GOTPCREL]
	call	__ZN8CryptoPP14NameValuePairs19ThrowIfTypeMismatchEPKcRKSt9type_infoS5_
	mov	rsi, qword ptr [rbx]
	mov	rdi, qword ptr [rbx + 24]
	add	rsi, 24
	call	__ZN8CryptoPP7IntegeraSERKS0_
	mov	byte ptr [rbx + 32], 1
	cmp	byte ptr [rbx + 33], 0
	jne	LBB12_7
	jmp	LBB12_8
LBB12_11:
	mov	rdx, qword ptr [rbx + 16]
	lea	rdi, [rip + L_.str.11]
	mov	rsi, qword ptr [rip + __ZTIN8CryptoPP7IntegerE@GOTPCREL]
	call	__ZN8CryptoPP14NameValuePairs19ThrowIfTypeMismatchEPKcRKSt9type_infoS5_
	mov	rsi, qword ptr [rbx]
	mov	rdi, qword ptr [rbx + 24]
	add	rsi, 72
	call	__ZN8CryptoPP7IntegeraSERKS0_
	mov	byte ptr [rbx + 32], 1
LBB12_12:
	mov	eax, r14d
	add	rsp, 40
	pop	rbx
	pop	r14
	pop	r15
	pop	rbp
	ret
	.cfi_endproc
                                        
	.globl	__ZN8CryptoPP19GetValueHelperClassINS_11RSAFunctionES1_E10AssignableEv 
	.weak_def_can_be_hidden	__ZN8CryptoPP19GetValueHelperClassINS_11RSAFunctionES1_E10AssignableEv
	.p2align	4, 0x90
__ZN8CryptoPP19GetValueHelperClassINS_11RSAFunctionES1_E10AssignableEv: 
	.cfi_startproc

	push	rbp
	.cfi_def_cfa_offset 16
	.cfi_offset rbp, -16
	mov	rbp, rsp
	.cfi_def_cfa_register rbp
	push	r15
	push	r14
	push	rbx
	push	rax
	.cfi_offset rbx, -40
	.cfi_offset r14, -32
	.cfi_offset r15, -24
	mov	rbx, rdi
	cmp	byte ptr [rdi + 33], 0
	je	LBB13_2

	mov	rdi, qword ptr [rbx + 24]
	lea	rsi, [rip + L_.str.45]
	call	__ZNSt3__112basic_stringIcNS_11char_traitsIcEENS_9allocatorIcEEE6appendEPKc
	lea	rsi, [rip + __ZTSN8CryptoPP11RSAFunctionE]
	mov	rdi, rax
	call	__ZNSt3__112basic_stringIcNS_11char_traitsIcEENS_9allocatorIcEEE6appendEPKc
	mov	rdi, rax
	mov	esi, 59
	call	__ZNSt3__112basic_stringIcNS_11char_traitsIcEENS_9allocatorIcEEE9push_backEc
LBB13_2:
	cmp	byte ptr [rbx + 32], 0
	jne	LBB13_6

	mov	r14, qword ptr [rbx + 8]
	lea	rsi, [rip + L_.str.45]
	mov	edx, 11
	mov	rdi, r14
	call	_strncmp
	test	eax, eax
	jne	LBB13_6

	lea	rdi, [r14 + 11]
	lea	rsi, [rip + __ZTSN8CryptoPP11RSAFunctionE]
	call	_strcmp
	test	eax, eax
	jne	LBB13_6

	mov	rdx, qword ptr [rbx + 16]
	lea	rsi, [rip + __ZTIN8CryptoPP11RSAFunctionE]
	mov	rdi, r14
	call	__ZN8CryptoPP14NameValuePairs19ThrowIfTypeMismatchEPKcRKSt9type_infoS5_
	mov	r14, qword ptr [rbx]
	mov	r15, qword ptr [rbx + 24]
	lea	rdi, [r15 + 24]
	lea	rsi, [r14 + 24]
	call	__ZN8CryptoPP7IntegeraSERKS0_
	add	r15, 72
	add	r14, 72
	mov	rdi, r15
	mov	rsi, r14
	call	__ZN8CryptoPP7IntegeraSERKS0_
	mov	byte ptr [rbx + 32], 1
LBB13_6:
	mov	rax, rbx
	add	rsp, 8
	pop	rbx
	pop	r14
	pop	r15
	pop	rbp
	ret
	.cfi_endproc
                                        
	.globl	__ZTv0_n32_NK8CryptoPP11RSAFunction12GetVoidValueEPKcRKSt9type_infoPv 
	.p2align	4, 0x90
__ZTv0_n32_NK8CryptoPP11RSAFunction12GetVoidValueEPKcRKSt9type_infoPv: 
	.cfi_startproc

	push	rbp
	.cfi_def_cfa_offset 16
	.cfi_offset rbp, -16
	mov	rbp, rsp
	.cfi_def_cfa_register rbp
	mov	rax, qword ptr [rdi]
	add	rdi, qword ptr [rax - 32]
	pop	rbp
	jmp	__ZNK8CryptoPP11RSAFunction12GetVoidValueEPKcRKSt9type_infoPv 
	.cfi_endproc
                                        
	.globl	__ZN8CryptoPP11RSAFunction10AssignFromERKNS_14NameValuePairsE 
	.p2align	4, 0x90
__ZN8CryptoPP11RSAFunction10AssignFromERKNS_14NameValuePairsE: 
	.cfi_startproc

	push	rbp
	.cfi_def_cfa_offset 16
	.cfi_offset rbp, -16
	mov	rbp, rsp
	.cfi_def_cfa_register rbp
	sub	rsp, 32
	mov	rax, rdi
	mov	qword ptr [rbp - 24], rdi
	mov	qword ptr [rbp - 16], rsi
	mov	byte ptr [rbp - 8], 0
	mov	rdi, rsi
	mov	rsi, rax
	call	__ZNK8CryptoPP14NameValuePairs13GetThisObjectINS_11RSAFunctionEEEbRT_
	test	al, al
	je	LBB15_2

	mov	byte ptr [rbp - 8], 1
LBB15_2:
	lea	rsi, [rip + L_.str.10]
	mov	rdx, qword ptr [rip + __ZN8CryptoPP11RSAFunction10SetModulusERKNS_7IntegerE@GOTPCREL]
	lea	rdi, [rbp - 24]
	xor	ecx, ecx
	call	__ZN8CryptoPP21AssignFromHelperClassINS_11RSAFunctionES1_EclINS_7IntegerEEERS2_PKcMS1_FvRKT_E
	lea	rsi, [rip + L_.str.11]
	mov	rdx, qword ptr [rip + __ZN8CryptoPP11RSAFunction17SetPublicExponentERKNS_7IntegerE@GOTPCREL]
	mov	rdi, rax
	xor	ecx, ecx
	call	__ZN8CryptoPP21AssignFromHelperClassINS_11RSAFunctionES1_EclINS_7IntegerEEERS2_PKcMS1_FvRKT_E
	add	rsp, 32
	pop	rbp
	ret
	.cfi_endproc
                                        
	.section	__TEXT,__literal16,16byte_literals
	.p2align	4               
LCPI16_0:
	.quad	33                      
	.quad	24                      
	.section	__TEXT,__text,regular,pure_instructions
	.globl	__ZN8CryptoPP21AssignFromHelperClassINS_11RSAFunctionES1_EclINS_7IntegerEEERS2_PKcMS1_FvRKT_E
	.weak_def_can_be_hidden	__ZN8CryptoPP21AssignFromHelperClassINS_11RSAFunctionES1_EclINS_7IntegerEEERS2_PKcMS1_FvRKT_E
	.p2align	4, 0x90
__ZN8CryptoPP21AssignFromHelperClassINS_11RSAFunctionES1_EclINS_7IntegerEEERS2_PKcMS1_FvRKT_E: 
Lfunc_begin4:
	.cfi_startproc
	.cfi_personality 155, ___gxx_personality_v0
	.cfi_lsda 16, Lexception4

	push	rbp
	.cfi_def_cfa_offset 16
	.cfi_offset rbp, -16
	mov	rbp, rsp
	.cfi_def_cfa_register rbp
	push	r15
	push	r14
	push	r13
	push	r12
	push	rbx
	sub	rsp, 152
	.cfi_offset rbx, -56
	.cfi_offset r12, -48
	.cfi_offset r13, -40
	.cfi_offset r14, -32
	.cfi_offset r15, -24
	mov	rbx, rdi
	cmp	byte ptr [rdi + 16], 0
	jne	LBB16_29

	mov	r15, rcx
	mov	r14, rdx
	mov	r12, rsi
	lea	r13, [rbp - 88]
	mov	rdi, r13
	call	__ZN8CryptoPP7IntegerC1Ev
	mov	rdi, qword ptr [rbx + 8]
	mov	rax, qword ptr [rdi]
Ltmp26:
	mov	rdx, qword ptr [rip + __ZTIN8CryptoPP7IntegerE@GOTPCREL]
	mov	rsi, r12
	mov	rcx, r13
	call	qword ptr [rax + 16]
Ltmp27:

	test	al, al
	je	LBB16_3

	add	r15, qword ptr [rbx]
	test	r14b, 1
	je	LBB16_26

	mov	rax, qword ptr [r15]
	mov	r14, qword ptr [r14 + rax - 1]
LBB16_26:
Ltmp46:
	lea	rsi, [rbp - 88]
	mov	rdi, r15
	call	r14
Ltmp47:

	mov	rax, qword ptr [rip + __ZTVN8CryptoPP7IntegerE@GOTPCREL]
	add	rax, 16
	mov	qword ptr [rbp - 88], rax
	mov	rdx, qword ptr [rbp - 56]
	test	rdx, rdx
	je	LBB16_29

	mov	rax, qword ptr [rbp - 72]
	mov	rcx, qword ptr [rbp - 64]
	cmp	rax, rcx
	cmovb	rcx, rax
	xor	eax, eax
	mov	rdi, rdx
	
	rep		stosq	qword ptr es:[rdi], rax
	
	mov	rdi, rdx
	call	__ZN8CryptoPP17AlignedDeallocateEPv
LBB16_29:
	mov	rax, rbx
	add	rsp, 152
	pop	rbx
	pop	r12
	pop	r13
	pop	r14
	pop	r15
	pop	rbp
	ret
LBB16_3:
	mov	edi, 40
	call	___cxa_allocate_exception
	mov	r14, rax
Ltmp28:
	mov	edi, 32
	call	__Znwm
Ltmp29:

	mov	r15, rax
	mov	qword ptr [rbp - 176], rax
	movaps	xmm0, xmmword ptr [rip + LCPI16_0] 
	movaps	xmmword ptr [rbp - 192], xmm0
	movabs	rax, 5003058734770122357
	mov	qword ptr [r15 + 16], rax
	movabs	rax, 5062419068618887248
	mov	qword ptr [r15 + 8], rax
	movabs	rax, 8031167702418798670
	mov	qword ptr [r15], rax
	mov	byte ptr [r15 + 24], 0
Ltmp31:
	lea	rdx, [rip + L_.str.47]
	lea	rdi, [rbp - 112]
	lea	rsi, [rbp - 192]
	call	__ZNSt3__1plIcNS_11char_traitsIcEENS_9allocatorIcEEEENS_12basic_stringIT_T0_T1_EERKS9_PKS6_
Ltmp32:

Ltmp34:
	lea	rdi, [rbp - 136]
	lea	rsi, [rbp - 112]
	mov	rdx, r12
	call	__ZNSt3__1plIcNS_11char_traitsIcEENS_9allocatorIcEEEENS_12basic_stringIT_T0_T1_EERKS9_PKS6_
Ltmp35:

Ltmp37:
	lea	rdx, [rip + L_.str.44]
	lea	rdi, [rbp - 160]
	lea	rsi, [rbp - 136]
	call	__ZNSt3__1plIcNS_11char_traitsIcEENS_9allocatorIcEEEENS_12basic_stringIT_T0_T1_EERKS9_PKS6_
Ltmp38:

	mov	rax, qword ptr [rip + __ZTVN8CryptoPP9ExceptionE@GOTPCREL]
	add	rax, 16
	mov	qword ptr [r14], rax
	mov	dword ptr [r14 + 8], 1
	mov	rdi, r14
	add	rdi, 16
Ltmp40:
	lea	rsi, [rbp - 160]
	call	__ZNSt3__112basic_stringIcNS_11char_traitsIcEENS_9allocatorIcEEEC1ERKS5_
Ltmp41:

	mov	rax, qword ptr [rip + __ZTVN8CryptoPP15InvalidArgumentE@GOTPCREL]
	add	rax, 16
	mov	qword ptr [r14], rax
Ltmp43:
	mov	rsi, qword ptr [rip + __ZTIN8CryptoPP15InvalidArgumentE@GOTPCREL]
	mov	rdx, qword ptr [rip + __ZN8CryptoPP15InvalidArgumentD1Ev@GOTPCREL]
	mov	rdi, r14
	call	___cxa_throw
Ltmp44:

	ud2
LBB16_14:
Ltmp45:
	mov	rbx, rax
	xor	r12d, r12d
	jmp	LBB16_15
LBB16_35:
Ltmp42:
	mov	rbx, rax
	mov	rdi, r14
	call	__ZNSt9exceptionD2Ev
	mov	r12b, 1
LBB16_15:
	test	byte ptr [rbp - 160], 1
	jne	LBB16_16

	test	byte ptr [rbp - 136], 1
	jne	LBB16_18
LBB16_19:
	test	byte ptr [rbp - 112], 1
	jne	LBB16_20
	jmp	LBB16_21
LBB16_16:
	mov	rdi, qword ptr [rbp - 144]
	call	__ZdlPv
	test	byte ptr [rbp - 136], 1
	je	LBB16_19
	jmp	LBB16_18
LBB16_13:
Ltmp39:
	mov	rbx, rax
	mov	r12b, 1
	test	byte ptr [rbp - 136], 1
	je	LBB16_19
LBB16_18:
	mov	rdi, qword ptr [rbp - 120]
	call	__ZdlPv
	test	byte ptr [rbp - 112], 1
	jne	LBB16_20
	jmp	LBB16_21
LBB16_12:
Ltmp36:
	mov	rbx, rax
	mov	r12b, 1
	test	byte ptr [rbp - 112], 1
	je	LBB16_21
LBB16_20:
	mov	rdi, qword ptr [rbp - 96]
	call	__ZdlPv
	jmp	LBB16_21
LBB16_11:
Ltmp33:
	mov	rbx, rax
	mov	r12b, 1
LBB16_21:
	mov	rdi, r15
	call	__ZdlPv
	test	r12b, r12b
	jne	LBB16_23
	jmp	LBB16_31
LBB16_10:
Ltmp30:
	mov	rbx, rax
	mov	r12b, 1
	test	r12b, r12b
	je	LBB16_31
LBB16_23:
	mov	rdi, r14
	call	___cxa_free_exception
	jmp	LBB16_31
LBB16_30:
Ltmp48:
	mov	rbx, rax
LBB16_31:
	mov	rax, qword ptr [rip + __ZTVN8CryptoPP7IntegerE@GOTPCREL]
	add	rax, 16
	mov	qword ptr [rbp - 88], rax
	mov	rdx, qword ptr [rbp - 56]
	test	rdx, rdx
	je	LBB16_33

	mov	rax, qword ptr [rbp - 72]
	mov	rcx, qword ptr [rbp - 64]
	cmp	rax, rcx
	cmovb	rcx, rax
	xor	eax, eax
	mov	rdi, rdx
	
	rep		stosq	qword ptr es:[rdi], rax
	
Ltmp49:
	mov	rdi, rdx
	call	__ZN8CryptoPP17AlignedDeallocateEPv
Ltmp50:
LBB16_33:
	mov	rdi, rbx
	call	__Unwind_Resume
	ud2
LBB16_34:
Ltmp51:
	mov	rdi, rax
	call	___clang_call_terminate
Lfunc_end4:
	.cfi_endproc
	.section	__TEXT,__gcc_except_tab
	.p2align	2
GCC_except_table16:
Lexception4:
	.byte	255                     
	.byte	155                     
	.uleb128 Lttbase2-Lttbaseref2
Lttbaseref2:
	.byte	1                       
	.uleb128 Lcst_end4-Lcst_begin4
Lcst_begin4:
	.uleb128 Lfunc_begin4-Lfunc_begin4 
	.uleb128 Ltmp26-Lfunc_begin4    
	.byte	0                       
	.byte	0                       
	.uleb128 Ltmp26-Lfunc_begin4    
	.uleb128 Ltmp47-Ltmp26          
	.uleb128 Ltmp48-Lfunc_begin4    
	.byte	0                       
	.uleb128 Ltmp47-Lfunc_begin4    
	.uleb128 Ltmp28-Ltmp47          
	.byte	0                       
	.byte	0                       
	.uleb128 Ltmp28-Lfunc_begin4    
	.uleb128 Ltmp29-Ltmp28          
	.uleb128 Ltmp30-Lfunc_begin4    
	.byte	0                       
	.uleb128 Ltmp31-Lfunc_begin4    
	.uleb128 Ltmp32-Ltmp31          
	.uleb128 Ltmp33-Lfunc_begin4    
	.byte	0                       
	.uleb128 Ltmp34-Lfunc_begin4    
	.uleb128 Ltmp35-Ltmp34          
	.uleb128 Ltmp36-Lfunc_begin4    
	.byte	0                       
	.uleb128 Ltmp37-Lfunc_begin4    
	.uleb128 Ltmp38-Ltmp37          
	.uleb128 Ltmp39-Lfunc_begin4    
	.byte	0                       
	.uleb128 Ltmp40-Lfunc_begin4    
	.uleb128 Ltmp41-Ltmp40          
	.uleb128 Ltmp42-Lfunc_begin4    
	.byte	0                       
	.uleb128 Ltmp43-Lfunc_begin4    
	.uleb128 Ltmp44-Ltmp43          
	.uleb128 Ltmp45-Lfunc_begin4    
	.byte	0                       
	.uleb128 Ltmp44-Lfunc_begin4    
	.uleb128 Ltmp49-Ltmp44          
	.byte	0                       
	.byte	0                       
	.uleb128 Ltmp49-Lfunc_begin4    
	.uleb128 Ltmp50-Ltmp49          
	.uleb128 Ltmp51-Lfunc_begin4    
	.byte	1                       
	.uleb128 Ltmp50-Lfunc_begin4    
	.uleb128 Lfunc_end4-Ltmp50      
	.byte	0                       
	.byte	0                       
Lcst_end4:
	.byte	1                       
                                        
	.byte	0                       
	.p2align	2
                                        
	.long	0                       
Lttbase2:
	.p2align	2
                                        
	.section	__TEXT,__text,regular,pure_instructions
	.globl	__ZN8CryptoPP11RSAFunction10SetModulusERKNS_7IntegerE 
	.weak_definition	__ZN8CryptoPP11RSAFunction10SetModulusERKNS_7IntegerE
	.p2align	4, 0x90
__ZN8CryptoPP11RSAFunction10SetModulusERKNS_7IntegerE: 
	.cfi_startproc

	push	rbp
	.cfi_def_cfa_offset 16
	.cfi_offset rbp, -16
	mov	rbp, rsp
	.cfi_def_cfa_register rbp
	add	rdi, 24
	pop	rbp
	jmp	__ZN8CryptoPP7IntegeraSERKS0_ 
	.cfi_endproc
                                        
	.globl	__ZN8CryptoPP11RSAFunction17SetPublicExponentERKNS_7IntegerE 
	.weak_definition	__ZN8CryptoPP11RSAFunction17SetPublicExponentERKNS_7IntegerE
	.p2align	4, 0x90
__ZN8CryptoPP11RSAFunction17SetPublicExponentERKNS_7IntegerE: 
	.cfi_startproc

	push	rbp
	.cfi_def_cfa_offset 16
	.cfi_offset rbp, -16
	mov	rbp, rsp
	.cfi_def_cfa_register rbp
	add	rdi, 72
	pop	rbp
	jmp	__ZN8CryptoPP7IntegeraSERKS0_ 
	.cfi_endproc
                                        
	.globl	__ZTv0_n40_N8CryptoPP11RSAFunction10AssignFromERKNS_14NameValuePairsE 
	.p2align	4, 0x90
__ZTv0_n40_N8CryptoPP11RSAFunction10AssignFromERKNS_14NameValuePairsE: 
	.cfi_startproc

	push	rbp
	.cfi_def_cfa_offset 16
	.cfi_offset rbp, -16
	mov	rbp, rsp
	.cfi_def_cfa_register rbp
	sub	rsp, 32
	mov	rax, rdi
	mov	rcx, qword ptr [rdi]
	add	rax, qword ptr [rcx - 40]
	mov	rdi, rsi
	mov	qword ptr [rbp - 24], rax
	mov	qword ptr [rbp - 16], rsi
	mov	byte ptr [rbp - 8], 0
	mov	rsi, rax
	call	__ZNK8CryptoPP14NameValuePairs13GetThisObjectINS_11RSAFunctionEEEbRT_
	test	al, al
	je	LBB19_2

	mov	byte ptr [rbp - 8], 1
LBB19_2:
	lea	rsi, [rip + L_.str.10]
	mov	rdx, qword ptr [rip + __ZN8CryptoPP11RSAFunction10SetModulusERKNS_7IntegerE@GOTPCREL]
	lea	rdi, [rbp - 24]
	xor	ecx, ecx
	call	__ZN8CryptoPP21AssignFromHelperClassINS_11RSAFunctionES1_EclINS_7IntegerEEERS2_PKcMS1_FvRKT_E
	lea	rsi, [rip + L_.str.11]
	mov	rdx, qword ptr [rip + __ZN8CryptoPP11RSAFunction17SetPublicExponentERKNS_7IntegerE@GOTPCREL]
	mov	rdi, rax
	xor	ecx, ecx
	call	__ZN8CryptoPP21AssignFromHelperClassINS_11RSAFunctionES1_EclINS_7IntegerEEERS2_PKcMS1_FvRKT_E
	add	rsp, 32
	pop	rbp
	ret
	.cfi_endproc
                                        
	.section	__TEXT,__literal16,16byte_literals
	.p2align	4               
LCPI20_0:
	.quad	49                      
	.quad	46                      
LCPI20_1:
	.quad	65                      
	.quad	58                      
	.section	__TEXT,__text,regular,pure_instructions
	.globl	__ZN8CryptoPP21InvertibleRSAFunction14GenerateRandomERNS_21RandomNumberGeneratorERKNS_14NameValuePairsE
	.p2align	4, 0x90
__ZN8CryptoPP21InvertibleRSAFunction14GenerateRandomERNS_21RandomNumberGeneratorERKNS_14NameValuePairsE: 
Lfunc_begin5:
	.cfi_startproc
	.cfi_personality 155, ___gxx_personality_v0
	.cfi_lsda 16, Lexception5

	push	rbp
	.cfi_def_cfa_offset 16
	.cfi_offset rbp, -16
	mov	rbp, rsp
	.cfi_def_cfa_register rbp
	push	r15
	push	r14
	push	r13
	push	r12
	push	rbx
	sub	rsp, 1720
	.cfi_offset rbx, -56
	.cfi_offset r12, -48
	.cfi_offset r13, -40
	.cfi_offset r14, -32
	.cfi_offset r15, -24
	mov	rbx, rdx
	mov	r15, rsi
	mov	r12, rdi
	mov	rax, qword ptr [rip + ___stack_chk_guard@GOTPCREL]
	mov	rax, qword ptr [rax]
	mov	qword ptr [rbp - 48], rax
	mov	dword ptr [rbp - 1148], 2048
	mov	rax, qword ptr [rdx]
	lea	rsi, [rip + L_.str.12]
	mov	rdx, qword ptr [rip + __ZTIi@GOTPCREL]
	lea	rcx, [rbp - 1148]
	mov	rdi, rbx
	call	qword ptr [rax + 16]
	test	al, al
	jne	LBB20_2

	mov	rax, qword ptr [rbx]
	lea	rsi, [rip + L_.str.13]
	mov	rdx, qword ptr [rip + __ZTIi@GOTPCREL]
	lea	rcx, [rbp - 1148]
	mov	rdi, rbx
	call	qword ptr [rax + 16]
LBB20_2:
	cmp	dword ptr [rbp - 1148], 15
	jle	LBB20_102

	lea	r14, [rbp - 1752]
	mov	esi, 17
	mov	rdi, r14
	call	__ZN8CryptoPP7IntegerC1El
Ltmp52:
	lea	rdx, [rip + L_.str.11]
	lea	rdi, [rbp - 592]
	mov	rsi, rbx
	mov	rcx, r14
	call	__ZNK8CryptoPP14NameValuePairs19GetValueWithDefaultINS_7IntegerEEET_PKcS3_
Ltmp53:

	lea	r13, [r12 + 72]
Ltmp54:
	lea	rsi, [rbp - 592]
	mov	rdi, r13
	call	__ZN8CryptoPP7IntegeraSERKS0_
Ltmp55:

	mov	rax, qword ptr [rip + __ZTVN8CryptoPP7IntegerE@GOTPCREL]
	add	rax, 16
	mov	qword ptr [rbp - 1144], rax 
	mov	qword ptr [rbp - 592], rax
	mov	rdx, qword ptr [rbp - 560]
	test	rdx, rdx
	je	LBB20_7

	mov	rax, qword ptr [rbp - 576]
	mov	rcx, qword ptr [rbp - 568]
	cmp	rax, rcx
	cmovb	rcx, rax
	xor	eax, eax
	mov	rdi, rdx
	
	rep		stosq	qword ptr es:[rdi], rax
	
Ltmp59:
	mov	rdi, rdx
	call	__ZN8CryptoPP17AlignedDeallocateEPv
Ltmp60:
LBB20_7:
	mov	rax, qword ptr [rbp - 1144] 
	mov	qword ptr [rbp - 1752], rax
	mov	rdx, qword ptr [rbp - 1720]
	test	rdx, rdx
	je	LBB20_9

	mov	rax, qword ptr [rbp - 1736]
	mov	rcx, qword ptr [rbp - 1728]
	cmp	rax, rcx
	cmovb	rcx, rax
	xor	eax, eax
	mov	rdi, rdx
	
	rep		stosq	qword ptr es:[rdi], rax
	
	mov	rdi, rdx
	call	__ZN8CryptoPP17AlignedDeallocateEPv
LBB20_9:
	lea	rbx, [rbp - 592]
	mov	esi, 3
	mov	rdi, rbx
	call	__ZN8CryptoPP7IntegerC1El
Ltmp64:
	mov	rdi, r13
	mov	rsi, rbx
	call	__ZNK8CryptoPP7Integer7CompareERKS0_
Ltmp65:

	test	eax, eax
	js	LBB20_105

Ltmp66:
	mov	rdi, r13
	xor	esi, esi
	call	__ZNK8CryptoPP7Integer6GetBitEm
Ltmp67:

	mov	ebx, eax
	mov	rax, qword ptr [rbp - 1144] 
	mov	qword ptr [rbp - 592], rax
	mov	rdx, qword ptr [rbp - 560]
	test	rdx, rdx
	je	LBB20_14

	mov	rax, qword ptr [rbp - 576]
	mov	rcx, qword ptr [rbp - 568]
	cmp	rax, rcx
	cmovb	rcx, rax
	xor	eax, eax
	mov	rdi, rdx
	
	rep		stosq	qword ptr es:[rdi], rax
	
	mov	rdi, rdx
	call	__ZN8CryptoPP17AlignedDeallocateEPv
LBB20_14:
	test	bl, bl
	je	LBB20_107

	mov	rax, qword ptr [rip + __ZTVN8CryptoPP16RSAPrimeSelectorE@GOTPCREL]
	add	rax, 16
	mov	qword ptr [rbp - 1384], rax 
	mov	qword ptr [rbp - 1608], rax
	lea	rdi, [rbp - 1600]
	mov	rsi, r13
	call	__ZN8CryptoPP7IntegerC1ERKS0_
	mov	esi, dword ptr [rbp - 1148]
Ltmp71:
	lea	rdi, [rbp - 592]
	call	__ZN8CryptoPP37MakeParametersForTwoPrimesOfEqualSizeEj
Ltmp72:

	mov	bl, byte ptr [rbp - 576]
Ltmp73:
	mov	edi, 40
	call	__Znwm
Ltmp74:

	lea	rcx, [rip + L_.str.14]
	mov	qword ptr [rax + 8], rcx
	mov	byte ptr [rax + 16], bl
	mov	byte ptr [rax + 17], 0
	mov	rcx, qword ptr [rip + __ZTVN8CryptoPP27AlgorithmParametersTemplateIPKNS_13PrimeSelectorEEE@GOTPCREL]
	add	rcx, 16
	mov	qword ptr [rax], rcx
	lea	rcx, [rbp - 1608]
	mov	qword ptr [rax + 32], rcx
	mov	rcx, qword ptr [rbp - 584]
	mov	qword ptr [rax + 24], rcx
	mov	qword ptr [rbp - 584], rax
Ltmp75:
	lea	rdi, [rbp - 1408]
	lea	rsi, [rbp - 592]
	call	__ZN8CryptoPP19AlgorithmParametersC1ERKS0_
Ltmp76:

	mov	rax, qword ptr [rip + __ZTVN8CryptoPP19AlgorithmParametersE@GOTPCREL]
	add	rax, 16
	mov	qword ptr [rbp - 1376], rax 
	mov	qword ptr [rbp - 592], rax
	mov	rdi, qword ptr [rbp - 584]
	test	rdi, rdi
	je	LBB20_20

	mov	rax, qword ptr [rdi]
Ltmp80:
	call	qword ptr [rax + 8]
Ltmp81:
LBB20_20:
	lea	r14, [r12 + 272]
Ltmp83:
	lea	rdx, [rbp - 1408]
	mov	rdi, r14
	mov	rsi, r15
	call	__ZN8CryptoPP7Integer21GenerateRandomNoThrowERNS_21RandomNumberGeneratorERKNS_14NameValuePairsE
Ltmp84:

	test	al, al
	je	LBB20_110

	mov	rsi, r15
	lea	r15, [r12 + 320]
Ltmp90:
	lea	rdx, [rbp - 1408]
	mov	rdi, r15
	call	__ZN8CryptoPP7Integer21GenerateRandomNoThrowERNS_21RandomNumberGeneratorERKNS_14NameValuePairsE
Ltmp91:

	test	al, al
	je	LBB20_112

Ltmp97:
	lea	rdi, [rbp - 1552]
	mov	esi, 1
	call	__ZN8CryptoPP7IntegerC1El
Ltmp98:

Ltmp99:
	lea	rdi, [rbp - 1344]
	lea	rdx, [rbp - 1552]
	mov	rsi, r14
	call	__ZNK8CryptoPP7Integer5MinusERKS0_
Ltmp100:

Ltmp101:
	lea	rdi, [rbp - 1656]
	mov	esi, 1
	call	__ZN8CryptoPP7IntegerC1El
Ltmp102:

Ltmp103:
	lea	rdi, [rbp - 1704]
	lea	rdx, [rbp - 1656]
	mov	rsi, r15
	call	__ZNK8CryptoPP7Integer5MinusERKS0_
Ltmp104:

Ltmp105:
	lea	rdi, [rbp - 1128]
	lea	rsi, [rbp - 1344]
	lea	rdx, [rbp - 1704]
	call	__ZN8CryptoPP3LCMERKNS_7IntegerES2_
Ltmp106:

Ltmp107:
	lea	rdi, [rbp - 592]
	lea	rdx, [rbp - 1128]
	mov	rsi, r13
	call	__ZNK8CryptoPP7Integer10InverseModERKS0_
Ltmp108:

	lea	rbx, [r12 + 224]
Ltmp109:
	lea	rsi, [rbp - 592]
	mov	rdi, rbx
	call	__ZN8CryptoPP7IntegeraSERKS0_
Ltmp110:

	mov	rax, qword ptr [rbp - 1144] 
	mov	qword ptr [rbp - 592], rax
	mov	rdx, qword ptr [rbp - 560]
	test	rdx, rdx
	je	LBB20_33

	mov	rax, qword ptr [rbp - 576]
	mov	rcx, qword ptr [rbp - 568]
	cmp	rax, rcx
	cmovb	rcx, rax
	xor	eax, eax
	mov	rdi, rdx
	
	rep		stosq	qword ptr es:[rdi], rax
	
Ltmp114:
	mov	rdi, rdx
	call	__ZN8CryptoPP17AlignedDeallocateEPv
Ltmp115:
LBB20_33:
	mov	rax, qword ptr [rbp - 1144] 
	mov	qword ptr [rbp - 1128], rax
	mov	rdx, qword ptr [rbp - 1096]
	test	rdx, rdx
	je	LBB20_35

	mov	rax, qword ptr [rbp - 1112]
	mov	rcx, qword ptr [rbp - 1104]
	cmp	rax, rcx
	cmovb	rcx, rax
	xor	eax, eax
	mov	rdi, rdx
	
	rep		stosq	qword ptr es:[rdi], rax
	
Ltmp119:
	mov	rdi, rdx
	call	__ZN8CryptoPP17AlignedDeallocateEPv
Ltmp120:
LBB20_35:
	mov	rax, qword ptr [rbp - 1144] 
	mov	qword ptr [rbp - 1704], rax
	mov	rdx, qword ptr [rbp - 1672]
	test	rdx, rdx
	je	LBB20_37

	mov	rax, qword ptr [rbp - 1688]
	mov	rcx, qword ptr [rbp - 1680]
	cmp	rax, rcx
	cmovb	rcx, rax
	xor	eax, eax
	mov	rdi, rdx
	
	rep		stosq	qword ptr es:[rdi], rax
	
Ltmp124:
	mov	rdi, rdx
	call	__ZN8CryptoPP17AlignedDeallocateEPv
Ltmp125:
LBB20_37:
	mov	rax, qword ptr [rbp - 1144] 
	mov	qword ptr [rbp - 1656], rax
	mov	rdx, qword ptr [rbp - 1624]
	test	rdx, rdx
	je	LBB20_39

	mov	rax, qword ptr [rbp - 1640]
	mov	rcx, qword ptr [rbp - 1632]
	cmp	rax, rcx
	cmovb	rcx, rax
	xor	eax, eax
	mov	rdi, rdx
	
	rep		stosq	qword ptr es:[rdi], rax
	
Ltmp129:
	mov	rdi, rdx
	call	__ZN8CryptoPP17AlignedDeallocateEPv
Ltmp130:
LBB20_39:
	mov	rax, qword ptr [rbp - 1144] 
	mov	qword ptr [rbp - 1344], rax
	mov	rdx, qword ptr [rbp - 1312]
	test	rdx, rdx
	je	LBB20_41

	mov	rax, qword ptr [rbp - 1328]
	mov	rcx, qword ptr [rbp - 1320]
	cmp	rax, rcx
	cmovb	rcx, rax
	xor	eax, eax
	mov	rdi, rdx
	
	rep		stosq	qword ptr es:[rdi], rax
	
Ltmp134:
	mov	rdi, rdx
	call	__ZN8CryptoPP17AlignedDeallocateEPv
Ltmp135:
LBB20_41:
	mov	rax, qword ptr [rbp - 1144] 
	mov	qword ptr [rbp - 1552], rax
	mov	rdx, qword ptr [rbp - 1520]
	test	rdx, rdx
	je	LBB20_43

	mov	rax, qword ptr [rbp - 1536]
	mov	rcx, qword ptr [rbp - 1528]
	cmp	rax, rcx
	cmovb	rcx, rax
	xor	eax, eax
	mov	rdi, rdx
	
	rep		stosq	qword ptr es:[rdi], rax
	
Ltmp139:
	mov	rdi, rdx
	call	__ZN8CryptoPP17AlignedDeallocateEPv
Ltmp140:
LBB20_43:
Ltmp142:
	lea	rdi, [rbp - 1344]
	mov	esi, 1
	call	__ZN8CryptoPP7IntegerC1El
Ltmp143:

Ltmp144:
	lea	rdi, [rbp - 1128]
	lea	rdx, [rbp - 1344]
	mov	rsi, r14
	call	__ZNK8CryptoPP7Integer5MinusERKS0_
Ltmp145:

Ltmp146:
	lea	rdi, [rbp - 592]
	lea	rdx, [rbp - 1128]
	mov	rsi, rbx
	call	__ZNK8CryptoPP7Integer6ModuloERKS0_
Ltmp147:

	lea	rdi, [r12 + 368]
Ltmp148:
	lea	rsi, [rbp - 592]
	call	__ZN8CryptoPP7IntegeraSERKS0_
Ltmp149:

	mov	rax, qword ptr [rbp - 1144] 
	mov	qword ptr [rbp - 592], rax
	mov	rdx, qword ptr [rbp - 560]
	test	rdx, rdx
	je	LBB20_49

	mov	rax, qword ptr [rbp - 576]
	mov	rcx, qword ptr [rbp - 568]
	cmp	rax, rcx
	cmovb	rcx, rax
	xor	eax, eax
	mov	rdi, rdx
	
	rep		stosq	qword ptr es:[rdi], rax
	
Ltmp153:
	mov	rdi, rdx
	call	__ZN8CryptoPP17AlignedDeallocateEPv
Ltmp154:
LBB20_49:
	mov	rax, qword ptr [rbp - 1144] 
	mov	qword ptr [rbp - 1128], rax
	mov	rdx, qword ptr [rbp - 1096]
	test	rdx, rdx
	je	LBB20_51

	mov	rax, qword ptr [rbp - 1112]
	mov	rcx, qword ptr [rbp - 1104]
	cmp	rax, rcx
	cmovb	rcx, rax
	xor	eax, eax
	mov	rdi, rdx
	
	rep		stosq	qword ptr es:[rdi], rax
	
Ltmp158:
	mov	rdi, rdx
	call	__ZN8CryptoPP17AlignedDeallocateEPv
Ltmp159:
LBB20_51:
	mov	rax, qword ptr [rbp - 1144] 
	mov	qword ptr [rbp - 1344], rax
	mov	rdx, qword ptr [rbp - 1312]
	test	rdx, rdx
	je	LBB20_53

	mov	rax, qword ptr [rbp - 1328]
	mov	rcx, qword ptr [rbp - 1320]
	cmp	rax, rcx
	cmovb	rcx, rax
	xor	eax, eax
	mov	rdi, rdx
	
	rep		stosq	qword ptr es:[rdi], rax
	
Ltmp163:
	mov	rdi, rdx
	call	__ZN8CryptoPP17AlignedDeallocateEPv
Ltmp164:
LBB20_53:
Ltmp166:
	lea	rdi, [rbp - 1344]
	mov	esi, 1
	call	__ZN8CryptoPP7IntegerC1El
Ltmp167:

Ltmp168:
	lea	rdi, [rbp - 1128]
	lea	rdx, [rbp - 1344]
	mov	rsi, r15
	call	__ZNK8CryptoPP7Integer5MinusERKS0_
Ltmp169:

Ltmp170:
	lea	rdi, [rbp - 592]
	lea	rdx, [rbp - 1128]
	mov	rsi, rbx
	call	__ZNK8CryptoPP7Integer6ModuloERKS0_
Ltmp171:

	lea	rdi, [r12 + 416]
Ltmp172:
	lea	rsi, [rbp - 592]
	call	__ZN8CryptoPP7IntegeraSERKS0_
Ltmp173:

	mov	rax, qword ptr [rbp - 1144] 
	mov	qword ptr [rbp - 592], rax
	mov	rdx, qword ptr [rbp - 560]
	test	rdx, rdx
	je	LBB20_59

	mov	rax, qword ptr [rbp - 576]
	mov	rcx, qword ptr [rbp - 568]
	cmp	rax, rcx
	cmovb	rcx, rax
	xor	eax, eax
	mov	rdi, rdx
	
	rep		stosq	qword ptr es:[rdi], rax
	
Ltmp177:
	mov	rdi, rdx
	call	__ZN8CryptoPP17AlignedDeallocateEPv
Ltmp178:
LBB20_59:
	mov	rax, qword ptr [rbp - 1144] 
	mov	qword ptr [rbp - 1128], rax
	mov	rdx, qword ptr [rbp - 1096]
	test	rdx, rdx
	je	LBB20_61

	mov	rax, qword ptr [rbp - 1112]
	mov	rcx, qword ptr [rbp - 1104]
	cmp	rax, rcx
	cmovb	rcx, rax
	xor	eax, eax
	mov	rdi, rdx
	
	rep		stosq	qword ptr es:[rdi], rax
	
Ltmp182:
	mov	rdi, rdx
	call	__ZN8CryptoPP17AlignedDeallocateEPv
Ltmp183:
LBB20_61:
	mov	rax, qword ptr [rbp - 1144] 
	mov	qword ptr [rbp - 1344], rax
	mov	rdx, qword ptr [rbp - 1312]
	test	rdx, rdx
	je	LBB20_63

	mov	rax, qword ptr [rbp - 1328]
	mov	rcx, qword ptr [rbp - 1320]
	cmp	rax, rcx
	cmovb	rcx, rax
	xor	eax, eax
	mov	rdi, rdx
	
	rep		stosq	qword ptr es:[rdi], rax
	
Ltmp187:
	mov	rdi, rdx
	call	__ZN8CryptoPP17AlignedDeallocateEPv
Ltmp188:
LBB20_63:
Ltmp190:
	lea	rdi, [rbp - 592]
	mov	rsi, r14
	mov	rdx, r15
	call	__ZNK8CryptoPP7Integer5TimesERKS0_
Ltmp191:

	lea	rdi, [r12 + 24]
Ltmp192:
	lea	rsi, [rbp - 592]
	call	__ZN8CryptoPP7IntegeraSERKS0_
Ltmp193:

	mov	rax, qword ptr [rbp - 1144] 
	mov	qword ptr [rbp - 592], rax
	mov	rdx, qword ptr [rbp - 560]
	test	rdx, rdx
	je	LBB20_67

	mov	rax, qword ptr [rbp - 576]
	mov	rcx, qword ptr [rbp - 568]
	cmp	rax, rcx
	cmovb	rcx, rax
	xor	eax, eax
	mov	rdi, rdx
	
	rep		stosq	qword ptr es:[rdi], rax
	
Ltmp197:
	mov	rdi, rdx
	call	__ZN8CryptoPP17AlignedDeallocateEPv
Ltmp198:
LBB20_67:
Ltmp200:
	lea	rdi, [rbp - 592]
	mov	rsi, r15
	mov	rdx, r14
	call	__ZNK8CryptoPP7Integer10InverseModERKS0_
Ltmp201:

	lea	rdi, [r12 + 464]
Ltmp202:
	lea	rsi, [rbp - 592]
	call	__ZN8CryptoPP7IntegeraSERKS0_
Ltmp203:

	mov	rax, qword ptr [rbp - 1144] 
	mov	qword ptr [rbp - 592], rax
	mov	rdx, qword ptr [rbp - 560]
	test	rdx, rdx
	je	LBB20_71

	mov	rax, qword ptr [rbp - 576]
	mov	rcx, qword ptr [rbp - 568]
	cmp	rax, rcx
	cmovb	rcx, rax
	xor	eax, eax
	mov	rdi, rdx
	
	rep		stosq	qword ptr es:[rdi], rax
	
Ltmp207:
	mov	rdi, rdx
	call	__ZN8CryptoPP17AlignedDeallocateEPv
Ltmp208:
LBB20_71:
Ltmp210:
	call	__ZN8CryptoPP28FIPS_140_2_ComplianceEnabledEv
Ltmp211:

	test	al, al
	je	LBB20_95

	mov	rax, qword ptr [r12]
	mov	r14, qword ptr [rax - 24]
	add	r14, r12
	mov	r13, qword ptr [rip + __ZTVN8CryptoPP18PK_SignatureSchemeE@GOTPCREL]
	add	r13, 16
	mov	qword ptr [rbp - 592], r13
	lea	rdi, [rbp - 584]
Ltmp213:
	mov	esi, 1
	call	__ZN8CryptoPP9AlgorithmC2Eb
Ltmp214:

	mov	rbx, qword ptr [rip + __ZTVN8CryptoPP13TF_ObjectImplINS_13TF_SignerBaseENS_25TF_SignatureSchemeOptionsINS_5TF_SSINS_3RSAENS_8PKCS1v15ENS_4SHA1EiEES4_NS_39PKCS1v15_SignatureMessageEncodingMethodES6_EENS_21InvertibleRSAFunctionEEE@GOTPCREL]
	lea	rax, [rbx + 16]
	mov	qword ptr [rbp - 1192], rax 
	mov	qword ptr [rbp - 592], rax
	lea	rax, [rbx + 240]
	mov	qword ptr [rbp - 1200], rax 
	mov	qword ptr [rbp - 584], rax
	add	rbx, 328
	mov	qword ptr [rbp - 576], rbx
	lea	r15, [rbp - 568]
Ltmp215:
	mov	rdi, r15
	call	__ZN8CryptoPP21InvertibleRSAFunctionC1Ev
Ltmp216:

	mov	rax, qword ptr [rip + __ZTVN8CryptoPP16PK_FinalTemplateINS_13TF_SignerImplINS_25TF_SignatureSchemeOptionsINS_5TF_SSINS_3RSAENS_8PKCS1v15ENS_4SHA1EiEES4_NS_39PKCS1v15_SignatureMessageEncodingMethodES6_EEEEEE@GOTPCREL]
	lea	rcx, [rax + 16]
	mov	qword ptr [rbp - 592], rcx
	lea	rcx, [rax + 240]
	mov	qword ptr [rbp - 584], rcx
	add	rax, 328
	mov	qword ptr [rbp - 576], rax
	mov	rax, qword ptr [rbp - 568]
Ltmp217:
	mov	rdi, r15
	mov	rsi, r14
	call	qword ptr [rax + 112]
Ltmp218:

	mov	qword ptr [rbp - 1344], r13
	lea	rdi, [rbp - 1336]
Ltmp223:
	mov	esi, 1
	mov	qword ptr [rbp - 1368], rbx 
	call	__ZN8CryptoPP9AlgorithmC2Eb
Ltmp224:

	mov	r14, qword ptr [rip + __ZTVN8CryptoPP13TF_ObjectImplINS_15TF_VerifierBaseENS_25TF_SignatureSchemeOptionsINS_5TF_SSINS_3RSAENS_8PKCS1v15ENS_4SHA1EiEES4_NS_39PKCS1v15_SignatureMessageEncodingMethodES6_EENS_11RSAFunctionEEE@GOTPCREL]
	lea	r13, [r14 + 16]
	mov	qword ptr [rbp - 1344], r13
	lea	r15, [r14 + 256]
	mov	qword ptr [rbp - 1336], r15
	add	r14, 344
	mov	qword ptr [rbp - 1328], r14
	lea	rax, [rip + __ZTVN8CryptoPP11RSAFunctionE+24]
	mov	qword ptr [rbp - 1320], rax
	lea	rax, [rip + __ZTVN8CryptoPP11RSAFunctionE+168]
	mov	qword ptr [rbp - 1312], rax
	lea	rax, [rip + __ZTVN8CryptoPP11RSAFunctionE+376]
	mov	qword ptr [rbp - 1304], rax
	lea	rdi, [rbp - 1296]
Ltmp225:
	call	__ZN8CryptoPP7IntegerC1Ev
Ltmp226:

	lea	rdi, [rbp - 1248]
Ltmp228:
	call	__ZN8CryptoPP7IntegerC1Ev
Ltmp229:

	mov	qword ptr [rbp - 1184], r13 
	lea	rdi, [rbp - 584]
	mov	rax, qword ptr [rip + __ZTVN8CryptoPP16PK_FinalTemplateINS_15TF_VerifierImplINS_25TF_SignatureSchemeOptionsINS_5TF_SSINS_3RSAENS_8PKCS1v15ENS_4SHA1EiEES4_NS_39PKCS1v15_SignatureMessageEncodingMethodES6_EEEEEE@GOTPCREL]
	lea	rcx, [rax + 16]
	mov	qword ptr [rbp - 1344], rcx
	lea	rcx, [rax + 256]
	mov	qword ptr [rbp - 1336], rcx
	add	rax, 344
	mov	qword ptr [rbp - 1328], rax
	lea	rbx, [rbp - 1320]
	mov	rax, qword ptr [rbp - 584]
Ltmp234:
	call	qword ptr [rax + 48]
Ltmp235:

	mov	rcx, qword ptr [rbp - 1320]
Ltmp236:
	mov	rdi, rbx
	mov	rsi, rax
	call	qword ptr [rcx + 112]
Ltmp237:

Ltmp242:
	lea	rdi, [rbp - 592]
	lea	rsi, [rbp - 1344]
	mov	qword ptr [rbp - 1360], r14 
	mov	qword ptr [rbp - 1352], r15 
	call	__ZN8CryptoPP46SignaturePairwiseConsistencyTest_FIPS_140_OnlyERKNS_9PK_SignerERKNS_11PK_VerifierE
Ltmp243:

	mov	rax, qword ptr [r12]
	add	r12, qword ptr [rax - 24]
	mov	r13, r12
	mov	rbx, qword ptr [rip + __ZTVN8CryptoPP15PK_CryptoSystemE@GOTPCREL]
	add	rbx, 16
	mov	qword ptr [rbp - 1128], rbx
	lea	rdi, [rbp - 1120]
Ltmp245:
	mov	esi, 1
	call	__ZN8CryptoPP9AlgorithmC2Eb
Ltmp246:

	mov	rax, qword ptr [rip + __ZTVN8CryptoPP13TF_ObjectImplINS_16TF_DecryptorBaseENS_22TF_CryptoSchemeOptionsINS_5TF_ESINS_3RSAENS_4OAEPINS_4SHA1ENS_10P1363_MGF1EEEiEES4_S8_EENS_21InvertibleRSAFunctionEEE@GOTPCREL]
	lea	rcx, [rax + 16]
	mov	qword ptr [rbp - 1160], rcx 
	mov	qword ptr [rbp - 1128], rcx
	lea	rcx, [rax + 168]
	mov	qword ptr [rbp - 1168], rcx 
	mov	qword ptr [rbp - 1120], rcx
	add	rax, 256
	mov	qword ptr [rbp - 1176], rax 
	mov	qword ptr [rbp - 1112], rax
	lea	r12, [rbp - 1104]
Ltmp247:
	mov	rdi, r12
	call	__ZN8CryptoPP21InvertibleRSAFunctionC1Ev
Ltmp248:

	mov	rax, qword ptr [rip + __ZTVN8CryptoPP16PK_FinalTemplateINS_16TF_DecryptorImplINS_22TF_CryptoSchemeOptionsINS_5TF_ESINS_3RSAENS_4OAEPINS_4SHA1ENS_10P1363_MGF1EEEiEES4_S8_EEEEEE@GOTPCREL]
	lea	rcx, [rax + 16]
	mov	qword ptr [rbp - 1128], rcx
	lea	rcx, [rax + 168]
	mov	qword ptr [rbp - 1120], rcx
	add	rax, 256
	mov	qword ptr [rbp - 1112], rax
	mov	rax, qword ptr [rbp - 1104]
Ltmp249:
	mov	rdi, r12
	mov	rsi, r13
	call	qword ptr [rax + 112]
Ltmp250:

	mov	qword ptr [rbp - 1552], rbx
	lea	rdi, [rbp - 1544]
Ltmp255:
	mov	esi, 1
	call	__ZN8CryptoPP9AlgorithmC2Eb
Ltmp256:

	mov	r12, qword ptr [rip + __ZTVN8CryptoPP13TF_ObjectImplINS_16TF_EncryptorBaseENS_22TF_CryptoSchemeOptionsINS_5TF_ESINS_3RSAENS_4OAEPINS_4SHA1ENS_10P1363_MGF1EEEiEES4_S8_EENS_11RSAFunctionEEE@GOTPCREL]
	lea	r15, [r12 + 16]
	mov	qword ptr [rbp - 1552], r15
	lea	r14, [r12 + 168]
	mov	qword ptr [rbp - 1544], r14
	add	r12, 256
	mov	qword ptr [rbp - 1536], r12
	lea	rax, [rip + __ZTVN8CryptoPP11RSAFunctionE+24]
	mov	qword ptr [rbp - 1528], rax
	lea	rax, [rip + __ZTVN8CryptoPP11RSAFunctionE+168]
	mov	qword ptr [rbp - 1520], rax
	lea	rax, [rip + __ZTVN8CryptoPP11RSAFunctionE+376]
	mov	qword ptr [rbp - 1512], rax
	lea	rdi, [rbp - 1504]
Ltmp257:
	call	__ZN8CryptoPP7IntegerC1Ev
Ltmp258:

	lea	rdi, [rbp - 1456]
Ltmp260:
	call	__ZN8CryptoPP7IntegerC1Ev
Ltmp261:

	lea	rdi, [rbp - 1120]
	mov	rax, qword ptr [rip + __ZTVN8CryptoPP16PK_FinalTemplateINS_16TF_EncryptorImplINS_22TF_CryptoSchemeOptionsINS_5TF_ESINS_3RSAENS_4OAEPINS_4SHA1ENS_10P1363_MGF1EEEiEES4_S8_EEEEEE@GOTPCREL]
	lea	rcx, [rax + 16]
	mov	qword ptr [rbp - 1552], rcx
	lea	rcx, [rax + 168]
	mov	qword ptr [rbp - 1544], rcx
	add	rax, 256
	mov	qword ptr [rbp - 1536], rax
	lea	rbx, [rbp - 1528]
	mov	rax, qword ptr [rbp - 1120]
Ltmp266:
	call	qword ptr [rax + 48]
Ltmp267:

	mov	rcx, qword ptr [rbp - 1528]
Ltmp268:
	mov	rdi, rbx
	mov	rsi, rax
	call	qword ptr [rcx + 112]
Ltmp269:

Ltmp274:
	lea	rdi, [rbp - 1552]
	lea	rsi, [rbp - 1128]
	call	__ZN8CryptoPP47EncryptionPairwiseConsistencyTest_FIPS_140_OnlyERKNS_12PK_EncryptorERKNS_12PK_DecryptorE
Ltmp275:

	mov	qword ptr [rbp - 1552], r15
	mov	qword ptr [rbp - 1544], r14
	mov	qword ptr [rbp - 1536], r12
Ltmp279:
	lea	rsi, [rip + __ZTTN8CryptoPP11RSAFunctionE]
	mov	rdi, rbx
	call	__ZN8CryptoPP11RSAFunctionD2Ev
Ltmp280:

	mov	rax, qword ptr [rbp - 1160] 
	mov	qword ptr [rbp - 1128], rax
	mov	rax, qword ptr [rbp - 1168] 
	mov	qword ptr [rbp - 1120], rax
	mov	rax, qword ptr [rbp - 1176] 
	mov	qword ptr [rbp - 1112], rax
Ltmp284:
	lea	rsi, [rip + __ZTTN8CryptoPP21InvertibleRSAFunctionE]
	lea	rdi, [rbp - 1104]
	mov	r14, qword ptr [rbp - 1360] 
	mov	r15, qword ptr [rbp - 1352] 
	call	__ZN8CryptoPP21InvertibleRSAFunctionD2Ev
Ltmp285:

	mov	rax, qword ptr [rbp - 1184] 
	mov	qword ptr [rbp - 1344], rax
	mov	qword ptr [rbp - 1336], r15
	mov	qword ptr [rbp - 1328], r14
Ltmp289:
	lea	rsi, [rip + __ZTTN8CryptoPP11RSAFunctionE]
	lea	rdi, [rbp - 1320]
	lea	r14, [rbp - 568]
	mov	rbx, qword ptr [rbp - 1368] 
	call	__ZN8CryptoPP11RSAFunctionD2Ev
Ltmp290:

	mov	rax, qword ptr [rbp - 1192] 
	mov	qword ptr [rbp - 592], rax
	mov	rax, qword ptr [rbp - 1200] 
	mov	qword ptr [rbp - 584], rax
	mov	qword ptr [rbp - 576], rbx
Ltmp294:
	lea	rsi, [rip + __ZTTN8CryptoPP21InvertibleRSAFunctionE]
	mov	rdi, r14
	call	__ZN8CryptoPP21InvertibleRSAFunctionD2Ev
Ltmp295:
LBB20_95:
	mov	rax, qword ptr [rbp - 1376] 
	mov	qword ptr [rbp - 1408], rax
	mov	rdi, qword ptr [rbp - 1400]
	test	rdi, rdi
	je	LBB20_97

	mov	rax, qword ptr [rdi]
Ltmp299:
	call	qword ptr [rax + 8]
Ltmp300:
LBB20_97:
	mov	rax, qword ptr [rbp - 1384] 
	mov	qword ptr [rbp - 1608], rax
	mov	rax, qword ptr [rbp - 1144] 
	mov	qword ptr [rbp - 1600], rax
	mov	rdx, qword ptr [rbp - 1568]
	test	rdx, rdx
	je	LBB20_99

	mov	rax, qword ptr [rbp - 1584]
	mov	rcx, qword ptr [rbp - 1576]
	cmp	rax, rcx
	cmovb	rcx, rax
	xor	eax, eax
	mov	rdi, rdx
	
	rep		stosq	qword ptr es:[rdi], rax
	
	mov	rdi, rdx
	call	__ZN8CryptoPP17AlignedDeallocateEPv
LBB20_99:
	mov	rax, qword ptr [rip + ___stack_chk_guard@GOTPCREL]
	mov	rax, qword ptr [rax]
	cmp	rax, qword ptr [rbp - 48]
	jne	LBB20_101

	add	rsp, 1720
	pop	rbx
	pop	r12
	pop	r13
	pop	r14
	pop	r15
	pop	rbp
	ret
LBB20_101:
	call	___stack_chk_fail
LBB20_102:
	mov	edi, 40
	call	___cxa_allocate_exception
	mov	rbx, rax
Ltmp314:
	mov	edi, 64
	call	__Znwm
Ltmp315:

	mov	qword ptr [rbp - 576], rax
	movaps	xmm0, xmmword ptr [rip + LCPI20_1] 
	movaps	xmmword ptr [rbp - 592], xmm0
	movabs	rcx, 7020393977286194208
	mov	qword ptr [rax + 48], rcx
	movabs	rcx, 8316213807133848352
	mov	qword ptr [rax + 40], rcx
	movabs	rcx, 8319675138088856864
	mov	qword ptr [rax + 32], rcx
	movabs	rcx, 7234304265016272240
	mov	qword ptr [rax + 24], rcx
	movabs	rcx, 8295694759606449251
	mov	qword ptr [rax + 16], rcx
	movabs	rcx, 7959345162831947116
	mov	qword ptr [rax + 8], rcx
	movabs	rcx, 7091327122948910665
	mov	qword ptr [rax], rcx
	mov	word ptr [rax + 56], 27756
	mov	byte ptr [rax + 58], 0
	mov	rax, qword ptr [rip + __ZTVN8CryptoPP9ExceptionE@GOTPCREL]
	add	rax, 16
	mov	qword ptr [rbx], rax
	mov	dword ptr [rbx + 8], 1
	mov	rdi, rbx
	add	rdi, 16
Ltmp317:
	lea	rsi, [rbp - 592]
	call	__ZNSt3__112basic_stringIcNS_11char_traitsIcEENS_9allocatorIcEEEC1ERKS5_
Ltmp318:

	mov	rax, qword ptr [rip + __ZTVN8CryptoPP15InvalidArgumentE@GOTPCREL]
	add	rax, 16
	mov	qword ptr [rbx], rax
Ltmp320:
	mov	rsi, qword ptr [rip + __ZTIN8CryptoPP15InvalidArgumentE@GOTPCREL]
	mov	rdx, qword ptr [rip + __ZN8CryptoPP15InvalidArgumentD1Ev@GOTPCREL]
	mov	rdi, rbx
	call	___cxa_throw
Ltmp321:
	jmp	LBB20_114
LBB20_105:
	mov	rax, qword ptr [rbp - 1144] 
	mov	qword ptr [rbp - 592], rax
	mov	rdx, qword ptr [rbp - 560]
	test	rdx, rdx
	je	LBB20_107

	mov	rax, qword ptr [rbp - 576]
	mov	rcx, qword ptr [rbp - 568]
	cmp	rax, rcx
	cmovb	rcx, rax
	xor	eax, eax
	mov	rdi, rdx
	
	rep		stosq	qword ptr es:[rdi], rax
	
	mov	rdi, rdx
	call	__ZN8CryptoPP17AlignedDeallocateEPv
LBB20_107:
	mov	edi, 40
	call	___cxa_allocate_exception
	mov	rbx, rax
Ltmp305:
	mov	edi, 48
	call	__Znwm
Ltmp306:

	mov	qword ptr [rbp - 576], rax
	movaps	xmm0, xmmword ptr [rip + LCPI20_0] 
	movaps	xmmword ptr [rbp - 592], xmm0
	movabs	rcx, 8389754680828262501
	mov	qword ptr [rax + 38], rcx
	movabs	rcx, 8675375868541690485
	mov	qword ptr [rax + 32], rcx
	movabs	rcx, 8079568135455340142
	mov	qword ptr [rax + 24], rcx
	movabs	rcx, 7575118819227169891
	mov	qword ptr [rax + 16], rcx
	movabs	rcx, 7959345162831947116
	mov	qword ptr [rax + 8], rcx
	movabs	rcx, 7091327122948910665
	mov	qword ptr [rax], rcx
	mov	byte ptr [rax + 46], 0
	mov	rax, qword ptr [rip + __ZTVN8CryptoPP9ExceptionE@GOTPCREL]
	add	rax, 16
	mov	qword ptr [rbx], rax
	mov	dword ptr [rbx + 8], 1
	mov	rdi, rbx
	add	rdi, 16
Ltmp308:
	lea	rsi, [rbp - 592]
	call	__ZNSt3__112basic_stringIcNS_11char_traitsIcEENS_9allocatorIcEEEC1ERKS5_
Ltmp309:

	mov	rax, qword ptr [rip + __ZTVN8CryptoPP15InvalidArgumentE@GOTPCREL]
	add	rax, 16
	mov	qword ptr [rbx], rax
Ltmp311:
	mov	rsi, qword ptr [rip + __ZTIN8CryptoPP15InvalidArgumentE@GOTPCREL]
	mov	rdx, qword ptr [rip + __ZN8CryptoPP15InvalidArgumentD1Ev@GOTPCREL]
	mov	rdi, rbx
	call	___cxa_throw
Ltmp312:
	jmp	LBB20_114
LBB20_110:
	mov	edi, 40
	call	___cxa_allocate_exception
	mov	rbx, rax
Ltmp85:
	mov	rdi, rax
	call	__ZN8CryptoPP7Integer20RandomNumberNotFoundC2Ev
Ltmp86:

Ltmp88:
	mov	rsi, qword ptr [rip + __ZTIN8CryptoPP7Integer20RandomNumberNotFoundE@GOTPCREL]
	mov	rdx, qword ptr [rip + __ZN8CryptoPP7Integer20RandomNumberNotFoundD1Ev@GOTPCREL]
	mov	rdi, rbx
	call	___cxa_throw
Ltmp89:
	jmp	LBB20_114
LBB20_112:
	mov	edi, 40
	call	___cxa_allocate_exception
	mov	rbx, rax
Ltmp92:
	mov	rdi, rax
	call	__ZN8CryptoPP7Integer20RandomNumberNotFoundC2Ev
Ltmp93:

Ltmp95:
	mov	rsi, qword ptr [rip + __ZTIN8CryptoPP7Integer20RandomNumberNotFoundE@GOTPCREL]
	mov	rdx, qword ptr [rip + __ZN8CryptoPP7Integer20RandomNumberNotFoundD1Ev@GOTPCREL]
	mov	rdi, rbx
	call	___cxa_throw
Ltmp96:
LBB20_114:
	ud2
LBB20_115:
Ltmp94:
	jmp	LBB20_117
LBB20_116:
Ltmp87:
LBB20_117:
	mov	qword ptr [rbp - 1136], rax 
	mov	rdi, rbx
	call	___cxa_free_exception
	jmp	LBB20_214
LBB20_118:
Ltmp322:
	jmp	LBB20_122
LBB20_119:
Ltmp319:
	jmp	LBB20_124
LBB20_120:
Ltmp316:
	jmp	LBB20_129
LBB20_121:
Ltmp313:
LBB20_122:
	mov	qword ptr [rbp - 1136], rax 
	xor	r14d, r14d
	jmp	LBB20_125
LBB20_123:
Ltmp310:
LBB20_124:
	mov	qword ptr [rbp - 1136], rax 
	mov	rdi, rbx
	call	__ZNSt9exceptionD2Ev
	mov	r14b, 1
LBB20_125:
	test	byte ptr [rbp - 592], 1
	je	LBB20_127

	mov	rdi, qword ptr [rbp - 576]
	call	__ZdlPv
LBB20_127:
	test	r14b, r14b
	jne	LBB20_130
	jmp	LBB20_218
LBB20_128:
Ltmp307:
LBB20_129:
	mov	qword ptr [rbp - 1136], rax 
LBB20_130:
	mov	rdi, rbx
	call	___cxa_free_exception
	jmp	LBB20_218
LBB20_131:
Ltmp276:
	mov	qword ptr [rbp - 1136], rax 
	mov	qword ptr [rbp - 1552], r15
	mov	qword ptr [rbp - 1544], r14
	mov	qword ptr [rbp - 1536], r12
Ltmp277:
	lea	rsi, [rip + __ZTTN8CryptoPP11RSAFunctionE]
	mov	rdi, rbx
	call	__ZN8CryptoPP11RSAFunctionD2Ev
Ltmp278:
	jmp	LBB20_150
LBB20_132:
Ltmp262:
	mov	qword ptr [rbp - 1136], rax 
	mov	rax, qword ptr [rbp - 1144] 
	mov	qword ptr [rbp - 1504], rax
	mov	rdx, qword ptr [rbp - 1472]
	test	rdx, rdx
	je	LBB20_150

	mov	rax, qword ptr [rbp - 1488]
	mov	rcx, qword ptr [rbp - 1480]
	cmp	rax, rcx
	cmovb	rcx, rax
	xor	eax, eax
	mov	rdi, rdx
	
	rep		stosq	qword ptr es:[rdi], rax
	
Ltmp263:
	mov	rdi, rdx
	call	__ZN8CryptoPP17AlignedDeallocateEPv
Ltmp264:
	jmp	LBB20_150
LBB20_134:
Ltmp265:
	mov	rdi, rax
	call	___clang_call_terminate
LBB20_135:
Ltmp259:
	jmp	LBB20_149
LBB20_136:
Ltmp251:
	mov	qword ptr [rbp - 1136], rax 
	mov	rax, qword ptr [rbp - 1160] 
	mov	qword ptr [rbp - 1128], rax
	mov	rax, qword ptr [rbp - 1168] 
	mov	qword ptr [rbp - 1120], rax
	mov	rax, qword ptr [rbp - 1176] 
	mov	qword ptr [rbp - 1112], rax
Ltmp252:
	lea	rsi, [rip + __ZTTN8CryptoPP21InvertibleRSAFunctionE]
	lea	rdi, [rbp - 1104]
	call	__ZN8CryptoPP21InvertibleRSAFunctionD2Ev
Ltmp253:
	jmp	LBB20_168
LBB20_137:
Ltmp254:
	mov	rdi, rax
	call	___clang_call_terminate
LBB20_138:
Ltmp244:
	jmp	LBB20_167
LBB20_139:
Ltmp230:
	mov	qword ptr [rbp - 1136], rax 
	mov	rax, qword ptr [rbp - 1144] 
	mov	qword ptr [rbp - 1296], rax
	mov	rdx, qword ptr [rbp - 1264]
	test	rdx, rdx
	je	LBB20_169

	mov	rax, qword ptr [rbp - 1280]
	mov	rcx, qword ptr [rbp - 1272]
	cmp	rax, rcx
	cmovb	rcx, rax
	xor	eax, eax
	mov	rdi, rdx
	
	rep		stosq	qword ptr es:[rdi], rax
	
Ltmp231:
	mov	rdi, rdx
	call	__ZN8CryptoPP17AlignedDeallocateEPv
Ltmp232:
	jmp	LBB20_169
LBB20_141:
Ltmp233:
	mov	rdi, rax
	call	___clang_call_terminate
LBB20_142:
Ltmp227:
	mov	qword ptr [rbp - 1136], rax 
	jmp	LBB20_169
LBB20_143:
Ltmp219:
	mov	qword ptr [rbp - 1136], rax 
	mov	rax, qword ptr [rbp - 1192] 
	mov	qword ptr [rbp - 592], rax
	mov	rax, qword ptr [rbp - 1200] 
	mov	qword ptr [rbp - 584], rax
	mov	qword ptr [rbp - 576], rbx
Ltmp220:
	lea	rsi, [rip + __ZTTN8CryptoPP21InvertibleRSAFunctionE]
	mov	rdi, r15
	call	__ZN8CryptoPP21InvertibleRSAFunctionD2Ev
Ltmp221:
	jmp	LBB20_214
LBB20_144:
Ltmp222:
	mov	rdi, rax
	call	___clang_call_terminate
LBB20_145:
Ltmp301:
	jmp	LBB20_204
LBB20_146:
Ltmp270:
	mov	qword ptr [rbp - 1136], rax 
	mov	qword ptr [rbp - 1552], r15
	mov	qword ptr [rbp - 1544], r14
	mov	qword ptr [rbp - 1536], r12
Ltmp271:
	lea	rsi, [rip + __ZTTN8CryptoPP11RSAFunctionE]
	mov	rdi, rbx
	call	__ZN8CryptoPP11RSAFunctionD2Ev
Ltmp272:
	jmp	LBB20_150
LBB20_147:
Ltmp273:
	mov	rdi, rax
	call	___clang_call_terminate
LBB20_148:
Ltmp281:
LBB20_149:
	mov	qword ptr [rbp - 1136], rax 
LBB20_150:
	mov	rax, qword ptr [rbp - 1160] 
	mov	qword ptr [rbp - 1128], rax
	mov	rax, qword ptr [rbp - 1168] 
	mov	qword ptr [rbp - 1120], rax
	mov	rax, qword ptr [rbp - 1176] 
	mov	qword ptr [rbp - 1112], rax
Ltmp282:
	lea	rsi, [rip + __ZTTN8CryptoPP21InvertibleRSAFunctionE]
	lea	rdi, [rbp - 1104]
	call	__ZN8CryptoPP21InvertibleRSAFunctionD2Ev
Ltmp283:
	jmp	LBB20_168
LBB20_151:
Ltmp291:
	mov	qword ptr [rbp - 1136], rax 
	jmp	LBB20_169
LBB20_152:
Ltmp238:
	mov	qword ptr [rbp - 1136], rax 
	mov	rax, qword ptr [rbp - 1184] 
	mov	qword ptr [rbp - 1344], rax
	mov	qword ptr [rbp - 1336], r15
	mov	qword ptr [rbp - 1328], r14
Ltmp239:
	lea	rsi, [rip + __ZTTN8CryptoPP11RSAFunctionE]
	mov	rdi, rbx
	call	__ZN8CryptoPP11RSAFunctionD2Ev
Ltmp240:
	jmp	LBB20_169
LBB20_153:
Ltmp241:
	mov	rdi, rax
	call	___clang_call_terminate
LBB20_154:
Ltmp204:
	mov	qword ptr [rbp - 1136], rax 
	mov	rax, qword ptr [rbp - 1144] 
	mov	qword ptr [rbp - 592], rax
	mov	rdx, qword ptr [rbp - 560]
	test	rdx, rdx
	je	LBB20_214

	mov	rax, qword ptr [rbp - 576]
	mov	rcx, qword ptr [rbp - 568]
	cmp	rax, rcx
	cmovb	rcx, rax
	xor	eax, eax
	mov	rdi, rdx
	
	rep		stosq	qword ptr es:[rdi], rax
	
Ltmp205:
	mov	rdi, rdx
	call	__ZN8CryptoPP17AlignedDeallocateEPv
Ltmp206:
	jmp	LBB20_214
LBB20_156:
Ltmp194:
	mov	qword ptr [rbp - 1136], rax 
	mov	rax, qword ptr [rbp - 1144] 
	mov	qword ptr [rbp - 592], rax
	mov	rdx, qword ptr [rbp - 560]
	test	rdx, rdx
	je	LBB20_214

	mov	rax, qword ptr [rbp - 576]
	mov	rcx, qword ptr [rbp - 568]
	cmp	rax, rcx
	cmovb	rcx, rax
	xor	eax, eax
	mov	rdi, rdx
	
	rep		stosq	qword ptr es:[rdi], rax
	
Ltmp195:
	mov	rdi, rdx
	call	__ZN8CryptoPP17AlignedDeallocateEPv
Ltmp196:
	jmp	LBB20_214
LBB20_158:
Ltmp174:
	mov	qword ptr [rbp - 1136], rax 
	mov	rax, qword ptr [rbp - 1144] 
	mov	qword ptr [rbp - 592], rax
	mov	rdx, qword ptr [rbp - 560]
	test	rdx, rdx
	je	LBB20_174

	mov	rax, qword ptr [rbp - 576]
	mov	rcx, qword ptr [rbp - 568]
	cmp	rax, rcx
	cmovb	rcx, rax
	xor	eax, eax
	mov	rdi, rdx
	
	rep		stosq	qword ptr es:[rdi], rax
	
Ltmp175:
	mov	rdi, rdx
	call	__ZN8CryptoPP17AlignedDeallocateEPv
Ltmp176:
	jmp	LBB20_174
LBB20_160:
Ltmp150:
	mov	qword ptr [rbp - 1136], rax 
	mov	rax, qword ptr [rbp - 1144] 
	mov	qword ptr [rbp - 592], rax
	mov	rdx, qword ptr [rbp - 560]
	test	rdx, rdx
	je	LBB20_181

	mov	rax, qword ptr [rbp - 576]
	mov	rcx, qword ptr [rbp - 568]
	cmp	rax, rcx
	cmovb	rcx, rax
	xor	eax, eax
	mov	rdi, rdx
	
	rep		stosq	qword ptr es:[rdi], rax
	
Ltmp151:
	mov	rdi, rdx
	call	__ZN8CryptoPP17AlignedDeallocateEPv
Ltmp152:
	jmp	LBB20_181
LBB20_162:
Ltmp111:
	mov	qword ptr [rbp - 1136], rax 
	mov	rax, qword ptr [rbp - 1144] 
	mov	qword ptr [rbp - 592], rax
	mov	rdx, qword ptr [rbp - 560]
	test	rdx, rdx
	je	LBB20_188

	mov	rax, qword ptr [rbp - 576]
	mov	rcx, qword ptr [rbp - 568]
	cmp	rax, rcx
	cmovb	rcx, rax
	xor	eax, eax
	mov	rdi, rdx
	
	rep		stosq	qword ptr es:[rdi], rax
	
Ltmp112:
	mov	rdi, rdx
	call	__ZN8CryptoPP17AlignedDeallocateEPv
Ltmp113:
	jmp	LBB20_188
LBB20_164:
Ltmp56:
	mov	qword ptr [rbp - 1136], rax 
	mov	rax, qword ptr [rip + __ZTVN8CryptoPP7IntegerE@GOTPCREL]
	add	rax, 16
	mov	qword ptr [rbp - 592], rax
	mov	rdx, qword ptr [rbp - 560]
	test	rdx, rdx
	je	LBB20_206

	mov	rax, qword ptr [rbp - 576]
	mov	rcx, qword ptr [rbp - 568]
	cmp	rax, rcx
	cmovb	rcx, rax
	xor	eax, eax
	mov	rdi, rdx
	
	rep		stosq	qword ptr es:[rdi], rax
	
Ltmp57:
	mov	rdi, rdx
	call	__ZN8CryptoPP17AlignedDeallocateEPv
Ltmp58:
	jmp	LBB20_206
LBB20_166:
Ltmp286:
LBB20_167:
	mov	qword ptr [rbp - 1136], rax 
LBB20_168:
	mov	rax, qword ptr [rbp - 1184] 
	mov	qword ptr [rbp - 1344], rax
	mov	rax, qword ptr [rbp - 1352] 
	mov	qword ptr [rbp - 1336], rax
	mov	rax, qword ptr [rbp - 1360] 
	mov	qword ptr [rbp - 1328], rax
Ltmp287:
	lea	rsi, [rip + __ZTTN8CryptoPP11RSAFunctionE]
	lea	rdi, [rbp - 1320]
	call	__ZN8CryptoPP11RSAFunctionD2Ev
Ltmp288:
LBB20_169:
	mov	rax, qword ptr [rbp - 1192] 
	mov	qword ptr [rbp - 592], rax
	mov	rax, qword ptr [rbp - 1200] 
	mov	qword ptr [rbp - 584], rax
	mov	rax, qword ptr [rbp - 1368] 
	mov	qword ptr [rbp - 576], rax
Ltmp292:
	lea	rsi, [rip + __ZTTN8CryptoPP21InvertibleRSAFunctionE]
	lea	rdi, [rbp - 568]
	call	__ZN8CryptoPP21InvertibleRSAFunctionD2Ev
Ltmp293:
	jmp	LBB20_214
LBB20_170:
Ltmp296:
	jmp	LBB20_213
LBB20_171:
Ltmp209:
	jmp	LBB20_213
LBB20_172:
Ltmp199:
	jmp	LBB20_213
LBB20_173:
Ltmp179:
	mov	qword ptr [rbp - 1136], rax 
LBB20_174:
	mov	rax, qword ptr [rbp - 1144] 
	mov	qword ptr [rbp - 1128], rax
	mov	rdx, qword ptr [rbp - 1096]
	test	rdx, rdx
	je	LBB20_177

	mov	rax, qword ptr [rbp - 1112]
	mov	rcx, qword ptr [rbp - 1104]
	cmp	rax, rcx
	cmovb	rcx, rax
	xor	eax, eax
	mov	rdi, rdx
	
	rep		stosq	qword ptr es:[rdi], rax
	
Ltmp180:
	mov	rdi, rdx
	call	__ZN8CryptoPP17AlignedDeallocateEPv
Ltmp181:
	jmp	LBB20_177
LBB20_176:
Ltmp184:
	mov	qword ptr [rbp - 1136], rax 
LBB20_177:
	mov	rax, qword ptr [rbp - 1144] 
	mov	qword ptr [rbp - 1344], rax
	mov	rdx, qword ptr [rbp - 1312]
	test	rdx, rdx
	je	LBB20_214

	mov	rax, qword ptr [rbp - 1328]
	mov	rcx, qword ptr [rbp - 1320]
	cmp	rax, rcx
	cmovb	rcx, rax
	xor	eax, eax
	mov	rdi, rdx
	
	rep		stosq	qword ptr es:[rdi], rax
	
Ltmp185:
	mov	rdi, rdx
	call	__ZN8CryptoPP17AlignedDeallocateEPv
Ltmp186:
	jmp	LBB20_214
LBB20_179:
Ltmp189:
	jmp	LBB20_213
LBB20_180:
Ltmp155:
	mov	qword ptr [rbp - 1136], rax 
LBB20_181:
	mov	rax, qword ptr [rbp - 1144] 
	mov	qword ptr [rbp - 1128], rax
	mov	rdx, qword ptr [rbp - 1096]
	test	rdx, rdx
	je	LBB20_184

	mov	rax, qword ptr [rbp - 1112]
	mov	rcx, qword ptr [rbp - 1104]
	cmp	rax, rcx
	cmovb	rcx, rax
	xor	eax, eax
	mov	rdi, rdx
	
	rep		stosq	qword ptr es:[rdi], rax
	
Ltmp156:
	mov	rdi, rdx
	call	__ZN8CryptoPP17AlignedDeallocateEPv
Ltmp157:
	jmp	LBB20_184
LBB20_183:
Ltmp160:
	mov	qword ptr [rbp - 1136], rax 
LBB20_184:
	mov	rax, qword ptr [rbp - 1144] 
	mov	qword ptr [rbp - 1344], rax
	mov	rdx, qword ptr [rbp - 1312]
	test	rdx, rdx
	je	LBB20_214

	mov	rax, qword ptr [rbp - 1328]
	mov	rcx, qword ptr [rbp - 1320]
	cmp	rax, rcx
	cmovb	rcx, rax
	xor	eax, eax
	mov	rdi, rdx
	
	rep		stosq	qword ptr es:[rdi], rax
	
Ltmp161:
	mov	rdi, rdx
	call	__ZN8CryptoPP17AlignedDeallocateEPv
Ltmp162:
	jmp	LBB20_214
LBB20_186:
Ltmp165:
	jmp	LBB20_213
LBB20_187:
Ltmp116:
	mov	qword ptr [rbp - 1136], rax 
LBB20_188:
	mov	rax, qword ptr [rbp - 1144] 
	mov	qword ptr [rbp - 1128], rax
	mov	rdx, qword ptr [rbp - 1096]
	test	rdx, rdx
	je	LBB20_191

	mov	rax, qword ptr [rbp - 1112]
	mov	rcx, qword ptr [rbp - 1104]
	cmp	rax, rcx
	cmovb	rcx, rax
	xor	eax, eax
	mov	rdi, rdx
	
	rep		stosq	qword ptr es:[rdi], rax
	
Ltmp117:
	mov	rdi, rdx
	call	__ZN8CryptoPP17AlignedDeallocateEPv
Ltmp118:
	jmp	LBB20_191
LBB20_190:
Ltmp121:
	mov	qword ptr [rbp - 1136], rax 
LBB20_191:
	mov	rax, qword ptr [rbp - 1144] 
	mov	qword ptr [rbp - 1704], rax
	mov	rdx, qword ptr [rbp - 1672]
	test	rdx, rdx
	je	LBB20_194

	mov	rax, qword ptr [rbp - 1688]
	mov	rcx, qword ptr [rbp - 1680]
	cmp	rax, rcx
	cmovb	rcx, rax
	xor	eax, eax
	mov	rdi, rdx
	
	rep		stosq	qword ptr es:[rdi], rax
	
Ltmp122:
	mov	rdi, rdx
	call	__ZN8CryptoPP17AlignedDeallocateEPv
Ltmp123:
	jmp	LBB20_194
LBB20_193:
Ltmp126:
	mov	qword ptr [rbp - 1136], rax 
LBB20_194:
	mov	rax, qword ptr [rbp - 1144] 
	mov	qword ptr [rbp - 1656], rax
	mov	rdx, qword ptr [rbp - 1624]
	test	rdx, rdx
	je	LBB20_197

	mov	rax, qword ptr [rbp - 1640]
	mov	rcx, qword ptr [rbp - 1632]
	cmp	rax, rcx
	cmovb	rcx, rax
	xor	eax, eax
	mov	rdi, rdx
	
	rep		stosq	qword ptr es:[rdi], rax
	
Ltmp127:
	mov	rdi, rdx
	call	__ZN8CryptoPP17AlignedDeallocateEPv
Ltmp128:
	jmp	LBB20_197
LBB20_196:
Ltmp131:
	mov	qword ptr [rbp - 1136], rax 
LBB20_197:
	mov	rax, qword ptr [rbp - 1144] 
	mov	qword ptr [rbp - 1344], rax
	mov	rdx, qword ptr [rbp - 1312]
	test	rdx, rdx
	je	LBB20_200

	mov	rax, qword ptr [rbp - 1328]
	mov	rcx, qword ptr [rbp - 1320]
	cmp	rax, rcx
	cmovb	rcx, rax
	xor	eax, eax
	mov	rdi, rdx
	
	rep		stosq	qword ptr es:[rdi], rax
	
Ltmp132:
	mov	rdi, rdx
	call	__ZN8CryptoPP17AlignedDeallocateEPv
Ltmp133:
	jmp	LBB20_200
LBB20_199:
Ltmp136:
	mov	qword ptr [rbp - 1136], rax 
LBB20_200:
	mov	rax, qword ptr [rbp - 1144] 
	mov	qword ptr [rbp - 1552], rax
	mov	rdx, qword ptr [rbp - 1520]
	test	rdx, rdx
	je	LBB20_214

	mov	rax, qword ptr [rbp - 1536]
	mov	rcx, qword ptr [rbp - 1528]
	cmp	rax, rcx
	cmovb	rcx, rax
	xor	eax, eax
	mov	rdi, rdx
	
	rep		stosq	qword ptr es:[rdi], rax
	
Ltmp137:
	mov	rdi, rdx
	call	__ZN8CryptoPP17AlignedDeallocateEPv
Ltmp138:
	jmp	LBB20_214
LBB20_202:
Ltmp141:
	jmp	LBB20_213
LBB20_203:
Ltmp82:
LBB20_204:
	mov	qword ptr [rbp - 1136], rax 
	jmp	LBB20_216
LBB20_205:
Ltmp61:
	mov	qword ptr [rbp - 1136], rax 
LBB20_206:
	mov	rax, qword ptr [rip + __ZTVN8CryptoPP7IntegerE@GOTPCREL]
	add	rax, 16
	mov	qword ptr [rbp - 1752], rax
	mov	rdx, qword ptr [rbp - 1720]
	test	rdx, rdx
	je	LBB20_218

	mov	rax, qword ptr [rbp - 1736]
	mov	rcx, qword ptr [rbp - 1728]
	cmp	rax, rcx
	cmovb	rcx, rax
	xor	eax, eax
	mov	rdi, rdx
	
	rep		stosq	qword ptr es:[rdi], rax
	
Ltmp62:
	mov	rdi, rdx
	call	__ZN8CryptoPP17AlignedDeallocateEPv
Ltmp63:
	jmp	LBB20_218
LBB20_208:
Ltmp77:
	mov	qword ptr [rbp - 1136], rax 
	mov	rax, qword ptr [rip + __ZTVN8CryptoPP19AlgorithmParametersE@GOTPCREL]
	add	rax, 16
	mov	qword ptr [rbp - 592], rax
	mov	rdi, qword ptr [rbp - 584]
	test	rdi, rdi
	je	LBB20_216

	mov	rax, qword ptr [rdi]
Ltmp78:
	call	qword ptr [rax + 8]
Ltmp79:
	jmp	LBB20_216
LBB20_210:
Ltmp68:
	mov	qword ptr [rbp - 1136], rax 
	mov	rax, qword ptr [rbp - 1144] 
	mov	qword ptr [rbp - 592], rax
	mov	rdx, qword ptr [rbp - 560]
	test	rdx, rdx
	je	LBB20_218

	mov	rax, qword ptr [rbp - 576]
	mov	rcx, qword ptr [rbp - 568]
	cmp	rax, rcx
	cmovb	rcx, rax
	xor	eax, eax
	mov	rdi, rdx
	
	rep		stosq	qword ptr es:[rdi], rax
	
Ltmp69:
	mov	rdi, rdx
	call	__ZN8CryptoPP17AlignedDeallocateEPv
Ltmp70:
	jmp	LBB20_218
LBB20_212:
Ltmp212:
LBB20_213:
	mov	qword ptr [rbp - 1136], rax 
LBB20_214:
	mov	rax, qword ptr [rbp - 1376] 
	mov	qword ptr [rbp - 1408], rax
	mov	rdi, qword ptr [rbp - 1400]
	test	rdi, rdi
	je	LBB20_216

	mov	rax, qword ptr [rdi]
Ltmp297:
	call	qword ptr [rax + 8]
Ltmp298:
LBB20_216:
	mov	rax, qword ptr [rbp - 1384] 
	mov	qword ptr [rbp - 1608], rax
	mov	rax, qword ptr [rbp - 1144] 
	mov	qword ptr [rbp - 1600], rax
	mov	rdx, qword ptr [rbp - 1568]
	test	rdx, rdx
	je	LBB20_218

	mov	rax, qword ptr [rbp - 1584]
	mov	rcx, qword ptr [rbp - 1576]
	cmp	rax, rcx
	cmovb	rcx, rax
	xor	eax, eax
	mov	rdi, rdx
	
	rep		stosq	qword ptr es:[rdi], rax
	
Ltmp302:
	mov	rdi, rdx
	call	__ZN8CryptoPP17AlignedDeallocateEPv
Ltmp303:
LBB20_218:
	mov	rdi, qword ptr [rbp - 1136] 
	call	__Unwind_Resume
	ud2
LBB20_219:
Ltmp304:
	mov	rdi, rax
	call	___clang_call_terminate
Lfunc_end5:
	.cfi_endproc
	.section	__TEXT,__gcc_except_tab
	.p2align	2
GCC_except_table20:
Lexception5:
	.byte	255                     
	.byte	155                     
	.uleb128 Lttbase3-Lttbaseref3
Lttbaseref3:
	.byte	1                       
	.uleb128 Lcst_end5-Lcst_begin5
Lcst_begin5:
	.uleb128 Lfunc_begin5-Lfunc_begin5 
	.uleb128 Ltmp52-Lfunc_begin5    
	.byte	0                       
	.byte	0                       
	.uleb128 Ltmp52-Lfunc_begin5    
	.uleb128 Ltmp53-Ltmp52          
	.uleb128 Ltmp61-Lfunc_begin5    
	.byte	0                       
	.uleb128 Ltmp54-Lfunc_begin5    
	.uleb128 Ltmp55-Ltmp54          
	.uleb128 Ltmp56-Lfunc_begin5    
	.byte	0                       
	.uleb128 Ltmp59-Lfunc_begin5    
	.uleb128 Ltmp60-Ltmp59          
	.uleb128 Ltmp61-Lfunc_begin5    
	.byte	0                       
	.uleb128 Ltmp60-Lfunc_begin5    
	.uleb128 Ltmp64-Ltmp60          
	.byte	0                       
	.byte	0                       
	.uleb128 Ltmp64-Lfunc_begin5    
	.uleb128 Ltmp67-Ltmp64          
	.uleb128 Ltmp68-Lfunc_begin5    
	.byte	0                       
	.uleb128 Ltmp67-Lfunc_begin5    
	.uleb128 Ltmp71-Ltmp67          
	.byte	0                       
	.byte	0                       
	.uleb128 Ltmp71-Lfunc_begin5    
	.uleb128 Ltmp72-Ltmp71          
	.uleb128 Ltmp82-Lfunc_begin5    
	.byte	0                       
	.uleb128 Ltmp73-Lfunc_begin5    
	.uleb128 Ltmp76-Ltmp73          
	.uleb128 Ltmp77-Lfunc_begin5    
	.byte	0                       
	.uleb128 Ltmp80-Lfunc_begin5    
	.uleb128 Ltmp81-Ltmp80          
	.uleb128 Ltmp82-Lfunc_begin5    
	.byte	0                       
	.uleb128 Ltmp83-Lfunc_begin5    
	.uleb128 Ltmp91-Ltmp83          
	.uleb128 Ltmp212-Lfunc_begin5   
	.byte	0                       
	.uleb128 Ltmp97-Lfunc_begin5    
	.uleb128 Ltmp98-Ltmp97          
	.uleb128 Ltmp141-Lfunc_begin5   
	.byte	0                       
	.uleb128 Ltmp99-Lfunc_begin5    
	.uleb128 Ltmp100-Ltmp99         
	.uleb128 Ltmp136-Lfunc_begin5   
	.byte	0                       
	.uleb128 Ltmp101-Lfunc_begin5   
	.uleb128 Ltmp102-Ltmp101        
	.uleb128 Ltmp131-Lfunc_begin5   
	.byte	0                       
	.uleb128 Ltmp103-Lfunc_begin5   
	.uleb128 Ltmp104-Ltmp103        
	.uleb128 Ltmp126-Lfunc_begin5   
	.byte	0                       
	.uleb128 Ltmp105-Lfunc_begin5   
	.uleb128 Ltmp106-Ltmp105        
	.uleb128 Ltmp121-Lfunc_begin5   
	.byte	0                       
	.uleb128 Ltmp107-Lfunc_begin5   
	.uleb128 Ltmp108-Ltmp107        
	.uleb128 Ltmp116-Lfunc_begin5   
	.byte	0                       
	.uleb128 Ltmp109-Lfunc_begin5   
	.uleb128 Ltmp110-Ltmp109        
	.uleb128 Ltmp111-Lfunc_begin5   
	.byte	0                       
	.uleb128 Ltmp114-Lfunc_begin5   
	.uleb128 Ltmp115-Ltmp114        
	.uleb128 Ltmp116-Lfunc_begin5   
	.byte	0                       
	.uleb128 Ltmp119-Lfunc_begin5   
	.uleb128 Ltmp120-Ltmp119        
	.uleb128 Ltmp121-Lfunc_begin5   
	.byte	0                       
	.uleb128 Ltmp124-Lfunc_begin5   
	.uleb128 Ltmp125-Ltmp124        
	.uleb128 Ltmp126-Lfunc_begin5   
	.byte	0                       
	.uleb128 Ltmp129-Lfunc_begin5   
	.uleb128 Ltmp130-Ltmp129        
	.uleb128 Ltmp131-Lfunc_begin5   
	.byte	0                       
	.uleb128 Ltmp134-Lfunc_begin5   
	.uleb128 Ltmp135-Ltmp134        
	.uleb128 Ltmp136-Lfunc_begin5   
	.byte	0                       
	.uleb128 Ltmp139-Lfunc_begin5   
	.uleb128 Ltmp140-Ltmp139        
	.uleb128 Ltmp141-Lfunc_begin5   
	.byte	0                       
	.uleb128 Ltmp142-Lfunc_begin5   
	.uleb128 Ltmp143-Ltmp142        
	.uleb128 Ltmp165-Lfunc_begin5   
	.byte	0                       
	.uleb128 Ltmp144-Lfunc_begin5   
	.uleb128 Ltmp145-Ltmp144        
	.uleb128 Ltmp160-Lfunc_begin5   
	.byte	0                       
	.uleb128 Ltmp146-Lfunc_begin5   
	.uleb128 Ltmp147-Ltmp146        
	.uleb128 Ltmp155-Lfunc_begin5   
	.byte	0                       
	.uleb128 Ltmp148-Lfunc_begin5   
	.uleb128 Ltmp149-Ltmp148        
	.uleb128 Ltmp150-Lfunc_begin5   
	.byte	0                       
	.uleb128 Ltmp153-Lfunc_begin5   
	.uleb128 Ltmp154-Ltmp153        
	.uleb128 Ltmp155-Lfunc_begin5   
	.byte	0                       
	.uleb128 Ltmp158-Lfunc_begin5   
	.uleb128 Ltmp159-Ltmp158        
	.uleb128 Ltmp160-Lfunc_begin5   
	.byte	0                       
	.uleb128 Ltmp163-Lfunc_begin5   
	.uleb128 Ltmp164-Ltmp163        
	.uleb128 Ltmp165-Lfunc_begin5   
	.byte	0                       
	.uleb128 Ltmp166-Lfunc_begin5   
	.uleb128 Ltmp167-Ltmp166        
	.uleb128 Ltmp189-Lfunc_begin5   
	.byte	0                       
	.uleb128 Ltmp168-Lfunc_begin5   
	.uleb128 Ltmp169-Ltmp168        
	.uleb128 Ltmp184-Lfunc_begin5   
	.byte	0                       
	.uleb128 Ltmp170-Lfunc_begin5   
	.uleb128 Ltmp171-Ltmp170        
	.uleb128 Ltmp179-Lfunc_begin5   
	.byte	0                       
	.uleb128 Ltmp172-Lfunc_begin5   
	.uleb128 Ltmp173-Ltmp172        
	.uleb128 Ltmp174-Lfunc_begin5   
	.byte	0                       
	.uleb128 Ltmp177-Lfunc_begin5   
	.uleb128 Ltmp178-Ltmp177        
	.uleb128 Ltmp179-Lfunc_begin5   
	.byte	0                       
	.uleb128 Ltmp182-Lfunc_begin5   
	.uleb128 Ltmp183-Ltmp182        
	.uleb128 Ltmp184-Lfunc_begin5   
	.byte	0                       
	.uleb128 Ltmp187-Lfunc_begin5   
	.uleb128 Ltmp188-Ltmp187        
	.uleb128 Ltmp189-Lfunc_begin5   
	.byte	0                       
	.uleb128 Ltmp190-Lfunc_begin5   
	.uleb128 Ltmp191-Ltmp190        
	.uleb128 Ltmp199-Lfunc_begin5   
	.byte	0                       
	.uleb128 Ltmp192-Lfunc_begin5   
	.uleb128 Ltmp193-Ltmp192        
	.uleb128 Ltmp194-Lfunc_begin5   
	.byte	0                       
	.uleb128 Ltmp197-Lfunc_begin5   
	.uleb128 Ltmp198-Ltmp197        
	.uleb128 Ltmp199-Lfunc_begin5   
	.byte	0                       
	.uleb128 Ltmp200-Lfunc_begin5   
	.uleb128 Ltmp201-Ltmp200        
	.uleb128 Ltmp209-Lfunc_begin5   
	.byte	0                       
	.uleb128 Ltmp202-Lfunc_begin5   
	.uleb128 Ltmp203-Ltmp202        
	.uleb128 Ltmp204-Lfunc_begin5   
	.byte	0                       
	.uleb128 Ltmp207-Lfunc_begin5   
	.uleb128 Ltmp208-Ltmp207        
	.uleb128 Ltmp209-Lfunc_begin5   
	.byte	0                       
	.uleb128 Ltmp210-Lfunc_begin5   
	.uleb128 Ltmp211-Ltmp210        
	.uleb128 Ltmp212-Lfunc_begin5   
	.byte	0                       
	.uleb128 Ltmp213-Lfunc_begin5   
	.uleb128 Ltmp216-Ltmp213        
	.uleb128 Ltmp296-Lfunc_begin5   
	.byte	0                       
	.uleb128 Ltmp217-Lfunc_begin5   
	.uleb128 Ltmp218-Ltmp217        
	.uleb128 Ltmp219-Lfunc_begin5   
	.byte	0                       
	.uleb128 Ltmp223-Lfunc_begin5   
	.uleb128 Ltmp224-Ltmp223        
	.uleb128 Ltmp291-Lfunc_begin5   
	.byte	0                       
	.uleb128 Ltmp225-Lfunc_begin5   
	.uleb128 Ltmp226-Ltmp225        
	.uleb128 Ltmp227-Lfunc_begin5   
	.byte	0                       
	.uleb128 Ltmp228-Lfunc_begin5   
	.uleb128 Ltmp229-Ltmp228        
	.uleb128 Ltmp230-Lfunc_begin5   
	.byte	0                       
	.uleb128 Ltmp234-Lfunc_begin5   
	.uleb128 Ltmp237-Ltmp234        
	.uleb128 Ltmp238-Lfunc_begin5   
	.byte	0                       
	.uleb128 Ltmp242-Lfunc_begin5   
	.uleb128 Ltmp243-Ltmp242        
	.uleb128 Ltmp244-Lfunc_begin5   
	.byte	0                       
	.uleb128 Ltmp245-Lfunc_begin5   
	.uleb128 Ltmp248-Ltmp245        
	.uleb128 Ltmp286-Lfunc_begin5   
	.byte	0                       
	.uleb128 Ltmp249-Lfunc_begin5   
	.uleb128 Ltmp250-Ltmp249        
	.uleb128 Ltmp251-Lfunc_begin5   
	.byte	0                       
	.uleb128 Ltmp255-Lfunc_begin5   
	.uleb128 Ltmp256-Ltmp255        
	.uleb128 Ltmp281-Lfunc_begin5   
	.byte	0                       
	.uleb128 Ltmp257-Lfunc_begin5   
	.uleb128 Ltmp258-Ltmp257        
	.uleb128 Ltmp259-Lfunc_begin5   
	.byte	0                       
	.uleb128 Ltmp260-Lfunc_begin5   
	.uleb128 Ltmp261-Ltmp260        
	.uleb128 Ltmp262-Lfunc_begin5   
	.byte	0                       
	.uleb128 Ltmp266-Lfunc_begin5   
	.uleb128 Ltmp269-Ltmp266        
	.uleb128 Ltmp270-Lfunc_begin5   
	.byte	0                       
	.uleb128 Ltmp274-Lfunc_begin5   
	.uleb128 Ltmp275-Ltmp274        
	.uleb128 Ltmp276-Lfunc_begin5   
	.byte	0                       
	.uleb128 Ltmp279-Lfunc_begin5   
	.uleb128 Ltmp280-Ltmp279        
	.uleb128 Ltmp281-Lfunc_begin5   
	.byte	0                       
	.uleb128 Ltmp284-Lfunc_begin5   
	.uleb128 Ltmp285-Ltmp284        
	.uleb128 Ltmp286-Lfunc_begin5   
	.byte	0                       
	.uleb128 Ltmp289-Lfunc_begin5   
	.uleb128 Ltmp290-Ltmp289        
	.uleb128 Ltmp291-Lfunc_begin5   
	.byte	0                       
	.uleb128 Ltmp294-Lfunc_begin5   
	.uleb128 Ltmp295-Ltmp294        
	.uleb128 Ltmp296-Lfunc_begin5   
	.byte	0                       
	.uleb128 Ltmp299-Lfunc_begin5   
	.uleb128 Ltmp300-Ltmp299        
	.uleb128 Ltmp301-Lfunc_begin5   
	.byte	0                       
	.uleb128 Ltmp300-Lfunc_begin5   
	.uleb128 Ltmp314-Ltmp300        
	.byte	0                       
	.byte	0                       
	.uleb128 Ltmp314-Lfunc_begin5   
	.uleb128 Ltmp315-Ltmp314        
	.uleb128 Ltmp316-Lfunc_begin5   
	.byte	0                       
	.uleb128 Ltmp317-Lfunc_begin5   
	.uleb128 Ltmp318-Ltmp317        
	.uleb128 Ltmp319-Lfunc_begin5   
	.byte	0                       
	.uleb128 Ltmp320-Lfunc_begin5   
	.uleb128 Ltmp321-Ltmp320        
	.uleb128 Ltmp322-Lfunc_begin5   
	.byte	0                       
	.uleb128 Ltmp321-Lfunc_begin5   
	.uleb128 Ltmp305-Ltmp321        
	.byte	0                       
	.byte	0                       
	.uleb128 Ltmp305-Lfunc_begin5   
	.uleb128 Ltmp306-Ltmp305        
	.uleb128 Ltmp307-Lfunc_begin5   
	.byte	0                       
	.uleb128 Ltmp308-Lfunc_begin5   
	.uleb128 Ltmp309-Ltmp308        
	.uleb128 Ltmp310-Lfunc_begin5   
	.byte	0                       
	.uleb128 Ltmp311-Lfunc_begin5   
	.uleb128 Ltmp312-Ltmp311        
	.uleb128 Ltmp313-Lfunc_begin5   
	.byte	0                       
	.uleb128 Ltmp312-Lfunc_begin5   
	.uleb128 Ltmp85-Ltmp312         
	.byte	0                       
	.byte	0                       
	.uleb128 Ltmp85-Lfunc_begin5    
	.uleb128 Ltmp86-Ltmp85          
	.uleb128 Ltmp87-Lfunc_begin5    
	.byte	0                       
	.uleb128 Ltmp88-Lfunc_begin5    
	.uleb128 Ltmp89-Ltmp88          
	.uleb128 Ltmp212-Lfunc_begin5   
	.byte	0                       
	.uleb128 Ltmp89-Lfunc_begin5    
	.uleb128 Ltmp92-Ltmp89          
	.byte	0                       
	.byte	0                       
	.uleb128 Ltmp92-Lfunc_begin5    
	.uleb128 Ltmp93-Ltmp92          
	.uleb128 Ltmp94-Lfunc_begin5    
	.byte	0                       
	.uleb128 Ltmp95-Lfunc_begin5    
	.uleb128 Ltmp96-Ltmp95          
	.uleb128 Ltmp212-Lfunc_begin5   
	.byte	0                       
	.uleb128 Ltmp96-Lfunc_begin5    
	.uleb128 Ltmp277-Ltmp96         
	.byte	0                       
	.byte	0                       
	.uleb128 Ltmp277-Lfunc_begin5   
	.uleb128 Ltmp278-Ltmp277        
	.uleb128 Ltmp304-Lfunc_begin5   
	.byte	1                       
	.uleb128 Ltmp263-Lfunc_begin5   
	.uleb128 Ltmp264-Ltmp263        
	.uleb128 Ltmp265-Lfunc_begin5   
	.byte	1                       
	.uleb128 Ltmp252-Lfunc_begin5   
	.uleb128 Ltmp253-Ltmp252        
	.uleb128 Ltmp254-Lfunc_begin5   
	.byte	1                       
	.uleb128 Ltmp231-Lfunc_begin5   
	.uleb128 Ltmp232-Ltmp231        
	.uleb128 Ltmp233-Lfunc_begin5   
	.byte	1                       
	.uleb128 Ltmp220-Lfunc_begin5   
	.uleb128 Ltmp221-Ltmp220        
	.uleb128 Ltmp222-Lfunc_begin5   
	.byte	1                       
	.uleb128 Ltmp271-Lfunc_begin5   
	.uleb128 Ltmp272-Ltmp271        
	.uleb128 Ltmp273-Lfunc_begin5   
	.byte	1                       
	.uleb128 Ltmp282-Lfunc_begin5   
	.uleb128 Ltmp283-Ltmp282        
	.uleb128 Ltmp304-Lfunc_begin5   
	.byte	1                       
	.uleb128 Ltmp239-Lfunc_begin5   
	.uleb128 Ltmp240-Ltmp239        
	.uleb128 Ltmp241-Lfunc_begin5   
	.byte	1                       
	.uleb128 Ltmp205-Lfunc_begin5   
	.uleb128 Ltmp303-Ltmp205        
	.uleb128 Ltmp304-Lfunc_begin5   
	.byte	1                       
	.uleb128 Ltmp303-Lfunc_begin5   
	.uleb128 Lfunc_end5-Ltmp303     
	.byte	0                       
	.byte	0                       
Lcst_end5:
	.byte	1                       
                                        
	.byte	0                       
	.p2align	2
                                        
	.long	0                       
Lttbase3:
	.p2align	2
                                        
	.section	__TEXT,__text,regular,pure_instructions
	.globl	__ZN8CryptoPP15InvalidArgumentD1Ev 
	.weak_def_can_be_hidden	__ZN8CryptoPP15InvalidArgumentD1Ev
	.p2align	4, 0x90
__ZN8CryptoPP15InvalidArgumentD1Ev:     
	.cfi_startproc

	push	rbp
	.cfi_def_cfa_offset 16
	.cfi_offset rbp, -16
	mov	rbp, rsp
	.cfi_def_cfa_register rbp
	push	rbx
	push	rax
	.cfi_offset rbx, -24
	mov	rbx, rdi
	mov	rax, qword ptr [rip + __ZTVN8CryptoPP9ExceptionE@GOTPCREL]
	add	rax, 16
	mov	qword ptr [rdi], rax
	test	byte ptr [rdi + 16], 1
	je	LBB21_2

	mov	rdi, qword ptr [rbx + 32]
	call	__ZdlPv
LBB21_2:
	mov	rdi, rbx
	add	rsp, 8
	pop	rbx
	pop	rbp
	jmp	__ZNSt9exceptionD2Ev    
	.cfi_endproc
                                        
	.globl	__ZNK8CryptoPP14NameValuePairs19GetValueWithDefaultINS_7IntegerEEET_PKcS3_ 
	.weak_def_can_be_hidden	__ZNK8CryptoPP14NameValuePairs19GetValueWithDefaultINS_7IntegerEEET_PKcS3_
	.p2align	4, 0x90
__ZNK8CryptoPP14NameValuePairs19GetValueWithDefaultINS_7IntegerEEET_PKcS3_: 
Lfunc_begin6:
	.cfi_startproc
	.cfi_personality 155, ___gxx_personality_v0
	.cfi_lsda 16, Lexception6

	push	rbp
	.cfi_def_cfa_offset 16
	.cfi_offset rbp, -16
	mov	rbp, rsp
	.cfi_def_cfa_register rbp
	push	r15
	push	r14
	push	r13
	push	r12
	push	rbx
	sub	rsp, 56
	.cfi_offset rbx, -56
	.cfi_offset r12, -48
	.cfi_offset r13, -40
	.cfi_offset r14, -32
	.cfi_offset r15, -24
	mov	r14, rcx
	mov	r12, rdx
	mov	rbx, rsi
	mov	r15, rdi
	lea	r13, [rbp - 88]
	mov	rdi, r13
	call	__ZN8CryptoPP7IntegerC1Ev
	mov	rax, qword ptr [rbx]
Ltmp323:
	mov	rdx, qword ptr [rip + __ZTIN8CryptoPP7IntegerE@GOTPCREL]
	mov	rdi, rbx
	mov	rsi, r12
	mov	rcx, r13
	call	qword ptr [rax + 16]
Ltmp324:

	test	al, al
	je	LBB22_6

Ltmp327:
	lea	rsi, [rbp - 88]
	mov	rdi, r15
	call	__ZN8CryptoPP7IntegerC1ERKS0_
Ltmp328:
	jmp	LBB22_7
LBB22_6:
Ltmp325:
	mov	rdi, r15
	mov	rsi, r14
	call	__ZN8CryptoPP7IntegerC1ERKS0_
Ltmp326:
LBB22_7:
	mov	rax, qword ptr [rip + __ZTVN8CryptoPP7IntegerE@GOTPCREL]
	add	rax, 16
	mov	qword ptr [rbp - 88], rax
	mov	rdx, qword ptr [rbp - 56]
	test	rdx, rdx
	je	LBB22_9

	mov	rax, qword ptr [rbp - 72]
	mov	rcx, qword ptr [rbp - 64]
	cmp	rax, rcx
	cmovb	rcx, rax
	xor	eax, eax
	mov	rdi, rdx
	
	rep		stosq	qword ptr es:[rdi], rax
	
	mov	rdi, rdx
	call	__ZN8CryptoPP17AlignedDeallocateEPv
LBB22_9:
	mov	rax, r15
	add	rsp, 56
	pop	rbx
	pop	r12
	pop	r13
	pop	r14
	pop	r15
	pop	rbp
	ret
LBB22_3:
Ltmp329:
	mov	rbx, rax
	mov	rax, qword ptr [rip + __ZTVN8CryptoPP7IntegerE@GOTPCREL]
	add	rax, 16
	mov	qword ptr [rbp - 88], rax
	mov	rdx, qword ptr [rbp - 56]
	test	rdx, rdx
	je	LBB22_5

	mov	rax, qword ptr [rbp - 72]
	mov	rcx, qword ptr [rbp - 64]
	cmp	rax, rcx
	cmovb	rcx, rax
	xor	eax, eax
	mov	rdi, rdx
	
	rep		stosq	qword ptr es:[rdi], rax
	
Ltmp330:
	mov	rdi, rdx
	call	__ZN8CryptoPP17AlignedDeallocateEPv
Ltmp331:
LBB22_5:
	mov	rdi, rbx
	call	__Unwind_Resume
	ud2
LBB22_10:
Ltmp332:
	mov	rdi, rax
	call	___clang_call_terminate
Lfunc_end6:
	.cfi_endproc
	.section	__TEXT,__gcc_except_tab
	.p2align	2
GCC_except_table22:
Lexception6:
	.byte	255                     
	.byte	155                     
	.uleb128 Lttbase4-Lttbaseref4
Lttbaseref4:
	.byte	1                       
	.uleb128 Lcst_end6-Lcst_begin6
Lcst_begin6:
	.uleb128 Lfunc_begin6-Lfunc_begin6 
	.uleb128 Ltmp323-Lfunc_begin6   
	.byte	0                       
	.byte	0                       
	.uleb128 Ltmp323-Lfunc_begin6   
	.uleb128 Ltmp326-Ltmp323        
	.uleb128 Ltmp329-Lfunc_begin6   
	.byte	0                       
	.uleb128 Ltmp326-Lfunc_begin6   
	.uleb128 Ltmp330-Ltmp326        
	.byte	0                       
	.byte	0                       
	.uleb128 Ltmp330-Lfunc_begin6   
	.uleb128 Ltmp331-Ltmp330        
	.uleb128 Ltmp332-Lfunc_begin6   
	.byte	1                       
	.uleb128 Ltmp331-Lfunc_begin6   
	.uleb128 Lfunc_end6-Ltmp331     
	.byte	0                       
	.byte	0                       
Lcst_end6:
	.byte	1                       
                                        
	.byte	0                       
	.p2align	2
                                        
	.long	0                       
Lttbase4:
	.p2align	2
                                        
	.section	__TEXT,__text,regular,pure_instructions
	.globl	__ZN8CryptoPP3LCMERKNS_7IntegerES2_ 
	.weak_def_can_be_hidden	__ZN8CryptoPP3LCMERKNS_7IntegerES2_
	.p2align	4, 0x90
__ZN8CryptoPP3LCMERKNS_7IntegerES2_:    
Lfunc_begin7:
	.cfi_startproc
	.cfi_personality 155, ___gxx_personality_v0
	.cfi_lsda 16, Lexception7

	push	rbp
	.cfi_def_cfa_offset 16
	.cfi_offset rbp, -16
	mov	rbp, rsp
	.cfi_def_cfa_register rbp
	push	r15
	push	r14
	push	r12
	push	rbx
	sub	rsp, 96
	.cfi_offset rbx, -48
	.cfi_offset r12, -40
	.cfi_offset r14, -32
	.cfi_offset r15, -24
	mov	r15, rdx
	mov	rbx, rsi
	mov	r14, rdi
	lea	r12, [rbp - 128]
	mov	rdi, r12
	call	__ZN8CryptoPP7Integer3GcdERKS0_S2_
Ltmp333:
	lea	rdi, [rbp - 80]
	mov	rsi, rbx
	mov	rdx, r12
	call	__ZNK8CryptoPP7Integer9DividedByERKS0_
Ltmp334:

Ltmp335:
	lea	rsi, [rbp - 80]
	mov	rdi, r14
	mov	rdx, r15
	call	__ZNK8CryptoPP7Integer5TimesERKS0_
Ltmp336:

	mov	rbx, qword ptr [rip + __ZTVN8CryptoPP7IntegerE@GOTPCREL]
	add	rbx, 16
	mov	qword ptr [rbp - 80], rbx
	mov	rdx, qword ptr [rbp - 48]
	test	rdx, rdx
	je	LBB23_4

	mov	rax, qword ptr [rbp - 64]
	mov	rcx, qword ptr [rbp - 56]
	cmp	rax, rcx
	cmovb	rcx, rax
	xor	eax, eax
	mov	rdi, rdx
	
	rep		stosq	qword ptr es:[rdi], rax
	
Ltmp340:
	mov	rdi, rdx
	call	__ZN8CryptoPP17AlignedDeallocateEPv
Ltmp341:
LBB23_4:
	mov	qword ptr [rbp - 128], rbx
	mov	rdx, qword ptr [rbp - 96]
	test	rdx, rdx
	je	LBB23_6

	mov	rax, qword ptr [rbp - 112]
	mov	rcx, qword ptr [rbp - 104]
	cmp	rax, rcx
	cmovb	rcx, rax
	xor	eax, eax
	mov	rdi, rdx
	
	rep		stosq	qword ptr es:[rdi], rax
	
	mov	rdi, rdx
	call	__ZN8CryptoPP17AlignedDeallocateEPv
LBB23_6:
	mov	rax, r14
	add	rsp, 96
	pop	rbx
	pop	r12
	pop	r14
	pop	r15
	pop	rbp
	ret
LBB23_8:
Ltmp337:
	mov	rbx, rax
	mov	rax, qword ptr [rip + __ZTVN8CryptoPP7IntegerE@GOTPCREL]
	add	rax, 16
	mov	qword ptr [rbp - 80], rax
	mov	rdx, qword ptr [rbp - 48]
	test	rdx, rdx
	je	LBB23_10

	mov	rax, qword ptr [rbp - 64]
	mov	rcx, qword ptr [rbp - 56]
	cmp	rax, rcx
	cmovb	rcx, rax
	xor	eax, eax
	mov	rdi, rdx
	
	rep		stosq	qword ptr es:[rdi], rax
	
Ltmp338:
	mov	rdi, rdx
	call	__ZN8CryptoPP17AlignedDeallocateEPv
Ltmp339:
	jmp	LBB23_10
LBB23_7:
Ltmp342:
	mov	rbx, rax
LBB23_10:
	mov	rax, qword ptr [rip + __ZTVN8CryptoPP7IntegerE@GOTPCREL]
	add	rax, 16
	mov	qword ptr [rbp - 128], rax
	mov	rdx, qword ptr [rbp - 96]
	test	rdx, rdx
	je	LBB23_12

	mov	rax, qword ptr [rbp - 112]
	mov	rcx, qword ptr [rbp - 104]
	cmp	rax, rcx
	cmovb	rcx, rax
	xor	eax, eax
	mov	rdi, rdx
	
	rep		stosq	qword ptr es:[rdi], rax
	
Ltmp343:
	mov	rdi, rdx
	call	__ZN8CryptoPP17AlignedDeallocateEPv
Ltmp344:
LBB23_12:
	mov	rdi, rbx
	call	__Unwind_Resume
	ud2
LBB23_13:
Ltmp345:
	mov	rdi, rax
	call	___clang_call_terminate
Lfunc_end7:
	.cfi_endproc
	.section	__TEXT,__gcc_except_tab
	.p2align	2
GCC_except_table23:
Lexception7:
	.byte	255                     
	.byte	155                     
	.uleb128 Lttbase5-Lttbaseref5
Lttbaseref5:
	.byte	1                       
	.uleb128 Lcst_end7-Lcst_begin7
Lcst_begin7:
	.uleb128 Lfunc_begin7-Lfunc_begin7 
	.uleb128 Ltmp333-Lfunc_begin7   
	.byte	0                       
	.byte	0                       
	.uleb128 Ltmp333-Lfunc_begin7   
	.uleb128 Ltmp334-Ltmp333        
	.uleb128 Ltmp342-Lfunc_begin7   
	.byte	0                       
	.uleb128 Ltmp335-Lfunc_begin7   
	.uleb128 Ltmp336-Ltmp335        
	.uleb128 Ltmp337-Lfunc_begin7   
	.byte	0                       
	.uleb128 Ltmp340-Lfunc_begin7   
	.uleb128 Ltmp341-Ltmp340        
	.uleb128 Ltmp342-Lfunc_begin7   
	.byte	0                       
	.uleb128 Ltmp341-Lfunc_begin7   
	.uleb128 Ltmp338-Ltmp341        
	.byte	0                       
	.byte	0                       
	.uleb128 Ltmp338-Lfunc_begin7   
	.uleb128 Ltmp344-Ltmp338        
	.uleb128 Ltmp345-Lfunc_begin7   
	.byte	1                       
	.uleb128 Ltmp344-Lfunc_begin7   
	.uleb128 Lfunc_end7-Ltmp344     
	.byte	0                       
	.byte	0                       
Lcst_end7:
	.byte	1                       
                                        
	.byte	0                       
	.p2align	2
                                        
	.long	0                       
Lttbase5:
	.p2align	2
                                        
	.section	__TEXT,__text,regular,pure_instructions
	.globl	__ZN8CryptoPP16PK_FinalTemplateINS_16TF_EncryptorImplINS_22TF_CryptoSchemeOptionsINS_5TF_ESINS_3RSAENS_4OAEPINS_4SHA1ENS_10P1363_MGF1EEEiEES4_S8_EEEEED1Ev 
	.weak_def_can_be_hidden	__ZN8CryptoPP16PK_FinalTemplateINS_16TF_EncryptorImplINS_22TF_CryptoSchemeOptionsINS_5TF_ESINS_3RSAENS_4OAEPINS_4SHA1ENS_10P1363_MGF1EEEiEES4_S8_EEEEED1Ev
	.p2align	4, 0x90
__ZN8CryptoPP16PK_FinalTemplateINS_16TF_EncryptorImplINS_22TF_CryptoSchemeOptionsINS_5TF_ESINS_3RSAENS_4OAEPINS_4SHA1ENS_10P1363_MGF1EEEiEES4_S8_EEEEED1Ev: 
	.cfi_startproc

	push	rbp
	.cfi_def_cfa_offset 16
	.cfi_offset rbp, -16
	mov	rbp, rsp
	.cfi_def_cfa_register rbp
	mov	rax, qword ptr [rip + __ZTVN8CryptoPP13TF_ObjectImplINS_16TF_EncryptorBaseENS_22TF_CryptoSchemeOptionsINS_5TF_ESINS_3RSAENS_4OAEPINS_4SHA1ENS_10P1363_MGF1EEEiEES4_S8_EENS_11RSAFunctionEEE@GOTPCREL]
	lea	rcx, [rax + 16]
	mov	qword ptr [rdi], rcx
	lea	rcx, [rax + 168]
	mov	qword ptr [rdi + 8], rcx
	add	rax, 256
	mov	qword ptr [rdi + 16], rax
	add	rdi, 24
	lea	rsi, [rip + __ZTTN8CryptoPP11RSAFunctionE]
	pop	rbp
	jmp	__ZN8CryptoPP11RSAFunctionD2Ev 
	.cfi_endproc
                                        
	.globl	__ZN8CryptoPP16PK_FinalTemplateINS_16TF_DecryptorImplINS_22TF_CryptoSchemeOptionsINS_5TF_ESINS_3RSAENS_4OAEPINS_4SHA1ENS_10P1363_MGF1EEEiEES4_S8_EEEEED1Ev 
	.weak_def_can_be_hidden	__ZN8CryptoPP16PK_FinalTemplateINS_16TF_DecryptorImplINS_22TF_CryptoSchemeOptionsINS_5TF_ESINS_3RSAENS_4OAEPINS_4SHA1ENS_10P1363_MGF1EEEiEES4_S8_EEEEED1Ev
	.p2align	4, 0x90
__ZN8CryptoPP16PK_FinalTemplateINS_16TF_DecryptorImplINS_22TF_CryptoSchemeOptionsINS_5TF_ESINS_3RSAENS_4OAEPINS_4SHA1ENS_10P1363_MGF1EEEiEES4_S8_EEEEED1Ev: 
	.cfi_startproc

	push	rbp
	.cfi_def_cfa_offset 16
	.cfi_offset rbp, -16
	mov	rbp, rsp
	.cfi_def_cfa_register rbp
	mov	rax, qword ptr [rip + __ZTVN8CryptoPP13TF_ObjectImplINS_16TF_DecryptorBaseENS_22TF_CryptoSchemeOptionsINS_5TF_ESINS_3RSAENS_4OAEPINS_4SHA1ENS_10P1363_MGF1EEEiEES4_S8_EENS_21InvertibleRSAFunctionEEE@GOTPCREL]
	lea	rcx, [rax + 16]
	mov	qword ptr [rdi], rcx
	lea	rcx, [rax + 168]
	mov	qword ptr [rdi + 8], rcx
	add	rax, 256
	mov	qword ptr [rdi + 16], rax
	add	rdi, 24
	lea	rsi, [rip + __ZTTN8CryptoPP21InvertibleRSAFunctionE]
	pop	rbp
	jmp	__ZN8CryptoPP21InvertibleRSAFunctionD2Ev 
	.cfi_endproc
                                        
	.globl	__ZN8CryptoPP16PK_FinalTemplateINS_15TF_VerifierImplINS_25TF_SignatureSchemeOptionsINS_5TF_SSINS_3RSAENS_8PKCS1v15ENS_4SHA1EiEES4_NS_39PKCS1v15_SignatureMessageEncodingMethodES6_EEEEED1Ev 
	.weak_def_can_be_hidden	__ZN8CryptoPP16PK_FinalTemplateINS_15TF_VerifierImplINS_25TF_SignatureSchemeOptionsINS_5TF_SSINS_3RSAENS_8PKCS1v15ENS_4SHA1EiEES4_NS_39PKCS1v15_SignatureMessageEncodingMethodES6_EEEEED1Ev
	.p2align	4, 0x90
__ZN8CryptoPP16PK_FinalTemplateINS_15TF_VerifierImplINS_25TF_SignatureSchemeOptionsINS_5TF_SSINS_3RSAENS_8PKCS1v15ENS_4SHA1EiEES4_NS_39PKCS1v15_SignatureMessageEncodingMethodES6_EEEEED1Ev: 
	.cfi_startproc

	push	rbp
	.cfi_def_cfa_offset 16
	.cfi_offset rbp, -16
	mov	rbp, rsp
	.cfi_def_cfa_register rbp
	mov	rax, qword ptr [rip + __ZTVN8CryptoPP13TF_ObjectImplINS_15TF_VerifierBaseENS_25TF_SignatureSchemeOptionsINS_5TF_SSINS_3RSAENS_8PKCS1v15ENS_4SHA1EiEES4_NS_39PKCS1v15_SignatureMessageEncodingMethodES6_EENS_11RSAFunctionEEE@GOTPCREL]
	lea	rcx, [rax + 16]
	mov	qword ptr [rdi], rcx
	lea	rcx, [rax + 256]
	mov	qword ptr [rdi + 8], rcx
	add	rax, 344
	mov	qword ptr [rdi + 16], rax
	add	rdi, 24
	lea	rsi, [rip + __ZTTN8CryptoPP11RSAFunctionE]
	pop	rbp
	jmp	__ZN8CryptoPP11RSAFunctionD2Ev 
	.cfi_endproc
                                        
	.globl	__ZN8CryptoPP16PK_FinalTemplateINS_13TF_SignerImplINS_25TF_SignatureSchemeOptionsINS_5TF_SSINS_3RSAENS_8PKCS1v15ENS_4SHA1EiEES4_NS_39PKCS1v15_SignatureMessageEncodingMethodES6_EEEEED1Ev 
	.weak_def_can_be_hidden	__ZN8CryptoPP16PK_FinalTemplateINS_13TF_SignerImplINS_25TF_SignatureSchemeOptionsINS_5TF_SSINS_3RSAENS_8PKCS1v15ENS_4SHA1EiEES4_NS_39PKCS1v15_SignatureMessageEncodingMethodES6_EEEEED1Ev
	.p2align	4, 0x90
__ZN8CryptoPP16PK_FinalTemplateINS_13TF_SignerImplINS_25TF_SignatureSchemeOptionsINS_5TF_SSINS_3RSAENS_8PKCS1v15ENS_4SHA1EiEES4_NS_39PKCS1v15_SignatureMessageEncodingMethodES6_EEEEED1Ev: 
	.cfi_startproc

	push	rbp
	.cfi_def_cfa_offset 16
	.cfi_offset rbp, -16
	mov	rbp, rsp
	.cfi_def_cfa_register rbp
	mov	rax, qword ptr [rip + __ZTVN8CryptoPP13TF_ObjectImplINS_13TF_SignerBaseENS_25TF_SignatureSchemeOptionsINS_5TF_SSINS_3RSAENS_8PKCS1v15ENS_4SHA1EiEES4_NS_39PKCS1v15_SignatureMessageEncodingMethodES6_EENS_21InvertibleRSAFunctionEEE@GOTPCREL]
	lea	rcx, [rax + 16]
	mov	qword ptr [rdi], rcx
	lea	rcx, [rax + 240]
	mov	qword ptr [rdi + 8], rcx
	add	rax, 328
	mov	qword ptr [rdi + 16], rax
	add	rdi, 24
	lea	rsi, [rip + __ZTTN8CryptoPP21InvertibleRSAFunctionE]
	pop	rbp
	jmp	__ZN8CryptoPP21InvertibleRSAFunctionD2Ev 
	.cfi_endproc
                                        
	.globl	__ZN8CryptoPP16RSAPrimeSelectorD1Ev 
	.weak_def_can_be_hidden	__ZN8CryptoPP16RSAPrimeSelectorD1Ev
	.p2align	4, 0x90
__ZN8CryptoPP16RSAPrimeSelectorD1Ev:    
	.cfi_startproc

	push	rbp
	.cfi_def_cfa_offset 16
	.cfi_offset rbp, -16
	mov	rbp, rsp
	.cfi_def_cfa_register rbp
	mov	rax, qword ptr [rip + __ZTVN8CryptoPP16RSAPrimeSelectorE@GOTPCREL]
	add	rax, 16
	mov	qword ptr [rdi], rax
	mov	rax, qword ptr [rip + __ZTVN8CryptoPP7IntegerE@GOTPCREL]
	add	rax, 16
	mov	qword ptr [rdi + 8], rax
	mov	rdx, qword ptr [rdi + 40]
	test	rdx, rdx
	je	LBB28_1

	mov	rax, qword ptr [rdi + 24]
	mov	rcx, qword ptr [rdi + 32]
	cmp	rax, rcx
	cmovb	rcx, rax
	xor	eax, eax
	mov	rdi, rdx
	
	rep		stosq	qword ptr es:[rdi], rax
	
	mov	rdi, rdx
	pop	rbp
	jmp	__ZN8CryptoPP17AlignedDeallocateEPv 
LBB28_1:
	pop	rbp
	ret
	.cfi_endproc
                                        
	.globl	__ZThn136_N8CryptoPP21InvertibleRSAFunction14GenerateRandomERNS_21RandomNumberGeneratorERKNS_14NameValuePairsE 
	.p2align	4, 0x90
__ZThn136_N8CryptoPP21InvertibleRSAFunction14GenerateRandomERNS_21RandomNumberGeneratorERKNS_14NameValuePairsE: 
	.cfi_startproc

	push	rbp
	.cfi_def_cfa_offset 16
	.cfi_offset rbp, -16
	mov	rbp, rsp
	.cfi_def_cfa_register rbp
	add	rdi, -136
	pop	rbp
	jmp	__ZN8CryptoPP21InvertibleRSAFunction14GenerateRandomERNS_21RandomNumberGeneratorERKNS_14NameValuePairsE 
	.cfi_endproc
                                        
	.globl	__ZN8CryptoPP21InvertibleRSAFunction10InitializeERNS_21RandomNumberGeneratorEjRKNS_7IntegerE 
	.p2align	4, 0x90
__ZN8CryptoPP21InvertibleRSAFunction10InitializeERNS_21RandomNumberGeneratorEjRKNS_7IntegerE: 
Lfunc_begin8:
	.cfi_startproc
	.cfi_personality 155, ___gxx_personality_v0
	.cfi_lsda 16, Lexception8

	push	rbp
	.cfi_def_cfa_offset 16
	.cfi_offset rbp, -16
	mov	rbp, rsp
	.cfi_def_cfa_register rbp
	push	r15
	push	r14
	push	rbx
	sub	rsp, 136
	.cfi_offset rbx, -40
	.cfi_offset r14, -32
	.cfi_offset r15, -24
	mov	rbx, rcx
	mov	r14, rsi
	mov	r15, rdi
	mov	dword ptr [rbp - 28], edx
	lea	rsi, [rip + L_.str.12]
	lea	rdi, [rbp - 56]
	lea	rdx, [rbp - 28]
	mov	ecx, 1
	call	__ZN8CryptoPP14MakeParametersIiEENS_19AlgorithmParametersEPKcRKT_b
Ltmp346:
	mov	rdi, rbx
	xor	esi, esi
	call	__ZNK8CryptoPP7Integer6GetBitEm
Ltmp347:

	xor	al, 1
	movzx	esi, al
Ltmp348:
	lea	rdi, [rbp - 104]
	call	__ZN8CryptoPP7IntegerC1El
Ltmp349:

Ltmp350:
	lea	rdi, [rbp - 152]
	lea	rdx, [rbp - 104]
	mov	rsi, rbx
	call	__ZNK8CryptoPP7Integer4PlusERKS0_
Ltmp351:

	movzx	ecx, byte ptr [rbp - 40]
Ltmp352:
	lea	rsi, [rip + L_.str.11]
	lea	rdi, [rbp - 56]
	lea	rdx, [rbp - 152]
	call	__ZN8CryptoPP19AlgorithmParametersclINS_7IntegerEEERS0_PKcRKT_b
Ltmp353:

	mov	rcx, qword ptr [r15]
Ltmp354:
	mov	rdi, r15
	mov	rsi, r14
	mov	rdx, rax
	call	qword ptr [rcx + 176]
Ltmp355:

	mov	rbx, qword ptr [rip + __ZTVN8CryptoPP7IntegerE@GOTPCREL]
	add	rbx, 16
	mov	qword ptr [rbp - 152], rbx
	mov	rdx, qword ptr [rbp - 120]
	test	rdx, rdx
	je	LBB30_7

	mov	rax, qword ptr [rbp - 136]
	mov	rcx, qword ptr [rbp - 128]
	cmp	rax, rcx
	cmovb	rcx, rax
	xor	eax, eax
	mov	rdi, rdx
	
	rep		stosq	qword ptr es:[rdi], rax
	
Ltmp359:
	mov	rdi, rdx
	call	__ZN8CryptoPP17AlignedDeallocateEPv
Ltmp360:
LBB30_7:
	mov	qword ptr [rbp - 104], rbx
	mov	rdx, qword ptr [rbp - 72]
	test	rdx, rdx
	je	LBB30_9

	mov	rax, qword ptr [rbp - 88]
	mov	rcx, qword ptr [rbp - 80]
	cmp	rax, rcx
	cmovb	rcx, rax
	xor	eax, eax
	mov	rdi, rdx
	
	rep		stosq	qword ptr es:[rdi], rax
	
Ltmp364:
	mov	rdi, rdx
	call	__ZN8CryptoPP17AlignedDeallocateEPv
Ltmp365:
LBB30_9:
	mov	rax, qword ptr [rip + __ZTVN8CryptoPP19AlgorithmParametersE@GOTPCREL]
	add	rax, 16
	mov	qword ptr [rbp - 56], rax
	mov	rdi, qword ptr [rbp - 48]
	test	rdi, rdi
	je	LBB30_11

	mov	rax, qword ptr [rdi]
	call	qword ptr [rax + 8]
LBB30_11:
	add	rsp, 136
	pop	rbx
	pop	r14
	pop	r15
	pop	rbp
	ret
LBB30_13:
Ltmp361:
	mov	rbx, rax
	jmp	LBB30_16
LBB30_14:
Ltmp356:
	mov	rbx, rax
	mov	rax, qword ptr [rip + __ZTVN8CryptoPP7IntegerE@GOTPCREL]
	add	rax, 16
	mov	qword ptr [rbp - 152], rax
	mov	rdx, qword ptr [rbp - 120]
	test	rdx, rdx
	je	LBB30_16

	mov	rax, qword ptr [rbp - 136]
	mov	rcx, qword ptr [rbp - 128]
	cmp	rax, rcx
	cmovb	rcx, rax
	xor	eax, eax
	mov	rdi, rdx
	
	rep		stosq	qword ptr es:[rdi], rax
	
Ltmp357:
	mov	rdi, rdx
	call	__ZN8CryptoPP17AlignedDeallocateEPv
Ltmp358:
LBB30_16:
	mov	rax, qword ptr [rip + __ZTVN8CryptoPP7IntegerE@GOTPCREL]
	add	rax, 16
	mov	qword ptr [rbp - 104], rax
	mov	rdx, qword ptr [rbp - 72]
	test	rdx, rdx
	je	LBB30_18

	mov	rax, qword ptr [rbp - 88]
	mov	rcx, qword ptr [rbp - 80]
	cmp	rax, rcx
	cmovb	rcx, rax
	xor	eax, eax
	mov	rdi, rdx
	
	rep		stosq	qword ptr es:[rdi], rax
	
Ltmp362:
	mov	rdi, rdx
	call	__ZN8CryptoPP17AlignedDeallocateEPv
Ltmp363:
	jmp	LBB30_18
LBB30_12:
Ltmp366:
	mov	rbx, rax
LBB30_18:
	mov	rax, qword ptr [rip + __ZTVN8CryptoPP19AlgorithmParametersE@GOTPCREL]
	add	rax, 16
	mov	qword ptr [rbp - 56], rax
	mov	rdi, qword ptr [rbp - 48]
	test	rdi, rdi
	je	LBB30_20

	mov	rax, qword ptr [rdi]
Ltmp367:
	call	qword ptr [rax + 8]
Ltmp368:
LBB30_20:
	mov	rdi, rbx
	call	__Unwind_Resume
	ud2
LBB30_21:
Ltmp369:
	mov	rdi, rax
	call	___clang_call_terminate
Lfunc_end8:
	.cfi_endproc
	.section	__TEXT,__gcc_except_tab
	.p2align	2
GCC_except_table30:
Lexception8:
	.byte	255                     
	.byte	155                     
	.uleb128 Lttbase6-Lttbaseref6
Lttbaseref6:
	.byte	1                       
	.uleb128 Lcst_end8-Lcst_begin8
Lcst_begin8:
	.uleb128 Lfunc_begin8-Lfunc_begin8 
	.uleb128 Ltmp346-Lfunc_begin8   
	.byte	0                       
	.byte	0                       
	.uleb128 Ltmp346-Lfunc_begin8   
	.uleb128 Ltmp349-Ltmp346        
	.uleb128 Ltmp366-Lfunc_begin8   
	.byte	0                       
	.uleb128 Ltmp350-Lfunc_begin8   
	.uleb128 Ltmp351-Ltmp350        
	.uleb128 Ltmp361-Lfunc_begin8   
	.byte	0                       
	.uleb128 Ltmp352-Lfunc_begin8   
	.uleb128 Ltmp355-Ltmp352        
	.uleb128 Ltmp356-Lfunc_begin8   
	.byte	0                       
	.uleb128 Ltmp359-Lfunc_begin8   
	.uleb128 Ltmp360-Ltmp359        
	.uleb128 Ltmp361-Lfunc_begin8   
	.byte	0                       
	.uleb128 Ltmp364-Lfunc_begin8   
	.uleb128 Ltmp365-Ltmp364        
	.uleb128 Ltmp366-Lfunc_begin8   
	.byte	0                       
	.uleb128 Ltmp365-Lfunc_begin8   
	.uleb128 Ltmp357-Ltmp365        
	.byte	0                       
	.byte	0                       
	.uleb128 Ltmp357-Lfunc_begin8   
	.uleb128 Ltmp368-Ltmp357        
	.uleb128 Ltmp369-Lfunc_begin8   
	.byte	1                       
	.uleb128 Ltmp368-Lfunc_begin8   
	.uleb128 Lfunc_end8-Ltmp368     
	.byte	0                       
	.byte	0                       
Lcst_end8:
	.byte	1                       
                                        
	.byte	0                       
	.p2align	2
                                        
	.long	0                       
Lttbase6:
	.p2align	2
                                        
	.section	__TEXT,__text,regular,pure_instructions
	.globl	__ZN8CryptoPP14MakeParametersIiEENS_19AlgorithmParametersEPKcRKT_b 
	.weak_def_can_be_hidden	__ZN8CryptoPP14MakeParametersIiEENS_19AlgorithmParametersEPKcRKT_b
	.p2align	4, 0x90
__ZN8CryptoPP14MakeParametersIiEENS_19AlgorithmParametersEPKcRKT_b: 
Lfunc_begin9:
	.cfi_startproc
	.cfi_personality 155, ___gxx_personality_v0
	.cfi_lsda 16, Lexception9

	push	rbp
	.cfi_def_cfa_offset 16
	.cfi_offset rbp, -16
	mov	rbp, rsp
	.cfi_def_cfa_register rbp
	push	r15
	push	r14
	push	r12
	push	rbx
	sub	rsp, 32
	.cfi_offset rbx, -48
	.cfi_offset r12, -40
	.cfi_offset r14, -32
	.cfi_offset r15, -24
	mov	ebx, ecx
	mov	r15, rdx
	mov	r12, rsi
	mov	r14, rdi
	lea	rdi, [rbp - 56]
	call	__ZN8CryptoPP19AlgorithmParametersC1Ev
Ltmp370:
	mov	edi, 40
	call	__Znwm
Ltmp371:

	mov	qword ptr [rax + 8], r12
	mov	byte ptr [rax + 16], bl
	mov	byte ptr [rax + 17], 0
	mov	rcx, qword ptr [rip + __ZTVN8CryptoPP27AlgorithmParametersTemplateIiEE@GOTPCREL]
	add	rcx, 16
	mov	qword ptr [rax], rcx
	mov	ecx, dword ptr [r15]
	mov	dword ptr [rax + 32], ecx
	mov	rcx, qword ptr [rbp - 48]
	mov	qword ptr [rax + 24], rcx
	mov	qword ptr [rbp - 48], rax
	mov	byte ptr [rbp - 40], bl
Ltmp372:
	lea	rsi, [rbp - 56]
	mov	rdi, r14
	call	__ZN8CryptoPP19AlgorithmParametersC1ERKS0_
Ltmp373:

	mov	rax, qword ptr [rip + __ZTVN8CryptoPP19AlgorithmParametersE@GOTPCREL]
	add	rax, 16
	mov	qword ptr [rbp - 56], rax
	mov	rdi, qword ptr [rbp - 48]
	test	rdi, rdi
	je	LBB31_4

	mov	rax, qword ptr [rdi]
	call	qword ptr [rax + 8]
LBB31_4:
	mov	rax, r14
	add	rsp, 32
	pop	rbx
	pop	r12
	pop	r14
	pop	r15
	pop	rbp
	ret
LBB31_5:
Ltmp374:
	mov	rbx, rax
	mov	rax, qword ptr [rip + __ZTVN8CryptoPP19AlgorithmParametersE@GOTPCREL]
	add	rax, 16
	mov	qword ptr [rbp - 56], rax
	mov	rdi, qword ptr [rbp - 48]
	test	rdi, rdi
	je	LBB31_7

	mov	rax, qword ptr [rdi]
Ltmp375:
	call	qword ptr [rax + 8]
Ltmp376:
LBB31_7:
	mov	rdi, rbx
	call	__Unwind_Resume
	ud2
LBB31_8:
Ltmp377:
	mov	rdi, rax
	call	___clang_call_terminate
Lfunc_end9:
	.cfi_endproc
	.section	__TEXT,__gcc_except_tab
	.p2align	2
GCC_except_table31:
Lexception9:
	.byte	255                     
	.byte	155                     
	.uleb128 Lttbase7-Lttbaseref7
Lttbaseref7:
	.byte	1                       
	.uleb128 Lcst_end9-Lcst_begin9
Lcst_begin9:
	.uleb128 Lfunc_begin9-Lfunc_begin9 
	.uleb128 Ltmp370-Lfunc_begin9   
	.byte	0                       
	.byte	0                       
	.uleb128 Ltmp370-Lfunc_begin9   
	.uleb128 Ltmp373-Ltmp370        
	.uleb128 Ltmp374-Lfunc_begin9   
	.byte	0                       
	.uleb128 Ltmp373-Lfunc_begin9   
	.uleb128 Ltmp375-Ltmp373        
	.byte	0                       
	.byte	0                       
	.uleb128 Ltmp375-Lfunc_begin9   
	.uleb128 Ltmp376-Ltmp375        
	.uleb128 Ltmp377-Lfunc_begin9   
	.byte	1                       
	.uleb128 Ltmp376-Lfunc_begin9   
	.uleb128 Lfunc_end9-Ltmp376     
	.byte	0                       
	.byte	0                       
Lcst_end9:
	.byte	1                       
                                        
	.byte	0                       
	.p2align	2
                                        
	.long	0                       
Lttbase7:
	.p2align	2
                                        
	.section	__TEXT,__literal16,16byte_literals
	.p2align	4               
LCPI32_0:
	.quad	65                      
	.quad	59                      
	.section	__TEXT,__text,regular,pure_instructions
	.globl	__ZN8CryptoPP21InvertibleRSAFunction10InitializeERKNS_7IntegerES3_S3_
	.p2align	4, 0x90
__ZN8CryptoPP21InvertibleRSAFunction10InitializeERKNS_7IntegerES3_S3_: 
Lfunc_begin10:
	.cfi_startproc
	.cfi_personality 155, ___gxx_personality_v0
	.cfi_lsda 16, Lexception10

	push	rbp
	.cfi_def_cfa_offset 16
	.cfi_offset rbp, -16
	mov	rbp, rsp
	.cfi_def_cfa_register rbp
	push	r15
	push	r14
	push	r13
	push	r12
	push	rbx
	sub	rsp, 584
	.cfi_offset rbx, -56
	.cfi_offset r12, -48
	.cfi_offset r13, -40
	.cfi_offset r14, -32
	.cfi_offset r15, -24
	mov	r12, rcx
	mov	r15, rdx
	mov	r14, rdi
	mov	qword ptr [rbp - 152], rsi 
	mov	rdi, rsi
	xor	esi, esi
	call	__ZNK8CryptoPP7Integer6GetBitEm
	test	al, al
	je	LBB32_3

	mov	rdi, r15
	xor	esi, esi
	call	__ZNK8CryptoPP7Integer6GetBitEm
	mov	ebx, eax
	mov	rdi, r12
	xor	esi, esi
	call	__ZNK8CryptoPP7Integer6GetBitEm
	test	bl, bl
	je	LBB32_3

	test	al, al
	je	LBB32_3

	lea	rdi, [r14 + 24]
	mov	rsi, qword ptr [rbp - 152] 
	call	__ZN8CryptoPP7IntegeraSERKS0_
	lea	rdi, [r14 + 72]
	mov	rsi, r15
	call	__ZN8CryptoPP7IntegeraSERKS0_
	lea	rdi, [r14 + 224]
	mov	qword ptr [rbp - 224], rdi 
	mov	rsi, r12
	call	__ZN8CryptoPP7IntegeraSERKS0_
	lea	rbx, [rbp - 624]
	mov	rdi, rbx
	mov	rsi, r12
	mov	rdx, r15
	call	__ZNK8CryptoPP7Integer5TimesERKS0_
Ltmp387:
	mov	rdi, rbx
	call	__ZN8CryptoPP7IntegermmEv
Ltmp388:

Ltmp389:
	lea	rdi, [rbp - 400]
	mov	rsi, rax
	call	__ZN8CryptoPP7IntegerC1ERKS0_
Ltmp390:

	mov	rax, qword ptr [rip + __ZTVN8CryptoPP7IntegerE@GOTPCREL]
	add	rax, 16
	mov	qword ptr [rbp - 48], rax 
	mov	qword ptr [rbp - 624], rax
	mov	rdx, qword ptr [rbp - 592]
	test	rdx, rdx
	je	LBB32_17

	mov	rax, qword ptr [rbp - 608]
	mov	rcx, qword ptr [rbp - 600]
	cmp	rax, rcx
	cmovb	rcx, rax
	xor	eax, eax
	mov	rdi, rdx
	
	rep		stosq	qword ptr es:[rdi], rax
	
	mov	rdi, rdx
	call	__ZN8CryptoPP17AlignedDeallocateEPv
LBB32_17:
	xor	ebx, ebx
	lea	r15, [rbp - 400]
	.p2align	4, 0x90
LBB32_18:                               
Ltmp394:
	mov	rdi, r15
	xor	esi, esi
	call	__ZNK8CryptoPP7Integer6GetBitEm
Ltmp395:

	test	al, al
	jne	LBB32_25

Ltmp396:
	mov	esi, 1
	mov	rdi, r15
	call	__ZN8CryptoPP7IntegerrSEm
Ltmp397:

	inc	ebx
	jmp	LBB32_18
LBB32_25:
Ltmp399:
	lea	rdi, [rbp - 624]
	mov	rsi, qword ptr [rbp - 152] 
	call	__ZN8CryptoPP17ModularArithmeticC2ERKNS_7IntegerE
Ltmp400:

Ltmp401:
	mov	qword ptr [rbp - 304], rbx 
	lea	rdi, [rbp - 352]
	mov	esi, 2
	call	__ZN8CryptoPP7IntegerC1El
Ltmp402:

	lea	rax, [r14 + 272]
	mov	qword ptr [rbp - 160], rax 
	lea	rax, [r14 + 320]
	mov	qword ptr [rbp - 216], rax 
	lea	rax, [r14 + 368]
	mov	qword ptr [rbp - 296], rax 
	lea	rax, [r14 + 416]
	mov	qword ptr [rbp - 288], rax 
	lea	rax, [r14 + 464]
	mov	qword ptr [rbp - 280], rax 
	lea	r13, [rbp - 448]
	lea	rbx, [rbp - 352]
	lea	r12, [rbp - 272]
	lea	r14, [rbp - 96]
	jmp	LBB32_28
	.p2align	4, 0x90
LBB32_39:                               
Ltmp562:
	lea	rbx, [rbp - 352]
	mov	rdi, rbx
	call	__ZN8CryptoPP7IntegerppEv
Ltmp563:
LBB32_28:                               
                                        
Ltmp403:
	mov	rdi, r13
	lea	rsi, [rbp - 624]
	mov	rdx, rbx
	lea	rcx, [rbp - 400]
	call	__ZNK8CryptoPP12AbstractRingINS_7IntegerEE12ExponentiateERKS1_S4_
Ltmp404:

Ltmp405:
	mov	esi, 1
	mov	rdi, r12
	call	__ZN8CryptoPP7IntegerC1El
Ltmp406:

Ltmp407:
	mov	rdi, r13
	mov	rsi, r12
	call	__ZNK8CryptoPP7Integer7CompareERKS0_
Ltmp408:

	mov	ebx, eax
	mov	rax, qword ptr [rbp - 48] 
	mov	qword ptr [rbp - 272], rax
	mov	rdx, qword ptr [rbp - 240]
	test	rdx, rdx
	je	LBB32_33

	mov	rax, qword ptr [rbp - 256]
	mov	rcx, qword ptr [rbp - 248]
	cmp	rax, rcx
	cmovb	rcx, rax
	xor	eax, eax
	mov	rdi, rdx
	
	rep		stosq	qword ptr es:[rdi], rax
	
Ltmp412:
	mov	rdi, rdx
	call	__ZN8CryptoPP17AlignedDeallocateEPv
Ltmp413:
LBB32_33:                               
	test	ebx, ebx
	je	LBB32_34

Ltmp415:
	mov	rdi, r12
	call	__ZN8CryptoPP7IntegerC1Ev
Ltmp416:

	mov	rax, qword ptr [rbp - 304] 
	mov	r15d, eax
	.p2align	4, 0x90
LBB32_47:                               
                                        
Ltmp417:
	mov	esi, 1
	lea	rdi, [rbp - 144]
	call	__ZN8CryptoPP7IntegerC1El
Ltmp418:

Ltmp419:
	mov	rdi, r14
	mov	rsi, qword ptr [rbp - 152] 
	lea	rdx, [rbp - 144]
	call	__ZNK8CryptoPP7Integer5MinusERKS0_
Ltmp420:

Ltmp421:
	mov	rdi, r13
	mov	rsi, r14
	call	__ZNK8CryptoPP7Integer7CompareERKS0_
Ltmp422:

	mov	ebx, eax
	mov	rax, qword ptr [rbp - 48] 
	mov	qword ptr [rbp - 96], rax
	mov	rdx, qword ptr [rbp - 64]
	test	rdx, rdx
	je	LBB32_52

	mov	rax, qword ptr [rbp - 80]
	mov	rcx, qword ptr [rbp - 72]
	cmp	rax, rcx
	cmovb	rcx, rax
	xor	eax, eax
	mov	rdi, rdx
	
	rep		stosq	qword ptr es:[rdi], rax
	
Ltmp426:
	mov	rdi, rdx
	call	__ZN8CryptoPP17AlignedDeallocateEPv
Ltmp427:
LBB32_52:                               
	mov	rax, qword ptr [rbp - 48] 
	mov	qword ptr [rbp - 144], rax
	mov	rdx, qword ptr [rbp - 112]
	test	rdx, rdx
	je	LBB32_54

	mov	rax, qword ptr [rbp - 128]
	mov	rcx, qword ptr [rbp - 120]
	cmp	rax, rcx
	cmovb	rcx, rax
	xor	eax, eax
	mov	rdi, rdx
	
	rep		stosq	qword ptr es:[rdi], rax
	
Ltmp431:
	mov	rdi, rdx
	call	__ZN8CryptoPP17AlignedDeallocateEPv
Ltmp432:
LBB32_54:                               
	test	ebx, ebx
	je	LBB32_55

Ltmp434:
	lea	rdi, [rbp - 624]
	mov	rsi, r13
	call	__ZNK8CryptoPP17ModularArithmetic6SquareERKNS_7IntegerE
Ltmp435:

Ltmp436:
	mov	rdi, r12
	mov	rsi, rax
	call	__ZN8CryptoPP7IntegeraSERKS0_
Ltmp437:

Ltmp438:
	mov	esi, 1
	mov	rdi, r14
	call	__ZN8CryptoPP7IntegerC1El
Ltmp439:

Ltmp440:
	mov	rdi, r12
	mov	rsi, r14
	call	__ZNK8CryptoPP7Integer7CompareERKS0_
Ltmp441:

	mov	ebx, eax
	mov	rax, qword ptr [rbp - 48] 
	mov	qword ptr [rbp - 96], rax
	mov	rdx, qword ptr [rbp - 64]
	test	rdx, rdx
	je	LBB32_62

	mov	rax, qword ptr [rbp - 80]
	mov	rcx, qword ptr [rbp - 72]
	cmp	rax, rcx
	cmovb	rcx, rax
	xor	eax, eax
	mov	rdi, rdx
	
	rep		stosq	qword ptr es:[rdi], rax
	
Ltmp445:
	mov	rdi, rdx
	call	__ZN8CryptoPP17AlignedDeallocateEPv
Ltmp446:
LBB32_62:                               
	test	ebx, ebx
	je	LBB32_63

	dec	r15d
	je	LBB32_148

Ltmp448:
	mov	rdi, r13
	mov	rsi, r12
	call	__ZN8CryptoPP7IntegeraSERKS0_
Ltmp449:
	jmp	LBB32_47
	.p2align	4, 0x90
LBB32_34:                               
	mov	ebx, 6
	jmp	LBB32_35
	.p2align	4, 0x90
LBB32_55:                               
	xor	ebx, ebx
	jmp	LBB32_102
	.p2align	4, 0x90
LBB32_63:                               
Ltmp460:
	mov	esi, 1
	lea	rbx, [rbp - 208]
	mov	rdi, rbx
	call	__ZN8CryptoPP7IntegerC1El
Ltmp461:

Ltmp462:
	lea	rdi, [rbp - 144]
	mov	rsi, r13
	mov	rdx, rbx
	call	__ZNK8CryptoPP7Integer5MinusERKS0_
Ltmp463:

Ltmp464:
	mov	rdi, r14
	lea	rsi, [rbp - 144]
	mov	rdx, qword ptr [rbp - 152] 
	call	__ZN8CryptoPP7Integer3GcdERKS0_S2_
Ltmp465:

Ltmp466:
	mov	rdi, qword ptr [rbp - 160] 
	mov	rsi, r14
	call	__ZN8CryptoPP7IntegeraSERKS0_
Ltmp467:

	mov	rax, qword ptr [rbp - 48] 
	mov	qword ptr [rbp - 96], rax
	mov	rdx, qword ptr [rbp - 64]
	test	rdx, rdx
	je	LBB32_69

	mov	rax, qword ptr [rbp - 80]
	mov	rcx, qword ptr [rbp - 72]
	cmp	rax, rcx
	cmovb	rcx, rax
	xor	eax, eax
	mov	rdi, rdx
	
	rep		stosq	qword ptr es:[rdi], rax
	
Ltmp471:
	mov	rdi, rdx
	call	__ZN8CryptoPP17AlignedDeallocateEPv
Ltmp472:
LBB32_69:                               
	mov	rax, qword ptr [rbp - 48] 
	mov	qword ptr [rbp - 144], rax
	mov	rdx, qword ptr [rbp - 112]
	test	rdx, rdx
	je	LBB32_71

	mov	rax, qword ptr [rbp - 128]
	mov	rcx, qword ptr [rbp - 120]
	cmp	rax, rcx
	cmovb	rcx, rax
	xor	eax, eax
	mov	rdi, rdx
	
	rep		stosq	qword ptr es:[rdi], rax
	
Ltmp476:
	mov	rdi, rdx
	call	__ZN8CryptoPP17AlignedDeallocateEPv
Ltmp477:
LBB32_71:                               
	mov	rax, qword ptr [rbp - 48] 
	mov	qword ptr [rbp - 208], rax
	mov	rdx, qword ptr [rbp - 176]
	test	rdx, rdx
	je	LBB32_73

	mov	rax, qword ptr [rbp - 192]
	mov	rcx, qword ptr [rbp - 184]
	cmp	rax, rcx
	cmovb	rcx, rax
	xor	eax, eax
	mov	rdi, rdx
	
	rep		stosq	qword ptr es:[rdi], rax
	
Ltmp481:
	mov	rdi, rdx
	call	__ZN8CryptoPP17AlignedDeallocateEPv
Ltmp482:
LBB32_73:                               
Ltmp484:
	mov	rdi, r14
	mov	rsi, qword ptr [rbp - 152] 
	mov	rdx, qword ptr [rbp - 160] 
	call	__ZNK8CryptoPP7Integer9DividedByERKS0_
Ltmp485:

Ltmp486:
	mov	rdi, qword ptr [rbp - 216] 
	mov	rsi, r14
	call	__ZN8CryptoPP7IntegeraSERKS0_
Ltmp487:

	mov	rax, qword ptr [rbp - 48] 
	mov	qword ptr [rbp - 96], rax
	mov	rdx, qword ptr [rbp - 64]
	test	rdx, rdx
	je	LBB32_77

	mov	rax, qword ptr [rbp - 80]
	mov	rcx, qword ptr [rbp - 72]
	cmp	rax, rcx
	cmovb	rcx, rax
	xor	eax, eax
	mov	rdi, rdx
	
	rep		stosq	qword ptr es:[rdi], rax
	
Ltmp491:
	mov	rdi, rdx
	call	__ZN8CryptoPP17AlignedDeallocateEPv
Ltmp492:
LBB32_77:                               
Ltmp494:
	mov	esi, 1
	mov	rdi, rbx
	call	__ZN8CryptoPP7IntegerC1El
Ltmp495:

Ltmp496:
	lea	rdi, [rbp - 144]
	mov	rsi, qword ptr [rbp - 160] 
	mov	rdx, rbx
	call	__ZNK8CryptoPP7Integer5MinusERKS0_
Ltmp497:

Ltmp498:
	mov	rdi, r14
	mov	rsi, qword ptr [rbp - 224] 
	lea	rdx, [rbp - 144]
	call	__ZNK8CryptoPP7Integer6ModuloERKS0_
Ltmp499:

Ltmp500:
	mov	rdi, qword ptr [rbp - 296] 
	mov	rsi, r14
	call	__ZN8CryptoPP7IntegeraSERKS0_
Ltmp501:

	mov	rax, qword ptr [rbp - 48] 
	mov	qword ptr [rbp - 96], rax
	mov	rdx, qword ptr [rbp - 64]
	test	rdx, rdx
	je	LBB32_83

	mov	rax, qword ptr [rbp - 80]
	mov	rcx, qword ptr [rbp - 72]
	cmp	rax, rcx
	cmovb	rcx, rax
	xor	eax, eax
	mov	rdi, rdx
	
	rep		stosq	qword ptr es:[rdi], rax
	
Ltmp505:
	mov	rdi, rdx
	call	__ZN8CryptoPP17AlignedDeallocateEPv
Ltmp506:
LBB32_83:                               
	mov	rax, qword ptr [rbp - 48] 
	mov	qword ptr [rbp - 144], rax
	mov	rdx, qword ptr [rbp - 112]
	test	rdx, rdx
	je	LBB32_85

	mov	rax, qword ptr [rbp - 128]
	mov	rcx, qword ptr [rbp - 120]
	cmp	rax, rcx
	cmovb	rcx, rax
	xor	eax, eax
	mov	rdi, rdx
	
	rep		stosq	qword ptr es:[rdi], rax
	
Ltmp510:
	mov	rdi, rdx
	call	__ZN8CryptoPP17AlignedDeallocateEPv
Ltmp511:
LBB32_85:                               
	mov	rax, qword ptr [rbp - 48] 
	mov	qword ptr [rbp - 208], rax
	mov	rdx, qword ptr [rbp - 176]
	test	rdx, rdx
	je	LBB32_87

	mov	rax, qword ptr [rbp - 192]
	mov	rcx, qword ptr [rbp - 184]
	cmp	rax, rcx
	cmovb	rcx, rax
	xor	eax, eax
	mov	rdi, rdx
	
	rep		stosq	qword ptr es:[rdi], rax
	
Ltmp515:
	mov	rdi, rdx
	call	__ZN8CryptoPP17AlignedDeallocateEPv
Ltmp516:
LBB32_87:                               
Ltmp518:
	mov	esi, 1
	mov	rdi, rbx
	call	__ZN8CryptoPP7IntegerC1El
Ltmp519:

Ltmp520:
	lea	rdi, [rbp - 144]
	mov	rsi, qword ptr [rbp - 216] 
	mov	rdx, rbx
	call	__ZNK8CryptoPP7Integer5MinusERKS0_
Ltmp521:

Ltmp522:
	mov	rdi, r14
	mov	rsi, qword ptr [rbp - 224] 
	lea	rdx, [rbp - 144]
	call	__ZNK8CryptoPP7Integer6ModuloERKS0_
Ltmp523:

Ltmp524:
	mov	rdi, qword ptr [rbp - 288] 
	mov	rsi, r14
	call	__ZN8CryptoPP7IntegeraSERKS0_
Ltmp525:

	mov	rax, qword ptr [rbp - 48] 
	mov	qword ptr [rbp - 96], rax
	mov	rdx, qword ptr [rbp - 64]
	test	rdx, rdx
	je	LBB32_93

	mov	rax, qword ptr [rbp - 80]
	mov	rcx, qword ptr [rbp - 72]
	cmp	rax, rcx
	cmovb	rcx, rax
	xor	eax, eax
	mov	rdi, rdx
	
	rep		stosq	qword ptr es:[rdi], rax
	
Ltmp529:
	mov	rdi, rdx
	call	__ZN8CryptoPP17AlignedDeallocateEPv
Ltmp530:
LBB32_93:                               
	mov	rax, qword ptr [rbp - 48] 
	mov	qword ptr [rbp - 144], rax
	mov	rdx, qword ptr [rbp - 112]
	test	rdx, rdx
	je	LBB32_95

	mov	rax, qword ptr [rbp - 128]
	mov	rcx, qword ptr [rbp - 120]
	cmp	rax, rcx
	cmovb	rcx, rax
	xor	eax, eax
	mov	rdi, rdx
	
	rep		stosq	qword ptr es:[rdi], rax
	
Ltmp534:
	mov	rdi, rdx
	call	__ZN8CryptoPP17AlignedDeallocateEPv
Ltmp535:
LBB32_95:                               
	mov	rax, qword ptr [rbp - 48] 
	mov	qword ptr [rbp - 208], rax
	mov	rdx, qword ptr [rbp - 176]
	test	rdx, rdx
	je	LBB32_97

	mov	rax, qword ptr [rbp - 192]
	mov	rcx, qword ptr [rbp - 184]
	cmp	rax, rcx
	cmovb	rcx, rax
	xor	eax, eax
	mov	rdi, rdx
	
	rep		stosq	qword ptr es:[rdi], rax
	
Ltmp539:
	mov	rdi, rdx
	call	__ZN8CryptoPP17AlignedDeallocateEPv
Ltmp540:
LBB32_97:                               
Ltmp542:
	mov	rdi, r14
	mov	rsi, qword ptr [rbp - 216] 
	mov	rdx, qword ptr [rbp - 160] 
	call	__ZNK8CryptoPP7Integer10InverseModERKS0_
Ltmp543:

Ltmp544:
	mov	rdi, qword ptr [rbp - 280] 
	mov	rsi, r14
	call	__ZN8CryptoPP7IntegeraSERKS0_
Ltmp545:

	mov	rax, qword ptr [rbp - 48] 
	mov	qword ptr [rbp - 96], rax
	mov	rdx, qword ptr [rbp - 64]
	test	rdx, rdx
	je	LBB32_101

	mov	rax, qword ptr [rbp - 80]
	mov	rcx, qword ptr [rbp - 72]
	cmp	rax, rcx
	cmovb	rcx, rax
	xor	eax, eax
	mov	rdi, rdx
	
	rep		stosq	qword ptr es:[rdi], rax
	
Ltmp549:
	mov	rdi, rdx
	call	__ZN8CryptoPP17AlignedDeallocateEPv
Ltmp550:
LBB32_101:                              
	mov	ebx, 1
LBB32_102:                              
	mov	rax, qword ptr [rbp - 48] 
	mov	qword ptr [rbp - 272], rax
	mov	rdx, qword ptr [rbp - 240]
	test	rdx, rdx
	je	LBB32_35

	mov	rax, qword ptr [rbp - 256]
	mov	rcx, qword ptr [rbp - 248]
	cmp	rax, rcx
	cmovb	rcx, rax
	xor	eax, eax
	mov	rdi, rdx
	
	rep		stosq	qword ptr es:[rdi], rax
	
Ltmp554:
	mov	rdi, rdx
	call	__ZN8CryptoPP17AlignedDeallocateEPv
Ltmp555:
LBB32_35:                               
	mov	rax, qword ptr [rbp - 48] 
	mov	qword ptr [rbp - 448], rax
	mov	rdx, qword ptr [rbp - 416]
	test	rdx, rdx
	je	LBB32_37

	mov	rax, qword ptr [rbp - 432]
	mov	rcx, qword ptr [rbp - 424]
	cmp	rax, rcx
	cmovb	rcx, rax
	xor	eax, eax
	mov	rdi, rdx
	
	rep		stosq	qword ptr es:[rdi], rax
	
Ltmp559:
	mov	rdi, rdx
	call	__ZN8CryptoPP17AlignedDeallocateEPv
Ltmp560:
LBB32_37:                               
	cmp	ebx, 6
	je	LBB32_39

	test	ebx, ebx
	je	LBB32_39

	mov	rax, qword ptr [rbp - 48] 
	mov	qword ptr [rbp - 352], rax
	mov	rdx, qword ptr [rbp - 320]
	test	rdx, rdx
	je	LBB32_166

	mov	rax, qword ptr [rbp - 336]
	mov	rcx, qword ptr [rbp - 328]
	cmp	rax, rcx
	cmovb	rcx, rax
	xor	eax, eax
	mov	rdi, rdx
	
	rep		stosq	qword ptr es:[rdi], rax
	
Ltmp567:
	mov	rdi, rdx
	call	__ZN8CryptoPP17AlignedDeallocateEPv
Ltmp568:
LBB32_166:
Ltmp572:
	lea	rdi, [rbp - 624]
	call	__ZN8CryptoPP17ModularArithmeticD2Ev
Ltmp573:

	mov	rax, qword ptr [rbp - 48] 
	mov	qword ptr [rbp - 400], rax
	mov	rdx, qword ptr [rbp - 368]
	test	rdx, rdx
	je	LBB32_169

	mov	rax, qword ptr [rbp - 384]
	mov	rcx, qword ptr [rbp - 376]
	cmp	rax, rcx
	cmovb	rcx, rax
	xor	eax, eax
	mov	rdi, rdx
	
	rep		stosq	qword ptr es:[rdi], rax
	
	mov	rdi, rdx
	call	__ZN8CryptoPP17AlignedDeallocateEPv
LBB32_169:
	add	rsp, 584
	pop	rbx
	pop	r12
	pop	r13
	pop	r14
	pop	r15
	pop	rbp
	ret
LBB32_148:
	mov	edi, 40
	call	___cxa_allocate_exception
	mov	r14, rax
Ltmp451:
	mov	edi, 64
	call	__Znwm
Ltmp452:

	mov	qword ptr [rbp - 80], rax
	movaps	xmm0, xmmword ptr [rip + LCPI32_0] 
	movaps	xmmword ptr [rbp - 96], xmm0
	movabs	rcx, 2334399943808742000
	mov	qword ptr [rax + 48], rcx
	movabs	rcx, 2324230494895761772
	mov	qword ptr [rax + 40], rcx
	movabs	rcx, 7022836270459285358
	mov	qword ptr [rax + 32], rcx
	movabs	rcx, 2338328219649142894
	mov	qword ptr [rax + 24], rcx
	movabs	rcx, 7575118819227169891
	mov	qword ptr [rax + 16], rcx
	movabs	rcx, 7959345162831947116
	mov	qword ptr [rax + 8], rcx
	movabs	rcx, 7091327122948910665
	mov	qword ptr [rax], rcx
	mov	dword ptr [rax + 55], 2036689696
	mov	byte ptr [rax + 59], 0
	mov	rax, qword ptr [rip + __ZTVN8CryptoPP9ExceptionE@GOTPCREL]
	add	rax, 16
	mov	qword ptr [r14], rax
	mov	dword ptr [r14 + 8], 1
	mov	rdi, r14
	add	rdi, 16
Ltmp454:
	lea	rsi, [rbp - 96]
	call	__ZNSt3__112basic_stringIcNS_11char_traitsIcEENS_9allocatorIcEEEC1ERKS5_
Ltmp455:

	mov	rax, qword ptr [rip + __ZTVN8CryptoPP15InvalidArgumentE@GOTPCREL]
	add	rax, 16
	mov	qword ptr [r14], rax
Ltmp457:
	mov	rsi, qword ptr [rip + __ZTIN8CryptoPP15InvalidArgumentE@GOTPCREL]
	mov	rdx, qword ptr [rip + __ZN8CryptoPP15InvalidArgumentD1Ev@GOTPCREL]
	mov	rdi, r14
	call	___cxa_throw
Ltmp458:
LBB32_6:
	ud2
LBB32_3:
	mov	edi, 40
	call	___cxa_allocate_exception
	mov	r14, rax
Ltmp378:
	mov	edi, 64
	call	__Znwm
Ltmp379:

	mov	qword ptr [rbp - 608], rax
	movaps	xmm0, xmmword ptr [rip + LCPI32_0] 
	movaps	xmmword ptr [rbp - 624], xmm0
	movabs	rcx, 2334399943808742000
	mov	qword ptr [rax + 48], rcx
	movabs	rcx, 2324230494895761772
	mov	qword ptr [rax + 40], rcx
	movabs	rcx, 7022836270459285358
	mov	qword ptr [rax + 32], rcx
	movabs	rcx, 2338328219649142894
	mov	qword ptr [rax + 24], rcx
	movabs	rcx, 7575118819227169891
	mov	qword ptr [rax + 16], rcx
	movabs	rcx, 7959345162831947116
	mov	qword ptr [rax + 8], rcx
	movabs	rcx, 7091327122948910665
	mov	qword ptr [rax], rcx
	mov	dword ptr [rax + 55], 2036689696
	mov	byte ptr [rax + 59], 0
	mov	rax, qword ptr [rip + __ZTVN8CryptoPP9ExceptionE@GOTPCREL]
	add	rax, 16
	mov	qword ptr [r14], rax
	mov	dword ptr [r14 + 8], 1
	mov	rdi, r14
	add	rdi, 16
Ltmp381:
	lea	rsi, [rbp - 624]
	call	__ZNSt3__112basic_stringIcNS_11char_traitsIcEENS_9allocatorIcEEEC1ERKS5_
Ltmp382:

	mov	rax, qword ptr [rip + __ZTVN8CryptoPP15InvalidArgumentE@GOTPCREL]
	add	rax, 16
	mov	qword ptr [r14], rax
Ltmp384:
	mov	rsi, qword ptr [rip + __ZTIN8CryptoPP15InvalidArgumentE@GOTPCREL]
	mov	rdx, qword ptr [rip + __ZN8CryptoPP15InvalidArgumentD1Ev@GOTPCREL]
	mov	rdi, r14
	call	___cxa_throw
Ltmp385:
	jmp	LBB32_6
LBB32_8:
Ltmp386:
	mov	rbx, rax
	xor	r15d, r15d
	jmp	LBB32_9
LBB32_181:
Ltmp383:
	mov	rbx, rax
	mov	rdi, r14
	call	__ZNSt9exceptionD2Ev
	mov	r15b, 1
LBB32_9:
	test	byte ptr [rbp - 624], 1
	je	LBB32_11

	mov	rdi, qword ptr [rbp - 608]
	call	__ZdlPv
LBB32_11:
	test	r15b, r15b
	jne	LBB32_12
	jmp	LBB32_179
LBB32_7:
Ltmp380:
	mov	rbx, rax
LBB32_12:
	mov	rdi, r14
	call	___cxa_free_exception
	jmp	LBB32_179
LBB32_152:
Ltmp459:
	mov	rbx, rax
	xor	r15d, r15d
	jmp	LBB32_153
LBB32_182:
Ltmp456:
	mov	rbx, rax
	mov	rdi, r14
	call	__ZNSt9exceptionD2Ev
	mov	r15b, 1
LBB32_153:
	test	byte ptr [rbp - 96], 1
	je	LBB32_155

	mov	rdi, qword ptr [rbp - 80]
	call	__ZdlPv
LBB32_155:
	test	r15b, r15b
	jne	LBB32_156
	jmp	LBB32_160
LBB32_151:
Ltmp453:
	mov	rbx, rax
LBB32_156:
	mov	rdi, r14
	call	___cxa_free_exception
	jmp	LBB32_160
LBB32_40:
Ltmp569:
	mov	rbx, rax
	jmp	LBB32_174
LBB32_175:
Ltmp574:
	jmp	LBB32_176
LBB32_22:
Ltmp391:
	mov	rbx, rax
	mov	rax, qword ptr [rip + __ZTVN8CryptoPP7IntegerE@GOTPCREL]
	add	rax, 16
	mov	qword ptr [rbp - 624], rax
	mov	rdx, qword ptr [rbp - 592]
	test	rdx, rdx
	je	LBB32_179

	mov	rax, qword ptr [rbp - 608]
	mov	rcx, qword ptr [rbp - 600]
	cmp	rax, rcx
	cmovb	rcx, rax
	xor	eax, eax
	mov	rdi, rdx
	
	rep		stosq	qword ptr es:[rdi], rax
	
Ltmp392:
	mov	rdi, rdx
	call	__ZN8CryptoPP17AlignedDeallocateEPv
Ltmp393:
	jmp	LBB32_179
LBB32_145:
Ltmp546:
	mov	rbx, rax
	mov	rax, qword ptr [rbp - 48] 
	mov	qword ptr [rbp - 96], rax
	mov	rdx, qword ptr [rbp - 64]
	test	rdx, rdx
	je	LBB32_160

	mov	rax, qword ptr [rbp - 80]
	mov	rcx, qword ptr [rbp - 72]
	cmp	rax, rcx
	cmovb	rcx, rax
	xor	eax, eax
	mov	rdi, rdx
	
	rep		stosq	qword ptr es:[rdi], rax
	
Ltmp547:
	mov	rdi, rdx
	call	__ZN8CryptoPP17AlignedDeallocateEPv
Ltmp548:
	jmp	LBB32_160
LBB32_138:
Ltmp526:
	mov	rbx, rax
	mov	rax, qword ptr [rbp - 48] 
	mov	qword ptr [rbp - 96], rax
	mov	rdx, qword ptr [rbp - 64]
	test	rdx, rdx
	je	LBB32_140

	mov	rax, qword ptr [rbp - 80]
	mov	rcx, qword ptr [rbp - 72]
	cmp	rax, rcx
	cmovb	rcx, rax
	xor	eax, eax
	mov	rdi, rdx
	
	rep		stosq	qword ptr es:[rdi], rax
	
Ltmp527:
	mov	rdi, rdx
	call	__ZN8CryptoPP17AlignedDeallocateEPv
Ltmp528:
	jmp	LBB32_140
LBB32_129:
Ltmp502:
	mov	rbx, rax
	mov	rax, qword ptr [rbp - 48] 
	mov	qword ptr [rbp - 96], rax
	mov	rdx, qword ptr [rbp - 64]
	test	rdx, rdx
	je	LBB32_131

	mov	rax, qword ptr [rbp - 80]
	mov	rcx, qword ptr [rbp - 72]
	cmp	rax, rcx
	cmovb	rcx, rax
	xor	eax, eax
	mov	rdi, rdx
	
	rep		stosq	qword ptr es:[rdi], rax
	
Ltmp503:
	mov	rdi, rdx
	call	__ZN8CryptoPP17AlignedDeallocateEPv
Ltmp504:
	jmp	LBB32_131
LBB32_124:
Ltmp488:
	mov	rbx, rax
	mov	rax, qword ptr [rbp - 48] 
	mov	qword ptr [rbp - 96], rax
	mov	rdx, qword ptr [rbp - 64]
	test	rdx, rdx
	je	LBB32_160

	mov	rax, qword ptr [rbp - 80]
	mov	rcx, qword ptr [rbp - 72]
	cmp	rax, rcx
	cmovb	rcx, rax
	xor	eax, eax
	mov	rdi, rdx
	
	rep		stosq	qword ptr es:[rdi], rax
	
Ltmp489:
	mov	rdi, rdx
	call	__ZN8CryptoPP17AlignedDeallocateEPv
Ltmp490:
	jmp	LBB32_160
LBB32_117:
Ltmp468:
	mov	rbx, rax
	mov	rax, qword ptr [rbp - 48] 
	mov	qword ptr [rbp - 96], rax
	mov	rdx, qword ptr [rbp - 64]
	test	rdx, rdx
	je	LBB32_119

	mov	rax, qword ptr [rbp - 80]
	mov	rcx, qword ptr [rbp - 72]
	cmp	rax, rcx
	cmovb	rcx, rax
	xor	eax, eax
	mov	rdi, rdx
	
	rep		stosq	qword ptr es:[rdi], rax
	
Ltmp469:
	mov	rdi, rdx
	call	__ZN8CryptoPP17AlignedDeallocateEPv
Ltmp470:
	jmp	LBB32_119
LBB32_144:
Ltmp551:
	jmp	LBB32_159
LBB32_127:
Ltmp512:
	mov	rbx, rax
	jmp	LBB32_133
LBB32_116:
Ltmp473:
	mov	rbx, rax
LBB32_119:
	mov	rax, qword ptr [rbp - 48] 
	mov	qword ptr [rbp - 144], rax
	mov	rdx, qword ptr [rbp - 112]
	test	rdx, rdx
	je	LBB32_121

	mov	rax, qword ptr [rbp - 128]
	mov	rcx, qword ptr [rbp - 120]
	cmp	rax, rcx
	cmovb	rcx, rax
	xor	eax, eax
	mov	rdi, rdx
	
	rep		stosq	qword ptr es:[rdi], rax
	
Ltmp474:
	mov	rdi, rdx
	call	__ZN8CryptoPP17AlignedDeallocateEPv
Ltmp475:
	jmp	LBB32_121
LBB32_114:
Ltmp483:
	jmp	LBB32_159
LBB32_136:
Ltmp536:
	mov	rbx, rax
	jmp	LBB32_142
LBB32_123:
Ltmp493:
	jmp	LBB32_159
LBB32_128:
Ltmp507:
	mov	rbx, rax
LBB32_131:
	mov	rax, qword ptr [rbp - 48] 
	mov	qword ptr [rbp - 144], rax
	mov	rdx, qword ptr [rbp - 112]
	test	rdx, rdx
	je	LBB32_133

	mov	rax, qword ptr [rbp - 128]
	mov	rcx, qword ptr [rbp - 120]
	cmp	rax, rcx
	cmovb	rcx, rax
	xor	eax, eax
	mov	rdi, rdx
	
	rep		stosq	qword ptr es:[rdi], rax
	
Ltmp508:
	mov	rdi, rdx
	call	__ZN8CryptoPP17AlignedDeallocateEPv
Ltmp509:
LBB32_133:
	mov	rax, qword ptr [rbp - 48] 
	mov	qword ptr [rbp - 208], rax
	mov	rdx, qword ptr [rbp - 176]
	test	rdx, rdx
	je	LBB32_160

	mov	rax, qword ptr [rbp - 192]
	mov	rcx, qword ptr [rbp - 184]
	cmp	rax, rcx
	cmovb	rcx, rax
	xor	eax, eax
	mov	rdi, rdx
	
	rep		stosq	qword ptr es:[rdi], rax
	
Ltmp513:
	mov	rdi, rdx
	call	__ZN8CryptoPP17AlignedDeallocateEPv
Ltmp514:
	jmp	LBB32_160
LBB32_126:
Ltmp517:
	jmp	LBB32_159
LBB32_115:
Ltmp478:
	mov	rbx, rax
LBB32_121:
	mov	rax, qword ptr [rbp - 48] 
	mov	qword ptr [rbp - 208], rax
	mov	rdx, qword ptr [rbp - 176]
	test	rdx, rdx
	je	LBB32_160

	mov	rax, qword ptr [rbp - 192]
	mov	rcx, qword ptr [rbp - 184]
	cmp	rax, rcx
	cmovb	rcx, rax
	xor	eax, eax
	mov	rdi, rdx
	
	rep		stosq	qword ptr es:[rdi], rax
	
Ltmp479:
	mov	rdi, rdx
	call	__ZN8CryptoPP17AlignedDeallocateEPv
Ltmp480:
	jmp	LBB32_160
LBB32_137:
Ltmp531:
	mov	rbx, rax
LBB32_140:
	mov	rax, qword ptr [rbp - 48] 
	mov	qword ptr [rbp - 144], rax
	mov	rdx, qword ptr [rbp - 112]
	test	rdx, rdx
	je	LBB32_142

	mov	rax, qword ptr [rbp - 128]
	mov	rcx, qword ptr [rbp - 120]
	cmp	rax, rcx
	cmovb	rcx, rax
	xor	eax, eax
	mov	rdi, rdx
	
	rep		stosq	qword ptr es:[rdi], rax
	
Ltmp532:
	mov	rdi, rdx
	call	__ZN8CryptoPP17AlignedDeallocateEPv
Ltmp533:
LBB32_142:
	mov	rax, qword ptr [rbp - 48] 
	mov	qword ptr [rbp - 208], rax
	mov	rdx, qword ptr [rbp - 176]
	test	rdx, rdx
	je	LBB32_160

	mov	rax, qword ptr [rbp - 192]
	mov	rcx, qword ptr [rbp - 184]
	cmp	rax, rcx
	cmovb	rcx, rax
	xor	eax, eax
	mov	rdi, rdx
	
	rep		stosq	qword ptr es:[rdi], rax
	
Ltmp537:
	mov	rdi, rdx
	call	__ZN8CryptoPP17AlignedDeallocateEPv
Ltmp538:
	jmp	LBB32_160
LBB32_135:
Ltmp541:
	jmp	LBB32_159
LBB32_170:
Ltmp564:
	jmp	LBB32_171
LBB32_43:
Ltmp409:
	mov	rbx, rax
	mov	rax, qword ptr [rbp - 48] 
	mov	qword ptr [rbp - 272], rax
	mov	rdx, qword ptr [rbp - 240]
	test	rdx, rdx
	je	LBB32_162

	mov	rax, qword ptr [rbp - 256]
	mov	rcx, qword ptr [rbp - 248]
	cmp	rax, rcx
	cmovb	rcx, rax
	xor	eax, eax
	mov	rdi, rdx
	
	rep		stosq	qword ptr es:[rdi], rax
	
Ltmp410:
	mov	rdi, rdx
	call	__ZN8CryptoPP17AlignedDeallocateEPv
Ltmp411:
	jmp	LBB32_162
LBB32_104:
Ltmp556:
	mov	rbx, rax
	jmp	LBB32_162
LBB32_41:
Ltmp561:
LBB32_171:
	mov	rbx, rax
	jmp	LBB32_172
LBB32_42:
Ltmp414:
	mov	rbx, rax
	jmp	LBB32_162
LBB32_24:
Ltmp398:
LBB32_176:
	mov	rbx, rax
	jmp	LBB32_177
LBB32_112:
Ltmp442:
	mov	rbx, rax
	mov	rax, qword ptr [rbp - 48] 
	mov	qword ptr [rbp - 96], rax
	mov	rdx, qword ptr [rbp - 64]
	test	rdx, rdx
	je	LBB32_160

	mov	rax, qword ptr [rbp - 80]
	mov	rcx, qword ptr [rbp - 72]
	cmp	rax, rcx
	cmovb	rcx, rax
	xor	eax, eax
	mov	rdi, rdx
	
	rep		stosq	qword ptr es:[rdi], rax
	
Ltmp443:
	mov	rdi, rdx
	call	__ZN8CryptoPP17AlignedDeallocateEPv
Ltmp444:
	jmp	LBB32_160
LBB32_107:
Ltmp423:
	mov	rbx, rax
	mov	rax, qword ptr [rbp - 48] 
	mov	qword ptr [rbp - 96], rax
	mov	rdx, qword ptr [rbp - 64]
	test	rdx, rdx
	je	LBB32_109

	mov	rax, qword ptr [rbp - 80]
	mov	rcx, qword ptr [rbp - 72]
	cmp	rax, rcx
	cmovb	rcx, rax
	xor	eax, eax
	mov	rdi, rdx
	
	rep		stosq	qword ptr es:[rdi], rax
	
Ltmp424:
	mov	rdi, rdx
	call	__ZN8CryptoPP17AlignedDeallocateEPv
Ltmp425:
	jmp	LBB32_109
LBB32_111:
Ltmp447:
	jmp	LBB32_159
LBB32_106:
Ltmp428:
	mov	rbx, rax
LBB32_109:
	mov	rax, qword ptr [rbp - 48] 
	mov	qword ptr [rbp - 144], rax
	mov	rdx, qword ptr [rbp - 112]
	test	rdx, rdx
	je	LBB32_160

	mov	rax, qword ptr [rbp - 128]
	mov	rcx, qword ptr [rbp - 120]
	cmp	rax, rcx
	cmovb	rcx, rax
	xor	eax, eax
	mov	rdi, rdx
	
	rep		stosq	qword ptr es:[rdi], rax
	
Ltmp429:
	mov	rdi, rdx
	call	__ZN8CryptoPP17AlignedDeallocateEPv
Ltmp430:
	jmp	LBB32_160
LBB32_105:
Ltmp433:
	jmp	LBB32_159
LBB32_158:
Ltmp450:
LBB32_159:
	mov	rbx, rax
LBB32_160:
	mov	rax, qword ptr [rbp - 48] 
	mov	qword ptr [rbp - 272], rax
	mov	rdx, qword ptr [rbp - 240]
	test	rdx, rdx
	je	LBB32_162

	mov	rax, qword ptr [rbp - 256]
	mov	rcx, qword ptr [rbp - 248]
	cmp	rax, rcx
	cmovb	rcx, rax
	xor	eax, eax
	mov	rdi, rdx
	
	rep		stosq	qword ptr es:[rdi], rax
	
Ltmp552:
	mov	rdi, rdx
	call	__ZN8CryptoPP17AlignedDeallocateEPv
Ltmp553:
LBB32_162:
	mov	rax, qword ptr [rbp - 48] 
	mov	qword ptr [rbp - 448], rax
	mov	rdx, qword ptr [rbp - 416]
	test	rdx, rdx
	je	LBB32_172

	mov	rax, qword ptr [rbp - 432]
	mov	rcx, qword ptr [rbp - 424]
	cmp	rax, rcx
	cmovb	rcx, rax
	xor	eax, eax
	mov	rdi, rdx
	
	rep		stosq	qword ptr es:[rdi], rax
	
Ltmp557:
	mov	rdi, rdx
	call	__ZN8CryptoPP17AlignedDeallocateEPv
Ltmp558:
LBB32_172:
	mov	rax, qword ptr [rbp - 48] 
	mov	qword ptr [rbp - 352], rax
	mov	rdx, qword ptr [rbp - 320]
	test	rdx, rdx
	je	LBB32_174

	mov	rax, qword ptr [rbp - 336]
	mov	rcx, qword ptr [rbp - 328]
	cmp	rax, rcx
	cmovb	rcx, rax
	xor	eax, eax
	mov	rdi, rdx
	
	rep		stosq	qword ptr es:[rdi], rax
	
Ltmp565:
	mov	rdi, rdx
	call	__ZN8CryptoPP17AlignedDeallocateEPv
Ltmp566:
LBB32_174:
Ltmp570:
	lea	rdi, [rbp - 624]
	call	__ZN8CryptoPP17ModularArithmeticD2Ev
Ltmp571:
LBB32_177:
	mov	rax, qword ptr [rbp - 48] 
	mov	qword ptr [rbp - 400], rax
	mov	rdx, qword ptr [rbp - 368]
	test	rdx, rdx
	je	LBB32_179

	mov	rax, qword ptr [rbp - 384]
	mov	rcx, qword ptr [rbp - 376]
	cmp	rax, rcx
	cmovb	rcx, rax
	xor	eax, eax
	mov	rdi, rdx
	
	rep		stosq	qword ptr es:[rdi], rax
	
Ltmp575:
	mov	rdi, rdx
	call	__ZN8CryptoPP17AlignedDeallocateEPv
Ltmp576:
LBB32_179:
	mov	rdi, rbx
	call	__Unwind_Resume
	ud2
LBB32_180:
Ltmp577:
	mov	rdi, rax
	call	___clang_call_terminate
Lfunc_end10:
	.cfi_endproc
	.section	__TEXT,__gcc_except_tab
	.p2align	2
GCC_except_table32:
Lexception10:
	.byte	255                     
	.byte	155                     
	.uleb128 Lttbase8-Lttbaseref8
Lttbaseref8:
	.byte	1                       
	.uleb128 Lcst_end10-Lcst_begin10
Lcst_begin10:
	.uleb128 Lfunc_begin10-Lfunc_begin10 
	.uleb128 Ltmp387-Lfunc_begin10  
	.byte	0                       
	.byte	0                       
	.uleb128 Ltmp387-Lfunc_begin10  
	.uleb128 Ltmp390-Ltmp387        
	.uleb128 Ltmp391-Lfunc_begin10  
	.byte	0                       
	.uleb128 Ltmp390-Lfunc_begin10  
	.uleb128 Ltmp394-Ltmp390        
	.byte	0                       
	.byte	0                       
	.uleb128 Ltmp394-Lfunc_begin10  
	.uleb128 Ltmp397-Ltmp394        
	.uleb128 Ltmp398-Lfunc_begin10  
	.byte	0                       
	.uleb128 Ltmp399-Lfunc_begin10  
	.uleb128 Ltmp400-Ltmp399        
	.uleb128 Ltmp574-Lfunc_begin10  
	.byte	0                       
	.uleb128 Ltmp401-Lfunc_begin10  
	.uleb128 Ltmp402-Ltmp401        
	.uleb128 Ltmp569-Lfunc_begin10  
	.byte	0                       
	.uleb128 Ltmp562-Lfunc_begin10  
	.uleb128 Ltmp563-Ltmp562        
	.uleb128 Ltmp564-Lfunc_begin10  
	.byte	0                       
	.uleb128 Ltmp403-Lfunc_begin10  
	.uleb128 Ltmp404-Ltmp403        
	.uleb128 Ltmp561-Lfunc_begin10  
	.byte	0                       
	.uleb128 Ltmp405-Lfunc_begin10  
	.uleb128 Ltmp406-Ltmp405        
	.uleb128 Ltmp414-Lfunc_begin10  
	.byte	0                       
	.uleb128 Ltmp407-Lfunc_begin10  
	.uleb128 Ltmp408-Ltmp407        
	.uleb128 Ltmp409-Lfunc_begin10  
	.byte	0                       
	.uleb128 Ltmp412-Lfunc_begin10  
	.uleb128 Ltmp413-Ltmp412        
	.uleb128 Ltmp414-Lfunc_begin10  
	.byte	0                       
	.uleb128 Ltmp415-Lfunc_begin10  
	.uleb128 Ltmp416-Ltmp415        
	.uleb128 Ltmp556-Lfunc_begin10  
	.byte	0                       
	.uleb128 Ltmp417-Lfunc_begin10  
	.uleb128 Ltmp418-Ltmp417        
	.uleb128 Ltmp433-Lfunc_begin10  
	.byte	0                       
	.uleb128 Ltmp419-Lfunc_begin10  
	.uleb128 Ltmp420-Ltmp419        
	.uleb128 Ltmp428-Lfunc_begin10  
	.byte	0                       
	.uleb128 Ltmp421-Lfunc_begin10  
	.uleb128 Ltmp422-Ltmp421        
	.uleb128 Ltmp423-Lfunc_begin10  
	.byte	0                       
	.uleb128 Ltmp426-Lfunc_begin10  
	.uleb128 Ltmp427-Ltmp426        
	.uleb128 Ltmp428-Lfunc_begin10  
	.byte	0                       
	.uleb128 Ltmp431-Lfunc_begin10  
	.uleb128 Ltmp432-Ltmp431        
	.uleb128 Ltmp433-Lfunc_begin10  
	.byte	0                       
	.uleb128 Ltmp434-Lfunc_begin10  
	.uleb128 Ltmp437-Ltmp434        
	.uleb128 Ltmp450-Lfunc_begin10  
	.byte	0                       
	.uleb128 Ltmp438-Lfunc_begin10  
	.uleb128 Ltmp439-Ltmp438        
	.uleb128 Ltmp447-Lfunc_begin10  
	.byte	0                       
	.uleb128 Ltmp440-Lfunc_begin10  
	.uleb128 Ltmp441-Ltmp440        
	.uleb128 Ltmp442-Lfunc_begin10  
	.byte	0                       
	.uleb128 Ltmp445-Lfunc_begin10  
	.uleb128 Ltmp446-Ltmp445        
	.uleb128 Ltmp447-Lfunc_begin10  
	.byte	0                       
	.uleb128 Ltmp448-Lfunc_begin10  
	.uleb128 Ltmp449-Ltmp448        
	.uleb128 Ltmp450-Lfunc_begin10  
	.byte	0                       
	.uleb128 Ltmp460-Lfunc_begin10  
	.uleb128 Ltmp461-Ltmp460        
	.uleb128 Ltmp483-Lfunc_begin10  
	.byte	0                       
	.uleb128 Ltmp462-Lfunc_begin10  
	.uleb128 Ltmp463-Ltmp462        
	.uleb128 Ltmp478-Lfunc_begin10  
	.byte	0                       
	.uleb128 Ltmp464-Lfunc_begin10  
	.uleb128 Ltmp465-Ltmp464        
	.uleb128 Ltmp473-Lfunc_begin10  
	.byte	0                       
	.uleb128 Ltmp466-Lfunc_begin10  
	.uleb128 Ltmp467-Ltmp466        
	.uleb128 Ltmp468-Lfunc_begin10  
	.byte	0                       
	.uleb128 Ltmp471-Lfunc_begin10  
	.uleb128 Ltmp472-Ltmp471        
	.uleb128 Ltmp473-Lfunc_begin10  
	.byte	0                       
	.uleb128 Ltmp476-Lfunc_begin10  
	.uleb128 Ltmp477-Ltmp476        
	.uleb128 Ltmp478-Lfunc_begin10  
	.byte	0                       
	.uleb128 Ltmp481-Lfunc_begin10  
	.uleb128 Ltmp482-Ltmp481        
	.uleb128 Ltmp483-Lfunc_begin10  
	.byte	0                       
	.uleb128 Ltmp484-Lfunc_begin10  
	.uleb128 Ltmp485-Ltmp484        
	.uleb128 Ltmp493-Lfunc_begin10  
	.byte	0                       
	.uleb128 Ltmp486-Lfunc_begin10  
	.uleb128 Ltmp487-Ltmp486        
	.uleb128 Ltmp488-Lfunc_begin10  
	.byte	0                       
	.uleb128 Ltmp491-Lfunc_begin10  
	.uleb128 Ltmp492-Ltmp491        
	.uleb128 Ltmp493-Lfunc_begin10  
	.byte	0                       
	.uleb128 Ltmp494-Lfunc_begin10  
	.uleb128 Ltmp495-Ltmp494        
	.uleb128 Ltmp517-Lfunc_begin10  
	.byte	0                       
	.uleb128 Ltmp496-Lfunc_begin10  
	.uleb128 Ltmp497-Ltmp496        
	.uleb128 Ltmp512-Lfunc_begin10  
	.byte	0                       
	.uleb128 Ltmp498-Lfunc_begin10  
	.uleb128 Ltmp499-Ltmp498        
	.uleb128 Ltmp507-Lfunc_begin10  
	.byte	0                       
	.uleb128 Ltmp500-Lfunc_begin10  
	.uleb128 Ltmp501-Ltmp500        
	.uleb128 Ltmp502-Lfunc_begin10  
	.byte	0                       
	.uleb128 Ltmp505-Lfunc_begin10  
	.uleb128 Ltmp506-Ltmp505        
	.uleb128 Ltmp507-Lfunc_begin10  
	.byte	0                       
	.uleb128 Ltmp510-Lfunc_begin10  
	.uleb128 Ltmp511-Ltmp510        
	.uleb128 Ltmp512-Lfunc_begin10  
	.byte	0                       
	.uleb128 Ltmp515-Lfunc_begin10  
	.uleb128 Ltmp516-Ltmp515        
	.uleb128 Ltmp517-Lfunc_begin10  
	.byte	0                       
	.uleb128 Ltmp518-Lfunc_begin10  
	.uleb128 Ltmp519-Ltmp518        
	.uleb128 Ltmp541-Lfunc_begin10  
	.byte	0                       
	.uleb128 Ltmp520-Lfunc_begin10  
	.uleb128 Ltmp521-Ltmp520        
	.uleb128 Ltmp536-Lfunc_begin10  
	.byte	0                       
	.uleb128 Ltmp522-Lfunc_begin10  
	.uleb128 Ltmp523-Ltmp522        
	.uleb128 Ltmp531-Lfunc_begin10  
	.byte	0                       
	.uleb128 Ltmp524-Lfunc_begin10  
	.uleb128 Ltmp525-Ltmp524        
	.uleb128 Ltmp526-Lfunc_begin10  
	.byte	0                       
	.uleb128 Ltmp529-Lfunc_begin10  
	.uleb128 Ltmp530-Ltmp529        
	.uleb128 Ltmp531-Lfunc_begin10  
	.byte	0                       
	.uleb128 Ltmp534-Lfunc_begin10  
	.uleb128 Ltmp535-Ltmp534        
	.uleb128 Ltmp536-Lfunc_begin10  
	.byte	0                       
	.uleb128 Ltmp539-Lfunc_begin10  
	.uleb128 Ltmp540-Ltmp539        
	.uleb128 Ltmp541-Lfunc_begin10  
	.byte	0                       
	.uleb128 Ltmp542-Lfunc_begin10  
	.uleb128 Ltmp543-Ltmp542        
	.uleb128 Ltmp551-Lfunc_begin10  
	.byte	0                       
	.uleb128 Ltmp544-Lfunc_begin10  
	.uleb128 Ltmp545-Ltmp544        
	.uleb128 Ltmp546-Lfunc_begin10  
	.byte	0                       
	.uleb128 Ltmp549-Lfunc_begin10  
	.uleb128 Ltmp550-Ltmp549        
	.uleb128 Ltmp551-Lfunc_begin10  
	.byte	0                       
	.uleb128 Ltmp554-Lfunc_begin10  
	.uleb128 Ltmp555-Ltmp554        
	.uleb128 Ltmp556-Lfunc_begin10  
	.byte	0                       
	.uleb128 Ltmp559-Lfunc_begin10  
	.uleb128 Ltmp560-Ltmp559        
	.uleb128 Ltmp561-Lfunc_begin10  
	.byte	0                       
	.uleb128 Ltmp567-Lfunc_begin10  
	.uleb128 Ltmp568-Ltmp567        
	.uleb128 Ltmp569-Lfunc_begin10  
	.byte	0                       
	.uleb128 Ltmp572-Lfunc_begin10  
	.uleb128 Ltmp573-Ltmp572        
	.uleb128 Ltmp574-Lfunc_begin10  
	.byte	0                       
	.uleb128 Ltmp573-Lfunc_begin10  
	.uleb128 Ltmp451-Ltmp573        
	.byte	0                       
	.byte	0                       
	.uleb128 Ltmp451-Lfunc_begin10  
	.uleb128 Ltmp452-Ltmp451        
	.uleb128 Ltmp453-Lfunc_begin10  
	.byte	0                       
	.uleb128 Ltmp454-Lfunc_begin10  
	.uleb128 Ltmp455-Ltmp454        
	.uleb128 Ltmp456-Lfunc_begin10  
	.byte	0                       
	.uleb128 Ltmp457-Lfunc_begin10  
	.uleb128 Ltmp458-Ltmp457        
	.uleb128 Ltmp459-Lfunc_begin10  
	.byte	0                       
	.uleb128 Ltmp458-Lfunc_begin10  
	.uleb128 Ltmp378-Ltmp458        
	.byte	0                       
	.byte	0                       
	.uleb128 Ltmp378-Lfunc_begin10  
	.uleb128 Ltmp379-Ltmp378        
	.uleb128 Ltmp380-Lfunc_begin10  
	.byte	0                       
	.uleb128 Ltmp381-Lfunc_begin10  
	.uleb128 Ltmp382-Ltmp381        
	.uleb128 Ltmp383-Lfunc_begin10  
	.byte	0                       
	.uleb128 Ltmp384-Lfunc_begin10  
	.uleb128 Ltmp385-Ltmp384        
	.uleb128 Ltmp386-Lfunc_begin10  
	.byte	0                       
	.uleb128 Ltmp385-Lfunc_begin10  
	.uleb128 Ltmp392-Ltmp385        
	.byte	0                       
	.byte	0                       
	.uleb128 Ltmp392-Lfunc_begin10  
	.uleb128 Ltmp576-Ltmp392        
	.uleb128 Ltmp577-Lfunc_begin10  
	.byte	1                       
	.uleb128 Ltmp576-Lfunc_begin10  
	.uleb128 Lfunc_end10-Ltmp576    
	.byte	0                       
	.byte	0                       
Lcst_end10:
	.byte	1                       
                                        
	.byte	0                       
	.p2align	2
                                        
	.long	0                       
Lttbase8:
	.p2align	2
                                        
	.section	__TEXT,__text,regular,pure_instructions
	.globl	__ZNK8CryptoPP17ModularArithmetic6SquareERKNS_7IntegerE 
	.weak_def_can_be_hidden	__ZNK8CryptoPP17ModularArithmetic6SquareERKNS_7IntegerE
	.p2align	4, 0x90
__ZNK8CryptoPP17ModularArithmetic6SquareERKNS_7IntegerE: 
Lfunc_begin11:
	.cfi_startproc
	.cfi_personality 155, ___gxx_personality_v0
	.cfi_lsda 16, Lexception11

	push	rbp
	.cfi_def_cfa_offset 16
	.cfi_offset rbp, -16
	mov	rbp, rsp
	.cfi_def_cfa_register rbp
	push	r14
	push	rbx
	sub	rsp, 96
	.cfi_offset rbx, -32
	.cfi_offset r14, -24
	mov	rbx, rdi
	lea	r14, [rbp - 112]
	mov	rdi, r14
	mov	rdx, rsi
	call	__ZNK8CryptoPP7Integer5TimesERKS0_
	lea	rdx, [rbx + 24]
Ltmp578:
	lea	rdi, [rbp - 64]
	mov	rsi, r14
	call	__ZNK8CryptoPP7Integer6ModuloERKS0_
Ltmp579:

	add	rbx, 120
Ltmp580:
	lea	rsi, [rbp - 64]
	mov	rdi, rbx
	call	__ZN8CryptoPP7IntegeraSERKS0_
Ltmp581:

	mov	r14, rax
	mov	rbx, qword ptr [rip + __ZTVN8CryptoPP7IntegerE@GOTPCREL]
	add	rbx, 16
	mov	qword ptr [rbp - 64], rbx
	mov	rdx, qword ptr [rbp - 32]
	test	rdx, rdx
	je	LBB33_4

	mov	rax, qword ptr [rbp - 48]
	mov	rcx, qword ptr [rbp - 40]
	cmp	rax, rcx
	cmovb	rcx, rax
	xor	eax, eax
	mov	rdi, rdx
	
	rep		stosq	qword ptr es:[rdi], rax
	
Ltmp585:
	mov	rdi, rdx
	call	__ZN8CryptoPP17AlignedDeallocateEPv
Ltmp586:
LBB33_4:
	mov	qword ptr [rbp - 112], rbx
	mov	rdx, qword ptr [rbp - 80]
	test	rdx, rdx
	je	LBB33_6

	mov	rax, qword ptr [rbp - 96]
	mov	rcx, qword ptr [rbp - 88]
	cmp	rax, rcx
	cmovb	rcx, rax
	xor	eax, eax
	mov	rdi, rdx
	
	rep		stosq	qword ptr es:[rdi], rax
	
	mov	rdi, rdx
	call	__ZN8CryptoPP17AlignedDeallocateEPv
LBB33_6:
	mov	rax, r14
	add	rsp, 96
	pop	rbx
	pop	r14
	pop	rbp
	ret
LBB33_8:
Ltmp582:
	mov	rbx, rax
	mov	rax, qword ptr [rip + __ZTVN8CryptoPP7IntegerE@GOTPCREL]
	add	rax, 16
	mov	qword ptr [rbp - 64], rax
	mov	rdx, qword ptr [rbp - 32]
	test	rdx, rdx
	je	LBB33_10

	mov	rax, qword ptr [rbp - 48]
	mov	rcx, qword ptr [rbp - 40]
	cmp	rax, rcx
	cmovb	rcx, rax
	xor	eax, eax
	mov	rdi, rdx
	
	rep		stosq	qword ptr es:[rdi], rax
	
Ltmp583:
	mov	rdi, rdx
	call	__ZN8CryptoPP17AlignedDeallocateEPv
Ltmp584:
	jmp	LBB33_10
LBB33_7:
Ltmp587:
	mov	rbx, rax
LBB33_10:
	mov	rax, qword ptr [rip + __ZTVN8CryptoPP7IntegerE@GOTPCREL]
	add	rax, 16
	mov	qword ptr [rbp - 112], rax
	mov	rdx, qword ptr [rbp - 80]
	test	rdx, rdx
	je	LBB33_12

	mov	rax, qword ptr [rbp - 96]
	mov	rcx, qword ptr [rbp - 88]
	cmp	rax, rcx
	cmovb	rcx, rax
	xor	eax, eax
	mov	rdi, rdx
	
	rep		stosq	qword ptr es:[rdi], rax
	
Ltmp588:
	mov	rdi, rdx
	call	__ZN8CryptoPP17AlignedDeallocateEPv
Ltmp589:
LBB33_12:
	mov	rdi, rbx
	call	__Unwind_Resume
	ud2
LBB33_13:
Ltmp590:
	mov	rdi, rax
	call	___clang_call_terminate
Lfunc_end11:
	.cfi_endproc
	.section	__TEXT,__gcc_except_tab
	.p2align	2
GCC_except_table33:
Lexception11:
	.byte	255                     
	.byte	155                     
	.uleb128 Lttbase9-Lttbaseref9
Lttbaseref9:
	.byte	1                       
	.uleb128 Lcst_end11-Lcst_begin11
Lcst_begin11:
	.uleb128 Lfunc_begin11-Lfunc_begin11 
	.uleb128 Ltmp578-Lfunc_begin11  
	.byte	0                       
	.byte	0                       
	.uleb128 Ltmp578-Lfunc_begin11  
	.uleb128 Ltmp579-Ltmp578        
	.uleb128 Ltmp587-Lfunc_begin11  
	.byte	0                       
	.uleb128 Ltmp580-Lfunc_begin11  
	.uleb128 Ltmp581-Ltmp580        
	.uleb128 Ltmp582-Lfunc_begin11  
	.byte	0                       
	.uleb128 Ltmp585-Lfunc_begin11  
	.uleb128 Ltmp586-Ltmp585        
	.uleb128 Ltmp587-Lfunc_begin11  
	.byte	0                       
	.uleb128 Ltmp586-Lfunc_begin11  
	.uleb128 Ltmp583-Ltmp586        
	.byte	0                       
	.byte	0                       
	.uleb128 Ltmp583-Lfunc_begin11  
	.uleb128 Ltmp589-Ltmp583        
	.uleb128 Ltmp590-Lfunc_begin11  
	.byte	1                       
	.uleb128 Ltmp589-Lfunc_begin11  
	.uleb128 Lfunc_end11-Ltmp589    
	.byte	0                       
	.byte	0                       
Lcst_end11:
	.byte	1                       
                                        
	.byte	0                       
	.p2align	2
                                        
	.long	0                       
Lttbase9:
	.p2align	2
                                        
	.section	__TEXT,__text,regular,pure_instructions
	.globl	__ZN8CryptoPP21InvertibleRSAFunction19BERDecodePrivateKeyERNS_22BufferedTransformationEbm 
	.p2align	4, 0x90
__ZN8CryptoPP21InvertibleRSAFunction19BERDecodePrivateKeyERNS_22BufferedTransformationEbm: 
Lfunc_begin12:
	.cfi_startproc
	.cfi_personality 155, ___gxx_personality_v0
	.cfi_lsda 16, Lexception12

	push	rbp
	.cfi_def_cfa_offset 16
	.cfi_offset rbp, -16
	mov	rbp, rsp
	.cfi_def_cfa_register rbp
	push	r14
	push	rbx
	sub	rsp, 80
	.cfi_offset rbx, -32
	.cfi_offset r14, -24
	mov	rbx, rdi
	mov	rax, qword ptr [rip + ___stack_chk_guard@GOTPCREL]
	mov	rax, qword ptr [rax]
	mov	qword ptr [rbp - 24], rax
	lea	r14, [rbp - 80]
	mov	rdi, r14
	mov	edx, 48
	call	__ZN8CryptoPP17BERGeneralDecoderC2ERNS_22BufferedTransformationEh
	mov	rax, qword ptr [rip + __ZTVN8CryptoPP18BERSequenceDecoderE@GOTPCREL]
	lea	rcx, [rax + 16]
	mov	qword ptr [rbp - 80], rcx
	add	rax, 424
	mov	qword ptr [rbp - 72], rax
Ltmp591:
	lea	rsi, [rbp - 84]
	mov	rdi, r14
	mov	edx, 2
	xor	ecx, ecx
	xor	r8d, r8d
	call	__ZN8CryptoPP17BERDecodeUnsignedIjEEvRNS_22BufferedTransformationERT_hS3_S3_
Ltmp592:

	lea	rdi, [rbx + 24]
Ltmp593:
	lea	rsi, [rbp - 80]
	call	__ZN8CryptoPP7Integer9BERDecodeERNS_22BufferedTransformationE
Ltmp594:

	lea	rdi, [rbx + 72]
Ltmp595:
	lea	rsi, [rbp - 80]
	call	__ZN8CryptoPP7Integer9BERDecodeERNS_22BufferedTransformationE
Ltmp596:

	lea	rdi, [rbx + 224]
Ltmp597:
	lea	rsi, [rbp - 80]
	call	__ZN8CryptoPP7Integer9BERDecodeERNS_22BufferedTransformationE
Ltmp598:

	lea	rdi, [rbx + 272]
Ltmp599:
	lea	rsi, [rbp - 80]
	call	__ZN8CryptoPP7Integer9BERDecodeERNS_22BufferedTransformationE
Ltmp600:

	lea	rdi, [rbx + 320]
Ltmp601:
	lea	rsi, [rbp - 80]
	call	__ZN8CryptoPP7Integer9BERDecodeERNS_22BufferedTransformationE
Ltmp602:

	lea	rdi, [rbx + 368]
Ltmp603:
	lea	rsi, [rbp - 80]
	call	__ZN8CryptoPP7Integer9BERDecodeERNS_22BufferedTransformationE
Ltmp604:

	lea	rdi, [rbx + 416]
Ltmp605:
	lea	rsi, [rbp - 80]
	call	__ZN8CryptoPP7Integer9BERDecodeERNS_22BufferedTransformationE
Ltmp606:

	add	rbx, 464
Ltmp607:
	lea	rsi, [rbp - 80]
	mov	rdi, rbx
	call	__ZN8CryptoPP7Integer9BERDecodeERNS_22BufferedTransformationE
Ltmp608:

Ltmp609:
	lea	rdi, [rbp - 80]
	call	__ZN8CryptoPP17BERGeneralDecoder10MessageEndEv
Ltmp610:

	lea	rdi, [rbp - 80]
	call	__ZN8CryptoPP17BERGeneralDecoderD2Ev
	mov	rax, qword ptr [rip + ___stack_chk_guard@GOTPCREL]
	mov	rax, qword ptr [rax]
	cmp	rax, qword ptr [rbp - 24]
	jne	LBB34_15

	add	rsp, 80
	pop	rbx
	pop	r14
	pop	rbp
	ret
LBB34_15:
	call	___stack_chk_fail
LBB34_12:
Ltmp611:
	mov	rbx, rax
Ltmp612:
	lea	rdi, [rbp - 80]
	call	__ZN8CryptoPP17BERGeneralDecoderD2Ev
Ltmp613:

	mov	rdi, rbx
	call	__Unwind_Resume
	ud2
LBB34_14:
Ltmp614:
	mov	rdi, rax
	call	___clang_call_terminate
Lfunc_end12:
	.cfi_endproc
	.section	__TEXT,__gcc_except_tab
	.p2align	2
GCC_except_table34:
Lexception12:
	.byte	255                     
	.byte	155                     
	.uleb128 Lttbase10-Lttbaseref10
Lttbaseref10:
	.byte	1                       
	.uleb128 Lcst_end12-Lcst_begin12
Lcst_begin12:
	.uleb128 Lfunc_begin12-Lfunc_begin12 
	.uleb128 Ltmp591-Lfunc_begin12  
	.byte	0                       
	.byte	0                       
	.uleb128 Ltmp591-Lfunc_begin12  
	.uleb128 Ltmp610-Ltmp591        
	.uleb128 Ltmp611-Lfunc_begin12  
	.byte	0                       
	.uleb128 Ltmp610-Lfunc_begin12  
	.uleb128 Ltmp612-Ltmp610        
	.byte	0                       
	.byte	0                       
	.uleb128 Ltmp612-Lfunc_begin12  
	.uleb128 Ltmp613-Ltmp612        
	.uleb128 Ltmp614-Lfunc_begin12  
	.byte	1                       
	.uleb128 Ltmp613-Lfunc_begin12  
	.uleb128 Lfunc_end12-Ltmp613    
	.byte	0                       
	.byte	0                       
Lcst_end12:
	.byte	1                       
                                        
	.byte	0                       
	.p2align	2
                                        
	.long	0                       
Lttbase10:
	.p2align	2
                                        
	.section	__TEXT,__text,regular,pure_instructions
	.globl	__ZN8CryptoPP17BERDecodeUnsignedIjEEvRNS_22BufferedTransformationERT_hS3_S3_ 
	.weak_def_can_be_hidden	__ZN8CryptoPP17BERDecodeUnsignedIjEEvRNS_22BufferedTransformationERT_hS3_S3_
	.p2align	4, 0x90
__ZN8CryptoPP17BERDecodeUnsignedIjEEvRNS_22BufferedTransformationERT_hS3_S3_: 
Lfunc_begin13:
	.cfi_startproc
	.cfi_personality 155, ___gxx_personality_v0
	.cfi_lsda 16, Lexception13

	push	rbp
	.cfi_def_cfa_offset 16
	.cfi_offset rbp, -16
	mov	rbp, rsp
	.cfi_def_cfa_register rbp
	push	r15
	push	r14
	push	r13
	push	r12
	push	rbx
	sub	rsp, 56
	.cfi_offset rbx, -56
	.cfi_offset r12, -48
	.cfi_offset r13, -40
	.cfi_offset r14, -32
	.cfi_offset r15, -24
	mov	ebx, r8d
	mov	dword ptr [rbp - 84], ecx 
	mov	r13d, edx
	mov	r12, rsi
	mov	r14, rdi
	mov	rax, qword ptr [rdi]
	lea	rsi, [rbp - 41]
	call	qword ptr [rax + 168]
	test	rax, rax
	je	LBB35_2

	cmp	byte ptr [rbp - 41], r13b
	jne	LBB35_2

	mov	dword ptr [rbp - 88], ebx 
	lea	rsi, [rbp - 80]
	mov	rdi, r14
	call	__ZN8CryptoPP15BERLengthDecodeERNS_22BufferedTransformationERm
	test	al, al
	je	LBB35_7

	mov	rbx, qword ptr [rbp - 80]
	mov	rax, qword ptr [r14]
	mov	rdi, r14
	call	qword ptr [rax + 152]
	cmp	rbx, rax
	ja	LBB35_10

	mov	rdi, qword ptr [rbp - 80]
	cmp	r13b, 1
	jne	LBB35_16

	cmp	rdi, 1
	jne	LBB35_14
LBB35_16:
	or	r13b, 8
	cmp	r13b, 10
	mov	qword ptr [rbp - 96], rdi 
	jne	LBB35_20

	test	rdi, rdi
	jne	LBB35_22

	mov	edi, 40
	call	___cxa_allocate_exception
	mov	r14, rax
Ltmp621:
	mov	rdi, rax
	call	__ZN8CryptoPP12BERDecodeErrC1Ev
Ltmp622:
	jmp	LBB35_3
LBB35_20:
	test	rdi, rdi
	je	LBB35_21
LBB35_22:
	call	__ZN8CryptoPP17UnalignedAllocateEm
	mov	r13, rax
	mov	r15, qword ptr [rbp - 80]
LBB35_23:
	mov	rax, qword ptr [r14]
Ltmp624:
	mov	rdi, r14
	mov	rsi, r13
	mov	rdx, r15
	call	qword ptr [rax + 176]
Ltmp625:

	cmp	r15, rax
	jne	LBB35_25

	mov	rcx, qword ptr [rbp - 80]
	cmp	rcx, 5
	jb	LBB35_47

	lea	rax, [rcx + r13 - 4]
	mov	rdx, r13
	.p2align	4, 0x90
LBB35_36:                               
	cmp	byte ptr [rdx], 0
	jne	LBB35_42

	dec	rcx
	mov	qword ptr [rbp - 80], rcx
	inc	rdx
	cmp	rcx, 4
	ja	LBB35_36

	mov	dword ptr [r12], 0
	mov	ecx, 4
	jmp	LBB35_39
LBB35_47:
	mov	dword ptr [r12], 0
	mov	rax, r13
	test	rcx, rcx
	je	LBB35_48
LBB35_39:
	xor	edi, edi
	mov	edx, 1
	xor	ebx, ebx
	.p2align	4, 0x90
LBB35_40:                               
	shl	edi, 8
	movzx	esi, byte ptr [rax + rbx]
	or	esi, edi
	mov	dword ptr [r12], esi
	mov	ebx, edx
	inc	edx
	mov	edi, esi
	cmp	rcx, rbx
	ja	LBB35_40

	cmp	esi, dword ptr [rbp - 84] 
	jb	LBB35_51
LBB35_50:
	cmp	esi, dword ptr [rbp - 88] 
	ja	LBB35_51

	test	r13, r13
	je	LBB35_58

	xor	eax, eax
	mov	rcx, qword ptr [rbp - 96] 
	mov	rdi, r13
	
	rep		stosb	byte ptr es:[rdi], al
	
	mov	rdi, r13
	call	__ZN8CryptoPP19UnalignedDeallocateEPv
LBB35_58:
	add	rsp, 56
	pop	rbx
	pop	r12
	pop	r13
	pop	r14
	pop	r15
	pop	rbp
	ret
LBB35_48:
	xor	esi, esi
	cmp	esi, dword ptr [rbp - 84] 
	jae	LBB35_50
LBB35_51:
	mov	edi, 40
	call	___cxa_allocate_exception
	mov	r14, rax
	mov	byte ptr [rbp - 72], 32
	movabs	rax, 8026370441617753410
	mov	qword ptr [rbp - 71], rax
	movabs	rax, 8245935278387127652
	mov	qword ptr [rbp - 63], rax
	mov	byte ptr [rbp - 55], 0
	mov	rax, qword ptr [rip + __ZTVN8CryptoPP9ExceptionE@GOTPCREL]
	add	rax, 16
	mov	qword ptr [r14], rax
	mov	dword ptr [r14 + 8], 1
	lea	rdi, [r14 + 16]
Ltmp637:
	lea	rsi, [rbp - 72]
	call	__ZNSt3__112basic_stringIcNS_11char_traitsIcEENS_9allocatorIcEEEC1ERKS5_
Ltmp638:

	mov	rax, qword ptr [rip + __ZTVN8CryptoPP15InvalidArgumentE@GOTPCREL]
	add	rax, 16
	mov	qword ptr [r14], rax
	test	byte ptr [rbp - 72], 1
	je	LBB35_54

	mov	rdi, qword ptr [rbp - 56]
	call	__ZdlPv
LBB35_54:
	mov	rax, qword ptr [rip + __ZTVN8CryptoPP12BERDecodeErrE@GOTPCREL]
	add	rax, 16
	mov	qword ptr [r14], rax
Ltmp640:
	mov	rsi, qword ptr [rip + __ZTIN8CryptoPP12BERDecodeErrE@GOTPCREL]
	mov	rdx, qword ptr [rip + __ZN8CryptoPP12BERDecodeErrD1Ev@GOTPCREL]
	mov	rdi, r14
	call	___cxa_throw
Ltmp641:
	jmp	LBB35_29
LBB35_21:
	xor	r15d, r15d
	xor	r13d, r13d
	jmp	LBB35_23
LBB35_42:
	mov	edi, 40
	call	___cxa_allocate_exception
	mov	r14, rax
	mov	byte ptr [rbp - 72], 32
	movabs	rax, 8026370441617753410
	mov	qword ptr [rbp - 71], rax
	movabs	rax, 8245935278387127652
	mov	qword ptr [rbp - 63], rax
	mov	byte ptr [rbp - 55], 0
	mov	rax, qword ptr [rip + __ZTVN8CryptoPP9ExceptionE@GOTPCREL]
	add	rax, 16
	mov	qword ptr [r14], rax
	mov	dword ptr [r14 + 8], 1
	lea	rdi, [r14 + 16]
Ltmp632:
	lea	rsi, [rbp - 72]
	call	__ZNSt3__112basic_stringIcNS_11char_traitsIcEENS_9allocatorIcEEEC1ERKS5_
Ltmp633:

	mov	rax, qword ptr [rip + __ZTVN8CryptoPP15InvalidArgumentE@GOTPCREL]
	add	rax, 16
	mov	qword ptr [r14], rax
	test	byte ptr [rbp - 72], 1
	je	LBB35_45

	mov	rdi, qword ptr [rbp - 56]
	call	__ZdlPv
LBB35_45:
	mov	rax, qword ptr [rip + __ZTVN8CryptoPP12BERDecodeErrE@GOTPCREL]
	add	rax, 16
	mov	qword ptr [r14], rax
Ltmp635:
	mov	rsi, qword ptr [rip + __ZTIN8CryptoPP12BERDecodeErrE@GOTPCREL]
	mov	rdx, qword ptr [rip + __ZN8CryptoPP12BERDecodeErrD1Ev@GOTPCREL]
	mov	rdi, r14
	call	___cxa_throw
Ltmp636:
LBB35_29:
	ud2
LBB35_2:
	mov	edi, 40
	call	___cxa_allocate_exception
	mov	r14, rax
Ltmp615:
	mov	rdi, rax
	call	__ZN8CryptoPP12BERDecodeErrC1Ev
Ltmp616:
	jmp	LBB35_3
LBB35_7:
	mov	edi, 40
	call	___cxa_allocate_exception
	mov	r14, rax
Ltmp618:
	mov	rdi, rax
	call	__ZN8CryptoPP12BERDecodeErrC1Ev
Ltmp619:
	jmp	LBB35_3
LBB35_10:
	mov	edi, 40
	call	___cxa_allocate_exception
	mov	r14, rax
Ltmp649:
	mov	rdi, rax
	call	__ZN8CryptoPP12BERDecodeErrC1Ev
Ltmp650:
	jmp	LBB35_3
LBB35_14:
	mov	edi, 40
	call	___cxa_allocate_exception
	mov	r14, rax
Ltmp646:
	mov	rdi, rax
	call	__ZN8CryptoPP12BERDecodeErrC1Ev
Ltmp647:
LBB35_3:
	mov	rsi, qword ptr [rip + __ZTIN8CryptoPP12BERDecodeErrE@GOTPCREL]
	mov	rdx, qword ptr [rip + __ZN8CryptoPP12BERDecodeErrD1Ev@GOTPCREL]
	mov	rdi, r14
	call	___cxa_throw
LBB35_25:
	mov	edi, 40
	call	___cxa_allocate_exception
	mov	r14, rax
	mov	byte ptr [rbp - 72], 32
	movabs	rax, 8026370441617753410
	mov	qword ptr [rbp - 71], rax
	movabs	rax, 8245935278387127652
	mov	qword ptr [rbp - 63], rax
	mov	byte ptr [rbp - 55], 0
	mov	rax, qword ptr [rip + __ZTVN8CryptoPP9ExceptionE@GOTPCREL]
	add	rax, 16
	mov	qword ptr [r14], rax
	mov	dword ptr [r14 + 8], 1
	lea	rdi, [r14 + 16]
Ltmp626:
	lea	rsi, [rbp - 72]
	call	__ZNSt3__112basic_stringIcNS_11char_traitsIcEENS_9allocatorIcEEEC1ERKS5_
Ltmp627:

	mov	rax, qword ptr [rip + __ZTVN8CryptoPP15InvalidArgumentE@GOTPCREL]
	add	rax, 16
	mov	qword ptr [r14], rax
	test	byte ptr [rbp - 72], 1
	je	LBB35_28

	mov	rdi, qword ptr [rbp - 56]
	call	__ZdlPv
LBB35_28:
	mov	rax, qword ptr [rip + __ZTVN8CryptoPP12BERDecodeErrE@GOTPCREL]
	add	rax, 16
	mov	qword ptr [r14], rax
Ltmp629:
	mov	rsi, qword ptr [rip + __ZTIN8CryptoPP12BERDecodeErrE@GOTPCREL]
	mov	rdx, qword ptr [rip + __ZN8CryptoPP12BERDecodeErrD1Ev@GOTPCREL]
	mov	rdi, r14
	call	___cxa_throw
Ltmp630:
	jmp	LBB35_29
LBB35_19:
Ltmp623:
	jmp	LBB35_5
LBB35_30:
Ltmp628:
	jmp	LBB35_31
LBB35_15:
Ltmp648:
	jmp	LBB35_5
LBB35_11:
Ltmp651:
	jmp	LBB35_5
LBB35_8:
Ltmp620:
	jmp	LBB35_5
LBB35_4:
Ltmp617:
LBB35_5:
	mov	rbx, rax
	mov	rdi, r14
	call	___cxa_free_exception
	jmp	LBB35_63
LBB35_55:
Ltmp639:
	jmp	LBB35_31
LBB35_46:
Ltmp634:
LBB35_31:
	mov	rbx, rax
	mov	rdi, r14
	call	__ZNSt9exceptionD2Ev
	test	byte ptr [rbp - 72], 1
	je	LBB35_33

	mov	rdi, qword ptr [rbp - 56]
	call	__ZdlPv
LBB35_33:
	mov	rdi, r14
	call	___cxa_free_exception
	jmp	LBB35_61
LBB35_41:
Ltmp642:
	jmp	LBB35_60
LBB35_59:
Ltmp631:
LBB35_60:
	mov	rbx, rax
LBB35_61:
	test	r13, r13
	je	LBB35_63

	xor	eax, eax
	mov	rdi, r13
	mov	rcx, qword ptr [rbp - 96] 
	
	rep		stosb	byte ptr es:[rdi], al
	
Ltmp643:
	mov	rdi, r13
	call	__ZN8CryptoPP19UnalignedDeallocateEPv
Ltmp644:
LBB35_63:
	mov	rdi, rbx
	call	__Unwind_Resume
	ud2
LBB35_64:
Ltmp645:
	mov	rdi, rax
	call	___clang_call_terminate
Lfunc_end13:
	.cfi_endproc
	.section	__TEXT,__gcc_except_tab
	.p2align	2
GCC_except_table35:
Lexception13:
	.byte	255                     
	.byte	155                     
	.uleb128 Lttbase11-Lttbaseref11
Lttbaseref11:
	.byte	1                       
	.uleb128 Lcst_end13-Lcst_begin13
Lcst_begin13:
	.uleb128 Lfunc_begin13-Lfunc_begin13 
	.uleb128 Ltmp621-Lfunc_begin13  
	.byte	0                       
	.byte	0                       
	.uleb128 Ltmp621-Lfunc_begin13  
	.uleb128 Ltmp622-Ltmp621        
	.uleb128 Ltmp623-Lfunc_begin13  
	.byte	0                       
	.uleb128 Ltmp622-Lfunc_begin13  
	.uleb128 Ltmp624-Ltmp622        
	.byte	0                       
	.byte	0                       
	.uleb128 Ltmp624-Lfunc_begin13  
	.uleb128 Ltmp625-Ltmp624        
	.uleb128 Ltmp631-Lfunc_begin13  
	.byte	0                       
	.uleb128 Ltmp625-Lfunc_begin13  
	.uleb128 Ltmp637-Ltmp625        
	.byte	0                       
	.byte	0                       
	.uleb128 Ltmp637-Lfunc_begin13  
	.uleb128 Ltmp638-Ltmp637        
	.uleb128 Ltmp639-Lfunc_begin13  
	.byte	0                       
	.uleb128 Ltmp640-Lfunc_begin13  
	.uleb128 Ltmp641-Ltmp640        
	.uleb128 Ltmp642-Lfunc_begin13  
	.byte	0                       
	.uleb128 Ltmp641-Lfunc_begin13  
	.uleb128 Ltmp632-Ltmp641        
	.byte	0                       
	.byte	0                       
	.uleb128 Ltmp632-Lfunc_begin13  
	.uleb128 Ltmp633-Ltmp632        
	.uleb128 Ltmp634-Lfunc_begin13  
	.byte	0                       
	.uleb128 Ltmp635-Lfunc_begin13  
	.uleb128 Ltmp636-Ltmp635        
	.uleb128 Ltmp642-Lfunc_begin13  
	.byte	0                       
	.uleb128 Ltmp636-Lfunc_begin13  
	.uleb128 Ltmp615-Ltmp636        
	.byte	0                       
	.byte	0                       
	.uleb128 Ltmp615-Lfunc_begin13  
	.uleb128 Ltmp616-Ltmp615        
	.uleb128 Ltmp617-Lfunc_begin13  
	.byte	0                       
	.uleb128 Ltmp616-Lfunc_begin13  
	.uleb128 Ltmp618-Ltmp616        
	.byte	0                       
	.byte	0                       
	.uleb128 Ltmp618-Lfunc_begin13  
	.uleb128 Ltmp619-Ltmp618        
	.uleb128 Ltmp620-Lfunc_begin13  
	.byte	0                       
	.uleb128 Ltmp619-Lfunc_begin13  
	.uleb128 Ltmp649-Ltmp619        
	.byte	0                       
	.byte	0                       
	.uleb128 Ltmp649-Lfunc_begin13  
	.uleb128 Ltmp650-Ltmp649        
	.uleb128 Ltmp651-Lfunc_begin13  
	.byte	0                       
	.uleb128 Ltmp650-Lfunc_begin13  
	.uleb128 Ltmp646-Ltmp650        
	.byte	0                       
	.byte	0                       
	.uleb128 Ltmp646-Lfunc_begin13  
	.uleb128 Ltmp647-Ltmp646        
	.uleb128 Ltmp648-Lfunc_begin13  
	.byte	0                       
	.uleb128 Ltmp647-Lfunc_begin13  
	.uleb128 Ltmp626-Ltmp647        
	.byte	0                       
	.byte	0                       
	.uleb128 Ltmp626-Lfunc_begin13  
	.uleb128 Ltmp627-Ltmp626        
	.uleb128 Ltmp628-Lfunc_begin13  
	.byte	0                       
	.uleb128 Ltmp629-Lfunc_begin13  
	.uleb128 Ltmp630-Ltmp629        
	.uleb128 Ltmp631-Lfunc_begin13  
	.byte	0                       
	.uleb128 Ltmp630-Lfunc_begin13  
	.uleb128 Ltmp643-Ltmp630        
	.byte	0                       
	.byte	0                       
	.uleb128 Ltmp643-Lfunc_begin13  
	.uleb128 Ltmp644-Ltmp643        
	.uleb128 Ltmp645-Lfunc_begin13  
	.byte	1                       
	.uleb128 Ltmp644-Lfunc_begin13  
	.uleb128 Lfunc_end13-Ltmp644    
	.byte	0                       
	.byte	0                       
Lcst_end13:
	.byte	1                       
                                        
	.byte	0                       
	.p2align	2
                                        
	.long	0                       
Lttbase11:
	.p2align	2
                                        
	.section	__TEXT,__text,regular,pure_instructions
	.globl	__ZThn128_N8CryptoPP21InvertibleRSAFunction19BERDecodePrivateKeyERNS_22BufferedTransformationEbm 
	.p2align	4, 0x90
__ZThn128_N8CryptoPP21InvertibleRSAFunction19BERDecodePrivateKeyERNS_22BufferedTransformationEbm: 
	.cfi_startproc

	push	rbp
	.cfi_def_cfa_offset 16
	.cfi_offset rbp, -16
	mov	rbp, rsp
	.cfi_def_cfa_register rbp
	add	rdi, -128
	xor	edx, edx
	pop	rbp
	jmp	__ZN8CryptoPP21InvertibleRSAFunction19BERDecodePrivateKeyERNS_22BufferedTransformationEbm 
	.cfi_endproc
                                        
	.globl	__ZNK8CryptoPP21InvertibleRSAFunction19DEREncodePrivateKeyERNS_22BufferedTransformationE 
	.p2align	4, 0x90
__ZNK8CryptoPP21InvertibleRSAFunction19DEREncodePrivateKeyERNS_22BufferedTransformationE: 
Lfunc_begin14:
	.cfi_startproc
	.cfi_personality 155, ___gxx_personality_v0
	.cfi_lsda 16, Lexception14

	push	rbp
	.cfi_def_cfa_offset 16
	.cfi_offset rbp, -16
	mov	rbp, rsp
	.cfi_def_cfa_register rbp
	push	r14
	push	rbx
	sub	rsp, 112
	.cfi_offset rbx, -32
	.cfi_offset r14, -24
	mov	rbx, rdi
	mov	rax, qword ptr [rip + ___stack_chk_guard@GOTPCREL]
	mov	rax, qword ptr [rax]
	mov	qword ptr [rbp - 24], rax
	lea	r14, [rbp - 120]
	mov	rdi, r14
	mov	edx, 48
	call	__ZN8CryptoPP17DERGeneralEncoderC2ERNS_22BufferedTransformationEh
	mov	rax, qword ptr [rip + __ZTVN8CryptoPP18DERSequenceEncoderE@GOTPCREL]
	lea	rcx, [rax + 16]
	mov	qword ptr [rbp - 120], rcx
	add	rax, 416
	mov	qword ptr [rbp - 112], rax
	mov	byte ptr [rbp - 124], 0
	mov	dword ptr [rbp - 128], 0
	mov	byte ptr [rbp - 121], 2
Ltmp652:
	lea	rsi, [rbp - 121]
	mov	edx, 1
	mov	rdi, r14
	xor	ecx, ecx
	mov	r8d, 1
	call	__ZN8CryptoPP9ByteQueue4Put2EPKhmib
Ltmp653:

Ltmp654:
	lea	rdi, [rbp - 120]
	mov	esi, 1
	call	__ZN8CryptoPP15DERLengthEncodeERNS_22BufferedTransformationEm
Ltmp655:

	lea	rsi, [rbp - 124]
	mov	rax, qword ptr [rbp - 120]
Ltmp656:
	lea	rdi, [rbp - 120]
	mov	edx, 1
	xor	ecx, ecx
	mov	r8d, 1
	call	qword ptr [rax + 56]
Ltmp657:

	lea	rdi, [rbx + 24]
Ltmp658:
	lea	rsi, [rbp - 120]
	call	__ZNK8CryptoPP7Integer9DEREncodeERNS_22BufferedTransformationE
Ltmp659:

	lea	rdi, [rbx + 72]
Ltmp660:
	lea	rsi, [rbp - 120]
	call	__ZNK8CryptoPP7Integer9DEREncodeERNS_22BufferedTransformationE
Ltmp661:

	lea	rdi, [rbx + 224]
Ltmp662:
	lea	rsi, [rbp - 120]
	call	__ZNK8CryptoPP7Integer9DEREncodeERNS_22BufferedTransformationE
Ltmp663:

	lea	rdi, [rbx + 272]
Ltmp664:
	lea	rsi, [rbp - 120]
	call	__ZNK8CryptoPP7Integer9DEREncodeERNS_22BufferedTransformationE
Ltmp665:

	lea	rdi, [rbx + 320]
Ltmp666:
	lea	rsi, [rbp - 120]
	call	__ZNK8CryptoPP7Integer9DEREncodeERNS_22BufferedTransformationE
Ltmp667:

	lea	rdi, [rbx + 368]
Ltmp668:
	lea	rsi, [rbp - 120]
	call	__ZNK8CryptoPP7Integer9DEREncodeERNS_22BufferedTransformationE
Ltmp669:

	lea	rdi, [rbx + 416]
Ltmp670:
	lea	rsi, [rbp - 120]
	call	__ZNK8CryptoPP7Integer9DEREncodeERNS_22BufferedTransformationE
Ltmp671:

	add	rbx, 464
Ltmp672:
	lea	rsi, [rbp - 120]
	mov	rdi, rbx
	call	__ZNK8CryptoPP7Integer9DEREncodeERNS_22BufferedTransformationE
Ltmp673:

Ltmp674:
	lea	rdi, [rbp - 120]
	call	__ZN8CryptoPP17DERGeneralEncoder10MessageEndEv
Ltmp675:

	lea	rdi, [rbp - 120]
	call	__ZN8CryptoPP17DERGeneralEncoderD2Ev
	mov	rax, qword ptr [rip + ___stack_chk_guard@GOTPCREL]
	mov	rax, qword ptr [rax]
	cmp	rax, qword ptr [rbp - 24]
	jne	LBB37_17

	add	rsp, 112
	pop	rbx
	pop	r14
	pop	rbp
	ret
LBB37_17:
	call	___stack_chk_fail
LBB37_14:
Ltmp676:
	mov	rbx, rax
Ltmp677:
	lea	rdi, [rbp - 120]
	call	__ZN8CryptoPP17DERGeneralEncoderD2Ev
Ltmp678:

	mov	rdi, rbx
	call	__Unwind_Resume
	ud2
LBB37_16:
Ltmp679:
	mov	rdi, rax
	call	___clang_call_terminate
Lfunc_end14:
	.cfi_endproc
	.section	__TEXT,__gcc_except_tab
	.p2align	2
GCC_except_table37:
Lexception14:
	.byte	255                     
	.byte	155                     
	.uleb128 Lttbase12-Lttbaseref12
Lttbaseref12:
	.byte	1                       
	.uleb128 Lcst_end14-Lcst_begin14
Lcst_begin14:
	.uleb128 Lfunc_begin14-Lfunc_begin14 
	.uleb128 Ltmp652-Lfunc_begin14  
	.byte	0                       
	.byte	0                       
	.uleb128 Ltmp652-Lfunc_begin14  
	.uleb128 Ltmp675-Ltmp652        
	.uleb128 Ltmp676-Lfunc_begin14  
	.byte	0                       
	.uleb128 Ltmp675-Lfunc_begin14  
	.uleb128 Ltmp677-Ltmp675        
	.byte	0                       
	.byte	0                       
	.uleb128 Ltmp677-Lfunc_begin14  
	.uleb128 Ltmp678-Ltmp677        
	.uleb128 Ltmp679-Lfunc_begin14  
	.byte	1                       
	.uleb128 Ltmp678-Lfunc_begin14  
	.uleb128 Lfunc_end14-Ltmp678    
	.byte	0                       
	.byte	0                       
Lcst_end14:
	.byte	1                       
                                        
	.byte	0                       
	.p2align	2
                                        
	.long	0                       
Lttbase12:
	.p2align	2
                                        
	.section	__TEXT,__text,regular,pure_instructions
	.globl	__ZThn128_NK8CryptoPP21InvertibleRSAFunction19DEREncodePrivateKeyERNS_22BufferedTransformationE 
	.p2align	4, 0x90
__ZThn128_NK8CryptoPP21InvertibleRSAFunction19DEREncodePrivateKeyERNS_22BufferedTransformationE: 
	.cfi_startproc

	push	rbp
	.cfi_def_cfa_offset 16
	.cfi_offset rbp, -16
	mov	rbp, rsp
	.cfi_def_cfa_register rbp
	add	rdi, -128
	pop	rbp
	jmp	__ZNK8CryptoPP21InvertibleRSAFunction19DEREncodePrivateKeyERNS_22BufferedTransformationE 
	.cfi_endproc
                                        
	.section	__TEXT,__literal16,16byte_literals
	.p2align	4               
LCPI39_0:
	.quad	81                      
	.quad	71                      
	.section	__TEXT,__text,regular,pure_instructions
	.globl	__ZNK8CryptoPP21InvertibleRSAFunction16CalculateInverseERNS_21RandomNumberGeneratorERKNS_7IntegerE
	.p2align	4, 0x90
__ZNK8CryptoPP21InvertibleRSAFunction16CalculateInverseERNS_21RandomNumberGeneratorERKNS_7IntegerE: 
Lfunc_begin15:
	.cfi_startproc
	.cfi_personality 155, ___gxx_personality_v0
	.cfi_lsda 16, Lexception15

	push	rbp
	.cfi_def_cfa_offset 16
	.cfi_offset rbp, -16
	mov	rbp, rsp
	.cfi_def_cfa_register rbp
	push	r15
	push	r14
	push	r13
	push	r12
	push	rbx
	sub	rsp, 424
	.cfi_offset rbx, -56
	.cfi_offset r12, -48
	.cfi_offset r13, -40
	.cfi_offset r14, -32
	.cfi_offset r15, -24
	mov	qword ptr [rbp - 112], rcx 
	mov	qword ptr [rbp - 184], rdx 
	mov	rbx, rsi
	mov	r15, rdi
	mov	rax, qword ptr [rsi]
	mov	r12, qword ptr [rax - 24]
	lea	r14, [rsi + r12]
	call	__ZN8CryptoPP7NullRNGEv
	mov	rcx, qword ptr [rbx + r12]
	mov	rdi, r14
	mov	rsi, rax
	xor	edx, edx
	call	qword ptr [rcx + 40]
	mov	qword ptr [rbp - 120], rbx 
	add	rbx, 24
	lea	rdi, [rbp - 448]
	mov	rsi, rbx
	call	__ZN8CryptoPP17ModularArithmeticC2ERKNS_7IntegerE
Ltmp680:
	lea	rdi, [rbp - 280]
	call	__ZN8CryptoPP7IntegerC1Ev
Ltmp681:

Ltmp682:
	lea	rdi, [rbp - 232]
	call	__ZN8CryptoPP7IntegerC1Ev
Ltmp683:

	mov	qword ptr [rbp - 56], r15 
	lea	r15, [rbp - 104]
	lea	r14, [rbp - 280]
	mov	rax, qword ptr [rip + __ZTVN8CryptoPP7IntegerE@GOTPCREL]
	add	rax, 16
	mov	qword ptr [rbp - 48], rax 
	lea	r12, [rbp - 232]
	.p2align	4, 0x90
LBB39_3:                                
Ltmp684:
	call	__ZN8CryptoPP7Integer3OneEv
Ltmp685:

	mov	r13, rax
Ltmp686:
	call	__ZN8CryptoPP7Integer3OneEv
Ltmp687:

Ltmp688:
	mov	rdi, r15
	mov	rsi, rbx
	mov	rdx, rax
	call	__ZNK8CryptoPP7Integer5MinusERKS0_
Ltmp689:

Ltmp690:
	mov	rdi, r14
	mov	rsi, qword ptr [rbp - 184] 
	mov	rdx, r13
	mov	rcx, r15
	call	__ZN8CryptoPP7Integer9RandomizeERNS_21RandomNumberGeneratorERKS0_S4_
Ltmp691:

	mov	rax, qword ptr [rbp - 48] 
	mov	qword ptr [rbp - 104], rax
	mov	rdx, qword ptr [rbp - 72]
	test	rdx, rdx
	je	LBB39_9

	mov	rax, qword ptr [rbp - 88]
	mov	rcx, qword ptr [rbp - 80]
	cmp	rax, rcx
	cmovb	rcx, rax
	xor	eax, eax
	mov	rdi, rdx
	
	rep		stosq	qword ptr es:[rdi], rax
	
Ltmp695:
	mov	rdi, rdx
	call	__ZN8CryptoPP17AlignedDeallocateEPv
Ltmp696:
LBB39_9:                                
Ltmp698:
	lea	rdi, [rbp - 448]
	mov	rsi, r14
	call	__ZNK8CryptoPP17ModularArithmetic21MultiplicativeInverseERKNS_7IntegerE
Ltmp699:

Ltmp700:
	mov	rdi, r12
	mov	rsi, rax
	call	__ZN8CryptoPP7IntegeraSERKS0_
Ltmp701:

Ltmp702:
	mov	rdi, r12
	call	__ZNK8CryptoPP7IntegerntEv
Ltmp703:

	test	al, al
	jne	LBB39_3

	mov	rax, qword ptr [rbp - 120] 
	lea	rbx, [rax + 72]
Ltmp705:
	lea	rdi, [rbp - 104]
	lea	rsi, [rbp - 448]
	lea	rdx, [rbp - 280]
	mov	rcx, rbx
	call	__ZNK8CryptoPP12AbstractRingINS_7IntegerEE12ExponentiateERKS1_S4_
Ltmp706:
	mov	r14, qword ptr [rbp - 56] 

Ltmp707:
	lea	rdi, [rbp - 448]
	lea	rsi, [rbp - 104]
	mov	rdx, qword ptr [rbp - 112] 
	call	__ZNK8CryptoPP17ModularArithmetic8MultiplyERKNS_7IntegerES3_
Ltmp708:

Ltmp709:
	lea	rdi, [rbp - 104]
	mov	rsi, rax
	call	__ZN8CryptoPP7IntegeraSERKS0_
Ltmp710:

	mov	rax, qword ptr [rbp - 120] 
	lea	rdx, [rax + 416]
	lea	rcx, [rax + 368]
	lea	r8, [rax + 320]
	lea	r9, [rax + 272]
	lea	rax, [rax + 464]
Ltmp711:
	mov	qword ptr [rsp], rax
	lea	rsi, [rbp - 104]
	mov	rdi, r14
	call	__ZN8CryptoPP11ModularRootERKNS_7IntegerES2_S2_S2_S2_S2_
Ltmp712:

Ltmp714:
	lea	rdi, [rbp - 448]
	lea	rdx, [rbp - 232]
	mov	rsi, r14
	call	__ZNK8CryptoPP17ModularArithmetic8MultiplyERKNS_7IntegerES3_
Ltmp715:

Ltmp716:
	mov	rdi, r14
	mov	rsi, rax
	call	__ZN8CryptoPP7IntegeraSERKS0_
Ltmp717:

Ltmp719:
	lea	rdi, [rbp - 176]
	lea	rsi, [rbp - 448]
	mov	rdx, r14
	mov	rcx, rbx
	call	__ZNK8CryptoPP12AbstractRingINS_7IntegerEE12ExponentiateERKS1_S4_
Ltmp720:

Ltmp721:
	lea	rdi, [rbp - 176]
	mov	rsi, qword ptr [rbp - 112] 
	call	__ZNK8CryptoPP7Integer7CompareERKS0_
Ltmp722:

	mov	ebx, eax
	mov	rax, qword ptr [rbp - 48] 
	mov	qword ptr [rbp - 176], rax
	mov	rdx, qword ptr [rbp - 144]
	test	rdx, rdx
	je	LBB39_23

	mov	rax, qword ptr [rbp - 160]
	mov	rcx, qword ptr [rbp - 152]
	cmp	rax, rcx
	cmovb	rcx, rax
	xor	eax, eax
	mov	rdi, rdx
	
	rep		stosq	qword ptr es:[rdi], rax
	
Ltmp726:
	mov	rdi, rdx
	call	__ZN8CryptoPP17AlignedDeallocateEPv
Ltmp727:
LBB39_23:
	test	ebx, ebx
	jne	LBB39_24

	mov	rax, qword ptr [rbp - 48] 
	mov	qword ptr [rbp - 104], rax
	mov	rdx, qword ptr [rbp - 72]
	test	rdx, rdx
	je	LBB39_44

	mov	rax, qword ptr [rbp - 88]
	mov	rcx, qword ptr [rbp - 80]
	cmp	rax, rcx
	cmovb	rcx, rax
	xor	eax, eax
	mov	rdi, rdx
	
	rep		stosq	qword ptr es:[rdi], rax
	
Ltmp742:
	mov	rdi, rdx
	call	__ZN8CryptoPP17AlignedDeallocateEPv
Ltmp743:
LBB39_44:
	mov	rax, qword ptr [rbp - 48] 
	mov	qword ptr [rbp - 232], rax
	mov	rdx, qword ptr [rbp - 200]
	test	rdx, rdx
	je	LBB39_46

	mov	rax, qword ptr [rbp - 216]
	mov	rcx, qword ptr [rbp - 208]
	cmp	rax, rcx
	cmovb	rcx, rax
	xor	eax, eax
	mov	rdi, rdx
	
	rep		stosq	qword ptr es:[rdi], rax
	
Ltmp747:
	mov	rdi, rdx
	call	__ZN8CryptoPP17AlignedDeallocateEPv
Ltmp748:
LBB39_46:
	mov	rax, qword ptr [rbp - 48] 
	mov	qword ptr [rbp - 280], rax
	mov	rdx, qword ptr [rbp - 248]
	test	rdx, rdx
	je	LBB39_48

	mov	rax, qword ptr [rbp - 264]
	mov	rcx, qword ptr [rbp - 256]
	cmp	rax, rcx
	cmovb	rcx, rax
	xor	eax, eax
	mov	rdi, rdx
	
	rep		stosq	qword ptr es:[rdi], rax
	
Ltmp752:
	mov	rdi, rdx
	call	__ZN8CryptoPP17AlignedDeallocateEPv
Ltmp753:
LBB39_48:
	lea	rdi, [rbp - 448]
	call	__ZN8CryptoPP17ModularArithmeticD2Ev
	mov	rax, r14
	add	rsp, 424
	pop	rbx
	pop	r12
	pop	r13
	pop	r14
	pop	r15
	pop	rbp
	ret
LBB39_24:
	mov	edi, 40
	call	___cxa_allocate_exception
	mov	r15, rax
Ltmp729:
	mov	edi, 80
	call	__Znwm
Ltmp730:

	mov	rbx, rax
	mov	qword ptr [rbp - 160], rax
	movaps	xmm0, xmmword ptr [rip + LCPI39_0] 
	movaps	xmmword ptr [rbp - 176], xmm0
	lea	rsi, [rip + L_.str.3]
	mov	edx, 71
	mov	rdi, rax
	call	_memcpy
	mov	byte ptr [rbx + 71], 0
	mov	rax, qword ptr [rip + __ZTVN8CryptoPP9ExceptionE@GOTPCREL]
	add	rax, 16
	mov	qword ptr [r15], rax
	mov	dword ptr [r15 + 8], 6
	mov	rdi, r15
	add	rdi, 16
Ltmp732:
	lea	rsi, [rbp - 176]
	call	__ZNSt3__112basic_stringIcNS_11char_traitsIcEENS_9allocatorIcEEEC1ERKS5_
Ltmp733:

Ltmp735:
	mov	rsi, qword ptr [rip + __ZTIN8CryptoPP9ExceptionE@GOTPCREL]
	mov	rdx, qword ptr [rip + __ZN8CryptoPP9ExceptionD1Ev@GOTPCREL]
	mov	rdi, r15
	call	___cxa_throw
Ltmp736:

	ud2
LBB39_37:
Ltmp737:
	mov	r14, rax
	xor	ebx, ebx
	jmp	LBB39_38
LBB39_66:
Ltmp734:
	mov	r14, rax
	mov	rdi, r15
	call	__ZNSt9exceptionD2Ev
	mov	bl, 1
LBB39_38:
	test	byte ptr [rbp - 176], 1
	je	LBB39_40

	mov	rdi, qword ptr [rbp - 160]
	call	__ZdlPv
LBB39_40:
	test	bl, bl
	jne	LBB39_41
	jmp	LBB39_51
LBB39_36:
Ltmp731:
	mov	r14, rax
LBB39_41:
	mov	rdi, r15
	call	___cxa_free_exception
	jmp	LBB39_51
LBB39_34:
Ltmp723:
	mov	r14, rax
	mov	rax, qword ptr [rbp - 48] 
	mov	qword ptr [rbp - 176], rax
	mov	rdx, qword ptr [rbp - 144]
	test	rdx, rdx
	je	LBB39_51

	mov	rax, qword ptr [rbp - 160]
	mov	rcx, qword ptr [rbp - 152]
	cmp	rax, rcx
	cmovb	rcx, rax
	xor	eax, eax
	mov	rdi, rdx
	
	rep		stosq	qword ptr es:[rdi], rax
	
Ltmp724:
	mov	rdi, rdx
	call	__ZN8CryptoPP17AlignedDeallocateEPv
Ltmp725:
	jmp	LBB39_51
LBB39_33:
Ltmp728:
	jmp	LBB39_50
LBB39_32:
Ltmp744:
	jmp	LBB39_57
LBB39_28:
Ltmp749:
	mov	r14, rax
	jmp	LBB39_60
LBB39_62:
Ltmp754:
	mov	r14, rax
	jmp	LBB39_63
LBB39_49:
Ltmp718:
LBB39_50:
	mov	r14, rax
LBB39_51:
	mov	rax, qword ptr [rbp - 48] 
	mov	rcx, qword ptr [rbp - 56] 
	mov	qword ptr [rcx], rax
	mov	rdx, qword ptr [rcx + 32]
	test	rdx, rdx
	je	LBB39_54

	mov	rcx, qword ptr [rbp - 56] 
	mov	rax, qword ptr [rcx + 16]
	mov	rcx, qword ptr [rcx + 24]
	cmp	rax, rcx
	cmovb	rcx, rax
	xor	eax, eax
	mov	rdi, rdx
	
	rep		stosq	qword ptr es:[rdi], rax
	
Ltmp738:
	mov	rdi, rdx
	call	__ZN8CryptoPP17AlignedDeallocateEPv
Ltmp739:
	jmp	LBB39_54
LBB39_53:
Ltmp713:
	mov	r14, rax
LBB39_54:
	mov	rax, qword ptr [rbp - 48] 
	mov	qword ptr [rbp - 104], rax
	mov	rdx, qword ptr [rbp - 72]
	test	rdx, rdx
	je	LBB39_58

	mov	rax, qword ptr [rbp - 88]
	mov	rcx, qword ptr [rbp - 80]
	cmp	rax, rcx
	cmovb	rcx, rax
	xor	eax, eax
	mov	rdi, rdx
	
	rep		stosq	qword ptr es:[rdi], rax
	
Ltmp740:
	mov	rdi, rdx
	call	__ZN8CryptoPP17AlignedDeallocateEPv
Ltmp741:
	jmp	LBB39_58
LBB39_30:
Ltmp692:
	mov	r14, rax
	mov	rax, qword ptr [rbp - 48] 
	mov	qword ptr [rbp - 104], rax
	mov	rdx, qword ptr [rbp - 72]
	test	rdx, rdx
	je	LBB39_58

	mov	rax, qword ptr [rbp - 88]
	mov	rcx, qword ptr [rbp - 80]
	cmp	rax, rcx
	cmovb	rcx, rax
	xor	eax, eax
	mov	rdi, rdx
	
	rep		stosq	qword ptr es:[rdi], rax
	
Ltmp693:
	mov	rdi, rdx
	call	__ZN8CryptoPP17AlignedDeallocateEPv
Ltmp694:
	jmp	LBB39_58
LBB39_29:
Ltmp697:
	jmp	LBB39_57
LBB39_56:
Ltmp704:
LBB39_57:
	mov	r14, rax
LBB39_58:
	mov	rax, qword ptr [rbp - 48] 
	mov	qword ptr [rbp - 232], rax
	mov	rdx, qword ptr [rbp - 200]
	test	rdx, rdx
	je	LBB39_60

	mov	rax, qword ptr [rbp - 216]
	mov	rcx, qword ptr [rbp - 208]
	cmp	rax, rcx
	cmovb	rcx, rax
	xor	eax, eax
	mov	rdi, rdx
	
	rep		stosq	qword ptr es:[rdi], rax
	
Ltmp745:
	mov	rdi, rdx
	call	__ZN8CryptoPP17AlignedDeallocateEPv
Ltmp746:
LBB39_60:
	mov	rax, qword ptr [rip + __ZTVN8CryptoPP7IntegerE@GOTPCREL]
	add	rax, 16
	mov	qword ptr [rbp - 280], rax
	mov	rdx, qword ptr [rbp - 248]
	test	rdx, rdx
	je	LBB39_63

	mov	rax, qword ptr [rbp - 264]
	mov	rcx, qword ptr [rbp - 256]
	cmp	rax, rcx
	cmovb	rcx, rax
	xor	eax, eax
	mov	rdi, rdx
	
	rep		stosq	qword ptr es:[rdi], rax
	
Ltmp750:
	mov	rdi, rdx
	call	__ZN8CryptoPP17AlignedDeallocateEPv
Ltmp751:
LBB39_63:
Ltmp755:
	lea	rdi, [rbp - 448]
	call	__ZN8CryptoPP17ModularArithmeticD2Ev
Ltmp756:

	mov	rdi, r14
	call	__Unwind_Resume
	ud2
LBB39_65:
Ltmp757:
	mov	rdi, rax
	call	___clang_call_terminate
Lfunc_end15:
	.cfi_endproc
	.section	__TEXT,__gcc_except_tab
	.p2align	2
GCC_except_table39:
Lexception15:
	.byte	255                     
	.byte	155                     
	.uleb128 Lttbase13-Lttbaseref13
Lttbaseref13:
	.byte	1                       
	.uleb128 Lcst_end15-Lcst_begin15
Lcst_begin15:
	.uleb128 Lfunc_begin15-Lfunc_begin15 
	.uleb128 Ltmp680-Lfunc_begin15  
	.byte	0                       
	.byte	0                       
	.uleb128 Ltmp680-Lfunc_begin15  
	.uleb128 Ltmp681-Ltmp680        
	.uleb128 Ltmp754-Lfunc_begin15  
	.byte	0                       
	.uleb128 Ltmp682-Lfunc_begin15  
	.uleb128 Ltmp683-Ltmp682        
	.uleb128 Ltmp749-Lfunc_begin15  
	.byte	0                       
	.uleb128 Ltmp684-Lfunc_begin15  
	.uleb128 Ltmp685-Ltmp684        
	.uleb128 Ltmp704-Lfunc_begin15  
	.byte	0                       
	.uleb128 Ltmp686-Lfunc_begin15  
	.uleb128 Ltmp689-Ltmp686        
	.uleb128 Ltmp697-Lfunc_begin15  
	.byte	0                       
	.uleb128 Ltmp690-Lfunc_begin15  
	.uleb128 Ltmp691-Ltmp690        
	.uleb128 Ltmp692-Lfunc_begin15  
	.byte	0                       
	.uleb128 Ltmp695-Lfunc_begin15  
	.uleb128 Ltmp696-Ltmp695        
	.uleb128 Ltmp697-Lfunc_begin15  
	.byte	0                       
	.uleb128 Ltmp698-Lfunc_begin15  
	.uleb128 Ltmp703-Ltmp698        
	.uleb128 Ltmp704-Lfunc_begin15  
	.byte	0                       
	.uleb128 Ltmp705-Lfunc_begin15  
	.uleb128 Ltmp706-Ltmp705        
	.uleb128 Ltmp744-Lfunc_begin15  
	.byte	0                       
	.uleb128 Ltmp707-Lfunc_begin15  
	.uleb128 Ltmp712-Ltmp707        
	.uleb128 Ltmp713-Lfunc_begin15  
	.byte	0                       
	.uleb128 Ltmp714-Lfunc_begin15  
	.uleb128 Ltmp717-Ltmp714        
	.uleb128 Ltmp718-Lfunc_begin15  
	.byte	0                       
	.uleb128 Ltmp719-Lfunc_begin15  
	.uleb128 Ltmp720-Ltmp719        
	.uleb128 Ltmp728-Lfunc_begin15  
	.byte	0                       
	.uleb128 Ltmp721-Lfunc_begin15  
	.uleb128 Ltmp722-Ltmp721        
	.uleb128 Ltmp723-Lfunc_begin15  
	.byte	0                       
	.uleb128 Ltmp726-Lfunc_begin15  
	.uleb128 Ltmp727-Ltmp726        
	.uleb128 Ltmp728-Lfunc_begin15  
	.byte	0                       
	.uleb128 Ltmp742-Lfunc_begin15  
	.uleb128 Ltmp743-Ltmp742        
	.uleb128 Ltmp744-Lfunc_begin15  
	.byte	0                       
	.uleb128 Ltmp747-Lfunc_begin15  
	.uleb128 Ltmp748-Ltmp747        
	.uleb128 Ltmp749-Lfunc_begin15  
	.byte	0                       
	.uleb128 Ltmp752-Lfunc_begin15  
	.uleb128 Ltmp753-Ltmp752        
	.uleb128 Ltmp754-Lfunc_begin15  
	.byte	0                       
	.uleb128 Ltmp753-Lfunc_begin15  
	.uleb128 Ltmp729-Ltmp753        
	.byte	0                       
	.byte	0                       
	.uleb128 Ltmp729-Lfunc_begin15  
	.uleb128 Ltmp730-Ltmp729        
	.uleb128 Ltmp731-Lfunc_begin15  
	.byte	0                       
	.uleb128 Ltmp730-Lfunc_begin15  
	.uleb128 Ltmp732-Ltmp730        
	.byte	0                       
	.byte	0                       
	.uleb128 Ltmp732-Lfunc_begin15  
	.uleb128 Ltmp733-Ltmp732        
	.uleb128 Ltmp734-Lfunc_begin15  
	.byte	0                       
	.uleb128 Ltmp735-Lfunc_begin15  
	.uleb128 Ltmp736-Ltmp735        
	.uleb128 Ltmp737-Lfunc_begin15  
	.byte	0                       
	.uleb128 Ltmp736-Lfunc_begin15  
	.uleb128 Ltmp724-Ltmp736        
	.byte	0                       
	.byte	0                       
	.uleb128 Ltmp724-Lfunc_begin15  
	.uleb128 Ltmp756-Ltmp724        
	.uleb128 Ltmp757-Lfunc_begin15  
	.byte	1                       
	.uleb128 Ltmp756-Lfunc_begin15  
	.uleb128 Lfunc_end15-Ltmp756    
	.byte	0                       
	.byte	0                       
Lcst_end15:
	.byte	1                       
                                        
	.byte	0                       
	.p2align	2
                                        
	.long	0                       
Lttbase13:
	.p2align	2
                                        
	.section	__TEXT,__text,regular,pure_instructions
	.globl	__ZNK8CryptoPP17ModularArithmetic21MultiplicativeInverseERKNS_7IntegerE 
	.weak_def_can_be_hidden	__ZNK8CryptoPP17ModularArithmetic21MultiplicativeInverseERKNS_7IntegerE
	.p2align	4, 0x90
__ZNK8CryptoPP17ModularArithmetic21MultiplicativeInverseERKNS_7IntegerE: 
Lfunc_begin16:
	.cfi_startproc
	.cfi_personality 155, ___gxx_personality_v0
	.cfi_lsda 16, Lexception16

	push	rbp
	.cfi_def_cfa_offset 16
	.cfi_offset rbp, -16
	mov	rbp, rsp
	.cfi_def_cfa_register rbp
	push	r14
	push	rbx
	sub	rsp, 48
	.cfi_offset rbx, -32
	.cfi_offset r14, -24
	mov	rbx, rdi
	lea	rdx, [rdi + 24]
	lea	r14, [rbp - 64]
	mov	rdi, r14
	call	__ZNK8CryptoPP7Integer10InverseModERKS0_
	add	rbx, 120
Ltmp758:
	mov	rdi, rbx
	mov	rsi, r14
	call	__ZN8CryptoPP7IntegeraSERKS0_
Ltmp759:

	mov	rbx, rax
	mov	rax, qword ptr [rip + __ZTVN8CryptoPP7IntegerE@GOTPCREL]
	add	rax, 16
	mov	qword ptr [rbp - 64], rax
	mov	rdx, qword ptr [rbp - 32]
	test	rdx, rdx
	je	LBB40_3

	mov	rax, qword ptr [rbp - 48]
	mov	rcx, qword ptr [rbp - 40]
	cmp	rax, rcx
	cmovb	rcx, rax
	xor	eax, eax
	mov	rdi, rdx
	
	rep		stosq	qword ptr es:[rdi], rax
	
	mov	rdi, rdx
	call	__ZN8CryptoPP17AlignedDeallocateEPv
LBB40_3:
	mov	rax, rbx
	add	rsp, 48
	pop	rbx
	pop	r14
	pop	rbp
	ret
LBB40_4:
Ltmp760:
	mov	rbx, rax
	mov	rax, qword ptr [rip + __ZTVN8CryptoPP7IntegerE@GOTPCREL]
	add	rax, 16
	mov	qword ptr [rbp - 64], rax
	mov	rdx, qword ptr [rbp - 32]
	test	rdx, rdx
	je	LBB40_6

	mov	rax, qword ptr [rbp - 48]
	mov	rcx, qword ptr [rbp - 40]
	cmp	rax, rcx
	cmovb	rcx, rax
	xor	eax, eax
	mov	rdi, rdx
	
	rep		stosq	qword ptr es:[rdi], rax
	
Ltmp761:
	mov	rdi, rdx
	call	__ZN8CryptoPP17AlignedDeallocateEPv
Ltmp762:
LBB40_6:
	mov	rdi, rbx
	call	__Unwind_Resume
	ud2
LBB40_7:
Ltmp763:
	mov	rdi, rax
	call	___clang_call_terminate
Lfunc_end16:
	.cfi_endproc
	.section	__TEXT,__gcc_except_tab
	.p2align	2
GCC_except_table40:
Lexception16:
	.byte	255                     
	.byte	155                     
	.uleb128 Lttbase14-Lttbaseref14
Lttbaseref14:
	.byte	1                       
	.uleb128 Lcst_end16-Lcst_begin16
Lcst_begin16:
	.uleb128 Lfunc_begin16-Lfunc_begin16 
	.uleb128 Ltmp758-Lfunc_begin16  
	.byte	0                       
	.byte	0                       
	.uleb128 Ltmp758-Lfunc_begin16  
	.uleb128 Ltmp759-Ltmp758        
	.uleb128 Ltmp760-Lfunc_begin16  
	.byte	0                       
	.uleb128 Ltmp759-Lfunc_begin16  
	.uleb128 Ltmp761-Ltmp759        
	.byte	0                       
	.byte	0                       
	.uleb128 Ltmp761-Lfunc_begin16  
	.uleb128 Ltmp762-Ltmp761        
	.uleb128 Ltmp763-Lfunc_begin16  
	.byte	1                       
	.uleb128 Ltmp762-Lfunc_begin16  
	.uleb128 Lfunc_end16-Ltmp762    
	.byte	0                       
	.byte	0                       
Lcst_end16:
	.byte	1                       
                                        
	.byte	0                       
	.p2align	2
                                        
	.long	0                       
Lttbase14:
	.p2align	2
                                        
	.section	__TEXT,__text,regular,pure_instructions
	.globl	__ZNK8CryptoPP17ModularArithmetic8MultiplyERKNS_7IntegerES3_ 
	.weak_def_can_be_hidden	__ZNK8CryptoPP17ModularArithmetic8MultiplyERKNS_7IntegerES3_
	.p2align	4, 0x90
__ZNK8CryptoPP17ModularArithmetic8MultiplyERKNS_7IntegerES3_: 
Lfunc_begin17:
	.cfi_startproc
	.cfi_personality 155, ___gxx_personality_v0
	.cfi_lsda 16, Lexception17

	push	rbp
	.cfi_def_cfa_offset 16
	.cfi_offset rbp, -16
	mov	rbp, rsp
	.cfi_def_cfa_register rbp
	push	r14
	push	rbx
	sub	rsp, 96
	.cfi_offset rbx, -32
	.cfi_offset r14, -24
	mov	rbx, rdi
	lea	r14, [rbp - 112]
	mov	rdi, r14
	call	__ZNK8CryptoPP7Integer5TimesERKS0_
	lea	rdx, [rbx + 24]
Ltmp764:
	lea	rdi, [rbp - 64]
	mov	rsi, r14
	call	__ZNK8CryptoPP7Integer6ModuloERKS0_
Ltmp765:

	add	rbx, 120
Ltmp766:
	lea	rsi, [rbp - 64]
	mov	rdi, rbx
	call	__ZN8CryptoPP7IntegeraSERKS0_
Ltmp767:

	mov	r14, rax
	mov	rbx, qword ptr [rip + __ZTVN8CryptoPP7IntegerE@GOTPCREL]
	add	rbx, 16
	mov	qword ptr [rbp - 64], rbx
	mov	rdx, qword ptr [rbp - 32]
	test	rdx, rdx
	je	LBB41_4

	mov	rax, qword ptr [rbp - 48]
	mov	rcx, qword ptr [rbp - 40]
	cmp	rax, rcx
	cmovb	rcx, rax
	xor	eax, eax
	mov	rdi, rdx
	
	rep		stosq	qword ptr es:[rdi], rax
	
Ltmp771:
	mov	rdi, rdx
	call	__ZN8CryptoPP17AlignedDeallocateEPv
Ltmp772:
LBB41_4:
	mov	qword ptr [rbp - 112], rbx
	mov	rdx, qword ptr [rbp - 80]
	test	rdx, rdx
	je	LBB41_6

	mov	rax, qword ptr [rbp - 96]
	mov	rcx, qword ptr [rbp - 88]
	cmp	rax, rcx
	cmovb	rcx, rax
	xor	eax, eax
	mov	rdi, rdx
	
	rep		stosq	qword ptr es:[rdi], rax
	
	mov	rdi, rdx
	call	__ZN8CryptoPP17AlignedDeallocateEPv
LBB41_6:
	mov	rax, r14
	add	rsp, 96
	pop	rbx
	pop	r14
	pop	rbp
	ret
LBB41_8:
Ltmp768:
	mov	rbx, rax
	mov	rax, qword ptr [rip + __ZTVN8CryptoPP7IntegerE@GOTPCREL]
	add	rax, 16
	mov	qword ptr [rbp - 64], rax
	mov	rdx, qword ptr [rbp - 32]
	test	rdx, rdx
	je	LBB41_10

	mov	rax, qword ptr [rbp - 48]
	mov	rcx, qword ptr [rbp - 40]
	cmp	rax, rcx
	cmovb	rcx, rax
	xor	eax, eax
	mov	rdi, rdx
	
	rep		stosq	qword ptr es:[rdi], rax
	
Ltmp769:
	mov	rdi, rdx
	call	__ZN8CryptoPP17AlignedDeallocateEPv
Ltmp770:
	jmp	LBB41_10
LBB41_7:
Ltmp773:
	mov	rbx, rax
LBB41_10:
	mov	rax, qword ptr [rip + __ZTVN8CryptoPP7IntegerE@GOTPCREL]
	add	rax, 16
	mov	qword ptr [rbp - 112], rax
	mov	rdx, qword ptr [rbp - 80]
	test	rdx, rdx
	je	LBB41_12

	mov	rax, qword ptr [rbp - 96]
	mov	rcx, qword ptr [rbp - 88]
	cmp	rax, rcx
	cmovb	rcx, rax
	xor	eax, eax
	mov	rdi, rdx
	
	rep		stosq	qword ptr es:[rdi], rax
	
Ltmp774:
	mov	rdi, rdx
	call	__ZN8CryptoPP17AlignedDeallocateEPv
Ltmp775:
LBB41_12:
	mov	rdi, rbx
	call	__Unwind_Resume
	ud2
LBB41_13:
Ltmp776:
	mov	rdi, rax
	call	___clang_call_terminate
Lfunc_end17:
	.cfi_endproc
	.section	__TEXT,__gcc_except_tab
	.p2align	2
GCC_except_table41:
Lexception17:
	.byte	255                     
	.byte	155                     
	.uleb128 Lttbase15-Lttbaseref15
Lttbaseref15:
	.byte	1                       
	.uleb128 Lcst_end17-Lcst_begin17
Lcst_begin17:
	.uleb128 Lfunc_begin17-Lfunc_begin17 
	.uleb128 Ltmp764-Lfunc_begin17  
	.byte	0                       
	.byte	0                       
	.uleb128 Ltmp764-Lfunc_begin17  
	.uleb128 Ltmp765-Ltmp764        
	.uleb128 Ltmp773-Lfunc_begin17  
	.byte	0                       
	.uleb128 Ltmp766-Lfunc_begin17  
	.uleb128 Ltmp767-Ltmp766        
	.uleb128 Ltmp768-Lfunc_begin17  
	.byte	0                       
	.uleb128 Ltmp771-Lfunc_begin17  
	.uleb128 Ltmp772-Ltmp771        
	.uleb128 Ltmp773-Lfunc_begin17  
	.byte	0                       
	.uleb128 Ltmp772-Lfunc_begin17  
	.uleb128 Ltmp769-Ltmp772        
	.byte	0                       
	.byte	0                       
	.uleb128 Ltmp769-Lfunc_begin17  
	.uleb128 Ltmp775-Ltmp769        
	.uleb128 Ltmp776-Lfunc_begin17  
	.byte	1                       
	.uleb128 Ltmp775-Lfunc_begin17  
	.uleb128 Lfunc_end17-Ltmp775    
	.byte	0                       
	.byte	0                       
Lcst_end17:
	.byte	1                       
                                        
	.byte	0                       
	.p2align	2
                                        
	.long	0                       
Lttbase15:
	.p2align	2
                                        
	.section	__TEXT,__text,regular,pure_instructions
	.globl	__ZN8CryptoPP9ExceptionD1Ev 
	.weak_def_can_be_hidden	__ZN8CryptoPP9ExceptionD1Ev
	.p2align	4, 0x90
__ZN8CryptoPP9ExceptionD1Ev:            
	.cfi_startproc

	push	rbp
	.cfi_def_cfa_offset 16
	.cfi_offset rbp, -16
	mov	rbp, rsp
	.cfi_def_cfa_register rbp
	push	rbx
	push	rax
	.cfi_offset rbx, -24
	mov	rbx, rdi
	mov	rax, qword ptr [rip + __ZTVN8CryptoPP9ExceptionE@GOTPCREL]
	add	rax, 16
	mov	qword ptr [rdi], rax
	test	byte ptr [rdi + 16], 1
	je	LBB42_2

	mov	rdi, qword ptr [rbx + 32]
	call	__ZdlPv
LBB42_2:
	mov	rdi, rbx
	add	rsp, 8
	pop	rbx
	pop	rbp
	jmp	__ZNSt9exceptionD2Ev    
	.cfi_endproc
                                        
	.globl	__ZThn120_NK8CryptoPP21InvertibleRSAFunction16CalculateInverseERNS_21RandomNumberGeneratorERKNS_7IntegerE 
	.p2align	4, 0x90
__ZThn120_NK8CryptoPP21InvertibleRSAFunction16CalculateInverseERNS_21RandomNumberGeneratorERKNS_7IntegerE: 
	.cfi_startproc

	push	rbp
	.cfi_def_cfa_offset 16
	.cfi_offset rbp, -16
	mov	rbp, rsp
	.cfi_def_cfa_register rbp
	push	rbx
	push	rax
	.cfi_offset rbx, -24
	mov	rbx, rdi
	add	rsi, -120
	call	__ZNK8CryptoPP21InvertibleRSAFunction16CalculateInverseERNS_21RandomNumberGeneratorERKNS_7IntegerE
	mov	rax, rbx
	add	rsp, 8
	pop	rbx
	pop	rbp
	ret
	.cfi_endproc
                                        
	.globl	__ZNK8CryptoPP21InvertibleRSAFunction8ValidateERNS_21RandomNumberGeneratorEj 
	.p2align	4, 0x90
__ZNK8CryptoPP21InvertibleRSAFunction8ValidateERNS_21RandomNumberGeneratorEj: 
Lfunc_begin18:
	.cfi_startproc
	.cfi_personality 155, ___gxx_personality_v0
	.cfi_lsda 16, Lexception18

	push	rbp
	.cfi_def_cfa_offset 16
	.cfi_offset rbp, -16
	mov	rbp, rsp
	.cfi_def_cfa_register rbp
	push	r15
	push	r14
	push	r13
	push	r12
	push	rbx
	sub	rsp, 408
	.cfi_offset rbx, -56
	.cfi_offset r12, -48
	.cfi_offset r13, -40
	.cfi_offset r14, -32
	.cfi_offset r15, -24
	mov	r14d, edx
	mov	rbx, rsi
	mov	r15, rdi
	call	__ZNK8CryptoPP11RSAFunction8ValidateERNS_21RandomNumberGeneratorEj
	test	al, al
	mov	qword ptr [rbp - 352], rbx 
	je	LBB44_5

	lea	r12, [r15 + 272]
	call	__ZN8CryptoPP7Integer3OneEv
	mov	rdi, r12
	mov	rsi, rax
	call	__ZNK8CryptoPP7Integer7CompareERKS0_
	xor	ebx, ebx
	test	eax, eax
	jle	LBB44_6

	mov	rdi, r12
	xor	esi, esi
	call	__ZNK8CryptoPP7Integer6GetBitEm
	test	al, al
	je	LBB44_6

	lea	r13, [r15 + 24]
	mov	rdi, r12
	mov	rsi, r13
	call	__ZNK8CryptoPP7Integer7CompareERKS0_
	test	eax, eax
	js	LBB44_42
LBB44_5:
	xor	ebx, ebx
LBB44_6:
	test	r14d, r14d
	je	LBB44_80

	test	bl, bl
	je	LBB44_73

	lea	r12, [r15 + 272]
	lea	rdx, [r15 + 320]
	lea	rbx, [rbp - 96]
	mov	rdi, rbx
	mov	rsi, r12
	mov	qword ptr [rbp - 48], rdx 
	call	__ZNK8CryptoPP7Integer5TimesERKS0_
	lea	rsi, [r15 + 24]
Ltmp777:
	mov	rdi, rbx
	call	__ZNK8CryptoPP7Integer7CompareERKS0_
Ltmp778:

	mov	ebx, eax
	mov	r13, qword ptr [rip + __ZTVN8CryptoPP7IntegerE@GOTPCREL]
	add	r13, 16
	mov	qword ptr [rbp - 96], r13
	mov	rdx, qword ptr [rbp - 64]
	test	rdx, rdx
	je	LBB44_11

	mov	rax, qword ptr [rbp - 80]
	mov	rcx, qword ptr [rbp - 72]
	cmp	rax, rcx
	cmovb	rcx, rax
	xor	eax, eax
	mov	rdi, rdx
	
	rep		stosq	qword ptr es:[rdi], rax
	
	mov	rdi, rdx
	call	__ZN8CryptoPP17AlignedDeallocateEPv
LBB44_11:
	test	ebx, ebx
	jne	LBB44_73

	lea	rsi, [r15 + 72]
	lea	rdx, [r15 + 224]
	lea	rdi, [rbp - 200]
	mov	qword ptr [rbp - 104], rdx 
	call	__ZNK8CryptoPP7Integer5TimesERKS0_
Ltmp782:
	lea	rdi, [rbp - 296]
	mov	esi, 1
	call	__ZN8CryptoPP7IntegerC1El
Ltmp783:

Ltmp784:
	lea	rdi, [rbp - 344]
	lea	rdx, [rbp - 296]
	mov	rsi, r12
	call	__ZNK8CryptoPP7Integer5MinusERKS0_
Ltmp785:

Ltmp786:
	lea	rdi, [rbp - 448]
	mov	esi, 1
	call	__ZN8CryptoPP7IntegerC1El
Ltmp787:

Ltmp788:
	lea	rdi, [rbp - 248]
	lea	rdx, [rbp - 448]
	mov	rsi, qword ptr [rbp - 48] 
	call	__ZNK8CryptoPP7Integer5MinusERKS0_
Ltmp789:

Ltmp790:
	lea	rdi, [rbp - 152]
	lea	rsi, [rbp - 344]
	lea	rdx, [rbp - 248]
	call	__ZN8CryptoPP3LCMERKNS_7IntegerES2_
Ltmp791:

Ltmp792:
	lea	rdi, [rbp - 96]
	lea	rsi, [rbp - 200]
	lea	rdx, [rbp - 152]
	call	__ZNK8CryptoPP7Integer6ModuloERKS0_
Ltmp793:

Ltmp794:
	lea	rdi, [rbp - 400]
	mov	esi, 1
	call	__ZN8CryptoPP7IntegerC1El
Ltmp795:

Ltmp796:
	lea	rdi, [rbp - 96]
	lea	rsi, [rbp - 400]
	call	__ZNK8CryptoPP7Integer7CompareERKS0_
Ltmp797:

	mov	ebx, eax
	mov	qword ptr [rbp - 400], r13
	mov	rdx, qword ptr [rbp - 368]
	test	rdx, rdx
	je	LBB44_22

	mov	rax, qword ptr [rbp - 384]
	mov	rcx, qword ptr [rbp - 376]
	cmp	rax, rcx
	cmovb	rcx, rax
	xor	eax, eax
	mov	rdi, rdx
	
	rep		stosq	qword ptr es:[rdi], rax
	
Ltmp801:
	mov	rdi, rdx
	call	__ZN8CryptoPP17AlignedDeallocateEPv
Ltmp802:
LBB44_22:
	mov	qword ptr [rbp - 96], r13
	mov	rdx, qword ptr [rbp - 64]
	test	rdx, rdx
	je	LBB44_24

	mov	rax, qword ptr [rbp - 80]
	mov	rcx, qword ptr [rbp - 72]
	cmp	rax, rcx
	cmovb	rcx, rax
	xor	eax, eax
	mov	rdi, rdx
	
	rep		stosq	qword ptr es:[rdi], rax
	
Ltmp806:
	mov	rdi, rdx
	call	__ZN8CryptoPP17AlignedDeallocateEPv
Ltmp807:
LBB44_24:
	mov	qword ptr [rbp - 152], r13
	mov	rdx, qword ptr [rbp - 120]
	test	rdx, rdx
	je	LBB44_26

	mov	rax, qword ptr [rbp - 136]
	mov	rcx, qword ptr [rbp - 128]
	cmp	rax, rcx
	cmovb	rcx, rax
	xor	eax, eax
	mov	rdi, rdx
	
	rep		stosq	qword ptr es:[rdi], rax
	
Ltmp811:
	mov	rdi, rdx
	call	__ZN8CryptoPP17AlignedDeallocateEPv
Ltmp812:
LBB44_26:
	mov	qword ptr [rbp - 248], r13
	mov	rdx, qword ptr [rbp - 216]
	test	rdx, rdx
	je	LBB44_28

	mov	rax, qword ptr [rbp - 232]
	mov	rcx, qword ptr [rbp - 224]
	cmp	rax, rcx
	cmovb	rcx, rax
	xor	eax, eax
	mov	rdi, rdx
	
	rep		stosq	qword ptr es:[rdi], rax
	
Ltmp816:
	mov	rdi, rdx
	call	__ZN8CryptoPP17AlignedDeallocateEPv
Ltmp817:
LBB44_28:
	mov	qword ptr [rbp - 448], r13
	mov	rdx, qword ptr [rbp - 416]
	test	rdx, rdx
	je	LBB44_30

	mov	rax, qword ptr [rbp - 432]
	mov	rcx, qword ptr [rbp - 424]
	cmp	rax, rcx
	cmovb	rcx, rax
	xor	eax, eax
	mov	rdi, rdx
	
	rep		stosq	qword ptr es:[rdi], rax
	
Ltmp821:
	mov	rdi, rdx
	call	__ZN8CryptoPP17AlignedDeallocateEPv
Ltmp822:
LBB44_30:
	mov	qword ptr [rbp - 344], r13
	mov	rdx, qword ptr [rbp - 312]
	test	rdx, rdx
	je	LBB44_32

	mov	rax, qword ptr [rbp - 328]
	mov	rcx, qword ptr [rbp - 320]
	cmp	rax, rcx
	cmovb	rcx, rax
	xor	eax, eax
	mov	rdi, rdx
	
	rep		stosq	qword ptr es:[rdi], rax
	
Ltmp826:
	mov	rdi, rdx
	call	__ZN8CryptoPP17AlignedDeallocateEPv
Ltmp827:
LBB44_32:
	mov	qword ptr [rbp - 296], r13
	mov	rdx, qword ptr [rbp - 264]
	test	rdx, rdx
	je	LBB44_34

	mov	rax, qword ptr [rbp - 280]
	mov	rcx, qword ptr [rbp - 272]
	cmp	rax, rcx
	cmovb	rcx, rax
	xor	eax, eax
	mov	rdi, rdx
	
	rep		stosq	qword ptr es:[rdi], rax
	
Ltmp831:
	mov	rdi, rdx
	call	__ZN8CryptoPP17AlignedDeallocateEPv
Ltmp832:
LBB44_34:
	mov	qword ptr [rbp - 200], r13
	mov	rdx, qword ptr [rbp - 168]
	test	rdx, rdx
	je	LBB44_36

	mov	rax, qword ptr [rbp - 184]
	mov	rcx, qword ptr [rbp - 176]
	cmp	rax, rcx
	cmovb	rcx, rax
	xor	eax, eax
	mov	rdi, rdx
	
	rep		stosq	qword ptr es:[rdi], rax
	
	mov	rdi, rdx
	call	__ZN8CryptoPP17AlignedDeallocateEPv
LBB44_36:
	test	ebx, ebx
	jne	LBB44_73

	lea	rbx, [rbp - 152]
	mov	esi, 1
	mov	rdi, rbx
	call	__ZN8CryptoPP7IntegerC1El
Ltmp836:
	lea	rdi, [rbp - 200]
	mov	rsi, r12
	mov	rdx, rbx
	call	__ZNK8CryptoPP7Integer5MinusERKS0_
Ltmp837:

Ltmp838:
	lea	rdi, [rbp - 96]
	lea	rdx, [rbp - 200]
	mov	rbx, qword ptr [rbp - 104] 
	mov	rsi, rbx
	call	__ZNK8CryptoPP7Integer6ModuloERKS0_
Ltmp839:

	lea	rdi, [r15 + 368]
Ltmp840:
	lea	rsi, [rbp - 96]
	call	__ZNK8CryptoPP7Integer7CompareERKS0_
Ltmp841:

	test	eax, eax
	je	LBB44_47

	xor	ebx, ebx
	jmp	LBB44_57
LBB44_42:
	lea	rbx, [r15 + 320]
	call	__ZN8CryptoPP7Integer3OneEv
	mov	rdi, rbx
	mov	rsi, rax
	call	__ZNK8CryptoPP7Integer7CompareERKS0_
	test	eax, eax
	jle	LBB44_5

	mov	rdi, rbx
	xor	ebx, ebx
	mov	qword ptr [rbp - 48], rdi 
	xor	esi, esi
	call	__ZNK8CryptoPP7Integer6GetBitEm
	test	al, al
	je	LBB44_6

	mov	rdi, qword ptr [rbp - 48] 
	mov	rsi, r13
	call	__ZNK8CryptoPP7Integer7CompareERKS0_
	test	eax, eax
	jns	LBB44_5

	lea	rbx, [r15 + 224]
	call	__ZN8CryptoPP7Integer3OneEv
	mov	qword ptr [rbp - 104], rbx 
	mov	rdi, rbx
	mov	rsi, rax
	call	__ZNK8CryptoPP7Integer7CompareERKS0_
	xor	ebx, ebx
	test	eax, eax
	jle	LBB44_6

	mov	rdi, qword ptr [rbp - 104] 
	xor	esi, esi
	call	__ZNK8CryptoPP7Integer6GetBitEm
	test	al, al
	je	LBB44_6

	mov	rdi, qword ptr [rbp - 104] 
	mov	rsi, r13
	call	__ZNK8CryptoPP7Integer7CompareERKS0_
	test	eax, eax
	jns	LBB44_5

	lea	r13, [r15 + 368]
	call	__ZN8CryptoPP7Integer3OneEv
	mov	rdi, r13
	mov	rsi, rax
	call	__ZNK8CryptoPP7Integer7CompareERKS0_
	xor	ebx, ebx
	test	eax, eax
	jle	LBB44_6

	mov	rdi, r13
	xor	esi, esi
	call	__ZNK8CryptoPP7Integer6GetBitEm
	test	al, al
	je	LBB44_6

	mov	rdi, r13
	mov	rsi, r12
	call	__ZNK8CryptoPP7Integer7CompareERKS0_
	test	eax, eax
	jns	LBB44_5

	lea	r13, [r15 + 416]
	call	__ZN8CryptoPP7Integer3OneEv
	mov	rdi, r13
	mov	rsi, rax
	call	__ZNK8CryptoPP7Integer7CompareERKS0_
	xor	ebx, ebx
	test	eax, eax
	jle	LBB44_6

	mov	rdi, r13
	xor	esi, esi
	call	__ZNK8CryptoPP7Integer6GetBitEm
	test	al, al
	mov	rsi, qword ptr [rbp - 48] 
	je	LBB44_6

	mov	rdi, r13
	call	__ZNK8CryptoPP7Integer7CompareERKS0_
	test	eax, eax
	jns	LBB44_5

	cmp	dword ptr [r15 + 504], 1
	je	LBB44_5

	lea	rbx, [r15 + 464]
	mov	rdi, rbx
	call	__ZNK8CryptoPP7IntegerntEv
	test	al, al
	jne	LBB44_5

	mov	rdi, rbx
	mov	rsi, r12
	call	__ZNK8CryptoPP7Integer7CompareERKS0_
	mov	ebx, eax
	shr	ebx, 31
	jmp	LBB44_6
LBB44_47:
Ltmp843:
	lea	rdi, [rbp - 248]
	mov	esi, 1
	call	__ZN8CryptoPP7IntegerC1El
Ltmp844:

Ltmp845:
	lea	rdi, [rbp - 296]
	lea	rdx, [rbp - 248]
	mov	rsi, qword ptr [rbp - 48] 
	call	__ZNK8CryptoPP7Integer5MinusERKS0_
Ltmp846:

Ltmp847:
	lea	rdi, [rbp - 344]
	lea	rdx, [rbp - 296]
	mov	rsi, rbx
	call	__ZNK8CryptoPP7Integer6ModuloERKS0_
Ltmp848:

	lea	rdi, [r15 + 416]
Ltmp849:
	lea	rsi, [rbp - 344]
	call	__ZNK8CryptoPP7Integer7CompareERKS0_
Ltmp850:

	test	eax, eax
	sete	bl
	mov	qword ptr [rbp - 344], r13
	mov	rdx, qword ptr [rbp - 312]
	test	rdx, rdx
	je	LBB44_53

	mov	rax, qword ptr [rbp - 328]
	mov	rcx, qword ptr [rbp - 320]
	cmp	rax, rcx
	cmovb	rcx, rax
	xor	eax, eax
	mov	rdi, rdx
	
	rep		stosq	qword ptr es:[rdi], rax
	
Ltmp854:
	mov	rdi, rdx
	call	__ZN8CryptoPP17AlignedDeallocateEPv
Ltmp855:
LBB44_53:
	mov	qword ptr [rbp - 296], r13
	mov	rdx, qword ptr [rbp - 264]
	test	rdx, rdx
	je	LBB44_55

	mov	rax, qword ptr [rbp - 280]
	mov	rcx, qword ptr [rbp - 272]
	cmp	rax, rcx
	cmovb	rcx, rax
	xor	eax, eax
	mov	rdi, rdx
	
	rep		stosq	qword ptr es:[rdi], rax
	
Ltmp859:
	mov	rdi, rdx
	call	__ZN8CryptoPP17AlignedDeallocateEPv
Ltmp860:
LBB44_55:
	mov	qword ptr [rbp - 248], r13
	mov	rdx, qword ptr [rbp - 216]
	test	rdx, rdx
	je	LBB44_57

	mov	rax, qword ptr [rbp - 232]
	mov	rcx, qword ptr [rbp - 224]
	cmp	rax, rcx
	cmovb	rcx, rax
	xor	eax, eax
	mov	rdi, rdx
	
	rep		stosq	qword ptr es:[rdi], rax
	
Ltmp864:
	mov	rdi, rdx
	call	__ZN8CryptoPP17AlignedDeallocateEPv
Ltmp865:
LBB44_57:
	mov	qword ptr [rbp - 96], r13
	mov	rdx, qword ptr [rbp - 64]
	test	rdx, rdx
	je	LBB44_59

	mov	rax, qword ptr [rbp - 80]
	mov	rcx, qword ptr [rbp - 72]
	cmp	rax, rcx
	cmovb	rcx, rax
	xor	eax, eax
	mov	rdi, rdx
	
	rep		stosq	qword ptr es:[rdi], rax
	
Ltmp869:
	mov	rdi, rdx
	call	__ZN8CryptoPP17AlignedDeallocateEPv
Ltmp870:
LBB44_59:
	mov	qword ptr [rbp - 200], r13
	mov	rdx, qword ptr [rbp - 168]
	test	rdx, rdx
	je	LBB44_61

	mov	rax, qword ptr [rbp - 184]
	mov	rcx, qword ptr [rbp - 176]
	cmp	rax, rcx
	cmovb	rcx, rax
	xor	eax, eax
	mov	rdi, rdx
	
	rep		stosq	qword ptr es:[rdi], rax
	
Ltmp874:
	mov	rdi, rdx
	call	__ZN8CryptoPP17AlignedDeallocateEPv
Ltmp875:
LBB44_61:
	mov	qword ptr [rbp - 152], r13
	mov	rdx, qword ptr [rbp - 120]
	test	rdx, rdx
	je	LBB44_63

	mov	rax, qword ptr [rbp - 136]
	mov	rcx, qword ptr [rbp - 128]
	cmp	rax, rcx
	cmovb	rcx, rax
	xor	eax, eax
	mov	rdi, rdx
	
	rep		stosq	qword ptr es:[rdi], rax
	
	mov	rdi, rdx
	call	__ZN8CryptoPP17AlignedDeallocateEPv
LBB44_63:
	test	bl, bl
	je	LBB44_73

	lea	rsi, [r15 + 464]
	lea	rbx, [rbp - 200]
	mov	rdi, rbx
	mov	rdx, qword ptr [rbp - 48] 
	call	__ZNK8CryptoPP7Integer5TimesERKS0_
Ltmp879:
	lea	rdi, [rbp - 96]
	mov	rsi, rbx
	mov	rdx, r12
	call	__ZNK8CryptoPP7Integer6ModuloERKS0_
Ltmp880:

Ltmp881:
	lea	rdi, [rbp - 152]
	mov	esi, 1
	call	__ZN8CryptoPP7IntegerC1El
Ltmp882:

Ltmp883:
	lea	rdi, [rbp - 96]
	lea	rsi, [rbp - 152]
	call	__ZNK8CryptoPP7Integer7CompareERKS0_
Ltmp884:

	test	eax, eax
	sete	bl
	mov	qword ptr [rbp - 152], r13
	mov	rdx, qword ptr [rbp - 120]
	test	rdx, rdx
	je	LBB44_69

	mov	rax, qword ptr [rbp - 136]
	mov	rcx, qword ptr [rbp - 128]
	cmp	rax, rcx
	cmovb	rcx, rax
	xor	eax, eax
	mov	rdi, rdx
	
	rep		stosq	qword ptr es:[rdi], rax
	
Ltmp888:
	mov	rdi, rdx
	call	__ZN8CryptoPP17AlignedDeallocateEPv
Ltmp889:
LBB44_69:
	mov	qword ptr [rbp - 96], r13
	mov	rdx, qword ptr [rbp - 64]
	test	rdx, rdx
	je	LBB44_71

	mov	rax, qword ptr [rbp - 80]
	mov	rcx, qword ptr [rbp - 72]
	cmp	rax, rcx
	cmovb	rcx, rax
	xor	eax, eax
	mov	rdi, rdx
	
	rep		stosq	qword ptr es:[rdi], rax
	
Ltmp893:
	mov	rdi, rdx
	call	__ZN8CryptoPP17AlignedDeallocateEPv
Ltmp894:
LBB44_71:
	mov	qword ptr [rbp - 200], r13
	mov	rdx, qword ptr [rbp - 168]
	test	rdx, rdx
	je	LBB44_74

	mov	rax, qword ptr [rbp - 184]
	mov	rcx, qword ptr [rbp - 176]
	cmp	rax, rcx
	cmovb	rcx, rax
	xor	eax, eax
	mov	rdi, rdx
	
	rep		stosq	qword ptr es:[rdi], rax
	
	mov	rdi, rdx
	call	__ZN8CryptoPP17AlignedDeallocateEPv
	jmp	LBB44_74
LBB44_73:
	xor	ebx, ebx
LBB44_74:
	cmp	r14d, 2
	jb	LBB44_80

	test	bl, bl
	je	LBB44_79

	lea	rsi, [r15 + 272]
	add	r14d, -2
	mov	rbx, qword ptr [rbp - 352] 
	mov	rdi, rbx
	mov	edx, r14d
	call	__ZN8CryptoPP11VerifyPrimeERNS_21RandomNumberGeneratorERKNS_7IntegerEj
	test	al, al
	je	LBB44_79

	add	r15, 320
	mov	rdi, rbx
	mov	rsi, r15
	mov	edx, r14d
	call	__ZN8CryptoPP11VerifyPrimeERNS_21RandomNumberGeneratorERKNS_7IntegerEj
	mov	ebx, eax
	jmp	LBB44_80
LBB44_79:
	xor	ebx, ebx
LBB44_80:
	mov	eax, ebx
	add	rsp, 408
	pop	rbx
	pop	r12
	pop	r13
	pop	r14
	pop	r15
	pop	rbp
	ret
LBB44_98:
Ltmp851:
	mov	rbx, rax
	mov	qword ptr [rbp - 344], r13
	mov	rdx, qword ptr [rbp - 312]
	test	rdx, rdx
	je	LBB44_105

	mov	rax, qword ptr [rbp - 328]
	mov	rcx, qword ptr [rbp - 320]
	cmp	rax, rcx
	cmovb	rcx, rax
	xor	eax, eax
	mov	rdi, rdx
	
	rep		stosq	qword ptr es:[rdi], rax
	
Ltmp852:
	mov	rdi, rdx
	call	__ZN8CryptoPP17AlignedDeallocateEPv
Ltmp853:
	jmp	LBB44_105
LBB44_100:
Ltmp885:
	mov	rbx, rax
	mov	qword ptr [rbp - 152], r13
	mov	rdx, qword ptr [rbp - 120]
	test	rdx, rdx
	je	LBB44_111

	mov	rax, qword ptr [rbp - 136]
	mov	rcx, qword ptr [rbp - 128]
	cmp	rax, rcx
	cmovb	rcx, rax
	xor	eax, eax
	mov	rdi, rdx
	
	rep		stosq	qword ptr es:[rdi], rax
	
Ltmp886:
	mov	rdi, rdx
	call	__ZN8CryptoPP17AlignedDeallocateEPv
Ltmp887:
	jmp	LBB44_111
LBB44_102:
Ltmp866:
	jmp	LBB44_116
LBB44_103:
Ltmp861:
	mov	rbx, rax
	jmp	LBB44_107
LBB44_104:
Ltmp856:
	mov	rbx, rax
LBB44_105:
	mov	qword ptr [rbp - 296], r13
	mov	rdx, qword ptr [rbp - 264]
	test	rdx, rdx
	je	LBB44_107

	mov	rax, qword ptr [rbp - 280]
	mov	rcx, qword ptr [rbp - 272]
	cmp	rax, rcx
	cmovb	rcx, rax
	xor	eax, eax
	mov	rdi, rdx
	
	rep		stosq	qword ptr es:[rdi], rax
	
Ltmp857:
	mov	rdi, rdx
	call	__ZN8CryptoPP17AlignedDeallocateEPv
Ltmp858:
LBB44_107:
	mov	qword ptr [rbp - 248], r13
	mov	rdx, qword ptr [rbp - 216]
	test	rdx, rdx
	je	LBB44_117

	mov	rax, qword ptr [rbp - 232]
	mov	rcx, qword ptr [rbp - 224]
	cmp	rax, rcx
	cmovb	rcx, rax
	xor	eax, eax
	mov	rdi, rdx
	
	rep		stosq	qword ptr es:[rdi], rax
	
Ltmp862:
	mov	rdi, rdx
	call	__ZN8CryptoPP17AlignedDeallocateEPv
Ltmp863:
	jmp	LBB44_117
LBB44_109:
Ltmp895:
	mov	rbx, rax
	jmp	LBB44_113
LBB44_110:
Ltmp890:
	mov	rbx, rax
LBB44_111:
	mov	qword ptr [rbp - 96], r13
	mov	rdx, qword ptr [rbp - 64]
	test	rdx, rdx
	je	LBB44_113

	mov	rax, qword ptr [rbp - 80]
	mov	rcx, qword ptr [rbp - 72]
	cmp	rax, rcx
	cmovb	rcx, rax
	xor	eax, eax
	mov	rdi, rdx
	
	rep		stosq	qword ptr es:[rdi], rax
	
Ltmp891:
	mov	rdi, rdx
	call	__ZN8CryptoPP17AlignedDeallocateEPv
Ltmp892:
LBB44_113:
	mov	qword ptr [rbp - 200], r13
	mov	rdx, qword ptr [rbp - 168]
	test	rdx, rdx
	je	LBB44_148

	mov	rax, qword ptr [rbp - 184]
	mov	rcx, qword ptr [rbp - 176]
	cmp	rax, rcx
	cmovb	rcx, rax
	xor	eax, eax
	mov	rdi, rdx
	
	rep		stosq	qword ptr es:[rdi], rax
	
Ltmp896:
	mov	rdi, rdx
	call	__ZN8CryptoPP17AlignedDeallocateEPv
Ltmp897:
	jmp	LBB44_148
LBB44_115:
Ltmp842:
LBB44_116:
	mov	rbx, rax
LBB44_117:
	mov	qword ptr [rbp - 96], r13
	mov	rdx, qword ptr [rbp - 64]
	test	rdx, rdx
	je	LBB44_121

	mov	rax, qword ptr [rbp - 80]
	mov	rcx, qword ptr [rbp - 72]
	cmp	rax, rcx
	cmovb	rcx, rax
	xor	eax, eax
	mov	rdi, rdx
	
	rep		stosq	qword ptr es:[rdi], rax
	
Ltmp867:
	mov	rdi, rdx
	call	__ZN8CryptoPP17AlignedDeallocateEPv
Ltmp868:
	jmp	LBB44_121
LBB44_119:
Ltmp876:
	mov	rbx, rax
	jmp	LBB44_123
LBB44_120:
Ltmp871:
	mov	rbx, rax
LBB44_121:
	mov	qword ptr [rbp - 200], r13
	mov	rdx, qword ptr [rbp - 168]
	test	rdx, rdx
	je	LBB44_123

	mov	rax, qword ptr [rbp - 184]
	mov	rcx, qword ptr [rbp - 176]
	cmp	rax, rcx
	cmovb	rcx, rax
	xor	eax, eax
	mov	rdi, rdx
	
	rep		stosq	qword ptr es:[rdi], rax
	
Ltmp872:
	mov	rdi, rdx
	call	__ZN8CryptoPP17AlignedDeallocateEPv
Ltmp873:
LBB44_123:
	mov	qword ptr [rbp - 152], r13
	mov	rdx, qword ptr [rbp - 120]
	test	rdx, rdx
	je	LBB44_148

	mov	rax, qword ptr [rbp - 136]
	mov	rcx, qword ptr [rbp - 128]
	cmp	rax, rcx
	cmovb	rcx, rax
	xor	eax, eax
	mov	rdi, rdx
	
	rep		stosq	qword ptr es:[rdi], rax
	
Ltmp877:
	mov	rdi, rdx
	call	__ZN8CryptoPP17AlignedDeallocateEPv
Ltmp878:
	jmp	LBB44_148
LBB44_125:
Ltmp798:
	mov	rbx, rax
	mov	qword ptr [rbp - 400], r13
	mov	rdx, qword ptr [rbp - 368]
	test	rdx, rdx
	je	LBB44_130

	mov	rax, qword ptr [rbp - 384]
	mov	rcx, qword ptr [rbp - 376]
	cmp	rax, rcx
	cmovb	rcx, rax
	xor	eax, eax
	mov	rdi, rdx
	
	rep		stosq	qword ptr es:[rdi], rax
	
Ltmp799:
	mov	rdi, rdx
	call	__ZN8CryptoPP17AlignedDeallocateEPv
Ltmp800:
	jmp	LBB44_130
LBB44_127:
Ltmp813:
	mov	rbx, rax
	jmp	LBB44_134
LBB44_128:
Ltmp808:
	mov	rbx, rax
	jmp	LBB44_132
LBB44_129:
Ltmp803:
	mov	rbx, rax
LBB44_130:
	mov	qword ptr [rbp - 96], r13
	mov	rdx, qword ptr [rbp - 64]
	test	rdx, rdx
	je	LBB44_132

	mov	rax, qword ptr [rbp - 80]
	mov	rcx, qword ptr [rbp - 72]
	cmp	rax, rcx
	cmovb	rcx, rax
	xor	eax, eax
	mov	rdi, rdx
	
	rep		stosq	qword ptr es:[rdi], rax
	
Ltmp804:
	mov	rdi, rdx
	call	__ZN8CryptoPP17AlignedDeallocateEPv
Ltmp805:
LBB44_132:
	mov	qword ptr [rbp - 152], r13
	mov	rdx, qword ptr [rbp - 120]
	test	rdx, rdx
	je	LBB44_134

	mov	rax, qword ptr [rbp - 136]
	mov	rcx, qword ptr [rbp - 128]
	cmp	rax, rcx
	cmovb	rcx, rax
	xor	eax, eax
	mov	rdi, rdx
	
	rep		stosq	qword ptr es:[rdi], rax
	
Ltmp809:
	mov	rdi, rdx
	call	__ZN8CryptoPP17AlignedDeallocateEPv
Ltmp810:
LBB44_134:
	mov	qword ptr [rbp - 248], r13
	mov	rdx, qword ptr [rbp - 216]
	test	rdx, rdx
	je	LBB44_140

	mov	rax, qword ptr [rbp - 232]
	mov	rcx, qword ptr [rbp - 224]
	cmp	rax, rcx
	cmovb	rcx, rax
	xor	eax, eax
	mov	rdi, rdx
	
	rep		stosq	qword ptr es:[rdi], rax
	
Ltmp814:
	mov	rdi, rdx
	call	__ZN8CryptoPP17AlignedDeallocateEPv
Ltmp815:
	jmp	LBB44_140
LBB44_136:
Ltmp833:
	mov	rbx, rax
	jmp	LBB44_146
LBB44_137:
Ltmp828:
	mov	rbx, rax
	jmp	LBB44_144
LBB44_138:
Ltmp823:
	mov	rbx, rax
	jmp	LBB44_142
LBB44_139:
Ltmp818:
	mov	rbx, rax
LBB44_140:
	mov	qword ptr [rbp - 448], r13
	mov	rdx, qword ptr [rbp - 416]
	test	rdx, rdx
	je	LBB44_142

	mov	rax, qword ptr [rbp - 432]
	mov	rcx, qword ptr [rbp - 424]
	cmp	rax, rcx
	cmovb	rcx, rax
	xor	eax, eax
	mov	rdi, rdx
	
	rep		stosq	qword ptr es:[rdi], rax
	
Ltmp819:
	mov	rdi, rdx
	call	__ZN8CryptoPP17AlignedDeallocateEPv
Ltmp820:
LBB44_142:
	mov	qword ptr [rbp - 344], r13
	mov	rdx, qword ptr [rbp - 312]
	test	rdx, rdx
	je	LBB44_144

	mov	rax, qword ptr [rbp - 328]
	mov	rcx, qword ptr [rbp - 320]
	cmp	rax, rcx
	cmovb	rcx, rax
	xor	eax, eax
	mov	rdi, rdx
	
	rep		stosq	qword ptr es:[rdi], rax
	
Ltmp824:
	mov	rdi, rdx
	call	__ZN8CryptoPP17AlignedDeallocateEPv
Ltmp825:
LBB44_144:
	mov	qword ptr [rbp - 296], r13
	mov	rdx, qword ptr [rbp - 264]
	test	rdx, rdx
	je	LBB44_146

	mov	rax, qword ptr [rbp - 280]
	mov	rcx, qword ptr [rbp - 272]
	cmp	rax, rcx
	cmovb	rcx, rax
	xor	eax, eax
	mov	rdi, rdx
	
	rep		stosq	qword ptr es:[rdi], rax
	
Ltmp829:
	mov	rdi, rdx
	call	__ZN8CryptoPP17AlignedDeallocateEPv
Ltmp830:
LBB44_146:
	mov	qword ptr [rbp - 200], r13
	mov	rdx, qword ptr [rbp - 168]
	test	rdx, rdx
	je	LBB44_148

	mov	rax, qword ptr [rbp - 184]
	mov	rcx, qword ptr [rbp - 176]
	cmp	rax, rcx
	cmovb	rcx, rax
	xor	eax, eax
	mov	rdi, rdx
	
	rep		stosq	qword ptr es:[rdi], rax
	
Ltmp834:
	mov	rdi, rdx
	call	__ZN8CryptoPP17AlignedDeallocateEPv
Ltmp835:
LBB44_148:
	mov	rdi, rbx
	call	__Unwind_Resume
	ud2
LBB44_149:
Ltmp779:
	mov	rbx, rax
	mov	rax, qword ptr [rip + __ZTVN8CryptoPP7IntegerE@GOTPCREL]
	add	rax, 16
	mov	qword ptr [rbp - 96], rax
	mov	rdx, qword ptr [rbp - 64]
	test	rdx, rdx
	je	LBB44_148

	mov	rax, qword ptr [rbp - 80]
	mov	rcx, qword ptr [rbp - 72]
	cmp	rax, rcx
	cmovb	rcx, rax
	xor	eax, eax
	mov	rdi, rdx
	
	rep		stosq	qword ptr es:[rdi], rax
	
Ltmp780:
	mov	rdi, rdx
	call	__ZN8CryptoPP17AlignedDeallocateEPv
Ltmp781:
	jmp	LBB44_148
LBB44_151:
Ltmp898:
	mov	rdi, rax
	call	___clang_call_terminate
Lfunc_end18:
	.cfi_endproc
	.section	__TEXT,__gcc_except_tab
	.p2align	2
GCC_except_table44:
Lexception18:
	.byte	255                     
	.byte	155                     
	.uleb128 Lttbase16-Lttbaseref16
Lttbaseref16:
	.byte	1                       
	.uleb128 Lcst_end18-Lcst_begin18
Lcst_begin18:
	.uleb128 Lfunc_begin18-Lfunc_begin18 
	.uleb128 Ltmp777-Lfunc_begin18  
	.byte	0                       
	.byte	0                       
	.uleb128 Ltmp777-Lfunc_begin18  
	.uleb128 Ltmp778-Ltmp777        
	.uleb128 Ltmp779-Lfunc_begin18  
	.byte	0                       
	.uleb128 Ltmp778-Lfunc_begin18  
	.uleb128 Ltmp782-Ltmp778        
	.byte	0                       
	.byte	0                       
	.uleb128 Ltmp782-Lfunc_begin18  
	.uleb128 Ltmp783-Ltmp782        
	.uleb128 Ltmp833-Lfunc_begin18  
	.byte	0                       
	.uleb128 Ltmp784-Lfunc_begin18  
	.uleb128 Ltmp785-Ltmp784        
	.uleb128 Ltmp828-Lfunc_begin18  
	.byte	0                       
	.uleb128 Ltmp786-Lfunc_begin18  
	.uleb128 Ltmp787-Ltmp786        
	.uleb128 Ltmp823-Lfunc_begin18  
	.byte	0                       
	.uleb128 Ltmp788-Lfunc_begin18  
	.uleb128 Ltmp789-Ltmp788        
	.uleb128 Ltmp818-Lfunc_begin18  
	.byte	0                       
	.uleb128 Ltmp790-Lfunc_begin18  
	.uleb128 Ltmp791-Ltmp790        
	.uleb128 Ltmp813-Lfunc_begin18  
	.byte	0                       
	.uleb128 Ltmp792-Lfunc_begin18  
	.uleb128 Ltmp793-Ltmp792        
	.uleb128 Ltmp808-Lfunc_begin18  
	.byte	0                       
	.uleb128 Ltmp794-Lfunc_begin18  
	.uleb128 Ltmp795-Ltmp794        
	.uleb128 Ltmp803-Lfunc_begin18  
	.byte	0                       
	.uleb128 Ltmp796-Lfunc_begin18  
	.uleb128 Ltmp797-Ltmp796        
	.uleb128 Ltmp798-Lfunc_begin18  
	.byte	0                       
	.uleb128 Ltmp801-Lfunc_begin18  
	.uleb128 Ltmp802-Ltmp801        
	.uleb128 Ltmp803-Lfunc_begin18  
	.byte	0                       
	.uleb128 Ltmp806-Lfunc_begin18  
	.uleb128 Ltmp807-Ltmp806        
	.uleb128 Ltmp808-Lfunc_begin18  
	.byte	0                       
	.uleb128 Ltmp811-Lfunc_begin18  
	.uleb128 Ltmp812-Ltmp811        
	.uleb128 Ltmp813-Lfunc_begin18  
	.byte	0                       
	.uleb128 Ltmp816-Lfunc_begin18  
	.uleb128 Ltmp817-Ltmp816        
	.uleb128 Ltmp818-Lfunc_begin18  
	.byte	0                       
	.uleb128 Ltmp821-Lfunc_begin18  
	.uleb128 Ltmp822-Ltmp821        
	.uleb128 Ltmp823-Lfunc_begin18  
	.byte	0                       
	.uleb128 Ltmp826-Lfunc_begin18  
	.uleb128 Ltmp827-Ltmp826        
	.uleb128 Ltmp828-Lfunc_begin18  
	.byte	0                       
	.uleb128 Ltmp831-Lfunc_begin18  
	.uleb128 Ltmp832-Ltmp831        
	.uleb128 Ltmp833-Lfunc_begin18  
	.byte	0                       
	.uleb128 Ltmp832-Lfunc_begin18  
	.uleb128 Ltmp836-Ltmp832        
	.byte	0                       
	.byte	0                       
	.uleb128 Ltmp836-Lfunc_begin18  
	.uleb128 Ltmp837-Ltmp836        
	.uleb128 Ltmp876-Lfunc_begin18  
	.byte	0                       
	.uleb128 Ltmp838-Lfunc_begin18  
	.uleb128 Ltmp839-Ltmp838        
	.uleb128 Ltmp871-Lfunc_begin18  
	.byte	0                       
	.uleb128 Ltmp840-Lfunc_begin18  
	.uleb128 Ltmp841-Ltmp840        
	.uleb128 Ltmp842-Lfunc_begin18  
	.byte	0                       
	.uleb128 Ltmp841-Lfunc_begin18  
	.uleb128 Ltmp843-Ltmp841        
	.byte	0                       
	.byte	0                       
	.uleb128 Ltmp843-Lfunc_begin18  
	.uleb128 Ltmp844-Ltmp843        
	.uleb128 Ltmp866-Lfunc_begin18  
	.byte	0                       
	.uleb128 Ltmp845-Lfunc_begin18  
	.uleb128 Ltmp846-Ltmp845        
	.uleb128 Ltmp861-Lfunc_begin18  
	.byte	0                       
	.uleb128 Ltmp847-Lfunc_begin18  
	.uleb128 Ltmp848-Ltmp847        
	.uleb128 Ltmp856-Lfunc_begin18  
	.byte	0                       
	.uleb128 Ltmp849-Lfunc_begin18  
	.uleb128 Ltmp850-Ltmp849        
	.uleb128 Ltmp851-Lfunc_begin18  
	.byte	0                       
	.uleb128 Ltmp854-Lfunc_begin18  
	.uleb128 Ltmp855-Ltmp854        
	.uleb128 Ltmp856-Lfunc_begin18  
	.byte	0                       
	.uleb128 Ltmp859-Lfunc_begin18  
	.uleb128 Ltmp860-Ltmp859        
	.uleb128 Ltmp861-Lfunc_begin18  
	.byte	0                       
	.uleb128 Ltmp864-Lfunc_begin18  
	.uleb128 Ltmp865-Ltmp864        
	.uleb128 Ltmp866-Lfunc_begin18  
	.byte	0                       
	.uleb128 Ltmp869-Lfunc_begin18  
	.uleb128 Ltmp870-Ltmp869        
	.uleb128 Ltmp871-Lfunc_begin18  
	.byte	0                       
	.uleb128 Ltmp874-Lfunc_begin18  
	.uleb128 Ltmp875-Ltmp874        
	.uleb128 Ltmp876-Lfunc_begin18  
	.byte	0                       
	.uleb128 Ltmp875-Lfunc_begin18  
	.uleb128 Ltmp879-Ltmp875        
	.byte	0                       
	.byte	0                       
	.uleb128 Ltmp879-Lfunc_begin18  
	.uleb128 Ltmp880-Ltmp879        
	.uleb128 Ltmp895-Lfunc_begin18  
	.byte	0                       
	.uleb128 Ltmp881-Lfunc_begin18  
	.uleb128 Ltmp882-Ltmp881        
	.uleb128 Ltmp890-Lfunc_begin18  
	.byte	0                       
	.uleb128 Ltmp883-Lfunc_begin18  
	.uleb128 Ltmp884-Ltmp883        
	.uleb128 Ltmp885-Lfunc_begin18  
	.byte	0                       
	.uleb128 Ltmp888-Lfunc_begin18  
	.uleb128 Ltmp889-Ltmp888        
	.uleb128 Ltmp890-Lfunc_begin18  
	.byte	0                       
	.uleb128 Ltmp893-Lfunc_begin18  
	.uleb128 Ltmp894-Ltmp893        
	.uleb128 Ltmp895-Lfunc_begin18  
	.byte	0                       
	.uleb128 Ltmp894-Lfunc_begin18  
	.uleb128 Ltmp852-Ltmp894        
	.byte	0                       
	.byte	0                       
	.uleb128 Ltmp852-Lfunc_begin18  
	.uleb128 Ltmp835-Ltmp852        
	.uleb128 Ltmp898-Lfunc_begin18  
	.byte	1                       
	.uleb128 Ltmp835-Lfunc_begin18  
	.uleb128 Ltmp780-Ltmp835        
	.byte	0                       
	.byte	0                       
	.uleb128 Ltmp780-Lfunc_begin18  
	.uleb128 Ltmp781-Ltmp780        
	.uleb128 Ltmp898-Lfunc_begin18  
	.byte	1                       
Lcst_end18:
	.byte	1                       
                                        
	.byte	0                       
	.p2align	2
                                        
	.long	0                       
Lttbase16:
	.p2align	2
                                        
	.section	__TEXT,__text,regular,pure_instructions
	.globl	__ZTv0_n48_NK8CryptoPP21InvertibleRSAFunction8ValidateERNS_21RandomNumberGeneratorEj 
	.p2align	4, 0x90
__ZTv0_n48_NK8CryptoPP21InvertibleRSAFunction8ValidateERNS_21RandomNumberGeneratorEj: 
	.cfi_startproc

	push	rbp
	.cfi_def_cfa_offset 16
	.cfi_offset rbp, -16
	mov	rbp, rsp
	.cfi_def_cfa_register rbp
	mov	rax, qword ptr [rdi]
	add	rdi, qword ptr [rax - 48]
	pop	rbp
	jmp	__ZNK8CryptoPP21InvertibleRSAFunction8ValidateERNS_21RandomNumberGeneratorEj 
	.cfi_endproc
                                        
	.globl	__ZNK8CryptoPP21InvertibleRSAFunction12GetVoidValueEPKcRKSt9type_infoPv 
	.p2align	4, 0x90
__ZNK8CryptoPP21InvertibleRSAFunction12GetVoidValueEPKcRKSt9type_infoPv: 
	.cfi_startproc

	push	rbp
	.cfi_def_cfa_offset 16
	.cfi_offset rbp, -16
	mov	rbp, rsp
	.cfi_def_cfa_register rbp
	push	r15
	push	r14
	push	r12
	push	rbx
	sub	rsp, 48
	.cfi_offset rbx, -48
	.cfi_offset r12, -40
	.cfi_offset r14, -32
	.cfi_offset r15, -24
	mov	r8, rcx
	mov	rcx, rdx
	mov	rdx, rsi
	mov	rsi, rdi
	lea	rbx, [rbp - 72]
	mov	rdi, rbx
	xor	r9d, r9d
	call	__ZN8CryptoPP19GetValueHelperClassINS_21InvertibleRSAFunctionENS_11RSAFunctionEEC2EPKS1_PKcRKSt9type_infoPvPKNS_14NameValuePairsE
	mov	rdi, rbx
	call	__ZN8CryptoPP19GetValueHelperClassINS_21InvertibleRSAFunctionENS_11RSAFunctionEE10AssignableEv
	mov	rbx, rax
	cmp	byte ptr [rax + 33], 0
	je	LBB46_2

	mov	rdi, qword ptr [rbx + 24]
	lea	rsi, [rip + L_.str.28]
	call	__ZNSt3__112basic_stringIcNS_11char_traitsIcEENS_9allocatorIcEEE6appendEPKc
	lea	rsi, [rip + L_.str.46]
	mov	rdi, rax
	call	__ZNSt3__112basic_stringIcNS_11char_traitsIcEENS_9allocatorIcEEE6appendEPKc
LBB46_2:
	mov	r14b, 1
	cmp	byte ptr [rbx + 32], 0
	jne	LBB46_6

	mov	rsi, qword ptr [rbx + 8]
	lea	rdi, [rip + L_.str.28]
	call	_strcmp
	test	eax, eax
	je	LBB46_5

	xor	r14d, r14d
LBB46_6:
	cmp	byte ptr [rbx + 33], 0
	je	LBB46_8
LBB46_7:
	mov	rdi, qword ptr [rbx + 24]
	lea	rsi, [rip + L_.str.29]
	call	__ZNSt3__112basic_stringIcNS_11char_traitsIcEENS_9allocatorIcEEE6appendEPKc
	lea	rsi, [rip + L_.str.46]
	mov	rdi, rax
	call	__ZNSt3__112basic_stringIcNS_11char_traitsIcEENS_9allocatorIcEEE6appendEPKc
	mov	r14b, byte ptr [rbx + 32]
LBB46_8:
	mov	r15b, 1
	test	r14b, r14b
	jne	LBB46_12

	mov	rsi, qword ptr [rbx + 8]
	lea	rdi, [rip + L_.str.29]
	call	_strcmp
	test	eax, eax
	je	LBB46_11

	xor	r15d, r15d
LBB46_12:
	cmp	byte ptr [rbx + 33], 0
	je	LBB46_14
LBB46_13:
	mov	rdi, qword ptr [rbx + 24]
	lea	rsi, [rip + L_.str.30]
	call	__ZNSt3__112basic_stringIcNS_11char_traitsIcEENS_9allocatorIcEEE6appendEPKc
	lea	rsi, [rip + L_.str.46]
	mov	rdi, rax
	call	__ZNSt3__112basic_stringIcNS_11char_traitsIcEENS_9allocatorIcEEE6appendEPKc
	mov	r15b, byte ptr [rbx + 32]
LBB46_14:
	mov	r14b, 1
	test	r15b, r15b
	jne	LBB46_18

	mov	rsi, qword ptr [rbx + 8]
	lea	rdi, [rip + L_.str.30]
	call	_strcmp
	test	eax, eax
	je	LBB46_17

	xor	r14d, r14d
LBB46_18:
	cmp	byte ptr [rbx + 33], 0
	je	LBB46_20
LBB46_19:
	mov	rdi, qword ptr [rbx + 24]
	lea	rsi, [rip + L_.str.31]
	call	__ZNSt3__112basic_stringIcNS_11char_traitsIcEENS_9allocatorIcEEE6appendEPKc
	lea	rsi, [rip + L_.str.46]
	mov	rdi, rax
	call	__ZNSt3__112basic_stringIcNS_11char_traitsIcEENS_9allocatorIcEEE6appendEPKc
	mov	r14b, byte ptr [rbx + 32]
LBB46_20:
	mov	r15b, 1
	test	r14b, r14b
	jne	LBB46_24

	mov	rsi, qword ptr [rbx + 8]
	lea	rdi, [rip + L_.str.31]
	call	_strcmp
	test	eax, eax
	je	LBB46_23

	xor	r15d, r15d
LBB46_24:
	cmp	byte ptr [rbx + 33], 0
	je	LBB46_26
LBB46_25:
	mov	rdi, qword ptr [rbx + 24]
	lea	rsi, [rip + L_.str.32]
	call	__ZNSt3__112basic_stringIcNS_11char_traitsIcEENS_9allocatorIcEEE6appendEPKc
	lea	rsi, [rip + L_.str.46]
	mov	rdi, rax
	call	__ZNSt3__112basic_stringIcNS_11char_traitsIcEENS_9allocatorIcEEE6appendEPKc
	mov	r15b, byte ptr [rbx + 32]
LBB46_26:
	mov	r12b, 1
	test	r15b, r15b
	jne	LBB46_30

	mov	rsi, qword ptr [rbx + 8]
	lea	rdi, [rip + L_.str.32]
	call	_strcmp
	test	eax, eax
	je	LBB46_29

	xor	r12d, r12d
LBB46_30:
	cmp	byte ptr [rbx + 33], 0
	je	LBB46_32
LBB46_31:
	mov	rdi, qword ptr [rbx + 24]
	lea	rsi, [rip + L_.str.33]
	call	__ZNSt3__112basic_stringIcNS_11char_traitsIcEENS_9allocatorIcEEE6appendEPKc
	lea	rsi, [rip + L_.str.46]
	mov	rdi, rax
	call	__ZNSt3__112basic_stringIcNS_11char_traitsIcEENS_9allocatorIcEEE6appendEPKc
	mov	r12b, byte ptr [rbx + 32]
LBB46_32:
	mov	r14b, 1
	test	r12b, r12b
	jne	LBB46_36

	mov	rsi, qword ptr [rbx + 8]
	lea	rdi, [rip + L_.str.33]
	call	_strcmp
	test	eax, eax
	je	LBB46_35

	xor	r14d, r14d
	jmp	LBB46_36
LBB46_5:
	mov	rdx, qword ptr [rbx + 16]
	lea	rdi, [rip + L_.str.28]
	mov	rsi, qword ptr [rip + __ZTIN8CryptoPP7IntegerE@GOTPCREL]
	call	__ZN8CryptoPP14NameValuePairs19ThrowIfTypeMismatchEPKcRKSt9type_infoS5_
	mov	esi, 272
	add	rsi, qword ptr [rbx]
	mov	rdi, qword ptr [rbx + 24]
	call	__ZN8CryptoPP7IntegeraSERKS0_
	mov	byte ptr [rbx + 32], 1
	cmp	byte ptr [rbx + 33], 0
	jne	LBB46_7
	jmp	LBB46_8
LBB46_11:
	mov	rdx, qword ptr [rbx + 16]
	lea	rdi, [rip + L_.str.29]
	mov	rsi, qword ptr [rip + __ZTIN8CryptoPP7IntegerE@GOTPCREL]
	call	__ZN8CryptoPP14NameValuePairs19ThrowIfTypeMismatchEPKcRKSt9type_infoS5_
	mov	esi, 320
	add	rsi, qword ptr [rbx]
	mov	rdi, qword ptr [rbx + 24]
	call	__ZN8CryptoPP7IntegeraSERKS0_
	mov	byte ptr [rbx + 32], 1
	cmp	byte ptr [rbx + 33], 0
	jne	LBB46_13
	jmp	LBB46_14
LBB46_17:
	mov	rdx, qword ptr [rbx + 16]
	lea	rdi, [rip + L_.str.30]
	mov	rsi, qword ptr [rip + __ZTIN8CryptoPP7IntegerE@GOTPCREL]
	call	__ZN8CryptoPP14NameValuePairs19ThrowIfTypeMismatchEPKcRKSt9type_infoS5_
	mov	esi, 224
	add	rsi, qword ptr [rbx]
	mov	rdi, qword ptr [rbx + 24]
	call	__ZN8CryptoPP7IntegeraSERKS0_
	mov	byte ptr [rbx + 32], 1
	cmp	byte ptr [rbx + 33], 0
	jne	LBB46_19
	jmp	LBB46_20
LBB46_23:
	mov	rdx, qword ptr [rbx + 16]
	lea	rdi, [rip + L_.str.31]
	mov	rsi, qword ptr [rip + __ZTIN8CryptoPP7IntegerE@GOTPCREL]
	call	__ZN8CryptoPP14NameValuePairs19ThrowIfTypeMismatchEPKcRKSt9type_infoS5_
	mov	esi, 368
	add	rsi, qword ptr [rbx]
	mov	rdi, qword ptr [rbx + 24]
	call	__ZN8CryptoPP7IntegeraSERKS0_
	mov	byte ptr [rbx + 32], 1
	cmp	byte ptr [rbx + 33], 0
	jne	LBB46_25
	jmp	LBB46_26
LBB46_29:
	mov	rdx, qword ptr [rbx + 16]
	lea	rdi, [rip + L_.str.32]
	mov	rsi, qword ptr [rip + __ZTIN8CryptoPP7IntegerE@GOTPCREL]
	call	__ZN8CryptoPP14NameValuePairs19ThrowIfTypeMismatchEPKcRKSt9type_infoS5_
	mov	esi, 416
	add	rsi, qword ptr [rbx]
	mov	rdi, qword ptr [rbx + 24]
	call	__ZN8CryptoPP7IntegeraSERKS0_
	mov	byte ptr [rbx + 32], 1
	cmp	byte ptr [rbx + 33], 0
	jne	LBB46_31
	jmp	LBB46_32
LBB46_35:
	mov	rdx, qword ptr [rbx + 16]
	lea	rdi, [rip + L_.str.33]
	mov	rsi, qword ptr [rip + __ZTIN8CryptoPP7IntegerE@GOTPCREL]
	call	__ZN8CryptoPP14NameValuePairs19ThrowIfTypeMismatchEPKcRKSt9type_infoS5_
	mov	esi, 464
	add	rsi, qword ptr [rbx]
	mov	rdi, qword ptr [rbx + 24]
	call	__ZN8CryptoPP7IntegeraSERKS0_
	mov	byte ptr [rbx + 32], 1
LBB46_36:
	mov	eax, r14d
	add	rsp, 48
	pop	rbx
	pop	r12
	pop	r14
	pop	r15
	pop	rbp
	ret
	.cfi_endproc
                                        
	.globl	__ZN8CryptoPP19GetValueHelperClassINS_21InvertibleRSAFunctionENS_11RSAFunctionEE10AssignableEv 
	.weak_def_can_be_hidden	__ZN8CryptoPP19GetValueHelperClassINS_21InvertibleRSAFunctionENS_11RSAFunctionEE10AssignableEv
	.p2align	4, 0x90
__ZN8CryptoPP19GetValueHelperClassINS_21InvertibleRSAFunctionENS_11RSAFunctionEE10AssignableEv: 
	.cfi_startproc

	push	rbp
	.cfi_def_cfa_offset 16
	.cfi_offset rbp, -16
	mov	rbp, rsp
	.cfi_def_cfa_register rbp
	push	r15
	push	r14
	push	rbx
	push	rax
	.cfi_offset rbx, -40
	.cfi_offset r14, -32
	.cfi_offset r15, -24
	mov	rbx, rdi
	cmp	byte ptr [rdi + 33], 0
	je	LBB47_2

	mov	rdi, qword ptr [rbx + 24]
	lea	rsi, [rip + L_.str.45]
	call	__ZNSt3__112basic_stringIcNS_11char_traitsIcEENS_9allocatorIcEEE6appendEPKc
	lea	rsi, [rip + __ZTSN8CryptoPP21InvertibleRSAFunctionE]
	mov	rdi, rax
	call	__ZNSt3__112basic_stringIcNS_11char_traitsIcEENS_9allocatorIcEEE6appendEPKc
	mov	rdi, rax
	mov	esi, 59
	call	__ZNSt3__112basic_stringIcNS_11char_traitsIcEENS_9allocatorIcEEE9push_backEc
LBB47_2:
	cmp	byte ptr [rbx + 32], 0
	jne	LBB47_6

	mov	r14, qword ptr [rbx + 8]
	lea	rsi, [rip + L_.str.45]
	mov	edx, 11
	mov	rdi, r14
	call	_strncmp
	test	eax, eax
	jne	LBB47_6

	lea	rdi, [r14 + 11]
	lea	rsi, [rip + __ZTSN8CryptoPP21InvertibleRSAFunctionE]
	call	_strcmp
	test	eax, eax
	jne	LBB47_6

	mov	rdx, qword ptr [rbx + 16]
	lea	rsi, [rip + __ZTIN8CryptoPP21InvertibleRSAFunctionE]
	mov	rdi, r14
	call	__ZN8CryptoPP14NameValuePairs19ThrowIfTypeMismatchEPKcRKSt9type_infoS5_
	mov	r14, qword ptr [rbx]
	mov	r15, qword ptr [rbx + 24]
	lea	rdi, [r15 + 24]
	lea	rsi, [r14 + 24]
	call	__ZN8CryptoPP7IntegeraSERKS0_
	lea	rdi, [r15 + 72]
	lea	rsi, [r14 + 72]
	call	__ZN8CryptoPP7IntegeraSERKS0_
	lea	rdi, [r15 + 144]
	lea	rsi, [r14 + 144]
	call	__ZN8CryptoPP9ByteQueueaSERKS0_
	lea	rdi, [r15 + 224]
	lea	rsi, [r14 + 224]
	call	__ZN8CryptoPP7IntegeraSERKS0_
	lea	rdi, [r15 + 272]
	lea	rsi, [r14 + 272]
	call	__ZN8CryptoPP7IntegeraSERKS0_
	lea	rdi, [r15 + 320]
	lea	rsi, [r14 + 320]
	call	__ZN8CryptoPP7IntegeraSERKS0_
	lea	rdi, [r15 + 368]
	lea	rsi, [r14 + 368]
	call	__ZN8CryptoPP7IntegeraSERKS0_
	lea	rdi, [r15 + 416]
	lea	rsi, [r14 + 416]
	call	__ZN8CryptoPP7IntegeraSERKS0_
	add	r15, 464
	add	r14, 464
	mov	rdi, r15
	mov	rsi, r14
	call	__ZN8CryptoPP7IntegeraSERKS0_
	mov	byte ptr [rbx + 32], 1
LBB47_6:
	mov	rax, rbx
	add	rsp, 8
	pop	rbx
	pop	r14
	pop	r15
	pop	rbp
	ret
	.cfi_endproc
                                        
	.globl	__ZTv0_n32_NK8CryptoPP21InvertibleRSAFunction12GetVoidValueEPKcRKSt9type_infoPv 
	.p2align	4, 0x90
__ZTv0_n32_NK8CryptoPP21InvertibleRSAFunction12GetVoidValueEPKcRKSt9type_infoPv: 
	.cfi_startproc

	push	rbp
	.cfi_def_cfa_offset 16
	.cfi_offset rbp, -16
	mov	rbp, rsp
	.cfi_def_cfa_register rbp
	mov	rax, qword ptr [rdi]
	add	rdi, qword ptr [rax - 32]
	pop	rbp
	jmp	__ZNK8CryptoPP21InvertibleRSAFunction12GetVoidValueEPKcRKSt9type_infoPv 
	.cfi_endproc
                                        
	.globl	__ZN8CryptoPP21InvertibleRSAFunction10AssignFromERKNS_14NameValuePairsE 
	.p2align	4, 0x90
__ZN8CryptoPP21InvertibleRSAFunction10AssignFromERKNS_14NameValuePairsE: 
	.cfi_startproc

	push	rbp
	.cfi_def_cfa_offset 16
	.cfi_offset rbp, -16
	mov	rbp, rsp
	.cfi_def_cfa_register rbp
	push	r14
	push	rbx
	sub	rsp, 48
	.cfi_offset rbx, -32
	.cfi_offset r14, -24
	mov	r14, rsi
	mov	rbx, rdi
	mov	qword ptr [rbp - 40], rdi
	mov	qword ptr [rbp - 32], rsi
	mov	byte ptr [rbp - 24], 0
	mov	rdi, rsi
	mov	rsi, rbx
	call	__ZNK8CryptoPP14NameValuePairs13GetThisObjectINS_21InvertibleRSAFunctionEEEbRT_
	test	al, al
	je	LBB49_2

	mov	byte ptr [rbp - 24], 1
	jmp	LBB49_5
LBB49_2:
	mov	qword ptr [rbp - 64], rbx
	mov	qword ptr [rbp - 56], r14
	mov	byte ptr [rbp - 48], 0
	mov	rdi, r14
	mov	rsi, rbx
	call	__ZNK8CryptoPP14NameValuePairs13GetThisObjectINS_11RSAFunctionEEEbRT_
	test	al, al
	je	LBB49_4

	mov	byte ptr [rbp - 48], 1
LBB49_4:
	lea	rsi, [rip + L_.str.10]
	mov	rdx, qword ptr [rip + __ZN8CryptoPP11RSAFunction10SetModulusERKNS_7IntegerE@GOTPCREL]
	lea	rdi, [rbp - 64]
	xor	ecx, ecx
	call	__ZN8CryptoPP21AssignFromHelperClassINS_11RSAFunctionES1_EclINS_7IntegerEEERS2_PKcMS1_FvRKT_E
	lea	rsi, [rip + L_.str.11]
	mov	rdx, qword ptr [rip + __ZN8CryptoPP11RSAFunction17SetPublicExponentERKNS_7IntegerE@GOTPCREL]
	mov	rdi, rax
	xor	ecx, ecx
	call	__ZN8CryptoPP21AssignFromHelperClassINS_11RSAFunctionES1_EclINS_7IntegerEEERS2_PKcMS1_FvRKT_E
LBB49_5:
	lea	rsi, [rip + L_.str.28]
	mov	rdx, qword ptr [rip + __ZN8CryptoPP21InvertibleRSAFunction9SetPrime1ERKNS_7IntegerE@GOTPCREL]
	lea	rdi, [rbp - 40]
	xor	ecx, ecx
	call	__ZN8CryptoPP21AssignFromHelperClassINS_21InvertibleRSAFunctionENS_11RSAFunctionEEclINS_7IntegerEEERS3_PKcMS1_FvRKT_E
	lea	rsi, [rip + L_.str.29]
	mov	rdx, qword ptr [rip + __ZN8CryptoPP21InvertibleRSAFunction9SetPrime2ERKNS_7IntegerE@GOTPCREL]
	mov	rdi, rax
	xor	ecx, ecx
	call	__ZN8CryptoPP21AssignFromHelperClassINS_21InvertibleRSAFunctionENS_11RSAFunctionEEclINS_7IntegerEEERS3_PKcMS1_FvRKT_E
	lea	rsi, [rip + L_.str.30]
	mov	rdx, qword ptr [rip + __ZN8CryptoPP21InvertibleRSAFunction18SetPrivateExponentERKNS_7IntegerE@GOTPCREL]
	mov	rdi, rax
	xor	ecx, ecx
	call	__ZN8CryptoPP21AssignFromHelperClassINS_21InvertibleRSAFunctionENS_11RSAFunctionEEclINS_7IntegerEEERS3_PKcMS1_FvRKT_E
	lea	rsi, [rip + L_.str.31]
	mov	rdx, qword ptr [rip + __ZN8CryptoPP21InvertibleRSAFunction27SetModPrime1PrivateExponentERKNS_7IntegerE@GOTPCREL]
	mov	rdi, rax
	xor	ecx, ecx
	call	__ZN8CryptoPP21AssignFromHelperClassINS_21InvertibleRSAFunctionENS_11RSAFunctionEEclINS_7IntegerEEERS3_PKcMS1_FvRKT_E
	lea	rsi, [rip + L_.str.32]
	mov	rdx, qword ptr [rip + __ZN8CryptoPP21InvertibleRSAFunction27SetModPrime2PrivateExponentERKNS_7IntegerE@GOTPCREL]
	mov	rdi, rax
	xor	ecx, ecx
	call	__ZN8CryptoPP21AssignFromHelperClassINS_21InvertibleRSAFunctionENS_11RSAFunctionEEclINS_7IntegerEEERS3_PKcMS1_FvRKT_E
	lea	rsi, [rip + L_.str.33]
	mov	rdx, qword ptr [rip + __ZN8CryptoPP21InvertibleRSAFunction41SetMultiplicativeInverseOfPrime2ModPrime1ERKNS_7IntegerE@GOTPCREL]
	mov	rdi, rax
	xor	ecx, ecx
	call	__ZN8CryptoPP21AssignFromHelperClassINS_21InvertibleRSAFunctionENS_11RSAFunctionEEclINS_7IntegerEEERS3_PKcMS1_FvRKT_E
	add	rsp, 48
	pop	rbx
	pop	r14
	pop	rbp
	ret
	.cfi_endproc
                                        
	.section	__TEXT,__literal16,16byte_literals
	.p2align	4               
LCPI50_0:
	.quad	49                      
	.quad	34                      
	.section	__TEXT,__text,regular,pure_instructions
	.globl	__ZN8CryptoPP21AssignFromHelperClassINS_21InvertibleRSAFunctionENS_11RSAFunctionEEclINS_7IntegerEEERS3_PKcMS1_FvRKT_E
	.weak_def_can_be_hidden	__ZN8CryptoPP21AssignFromHelperClassINS_21InvertibleRSAFunctionENS_11RSAFunctionEEclINS_7IntegerEEERS3_PKcMS1_FvRKT_E
	.p2align	4, 0x90
__ZN8CryptoPP21AssignFromHelperClassINS_21InvertibleRSAFunctionENS_11RSAFunctionEEclINS_7IntegerEEERS3_PKcMS1_FvRKT_E: 
Lfunc_begin19:
	.cfi_startproc
	.cfi_personality 155, ___gxx_personality_v0
	.cfi_lsda 16, Lexception19

	push	rbp
	.cfi_def_cfa_offset 16
	.cfi_offset rbp, -16
	mov	rbp, rsp
	.cfi_def_cfa_register rbp
	push	r15
	push	r14
	push	r13
	push	r12
	push	rbx
	sub	rsp, 152
	.cfi_offset rbx, -56
	.cfi_offset r12, -48
	.cfi_offset r13, -40
	.cfi_offset r14, -32
	.cfi_offset r15, -24
	mov	rbx, rdi
	cmp	byte ptr [rdi + 16], 0
	jne	LBB50_29

	mov	r15, rcx
	mov	r14, rdx
	mov	r12, rsi
	lea	r13, [rbp - 88]
	mov	rdi, r13
	call	__ZN8CryptoPP7IntegerC1Ev
	mov	rdi, qword ptr [rbx + 8]
	mov	rax, qword ptr [rdi]
Ltmp899:
	mov	rdx, qword ptr [rip + __ZTIN8CryptoPP7IntegerE@GOTPCREL]
	mov	rsi, r12
	mov	rcx, r13
	call	qword ptr [rax + 16]
Ltmp900:

	test	al, al
	je	LBB50_3

	add	r15, qword ptr [rbx]
	test	r14b, 1
	je	LBB50_26

	mov	rax, qword ptr [r15]
	mov	r14, qword ptr [r14 + rax - 1]
LBB50_26:
Ltmp919:
	lea	rsi, [rbp - 88]
	mov	rdi, r15
	call	r14
Ltmp920:

	mov	rax, qword ptr [rip + __ZTVN8CryptoPP7IntegerE@GOTPCREL]
	add	rax, 16
	mov	qword ptr [rbp - 88], rax
	mov	rdx, qword ptr [rbp - 56]
	test	rdx, rdx
	je	LBB50_29

	mov	rax, qword ptr [rbp - 72]
	mov	rcx, qword ptr [rbp - 64]
	cmp	rax, rcx
	cmovb	rcx, rax
	xor	eax, eax
	mov	rdi, rdx
	
	rep		stosq	qword ptr es:[rdi], rax
	
	mov	rdi, rdx
	call	__ZN8CryptoPP17AlignedDeallocateEPv
LBB50_29:
	mov	rax, rbx
	add	rsp, 152
	pop	rbx
	pop	r12
	pop	r13
	pop	r14
	pop	r15
	pop	rbp
	ret
LBB50_3:
	mov	edi, 40
	call	___cxa_allocate_exception
	mov	r14, rax
Ltmp901:
	mov	edi, 48
	call	__Znwm
Ltmp902:

	mov	r15, rax
	mov	qword ptr [rbp - 176], rax
	movaps	xmm0, xmmword ptr [rip + LCPI50_0] 
	movaps	xmmword ptr [rbp - 192], xmm0
	movabs	rax, 8028075781168383553
	mov	qword ptr [r15 + 24], rax
	movabs	rax, 6003972769420244082
	mov	qword ptr [r15 + 16], rax
	movabs	rax, 7311152305719627856
	mov	qword ptr [r15 + 8], rax
	movabs	rax, 8031167702418798670
	mov	qword ptr [r15], rax
	mov	word ptr [r15 + 32], 17774
	mov	byte ptr [r15 + 34], 0
Ltmp904:
	lea	rdx, [rip + L_.str.47]
	lea	rdi, [rbp - 112]
	lea	rsi, [rbp - 192]
	call	__ZNSt3__1plIcNS_11char_traitsIcEENS_9allocatorIcEEEENS_12basic_stringIT_T0_T1_EERKS9_PKS6_
Ltmp905:

Ltmp907:
	lea	rdi, [rbp - 136]
	lea	rsi, [rbp - 112]
	mov	rdx, r12
	call	__ZNSt3__1plIcNS_11char_traitsIcEENS_9allocatorIcEEEENS_12basic_stringIT_T0_T1_EERKS9_PKS6_
Ltmp908:

Ltmp910:
	lea	rdx, [rip + L_.str.44]
	lea	rdi, [rbp - 160]
	lea	rsi, [rbp - 136]
	call	__ZNSt3__1plIcNS_11char_traitsIcEENS_9allocatorIcEEEENS_12basic_stringIT_T0_T1_EERKS9_PKS6_
Ltmp911:

	mov	rax, qword ptr [rip + __ZTVN8CryptoPP9ExceptionE@GOTPCREL]
	add	rax, 16
	mov	qword ptr [r14], rax
	mov	dword ptr [r14 + 8], 1
	mov	rdi, r14
	add	rdi, 16
Ltmp913:
	lea	rsi, [rbp - 160]
	call	__ZNSt3__112basic_stringIcNS_11char_traitsIcEENS_9allocatorIcEEEC1ERKS5_
Ltmp914:

	mov	rax, qword ptr [rip + __ZTVN8CryptoPP15InvalidArgumentE@GOTPCREL]
	add	rax, 16
	mov	qword ptr [r14], rax
Ltmp916:
	mov	rsi, qword ptr [rip + __ZTIN8CryptoPP15InvalidArgumentE@GOTPCREL]
	mov	rdx, qword ptr [rip + __ZN8CryptoPP15InvalidArgumentD1Ev@GOTPCREL]
	mov	rdi, r14
	call	___cxa_throw
Ltmp917:

	ud2
LBB50_14:
Ltmp918:
	mov	rbx, rax
	xor	r12d, r12d
	jmp	LBB50_15
LBB50_35:
Ltmp915:
	mov	rbx, rax
	mov	rdi, r14
	call	__ZNSt9exceptionD2Ev
	mov	r12b, 1
LBB50_15:
	test	byte ptr [rbp - 160], 1
	jne	LBB50_16

	test	byte ptr [rbp - 136], 1
	jne	LBB50_18
LBB50_19:
	test	byte ptr [rbp - 112], 1
	jne	LBB50_20
	jmp	LBB50_21
LBB50_16:
	mov	rdi, qword ptr [rbp - 144]
	call	__ZdlPv
	test	byte ptr [rbp - 136], 1
	je	LBB50_19
	jmp	LBB50_18
LBB50_13:
Ltmp912:
	mov	rbx, rax
	mov	r12b, 1
	test	byte ptr [rbp - 136], 1
	je	LBB50_19
LBB50_18:
	mov	rdi, qword ptr [rbp - 120]
	call	__ZdlPv
	test	byte ptr [rbp - 112], 1
	jne	LBB50_20
	jmp	LBB50_21
LBB50_12:
Ltmp909:
	mov	rbx, rax
	mov	r12b, 1
	test	byte ptr [rbp - 112], 1
	je	LBB50_21
LBB50_20:
	mov	rdi, qword ptr [rbp - 96]
	call	__ZdlPv
	jmp	LBB50_21
LBB50_11:
Ltmp906:
	mov	rbx, rax
	mov	r12b, 1
LBB50_21:
	mov	rdi, r15
	call	__ZdlPv
	test	r12b, r12b
	jne	LBB50_23
	jmp	LBB50_31
LBB50_10:
Ltmp903:
	mov	rbx, rax
	mov	r12b, 1
	test	r12b, r12b
	je	LBB50_31
LBB50_23:
	mov	rdi, r14
	call	___cxa_free_exception
	jmp	LBB50_31
LBB50_30:
Ltmp921:
	mov	rbx, rax
LBB50_31:
	mov	rax, qword ptr [rip + __ZTVN8CryptoPP7IntegerE@GOTPCREL]
	add	rax, 16
	mov	qword ptr [rbp - 88], rax
	mov	rdx, qword ptr [rbp - 56]
	test	rdx, rdx
	je	LBB50_33

	mov	rax, qword ptr [rbp - 72]
	mov	rcx, qword ptr [rbp - 64]
	cmp	rax, rcx
	cmovb	rcx, rax
	xor	eax, eax
	mov	rdi, rdx
	
	rep		stosq	qword ptr es:[rdi], rax
	
Ltmp922:
	mov	rdi, rdx
	call	__ZN8CryptoPP17AlignedDeallocateEPv
Ltmp923:
LBB50_33:
	mov	rdi, rbx
	call	__Unwind_Resume
	ud2
LBB50_34:
Ltmp924:
	mov	rdi, rax
	call	___clang_call_terminate
Lfunc_end19:
	.cfi_endproc
	.section	__TEXT,__gcc_except_tab
	.p2align	2
GCC_except_table50:
Lexception19:
	.byte	255                     
	.byte	155                     
	.uleb128 Lttbase17-Lttbaseref17
Lttbaseref17:
	.byte	1                       
	.uleb128 Lcst_end19-Lcst_begin19
Lcst_begin19:
	.uleb128 Lfunc_begin19-Lfunc_begin19 
	.uleb128 Ltmp899-Lfunc_begin19  
	.byte	0                       
	.byte	0                       
	.uleb128 Ltmp899-Lfunc_begin19  
	.uleb128 Ltmp920-Ltmp899        
	.uleb128 Ltmp921-Lfunc_begin19  
	.byte	0                       
	.uleb128 Ltmp920-Lfunc_begin19  
	.uleb128 Ltmp901-Ltmp920        
	.byte	0                       
	.byte	0                       
	.uleb128 Ltmp901-Lfunc_begin19  
	.uleb128 Ltmp902-Ltmp901        
	.uleb128 Ltmp903-Lfunc_begin19  
	.byte	0                       
	.uleb128 Ltmp904-Lfunc_begin19  
	.uleb128 Ltmp905-Ltmp904        
	.uleb128 Ltmp906-Lfunc_begin19  
	.byte	0                       
	.uleb128 Ltmp907-Lfunc_begin19  
	.uleb128 Ltmp908-Ltmp907        
	.uleb128 Ltmp909-Lfunc_begin19  
	.byte	0                       
	.uleb128 Ltmp910-Lfunc_begin19  
	.uleb128 Ltmp911-Ltmp910        
	.uleb128 Ltmp912-Lfunc_begin19  
	.byte	0                       
	.uleb128 Ltmp913-Lfunc_begin19  
	.uleb128 Ltmp914-Ltmp913        
	.uleb128 Ltmp915-Lfunc_begin19  
	.byte	0                       
	.uleb128 Ltmp916-Lfunc_begin19  
	.uleb128 Ltmp917-Ltmp916        
	.uleb128 Ltmp918-Lfunc_begin19  
	.byte	0                       
	.uleb128 Ltmp917-Lfunc_begin19  
	.uleb128 Ltmp922-Ltmp917        
	.byte	0                       
	.byte	0                       
	.uleb128 Ltmp922-Lfunc_begin19  
	.uleb128 Ltmp923-Ltmp922        
	.uleb128 Ltmp924-Lfunc_begin19  
	.byte	1                       
	.uleb128 Ltmp923-Lfunc_begin19  
	.uleb128 Lfunc_end19-Ltmp923    
	.byte	0                       
	.byte	0                       
Lcst_end19:
	.byte	1                       
                                        
	.byte	0                       
	.p2align	2
                                        
	.long	0                       
Lttbase17:
	.p2align	2
                                        
	.section	__TEXT,__text,regular,pure_instructions
	.globl	__ZN8CryptoPP21InvertibleRSAFunction9SetPrime1ERKNS_7IntegerE 
	.weak_definition	__ZN8CryptoPP21InvertibleRSAFunction9SetPrime1ERKNS_7IntegerE
	.p2align	4, 0x90
__ZN8CryptoPP21InvertibleRSAFunction9SetPrime1ERKNS_7IntegerE: 
	.cfi_startproc

	push	rbp
	.cfi_def_cfa_offset 16
	.cfi_offset rbp, -16
	mov	rbp, rsp
	.cfi_def_cfa_register rbp
	add	rdi, 272
	pop	rbp
	jmp	__ZN8CryptoPP7IntegeraSERKS0_ 
	.cfi_endproc
                                        
	.globl	__ZN8CryptoPP21InvertibleRSAFunction9SetPrime2ERKNS_7IntegerE 
	.weak_definition	__ZN8CryptoPP21InvertibleRSAFunction9SetPrime2ERKNS_7IntegerE
	.p2align	4, 0x90
__ZN8CryptoPP21InvertibleRSAFunction9SetPrime2ERKNS_7IntegerE: 
	.cfi_startproc

	push	rbp
	.cfi_def_cfa_offset 16
	.cfi_offset rbp, -16
	mov	rbp, rsp
	.cfi_def_cfa_register rbp
	add	rdi, 320
	pop	rbp
	jmp	__ZN8CryptoPP7IntegeraSERKS0_ 
	.cfi_endproc
                                        
	.globl	__ZN8CryptoPP21InvertibleRSAFunction18SetPrivateExponentERKNS_7IntegerE 
	.weak_definition	__ZN8CryptoPP21InvertibleRSAFunction18SetPrivateExponentERKNS_7IntegerE
	.p2align	4, 0x90
__ZN8CryptoPP21InvertibleRSAFunction18SetPrivateExponentERKNS_7IntegerE: 
	.cfi_startproc

	push	rbp
	.cfi_def_cfa_offset 16
	.cfi_offset rbp, -16
	mov	rbp, rsp
	.cfi_def_cfa_register rbp
	add	rdi, 224
	pop	rbp
	jmp	__ZN8CryptoPP7IntegeraSERKS0_ 
	.cfi_endproc
                                        
	.globl	__ZN8CryptoPP21InvertibleRSAFunction27SetModPrime1PrivateExponentERKNS_7IntegerE 
	.weak_definition	__ZN8CryptoPP21InvertibleRSAFunction27SetModPrime1PrivateExponentERKNS_7IntegerE
	.p2align	4, 0x90
__ZN8CryptoPP21InvertibleRSAFunction27SetModPrime1PrivateExponentERKNS_7IntegerE: 
	.cfi_startproc

	push	rbp
	.cfi_def_cfa_offset 16
	.cfi_offset rbp, -16
	mov	rbp, rsp
	.cfi_def_cfa_register rbp
	add	rdi, 368
	pop	rbp
	jmp	__ZN8CryptoPP7IntegeraSERKS0_ 
	.cfi_endproc
                                        
	.globl	__ZN8CryptoPP21InvertibleRSAFunction27SetModPrime2PrivateExponentERKNS_7IntegerE 
	.weak_definition	__ZN8CryptoPP21InvertibleRSAFunction27SetModPrime2PrivateExponentERKNS_7IntegerE
	.p2align	4, 0x90
__ZN8CryptoPP21InvertibleRSAFunction27SetModPrime2PrivateExponentERKNS_7IntegerE: 
	.cfi_startproc

	push	rbp
	.cfi_def_cfa_offset 16
	.cfi_offset rbp, -16
	mov	rbp, rsp
	.cfi_def_cfa_register rbp
	add	rdi, 416
	pop	rbp
	jmp	__ZN8CryptoPP7IntegeraSERKS0_ 
	.cfi_endproc
                                        
	.globl	__ZN8CryptoPP21InvertibleRSAFunction41SetMultiplicativeInverseOfPrime2ModPrime1ERKNS_7IntegerE 
	.weak_definition	__ZN8CryptoPP21InvertibleRSAFunction41SetMultiplicativeInverseOfPrime2ModPrime1ERKNS_7IntegerE
	.p2align	4, 0x90
__ZN8CryptoPP21InvertibleRSAFunction41SetMultiplicativeInverseOfPrime2ModPrime1ERKNS_7IntegerE: 
	.cfi_startproc

	push	rbp
	.cfi_def_cfa_offset 16
	.cfi_offset rbp, -16
	mov	rbp, rsp
	.cfi_def_cfa_register rbp
	add	rdi, 464
	pop	rbp
	jmp	__ZN8CryptoPP7IntegeraSERKS0_ 
	.cfi_endproc
                                        
	.globl	__ZTv0_n40_N8CryptoPP21InvertibleRSAFunction10AssignFromERKNS_14NameValuePairsE 
	.p2align	4, 0x90
__ZTv0_n40_N8CryptoPP21InvertibleRSAFunction10AssignFromERKNS_14NameValuePairsE: 
	.cfi_startproc

	push	rbp
	.cfi_def_cfa_offset 16
	.cfi_offset rbp, -16
	mov	rbp, rsp
	.cfi_def_cfa_register rbp
	mov	rax, qword ptr [rdi]
	add	rdi, qword ptr [rax - 40]
	pop	rbp
	jmp	__ZN8CryptoPP21InvertibleRSAFunction10AssignFromERKNS_14NameValuePairsE 
	.cfi_endproc
                                        
	.globl	__ZNK8CryptoPP15RSAFunction_ISO13ApplyFunctionERKNS_7IntegerE 
	.p2align	4, 0x90
__ZNK8CryptoPP15RSAFunction_ISO13ApplyFunctionERKNS_7IntegerE: 
Lfunc_begin20:
	.cfi_startproc
	.cfi_personality 155, ___gxx_personality_v0
	.cfi_lsda 16, Lexception20

	push	rbp
	.cfi_def_cfa_offset 16
	.cfi_offset rbp, -16
	mov	rbp, rsp
	.cfi_def_cfa_register rbp
	push	r15
	push	r14
	push	r13
	push	r12
	push	rbx
	sub	rsp, 56
	.cfi_offset rbx, -56
	.cfi_offset r12, -48
	.cfi_offset r13, -40
	.cfi_offset r14, -32
	.cfi_offset r15, -24
	mov	r15, rdx
	mov	rbx, rsi
	mov	r14, rdi
	mov	rax, qword ptr [rsi]
	mov	r13, qword ptr [rax - 24]
	lea	r12, [rsi + r13]
	call	__ZN8CryptoPP7NullRNGEv
	mov	rcx, qword ptr [rbx + r13]
	mov	rdi, r12
	mov	rsi, rax
	xor	edx, edx
	call	qword ptr [rcx + 40]
	lea	rdx, [rbx + 72]
	add	rbx, 24
	lea	r12, [rbp - 88]
	mov	rdi, r12
	mov	rsi, r15
	mov	rcx, rbx
	call	__ZN8CryptoPP13a_exp_b_mod_cERKNS_7IntegerES2_S2_
Ltmp925:
	mov	esi, 16
	mov	rdi, r12
	call	__ZNK8CryptoPP7Integer6ModuloEm
Ltmp926:

	cmp	rax, 12
	jne	LBB58_3

Ltmp929:
	lea	rsi, [rbp - 88]
	mov	rdi, r14
	call	__ZN8CryptoPP7IntegerC1ERKS0_
Ltmp930:
	jmp	LBB58_4
LBB58_3:
Ltmp927:
	lea	rdx, [rbp - 88]
	mov	rdi, r14
	mov	rsi, rbx
	call	__ZNK8CryptoPP7Integer5MinusERKS0_
Ltmp928:
LBB58_4:
	mov	rax, qword ptr [rip + __ZTVN8CryptoPP7IntegerE@GOTPCREL]
	add	rax, 16
	mov	qword ptr [rbp - 88], rax
	mov	rdx, qword ptr [rbp - 56]
	test	rdx, rdx
	je	LBB58_6

	mov	rax, qword ptr [rbp - 72]
	mov	rcx, qword ptr [rbp - 64]
	cmp	rax, rcx
	cmovb	rcx, rax
	xor	eax, eax
	mov	rdi, rdx
	
	rep		stosq	qword ptr es:[rdi], rax
	
	mov	rdi, rdx
	call	__ZN8CryptoPP17AlignedDeallocateEPv
LBB58_6:
	mov	rax, r14
	add	rsp, 56
	pop	rbx
	pop	r12
	pop	r13
	pop	r14
	pop	r15
	pop	rbp
	ret
LBB58_7:
Ltmp931:
	mov	rbx, rax
	mov	rax, qword ptr [rip + __ZTVN8CryptoPP7IntegerE@GOTPCREL]
	add	rax, 16
	mov	qword ptr [rbp - 88], rax
	mov	rdx, qword ptr [rbp - 56]
	test	rdx, rdx
	je	LBB58_9

	mov	rax, qword ptr [rbp - 72]
	mov	rcx, qword ptr [rbp - 64]
	cmp	rax, rcx
	cmovb	rcx, rax
	xor	eax, eax
	mov	rdi, rdx
	
	rep		stosq	qword ptr es:[rdi], rax
	
Ltmp932:
	mov	rdi, rdx
	call	__ZN8CryptoPP17AlignedDeallocateEPv
Ltmp933:
LBB58_9:
	mov	rdi, rbx
	call	__Unwind_Resume
	ud2
LBB58_10:
Ltmp934:
	mov	rdi, rax
	call	___clang_call_terminate
Lfunc_end20:
	.cfi_endproc
	.section	__TEXT,__gcc_except_tab
	.p2align	2
GCC_except_table58:
Lexception20:
	.byte	255                     
	.byte	155                     
	.uleb128 Lttbase18-Lttbaseref18
Lttbaseref18:
	.byte	1                       
	.uleb128 Lcst_end20-Lcst_begin20
Lcst_begin20:
	.uleb128 Lfunc_begin20-Lfunc_begin20 
	.uleb128 Ltmp925-Lfunc_begin20  
	.byte	0                       
	.byte	0                       
	.uleb128 Ltmp925-Lfunc_begin20  
	.uleb128 Ltmp928-Ltmp925        
	.uleb128 Ltmp931-Lfunc_begin20  
	.byte	0                       
	.uleb128 Ltmp928-Lfunc_begin20  
	.uleb128 Ltmp932-Ltmp928        
	.byte	0                       
	.byte	0                       
	.uleb128 Ltmp932-Lfunc_begin20  
	.uleb128 Ltmp933-Ltmp932        
	.uleb128 Ltmp934-Lfunc_begin20  
	.byte	1                       
	.uleb128 Ltmp933-Lfunc_begin20  
	.uleb128 Lfunc_end20-Ltmp933    
	.byte	0                       
	.byte	0                       
Lcst_end20:
	.byte	1                       
                                        
	.byte	0                       
	.p2align	2
                                        
	.long	0                       
Lttbase18:
	.p2align	2
                                        
	.section	__TEXT,__text,regular,pure_instructions
	.globl	__ZNK8CryptoPP25InvertibleRSAFunction_ISO16CalculateInverseERNS_21RandomNumberGeneratorERKNS_7IntegerE 
	.p2align	4, 0x90
__ZNK8CryptoPP25InvertibleRSAFunction_ISO16CalculateInverseERNS_21RandomNumberGeneratorERKNS_7IntegerE: 
Lfunc_begin21:
	.cfi_startproc
	.cfi_personality 155, ___gxx_personality_v0
	.cfi_lsda 16, Lexception21

	push	rbp
	.cfi_def_cfa_offset 16
	.cfi_offset rbp, -16
	mov	rbp, rsp
	.cfi_def_cfa_register rbp
	push	r15
	push	r14
	push	rbx
	sub	rsp, 104
	.cfi_offset rbx, -40
	.cfi_offset r14, -32
	.cfi_offset r15, -24
	mov	rbx, rsi
	mov	r14, rdi
	lea	r15, [rbp - 120]
	mov	rdi, r15
	call	__ZNK8CryptoPP21InvertibleRSAFunction16CalculateInverseERNS_21RandomNumberGeneratorERKNS_7IntegerE
	add	rbx, 24
Ltmp935:
	lea	rdi, [rbp - 72]
	mov	rsi, rbx
	mov	rdx, r15
	call	__ZNK8CryptoPP7Integer5MinusERKS0_
Ltmp936:

Ltmp937:
	lea	r15, [rbp - 72]
	lea	rbx, [rbp - 120]
	mov	rdi, r15
	mov	rsi, rbx
	call	__ZNK8CryptoPP7Integer7CompareERKS0_
Ltmp938:

	test	eax, eax
	cmovs	rbx, r15
Ltmp939:
	mov	rdi, r14
	mov	rsi, rbx
	call	__ZN8CryptoPP7IntegerC1ERKS0_
Ltmp940:

	mov	rbx, qword ptr [rip + __ZTVN8CryptoPP7IntegerE@GOTPCREL]
	add	rbx, 16
	mov	qword ptr [rbp - 72], rbx
	mov	rdx, qword ptr [rbp - 40]
	test	rdx, rdx
	je	LBB59_5

	mov	rax, qword ptr [rbp - 56]
	mov	rcx, qword ptr [rbp - 48]
	cmp	rax, rcx
	cmovb	rcx, rax
	xor	eax, eax
	mov	rdi, rdx
	
	rep		stosq	qword ptr es:[rdi], rax
	
Ltmp944:
	mov	rdi, rdx
	call	__ZN8CryptoPP17AlignedDeallocateEPv
Ltmp945:
LBB59_5:
	mov	qword ptr [rbp - 120], rbx
	mov	rdx, qword ptr [rbp - 88]
	test	rdx, rdx
	je	LBB59_7

	mov	rax, qword ptr [rbp - 104]
	mov	rcx, qword ptr [rbp - 96]
	cmp	rax, rcx
	cmovb	rcx, rax
	xor	eax, eax
	mov	rdi, rdx
	
	rep		stosq	qword ptr es:[rdi], rax
	
	mov	rdi, rdx
	call	__ZN8CryptoPP17AlignedDeallocateEPv
LBB59_7:
	mov	rax, r14
	add	rsp, 104
	pop	rbx
	pop	r14
	pop	r15
	pop	rbp
	ret
LBB59_8:
Ltmp946:
	mov	rbx, rax
	jmp	LBB59_11
LBB59_9:
Ltmp941:
	mov	rbx, rax
	mov	rax, qword ptr [rip + __ZTVN8CryptoPP7IntegerE@GOTPCREL]
	add	rax, 16
	mov	qword ptr [rbp - 72], rax
	mov	rdx, qword ptr [rbp - 40]
	test	rdx, rdx
	je	LBB59_11

	mov	rax, qword ptr [rbp - 56]
	mov	rcx, qword ptr [rbp - 48]
	cmp	rax, rcx
	cmovb	rcx, rax
	xor	eax, eax
	mov	rdi, rdx
	
	rep		stosq	qword ptr es:[rdi], rax
	
Ltmp942:
	mov	rdi, rdx
	call	__ZN8CryptoPP17AlignedDeallocateEPv
Ltmp943:
LBB59_11:
	mov	rax, qword ptr [rip + __ZTVN8CryptoPP7IntegerE@GOTPCREL]
	add	rax, 16
	mov	qword ptr [rbp - 120], rax
	mov	rdx, qword ptr [rbp - 88]
	test	rdx, rdx
	je	LBB59_13

	mov	rax, qword ptr [rbp - 104]
	mov	rcx, qword ptr [rbp - 96]
	cmp	rax, rcx
	cmovb	rcx, rax
	xor	eax, eax
	mov	rdi, rdx
	
	rep		stosq	qword ptr es:[rdi], rax
	
Ltmp947:
	mov	rdi, rdx
	call	__ZN8CryptoPP17AlignedDeallocateEPv
Ltmp948:
LBB59_13:
	mov	rdi, rbx
	call	__Unwind_Resume
	ud2
LBB59_14:
Ltmp949:
	mov	rdi, rax
	call	___clang_call_terminate
Lfunc_end21:
	.cfi_endproc
	.section	__TEXT,__gcc_except_tab
	.p2align	2
GCC_except_table59:
Lexception21:
	.byte	255                     
	.byte	155                     
	.uleb128 Lttbase19-Lttbaseref19
Lttbaseref19:
	.byte	1                       
	.uleb128 Lcst_end21-Lcst_begin21
Lcst_begin21:
	.uleb128 Lfunc_begin21-Lfunc_begin21 
	.uleb128 Ltmp935-Lfunc_begin21  
	.byte	0                       
	.byte	0                       
	.uleb128 Ltmp935-Lfunc_begin21  
	.uleb128 Ltmp936-Ltmp935        
	.uleb128 Ltmp946-Lfunc_begin21  
	.byte	0                       
	.uleb128 Ltmp937-Lfunc_begin21  
	.uleb128 Ltmp940-Ltmp937        
	.uleb128 Ltmp941-Lfunc_begin21  
	.byte	0                       
	.uleb128 Ltmp944-Lfunc_begin21  
	.uleb128 Ltmp945-Ltmp944        
	.uleb128 Ltmp946-Lfunc_begin21  
	.byte	0                       
	.uleb128 Ltmp945-Lfunc_begin21  
	.uleb128 Ltmp942-Ltmp945        
	.byte	0                       
	.byte	0                       
	.uleb128 Ltmp942-Lfunc_begin21  
	.uleb128 Ltmp948-Ltmp942        
	.uleb128 Ltmp949-Lfunc_begin21  
	.byte	1                       
	.uleb128 Ltmp948-Lfunc_begin21  
	.uleb128 Lfunc_end21-Ltmp948    
	.byte	0                       
	.byte	0                       
Lcst_end21:
	.byte	1                       
                                        
	.byte	0                       
	.p2align	2
                                        
	.long	0                       
Lttbase19:
	.p2align	2
                                        
	.section	__TEXT,__text,regular,pure_instructions
	.globl	__ZThn120_NK8CryptoPP25InvertibleRSAFunction_ISO16CalculateInverseERNS_21RandomNumberGeneratorERKNS_7IntegerE 
	.p2align	4, 0x90
__ZThn120_NK8CryptoPP25InvertibleRSAFunction_ISO16CalculateInverseERNS_21RandomNumberGeneratorERKNS_7IntegerE: 
	.cfi_startproc

	push	rbp
	.cfi_def_cfa_offset 16
	.cfi_offset rbp, -16
	mov	rbp, rsp
	.cfi_def_cfa_register rbp
	push	rbx
	push	rax
	.cfi_offset rbx, -24
	mov	rbx, rdi
	add	rsi, -120
	call	__ZNK8CryptoPP25InvertibleRSAFunction_ISO16CalculateInverseERNS_21RandomNumberGeneratorERKNS_7IntegerE
	mov	rax, rbx
	add	rsp, 8
	pop	rbx
	pop	rbp
	ret
	.cfi_endproc
                                        
	.globl	__ZN8CryptoPP13X509PublicKeyD1Ev 
	.weak_def_can_be_hidden	__ZN8CryptoPP13X509PublicKeyD1Ev
	.p2align	4, 0x90
__ZN8CryptoPP13X509PublicKeyD1Ev:       

	push	rbp
	mov	rbp, rsp
	ud2
                                        
	.globl	__ZN8CryptoPP13X509PublicKeyD0Ev 
	.weak_def_can_be_hidden	__ZN8CryptoPP13X509PublicKeyD0Ev
	.p2align	4, 0x90
__ZN8CryptoPP13X509PublicKeyD0Ev:       

	push	rbp
	mov	rbp, rsp
	ud2
                                        
	.globl	__ZNK8CryptoPP10ASN1Object9BEREncodeERNS_22BufferedTransformationE 
	.weak_def_can_be_hidden	__ZNK8CryptoPP10ASN1Object9BEREncodeERNS_22BufferedTransformationE
	.p2align	4, 0x90
__ZNK8CryptoPP10ASN1Object9BEREncodeERNS_22BufferedTransformationE: 
	.cfi_startproc

	push	rbp
	.cfi_def_cfa_offset 16
	.cfi_offset rbp, -16
	mov	rbp, rsp
	.cfi_def_cfa_register rbp
	mov	rax, qword ptr [rdi]
	mov	rax, qword ptr [rax + 24]
	pop	rbp
	jmp	rax                     
	.cfi_endproc
                                        
	.globl	__ZNK8CryptoPP18ASN1CryptoMaterialINS_9PublicKeyEE4SaveERNS_22BufferedTransformationE 
	.weak_def_can_be_hidden	__ZNK8CryptoPP18ASN1CryptoMaterialINS_9PublicKeyEE4SaveERNS_22BufferedTransformationE
	.p2align	4, 0x90
__ZNK8CryptoPP18ASN1CryptoMaterialINS_9PublicKeyEE4SaveERNS_22BufferedTransformationE: 
	.cfi_startproc

	push	rbp
	.cfi_def_cfa_offset 16
	.cfi_offset rbp, -16
	mov	rbp, rsp
	.cfi_def_cfa_register rbp
	mov	rax, qword ptr [rdi]
	mov	rax, qword ptr [rax + 32]
	pop	rbp
	jmp	rax                     
	.cfi_endproc
                                        
	.globl	__ZN8CryptoPP18ASN1CryptoMaterialINS_9PublicKeyEE4LoadERNS_22BufferedTransformationE 
	.weak_def_can_be_hidden	__ZN8CryptoPP18ASN1CryptoMaterialINS_9PublicKeyEE4LoadERNS_22BufferedTransformationE
	.p2align	4, 0x90
__ZN8CryptoPP18ASN1CryptoMaterialINS_9PublicKeyEE4LoadERNS_22BufferedTransformationE: 
	.cfi_startproc

	push	rbp
	.cfi_def_cfa_offset 16
	.cfi_offset rbp, -16
	mov	rbp, rsp
	.cfi_def_cfa_register rbp
	mov	rax, qword ptr [rdi]
	mov	rax, qword ptr [rax + 16]
	pop	rbp
	jmp	rax                     
	.cfi_endproc
                                        
	.globl	__ZN8CryptoPP13X509PublicKey28BERDecodeAlgorithmParametersERNS_22BufferedTransformationE 
	.weak_def_can_be_hidden	__ZN8CryptoPP13X509PublicKey28BERDecodeAlgorithmParametersERNS_22BufferedTransformationE
	.p2align	4, 0x90
__ZN8CryptoPP13X509PublicKey28BERDecodeAlgorithmParametersERNS_22BufferedTransformationE: 
	.cfi_startproc

	push	rbp
	.cfi_def_cfa_offset 16
	.cfi_offset rbp, -16
	mov	rbp, rsp
	.cfi_def_cfa_register rbp
	mov	rdi, rsi
	call	__ZN8CryptoPP13BERDecodeNullERNS_22BufferedTransformationE
	xor	eax, eax
	pop	rbp
	ret
	.cfi_endproc
                                        
	.globl	__ZNK8CryptoPP13X509PublicKey28DEREncodeAlgorithmParametersERNS_22BufferedTransformationE 
	.weak_def_can_be_hidden	__ZNK8CryptoPP13X509PublicKey28DEREncodeAlgorithmParametersERNS_22BufferedTransformationE
	.p2align	4, 0x90
__ZNK8CryptoPP13X509PublicKey28DEREncodeAlgorithmParametersERNS_22BufferedTransformationE: 
	.cfi_startproc

	push	rbp
	.cfi_def_cfa_offset 16
	.cfi_offset rbp, -16
	mov	rbp, rsp
	.cfi_def_cfa_register rbp
