	.section	__TEXT,__text,regular,pure_instructions
	.build_version macos, 11, 0	sdk_version 11, 1
	.intel_syntax noprefix
	.globl	__ZNK8CryptoPP11RSAFunction14GetAlgorithmIDEv 
	.p2align	4, 0x90
__ZNK8CryptoPP11RSAFunction14GetAlgorithmIDEv: 
	.cfi_startproc

	push	rbp
	.cfi_def_cfa_offset 16
	.cfi_offset rbp, -16
	mov	rbp, rsp
	.cfi_def_cfa_register rbp
	sub	rsp, 32
	mov	rax, rdi
	mov	rcx, rdi
	mov	qword ptr [rbp - 8], rcx
	mov	qword ptr [rbp - 16], rsi
	mov	qword ptr [rbp - 24], rax 
	call	__ZN8CryptoPP4ASN113rsaEncryptionEv
	mov	rax, qword ptr [rbp - 24] 
	add	rsp, 32
	pop	rbp
	ret
	.cfi_endproc
                                        
	.globl	__ZN8CryptoPP4ASN113rsaEncryptionEv 
	.weak_definition	__ZN8CryptoPP4ASN113rsaEncryptionEv
	.p2align	4, 0x90
__ZN8CryptoPP4ASN113rsaEncryptionEv:    
Lfunc_begin0:
	.cfi_startproc
	.cfi_personality 155, ___gxx_personality_v0
	.cfi_lsda 16, Lexception0

	push	rbp
	.cfi_def_cfa_offset 16
	.cfi_offset rbp, -16
	mov	rbp, rsp
	.cfi_def_cfa_register rbp
	sub	rsp, 96
	mov	rax, rdi
	mov	qword ptr [rbp - 8], rdi
	lea	rcx, [rbp - 40]
	mov	qword ptr [rbp - 64], rdi 
	mov	rdi, rcx
	mov	qword ptr [rbp - 72], rax 
	mov	qword ptr [rbp - 80], rcx 
	call	__ZN8CryptoPP4ASN16pkcs_1Ev
Ltmp0:
	mov	edx, 1
	mov	rdi, qword ptr [rbp - 64] 
	mov	rsi, qword ptr [rbp - 80] 
	call	__ZN8CryptoPPplERKNS_3OIDEm
Ltmp1:
	jmp	LBB1_1
LBB1_1:
	lea	rdi, [rbp - 40]
	call	__ZN8CryptoPP3OIDD1Ev
	mov	rax, qword ptr [rbp - 72] 
	add	rsp, 96
	pop	rbp
	ret
LBB1_2:
Ltmp2:
                                        
	mov	qword ptr [rbp - 48], rax
	mov	dword ptr [rbp - 52], edx
Ltmp3:
	lea	rdi, [rbp - 40]
	call	__ZN8CryptoPP3OIDD1Ev
Ltmp4:
	jmp	LBB1_3
LBB1_3:
	jmp	LBB1_4
LBB1_4:
	mov	rdi, qword ptr [rbp - 48]
	call	__Unwind_Resume
	ud2
LBB1_5:
Ltmp5:
	mov	rdi, rax
	mov	qword ptr [rbp - 88], rdx 
	call	___clang_call_terminate
Lfunc_end0:
	.cfi_endproc
	.section	__TEXT,__gcc_except_tab
	.p2align	2
GCC_except_table1:
Lexception0:
	.byte	255                     
	.byte	155                     
	.uleb128 Lttbase0-Lttbaseref0
Lttbaseref0:
	.byte	1                       
	.uleb128 Lcst_end0-Lcst_begin0
Lcst_begin0:
	.uleb128 Lfunc_begin0-Lfunc_begin0 
	.uleb128 Ltmp0-Lfunc_begin0     
	.byte	0                       
	.byte	0                       
	.uleb128 Ltmp0-Lfunc_begin0     
	.uleb128 Ltmp1-Ltmp0            
	.uleb128 Ltmp2-Lfunc_begin0     
	.byte	0                       
	.uleb128 Ltmp1-Lfunc_begin0     
	.uleb128 Ltmp3-Ltmp1            
	.byte	0                       
	.byte	0                       
	.uleb128 Ltmp3-Lfunc_begin0     
	.uleb128 Ltmp4-Ltmp3            
	.uleb128 Ltmp5-Lfunc_begin0     
	.byte	1                       
	.uleb128 Ltmp4-Lfunc_begin0     
	.uleb128 Lfunc_end0-Ltmp4       
	.byte	0                       
	.byte	0                       
Lcst_end0:
	.byte	1                       
                                        
	.byte	0                       
	.p2align	2
                                        
	.long	0                       
Lttbase0:
	.p2align	2
                                        
	.section	__TEXT,__text,regular,pure_instructions
	.globl	__ZThn8_NK8CryptoPP11RSAFunction14GetAlgorithmIDEv 
	.p2align	4, 0x90
__ZThn8_NK8CryptoPP11RSAFunction14GetAlgorithmIDEv: 
	.cfi_startproc

	push	rbp
	.cfi_def_cfa_offset 16
	.cfi_offset rbp, -16
	mov	rbp, rsp
	.cfi_def_cfa_register rbp
	sub	rsp, 32
	mov	rax, rdi
	mov	rcx, rdi
	mov	qword ptr [rbp - 8], rcx
	mov	qword ptr [rbp - 16], rsi
	mov	rcx, qword ptr [rbp - 16]
	add	rcx, -8
	mov	rsi, rcx
	mov	qword ptr [rbp - 24], rax 
	call	__ZNK8CryptoPP11RSAFunction14GetAlgorithmIDEv
	mov	rax, qword ptr [rbp - 24] 
	add	rsp, 32
	pop	rbp
	ret
	.cfi_endproc
                                        
	.globl	__ZN8CryptoPP11RSAFunction18BERDecodePublicKeyERNS_22BufferedTransformationEbm 
	.p2align	4, 0x90
__ZN8CryptoPP11RSAFunction18BERDecodePublicKeyERNS_22BufferedTransformationEbm: 
Lfunc_begin1:
	.cfi_startproc
	.cfi_personality 155, ___gxx_personality_v0
	.cfi_lsda 16, Lexception1

	push	rbp
	.cfi_def_cfa_offset 16
	.cfi_offset rbp, -16
	mov	rbp, rsp
	.cfi_def_cfa_register rbp
	sub	rsp, 144
                                        
	mov	rax, qword ptr [rip + ___stack_chk_guard@GOTPCREL]
	mov	rax, qword ptr [rax]
	mov	qword ptr [rbp - 8], rax
	mov	qword ptr [rbp - 72], rdi
	mov	qword ptr [rbp - 80], rsi
	and	dl, 1
	mov	byte ptr [rbp - 81], dl
	mov	qword ptr [rbp - 96], rcx
	mov	rax, qword ptr [rbp - 72]
	mov	rsi, qword ptr [rbp - 80]
	lea	rcx, [rbp - 64]
	mov	rdi, rcx
	mov	qword ptr [rbp - 120], rax 
	mov	qword ptr [rbp - 128], rcx 
	call	__ZN8CryptoPP18BERSequenceDecoderC1ERNS_22BufferedTransformationE
	mov	rax, qword ptr [rbp - 120] 
	add	rax, 24
Ltmp6:
	mov	rdi, rax
	mov	rsi, qword ptr [rbp - 128] 
	call	__ZN8CryptoPP7Integer9BERDecodeERNS_22BufferedTransformationE
Ltmp7:
	jmp	LBB3_1
LBB3_1:
	mov	rax, qword ptr [rbp - 120] 
	add	rax, 72
Ltmp8:
	lea	rsi, [rbp - 64]
	mov	rdi, rax
	call	__ZN8CryptoPP7Integer9BERDecodeERNS_22BufferedTransformationE
Ltmp9:
	jmp	LBB3_2
LBB3_2:
Ltmp10:
	lea	rdi, [rbp - 64]
	call	__ZN8CryptoPP17BERGeneralDecoder10MessageEndEv
Ltmp11:
	jmp	LBB3_3
LBB3_3:
	lea	rdi, [rbp - 64]
	call	__ZN8CryptoPP18BERSequenceDecoderD1Ev
	mov	rax, qword ptr [rip + ___stack_chk_guard@GOTPCREL]
	mov	rax, qword ptr [rax]
	mov	rcx, qword ptr [rbp - 8]
	cmp	rax, rcx
	jne	LBB3_9

	add	rsp, 144
	pop	rbp
	ret
LBB3_5:
Ltmp12:
                                        
	mov	qword ptr [rbp - 104], rax
	mov	dword ptr [rbp - 108], edx
Ltmp13:
	lea	rdi, [rbp - 64]
	call	__ZN8CryptoPP18BERSequenceDecoderD1Ev
Ltmp14:
	jmp	LBB3_6
LBB3_6:
	jmp	LBB3_7
LBB3_7:
	mov	rdi, qword ptr [rbp - 104]
	call	__Unwind_Resume
	ud2
LBB3_8:
Ltmp15:
	mov	rdi, rax
	mov	qword ptr [rbp - 136], rdx 
	call	___clang_call_terminate
LBB3_9:
	call	___stack_chk_fail
	ud2
Lfunc_end1:
	.cfi_endproc
	.section	__TEXT,__gcc_except_tab
	.p2align	2
GCC_except_table3:
Lexception1:
	.byte	255                     
	.byte	155                     
	.uleb128 Lttbase1-Lttbaseref1
Lttbaseref1:
	.byte	1                       
	.uleb128 Lcst_end1-Lcst_begin1
Lcst_begin1:
	.uleb128 Lfunc_begin1-Lfunc_begin1 
	.uleb128 Ltmp6-Lfunc_begin1     
	.byte	0                       
	.byte	0                       
	.uleb128 Ltmp6-Lfunc_begin1     
	.uleb128 Ltmp11-Ltmp6           
	.uleb128 Ltmp12-Lfunc_begin1    
	.byte	0                       
	.uleb128 Ltmp11-Lfunc_begin1    
	.uleb128 Ltmp13-Ltmp11          
	.byte	0                       
	.byte	0                       
	.uleb128 Ltmp13-Lfunc_begin1    
	.uleb128 Ltmp14-Ltmp13          
	.uleb128 Ltmp15-Lfunc_begin1    
	.byte	1                       
	.uleb128 Ltmp14-Lfunc_begin1    
	.uleb128 Lfunc_end1-Ltmp14      
	.byte	0                       
	.byte	0                       
Lcst_end1:
	.byte	1                       
                                        
	.byte	0                       
	.p2align	2
                                        
	.long	0                       
Lttbase1:
	.p2align	2
                                        
	.section	__TEXT,__text,regular,pure_instructions
	.globl	__ZN8CryptoPP18BERSequenceDecoderC1ERNS_22BufferedTransformationE 
	.weak_def_can_be_hidden	__ZN8CryptoPP18BERSequenceDecoderC1ERNS_22BufferedTransformationE
	.p2align	4, 0x90
__ZN8CryptoPP18BERSequenceDecoderC1ERNS_22BufferedTransformationE: 
	.cfi_startproc

	push	rbp
	.cfi_def_cfa_offset 16
	.cfi_offset rbp, -16
	mov	rbp, rsp
	.cfi_def_cfa_register rbp
	sub	rsp, 16
	mov	qword ptr [rbp - 8], rdi
	mov	qword ptr [rbp - 16], rsi
	mov	rdi, qword ptr [rbp - 8]
	mov	rsi, qword ptr [rbp - 16]
	call	__ZN8CryptoPP18BERSequenceDecoderC2ERNS_22BufferedTransformationE
	add	rsp, 16
	pop	rbp
	ret
	.cfi_endproc
                                        
	.globl	__ZN8CryptoPP18BERSequenceDecoderD1Ev 
	.weak_def_can_be_hidden	__ZN8CryptoPP18BERSequenceDecoderD1Ev
	.p2align	4, 0x90
__ZN8CryptoPP18BERSequenceDecoderD1Ev:  
	.cfi_startproc

	push	rbp
	.cfi_def_cfa_offset 16
	.cfi_offset rbp, -16
	mov	rbp, rsp
	.cfi_def_cfa_register rbp
	sub	rsp, 16
	mov	qword ptr [rbp - 8], rdi
	mov	rdi, qword ptr [rbp - 8]
	call	__ZN8CryptoPP18BERSequenceDecoderD2Ev
	add	rsp, 16
	pop	rbp
	ret
	.cfi_endproc
                                        
	.private_extern	___clang_call_terminate 
	.globl	___clang_call_terminate
	.weak_definition	___clang_call_terminate
	.p2align	4, 0x90
___clang_call_terminate:                

	push	rax
	call	___cxa_begin_catch
	mov	qword ptr [rsp], rax    
	call	__ZSt9terminatev
                                        
	.globl	__ZThn8_N8CryptoPP11RSAFunction18BERDecodePublicKeyERNS_22BufferedTransformationEbm 
	.p2align	4, 0x90
__ZThn8_N8CryptoPP11RSAFunction18BERDecodePublicKeyERNS_22BufferedTransformationEbm: 
	.cfi_startproc

	push	rbp
	.cfi_def_cfa_offset 16
	.cfi_offset rbp, -16
	mov	rbp, rsp
	.cfi_def_cfa_register rbp
                                        
	mov	qword ptr [rbp - 8], rdi
	mov	qword ptr [rbp - 16], rsi
	and	dl, 1
	mov	byte ptr [rbp - 17], dl
	mov	qword ptr [rbp - 32], rcx
	mov	rax, qword ptr [rbp - 8]
	add	rax, -8
	mov	rsi, qword ptr [rbp - 16]
	mov	dl, byte ptr [rbp - 17]
	mov	rcx, qword ptr [rbp - 32]
	movzx	r8d, dl
	and	r8d, 1
	mov	rdi, rax
	mov	edx, r8d
	pop	rbp
	jmp	__ZN8CryptoPP11RSAFunction18BERDecodePublicKeyERNS_22BufferedTransformationEbm 
	.cfi_endproc
                                        
	.globl	__ZNK8CryptoPP11RSAFunction18DEREncodePublicKeyERNS_22BufferedTransformationE 
	.p2align	4, 0x90
__ZNK8CryptoPP11RSAFunction18DEREncodePublicKeyERNS_22BufferedTransformationE: 
Lfunc_begin2:
	.cfi_startproc
	.cfi_personality 155, ___gxx_personality_v0
	.cfi_lsda 16, Lexception2

	push	rbp
	.cfi_def_cfa_offset 16
	.cfi_offset rbp, -16
	mov	rbp, rsp
	.cfi_def_cfa_register rbp
	sub	rsp, 160
	mov	rax, qword ptr [rip + ___stack_chk_guard@GOTPCREL]
	mov	rax, qword ptr [rax]
	mov	qword ptr [rbp - 8], rax
	mov	qword ptr [rbp - 112], rdi
	mov	qword ptr [rbp - 120], rsi
	mov	rax, qword ptr [rbp - 112]
	mov	rsi, qword ptr [rbp - 120]
	lea	rcx, [rbp - 104]
	mov	rdi, rcx
	mov	qword ptr [rbp - 144], rax 
	mov	qword ptr [rbp - 152], rcx 
	call	__ZN8CryptoPP18DERSequenceEncoderC1ERNS_22BufferedTransformationE
	mov	rax, qword ptr [rbp - 144] 
	add	rax, 24
Ltmp16:
	mov	rdi, rax
	mov	rsi, qword ptr [rbp - 152] 
	call	__ZNK8CryptoPP7Integer9DEREncodeERNS_22BufferedTransformationE
Ltmp17:
	jmp	LBB8_1
LBB8_1:
	mov	rax, qword ptr [rbp - 144] 
	add	rax, 72
Ltmp18:
	lea	rsi, [rbp - 104]
	mov	rdi, rax
	call	__ZNK8CryptoPP7Integer9DEREncodeERNS_22BufferedTransformationE
Ltmp19:
	jmp	LBB8_2
LBB8_2:
Ltmp20:
	lea	rdi, [rbp - 104]
	call	__ZN8CryptoPP17DERGeneralEncoder10MessageEndEv
Ltmp21:
	jmp	LBB8_3
LBB8_3:
	lea	rdi, [rbp - 104]
	call	__ZN8CryptoPP18DERSequenceEncoderD1Ev
	mov	rax, qword ptr [rip + ___stack_chk_guard@GOTPCREL]
	mov	rax, qword ptr [rax]
	mov	rcx, qword ptr [rbp - 8]
	cmp	rax, rcx
	jne	LBB8_9

	add	rsp, 160
	pop	rbp
	ret
LBB8_5:
Ltmp22:
                                        
	mov	qword ptr [rbp - 128], rax
	mov	dword ptr [rbp - 132], edx
Ltmp23:
	lea	rdi, [rbp - 104]
	call	__ZN8CryptoPP18DERSequenceEncoderD1Ev
Ltmp24:
	jmp	LBB8_6
LBB8_6:
	jmp	LBB8_7
LBB8_7:
	mov	rdi, qword ptr [rbp - 128]
	call	__Unwind_Resume
	ud2
LBB8_8:
Ltmp25:
	mov	rdi, rax
	mov	qword ptr [rbp - 160], rdx 
	call	___clang_call_terminate
LBB8_9:
	call	___stack_chk_fail
	ud2
Lfunc_end2:
	.cfi_endproc
	.section	__TEXT,__gcc_except_tab
	.p2align	2
GCC_except_table8:
Lexception2:
	.byte	255                     
	.byte	155                     
	.uleb128 Lttbase2-Lttbaseref2
Lttbaseref2:
	.byte	1                       
	.uleb128 Lcst_end2-Lcst_begin2
Lcst_begin2:
	.uleb128 Lfunc_begin2-Lfunc_begin2 
	.uleb128 Ltmp16-Lfunc_begin2    
	.byte	0                       
	.byte	0                       
	.uleb128 Ltmp16-Lfunc_begin2    
	.uleb128 Ltmp21-Ltmp16          
	.uleb128 Ltmp22-Lfunc_begin2    
	.byte	0                       
	.uleb128 Ltmp21-Lfunc_begin2    
	.uleb128 Ltmp23-Ltmp21          
	.byte	0                       
	.byte	0                       
	.uleb128 Ltmp23-Lfunc_begin2    
	.uleb128 Ltmp24-Ltmp23          
	.uleb128 Ltmp25-Lfunc_begin2    
	.byte	1                       
	.uleb128 Ltmp24-Lfunc_begin2    
	.uleb128 Lfunc_end2-Ltmp24      
	.byte	0                       
	.byte	0                       
Lcst_end2:
	.byte	1                       
                                        
	.byte	0                       
	.p2align	2
                                        
	.long	0                       
Lttbase2:
	.p2align	2
                                        
	.section	__TEXT,__text,regular,pure_instructions
	.globl	__ZN8CryptoPP18DERSequenceEncoderC1ERNS_22BufferedTransformationE 
	.weak_def_can_be_hidden	__ZN8CryptoPP18DERSequenceEncoderC1ERNS_22BufferedTransformationE
	.p2align	4, 0x90
__ZN8CryptoPP18DERSequenceEncoderC1ERNS_22BufferedTransformationE: 
	.cfi_startproc

	push	rbp
	.cfi_def_cfa_offset 16
	.cfi_offset rbp, -16
	mov	rbp, rsp
	.cfi_def_cfa_register rbp
	sub	rsp, 16
	mov	qword ptr [rbp - 8], rdi
	mov	qword ptr [rbp - 16], rsi
	mov	rdi, qword ptr [rbp - 8]
	mov	rsi, qword ptr [rbp - 16]
	call	__ZN8CryptoPP18DERSequenceEncoderC2ERNS_22BufferedTransformationE
	add	rsp, 16
	pop	rbp
	ret
	.cfi_endproc
                                        
	.globl	__ZN8CryptoPP18DERSequenceEncoderD1Ev 
	.weak_def_can_be_hidden	__ZN8CryptoPP18DERSequenceEncoderD1Ev
	.p2align	4, 0x90
__ZN8CryptoPP18DERSequenceEncoderD1Ev:  
	.cfi_startproc

	push	rbp
	.cfi_def_cfa_offset 16
	.cfi_offset rbp, -16
	mov	rbp, rsp
	.cfi_def_cfa_register rbp
	sub	rsp, 16
	mov	qword ptr [rbp - 8], rdi
	mov	rdi, qword ptr [rbp - 8]
	call	__ZN8CryptoPP18DERSequenceEncoderD2Ev
	add	rsp, 16
	pop	rbp
	ret
	.cfi_endproc
                                        
	.globl	__ZThn8_NK8CryptoPP11RSAFunction18DEREncodePublicKeyERNS_22BufferedTransformationE 
	.p2align	4, 0x90
__ZThn8_NK8CryptoPP11RSAFunction18DEREncodePublicKeyERNS_22BufferedTransformationE: 
	.cfi_startproc

	push	rbp
	.cfi_def_cfa_offset 16
	.cfi_offset rbp, -16
	mov	rbp, rsp
	.cfi_def_cfa_register rbp
	mov	qword ptr [rbp - 8], rdi
	mov	qword ptr [rbp - 16], rsi
	mov	rax, qword ptr [rbp - 8]
	add	rax, -8
	mov	rsi, qword ptr [rbp - 16]
	mov	rdi, rax
	pop	rbp
	jmp	__ZNK8CryptoPP11RSAFunction18DEREncodePublicKeyERNS_22BufferedTransformationE 
	.cfi_endproc
                                        
	.globl	__ZNK8CryptoPP11RSAFunction13ApplyFunctionERKNS_7IntegerE 
	.p2align	4, 0x90
__ZNK8CryptoPP11RSAFunction13ApplyFunctionERKNS_7IntegerE: 
	.cfi_startproc

	push	rbp
	.cfi_def_cfa_offset 16
	.cfi_offset rbp, -16
	mov	rbp, rsp
	.cfi_def_cfa_register rbp
	sub	rsp, 48
	mov	rax, rdi
	mov	rcx, rdi
	mov	qword ptr [rbp - 8], rcx
	mov	qword ptr [rbp - 16], rsi
	mov	qword ptr [rbp - 24], rdx
	mov	rcx, qword ptr [rbp - 16]
	mov	rdx, qword ptr [rcx]
	mov	rdx, qword ptr [rdx - 24]
	mov	rsi, rcx
	add	rsi, rdx
	mov	qword ptr [rbp - 32], rdi 
	mov	rdi, rsi
	mov	qword ptr [rbp - 40], rax 
	mov	qword ptr [rbp - 48], rcx 
	call	__ZNK8CryptoPP14CryptoMaterial18DoQuickSanityCheckEv
	mov	rsi, qword ptr [rbp - 24]
	mov	rax, qword ptr [rbp - 48] 
	add	rax, 72
	mov	rcx, qword ptr [rbp - 48] 
	add	rcx, 24
	mov	rdi, qword ptr [rbp - 32] 
	mov	rdx, rax
	call	__ZN8CryptoPP13a_exp_b_mod_cERKNS_7IntegerES2_S2_
	mov	rax, qword ptr [rbp - 40] 
	add	rsp, 48
	pop	rbp
	ret
	.cfi_endproc
                                        
	.globl	__ZNK8CryptoPP14CryptoMaterial18DoQuickSanityCheckEv 
	.weak_definition	__ZNK8CryptoPP14CryptoMaterial18DoQuickSanityCheckEv
	.p2align	4, 0x90
__ZNK8CryptoPP14CryptoMaterial18DoQuickSanityCheckEv: 
	.cfi_startproc

	push	rbp
	.cfi_def_cfa_offset 16
	.cfi_offset rbp, -16
	mov	rbp, rsp
	.cfi_def_cfa_register rbp
	sub	rsp, 32
	mov	qword ptr [rbp - 8], rdi
	mov	rax, qword ptr [rbp - 8]
	mov	qword ptr [rbp - 16], rax 
	call	__ZN8CryptoPP7NullRNGEv
	xor	edx, edx
	mov	rcx, qword ptr [rbp - 16] 
	mov	rsi, qword ptr [rcx]
	mov	rdi, rcx
	mov	qword ptr [rbp - 24], rsi 
	mov	rsi, rax
	mov	rax, qword ptr [rbp - 24] 
	call	qword ptr [rax + 40]
	add	rsp, 32
	pop	rbp
	ret
	.cfi_endproc
                                        
	.globl	__ZNK8CryptoPP11RSAFunction8ValidateERNS_21RandomNumberGeneratorEj 
	.p2align	4, 0x90
__ZNK8CryptoPP11RSAFunction8ValidateERNS_21RandomNumberGeneratorEj: 
	.cfi_startproc

	push	rbp
	.cfi_def_cfa_offset 16
	.cfi_offset rbp, -16
	mov	rbp, rsp
	.cfi_def_cfa_register rbp
	sub	rsp, 64
	xor	eax, eax
                                        
	mov	qword ptr [rbp - 8], rdi
	mov	qword ptr [rbp - 16], rsi
	mov	dword ptr [rbp - 20], edx
	mov	rcx, qword ptr [rbp - 8]
	mov	byte ptr [rbp - 21], 1
	test	byte ptr [rbp - 21], 1
	mov	qword ptr [rbp - 32], rcx 
	mov	byte ptr [rbp - 33], al 
	je	LBB14_3

	mov	rax, qword ptr [rbp - 32] 
	add	rax, 24
	mov	qword ptr [rbp - 48], rax 
	call	__ZN8CryptoPP7Integer3OneEv
	mov	rdi, qword ptr [rbp - 48] 
	mov	rsi, rax
	call	__ZN8CryptoPPgtERKNS_7IntegerES2_
	xor	ecx, ecx
                                        
	test	al, 1
	mov	byte ptr [rbp - 33], cl 
	jne	LBB14_2
	jmp	LBB14_3
LBB14_2:
	mov	rax, qword ptr [rbp - 32] 
	add	rax, 24
	mov	rdi, rax
	call	__ZNK8CryptoPP7Integer5IsOddEv
	mov	byte ptr [rbp - 33], al 
LBB14_3:
	mov	al, byte ptr [rbp - 33] 
	xor	ecx, ecx
                                        
	and	al, 1
	mov	byte ptr [rbp - 21], al
	test	byte ptr [rbp - 21], 1
	mov	byte ptr [rbp - 49], cl 
	je	LBB14_7

	mov	rax, qword ptr [rbp - 32] 
	add	rax, 72
	mov	qword ptr [rbp - 64], rax 
	call	__ZN8CryptoPP7Integer3OneEv
	mov	rdi, qword ptr [rbp - 64] 
	mov	rsi, rax
	call	__ZN8CryptoPPgtERKNS_7IntegerES2_
	xor	ecx, ecx
                                        
	test	al, 1
	mov	byte ptr [rbp - 49], cl 
	jne	LBB14_5
	jmp	LBB14_7
LBB14_5:
	mov	rax, qword ptr [rbp - 32] 
	add	rax, 72
	mov	rdi, rax
	call	__ZNK8CryptoPP7Integer5IsOddEv
	xor	ecx, ecx
                                        
	test	al, 1
	mov	byte ptr [rbp - 49], cl 
	jne	LBB14_6
	jmp	LBB14_7
LBB14_6:
	mov	rax, qword ptr [rbp - 32] 
	add	rax, 72
	mov	rcx, qword ptr [rbp - 32] 
	add	rcx, 24
	mov	rdi, rax
	mov	rsi, rcx
	call	__ZN8CryptoPPltERKNS_7IntegerES2_
	mov	byte ptr [rbp - 49], al 
LBB14_7:
	mov	al, byte ptr [rbp - 49] 
	and	al, 1
	mov	byte ptr [rbp - 21], al
	mov	al, byte ptr [rbp - 21]
	and	al, 1
	movzx	eax, al
	add	rsp, 64
	pop	rbp
	ret
	.cfi_endproc
                                        
	.globl	__ZN8CryptoPPgtERKNS_7IntegerES2_ 
	.weak_definition	__ZN8CryptoPPgtERKNS_7IntegerES2_
	.p2align	4, 0x90
__ZN8CryptoPPgtERKNS_7IntegerES2_:      
	.cfi_startproc

	push	rbp
	.cfi_def_cfa_offset 16
	.cfi_offset rbp, -16
	mov	rbp, rsp
	.cfi_def_cfa_register rbp
	sub	rsp, 16
	mov	qword ptr [rbp - 8], rdi
	mov	qword ptr [rbp - 16], rsi
	mov	rdi, qword ptr [rbp - 8]
	mov	rsi, qword ptr [rbp - 16]
	call	__ZNK8CryptoPP7Integer7CompareERKS0_
	cmp	eax, 0
	setg	cl
	and	cl, 1
	movzx	eax, cl
	add	rsp, 16
	pop	rbp
	ret
	.cfi_endproc
                                        
	.globl	__ZNK8CryptoPP7Integer5IsOddEv 
	.weak_definition	__ZNK8CryptoPP7Integer5IsOddEv
	.p2align	4, 0x90
__ZNK8CryptoPP7Integer5IsOddEv:         
	.cfi_startproc

	push	rbp
	.cfi_def_cfa_offset 16
	.cfi_offset rbp, -16
	mov	rbp, rsp
	.cfi_def_cfa_register rbp
	sub	rsp, 16
	xor	eax, eax
	mov	esi, eax
	mov	qword ptr [rbp - 8], rdi
	mov	rdi, qword ptr [rbp - 8]
	call	__ZNK8CryptoPP7Integer6GetBitEm
	and	al, 1
	movzx	ecx, al
	cmp	ecx, 1
	sete	al
	and	al, 1
	movzx	eax, al
	add	rsp, 16
	pop	rbp
	ret
	.cfi_endproc
                                        
	.globl	__ZN8CryptoPPltERKNS_7IntegerES2_ 
	.weak_definition	__ZN8CryptoPPltERKNS_7IntegerES2_
	.p2align	4, 0x90
__ZN8CryptoPPltERKNS_7IntegerES2_:      
	.cfi_startproc

	push	rbp
	.cfi_def_cfa_offset 16
	.cfi_offset rbp, -16
	mov	rbp, rsp
	.cfi_def_cfa_register rbp
	sub	rsp, 16
	mov	qword ptr [rbp - 8], rdi
	mov	qword ptr [rbp - 16], rsi
	mov	rdi, qword ptr [rbp - 8]
	mov	rsi, qword ptr [rbp - 16]
	call	__ZNK8CryptoPP7Integer7CompareERKS0_
	cmp	eax, 0
	setl	cl
	and	cl, 1
	movzx	eax, cl
	add	rsp, 16
	pop	rbp
	ret
	.cfi_endproc
                                        
	.globl	__ZTv0_n48_NK8CryptoPP11RSAFunction8ValidateERNS_21RandomNumberGeneratorEj 
	.p2align	4, 0x90
__ZTv0_n48_NK8CryptoPP11RSAFunction8ValidateERNS_21RandomNumberGeneratorEj: 
	.cfi_startproc

	push	rbp
	.cfi_def_cfa_offset 16
	.cfi_offset rbp, -16
	mov	rbp, rsp
	.cfi_def_cfa_register rbp
	mov	qword ptr [rbp - 8], rdi
	mov	qword ptr [rbp - 16], rsi
	mov	dword ptr [rbp - 20], edx
	mov	rax, qword ptr [rbp - 8]
	mov	rcx, qword ptr [rax]
	mov	rcx, qword ptr [rcx - 48]
	add	rax, rcx
	mov	rsi, qword ptr [rbp - 16]
	mov	edx, dword ptr [rbp - 20]
	mov	rdi, rax
	pop	rbp
	jmp	__ZNK8CryptoPP11RSAFunction8ValidateERNS_21RandomNumberGeneratorEj 
	.cfi_endproc
                                        
	.globl	__ZNK8CryptoPP11RSAFunction12GetVoidValueEPKcRKSt9type_infoPv 
	.p2align	4, 0x90
__ZNK8CryptoPP11RSAFunction12GetVoidValueEPKcRKSt9type_infoPv: 
	.cfi_startproc

	push	rbp
	.cfi_def_cfa_offset 16
	.cfi_offset rbp, -16
	mov	rbp, rsp
	.cfi_def_cfa_register rbp
	sub	rsp, 128
	mov	qword ptr [rbp - 8], rdi
	mov	qword ptr [rbp - 16], rsi
	mov	qword ptr [rbp - 24], rdx
	mov	qword ptr [rbp - 32], rcx
	mov	rsi, qword ptr [rbp - 8]
	mov	rdx, qword ptr [rbp - 16]
	mov	rcx, qword ptr [rbp - 24]
	mov	r8, qword ptr [rbp - 32]
	xor	eax, eax
	mov	r9d, eax
	lea	rdi, [rbp - 72]
	mov	qword ptr [rbp - 112], rdi 
	call	__ZN8CryptoPP14GetValueHelperINS_11RSAFunctionEEENS_19GetValueHelperClassIT_S3_EEPKS3_PKcRKSt9type_infoPvPKNS_14NameValuePairsE
	mov	rdi, qword ptr [rbp - 112] 
	call	__ZN8CryptoPP19GetValueHelperClassINS_11RSAFunctionES1_E10AssignableEv
	mov	qword ptr [rbp - 120], rax 
	call	__ZN8CryptoPP4Name7ModulusEv
	mov	rcx, qword ptr [rip + __ZNK8CryptoPP11RSAFunction10GetModulusEv@GOTPCREL]
	mov	qword ptr [rbp - 88], rcx
	mov	qword ptr [rbp - 80], 0
	mov	rdx, qword ptr [rbp - 88]
	mov	rcx, qword ptr [rbp - 80]
	mov	rdi, qword ptr [rbp - 120] 
	mov	rsi, rax
	call	__ZN8CryptoPP19GetValueHelperClassINS_11RSAFunctionES1_EclINS_7IntegerEEERS2_PKcMS1_KFRKT_vE
	mov	qword ptr [rbp - 128], rax 
	call	__ZN8CryptoPP4Name14PublicExponentEv
	mov	rcx, qword ptr [rip + __ZNK8CryptoPP11RSAFunction17GetPublicExponentEv@GOTPCREL]
	mov	qword ptr [rbp - 104], rcx
	mov	qword ptr [rbp - 96], 0
	mov	rdx, qword ptr [rbp - 104]
	mov	rcx, qword ptr [rbp - 96]
	mov	rdi, qword ptr [rbp - 128] 
	mov	rsi, rax
	call	__ZN8CryptoPP19GetValueHelperClassINS_11RSAFunctionES1_EclINS_7IntegerEEERS2_PKcMS1_KFRKT_vE
	mov	rdi, rax
	call	__ZNK8CryptoPP19GetValueHelperClassINS_11RSAFunctionES1_EcvbEv
	and	al, 1
	movzx	eax, al
	add	rsp, 128
	pop	rbp
	ret
	.cfi_endproc
                                        
	.globl	__ZN8CryptoPP14GetValueHelperINS_11RSAFunctionEEENS_19GetValueHelperClassIT_S3_EEPKS3_PKcRKSt9type_infoPvPKNS_14NameValuePairsE 
	.weak_definition	__ZN8CryptoPP14GetValueHelperINS_11RSAFunctionEEENS_19GetValueHelperClassIT_S3_EEPKS3_PKcRKSt9type_infoPvPKNS_14NameValuePairsE
	.p2align	4, 0x90
__ZN8CryptoPP14GetValueHelperINS_11RSAFunctionEEENS_19GetValueHelperClassIT_S3_EEPKS3_PKcRKSt9type_infoPvPKNS_14NameValuePairsE: 
	.cfi_startproc

	push	rbp
	.cfi_def_cfa_offset 16
	.cfi_offset rbp, -16
	mov	rbp, rsp
	.cfi_def_cfa_register rbp
	sub	rsp, 48
	mov	rax, rdi
	mov	qword ptr [rbp - 8], rsi
	mov	qword ptr [rbp - 16], rdx
	mov	qword ptr [rbp - 24], rcx
	mov	qword ptr [rbp - 32], r8
	mov	qword ptr [rbp - 40], r9
	mov	rsi, qword ptr [rbp - 8]
	mov	rdx, qword ptr [rbp - 16]
	mov	rcx, qword ptr [rbp - 24]
	mov	r8, qword ptr [rbp - 32]
	mov	r9, qword ptr [rbp - 40]
	mov	qword ptr [rbp - 48], rax 
	call	__ZN8CryptoPP19GetValueHelperClassINS_11RSAFunctionES1_EC1EPKS1_PKcRKSt9type_infoPvPKNS_14NameValuePairsE
	mov	rax, qword ptr [rbp - 48] 
	add	rsp, 48
	pop	rbp
	ret
	.cfi_endproc
                                        
	.globl	__ZN8CryptoPP19GetValueHelperClassINS_11RSAFunctionES1_E10AssignableEv 
	.weak_definition	__ZN8CryptoPP19GetValueHelperClassINS_11RSAFunctionES1_E10AssignableEv
	.p2align	4, 0x90
__ZN8CryptoPP19GetValueHelperClassINS_11RSAFunctionES1_E10AssignableEv: 
	.cfi_startproc

	push	rbp
	.cfi_def_cfa_offset 16
	.cfi_offset rbp, -16
	mov	rbp, rsp
	.cfi_def_cfa_register rbp
	sub	rsp, 32
	mov	qword ptr [rbp - 8], rdi
	mov	rax, qword ptr [rbp - 8]
	test	byte ptr [rax + 33], 1
	mov	qword ptr [rbp - 16], rax 
	je	LBB21_2

	lea	rax, [rip + __ZTIN8CryptoPP11RSAFunctionE]
	mov	rdi, rax
	call	__ZNKSt9type_info4nameEv
	mov	rcx, qword ptr [rbp - 16] 
	mov	rdx, qword ptr [rcx + 24]
	mov	rdi, rdx
	lea	rsi, [rip + L_.str.43]
	mov	qword ptr [rbp - 24], rax 
	call	__ZNSt3__112basic_stringIcNS_11char_traitsIcEENS_9allocatorIcEEEpLEPKc
	mov	rdi, rax
	mov	rsi, qword ptr [rbp - 24] 
	call	__ZNSt3__112basic_stringIcNS_11char_traitsIcEENS_9allocatorIcEEEpLEPKc
	mov	rdi, rax
	mov	esi, 59
	call	__ZNSt3__112basic_stringIcNS_11char_traitsIcEENS_9allocatorIcEEEpLEc
LBB21_2:
	mov	rax, qword ptr [rbp - 16] 
	test	byte ptr [rax + 32], 1
	jne	LBB21_6

	mov	rax, qword ptr [rbp - 16] 
	mov	rdi, qword ptr [rax + 8]
	lea	rsi, [rip + L_.str.43]
	mov	edx, 11
	call	_strncmp
	cmp	eax, 0
	jne	LBB21_6

	lea	rax, [rip + __ZTIN8CryptoPP11RSAFunctionE]
	mov	rcx, qword ptr [rbp - 16] 
	mov	rdx, qword ptr [rcx + 8]
	add	rdx, 11
	mov	rdi, rax
	mov	qword ptr [rbp - 32], rdx 
	call	__ZNKSt9type_info4nameEv
	mov	rdi, qword ptr [rbp - 32] 
	mov	rsi, rax
	call	_strcmp
	cmp	eax, 0
	jne	LBB21_6

	lea	rax, [rip + __ZTIN8CryptoPP11RSAFunctionE]
	mov	rcx, qword ptr [rbp - 16] 
	mov	rdi, qword ptr [rcx + 8]
	mov	rdx, qword ptr [rcx + 16]
	mov	rsi, rax
	call	__ZN8CryptoPP14NameValuePairs19ThrowIfTypeMismatchEPKcRKSt9type_infoS5_
	mov	rax, qword ptr [rbp - 16] 
	mov	rsi, qword ptr [rax]
	mov	rcx, qword ptr [rax + 24]
	mov	rdi, rcx
	call	__ZN8CryptoPP11RSAFunctionaSERKS0_
	mov	rcx, qword ptr [rbp - 16] 
	mov	byte ptr [rcx + 32], 1
LBB21_6:
	mov	rax, qword ptr [rbp - 16] 
	add	rsp, 32
	pop	rbp
	ret
	.cfi_endproc
                                        
	.globl	__ZN8CryptoPP19GetValueHelperClassINS_11RSAFunctionES1_EclINS_7IntegerEEERS2_PKcMS1_KFRKT_vE 
	.weak_definition	__ZN8CryptoPP19GetValueHelperClassINS_11RSAFunctionES1_EclINS_7IntegerEEERS2_PKcMS1_KFRKT_vE
	.p2align	4, 0x90
__ZN8CryptoPP19GetValueHelperClassINS_11RSAFunctionES1_EclINS_7IntegerEEERS2_PKcMS1_KFRKT_vE: 
	.cfi_startproc

	push	rbp
	.cfi_def_cfa_offset 16
	.cfi_offset rbp, -16
	mov	rbp, rsp
	.cfi_def_cfa_register rbp
	sub	rsp, 80
	mov	qword ptr [rbp - 16], rdx
	mov	qword ptr [rbp - 8], rcx
	mov	rax, qword ptr [rbp - 16]
	mov	rcx, qword ptr [rbp - 8]
	mov	qword ptr [rbp - 24], rdi
	mov	qword ptr [rbp - 32], rsi
	mov	qword ptr [rbp - 40], rcx
	mov	qword ptr [rbp - 48], rax
	mov	rax, qword ptr [rbp - 24]
	test	byte ptr [rax + 33], 1
	mov	qword ptr [rbp - 56], rax 
	je	LBB22_2

	mov	rsi, qword ptr [rbp - 32]
	mov	rax, qword ptr [rbp - 56] 
	mov	rcx, qword ptr [rax + 24]
	mov	rdi, rcx
	call	__ZNSt3__112basic_stringIcNS_11char_traitsIcEENS_9allocatorIcEEEpLEPKc
	mov	rdi, rax
	lea	rsi, [rip + L_.str.44]
	call	__ZNSt3__112basic_stringIcNS_11char_traitsIcEENS_9allocatorIcEEEpLEPKc
LBB22_2:
	mov	rax, qword ptr [rbp - 56] 
	test	byte ptr [rax + 32], 1
	jne	LBB22_8

	mov	rdi, qword ptr [rbp - 32]
	mov	rax, qword ptr [rbp - 56] 
	mov	rsi, qword ptr [rax + 8]
	call	_strcmp
	cmp	eax, 0
	jne	LBB22_8

	mov	rdi, qword ptr [rbp - 32]
	mov	rax, qword ptr [rbp - 56] 
	mov	rdx, qword ptr [rax + 16]
	mov	rsi, qword ptr [rip + __ZTIN8CryptoPP7IntegerE@GOTPCREL]
	call	__ZN8CryptoPP14NameValuePairs19ThrowIfTypeMismatchEPKcRKSt9type_infoS5_
	mov	rax, qword ptr [rbp - 56] 
	mov	rcx, qword ptr [rax]
	mov	rdx, qword ptr [rbp - 48]
	mov	rsi, qword ptr [rbp - 40]
	add	rcx, rsi
	mov	rsi, rdx
	and	rsi, 1
	cmp	rsi, 0
	mov	qword ptr [rbp - 64], rdx 
	mov	qword ptr [rbp - 72], rcx 
	je	LBB22_6

	mov	rax, qword ptr [rbp - 72] 
	mov	rcx, qword ptr [rax]
	mov	rdx, qword ptr [rbp - 64] 
	sub	rdx, 1
	mov	rcx, qword ptr [rcx + rdx]
	mov	qword ptr [rbp - 80], rcx 
	jmp	LBB22_7
LBB22_6:
	mov	rax, qword ptr [rbp - 64] 
	mov	qword ptr [rbp - 80], rax 
LBB22_7:
	mov	rax, qword ptr [rbp - 80] 
	mov	rdi, qword ptr [rbp - 72] 
	call	rax
	mov	rcx, qword ptr [rbp - 56] 
	mov	rdx, qword ptr [rcx + 24]
	mov	rdi, rdx
	mov	rsi, rax
	call	__ZN8CryptoPP7IntegeraSERKS0_
	mov	rcx, qword ptr [rbp - 56] 
	mov	byte ptr [rcx + 32], 1
LBB22_8:
	mov	rax, qword ptr [rbp - 56] 
	add	rsp, 80
	pop	rbp
	ret
	.cfi_endproc
                                        
	.globl	__ZN8CryptoPP4Name7ModulusEv 
	.weak_definition	__ZN8CryptoPP4Name7ModulusEv
	.p2align	4, 0x90
__ZN8CryptoPP4Name7ModulusEv:           

	push	rbp
	mov	rbp, rsp
	lea	rax, [rip + L_.str.10]
	pop	rbp
	ret
                                        
	.globl	__ZNK8CryptoPP11RSAFunction10GetModulusEv 
	.weak_definition	__ZNK8CryptoPP11RSAFunction10GetModulusEv
	.p2align	4, 0x90
__ZNK8CryptoPP11RSAFunction10GetModulusEv: 

	push	rbp
	mov	rbp, rsp
	mov	qword ptr [rbp - 8], rdi
	mov	rax, qword ptr [rbp - 8]
	add	rax, 24
	pop	rbp
	ret
                                        
	.globl	__ZN8CryptoPP4Name14PublicExponentEv 
	.weak_definition	__ZN8CryptoPP4Name14PublicExponentEv
	.p2align	4, 0x90
__ZN8CryptoPP4Name14PublicExponentEv:   

	push	rbp
	mov	rbp, rsp
	lea	rax, [rip + L_.str.11]
	pop	rbp
	ret
                                        
	.globl	__ZNK8CryptoPP11RSAFunction17GetPublicExponentEv 
	.weak_definition	__ZNK8CryptoPP11RSAFunction17GetPublicExponentEv
	.p2align	4, 0x90
__ZNK8CryptoPP11RSAFunction17GetPublicExponentEv: 

	push	rbp
	mov	rbp, rsp
	mov	qword ptr [rbp - 8], rdi
	mov	rax, qword ptr [rbp - 8]
	add	rax, 72
	pop	rbp
	ret
                                        
	.globl	__ZNK8CryptoPP19GetValueHelperClassINS_11RSAFunctionES1_EcvbEv 
	.weak_definition	__ZNK8CryptoPP19GetValueHelperClassINS_11RSAFunctionES1_EcvbEv
	.p2align	4, 0x90
__ZNK8CryptoPP19GetValueHelperClassINS_11RSAFunctionES1_EcvbEv: 

	push	rbp
	mov	rbp, rsp
	mov	qword ptr [rbp - 8], rdi
	mov	rax, qword ptr [rbp - 8]
	mov	cl, byte ptr [rax + 32]
	and	cl, 1
	movzx	eax, cl
	pop	rbp
	ret
                                        
	.globl	__ZTv0_n32_NK8CryptoPP11RSAFunction12GetVoidValueEPKcRKSt9type_infoPv 
	.p2align	4, 0x90
__ZTv0_n32_NK8CryptoPP11RSAFunction12GetVoidValueEPKcRKSt9type_infoPv: 
	.cfi_startproc

	push	rbp
	.cfi_def_cfa_offset 16
	.cfi_offset rbp, -16
	mov	rbp, rsp
	.cfi_def_cfa_register rbp
	mov	qword ptr [rbp - 8], rdi
	mov	qword ptr [rbp - 16], rsi
	mov	qword ptr [rbp - 24], rdx
	mov	qword ptr [rbp - 32], rcx
	mov	rax, qword ptr [rbp - 8]
	mov	rcx, qword ptr [rax]
	mov	rcx, qword ptr [rcx - 32]
	add	rax, rcx
	mov	rsi, qword ptr [rbp - 16]
	mov	rdx, qword ptr [rbp - 24]
	mov	rcx, qword ptr [rbp - 32]
	mov	rdi, rax
	pop	rbp
	jmp	__ZNK8CryptoPP11RSAFunction12GetVoidValueEPKcRKSt9type_infoPv 
	.cfi_endproc
                                        
	.globl	__ZN8CryptoPP11RSAFunction10AssignFromERKNS_14NameValuePairsE 
	.p2align	4, 0x90
__ZN8CryptoPP11RSAFunction10AssignFromERKNS_14NameValuePairsE: 
	.cfi_startproc

	push	rbp
	.cfi_def_cfa_offset 16
	.cfi_offset rbp, -16
	mov	rbp, rsp
	.cfi_def_cfa_register rbp
	sub	rsp, 96
	mov	qword ptr [rbp - 8], rdi
	mov	qword ptr [rbp - 16], rsi
	mov	rsi, qword ptr [rbp - 8]
	mov	rdx, qword ptr [rbp - 16]
	lea	rax, [rbp - 40]
	mov	rdi, rax
	mov	qword ptr [rbp - 80], rax 
	call	__ZN8CryptoPP16AssignFromHelperINS_11RSAFunctionEEENS_21AssignFromHelperClassIT_S3_EEPS3_RKNS_14NameValuePairsE
	call	__ZN8CryptoPP4Name7ModulusEv
	mov	rcx, qword ptr [rip + __ZN8CryptoPP11RSAFunction10SetModulusERKNS_7IntegerE@GOTPCREL]
	mov	qword ptr [rbp - 56], rcx
	mov	qword ptr [rbp - 48], 0
	mov	rdx, qword ptr [rbp - 56]
	mov	rcx, qword ptr [rbp - 48]
	mov	rdi, qword ptr [rbp - 80] 
	mov	rsi, rax
	call	__ZN8CryptoPP21AssignFromHelperClassINS_11RSAFunctionES1_EclINS_7IntegerEEERS2_PKcMS1_FvRKT_E
	mov	qword ptr [rbp - 88], rax 
	call	__ZN8CryptoPP4Name14PublicExponentEv
	mov	rcx, qword ptr [rip + __ZN8CryptoPP11RSAFunction17SetPublicExponentERKNS_7IntegerE@GOTPCREL]
	mov	qword ptr [rbp - 72], rcx
	mov	qword ptr [rbp - 64], 0
	mov	rdx, qword ptr [rbp - 72]
	mov	rcx, qword ptr [rbp - 64]
	mov	rdi, qword ptr [rbp - 88] 
	mov	rsi, rax
	call	__ZN8CryptoPP21AssignFromHelperClassINS_11RSAFunctionES1_EclINS_7IntegerEEERS2_PKcMS1_FvRKT_E
	add	rsp, 96
	pop	rbp
	ret
	.cfi_endproc
                                        
	.globl	__ZN8CryptoPP16AssignFromHelperINS_11RSAFunctionEEENS_21AssignFromHelperClassIT_S3_EEPS3_RKNS_14NameValuePairsE 
	.weak_definition	__ZN8CryptoPP16AssignFromHelperINS_11RSAFunctionEEENS_21AssignFromHelperClassIT_S3_EEPS3_RKNS_14NameValuePairsE
	.p2align	4, 0x90
__ZN8CryptoPP16AssignFromHelperINS_11RSAFunctionEEENS_21AssignFromHelperClassIT_S3_EEPS3_RKNS_14NameValuePairsE: 
	.cfi_startproc

	push	rbp
	.cfi_def_cfa_offset 16
	.cfi_offset rbp, -16
	mov	rbp, rsp
	.cfi_def_cfa_register rbp
	sub	rsp, 32
	mov	rax, rdi
	mov	qword ptr [rbp - 8], rsi
	mov	qword ptr [rbp - 16], rdx
	mov	rsi, qword ptr [rbp - 8]
	mov	rdx, qword ptr [rbp - 16]
	mov	qword ptr [rbp - 24], rax 
	call	__ZN8CryptoPP21AssignFromHelperClassINS_11RSAFunctionES1_EC1EPS1_RKNS_14NameValuePairsE
	mov	rax, qword ptr [rbp - 24] 
	add	rsp, 32
	pop	rbp
	ret
	.cfi_endproc
                                        
	.globl	__ZN8CryptoPP21AssignFromHelperClassINS_11RSAFunctionES1_EclINS_7IntegerEEERS2_PKcMS1_FvRKT_E 
	.weak_definition	__ZN8CryptoPP21AssignFromHelperClassINS_11RSAFunctionES1_EclINS_7IntegerEEERS2_PKcMS1_FvRKT_E
	.p2align	4, 0x90
__ZN8CryptoPP21AssignFromHelperClassINS_11RSAFunctionES1_EclINS_7IntegerEEERS2_PKcMS1_FvRKT_E: 
Lfunc_begin3:
	.cfi_startproc
	.cfi_personality 155, ___gxx_personality_v0
	.cfi_lsda 16, Lexception3

	push	rbp
	.cfi_def_cfa_offset 16
	.cfi_offset rbp, -16
	mov	rbp, rsp
	.cfi_def_cfa_register rbp
	sub	rsp, 288
	mov	qword ptr [rbp - 16], rdx
	mov	qword ptr [rbp - 8], rcx
	mov	rax, qword ptr [rbp - 16]
	mov	rcx, qword ptr [rbp - 8]
	mov	qword ptr [rbp - 24], rdi
	mov	qword ptr [rbp - 32], rsi
	mov	qword ptr [rbp - 40], rcx
	mov	qword ptr [rbp - 48], rax
	mov	rax, qword ptr [rbp - 24]
	test	byte ptr [rax + 16], 1
	mov	qword ptr [rbp - 224], rax 
	jne	LBB31_32

	lea	rax, [rbp - 96]
	mov	rdi, rax
	mov	qword ptr [rbp - 232], rax 
	call	__ZN8CryptoPP7IntegerC1Ev
	mov	rax, qword ptr [rbp - 224] 
	mov	rdi, qword ptr [rax + 8]
	mov	rsi, qword ptr [rbp - 32]
Ltmp26:
	mov	rdx, qword ptr [rbp - 232] 
	call	__ZNK8CryptoPP14NameValuePairs8GetValueINS_7IntegerEEEbPKcRT_
Ltmp27:
	mov	byte ptr [rbp - 233], al 
	jmp	LBB31_2
LBB31_2:
	mov	al, byte ptr [rbp - 233] 
	test	al, 1
	jne	LBB31_25
	jmp	LBB31_3
LBB31_3:
	mov	edi, 40
	call	___cxa_allocate_exception
	mov	rcx, rax
	mov	byte ptr [rbp - 209], 1
	lea	rdi, [rip + __ZTIN8CryptoPP11RSAFunctionE]
	mov	qword ptr [rbp - 248], rcx 
	mov	qword ptr [rbp - 256], rax 
	call	__ZNKSt9type_info4nameEv
Ltmp28:
	lea	rdi, [rbp - 208]
	mov	rsi, rax
	call	__ZNSt3__112basic_stringIcNS_11char_traitsIcEENS_9allocatorIcEEEC1INS_9nullptr_tEEEPKc
Ltmp29:
	jmp	LBB31_4
LBB31_4:
Ltmp31:
	lea	rdx, [rip + L_.str.45]
	lea	rdi, [rbp - 184]
	lea	rsi, [rbp - 208]
	call	__ZNSt3__1plIcNS_11char_traitsIcEENS_9allocatorIcEEEENS_12basic_stringIT_T0_T1_EERKS9_PKS6_
Ltmp32:
	jmp	LBB31_5
LBB31_5:
	mov	rdx, qword ptr [rbp - 32]
Ltmp34:
	lea	rdi, [rbp - 160]
	lea	rsi, [rbp - 184]
	call	__ZNSt3__1plIcNS_11char_traitsIcEENS_9allocatorIcEEEENS_12basic_stringIT_T0_T1_EERKS9_PKS6_
Ltmp35:
	jmp	LBB31_6
LBB31_6:
Ltmp37:
	lea	rdx, [rip + L_.str.42]
	lea	rdi, [rbp - 136]
	lea	rsi, [rbp - 160]
	call	__ZNSt3__1plIcNS_11char_traitsIcEENS_9allocatorIcEEEENS_12basic_stringIT_T0_T1_EERKS9_PKS6_
Ltmp38:
	jmp	LBB31_7
LBB31_7:
Ltmp40:
	lea	rsi, [rbp - 136]
	mov	rdi, qword ptr [rbp - 256] 
	call	__ZN8CryptoPP15InvalidArgumentC1ERKNSt3__112basic_stringIcNS1_11char_traitsIcEENS1_9allocatorIcEEEE
Ltmp41:
	jmp	LBB31_8
LBB31_8:
	mov	byte ptr [rbp - 209], 0
Ltmp42:
	mov	rsi, qword ptr [rip + __ZTIN8CryptoPP15InvalidArgumentE@GOTPCREL]
	mov	rdx, qword ptr [rip + __ZN8CryptoPP15InvalidArgumentD1Ev@GOTPCREL]
	mov	rdi, qword ptr [rbp - 248] 
	call	___cxa_throw
Ltmp43:
	jmp	LBB31_35
LBB31_9:
Ltmp55:
                                        
	mov	qword ptr [rbp - 104], rax
	mov	dword ptr [rbp - 108], edx
	jmp	LBB31_30
LBB31_10:
Ltmp30:
                                        
	mov	qword ptr [rbp - 104], rax
	mov	dword ptr [rbp - 108], edx
	jmp	LBB31_22
LBB31_11:
Ltmp33:
                                        
	mov	qword ptr [rbp - 104], rax
	mov	dword ptr [rbp - 108], edx
	jmp	LBB31_20
LBB31_12:
Ltmp36:
                                        
	mov	qword ptr [rbp - 104], rax
	mov	dword ptr [rbp - 108], edx
	jmp	LBB31_18
LBB31_13:
Ltmp39:
                                        
	mov	qword ptr [rbp - 104], rax
	mov	dword ptr [rbp - 108], edx
	jmp	LBB31_16
LBB31_14:
Ltmp44:
                                        
	mov	qword ptr [rbp - 104], rax
	mov	dword ptr [rbp - 108], edx
Ltmp45:
	lea	rdi, [rbp - 136]
	call	__ZNSt3__112basic_stringIcNS_11char_traitsIcEENS_9allocatorIcEEED1Ev
Ltmp46:
	jmp	LBB31_15
LBB31_15:
	jmp	LBB31_16
LBB31_16:
Ltmp47:
	lea	rdi, [rbp - 160]
	call	__ZNSt3__112basic_stringIcNS_11char_traitsIcEENS_9allocatorIcEEED1Ev
Ltmp48:
	jmp	LBB31_17
LBB31_17:
	jmp	LBB31_18
LBB31_18:
Ltmp49:
	lea	rdi, [rbp - 184]
	call	__ZNSt3__112basic_stringIcNS_11char_traitsIcEENS_9allocatorIcEEED1Ev
Ltmp50:
	jmp	LBB31_19
LBB31_19:
	jmp	LBB31_20
LBB31_20:
Ltmp51:
	lea	rdi, [rbp - 208]
	call	__ZNSt3__112basic_stringIcNS_11char_traitsIcEENS_9allocatorIcEEED1Ev
Ltmp52:
	jmp	LBB31_21
LBB31_21:
	jmp	LBB31_22
LBB31_22:
	test	byte ptr [rbp - 209], 1
	jne	LBB31_23
	jmp	LBB31_24
LBB31_23:
	mov	rdi, qword ptr [rbp - 248] 
	call	___cxa_free_exception
LBB31_24:
	jmp	LBB31_30
LBB31_25:
	mov	rax, qword ptr [rbp - 224] 
	mov	rcx, qword ptr [rax]
	mov	rdx, qword ptr [rbp - 48]
	mov	rsi, qword ptr [rbp - 40]
	add	rcx, rsi
	mov	rsi, rdx
	and	rsi, 1
	cmp	rsi, 0
	mov	qword ptr [rbp - 264], rdx 
	mov	qword ptr [rbp - 272], rcx 
	je	LBB31_27

	mov	rax, qword ptr [rbp - 272] 
	mov	rcx, qword ptr [rax]
	mov	rdx, qword ptr [rbp - 264] 
	sub	rdx, 1
	mov	rcx, qword ptr [rcx + rdx]
	mov	qword ptr [rbp - 280], rcx 
	jmp	LBB31_28
LBB31_27:
	mov	rax, qword ptr [rbp - 264] 
	mov	qword ptr [rbp - 280], rax 
LBB31_28:
Ltmp53:
	mov	rax, qword ptr [rbp - 280] 
	lea	rsi, [rbp - 96]
	mov	rdi, qword ptr [rbp - 272] 
	call	rax
Ltmp54:
	jmp	LBB31_29
LBB31_29:
	lea	rdi, [rbp - 96]
	call	__ZN8CryptoPP7IntegerD1Ev
	jmp	LBB31_32
LBB31_30:
Ltmp56:
	lea	rdi, [rbp - 96]
	call	__ZN8CryptoPP7IntegerD1Ev
Ltmp57:
	jmp	LBB31_31
LBB31_31:
	jmp	LBB31_33
LBB31_32:
	mov	rax, qword ptr [rbp - 224] 
	add	rsp, 288
	pop	rbp
	ret
LBB31_33:
	mov	rdi, qword ptr [rbp - 104]
	call	__Unwind_Resume
	ud2
LBB31_34:
Ltmp58:
	mov	rdi, rax
	mov	qword ptr [rbp - 288], rdx 
	call	___clang_call_terminate
LBB31_35:
	ud2
Lfunc_end3:
	.cfi_endproc
	.section	__TEXT,__gcc_except_tab
	.p2align	2
GCC_except_table31:
Lexception3:
	.byte	255                     
	.byte	155                     
	.uleb128 Lttbase3-Lttbaseref3
Lttbaseref3:
	.byte	1                       
	.uleb128 Lcst_end3-Lcst_begin3
Lcst_begin3:
	.uleb128 Lfunc_begin3-Lfunc_begin3 
	.uleb128 Ltmp26-Lfunc_begin3    
	.byte	0                       
	.byte	0                       
	.uleb128 Ltmp26-Lfunc_begin3    
	.uleb128 Ltmp27-Ltmp26          
	.uleb128 Ltmp55-Lfunc_begin3    
	.byte	0                       
	.uleb128 Ltmp27-Lfunc_begin3    
	.uleb128 Ltmp28-Ltmp27          
	.byte	0                       
	.byte	0                       
	.uleb128 Ltmp28-Lfunc_begin3    
	.uleb128 Ltmp29-Ltmp28          
	.uleb128 Ltmp30-Lfunc_begin3    
	.byte	0                       
	.uleb128 Ltmp31-Lfunc_begin3    
	.uleb128 Ltmp32-Ltmp31          
	.uleb128 Ltmp33-Lfunc_begin3    
	.byte	0                       
	.uleb128 Ltmp34-Lfunc_begin3    
	.uleb128 Ltmp35-Ltmp34          
	.uleb128 Ltmp36-Lfunc_begin3    
	.byte	0                       
	.uleb128 Ltmp37-Lfunc_begin3    
	.uleb128 Ltmp38-Ltmp37          
	.uleb128 Ltmp39-Lfunc_begin3    
	.byte	0                       
	.uleb128 Ltmp40-Lfunc_begin3    
	.uleb128 Ltmp43-Ltmp40          
	.uleb128 Ltmp44-Lfunc_begin3    
	.byte	0                       
	.uleb128 Ltmp45-Lfunc_begin3    
	.uleb128 Ltmp52-Ltmp45          
	.uleb128 Ltmp58-Lfunc_begin3    
	.byte	1                       
	.uleb128 Ltmp52-Lfunc_begin3    
	.uleb128 Ltmp53-Ltmp52          
	.byte	0                       
	.byte	0                       
	.uleb128 Ltmp53-Lfunc_begin3    
	.uleb128 Ltmp54-Ltmp53          
	.uleb128 Ltmp55-Lfunc_begin3    
	.byte	0                       
	.uleb128 Ltmp54-Lfunc_begin3    
	.uleb128 Ltmp56-Ltmp54          
	.byte	0                       
	.byte	0                       
	.uleb128 Ltmp56-Lfunc_begin3    
	.uleb128 Ltmp57-Ltmp56          
	.uleb128 Ltmp58-Lfunc_begin3    
	.byte	1                       
	.uleb128 Ltmp57-Lfunc_begin3    
	.uleb128 Lfunc_end3-Ltmp57      
	.byte	0                       
	.byte	0                       
Lcst_end3:
	.byte	1                       
                                        
	.byte	0                       
	.p2align	2
                                        
	.long	0                       
Lttbase3:
	.p2align	2
                                        
	.section	__TEXT,__text,regular,pure_instructions
	.globl	__ZN8CryptoPP11RSAFunction10SetModulusERKNS_7IntegerE 
	.weak_definition	__ZN8CryptoPP11RSAFunction10SetModulusERKNS_7IntegerE
	.p2align	4, 0x90
__ZN8CryptoPP11RSAFunction10SetModulusERKNS_7IntegerE: 
	.cfi_startproc

	push	rbp
	.cfi_def_cfa_offset 16
	.cfi_offset rbp, -16
	mov	rbp, rsp
	.cfi_def_cfa_register rbp
	sub	rsp, 16
	mov	qword ptr [rbp - 8], rdi
	mov	qword ptr [rbp - 16], rsi
	mov	rax, qword ptr [rbp - 8]
	mov	rsi, qword ptr [rbp - 16]
	add	rax, 24
	mov	rdi, rax
	call	__ZN8CryptoPP7IntegeraSERKS0_
	add	rsp, 16
	pop	rbp
	ret
	.cfi_endproc
                                        
	.globl	__ZN8CryptoPP11RSAFunction17SetPublicExponentERKNS_7IntegerE 
	.weak_definition	__ZN8CryptoPP11RSAFunction17SetPublicExponentERKNS_7IntegerE
	.p2align	4, 0x90
__ZN8CryptoPP11RSAFunction17SetPublicExponentERKNS_7IntegerE: 
	.cfi_startproc

	push	rbp
	.cfi_def_cfa_offset 16
	.cfi_offset rbp, -16
	mov	rbp, rsp
	.cfi_def_cfa_register rbp
	sub	rsp, 16
	mov	qword ptr [rbp - 8], rdi
	mov	qword ptr [rbp - 16], rsi
	mov	rax, qword ptr [rbp - 8]
	mov	rsi, qword ptr [rbp - 16]
	add	rax, 72
	mov	rdi, rax
	call	__ZN8CryptoPP7IntegeraSERKS0_
	add	rsp, 16
	pop	rbp
	ret
	.cfi_endproc
                                        
	.globl	__ZTv0_n40_N8CryptoPP11RSAFunction10AssignFromERKNS_14NameValuePairsE 
	.p2align	4, 0x90
__ZTv0_n40_N8CryptoPP11RSAFunction10AssignFromERKNS_14NameValuePairsE: 
	.cfi_startproc

	push	rbp
	.cfi_def_cfa_offset 16
	.cfi_offset rbp, -16
	mov	rbp, rsp
	.cfi_def_cfa_register rbp
	mov	qword ptr [rbp - 8], rdi
	mov	qword ptr [rbp - 16], rsi
	mov	rax, qword ptr [rbp - 8]
	mov	rcx, qword ptr [rax]
	mov	rcx, qword ptr [rcx - 40]
	add	rax, rcx
	mov	rsi, qword ptr [rbp - 16]
	mov	rdi, rax
	pop	rbp
	jmp	__ZN8CryptoPP11RSAFunction10AssignFromERKNS_14NameValuePairsE 
	.cfi_endproc
                                        
	.globl	__ZN8CryptoPP21InvertibleRSAFunction14GenerateRandomERNS_21RandomNumberGeneratorERKNS_14NameValuePairsE 
	.p2align	4, 0x90
__ZN8CryptoPP21InvertibleRSAFunction14GenerateRandomERNS_21RandomNumberGeneratorERKNS_14NameValuePairsE: 
Lfunc_begin4:
	.cfi_startproc
	.cfi_personality 155, ___gxx_personality_v0
	.cfi_lsda 16, Lexception4

	push	rbp
	.cfi_def_cfa_offset 16
	.cfi_offset rbp, -16
	mov	rbp, rsp
	.cfi_def_cfa_register rbp
	sub	rsp, 2608
	mov	rax, qword ptr [rip + ___stack_chk_guard@GOTPCREL]
	mov	rax, qword ptr [rax]
	mov	qword ptr [rbp - 8], rax
	mov	qword ptr [rbp - 1088], rdi
	mov	qword ptr [rbp - 1096], rsi
	mov	qword ptr [rbp - 1104], rdx
	mov	rax, qword ptr [rbp - 1088]
	mov	dword ptr [rbp - 1108], 2048
	mov	rdi, qword ptr [rbp - 1104]
	mov	qword ptr [rbp - 2408], rax 
	mov	qword ptr [rbp - 2416], rdi 
	call	__ZN8CryptoPP4Name11ModulusSizeEv
	mov	rdi, qword ptr [rbp - 2416] 
	mov	rsi, rax
	lea	rdx, [rbp - 1108]
	call	__ZNK8CryptoPP14NameValuePairs11GetIntValueEPKcRi
	test	al, 1
	jne	LBB35_2

	mov	rdi, qword ptr [rbp - 1104]
	mov	qword ptr [rbp - 2424], rdi 
	call	__ZN8CryptoPP4Name7KeySizeEv
	mov	rdi, qword ptr [rbp - 2424] 
	mov	rsi, rax
	lea	rdx, [rbp - 1108]
	call	__ZNK8CryptoPP14NameValuePairs11GetIntValueEPKcRi
LBB35_2:
	cmp	dword ptr [rbp - 1108], 16
	jge	LBB35_12

	mov	edi, 40
	call	___cxa_allocate_exception
	mov	rcx, rax
	mov	byte ptr [rbp - 1149], 1
Ltmp257:
	lea	rsi, [rip + L_.str]
	lea	rdi, [rbp - 1136]
	mov	qword ptr [rbp - 2432], rcx 
	mov	qword ptr [rbp - 2440], rax 
	call	__ZNSt3__112basic_stringIcNS_11char_traitsIcEENS_9allocatorIcEEEC1INS_9nullptr_tEEEPKc
Ltmp258:
	jmp	LBB35_4
LBB35_4:
Ltmp260:
	lea	rsi, [rbp - 1136]
	mov	rdi, qword ptr [rbp - 2440] 
	call	__ZN8CryptoPP15InvalidArgumentC1ERKNSt3__112basic_stringIcNS1_11char_traitsIcEENS1_9allocatorIcEEEE
Ltmp261:
	jmp	LBB35_5
LBB35_5:
	mov	byte ptr [rbp - 1149], 0
Ltmp262:
	mov	rsi, qword ptr [rip + __ZTIN8CryptoPP15InvalidArgumentE@GOTPCREL]
	mov	rdx, qword ptr [rip + __ZN8CryptoPP15InvalidArgumentD1Ev@GOTPCREL]
	mov	rdi, qword ptr [rbp - 2432] 
	call	___cxa_throw
Ltmp263:
	jmp	LBB35_151
LBB35_6:
Ltmp259:
                                        
	mov	qword ptr [rbp - 1144], rax
	mov	dword ptr [rbp - 1148], edx
	jmp	LBB35_9
LBB35_7:
Ltmp264:
                                        
	mov	qword ptr [rbp - 1144], rax
	mov	dword ptr [rbp - 1148], edx
Ltmp265:
	lea	rdi, [rbp - 1136]
	call	__ZNSt3__112basic_stringIcNS_11char_traitsIcEENS_9allocatorIcEEED1Ev
Ltmp266:
	jmp	LBB35_8
LBB35_8:
	jmp	LBB35_9
LBB35_9:
	test	byte ptr [rbp - 1149], 1
	jne	LBB35_10
	jmp	LBB35_11
LBB35_10:
	mov	rdi, qword ptr [rbp - 2432] 
	call	___cxa_free_exception
LBB35_11:
	jmp	LBB35_149
LBB35_12:
	mov	rsi, qword ptr [rbp - 1104]
	mov	qword ptr [rbp - 2448], rsi 
	call	__ZN8CryptoPP4Name14PublicExponentEv
	lea	rcx, [rbp - 1248]
	mov	esi, 17
	mov	rdi, rcx
	mov	qword ptr [rbp - 2456], rax 
	mov	qword ptr [rbp - 2464], rcx 
	call	__ZN8CryptoPP7IntegerC1El
Ltmp59:
	lea	rdi, [rbp - 1200]
	mov	rsi, qword ptr [rbp - 2448] 
	mov	rdx, qword ptr [rbp - 2456] 
	mov	rcx, qword ptr [rbp - 2464] 
	call	__ZNK8CryptoPP14NameValuePairs19GetValueWithDefaultINS_7IntegerEEET_PKcS3_
Ltmp60:
	jmp	LBB35_13
LBB35_13:
	mov	rax, qword ptr [rbp - 2408] 
	add	rax, 72
Ltmp61:
	lea	rsi, [rbp - 1200]
	mov	rdi, rax
	call	__ZN8CryptoPP7IntegeraSERKS0_
Ltmp62:
	jmp	LBB35_14
LBB35_14:
Ltmp66:
	lea	rdi, [rbp - 1200]
	call	__ZN8CryptoPP7IntegerD1Ev
Ltmp67:
	jmp	LBB35_15
LBB35_15:
	lea	rdi, [rbp - 1248]
	call	__ZN8CryptoPP7IntegerD1Ev
	mov	rax, qword ptr [rbp - 2408] 
	add	rax, 72
	lea	rcx, [rbp - 1296]
	mov	esi, 3
	mov	rdi, rcx
	mov	qword ptr [rbp - 2472], rax 
	mov	qword ptr [rbp - 2480], rcx 
	call	__ZN8CryptoPP7IntegerC1El
Ltmp71:
	mov	rdi, qword ptr [rbp - 2472] 
	mov	rsi, qword ptr [rbp - 2480] 
	call	__ZN8CryptoPPltERKNS_7IntegerES2_
Ltmp72:
	mov	byte ptr [rbp - 2481], al 
	jmp	LBB35_16
LBB35_16:
	mov	al, byte ptr [rbp - 2481] 
	test	al, 1
	mov	cl, 1
	mov	byte ptr [rbp - 2482], cl 
	jne	LBB35_19
	jmp	LBB35_17
LBB35_17:
	mov	rax, qword ptr [rbp - 2408] 
	add	rax, 72
Ltmp73:
	mov	rdi, rax
	call	__ZNK8CryptoPP7Integer6IsEvenEv
Ltmp74:
	mov	byte ptr [rbp - 2483], al 
	jmp	LBB35_18
LBB35_18:
	mov	al, byte ptr [rbp - 2483] 
	mov	byte ptr [rbp - 2482], al 
	jmp	LBB35_19
LBB35_19:
	mov	al, byte ptr [rbp - 2482] 
	lea	rdi, [rbp - 1296]
	mov	byte ptr [rbp - 2484], al 
	call	__ZN8CryptoPP7IntegerD1Ev
	mov	al, byte ptr [rbp - 2484] 
	test	al, 1
	jne	LBB35_20
	jmp	LBB35_36
LBB35_20:
	mov	edi, 40
	call	___cxa_allocate_exception
	mov	rcx, rax
	mov	byte ptr [rbp - 1321], 1
Ltmp247:
	lea	rsi, [rip + L_.str.1]
	lea	rdi, [rbp - 1320]
	mov	qword ptr [rbp - 2496], rcx 
	mov	qword ptr [rbp - 2504], rax 
	call	__ZNSt3__112basic_stringIcNS_11char_traitsIcEENS_9allocatorIcEEEC1INS_9nullptr_tEEEPKc
Ltmp248:
	jmp	LBB35_21
LBB35_21:
Ltmp250:
	lea	rsi, [rbp - 1320]
	mov	rdi, qword ptr [rbp - 2504] 
	call	__ZN8CryptoPP15InvalidArgumentC1ERKNSt3__112basic_stringIcNS1_11char_traitsIcEENS1_9allocatorIcEEEE
Ltmp251:
	jmp	LBB35_22
LBB35_22:
	mov	byte ptr [rbp - 1321], 0
Ltmp252:
	mov	rsi, qword ptr [rip + __ZTIN8CryptoPP15InvalidArgumentE@GOTPCREL]
	mov	rdx, qword ptr [rip + __ZN8CryptoPP15InvalidArgumentD1Ev@GOTPCREL]
	mov	rdi, qword ptr [rbp - 2496] 
	call	___cxa_throw
Ltmp253:
	jmp	LBB35_151
LBB35_23:
Ltmp68:
                                        
	mov	qword ptr [rbp - 1144], rax
	mov	dword ptr [rbp - 1148], edx
	jmp	LBB35_26
LBB35_24:
Ltmp63:
                                        
	mov	qword ptr [rbp - 1144], rax
	mov	dword ptr [rbp - 1148], edx
Ltmp64:
	lea	rdi, [rbp - 1200]
	call	__ZN8CryptoPP7IntegerD1Ev
Ltmp65:
	jmp	LBB35_25
LBB35_25:
	jmp	LBB35_26
LBB35_26:
Ltmp69:
	lea	rdi, [rbp - 1248]
	call	__ZN8CryptoPP7IntegerD1Ev
Ltmp70:
	jmp	LBB35_27
LBB35_27:
	jmp	LBB35_149
LBB35_28:
Ltmp75:
                                        
	mov	qword ptr [rbp - 1144], rax
	mov	dword ptr [rbp - 1148], edx
Ltmp76:
	lea	rdi, [rbp - 1296]
	call	__ZN8CryptoPP7IntegerD1Ev
Ltmp77:
	jmp	LBB35_29
LBB35_29:
	jmp	LBB35_149
LBB35_30:
Ltmp249:
                                        
	mov	qword ptr [rbp - 1144], rax
	mov	dword ptr [rbp - 1148], edx
	jmp	LBB35_33
LBB35_31:
Ltmp254:
                                        
	mov	qword ptr [rbp - 1144], rax
	mov	dword ptr [rbp - 1148], edx
Ltmp255:
	lea	rdi, [rbp - 1320]
	call	__ZNSt3__112basic_stringIcNS_11char_traitsIcEENS_9allocatorIcEEED1Ev
Ltmp256:
	jmp	LBB35_32
LBB35_32:
	jmp	LBB35_33
LBB35_33:
	test	byte ptr [rbp - 1321], 1
	jne	LBB35_34
	jmp	LBB35_35
LBB35_34:
	mov	rdi, qword ptr [rbp - 2496] 
	call	___cxa_free_exception
LBB35_35:
	jmp	LBB35_149
LBB35_36:
	mov	rax, qword ptr [rbp - 2408] 
	add	rax, 72
	lea	rdi, [rbp - 1384]
	mov	rsi, rax
	call	__ZN8CryptoPP16RSAPrimeSelectorC1ERKNS_7IntegerE
	mov	esi, dword ptr [rbp - 1108]
Ltmp78:
	lea	rdi, [rbp - 1432]
	call	__ZN8CryptoPP37MakeParametersForTwoPrimesOfEqualSizeEj
Ltmp79:
	jmp	LBB35_37
LBB35_37:
Ltmp80:
	call	__ZN8CryptoPP4Name22PointerToPrimeSelectorEv
Ltmp81:
	mov	qword ptr [rbp - 2512], rax 
	jmp	LBB35_38
LBB35_38:
Ltmp82:
	lea	rdi, [rbp - 1384]
	call	__ZNK8CryptoPP13PrimeSelector18GetSelectorPointerEv
Ltmp83:
	mov	qword ptr [rbp - 2520], rax 
	jmp	LBB35_39
LBB35_39:
	mov	rax, qword ptr [rbp - 2520] 
	mov	qword ptr [rbp - 1440], rax
Ltmp84:
	lea	rdi, [rbp - 1432]
	lea	rdx, [rbp - 1440]
	mov	rsi, qword ptr [rbp - 2512] 
	call	__ZN8CryptoPP19AlgorithmParametersclIPKNS_13PrimeSelectorEEERS0_PKcRKT_
Ltmp85:
	mov	qword ptr [rbp - 2528], rax 
	jmp	LBB35_40
LBB35_40:
Ltmp86:
	lea	rdi, [rbp - 1408]
	mov	rsi, qword ptr [rbp - 2528] 
	call	__ZN8CryptoPP19AlgorithmParametersC1ERKS0_
Ltmp87:
	jmp	LBB35_41
LBB35_41:
Ltmp91:
	lea	rdi, [rbp - 1432]
	call	__ZN8CryptoPP19AlgorithmParametersD1Ev
Ltmp92:
	jmp	LBB35_42
LBB35_42:
	mov	rax, qword ptr [rbp - 2408] 
	add	rax, 272
	mov	rsi, qword ptr [rbp - 1096]
Ltmp93:
	lea	rdx, [rbp - 1408]
	mov	rdi, rax
	call	__ZN8CryptoPP7Integer14GenerateRandomERNS_21RandomNumberGeneratorERKNS_14NameValuePairsE
Ltmp94:
	jmp	LBB35_43
LBB35_43:
	mov	rax, qword ptr [rbp - 2408] 
	add	rax, 320
	mov	rsi, qword ptr [rbp - 1096]
Ltmp95:
	lea	rdx, [rbp - 1408]
	mov	rdi, rax
	call	__ZN8CryptoPP7Integer14GenerateRandomERNS_21RandomNumberGeneratorERKNS_14NameValuePairsE
Ltmp96:
	jmp	LBB35_44
LBB35_44:
	mov	rax, qword ptr [rbp - 2408] 
	add	rax, 72
	mov	rcx, qword ptr [rbp - 2408] 
	add	rcx, 272
Ltmp97:
	lea	rdi, [rbp - 1632]
	mov	esi, 1
	mov	qword ptr [rbp - 2536], rax 
	mov	qword ptr [rbp - 2544], rcx 
	call	__ZN8CryptoPP7IntegerC1El
Ltmp98:
	jmp	LBB35_45
LBB35_45:
Ltmp99:
	lea	rdi, [rbp - 1584]
	lea	rdx, [rbp - 1632]
	mov	rsi, qword ptr [rbp - 2544] 
	call	__ZN8CryptoPPmiERKNS_7IntegerES2_
Ltmp100:
	jmp	LBB35_46
LBB35_46:
	mov	rax, qword ptr [rbp - 2408] 
	add	rax, 320
Ltmp101:
	lea	rdi, [rbp - 1728]
	mov	esi, 1
	mov	qword ptr [rbp - 2552], rax 
	call	__ZN8CryptoPP7IntegerC1El
Ltmp102:
	jmp	LBB35_47
LBB35_47:
Ltmp103:
	lea	rdi, [rbp - 1680]
	lea	rdx, [rbp - 1728]
	mov	rsi, qword ptr [rbp - 2552] 
	call	__ZN8CryptoPPmiERKNS_7IntegerES2_
Ltmp104:
	jmp	LBB35_48
LBB35_48:
Ltmp105:
	lea	rdi, [rbp - 1536]
	lea	rsi, [rbp - 1584]
	lea	rdx, [rbp - 1680]
	call	__ZN8CryptoPP3LCMERKNS_7IntegerES2_
Ltmp106:
	jmp	LBB35_49
LBB35_49:
Ltmp107:
	lea	rdi, [rbp - 1488]
	lea	rdx, [rbp - 1536]
	mov	rsi, qword ptr [rbp - 2536] 
	call	__ZNK8CryptoPP7Integer10InverseModERKS0_
Ltmp108:
	jmp	LBB35_50
LBB35_50:
	mov	rax, qword ptr [rbp - 2408] 
	add	rax, 224
Ltmp109:
	lea	rsi, [rbp - 1488]
	mov	rdi, rax
	call	__ZN8CryptoPP7IntegeraSERKS0_
Ltmp110:
	jmp	LBB35_51
LBB35_51:
Ltmp114:
	lea	rdi, [rbp - 1488]
	call	__ZN8CryptoPP7IntegerD1Ev
Ltmp115:
	jmp	LBB35_52
LBB35_52:
Ltmp119:
	lea	rdi, [rbp - 1536]
	call	__ZN8CryptoPP7IntegerD1Ev
Ltmp120:
	jmp	LBB35_53
LBB35_53:
Ltmp124:
	lea	rdi, [rbp - 1680]
	call	__ZN8CryptoPP7IntegerD1Ev
Ltmp125:
	jmp	LBB35_54
LBB35_54:
Ltmp129:
	lea	rdi, [rbp - 1728]
	call	__ZN8CryptoPP7IntegerD1Ev
Ltmp130:
	jmp	LBB35_55
LBB35_55:
Ltmp134:
	lea	rdi, [rbp - 1584]
	call	__ZN8CryptoPP7IntegerD1Ev
Ltmp135:
	jmp	LBB35_56
LBB35_56:
Ltmp139:
	lea	rdi, [rbp - 1632]
	call	__ZN8CryptoPP7IntegerD1Ev
Ltmp140:
	jmp	LBB35_57
LBB35_57:
	mov	rax, qword ptr [rbp - 2408] 
	add	rax, 224
	mov	rcx, qword ptr [rbp - 2408] 
	add	rcx, 272
Ltmp141:
	lea	rdi, [rbp - 1872]
	mov	esi, 1
	mov	qword ptr [rbp - 2560], rax 
	mov	qword ptr [rbp - 2568], rcx 
	call	__ZN8CryptoPP7IntegerC1El
Ltmp142:
	jmp	LBB35_58
LBB35_58:
Ltmp143:
	lea	rdi, [rbp - 1824]
	lea	rdx, [rbp - 1872]
	mov	rsi, qword ptr [rbp - 2568] 
	call	__ZN8CryptoPPmiERKNS_7IntegerES2_
Ltmp144:
	jmp	LBB35_59
LBB35_59:
Ltmp145:
	lea	rdi, [rbp - 1776]
	lea	rdx, [rbp - 1824]
	mov	rsi, qword ptr [rbp - 2560] 
	call	__ZN8CryptoPPrmERKNS_7IntegerES2_
Ltmp146:
	jmp	LBB35_60
LBB35_60:
	mov	rax, qword ptr [rbp - 2408] 
	add	rax, 368
Ltmp147:
	lea	rsi, [rbp - 1776]
	mov	rdi, rax
	call	__ZN8CryptoPP7IntegeraSERKS0_
Ltmp148:
	jmp	LBB35_61
LBB35_61:
Ltmp152:
	lea	rdi, [rbp - 1776]
	call	__ZN8CryptoPP7IntegerD1Ev
Ltmp153:
	jmp	LBB35_62
LBB35_62:
Ltmp157:
	lea	rdi, [rbp - 1824]
	call	__ZN8CryptoPP7IntegerD1Ev
Ltmp158:
	jmp	LBB35_63
LBB35_63:
Ltmp162:
	lea	rdi, [rbp - 1872]
	call	__ZN8CryptoPP7IntegerD1Ev
Ltmp163:
	jmp	LBB35_64
LBB35_64:
	mov	rax, qword ptr [rbp - 2408] 
	add	rax, 224
	mov	rcx, qword ptr [rbp - 2408] 
	add	rcx, 320
Ltmp164:
	lea	rdi, [rbp - 2016]
	mov	esi, 1
	mov	qword ptr [rbp - 2576], rax 
	mov	qword ptr [rbp - 2584], rcx 
	call	__ZN8CryptoPP7IntegerC1El
Ltmp165:
	jmp	LBB35_65
LBB35_65:
Ltmp166:
	lea	rdi, [rbp - 1968]
	lea	rdx, [rbp - 2016]
	mov	rsi, qword ptr [rbp - 2584] 
	call	__ZN8CryptoPPmiERKNS_7IntegerES2_
Ltmp167:
	jmp	LBB35_66
LBB35_66:
Ltmp168:
	lea	rdi, [rbp - 1920]
	lea	rdx, [rbp - 1968]
	mov	rsi, qword ptr [rbp - 2576] 
	call	__ZN8CryptoPPrmERKNS_7IntegerES2_
Ltmp169:
	jmp	LBB35_67
LBB35_67:
	mov	rax, qword ptr [rbp - 2408] 
	add	rax, 416
Ltmp170:
	lea	rsi, [rbp - 1920]
	mov	rdi, rax
	call	__ZN8CryptoPP7IntegeraSERKS0_
Ltmp171:
	jmp	LBB35_68
LBB35_68:
Ltmp175:
	lea	rdi, [rbp - 1920]
	call	__ZN8CryptoPP7IntegerD1Ev
Ltmp176:
	jmp	LBB35_69
LBB35_69:
Ltmp180:
	lea	rdi, [rbp - 1968]
	call	__ZN8CryptoPP7IntegerD1Ev
Ltmp181:
	jmp	LBB35_70
LBB35_70:
Ltmp185:
	lea	rdi, [rbp - 2016]
	call	__ZN8CryptoPP7IntegerD1Ev
Ltmp186:
	jmp	LBB35_71
LBB35_71:
	mov	rax, qword ptr [rbp - 2408] 
	add	rax, 272
	mov	rcx, qword ptr [rbp - 2408] 
	add	rcx, 320
Ltmp187:
	lea	rdi, [rbp - 2064]
	mov	rsi, rax
	mov	rdx, rcx
	call	__ZN8CryptoPPmlERKNS_7IntegerES2_
Ltmp188:
	jmp	LBB35_72
LBB35_72:
	mov	rax, qword ptr [rbp - 2408] 
	add	rax, 24
Ltmp189:
	lea	rsi, [rbp - 2064]
	mov	rdi, rax
	call	__ZN8CryptoPP7IntegeraSERKS0_
Ltmp190:
	jmp	LBB35_73
LBB35_73:
Ltmp194:
	lea	rdi, [rbp - 2064]
	call	__ZN8CryptoPP7IntegerD1Ev
Ltmp195:
	jmp	LBB35_74
LBB35_74:
	mov	rax, qword ptr [rbp - 2408] 
	add	rax, 320
	mov	rcx, qword ptr [rbp - 2408] 
	add	rcx, 272
Ltmp196:
	lea	rdi, [rbp - 2112]
	mov	rsi, rax
	mov	rdx, rcx
	call	__ZNK8CryptoPP7Integer10InverseModERKS0_
Ltmp197:
	jmp	LBB35_75
LBB35_75:
	mov	rax, qword ptr [rbp - 2408] 
	add	rax, 464
Ltmp198:
	lea	rsi, [rbp - 2112]
	mov	rdi, rax
	call	__ZN8CryptoPP7IntegeraSERKS0_
Ltmp199:
	jmp	LBB35_76
LBB35_76:
Ltmp203:
	lea	rdi, [rbp - 2112]
	call	__ZN8CryptoPP7IntegerD1Ev
Ltmp204:
	jmp	LBB35_77
LBB35_77:
Ltmp205:
	call	__ZN8CryptoPP28FIPS_140_2_ComplianceEnabledEv
Ltmp206:
	mov	byte ptr [rbp - 2585], al 
	jmp	LBB35_78
LBB35_78:
	mov	al, byte ptr [rbp - 2585] 
	test	al, 1
	jne	LBB35_79
	jmp	LBB35_142
LBB35_79:
	mov	rax, qword ptr [rbp - 2408] 
	mov	rcx, qword ptr [rax]
	mov	rcx, qword ptr [rcx - 24]
	add	rax, rcx
Ltmp207:
	lea	rdi, [rbp - 544]
	mov	rsi, rax
	call	__ZN8CryptoPP16PK_FinalTemplateINS_13TF_SignerImplINS_25TF_SignatureSchemeOptionsINS_5TF_SSINS_3RSAENS_8PKCS1v15ENS_4SHA1EiEES4_NS_39PKCS1v15_SignatureMessageEncodingMethodES6_EEEEEC1ERKNS_14CryptoMaterialE
Ltmp208:
	jmp	LBB35_80
LBB35_80:
	lea	rsi, [rbp - 536]
Ltmp209:
	lea	rdi, [rbp - 2256]
	call	__ZN8CryptoPP16PK_FinalTemplateINS_15TF_VerifierImplINS_25TF_SignatureSchemeOptionsINS_5TF_SSINS_3RSAENS_8PKCS1v15ENS_4SHA1EiEES4_NS_39PKCS1v15_SignatureMessageEncodingMethodES6_EEEEEC1ERKNS_19AsymmetricAlgorithmE
Ltmp210:
	jmp	LBB35_81
LBB35_81:
Ltmp211:
	lea	rdi, [rbp - 544]
	lea	rsi, [rbp - 2256]
	call	__ZN8CryptoPP46SignaturePairwiseConsistencyTest_FIPS_140_OnlyERKNS_9PK_SignerERKNS_11PK_VerifierE
Ltmp212:
	jmp	LBB35_82
LBB35_82:
	mov	rax, qword ptr [rbp - 2408] 
	mov	rcx, qword ptr [rax]
	mov	rcx, qword ptr [rcx - 24]
	add	rax, rcx
Ltmp213:
	lea	rdi, [rbp - 1080]
	mov	rsi, rax
	call	__ZN8CryptoPP16PK_FinalTemplateINS_16TF_DecryptorImplINS_22TF_CryptoSchemeOptionsINS_5TF_ESINS_3RSAENS_4OAEPINS_4SHA1ENS_10P1363_MGF1EEEiEES4_S8_EEEEEC1ERKNS_14CryptoMaterialE
Ltmp214:
	jmp	LBB35_83
LBB35_83:
	lea	rsi, [rbp - 1072]
Ltmp215:
	lea	rdi, [rbp - 2400]
	call	__ZN8CryptoPP16PK_FinalTemplateINS_16TF_EncryptorImplINS_22TF_CryptoSchemeOptionsINS_5TF_ESINS_3RSAENS_4OAEPINS_4SHA1ENS_10P1363_MGF1EEEiEES4_S8_EEEEEC1ERKNS_19AsymmetricAlgorithmE
Ltmp216:
	jmp	LBB35_84
LBB35_84:
Ltmp217:
	lea	rdi, [rbp - 2400]
	lea	rsi, [rbp - 1080]
	call	__ZN8CryptoPP47EncryptionPairwiseConsistencyTest_FIPS_140_OnlyERKNS_12PK_EncryptorERKNS_12PK_DecryptorE
Ltmp218:
	jmp	LBB35_85
LBB35_85:
Ltmp222:
	lea	rdi, [rbp - 2400]
	call	__ZN8CryptoPP16PK_FinalTemplateINS_16TF_EncryptorImplINS_22TF_CryptoSchemeOptionsINS_5TF_ESINS_3RSAENS_4OAEPINS_4SHA1ENS_10P1363_MGF1EEEiEES4_S8_EEEEED1Ev
Ltmp223:
	jmp	LBB35_86
LBB35_86:
Ltmp227:
	lea	rdi, [rbp - 1080]
	call	__ZN8CryptoPP16PK_FinalTemplateINS_16TF_DecryptorImplINS_22TF_CryptoSchemeOptionsINS_5TF_ESINS_3RSAENS_4OAEPINS_4SHA1ENS_10P1363_MGF1EEEiEES4_S8_EEEEED1Ev
Ltmp228:
	jmp	LBB35_87
LBB35_87:
Ltmp232:
	lea	rdi, [rbp - 2256]
	call	__ZN8CryptoPP16PK_FinalTemplateINS_15TF_VerifierImplINS_25TF_SignatureSchemeOptionsINS_5TF_SSINS_3RSAENS_8PKCS1v15ENS_4SHA1EiEES4_NS_39PKCS1v15_SignatureMessageEncodingMethodES6_EEEEED1Ev
Ltmp233:
	jmp	LBB35_88
LBB35_88:
Ltmp237:
	lea	rdi, [rbp - 544]
	call	__ZN8CryptoPP16PK_FinalTemplateINS_13TF_SignerImplINS_25TF_SignatureSchemeOptionsINS_5TF_SSINS_3RSAENS_8PKCS1v15ENS_4SHA1EiEES4_NS_39PKCS1v15_SignatureMessageEncodingMethodES6_EEEEED1Ev
Ltmp238:
	jmp	LBB35_89
LBB35_89:
	jmp	LBB35_142
LBB35_90:
Ltmp244:
                                        
	mov	qword ptr [rbp - 1144], rax
	mov	dword ptr [rbp - 1148], edx
	jmp	LBB35_147
LBB35_91:
Ltmp88:
                                        
	mov	qword ptr [rbp - 1144], rax
	mov	dword ptr [rbp - 1148], edx
Ltmp89:
	lea	rdi, [rbp - 1432]
	call	__ZN8CryptoPP19AlgorithmParametersD1Ev
Ltmp90:
	jmp	LBB35_92
LBB35_92:
	jmp	LBB35_147
LBB35_93:
Ltmp239:
                                        
	mov	qword ptr [rbp - 1144], rax
	mov	dword ptr [rbp - 1148], edx
	jmp	LBB35_145
LBB35_94:
Ltmp136:
                                        
	mov	qword ptr [rbp - 1144], rax
	mov	dword ptr [rbp - 1148], edx
	jmp	LBB35_109
LBB35_95:
Ltmp131:
                                        
	mov	qword ptr [rbp - 1144], rax
	mov	dword ptr [rbp - 1148], edx
	jmp	LBB35_107
LBB35_96:
Ltmp126:
                                        
	mov	qword ptr [rbp - 1144], rax
	mov	dword ptr [rbp - 1148], edx
	jmp	LBB35_105
LBB35_97:
Ltmp121:
                                        
	mov	qword ptr [rbp - 1144], rax
	mov	dword ptr [rbp - 1148], edx
	jmp	LBB35_103
LBB35_98:
Ltmp116:
                                        
	mov	qword ptr [rbp - 1144], rax
	mov	dword ptr [rbp - 1148], edx
	jmp	LBB35_101
LBB35_99:
Ltmp111:
                                        
	mov	qword ptr [rbp - 1144], rax
	mov	dword ptr [rbp - 1148], edx
Ltmp112:
	lea	rdi, [rbp - 1488]
	call	__ZN8CryptoPP7IntegerD1Ev
Ltmp113:
	jmp	LBB35_100
LBB35_100:
	jmp	LBB35_101
LBB35_101:
Ltmp117:
	lea	rdi, [rbp - 1536]
	call	__ZN8CryptoPP7IntegerD1Ev
Ltmp118:
	jmp	LBB35_102
LBB35_102:
	jmp	LBB35_103
LBB35_103:
Ltmp122:
	lea	rdi, [rbp - 1680]
	call	__ZN8CryptoPP7IntegerD1Ev
Ltmp123:
	jmp	LBB35_104
LBB35_104:
	jmp	LBB35_105
LBB35_105:
Ltmp127:
	lea	rdi, [rbp - 1728]
	call	__ZN8CryptoPP7IntegerD1Ev
Ltmp128:
	jmp	LBB35_106
LBB35_106:
	jmp	LBB35_107
LBB35_107:
Ltmp132:
	lea	rdi, [rbp - 1584]
	call	__ZN8CryptoPP7IntegerD1Ev
Ltmp133:
	jmp	LBB35_108
LBB35_108:
	jmp	LBB35_109
LBB35_109:
Ltmp137:
	lea	rdi, [rbp - 1632]
	call	__ZN8CryptoPP7IntegerD1Ev
Ltmp138:
	jmp	LBB35_110
LBB35_110:
	jmp	LBB35_145
LBB35_111:
Ltmp159:
                                        
	mov	qword ptr [rbp - 1144], rax
	mov	dword ptr [rbp - 1148], edx
	jmp	LBB35_117
LBB35_112:
Ltmp154:
                                        
	mov	qword ptr [rbp - 1144], rax
	mov	dword ptr [rbp - 1148], edx
	jmp	LBB35_115
LBB35_113:
Ltmp149:
                                        
	mov	qword ptr [rbp - 1144], rax
	mov	dword ptr [rbp - 1148], edx
Ltmp150:
	lea	rdi, [rbp - 1776]
	call	__ZN8CryptoPP7IntegerD1Ev
Ltmp151:
	jmp	LBB35_114
LBB35_114:
	jmp	LBB35_115
LBB35_115:
Ltmp155:
	lea	rdi, [rbp - 1824]
	call	__ZN8CryptoPP7IntegerD1Ev
Ltmp156:
	jmp	LBB35_116
LBB35_116:
	jmp	LBB35_117
LBB35_117:
Ltmp160:
	lea	rdi, [rbp - 1872]
	call	__ZN8CryptoPP7IntegerD1Ev
Ltmp161:
	jmp	LBB35_118
LBB35_118:
	jmp	LBB35_145
LBB35_119:
Ltmp182:
                                        
	mov	qword ptr [rbp - 1144], rax
	mov	dword ptr [rbp - 1148], edx
	jmp	LBB35_125
LBB35_120:
Ltmp177:
                                        
	mov	qword ptr [rbp - 1144], rax
	mov	dword ptr [rbp - 1148], edx
	jmp	LBB35_123
LBB35_121:
Ltmp172:
                                        
	mov	qword ptr [rbp - 1144], rax
	mov	dword ptr [rbp - 1148], edx
Ltmp173:
	lea	rdi, [rbp - 1920]
	call	__ZN8CryptoPP7IntegerD1Ev
Ltmp174:
	jmp	LBB35_122
LBB35_122:
	jmp	LBB35_123
LBB35_123:
Ltmp178:
	lea	rdi, [rbp - 1968]
	call	__ZN8CryptoPP7IntegerD1Ev
Ltmp179:
	jmp	LBB35_124
LBB35_124:
	jmp	LBB35_125
LBB35_125:
Ltmp183:
	lea	rdi, [rbp - 2016]
	call	__ZN8CryptoPP7IntegerD1Ev
Ltmp184:
	jmp	LBB35_126
LBB35_126:
	jmp	LBB35_145
LBB35_127:
Ltmp191:
                                        
	mov	qword ptr [rbp - 1144], rax
	mov	dword ptr [rbp - 1148], edx
Ltmp192:
	lea	rdi, [rbp - 2064]
	call	__ZN8CryptoPP7IntegerD1Ev
Ltmp193:
	jmp	LBB35_128
LBB35_128:
	jmp	LBB35_145
LBB35_129:
Ltmp200:
                                        
	mov	qword ptr [rbp - 1144], rax
	mov	dword ptr [rbp - 1148], edx
Ltmp201:
	lea	rdi, [rbp - 2112]
	call	__ZN8CryptoPP7IntegerD1Ev
Ltmp202:
	jmp	LBB35_130
LBB35_130:
	jmp	LBB35_145
LBB35_131:
Ltmp234:
                                        
	mov	qword ptr [rbp - 1144], rax
	mov	dword ptr [rbp - 1148], edx
	jmp	LBB35_140
LBB35_132:
Ltmp229:
                                        
	mov	qword ptr [rbp - 1144], rax
	mov	dword ptr [rbp - 1148], edx
	jmp	LBB35_138
LBB35_133:
Ltmp224:
                                        
	mov	qword ptr [rbp - 1144], rax
	mov	dword ptr [rbp - 1148], edx
	jmp	LBB35_136
LBB35_134:
Ltmp219:
                                        
	mov	qword ptr [rbp - 1144], rax
	mov	dword ptr [rbp - 1148], edx
Ltmp220:
	lea	rdi, [rbp - 2400]
	call	__ZN8CryptoPP16PK_FinalTemplateINS_16TF_EncryptorImplINS_22TF_CryptoSchemeOptionsINS_5TF_ESINS_3RSAENS_4OAEPINS_4SHA1ENS_10P1363_MGF1EEEiEES4_S8_EEEEED1Ev
Ltmp221:
	jmp	LBB35_135
LBB35_135:
	jmp	LBB35_136
LBB35_136:
Ltmp225:
	lea	rdi, [rbp - 1080]
	call	__ZN8CryptoPP16PK_FinalTemplateINS_16TF_DecryptorImplINS_22TF_CryptoSchemeOptionsINS_5TF_ESINS_3RSAENS_4OAEPINS_4SHA1ENS_10P1363_MGF1EEEiEES4_S8_EEEEED1Ev
Ltmp226:
	jmp	LBB35_137
LBB35_137:
	jmp	LBB35_138
LBB35_138:
Ltmp230:
	lea	rdi, [rbp - 2256]
	call	__ZN8CryptoPP16PK_FinalTemplateINS_15TF_VerifierImplINS_25TF_SignatureSchemeOptionsINS_5TF_SSINS_3RSAENS_8PKCS1v15ENS_4SHA1EiEES4_NS_39PKCS1v15_SignatureMessageEncodingMethodES6_EEEEED1Ev
Ltmp231:
	jmp	LBB35_139
LBB35_139:
	jmp	LBB35_140
LBB35_140:
Ltmp235:
	lea	rdi, [rbp - 544]
	call	__ZN8CryptoPP16PK_FinalTemplateINS_13TF_SignerImplINS_25TF_SignatureSchemeOptionsINS_5TF_SSINS_3RSAENS_8PKCS1v15ENS_4SHA1EiEES4_NS_39PKCS1v15_SignatureMessageEncodingMethodES6_EEEEED1Ev
Ltmp236:
	jmp	LBB35_141
LBB35_141:
	jmp	LBB35_145
LBB35_142:
Ltmp242:
	lea	rdi, [rbp - 1408]
	call	__ZN8CryptoPP19AlgorithmParametersD1Ev
Ltmp243:
	jmp	LBB35_143
LBB35_143:
	lea	rdi, [rbp - 1384]
	call	__ZN8CryptoPP16RSAPrimeSelectorD1Ev
	mov	rax, qword ptr [rip + ___stack_chk_guard@GOTPCREL]
	mov	rax, qword ptr [rax]
	mov	rcx, qword ptr [rbp - 8]
	cmp	rax, rcx
	jne	LBB35_152

	add	rsp, 2608
	pop	rbp
	ret
LBB35_145:
Ltmp240:
	lea	rdi, [rbp - 1408]
	call	__ZN8CryptoPP19AlgorithmParametersD1Ev
Ltmp241:
	jmp	LBB35_146
LBB35_146:
	jmp	LBB35_147
LBB35_147:
Ltmp245:
	lea	rdi, [rbp - 1384]
	call	__ZN8CryptoPP16RSAPrimeSelectorD1Ev
Ltmp246:
	jmp	LBB35_148
LBB35_148:
	jmp	LBB35_149
LBB35_149:
	mov	rdi, qword ptr [rbp - 1144]
	call	__Unwind_Resume
	ud2
LBB35_150:
Ltmp267:
	mov	rdi, rax
	mov	qword ptr [rbp - 2600], rdx 
	call	___clang_call_terminate
LBB35_151:
	ud2
LBB35_152:
	call	___stack_chk_fail
	ud2
Lfunc_end4:
	.cfi_endproc
	.section	__TEXT,__gcc_except_tab
	.p2align	2
GCC_except_table35:
Lexception4:
	.byte	255                     
	.byte	155                     
	.uleb128 Lttbase4-Lttbaseref4
Lttbaseref4:
	.byte	1                       
	.uleb128 Lcst_end4-Lcst_begin4
Lcst_begin4:
	.uleb128 Lfunc_begin4-Lfunc_begin4 
	.uleb128 Ltmp257-Lfunc_begin4   
	.byte	0                       
	.byte	0                       
	.uleb128 Ltmp257-Lfunc_begin4   
	.uleb128 Ltmp258-Ltmp257        
	.uleb128 Ltmp259-Lfunc_begin4   
	.byte	0                       
	.uleb128 Ltmp260-Lfunc_begin4   
	.uleb128 Ltmp263-Ltmp260        
	.uleb128 Ltmp264-Lfunc_begin4   
	.byte	0                       
	.uleb128 Ltmp265-Lfunc_begin4   
	.uleb128 Ltmp266-Ltmp265        
	.uleb128 Ltmp267-Lfunc_begin4   
	.byte	1                       
	.uleb128 Ltmp266-Lfunc_begin4   
	.uleb128 Ltmp59-Ltmp266         
	.byte	0                       
	.byte	0                       
	.uleb128 Ltmp59-Lfunc_begin4    
	.uleb128 Ltmp60-Ltmp59          
	.uleb128 Ltmp68-Lfunc_begin4    
	.byte	0                       
	.uleb128 Ltmp61-Lfunc_begin4    
	.uleb128 Ltmp62-Ltmp61          
	.uleb128 Ltmp63-Lfunc_begin4    
	.byte	0                       
	.uleb128 Ltmp66-Lfunc_begin4    
	.uleb128 Ltmp67-Ltmp66          
	.uleb128 Ltmp68-Lfunc_begin4    
	.byte	0                       
	.uleb128 Ltmp67-Lfunc_begin4    
	.uleb128 Ltmp71-Ltmp67          
	.byte	0                       
	.byte	0                       
	.uleb128 Ltmp71-Lfunc_begin4    
	.uleb128 Ltmp74-Ltmp71          
	.uleb128 Ltmp75-Lfunc_begin4    
	.byte	0                       
	.uleb128 Ltmp74-Lfunc_begin4    
	.uleb128 Ltmp247-Ltmp74         
	.byte	0                       
	.byte	0                       
	.uleb128 Ltmp247-Lfunc_begin4   
	.uleb128 Ltmp248-Ltmp247        
	.uleb128 Ltmp249-Lfunc_begin4   
	.byte	0                       
	.uleb128 Ltmp250-Lfunc_begin4   
	.uleb128 Ltmp253-Ltmp250        
	.uleb128 Ltmp254-Lfunc_begin4   
	.byte	0                       
	.uleb128 Ltmp64-Lfunc_begin4    
	.uleb128 Ltmp256-Ltmp64         
	.uleb128 Ltmp267-Lfunc_begin4   
	.byte	1                       
	.uleb128 Ltmp256-Lfunc_begin4   
	.uleb128 Ltmp78-Ltmp256         
	.byte	0                       
	.byte	0                       
	.uleb128 Ltmp78-Lfunc_begin4    
	.uleb128 Ltmp79-Ltmp78          
	.uleb128 Ltmp244-Lfunc_begin4   
	.byte	0                       
	.uleb128 Ltmp80-Lfunc_begin4    
	.uleb128 Ltmp87-Ltmp80          
	.uleb128 Ltmp88-Lfunc_begin4    
	.byte	0                       
	.uleb128 Ltmp91-Lfunc_begin4    
	.uleb128 Ltmp92-Ltmp91          
	.uleb128 Ltmp244-Lfunc_begin4   
	.byte	0                       
	.uleb128 Ltmp93-Lfunc_begin4    
	.uleb128 Ltmp98-Ltmp93          
	.uleb128 Ltmp239-Lfunc_begin4   
	.byte	0                       
	.uleb128 Ltmp99-Lfunc_begin4    
	.uleb128 Ltmp100-Ltmp99         
	.uleb128 Ltmp136-Lfunc_begin4   
	.byte	0                       
	.uleb128 Ltmp101-Lfunc_begin4   
	.uleb128 Ltmp102-Ltmp101        
	.uleb128 Ltmp131-Lfunc_begin4   
	.byte	0                       
	.uleb128 Ltmp103-Lfunc_begin4   
	.uleb128 Ltmp104-Ltmp103        
	.uleb128 Ltmp126-Lfunc_begin4   
	.byte	0                       
	.uleb128 Ltmp105-Lfunc_begin4   
	.uleb128 Ltmp106-Ltmp105        
	.uleb128 Ltmp121-Lfunc_begin4   
	.byte	0                       
	.uleb128 Ltmp107-Lfunc_begin4   
	.uleb128 Ltmp108-Ltmp107        
	.uleb128 Ltmp116-Lfunc_begin4   
	.byte	0                       
	.uleb128 Ltmp109-Lfunc_begin4   
	.uleb128 Ltmp110-Ltmp109        
	.uleb128 Ltmp111-Lfunc_begin4   
	.byte	0                       
	.uleb128 Ltmp114-Lfunc_begin4   
	.uleb128 Ltmp115-Ltmp114        
	.uleb128 Ltmp116-Lfunc_begin4   
	.byte	0                       
	.uleb128 Ltmp119-Lfunc_begin4   
	.uleb128 Ltmp120-Ltmp119        
	.uleb128 Ltmp121-Lfunc_begin4   
	.byte	0                       
	.uleb128 Ltmp124-Lfunc_begin4   
	.uleb128 Ltmp125-Ltmp124        
	.uleb128 Ltmp126-Lfunc_begin4   
	.byte	0                       
	.uleb128 Ltmp129-Lfunc_begin4   
	.uleb128 Ltmp130-Ltmp129        
	.uleb128 Ltmp131-Lfunc_begin4   
	.byte	0                       
	.uleb128 Ltmp134-Lfunc_begin4   
	.uleb128 Ltmp135-Ltmp134        
	.uleb128 Ltmp136-Lfunc_begin4   
	.byte	0                       
	.uleb128 Ltmp139-Lfunc_begin4   
	.uleb128 Ltmp142-Ltmp139        
	.uleb128 Ltmp239-Lfunc_begin4   
	.byte	0                       
	.uleb128 Ltmp143-Lfunc_begin4   
	.uleb128 Ltmp144-Ltmp143        
	.uleb128 Ltmp159-Lfunc_begin4   
	.byte	0                       
	.uleb128 Ltmp145-Lfunc_begin4   
	.uleb128 Ltmp146-Ltmp145        
	.uleb128 Ltmp154-Lfunc_begin4   
	.byte	0                       
	.uleb128 Ltmp147-Lfunc_begin4   
	.uleb128 Ltmp148-Ltmp147        
	.uleb128 Ltmp149-Lfunc_begin4   
	.byte	0                       
	.uleb128 Ltmp152-Lfunc_begin4   
	.uleb128 Ltmp153-Ltmp152        
	.uleb128 Ltmp154-Lfunc_begin4   
	.byte	0                       
	.uleb128 Ltmp157-Lfunc_begin4   
	.uleb128 Ltmp158-Ltmp157        
	.uleb128 Ltmp159-Lfunc_begin4   
	.byte	0                       
	.uleb128 Ltmp162-Lfunc_begin4   
	.uleb128 Ltmp165-Ltmp162        
	.uleb128 Ltmp239-Lfunc_begin4   
	.byte	0                       
	.uleb128 Ltmp166-Lfunc_begin4   
	.uleb128 Ltmp167-Ltmp166        
	.uleb128 Ltmp182-Lfunc_begin4   
	.byte	0                       
	.uleb128 Ltmp168-Lfunc_begin4   
	.uleb128 Ltmp169-Ltmp168        
	.uleb128 Ltmp177-Lfunc_begin4   
	.byte	0                       
	.uleb128 Ltmp170-Lfunc_begin4   
	.uleb128 Ltmp171-Ltmp170        
	.uleb128 Ltmp172-Lfunc_begin4   
	.byte	0                       
	.uleb128 Ltmp175-Lfunc_begin4   
	.uleb128 Ltmp176-Ltmp175        
	.uleb128 Ltmp177-Lfunc_begin4   
	.byte	0                       
	.uleb128 Ltmp180-Lfunc_begin4   
	.uleb128 Ltmp181-Ltmp180        
	.uleb128 Ltmp182-Lfunc_begin4   
	.byte	0                       
	.uleb128 Ltmp185-Lfunc_begin4   
	.uleb128 Ltmp188-Ltmp185        
	.uleb128 Ltmp239-Lfunc_begin4   
	.byte	0                       
	.uleb128 Ltmp189-Lfunc_begin4   
	.uleb128 Ltmp190-Ltmp189        
	.uleb128 Ltmp191-Lfunc_begin4   
	.byte	0                       
	.uleb128 Ltmp194-Lfunc_begin4   
	.uleb128 Ltmp197-Ltmp194        
	.uleb128 Ltmp239-Lfunc_begin4   
	.byte	0                       
	.uleb128 Ltmp198-Lfunc_begin4   
	.uleb128 Ltmp199-Ltmp198        
	.uleb128 Ltmp200-Lfunc_begin4   
	.byte	0                       
	.uleb128 Ltmp203-Lfunc_begin4   
	.uleb128 Ltmp208-Ltmp203        
	.uleb128 Ltmp239-Lfunc_begin4   
	.byte	0                       
	.uleb128 Ltmp209-Lfunc_begin4   
	.uleb128 Ltmp210-Ltmp209        
	.uleb128 Ltmp234-Lfunc_begin4   
	.byte	0                       
	.uleb128 Ltmp211-Lfunc_begin4   
	.uleb128 Ltmp214-Ltmp211        
	.uleb128 Ltmp229-Lfunc_begin4   
	.byte	0                       
	.uleb128 Ltmp215-Lfunc_begin4   
	.uleb128 Ltmp216-Ltmp215        
	.uleb128 Ltmp224-Lfunc_begin4   
	.byte	0                       
	.uleb128 Ltmp217-Lfunc_begin4   
	.uleb128 Ltmp218-Ltmp217        
	.uleb128 Ltmp219-Lfunc_begin4   
	.byte	0                       
	.uleb128 Ltmp222-Lfunc_begin4   
	.uleb128 Ltmp223-Ltmp222        
	.uleb128 Ltmp224-Lfunc_begin4   
	.byte	0                       
	.uleb128 Ltmp227-Lfunc_begin4   
	.uleb128 Ltmp228-Ltmp227        
	.uleb128 Ltmp229-Lfunc_begin4   
	.byte	0                       
	.uleb128 Ltmp232-Lfunc_begin4   
	.uleb128 Ltmp233-Ltmp232        
	.uleb128 Ltmp234-Lfunc_begin4   
	.byte	0                       
	.uleb128 Ltmp237-Lfunc_begin4   
	.uleb128 Ltmp238-Ltmp237        
	.uleb128 Ltmp239-Lfunc_begin4   
	.byte	0                       
	.uleb128 Ltmp89-Lfunc_begin4    
	.uleb128 Ltmp236-Ltmp89         
	.uleb128 Ltmp267-Lfunc_begin4   
	.byte	1                       
	.uleb128 Ltmp242-Lfunc_begin4   
	.uleb128 Ltmp243-Ltmp242        
	.uleb128 Ltmp244-Lfunc_begin4   
	.byte	0                       
	.uleb128 Ltmp243-Lfunc_begin4   
	.uleb128 Ltmp240-Ltmp243        
	.byte	0                       
	.byte	0                       
	.uleb128 Ltmp240-Lfunc_begin4   
	.uleb128 Ltmp246-Ltmp240        
	.uleb128 Ltmp267-Lfunc_begin4   
	.byte	1                       
	.uleb128 Ltmp246-Lfunc_begin4   
	.uleb128 Lfunc_end4-Ltmp246     
	.byte	0                       
	.byte	0                       
Lcst_end4:
	.byte	1                       
                                        
	.byte	0                       
	.p2align	2
                                        
	.long	0                       
Lttbase4:
	.p2align	2
                                        
	.section	__TEXT,__text,regular,pure_instructions
	.globl	__ZNK8CryptoPP14NameValuePairs11GetIntValueEPKcRi 
	.weak_definition	__ZNK8CryptoPP14NameValuePairs11GetIntValueEPKcRi
	.p2align	4, 0x90
__ZNK8CryptoPP14NameValuePairs11GetIntValueEPKcRi: 
	.cfi_startproc

	push	rbp
	.cfi_def_cfa_offset 16
	.cfi_offset rbp, -16
	mov	rbp, rsp
	.cfi_def_cfa_register rbp
	sub	rsp, 32
	mov	qword ptr [rbp - 8], rdi
	mov	qword ptr [rbp - 16], rsi
	mov	qword ptr [rbp - 24], rdx
	mov	rdi, qword ptr [rbp - 8]
	mov	rsi, qword ptr [rbp - 16]
	mov	rdx, qword ptr [rbp - 24]
	call	__ZNK8CryptoPP14NameValuePairs8GetValueIiEEbPKcRT_
	and	al, 1
	movzx	eax, al
	add	rsp, 32
	pop	rbp
	ret
	.cfi_endproc
                                        
	.globl	__ZN8CryptoPP4Name11ModulusSizeEv 
	.weak_definition	__ZN8CryptoPP4Name11ModulusSizeEv
	.p2align	4, 0x90
__ZN8CryptoPP4Name11ModulusSizeEv:      

	push	rbp
	mov	rbp, rsp
	lea	rax, [rip + L_.str.12]
	pop	rbp
	ret
                                        
	.globl	__ZN8CryptoPP4Name7KeySizeEv 
	.weak_definition	__ZN8CryptoPP4Name7KeySizeEv
	.p2align	4, 0x90
__ZN8CryptoPP4Name7KeySizeEv:           

	push	rbp
	mov	rbp, rsp
	lea	rax, [rip + L_.str.13]
	pop	rbp
	ret
                                        
	.p2align	4, 0x90         
__ZNSt3__112basic_stringIcNS_11char_traitsIcEENS_9allocatorIcEEEC1INS_9nullptr_tEEEPKc: 
	.cfi_startproc

	push	rbp
	.cfi_def_cfa_offset 16
	.cfi_offset rbp, -16
	mov	rbp, rsp
	.cfi_def_cfa_register rbp
	sub	rsp, 16
	mov	qword ptr [rbp - 8], rdi
	mov	qword ptr [rbp - 16], rsi
	mov	rdi, qword ptr [rbp - 8]
	mov	rsi, qword ptr [rbp - 16]
	call	__ZNSt3__112basic_stringIcNS_11char_traitsIcEENS_9allocatorIcEEEC2INS_9nullptr_tEEEPKc
	add	rsp, 16
	pop	rbp
	ret
	.cfi_endproc
                                        
	.globl	__ZN8CryptoPP15InvalidArgumentC1ERKNSt3__112basic_stringIcNS1_11char_traitsIcEENS1_9allocatorIcEEEE 
	.weak_def_can_be_hidden	__ZN8CryptoPP15InvalidArgumentC1ERKNSt3__112basic_stringIcNS1_11char_traitsIcEENS1_9allocatorIcEEEE
	.p2align	4, 0x90
__ZN8CryptoPP15InvalidArgumentC1ERKNSt3__112basic_stringIcNS1_11char_traitsIcEENS1_9allocatorIcEEEE: 
	.cfi_startproc

	push	rbp
	.cfi_def_cfa_offset 16
	.cfi_offset rbp, -16
	mov	rbp, rsp
	.cfi_def_cfa_register rbp
	sub	rsp, 16
	mov	qword ptr [rbp - 8], rdi
	mov	qword ptr [rbp - 16], rsi
	mov	rdi, qword ptr [rbp - 8]
	mov	rsi, qword ptr [rbp - 16]
	call	__ZN8CryptoPP15InvalidArgumentC2ERKNSt3__112basic_stringIcNS1_11char_traitsIcEENS1_9allocatorIcEEEE
	add	rsp, 16
	pop	rbp
	ret
	.cfi_endproc
                                        
	.globl	__ZN8CryptoPP15InvalidArgumentD1Ev 
	.weak_def_can_be_hidden	__ZN8CryptoPP15InvalidArgumentD1Ev
	.p2align	4, 0x90
__ZN8CryptoPP15InvalidArgumentD1Ev:     

	push	rbp
	mov	rbp, rsp
	sub	rsp, 16
	mov	qword ptr [rbp - 8], rdi
	mov	rdi, qword ptr [rbp - 8]
	call	__ZN8CryptoPP15InvalidArgumentD2Ev
	add	rsp, 16
	pop	rbp
	ret
                                        
	.globl	__ZNK8CryptoPP14NameValuePairs19GetValueWithDefaultINS_7IntegerEEET_PKcS3_ 
	.weak_definition	__ZNK8CryptoPP14NameValuePairs19GetValueWithDefaultINS_7IntegerEEET_PKcS3_
	.p2align	4, 0x90
__ZNK8CryptoPP14NameValuePairs19GetValueWithDefaultINS_7IntegerEEET_PKcS3_: 
Lfunc_begin5:
	.cfi_startproc
	.cfi_personality 155, ___gxx_personality_v0
	.cfi_lsda 16, Lexception5

	push	rbp
	.cfi_def_cfa_offset 16
	.cfi_offset rbp, -16
	mov	rbp, rsp
	.cfi_def_cfa_register rbp
	sub	rsp, 160
	mov	rax, rdi
	mov	qword ptr [rbp - 8], rdi
	mov	qword ptr [rbp - 16], rsi
	mov	qword ptr [rbp - 24], rdx
	mov	rdx, qword ptr [rbp - 16]
	lea	rsi, [rbp - 72]
	mov	qword ptr [rbp - 104], rdi 
	mov	rdi, rsi
	mov	qword ptr [rbp - 112], rcx 
	mov	qword ptr [rbp - 120], rax 
	mov	qword ptr [rbp - 128], rdx 
	mov	qword ptr [rbp - 136], rsi 
	call	__ZN8CryptoPP7IntegerC1Ev
	mov	rsi, qword ptr [rbp - 24]
Ltmp268:
	mov	rdi, qword ptr [rbp - 128] 
	mov	rdx, qword ptr [rbp - 136] 
	call	__ZNK8CryptoPP14NameValuePairs8GetValueINS_7IntegerEEEbPKcRT_
Ltmp269:
	mov	byte ptr [rbp - 137], al 
	jmp	LBB42_1
LBB42_1:
	mov	al, byte ptr [rbp - 137] 
	and	al, 1
	mov	byte ptr [rbp - 73], al
	test	byte ptr [rbp - 73], 1
	je	LBB42_5

Ltmp272:
	lea	rsi, [rbp - 72]
	mov	rdi, qword ptr [rbp - 104] 
	call	__ZN8CryptoPP7IntegerC1ERKS0_
Ltmp273:
	jmp	LBB42_3
LBB42_3:
	mov	dword ptr [rbp - 96], 1
	jmp	LBB42_7
LBB42_4:
Ltmp274:
                                        
	mov	qword ptr [rbp - 88], rax
	mov	dword ptr [rbp - 92], edx
Ltmp275:
	lea	rdi, [rbp - 72]
	call	__ZN8CryptoPP7IntegerD1Ev
Ltmp276:
	jmp	LBB42_8
LBB42_5:
Ltmp270:
	mov	rdi, qword ptr [rbp - 104] 
	mov	rsi, qword ptr [rbp - 112] 
	call	__ZN8CryptoPP7IntegerC1ERKS0_
Ltmp271:
	jmp	LBB42_6
LBB42_6:
	mov	dword ptr [rbp - 96], 1
LBB42_7:
	lea	rdi, [rbp - 72]
	call	__ZN8CryptoPP7IntegerD1Ev
	mov	rax, qword ptr [rbp - 120] 
	add	rsp, 160
	pop	rbp
	ret
LBB42_8:
	jmp	LBB42_9
LBB42_9:
	mov	rdi, qword ptr [rbp - 88]
	call	__Unwind_Resume
	ud2
LBB42_10:
Ltmp277:
	mov	rdi, rax
	mov	qword ptr [rbp - 152], rdx 
	call	___clang_call_terminate
Lfunc_end5:
	.cfi_endproc
	.section	__TEXT,__gcc_except_tab
	.p2align	2
GCC_except_table42:
Lexception5:
	.byte	255                     
	.byte	155                     
	.uleb128 Lttbase5-Lttbaseref5
Lttbaseref5:
	.byte	1                       
	.uleb128 Lcst_end5-Lcst_begin5
Lcst_begin5:
	.uleb128 Lfunc_begin5-Lfunc_begin5 
	.uleb128 Ltmp268-Lfunc_begin5   
	.byte	0                       
	.byte	0                       
	.uleb128 Ltmp268-Lfunc_begin5   
	.uleb128 Ltmp273-Ltmp268        
	.uleb128 Ltmp274-Lfunc_begin5   
	.byte	0                       
	.uleb128 Ltmp275-Lfunc_begin5   
	.uleb128 Ltmp276-Ltmp275        
	.uleb128 Ltmp277-Lfunc_begin5   
	.byte	1                       
	.uleb128 Ltmp270-Lfunc_begin5   
	.uleb128 Ltmp271-Ltmp270        
	.uleb128 Ltmp274-Lfunc_begin5   
	.byte	0                       
	.uleb128 Ltmp271-Lfunc_begin5   
	.uleb128 Lfunc_end5-Ltmp271     
	.byte	0                       
	.byte	0                       
Lcst_end5:
	.byte	1                       
                                        
	.byte	0                       
	.p2align	2
                                        
	.long	0                       
Lttbase5:
	.p2align	2
                                        
	.section	__TEXT,__text,regular,pure_instructions
	.globl	__ZN8CryptoPP7IntegerD1Ev 
	.weak_def_can_be_hidden	__ZN8CryptoPP7IntegerD1Ev
	.p2align	4, 0x90
__ZN8CryptoPP7IntegerD1Ev:              
	.cfi_startproc

	push	rbp
	.cfi_def_cfa_offset 16
	.cfi_offset rbp, -16
	mov	rbp, rsp
	.cfi_def_cfa_register rbp
	sub	rsp, 16
	mov	qword ptr [rbp - 8], rdi
	mov	rdi, qword ptr [rbp - 8]
	call	__ZN8CryptoPP7IntegerD2Ev
	add	rsp, 16
	pop	rbp
	ret
	.cfi_endproc
                                        
	.globl	__ZNK8CryptoPP7Integer6IsEvenEv 
	.weak_definition	__ZNK8CryptoPP7Integer6IsEvenEv
	.p2align	4, 0x90
__ZNK8CryptoPP7Integer6IsEvenEv:        
	.cfi_startproc

	push	rbp
	.cfi_def_cfa_offset 16
	.cfi_offset rbp, -16
	mov	rbp, rsp
	.cfi_def_cfa_register rbp
	sub	rsp, 16
	xor	eax, eax
	mov	esi, eax
	mov	qword ptr [rbp - 8], rdi
	mov	rdi, qword ptr [rbp - 8]
	call	__ZNK8CryptoPP7Integer6GetBitEm
	and	al, 1
	movzx	ecx, al
	cmp	ecx, 0
	sete	al
	and	al, 1
	movzx	eax, al
	add	rsp, 16
	pop	rbp
	ret
	.cfi_endproc
                                        
	.globl	__ZN8CryptoPP16RSAPrimeSelectorC1ERKNS_7IntegerE 
	.weak_def_can_be_hidden	__ZN8CryptoPP16RSAPrimeSelectorC1ERKNS_7IntegerE
	.p2align	4, 0x90
__ZN8CryptoPP16RSAPrimeSelectorC1ERKNS_7IntegerE: 
	.cfi_startproc

	push	rbp
	.cfi_def_cfa_offset 16
	.cfi_offset rbp, -16
	mov	rbp, rsp
	.cfi_def_cfa_register rbp
	sub	rsp, 16
	mov	qword ptr [rbp - 8], rdi
	mov	qword ptr [rbp - 16], rsi
	mov	rdi, qword ptr [rbp - 8]
	mov	rsi, qword ptr [rbp - 16]
	call	__ZN8CryptoPP16RSAPrimeSelectorC2ERKNS_7IntegerE
	add	rsp, 16
	pop	rbp
	ret
	.cfi_endproc
                                        
	.globl	__ZN8CryptoPP19AlgorithmParametersclIPKNS_13PrimeSelectorEEERS0_PKcRKT_ 
	.weak_definition	__ZN8CryptoPP19AlgorithmParametersclIPKNS_13PrimeSelectorEEERS0_PKcRKT_
	.p2align	4, 0x90
__ZN8CryptoPP19AlgorithmParametersclIPKNS_13PrimeSelectorEEERS0_PKcRKT_: 
	.cfi_startproc

	push	rbp
	.cfi_def_cfa_offset 16
	.cfi_offset rbp, -16
	mov	rbp, rsp
	.cfi_def_cfa_register rbp
	sub	rsp, 32
	mov	qword ptr [rbp - 8], rdi
	mov	qword ptr [rbp - 16], rsi
	mov	qword ptr [rbp - 24], rdx
	mov	rax, qword ptr [rbp - 8]
	mov	rsi, qword ptr [rbp - 16]
	mov	rdx, qword ptr [rbp - 24]
	mov	cl, byte ptr [rax + 16]
	and	cl, 1
	mov	rdi, rax
	movzx	ecx, cl
	call	__ZN8CryptoPP19AlgorithmParametersclIPKNS_13PrimeSelectorEEERS0_PKcRKT_b
	add	rsp, 32
	pop	rbp
	ret
	.cfi_endproc
                                        
	.globl	__ZN8CryptoPP4Name22PointerToPrimeSelectorEv 
	.weak_definition	__ZN8CryptoPP4Name22PointerToPrimeSelectorEv
	.p2align	4, 0x90
__ZN8CryptoPP4Name22PointerToPrimeSelectorEv: 

	push	rbp
	mov	rbp, rsp
	lea	rax, [rip + L_.str.14]
	pop	rbp
	ret
                                        
	.globl	__ZNK8CryptoPP13PrimeSelector18GetSelectorPointerEv 
	.weak_definition	__ZNK8CryptoPP13PrimeSelector18GetSelectorPointerEv
	.p2align	4, 0x90
__ZNK8CryptoPP13PrimeSelector18GetSelectorPointerEv: 

	push	rbp
	mov	rbp, rsp
	mov	qword ptr [rbp - 8], rdi
	mov	rax, qword ptr [rbp - 8]
	pop	rbp
	ret
                                        
	.globl	__ZN8CryptoPP19AlgorithmParametersD1Ev 
	.weak_def_can_be_hidden	__ZN8CryptoPP19AlgorithmParametersD1Ev
	.p2align	4, 0x90
__ZN8CryptoPP19AlgorithmParametersD1Ev: 
	.cfi_startproc

	push	rbp
	.cfi_def_cfa_offset 16
	.cfi_offset rbp, -16
	mov	rbp, rsp
	.cfi_def_cfa_register rbp
	sub	rsp, 16
	mov	qword ptr [rbp - 8], rdi
	mov	rdi, qword ptr [rbp - 8]
	call	__ZN8CryptoPP19AlgorithmParametersD2Ev
	add	rsp, 16
	pop	rbp
	ret
	.cfi_endproc
                                        
	.globl	__ZN8CryptoPP7Integer14GenerateRandomERNS_21RandomNumberGeneratorERKNS_14NameValuePairsE 
	.weak_definition	__ZN8CryptoPP7Integer14GenerateRandomERNS_21RandomNumberGeneratorERKNS_14NameValuePairsE
	.p2align	4, 0x90
__ZN8CryptoPP7Integer14GenerateRandomERNS_21RandomNumberGeneratorERKNS_14NameValuePairsE: 
Lfunc_begin6:
	.cfi_startproc
	.cfi_personality 155, ___gxx_personality_v0
	.cfi_lsda 16, Lexception6

	push	rbp
	.cfi_def_cfa_offset 16
	.cfi_offset rbp, -16
	mov	rbp, rsp
	.cfi_def_cfa_register rbp
	sub	rsp, 48
	mov	qword ptr [rbp - 8], rdi
	mov	qword ptr [rbp - 16], rsi
	mov	qword ptr [rbp - 24], rdx
	mov	rdi, qword ptr [rbp - 8]
	mov	rsi, qword ptr [rbp - 16]
	mov	rdx, qword ptr [rbp - 24]
	call	__ZN8CryptoPP7Integer21GenerateRandomNoThrowERNS_21RandomNumberGeneratorERKNS_14NameValuePairsE
	test	al, 1
	jne	LBB50_4

	mov	edi, 40
	call	___cxa_allocate_exception
	mov	rcx, rax
Ltmp278:
	mov	rdi, rax
	mov	qword ptr [rbp - 48], rcx 
	call	__ZN8CryptoPP7Integer20RandomNumberNotFoundC1Ev
Ltmp279:
	jmp	LBB50_2
LBB50_2:
	mov	rsi, qword ptr [rip + __ZTIN8CryptoPP7Integer20RandomNumberNotFoundE@GOTPCREL]
	mov	rdx, qword ptr [rip + __ZN8CryptoPP7Integer20RandomNumberNotFoundD1Ev@GOTPCREL]
	mov	rdi, qword ptr [rbp - 48] 
	call	___cxa_throw
LBB50_3:
Ltmp280:
                                        
	mov	qword ptr [rbp - 32], rax
	mov	dword ptr [rbp - 36], edx
	mov	rdi, qword ptr [rbp - 48] 
	call	___cxa_free_exception
	jmp	LBB50_5
LBB50_4:
	add	rsp, 48
	pop	rbp
	ret
LBB50_5:
	mov	rdi, qword ptr [rbp - 32]
	call	__Unwind_Resume
	ud2
Lfunc_end6:
	.cfi_endproc
	.section	__TEXT,__gcc_except_tab
	.p2align	2
GCC_except_table50:
Lexception6:
	.byte	255                     
	.byte	255                     
	.byte	1                       
	.uleb128 Lcst_end6-Lcst_begin6
Lcst_begin6:
	.uleb128 Lfunc_begin6-Lfunc_begin6 
	.uleb128 Ltmp278-Lfunc_begin6   
	.byte	0                       
	.byte	0                       
	.uleb128 Ltmp278-Lfunc_begin6   
	.uleb128 Ltmp279-Ltmp278        
	.uleb128 Ltmp280-Lfunc_begin6   
	.byte	0                       
	.uleb128 Ltmp279-Lfunc_begin6   
	.uleb128 Lfunc_end6-Ltmp279     
	.byte	0                       
	.byte	0                       
Lcst_end6:
	.p2align	2
                                        
	.section	__TEXT,__text,regular,pure_instructions
	.globl	__ZN8CryptoPP3LCMERKNS_7IntegerES2_ 
	.weak_definition	__ZN8CryptoPP3LCMERKNS_7IntegerES2_
	.p2align	4, 0x90
__ZN8CryptoPP3LCMERKNS_7IntegerES2_:    
Lfunc_begin7:
	.cfi_startproc
	.cfi_personality 155, ___gxx_personality_v0
	.cfi_lsda 16, Lexception7

	push	rbp
	.cfi_def_cfa_offset 16
	.cfi_offset rbp, -16
	mov	rbp, rsp
	.cfi_def_cfa_register rbp
	sub	rsp, 176
	mov	rax, rdi
	mov	qword ptr [rbp - 8], rdi
	mov	qword ptr [rbp - 16], rsi
	mov	qword ptr [rbp - 24], rdx
	mov	rcx, qword ptr [rbp - 16]
	mov	rdx, qword ptr [rbp - 24]
	lea	rsi, [rbp - 120]
	mov	qword ptr [rbp - 144], rdi 
	mov	rdi, rsi
	mov	qword ptr [rbp - 152], rsi 
	mov	rsi, rcx
	mov	qword ptr [rbp - 160], rax 
	mov	qword ptr [rbp - 168], rcx 
	call	__ZN8CryptoPP7Integer3GcdERKS0_S2_
Ltmp281:
	lea	rdi, [rbp - 72]
	mov	rsi, qword ptr [rbp - 168] 
	mov	rdx, qword ptr [rbp - 152] 
	call	__ZN8CryptoPPdvERKNS_7IntegerES2_
Ltmp282:
	jmp	LBB51_1
LBB51_1:
	mov	rdx, qword ptr [rbp - 24]
Ltmp283:
	lea	rsi, [rbp - 72]
	mov	rdi, qword ptr [rbp - 144] 
	call	__ZN8CryptoPPmlERKNS_7IntegerES2_
Ltmp284:
	jmp	LBB51_2
LBB51_2:
Ltmp288:
	lea	rdi, [rbp - 72]
	call	__ZN8CryptoPP7IntegerD1Ev
Ltmp289:
	jmp	LBB51_3
LBB51_3:
	lea	rdi, [rbp - 120]
	call	__ZN8CryptoPP7IntegerD1Ev
	mov	rax, qword ptr [rbp - 160] 
	add	rsp, 176
	pop	rbp
	ret
LBB51_4:
Ltmp290:
                                        
	mov	qword ptr [rbp - 128], rax
	mov	dword ptr [rbp - 132], edx
	jmp	LBB51_7
LBB51_5:
Ltmp285:
                                        
	mov	qword ptr [rbp - 128], rax
	mov	dword ptr [rbp - 132], edx
Ltmp286:
	lea	rdi, [rbp - 72]
	call	__ZN8CryptoPP7IntegerD1Ev
Ltmp287:
	jmp	LBB51_6
LBB51_6:
	jmp	LBB51_7
LBB51_7:
Ltmp291:
	lea	rdi, [rbp - 120]
	call	__ZN8CryptoPP7IntegerD1Ev
Ltmp292:
	jmp	LBB51_8
LBB51_8:
	jmp	LBB51_9
LBB51_9:
	mov	rdi, qword ptr [rbp - 128]
	call	__Unwind_Resume
	ud2
LBB51_10:
Ltmp293:
	mov	rdi, rax
	mov	qword ptr [rbp - 176], rdx 
	call	___clang_call_terminate
Lfunc_end7:
	.cfi_endproc
	.section	__TEXT,__gcc_except_tab
	.p2align	2
GCC_except_table51:
Lexception7:
	.byte	255                     
	.byte	155                     
	.uleb128 Lttbase6-Lttbaseref6
Lttbaseref6:
	.byte	1                       
	.uleb128 Lcst_end7-Lcst_begin7
Lcst_begin7:
	.uleb128 Lfunc_begin7-Lfunc_begin7 
	.uleb128 Ltmp281-Lfunc_begin7   
	.byte	0                       
	.byte	0                       
	.uleb128 Ltmp281-Lfunc_begin7   
	.uleb128 Ltmp282-Ltmp281        
	.uleb128 Ltmp290-Lfunc_begin7   
	.byte	0                       
	.uleb128 Ltmp283-Lfunc_begin7   
	.uleb128 Ltmp284-Ltmp283        
	.uleb128 Ltmp285-Lfunc_begin7   
	.byte	0                       
	.uleb128 Ltmp288-Lfunc_begin7   
	.uleb128 Ltmp289-Ltmp288        
	.uleb128 Ltmp290-Lfunc_begin7   
	.byte	0                       
	.uleb128 Ltmp289-Lfunc_begin7   
	.uleb128 Ltmp286-Ltmp289        
	.byte	0                       
	.byte	0                       
	.uleb128 Ltmp286-Lfunc_begin7   
	.uleb128 Ltmp292-Ltmp286        
	.uleb128 Ltmp293-Lfunc_begin7   
	.byte	1                       
	.uleb128 Ltmp292-Lfunc_begin7   
	.uleb128 Lfunc_end7-Ltmp292     
	.byte	0                       
	.byte	0                       
Lcst_end7:
	.byte	1                       
                                        
	.byte	0                       
	.p2align	2
                                        
	.long	0                       
Lttbase6:
	.p2align	2
                                        
	.section	__TEXT,__text,regular,pure_instructions
	.globl	__ZN8CryptoPPmiERKNS_7IntegerES2_ 
	.weak_definition	__ZN8CryptoPPmiERKNS_7IntegerES2_
	.p2align	4, 0x90
__ZN8CryptoPPmiERKNS_7IntegerES2_:      
	.cfi_startproc

	push	rbp
	.cfi_def_cfa_offset 16
	.cfi_offset rbp, -16
	mov	rbp, rsp
	.cfi_def_cfa_register rbp
	sub	rsp, 32
	mov	rax, rdi
	mov	rcx, rdi
	mov	qword ptr [rbp - 8], rcx
	mov	qword ptr [rbp - 16], rsi
	mov	qword ptr [rbp - 24], rdx
	mov	rsi, qword ptr [rbp - 16]
	mov	rdx, qword ptr [rbp - 24]
	mov	qword ptr [rbp - 32], rax 
	call	__ZNK8CryptoPP7Integer5MinusERKS0_
	mov	rax, qword ptr [rbp - 32] 
	add	rsp, 32
	pop	rbp
	ret
	.cfi_endproc
                                        
	.globl	__ZN8CryptoPPrmERKNS_7IntegerES2_ 
	.weak_definition	__ZN8CryptoPPrmERKNS_7IntegerES2_
	.p2align	4, 0x90
__ZN8CryptoPPrmERKNS_7IntegerES2_:      
	.cfi_startproc

	push	rbp
	.cfi_def_cfa_offset 16
	.cfi_offset rbp, -16
	mov	rbp, rsp
	.cfi_def_cfa_register rbp
	sub	rsp, 32
	mov	rax, rdi
	mov	rcx, rdi
	mov	qword ptr [rbp - 8], rcx
	mov	qword ptr [rbp - 16], rsi
	mov	qword ptr [rbp - 24], rdx
	mov	rsi, qword ptr [rbp - 16]
	mov	rdx, qword ptr [rbp - 24]
	mov	qword ptr [rbp - 32], rax 
	call	__ZNK8CryptoPP7Integer6ModuloERKS0_
	mov	rax, qword ptr [rbp - 32] 
	add	rsp, 32
	pop	rbp
	ret
	.cfi_endproc
                                        
	.globl	__ZN8CryptoPPmlERKNS_7IntegerES2_ 
	.weak_definition	__ZN8CryptoPPmlERKNS_7IntegerES2_
	.p2align	4, 0x90
__ZN8CryptoPPmlERKNS_7IntegerES2_:      
	.cfi_startproc

	push	rbp
	.cfi_def_cfa_offset 16
	.cfi_offset rbp, -16
	mov	rbp, rsp
	.cfi_def_cfa_register rbp
	sub	rsp, 32
	mov	rax, rdi
	mov	rcx, rdi
	mov	qword ptr [rbp - 8], rcx
	mov	qword ptr [rbp - 16], rsi
	mov	qword ptr [rbp - 24], rdx
	mov	rsi, qword ptr [rbp - 16]
	mov	rdx, qword ptr [rbp - 24]
	mov	qword ptr [rbp - 32], rax 
	call	__ZNK8CryptoPP7Integer5TimesERKS0_
	mov	rax, qword ptr [rbp - 32] 
	add	rsp, 32
	pop	rbp
	ret
	.cfi_endproc
                                        
	.globl	__ZN8CryptoPP16PK_FinalTemplateINS_13TF_SignerImplINS_25TF_SignatureSchemeOptionsINS_5TF_SSINS_3RSAENS_8PKCS1v15ENS_4SHA1EiEES4_NS_39PKCS1v15_SignatureMessageEncodingMethodES6_EEEEEC1ERKNS_14CryptoMaterialE 
	.weak_def_can_be_hidden	__ZN8CryptoPP16PK_FinalTemplateINS_13TF_SignerImplINS_25TF_SignatureSchemeOptionsINS_5TF_SSINS_3RSAENS_8PKCS1v15ENS_4SHA1EiEES4_NS_39PKCS1v15_SignatureMessageEncodingMethodES6_EEEEEC1ERKNS_14CryptoMaterialE
	.p2align	4, 0x90
__ZN8CryptoPP16PK_FinalTemplateINS_13TF_SignerImplINS_25TF_SignatureSchemeOptionsINS_5TF_SSINS_3RSAENS_8PKCS1v15ENS_4SHA1EiEES4_NS_39PKCS1v15_SignatureMessageEncodingMethodES6_EEEEEC1ERKNS_14CryptoMaterialE: 
	.cfi_startproc

	push	rbp
	.cfi_def_cfa_offset 16
	.cfi_offset rbp, -16
	mov	rbp, rsp
	.cfi_def_cfa_register rbp
	sub	rsp, 16
	mov	qword ptr [rbp - 8], rdi
	mov	qword ptr [rbp - 16], rsi
	mov	rdi, qword ptr [rbp - 8]
	mov	rsi, qword ptr [rbp - 16]
	call	__ZN8CryptoPP16PK_FinalTemplateINS_13TF_SignerImplINS_25TF_SignatureSchemeOptionsINS_5TF_SSINS_3RSAENS_8PKCS1v15ENS_4SHA1EiEES4_NS_39PKCS1v15_SignatureMessageEncodingMethodES6_EEEEEC2ERKNS_14CryptoMaterialE
	add	rsp, 16
	pop	rbp
	ret
	.cfi_endproc
                                        
	.globl	__ZN8CryptoPP16PK_FinalTemplateINS_15TF_VerifierImplINS_25TF_SignatureSchemeOptionsINS_5TF_SSINS_3RSAENS_8PKCS1v15ENS_4SHA1EiEES4_NS_39PKCS1v15_SignatureMessageEncodingMethodES6_EEEEEC1ERKNS_19AsymmetricAlgorithmE 
	.weak_def_can_be_hidden	__ZN8CryptoPP16PK_FinalTemplateINS_15TF_VerifierImplINS_25TF_SignatureSchemeOptionsINS_5TF_SSINS_3RSAENS_8PKCS1v15ENS_4SHA1EiEES4_NS_39PKCS1v15_SignatureMessageEncodingMethodES6_EEEEEC1ERKNS_19AsymmetricAlgorithmE
	.p2align	4, 0x90
__ZN8CryptoPP16PK_FinalTemplateINS_15TF_VerifierImplINS_25TF_SignatureSchemeOptionsINS_5TF_SSINS_3RSAENS_8PKCS1v15ENS_4SHA1EiEES4_NS_39PKCS1v15_SignatureMessageEncodingMethodES6_EEEEEC1ERKNS_19AsymmetricAlgorithmE: 
	.cfi_startproc

	push	rbp
	.cfi_def_cfa_offset 16
	.cfi_offset rbp, -16
	mov	rbp, rsp
	.cfi_def_cfa_register rbp
	sub	rsp, 16
	mov	qword ptr [rbp - 8], rdi
	mov	qword ptr [rbp - 16], rsi
	mov	rdi, qword ptr [rbp - 8]
	mov	rsi, qword ptr [rbp - 16]
	call	__ZN8CryptoPP16PK_FinalTemplateINS_15TF_VerifierImplINS_25TF_SignatureSchemeOptionsINS_5TF_SSINS_3RSAENS_8PKCS1v15ENS_4SHA1EiEES4_NS_39PKCS1v15_SignatureMessageEncodingMethodES6_EEEEEC2ERKNS_19AsymmetricAlgorithmE
	add	rsp, 16
	pop	rbp
	ret
	.cfi_endproc
                                        
	.globl	__ZN8CryptoPP16PK_FinalTemplateINS_16TF_DecryptorImplINS_22TF_CryptoSchemeOptionsINS_5TF_ESINS_3RSAENS_4OAEPINS_4SHA1ENS_10P1363_MGF1EEEiEES4_S8_EEEEEC1ERKNS_14CryptoMaterialE 
	.weak_def_can_be_hidden	__ZN8CryptoPP16PK_FinalTemplateINS_16TF_DecryptorImplINS_22TF_CryptoSchemeOptionsINS_5TF_ESINS_3RSAENS_4OAEPINS_4SHA1ENS_10P1363_MGF1EEEiEES4_S8_EEEEEC1ERKNS_14CryptoMaterialE
	.p2align	4, 0x90
__ZN8CryptoPP16PK_FinalTemplateINS_16TF_DecryptorImplINS_22TF_CryptoSchemeOptionsINS_5TF_ESINS_3RSAENS_4OAEPINS_4SHA1ENS_10P1363_MGF1EEEiEES4_S8_EEEEEC1ERKNS_14CryptoMaterialE: 
	.cfi_startproc

	push	rbp
	.cfi_def_cfa_offset 16
	.cfi_offset rbp, -16
	mov	rbp, rsp
	.cfi_def_cfa_register rbp
	sub	rsp, 16
	mov	qword ptr [rbp - 8], rdi
	mov	qword ptr [rbp - 16], rsi
	mov	rdi, qword ptr [rbp - 8]
	mov	rsi, qword ptr [rbp - 16]
	call	__ZN8CryptoPP16PK_FinalTemplateINS_16TF_DecryptorImplINS_22TF_CryptoSchemeOptionsINS_5TF_ESINS_3RSAENS_4OAEPINS_4SHA1ENS_10P1363_MGF1EEEiEES4_S8_EEEEEC2ERKNS_14CryptoMaterialE
	add	rsp, 16
	pop	rbp
	ret
	.cfi_endproc
                                        
	.globl	__ZN8CryptoPP16PK_FinalTemplateINS_16TF_EncryptorImplINS_22TF_CryptoSchemeOptionsINS_5TF_ESINS_3RSAENS_4OAEPINS_4SHA1ENS_10P1363_MGF1EEEiEES4_S8_EEEEEC1ERKNS_19AsymmetricAlgorithmE 
	.weak_def_can_be_hidden	__ZN8CryptoPP16PK_FinalTemplateINS_16TF_EncryptorImplINS_22TF_CryptoSchemeOptionsINS_5TF_ESINS_3RSAENS_4OAEPINS_4SHA1ENS_10P1363_MGF1EEEiEES4_S8_EEEEEC1ERKNS_19AsymmetricAlgorithmE
	.p2align	4, 0x90
__ZN8CryptoPP16PK_FinalTemplateINS_16TF_EncryptorImplINS_22TF_CryptoSchemeOptionsINS_5TF_ESINS_3RSAENS_4OAEPINS_4SHA1ENS_10P1363_MGF1EEEiEES4_S8_EEEEEC1ERKNS_19AsymmetricAlgorithmE: 
	.cfi_startproc

	push	rbp
	.cfi_def_cfa_offset 16
	.cfi_offset rbp, -16
	mov	rbp, rsp
	.cfi_def_cfa_register rbp
	sub	rsp, 16
	mov	qword ptr [rbp - 8], rdi
	mov	qword ptr [rbp - 16], rsi
	mov	rdi, qword ptr [rbp - 8]
	mov	rsi, qword ptr [rbp - 16]
	call	__ZN8CryptoPP16PK_FinalTemplateINS_16TF_EncryptorImplINS_22TF_CryptoSchemeOptionsINS_5TF_ESINS_3RSAENS_4OAEPINS_4SHA1ENS_10P1363_MGF1EEEiEES4_S8_EEEEEC2ERKNS_19AsymmetricAlgorithmE
	add	rsp, 16
	pop	rbp
	ret
	.cfi_endproc
                                        
	.globl	__ZN8CryptoPP16PK_FinalTemplateINS_16TF_EncryptorImplINS_22TF_CryptoSchemeOptionsINS_5TF_ESINS_3RSAENS_4OAEPINS_4SHA1ENS_10P1363_MGF1EEEiEES4_S8_EEEEED1Ev 
	.weak_def_can_be_hidden	__ZN8CryptoPP16PK_FinalTemplateINS_16TF_EncryptorImplINS_22TF_CryptoSchemeOptionsINS_5TF_ESINS_3RSAENS_4OAEPINS_4SHA1ENS_10P1363_MGF1EEEiEES4_S8_EEEEED1Ev
	.p2align	4, 0x90
__ZN8CryptoPP16PK_FinalTemplateINS_16TF_EncryptorImplINS_22TF_CryptoSchemeOptionsINS_5TF_ESINS_3RSAENS_4OAEPINS_4SHA1ENS_10P1363_MGF1EEEiEES4_S8_EEEEED1Ev: 
	.cfi_startproc

	push	rbp
	.cfi_def_cfa_offset 16
	.cfi_offset rbp, -16
	mov	rbp, rsp
	.cfi_def_cfa_register rbp
	sub	rsp, 16
	mov	qword ptr [rbp - 8], rdi
	mov	rdi, qword ptr [rbp - 8]
	call	__ZN8CryptoPP16PK_FinalTemplateINS_16TF_EncryptorImplINS_22TF_CryptoSchemeOptionsINS_5TF_ESINS_3RSAENS_4OAEPINS_4SHA1ENS_10P1363_MGF1EEEiEES4_S8_EEEEED2Ev
	add	rsp, 16
	pop	rbp
	ret
	.cfi_endproc
                                        
	.globl	__ZN8CryptoPP16PK_FinalTemplateINS_16TF_DecryptorImplINS_22TF_CryptoSchemeOptionsINS_5TF_ESINS_3RSAENS_4OAEPINS_4SHA1ENS_10P1363_MGF1EEEiEES4_S8_EEEEED1Ev 
	.weak_def_can_be_hidden	__ZN8CryptoPP16PK_FinalTemplateINS_16TF_DecryptorImplINS_22TF_CryptoSchemeOptionsINS_5TF_ESINS_3RSAENS_4OAEPINS_4SHA1ENS_10P1363_MGF1EEEiEES4_S8_EEEEED1Ev
	.p2align	4, 0x90
__ZN8CryptoPP16PK_FinalTemplateINS_16TF_DecryptorImplINS_22TF_CryptoSchemeOptionsINS_5TF_ESINS_3RSAENS_4OAEPINS_4SHA1ENS_10P1363_MGF1EEEiEES4_S8_EEEEED1Ev: 
	.cfi_startproc

	push	rbp
	.cfi_def_cfa_offset 16
	.cfi_offset rbp, -16
	mov	rbp, rsp
	.cfi_def_cfa_register rbp
	sub	rsp, 16
	mov	qword ptr [rbp - 8], rdi
	mov	rdi, qword ptr [rbp - 8]
	call	__ZN8CryptoPP16PK_FinalTemplateINS_16TF_DecryptorImplINS_22TF_CryptoSchemeOptionsINS_5TF_ESINS_3RSAENS_4OAEPINS_4SHA1ENS_10P1363_MGF1EEEiEES4_S8_EEEEED2Ev
	add	rsp, 16
	pop	rbp
	ret
	.cfi_endproc
                                        
	.globl	__ZN8CryptoPP16PK_FinalTemplateINS_15TF_VerifierImplINS_25TF_SignatureSchemeOptionsINS_5TF_SSINS_3RSAENS_8PKCS1v15ENS_4SHA1EiEES4_NS_39PKCS1v15_SignatureMessageEncodingMethodES6_EEEEED1Ev 
	.weak_def_can_be_hidden	__ZN8CryptoPP16PK_FinalTemplateINS_15TF_VerifierImplINS_25TF_SignatureSchemeOptionsINS_5TF_SSINS_3RSAENS_8PKCS1v15ENS_4SHA1EiEES4_NS_39PKCS1v15_SignatureMessageEncodingMethodES6_EEEEED1Ev
	.p2align	4, 0x90
__ZN8CryptoPP16PK_FinalTemplateINS_15TF_VerifierImplINS_25TF_SignatureSchemeOptionsINS_5TF_SSINS_3RSAENS_8PKCS1v15ENS_4SHA1EiEES4_NS_39PKCS1v15_SignatureMessageEncodingMethodES6_EEEEED1Ev: 
	.cfi_startproc

	push	rbp
	.cfi_def_cfa_offset 16
	.cfi_offset rbp, -16
	mov	rbp, rsp
	.cfi_def_cfa_register rbp
	sub	rsp, 16
	mov	qword ptr [rbp - 8], rdi
	mov	rdi, qword ptr [rbp - 8]
	call	__ZN8CryptoPP16PK_FinalTemplateINS_15TF_VerifierImplINS_25TF_SignatureSchemeOptionsINS_5TF_SSINS_3RSAENS_8PKCS1v15ENS_4SHA1EiEES4_NS_39PKCS1v15_SignatureMessageEncodingMethodES6_EEEEED2Ev
	add	rsp, 16
	pop	rbp
	ret
	.cfi_endproc
                                        
	.globl	__ZN8CryptoPP16PK_FinalTemplateINS_13TF_SignerImplINS_25TF_SignatureSchemeOptionsINS_5TF_SSINS_3RSAENS_8PKCS1v15ENS_4SHA1EiEES4_NS_39PKCS1v15_SignatureMessageEncodingMethodES6_EEEEED1Ev 
	.weak_def_can_be_hidden	__ZN8CryptoPP16PK_FinalTemplateINS_13TF_SignerImplINS_25TF_SignatureSchemeOptionsINS_5TF_SSINS_3RSAENS_8PKCS1v15ENS_4SHA1EiEES4_NS_39PKCS1v15_SignatureMessageEncodingMethodES6_EEEEED1Ev
	.p2align	4, 0x90
__ZN8CryptoPP16PK_FinalTemplateINS_13TF_SignerImplINS_25TF_SignatureSchemeOptionsINS_5TF_SSINS_3RSAENS_8PKCS1v15ENS_4SHA1EiEES4_NS_39PKCS1v15_SignatureMessageEncodingMethodES6_EEEEED1Ev: 
	.cfi_startproc

	push	rbp
	.cfi_def_cfa_offset 16
	.cfi_offset rbp, -16
	mov	rbp, rsp
	.cfi_def_cfa_register rbp
	sub	rsp, 16
	mov	qword ptr [rbp - 8], rdi
	mov	rdi, qword ptr [rbp - 8]
	call	__ZN8CryptoPP16PK_FinalTemplateINS_13TF_SignerImplINS_25TF_SignatureSchemeOptionsINS_5TF_SSINS_3RSAENS_8PKCS1v15ENS_4SHA1EiEES4_NS_39PKCS1v15_SignatureMessageEncodingMethodES6_EEEEED2Ev
	add	rsp, 16
	pop	rbp
	ret
	.cfi_endproc
                                        
	.globl	__ZN8CryptoPP16RSAPrimeSelectorD1Ev 
	.weak_def_can_be_hidden	__ZN8CryptoPP16RSAPrimeSelectorD1Ev
	.p2align	4, 0x90
__ZN8CryptoPP16RSAPrimeSelectorD1Ev:    
	.cfi_startproc

	push	rbp
	.cfi_def_cfa_offset 16
	.cfi_offset rbp, -16
	mov	rbp, rsp
	.cfi_def_cfa_register rbp
	sub	rsp, 16
	mov	qword ptr [rbp - 8], rdi
	mov	rdi, qword ptr [rbp - 8]
	call	__ZN8CryptoPP16RSAPrimeSelectorD2Ev
	add	rsp, 16
	pop	rbp
	ret
	.cfi_endproc
                                        
	.globl	__ZThn136_N8CryptoPP21InvertibleRSAFunction14GenerateRandomERNS_21RandomNumberGeneratorERKNS_14NameValuePairsE 
	.p2align	4, 0x90
__ZThn136_N8CryptoPP21InvertibleRSAFunction14GenerateRandomERNS_21RandomNumberGeneratorERKNS_14NameValuePairsE: 
	.cfi_startproc

	push	rbp
	.cfi_def_cfa_offset 16
	.cfi_offset rbp, -16
	mov	rbp, rsp
	.cfi_def_cfa_register rbp
	mov	qword ptr [rbp - 8], rdi
	mov	qword ptr [rbp - 16], rsi
	mov	qword ptr [rbp - 24], rdx
	mov	rax, qword ptr [rbp - 8]
	add	rax, -136
	mov	rsi, qword ptr [rbp - 16]
	mov	rdx, qword ptr [rbp - 24]
	mov	rdi, rax
	pop	rbp
	jmp	__ZN8CryptoPP21InvertibleRSAFunction14GenerateRandomERNS_21RandomNumberGeneratorERKNS_14NameValuePairsE 
	.cfi_endproc
                                        
	.globl	__ZN8CryptoPP21InvertibleRSAFunction10InitializeERNS_21RandomNumberGeneratorEjRKNS_7IntegerE 
	.p2align	4, 0x90
__ZN8CryptoPP21InvertibleRSAFunction10InitializeERNS_21RandomNumberGeneratorEjRKNS_7IntegerE: 
Lfunc_begin8:
	.cfi_startproc
	.cfi_personality 155, ___gxx_personality_v0
	.cfi_lsda 16, Lexception8

	push	rbp
	.cfi_def_cfa_offset 16
	.cfi_offset rbp, -16
	mov	rbp, rsp
	.cfi_def_cfa_register rbp
	sub	rsp, 240
	mov	qword ptr [rbp - 8], rdi
	mov	qword ptr [rbp - 16], rsi
	mov	dword ptr [rbp - 20], edx
	mov	qword ptr [rbp - 32], rcx
	mov	rax, qword ptr [rbp - 8]
	mov	rsi, qword ptr [rbp - 16]
	mov	qword ptr [rbp - 184], rax 
	mov	qword ptr [rbp - 192], rsi 
	call	__ZN8CryptoPP4Name11ModulusSizeEv
	mov	edx, dword ptr [rbp - 20]
	mov	dword ptr [rbp - 60], edx
	lea	rdi, [rbp - 56]
	lea	rdx, [rbp - 60]
	mov	ecx, 1
	mov	rsi, rax
	call	__ZN8CryptoPP14MakeParametersIiEENS_19AlgorithmParametersEPKcRKT_b
Ltmp294:
	call	__ZN8CryptoPP4Name14PublicExponentEv
Ltmp295:
	mov	qword ptr [rbp - 200], rax 
	jmp	LBB65_1
LBB65_1:
	mov	rax, qword ptr [rbp - 32]
Ltmp296:
	mov	rdi, rax
	mov	qword ptr [rbp - 208], rax 
	call	__ZNK8CryptoPP7Integer6IsEvenEv
Ltmp297:
	mov	byte ptr [rbp - 209], al 
	jmp	LBB65_2
LBB65_2:
	mov	al, byte ptr [rbp - 209] 
	movzx	ecx, al
	mov	edx, ecx
                                        
	and	edx, 1
	mov	esi, edx
Ltmp298:
	lea	rdi, [rbp - 176]
	call	__ZN8CryptoPP7IntegerC1El
Ltmp299:
	jmp	LBB65_3
LBB65_3:
Ltmp300:
	lea	rdi, [rbp - 128]
	lea	rdx, [rbp - 176]
	mov	rsi, qword ptr [rbp - 208] 
	call	__ZN8CryptoPPplERKNS_7IntegerES2_
Ltmp301:
	jmp	LBB65_4
LBB65_4:
Ltmp302:
	lea	rdi, [rbp - 56]
	lea	rdx, [rbp - 128]
	mov	rsi, qword ptr [rbp - 200] 
	call	__ZN8CryptoPP19AlgorithmParametersclINS_7IntegerEEERS0_PKcRKT_
Ltmp303:
	mov	qword ptr [rbp - 224], rax 
	jmp	LBB65_5
LBB65_5:
	mov	rax, qword ptr [rbp - 184] 
	mov	rcx, qword ptr [rax]
	mov	rcx, qword ptr [rcx + 176]
Ltmp304:
	mov	rdi, rax
	mov	rsi, qword ptr [rbp - 192] 
	mov	rdx, qword ptr [rbp - 224] 
	call	rcx
Ltmp305:
	jmp	LBB65_6
LBB65_6:
Ltmp309:
	lea	rdi, [rbp - 128]
	call	__ZN8CryptoPP7IntegerD1Ev
Ltmp310:
	jmp	LBB65_7
LBB65_7:
Ltmp314:
	lea	rdi, [rbp - 176]
	call	__ZN8CryptoPP7IntegerD1Ev
Ltmp315:
	jmp	LBB65_8
LBB65_8:
	lea	rdi, [rbp - 56]
	call	__ZN8CryptoPP19AlgorithmParametersD1Ev
	add	rsp, 240
	pop	rbp
	ret
LBB65_9:
Ltmp316:
                                        
	mov	qword ptr [rbp - 72], rax
	mov	dword ptr [rbp - 76], edx
	jmp	LBB65_15
LBB65_10:
Ltmp311:
                                        
	mov	qword ptr [rbp - 72], rax
	mov	dword ptr [rbp - 76], edx
	jmp	LBB65_13
LBB65_11:
Ltmp306:
                                        
	mov	qword ptr [rbp - 72], rax
	mov	dword ptr [rbp - 76], edx
Ltmp307:
	lea	rdi, [rbp - 128]
	call	__ZN8CryptoPP7IntegerD1Ev
Ltmp308:
	jmp	LBB65_12
LBB65_12:
	jmp	LBB65_13
LBB65_13:
Ltmp312:
	lea	rdi, [rbp - 176]
	call	__ZN8CryptoPP7IntegerD1Ev
Ltmp313:
	jmp	LBB65_14
LBB65_14:
	jmp	LBB65_15
LBB65_15:
Ltmp317:
	lea	rdi, [rbp - 56]
	call	__ZN8CryptoPP19AlgorithmParametersD1Ev
Ltmp318:
	jmp	LBB65_16
LBB65_16:
	jmp	LBB65_17
LBB65_17:
	mov	rdi, qword ptr [rbp - 72]
	call	__Unwind_Resume
	ud2
LBB65_18:
Ltmp319:
	mov	rdi, rax
	mov	qword ptr [rbp - 232], rdx 
	call	___clang_call_terminate
Lfunc_end8:
	.cfi_endproc
	.section	__TEXT,__gcc_except_tab
	.p2align	2
GCC_except_table65:
Lexception8:
	.byte	255                     
	.byte	155                     
	.uleb128 Lttbase7-Lttbaseref7
Lttbaseref7:
	.byte	1                       
	.uleb128 Lcst_end8-Lcst_begin8
Lcst_begin8:
	.uleb128 Lfunc_begin8-Lfunc_begin8 
	.uleb128 Ltmp294-Lfunc_begin8   
	.byte	0                       
	.byte	0                       
	.uleb128 Ltmp294-Lfunc_begin8   
	.uleb128 Ltmp299-Ltmp294        
	.uleb128 Ltmp316-Lfunc_begin8   
	.byte	0                       
	.uleb128 Ltmp300-Lfunc_begin8   
	.uleb128 Ltmp301-Ltmp300        
	.uleb128 Ltmp311-Lfunc_begin8   
	.byte	0                       
	.uleb128 Ltmp302-Lfunc_begin8   
	.uleb128 Ltmp305-Ltmp302        
	.uleb128 Ltmp306-Lfunc_begin8   
	.byte	0                       
	.uleb128 Ltmp309-Lfunc_begin8   
	.uleb128 Ltmp310-Ltmp309        
	.uleb128 Ltmp311-Lfunc_begin8   
	.byte	0                       
	.uleb128 Ltmp314-Lfunc_begin8   
	.uleb128 Ltmp315-Ltmp314        
	.uleb128 Ltmp316-Lfunc_begin8   
	.byte	0                       
	.uleb128 Ltmp315-Lfunc_begin8   
	.uleb128 Ltmp307-Ltmp315        
	.byte	0                       
	.byte	0                       
	.uleb128 Ltmp307-Lfunc_begin8   
	.uleb128 Ltmp318-Ltmp307        
	.uleb128 Ltmp319-Lfunc_begin8   
	.byte	1                       
	.uleb128 Ltmp318-Lfunc_begin8   
	.uleb128 Lfunc_end8-Ltmp318     
	.byte	0                       
	.byte	0                       
Lcst_end8:
	.byte	1                       
                                        
	.byte	0                       
	.p2align	2
                                        
	.long	0                       
Lttbase7:
	.p2align	2
                                        
	.section	__TEXT,__text,regular,pure_instructions
	.globl	__ZN8CryptoPP14MakeParametersIiEENS_19AlgorithmParametersEPKcRKT_b 
	.weak_definition	__ZN8CryptoPP14MakeParametersIiEENS_19AlgorithmParametersEPKcRKT_b
	.p2align	4, 0x90
__ZN8CryptoPP14MakeParametersIiEENS_19AlgorithmParametersEPKcRKT_b: 
Lfunc_begin9:
	.cfi_startproc
	.cfi_personality 155, ___gxx_personality_v0
	.cfi_lsda 16, Lexception9

	push	rbp
	.cfi_def_cfa_offset 16
	.cfi_offset rbp, -16
	mov	rbp, rsp
	.cfi_def_cfa_register rbp
	sub	rsp, 112
                                        
	mov	rax, rdi
	mov	qword ptr [rbp - 8], rdi
	mov	qword ptr [rbp - 16], rsi
	mov	qword ptr [rbp - 24], rdx
	and	cl, 1
	mov	byte ptr [rbp - 25], cl
	lea	rdx, [rbp - 56]
	mov	qword ptr [rbp - 80], rdi 
	mov	rdi, rdx
	mov	qword ptr [rbp - 88], rax 
	mov	qword ptr [rbp - 96], rdx 
	call	__ZN8CryptoPP19AlgorithmParametersC1Ev
	mov	rsi, qword ptr [rbp - 16]
	mov	rdx, qword ptr [rbp - 24]
	movzx	r8d, byte ptr [rbp - 25]
Ltmp320:
	and	r8d, 1
	mov	rdi, qword ptr [rbp - 96] 
	mov	ecx, r8d
	call	__ZN8CryptoPP19AlgorithmParametersclIiEERS0_PKcRKT_b
Ltmp321:
	mov	qword ptr [rbp - 104], rax 
	jmp	LBB66_1
LBB66_1:
Ltmp322:
	mov	rdi, qword ptr [rbp - 80] 
	mov	rsi, qword ptr [rbp - 104] 
	call	__ZN8CryptoPP19AlgorithmParametersC1ERKS0_
Ltmp323:
	jmp	LBB66_2
LBB66_2:
	lea	rdi, [rbp - 56]
	call	__ZN8CryptoPP19AlgorithmParametersD1Ev
	mov	rax, qword ptr [rbp - 88] 
	add	rsp, 112
	pop	rbp
	ret
LBB66_3:
Ltmp324:
                                        
	mov	qword ptr [rbp - 64], rax
	mov	dword ptr [rbp - 68], edx
Ltmp325:
	lea	rdi, [rbp - 56]
	call	__ZN8CryptoPP19AlgorithmParametersD1Ev
Ltmp326:
	jmp	LBB66_4
LBB66_4:
	jmp	LBB66_5
LBB66_5:
	mov	rdi, qword ptr [rbp - 64]
	call	__Unwind_Resume
	ud2
LBB66_6:
Ltmp327:
	mov	rdi, rax
	mov	qword ptr [rbp - 112], rdx 
	call	___clang_call_terminate
Lfunc_end9:
	.cfi_endproc
	.section	__TEXT,__gcc_except_tab
	.p2align	2
GCC_except_table66:
Lexception9:
	.byte	255                     
	.byte	155                     
	.uleb128 Lttbase8-Lttbaseref8
Lttbaseref8:
	.byte	1                       
	.uleb128 Lcst_end9-Lcst_begin9
Lcst_begin9:
	.uleb128 Lfunc_begin9-Lfunc_begin9 
	.uleb128 Ltmp320-Lfunc_begin9   
	.byte	0                       
	.byte	0                       
	.uleb128 Ltmp320-Lfunc_begin9   
	.uleb128 Ltmp323-Ltmp320        
	.uleb128 Ltmp324-Lfunc_begin9   
	.byte	0                       
	.uleb128 Ltmp323-Lfunc_begin9   
	.uleb128 Ltmp325-Ltmp323        
	.byte	0                       
	.byte	0                       
	.uleb128 Ltmp325-Lfunc_begin9   
	.uleb128 Ltmp326-Ltmp325        
	.uleb128 Ltmp327-Lfunc_begin9   
	.byte	1                       
	.uleb128 Ltmp326-Lfunc_begin9   
	.uleb128 Lfunc_end9-Ltmp326     
	.byte	0                       
	.byte	0                       
Lcst_end9:
	.byte	1                       
                                        
	.byte	0                       
	.p2align	2
                                        
	.long	0                       
Lttbase8:
	.p2align	2
                                        
	.section	__TEXT,__text,regular,pure_instructions
	.globl	__ZN8CryptoPP19AlgorithmParametersclINS_7IntegerEEERS0_PKcRKT_ 
	.weak_definition	__ZN8CryptoPP19AlgorithmParametersclINS_7IntegerEEERS0_PKcRKT_
	.p2align	4, 0x90
__ZN8CryptoPP19AlgorithmParametersclINS_7IntegerEEERS0_PKcRKT_: 
	.cfi_startproc

	push	rbp
	.cfi_def_cfa_offset 16
	.cfi_offset rbp, -16
	mov	rbp, rsp
	.cfi_def_cfa_register rbp
	sub	rsp, 32
	mov	qword ptr [rbp - 8], rdi
	mov	qword ptr [rbp - 16], rsi
	mov	qword ptr [rbp - 24], rdx
	mov	rax, qword ptr [rbp - 8]
	mov	rsi, qword ptr [rbp - 16]
	mov	rdx, qword ptr [rbp - 24]
	mov	cl, byte ptr [rax + 16]
	and	cl, 1
	mov	rdi, rax
	movzx	ecx, cl
	call	__ZN8CryptoPP19AlgorithmParametersclINS_7IntegerEEERS0_PKcRKT_b
	add	rsp, 32
	pop	rbp
	ret
	.cfi_endproc
                                        
	.globl	__ZN8CryptoPPplERKNS_7IntegerES2_ 
	.weak_definition	__ZN8CryptoPPplERKNS_7IntegerES2_
	.p2align	4, 0x90
__ZN8CryptoPPplERKNS_7IntegerES2_:      
	.cfi_startproc

	push	rbp
	.cfi_def_cfa_offset 16
	.cfi_offset rbp, -16
	mov	rbp, rsp
	.cfi_def_cfa_register rbp
	sub	rsp, 32
	mov	rax, rdi
	mov	rcx, rdi
	mov	qword ptr [rbp - 8], rcx
	mov	qword ptr [rbp - 16], rsi
	mov	qword ptr [rbp - 24], rdx
	mov	rsi, qword ptr [rbp - 16]
	mov	rdx, qword ptr [rbp - 24]
	mov	qword ptr [rbp - 32], rax 
	call	__ZNK8CryptoPP7Integer4PlusERKS0_
	mov	rax, qword ptr [rbp - 32] 
	add	rsp, 32
	pop	rbp
	ret
	.cfi_endproc
                                        
	.globl	__ZN8CryptoPP21InvertibleRSAFunction10InitializeERKNS_7IntegerES3_S3_ 
	.p2align	4, 0x90
__ZN8CryptoPP21InvertibleRSAFunction10InitializeERKNS_7IntegerES3_S3_: 
Lfunc_begin10:
	.cfi_startproc
	.cfi_personality 155, ___gxx_personality_v0
	.cfi_lsda 16, Lexception10

	push	rbp
	.cfi_def_cfa_offset 16
	.cfi_offset rbp, -16
	mov	rbp, rsp
	.cfi_def_cfa_register rbp
	sub	rsp, 1440
	mov	qword ptr [rbp - 8], rdi
	mov	qword ptr [rbp - 16], rsi
	mov	qword ptr [rbp - 24], rdx
	mov	qword ptr [rbp - 32], rcx
	mov	rax, qword ptr [rbp - 8]
	mov	rdi, qword ptr [rbp - 16]
	mov	qword ptr [rbp - 1264], rax 
	call	__ZNK8CryptoPP7Integer6IsEvenEv
	test	al, 1
	jne	LBB69_2

	mov	rdi, qword ptr [rbp - 24]
	call	__ZNK8CryptoPP7Integer6IsEvenEv
	and	al, 1
	movzx	ecx, al
	mov	rdi, qword ptr [rbp - 32]
	mov	dword ptr [rbp - 1268], ecx 
	call	__ZNK8CryptoPP7Integer6IsEvenEv
	and	al, 1
	movzx	ecx, al
	mov	edx, dword ptr [rbp - 1268] 
	or	edx, ecx
	cmp	edx, 0
	je	LBB69_11
LBB69_2:
	mov	edi, 40
	call	___cxa_allocate_exception
	mov	rcx, rax
	mov	byte ptr [rbp - 69], 1
Ltmp509:
	lea	rsi, [rip + L_.str.2]
	lea	rdi, [rbp - 56]
	mov	qword ptr [rbp - 1280], rcx 
	mov	qword ptr [rbp - 1288], rax 
	call	__ZNSt3__112basic_stringIcNS_11char_traitsIcEENS_9allocatorIcEEEC1INS_9nullptr_tEEEPKc
Ltmp510:
	jmp	LBB69_3
LBB69_3:
Ltmp512:
	lea	rsi, [rbp - 56]
	mov	rdi, qword ptr [rbp - 1288] 
	call	__ZN8CryptoPP15InvalidArgumentC1ERKNSt3__112basic_stringIcNS1_11char_traitsIcEENS1_9allocatorIcEEEE
Ltmp513:
	jmp	LBB69_4
LBB69_4:
	mov	byte ptr [rbp - 69], 0
Ltmp514:
	mov	rsi, qword ptr [rip + __ZTIN8CryptoPP15InvalidArgumentE@GOTPCREL]
	mov	rdx, qword ptr [rip + __ZN8CryptoPP15InvalidArgumentD1Ev@GOTPCREL]
	mov	rdi, qword ptr [rbp - 1280] 
	call	___cxa_throw
Ltmp515:
	jmp	LBB69_148
LBB69_5:
Ltmp511:
                                        
	mov	qword ptr [rbp - 64], rax
	mov	dword ptr [rbp - 68], edx
	jmp	LBB69_8
LBB69_6:
Ltmp516:
                                        
	mov	qword ptr [rbp - 64], rax
	mov	dword ptr [rbp - 68], edx
Ltmp517:
	lea	rdi, [rbp - 56]
	call	__ZNSt3__112basic_stringIcNS_11char_traitsIcEENS_9allocatorIcEEED1Ev
Ltmp518:
	jmp	LBB69_7
LBB69_7:
	jmp	LBB69_8
LBB69_8:
	test	byte ptr [rbp - 69], 1
	jne	LBB69_9
	jmp	LBB69_10
LBB69_9:
	mov	rdi, qword ptr [rbp - 1280] 
	call	___cxa_free_exception
LBB69_10:
	jmp	LBB69_146
LBB69_11:
	mov	rsi, qword ptr [rbp - 16]
	mov	rax, qword ptr [rbp - 1264] 
	add	rax, 24
	mov	rdi, rax
	call	__ZN8CryptoPP7IntegeraSERKS0_
	mov	rsi, qword ptr [rbp - 24]
	mov	rcx, qword ptr [rbp - 1264] 
	add	rcx, 72
	mov	rdi, rcx
	mov	qword ptr [rbp - 1296], rax 
	call	__ZN8CryptoPP7IntegeraSERKS0_
	mov	rsi, qword ptr [rbp - 32]
	mov	rcx, qword ptr [rbp - 1264] 
	add	rcx, 224
	mov	rdi, rcx
	mov	qword ptr [rbp - 1304], rax 
	call	__ZN8CryptoPP7IntegeraSERKS0_
	mov	rsi, qword ptr [rbp - 32]
	mov	rdx, qword ptr [rbp - 24]
	lea	rcx, [rbp - 168]
	mov	rdi, rcx
	mov	qword ptr [rbp - 1312], rax 
	mov	qword ptr [rbp - 1320], rcx 
	call	__ZN8CryptoPPmlERKNS_7IntegerES2_
Ltmp328:
	mov	rdi, qword ptr [rbp - 1320] 
	call	__ZN8CryptoPP7IntegermmEv
Ltmp329:
	mov	qword ptr [rbp - 1328], rax 
	jmp	LBB69_12
LBB69_12:
Ltmp330:
	lea	rdi, [rbp - 120]
	mov	rsi, qword ptr [rbp - 1328] 
	call	__ZN8CryptoPP7IntegerC1ERKS0_
Ltmp331:
	jmp	LBB69_13
LBB69_13:
	lea	rdi, [rbp - 168]
	call	__ZN8CryptoPP7IntegerD1Ev
	mov	dword ptr [rbp - 172], 0
LBB69_14:                               
Ltmp335:
	lea	rdi, [rbp - 120]
	call	__ZNK8CryptoPP7Integer6IsEvenEv
Ltmp336:
	mov	byte ptr [rbp - 1329], al 
	jmp	LBB69_15
LBB69_15:                               
	mov	al, byte ptr [rbp - 1329] 
	test	al, 1
	jne	LBB69_16
	jmp	LBB69_21
LBB69_16:                               
Ltmp504:
	lea	rdi, [rbp - 120]
	mov	esi, 1
	call	__ZN8CryptoPP7IntegerrSEm
Ltmp505:
	jmp	LBB69_17
LBB69_17:                               
	mov	eax, dword ptr [rbp - 172]
	add	eax, 1
	mov	dword ptr [rbp - 172], eax
	jmp	LBB69_14
LBB69_18:
Ltmp332:
                                        
	mov	qword ptr [rbp - 64], rax
	mov	dword ptr [rbp - 68], edx
Ltmp333:
	lea	rdi, [rbp - 168]
	call	__ZN8CryptoPP7IntegerD1Ev
Ltmp334:
	jmp	LBB69_19
LBB69_19:
	jmp	LBB69_146
LBB69_20:
Ltmp506:
                                        
	mov	qword ptr [rbp - 64], rax
	mov	dword ptr [rbp - 68], edx
	jmp	LBB69_144
LBB69_21:
	mov	rsi, qword ptr [rbp - 16]
Ltmp337:
	lea	rdi, [rbp - 344]
	call	__ZN8CryptoPP17ModularArithmeticC1ERKNS_7IntegerE
Ltmp338:
	jmp	LBB69_22
LBB69_22:
Ltmp339:
	lea	rdi, [rbp - 392]
	mov	esi, 2
	call	__ZN8CryptoPP7IntegerC1El
Ltmp340:
	jmp	LBB69_23
LBB69_23:
	jmp	LBB69_24
LBB69_24:                               
                                        
Ltmp341:
	lea	rdi, [rbp - 440]
	lea	rsi, [rbp - 344]
	lea	rdx, [rbp - 392]
	lea	rcx, [rbp - 120]
	call	__ZNK8CryptoPP12AbstractRingINS_7IntegerEE12ExponentiateERKS1_S4_
Ltmp342:
	jmp	LBB69_25
LBB69_25:                               
Ltmp343:
	lea	rdi, [rbp - 488]
	mov	esi, 1
	call	__ZN8CryptoPP7IntegerC1El
Ltmp344:
	jmp	LBB69_26
LBB69_26:                               
Ltmp345:
	lea	rdi, [rbp - 440]
	lea	rsi, [rbp - 488]
	call	__ZN8CryptoPPeqERKNS_7IntegerES2_
Ltmp346:
	mov	byte ptr [rbp - 1330], al 
	jmp	LBB69_27
LBB69_27:                               
Ltmp350:
	lea	rdi, [rbp - 488]
	call	__ZN8CryptoPP7IntegerD1Ev
Ltmp351:
	jmp	LBB69_28
LBB69_28:                               
	mov	al, byte ptr [rbp - 1330] 
	test	al, 1
	jne	LBB69_29
	jmp	LBB69_35
LBB69_29:                               
	mov	dword ptr [rbp - 492], 6
	jmp	LBB69_128
LBB69_30:
Ltmp499:
                                        
	mov	qword ptr [rbp - 64], rax
	mov	dword ptr [rbp - 68], edx
	jmp	LBB69_142
LBB69_31:
Ltmp494:
                                        
	mov	qword ptr [rbp - 64], rax
	mov	dword ptr [rbp - 68], edx
	jmp	LBB69_139
LBB69_32:
Ltmp487:
                                        
	mov	qword ptr [rbp - 64], rax
	mov	dword ptr [rbp - 68], edx
	jmp	LBB69_135
LBB69_33:
Ltmp347:
                                        
	mov	qword ptr [rbp - 64], rax
	mov	dword ptr [rbp - 68], edx
Ltmp348:
	lea	rdi, [rbp - 488]
	call	__ZN8CryptoPP7IntegerD1Ev
Ltmp349:
	jmp	LBB69_34
LBB69_34:
	jmp	LBB69_135
LBB69_35:                               
Ltmp352:
	lea	rdi, [rbp - 544]
	call	__ZN8CryptoPP7IntegerC1Ev
Ltmp353:
	jmp	LBB69_36
LBB69_36:                               
	mov	dword ptr [rbp - 548], 0
LBB69_37:                               
                                        
	mov	rsi, qword ptr [rbp - 16]
Ltmp354:
	lea	rdi, [rbp - 648]
	mov	eax, 1
	mov	qword ptr [rbp - 1344], rsi 
	mov	rsi, rax
	call	__ZN8CryptoPP7IntegerC1El
Ltmp355:
	jmp	LBB69_38
LBB69_38:                               
Ltmp356:
	lea	rdi, [rbp - 600]
	lea	rdx, [rbp - 648]
	mov	rsi, qword ptr [rbp - 1344] 
	call	__ZN8CryptoPPmiERKNS_7IntegerES2_
Ltmp357:
	jmp	LBB69_39
LBB69_39:                               
Ltmp358:
	lea	rdi, [rbp - 440]
	lea	rsi, [rbp - 600]
	call	__ZN8CryptoPPneERKNS_7IntegerES2_
Ltmp359:
	mov	byte ptr [rbp - 1345], al 
	jmp	LBB69_40
LBB69_40:                               
Ltmp363:
	lea	rdi, [rbp - 600]
	call	__ZN8CryptoPP7IntegerD1Ev
Ltmp364:
	jmp	LBB69_41
LBB69_41:                               
Ltmp368:
	lea	rdi, [rbp - 648]
	call	__ZN8CryptoPP7IntegerD1Ev
Ltmp369:
	jmp	LBB69_42
LBB69_42:                               
	mov	al, byte ptr [rbp - 1345] 
	test	al, 1
	jne	LBB69_43
	jmp	LBB69_125
LBB69_43:                               
Ltmp370:
	lea	rdi, [rbp - 344]
	lea	rsi, [rbp - 440]
	call	__ZNK8CryptoPP17ModularArithmetic6SquareERKNS_7IntegerE
Ltmp371:
	mov	qword ptr [rbp - 1360], rax 
	jmp	LBB69_44
LBB69_44:                               
Ltmp372:
	lea	rdi, [rbp - 544]
	mov	rsi, qword ptr [rbp - 1360] 
	call	__ZN8CryptoPP7IntegeraSERKS0_
Ltmp373:
	jmp	LBB69_45
LBB69_45:                               
Ltmp374:
	lea	rdi, [rbp - 696]
	mov	esi, 1
	call	__ZN8CryptoPP7IntegerC1El
Ltmp375:
	jmp	LBB69_46
LBB69_46:                               
Ltmp376:
	lea	rdi, [rbp - 544]
	lea	rsi, [rbp - 696]
	call	__ZN8CryptoPPeqERKNS_7IntegerES2_
Ltmp377:
	mov	byte ptr [rbp - 1361], al 
	jmp	LBB69_47
LBB69_47:                               
Ltmp381:
	lea	rdi, [rbp - 696]
	call	__ZN8CryptoPP7IntegerD1Ev
Ltmp382:
	jmp	LBB69_48
LBB69_48:                               
	mov	al, byte ptr [rbp - 1361] 
	test	al, 1
	jne	LBB69_49
	jmp	LBB69_113
LBB69_49:                               
Ltmp395:
	lea	rdi, [rbp - 840]
	mov	esi, 1
	call	__ZN8CryptoPP7IntegerC1El
Ltmp396:
	jmp	LBB69_50
LBB69_50:                               
Ltmp397:
	lea	rdi, [rbp - 792]
	lea	rsi, [rbp - 440]
	lea	rdx, [rbp - 840]
	call	__ZN8CryptoPPmiERKNS_7IntegerES2_
Ltmp398:
	jmp	LBB69_51
LBB69_51:                               
	mov	rdx, qword ptr [rbp - 16]
Ltmp399:
	lea	rdi, [rbp - 744]
	lea	rsi, [rbp - 792]
	call	__ZN8CryptoPP3GCDERKNS_7IntegerES2_
Ltmp400:
	jmp	LBB69_52
LBB69_52:                               
	mov	rax, qword ptr [rbp - 1264] 
	add	rax, 272
Ltmp401:
	lea	rsi, [rbp - 744]
	mov	rdi, rax
	call	__ZN8CryptoPP7IntegeraSERKS0_
Ltmp402:
	jmp	LBB69_53
LBB69_53:                               
Ltmp406:
	lea	rdi, [rbp - 744]
	call	__ZN8CryptoPP7IntegerD1Ev
Ltmp407:
	jmp	LBB69_54
LBB69_54:                               
Ltmp411:
	lea	rdi, [rbp - 792]
	call	__ZN8CryptoPP7IntegerD1Ev
Ltmp412:
	jmp	LBB69_55
LBB69_55:                               
Ltmp416:
	lea	rdi, [rbp - 840]
	call	__ZN8CryptoPP7IntegerD1Ev
Ltmp417:
	jmp	LBB69_56
LBB69_56:                               
	mov	rsi, qword ptr [rbp - 16]
	mov	rax, qword ptr [rbp - 1264] 
	add	rax, 272
Ltmp418:
	lea	rdi, [rbp - 888]
	mov	rdx, rax
	call	__ZN8CryptoPPdvERKNS_7IntegerES2_
Ltmp419:
	jmp	LBB69_57
LBB69_57:                               
	mov	rax, qword ptr [rbp - 1264] 
	add	rax, 320
Ltmp420:
	lea	rsi, [rbp - 888]
	mov	rdi, rax
	call	__ZN8CryptoPP7IntegeraSERKS0_
Ltmp421:
	jmp	LBB69_58
LBB69_58:                               
Ltmp425:
	lea	rdi, [rbp - 888]
	call	__ZN8CryptoPP7IntegerD1Ev
Ltmp426:
	jmp	LBB69_59
LBB69_59:                               
	mov	rax, qword ptr [rbp - 1264] 
	add	rax, 224
	mov	rcx, qword ptr [rbp - 1264] 
	add	rcx, 272
Ltmp427:
	lea	rdi, [rbp - 1032]
	mov	esi, 1
	mov	qword ptr [rbp - 1376], rax 
	mov	qword ptr [rbp - 1384], rcx 
	call	__ZN8CryptoPP7IntegerC1El
Ltmp428:
	jmp	LBB69_60
LBB69_60:                               
Ltmp429:
	lea	rdi, [rbp - 984]
	lea	rdx, [rbp - 1032]
	mov	rsi, qword ptr [rbp - 1384] 
	call	__ZN8CryptoPPmiERKNS_7IntegerES2_
Ltmp430:
	jmp	LBB69_61
LBB69_61:                               
Ltmp431:
	lea	rdi, [rbp - 936]
	lea	rdx, [rbp - 984]
	mov	rsi, qword ptr [rbp - 1376] 
	call	__ZN8CryptoPPrmERKNS_7IntegerES2_
Ltmp432:
	jmp	LBB69_62
LBB69_62:                               
	mov	rax, qword ptr [rbp - 1264] 
	add	rax, 368
Ltmp433:
	lea	rsi, [rbp - 936]
	mov	rdi, rax
	call	__ZN8CryptoPP7IntegeraSERKS0_
Ltmp434:
	jmp	LBB69_63
LBB69_63:                               
Ltmp438:
	lea	rdi, [rbp - 936]
	call	__ZN8CryptoPP7IntegerD1Ev
Ltmp439:
	jmp	LBB69_64
LBB69_64:                               
Ltmp443:
	lea	rdi, [rbp - 984]
	call	__ZN8CryptoPP7IntegerD1Ev
Ltmp444:
	jmp	LBB69_65
LBB69_65:                               
Ltmp448:
	lea	rdi, [rbp - 1032]
	call	__ZN8CryptoPP7IntegerD1Ev
Ltmp449:
	jmp	LBB69_66
LBB69_66:                               
	mov	rax, qword ptr [rbp - 1264] 
	add	rax, 224
	mov	rcx, qword ptr [rbp - 1264] 
	add	rcx, 320
Ltmp450:
	lea	rdi, [rbp - 1176]
	mov	esi, 1
	mov	qword ptr [rbp - 1392], rax 
	mov	qword ptr [rbp - 1400], rcx 
	call	__ZN8CryptoPP7IntegerC1El
Ltmp451:
	jmp	LBB69_67
LBB69_67:                               
Ltmp452:
	lea	rdi, [rbp - 1128]
	lea	rdx, [rbp - 1176]
	mov	rsi, qword ptr [rbp - 1400] 
	call	__ZN8CryptoPPmiERKNS_7IntegerES2_
Ltmp453:
	jmp	LBB69_68
LBB69_68:                               
Ltmp454:
	lea	rdi, [rbp - 1080]
	lea	rdx, [rbp - 1128]
	mov	rsi, qword ptr [rbp - 1392] 
	call	__ZN8CryptoPPrmERKNS_7IntegerES2_
Ltmp455:
	jmp	LBB69_69
LBB69_69:                               
	mov	rax, qword ptr [rbp - 1264] 
	add	rax, 416
Ltmp456:
	lea	rsi, [rbp - 1080]
	mov	rdi, rax
	call	__ZN8CryptoPP7IntegeraSERKS0_
Ltmp457:
	jmp	LBB69_70
LBB69_70:                               
Ltmp461:
	lea	rdi, [rbp - 1080]
	call	__ZN8CryptoPP7IntegerD1Ev
Ltmp462:
	jmp	LBB69_71
LBB69_71:                               
Ltmp466:
	lea	rdi, [rbp - 1128]
	call	__ZN8CryptoPP7IntegerD1Ev
Ltmp467:
	jmp	LBB69_72
LBB69_72:                               
Ltmp471:
	lea	rdi, [rbp - 1176]
	call	__ZN8CryptoPP7IntegerD1Ev
Ltmp472:
	jmp	LBB69_73
LBB69_73:                               
	mov	rax, qword ptr [rbp - 1264] 
	add	rax, 320
	mov	rcx, qword ptr [rbp - 1264] 
	add	rcx, 272
Ltmp473:
	lea	rdi, [rbp - 1224]
	mov	rsi, rax
	mov	rdx, rcx
	call	__ZNK8CryptoPP7Integer10InverseModERKS0_
Ltmp474:
	jmp	LBB69_74
LBB69_74:                               
	mov	rax, qword ptr [rbp - 1264] 
	add	rax, 464
Ltmp475:
	lea	rsi, [rbp - 1224]
	mov	rdi, rax
	call	__ZN8CryptoPP7IntegeraSERKS0_
Ltmp476:
	jmp	LBB69_75
LBB69_75:                               
Ltmp480:
	lea	rdi, [rbp - 1224]
	call	__ZN8CryptoPP7IntegerD1Ev
Ltmp481:
	jmp	LBB69_76
LBB69_76:                               
	mov	dword ptr [rbp - 492], 1
	jmp	LBB69_126
LBB69_77:
Ltmp482:
                                        
	mov	qword ptr [rbp - 64], rax
	mov	dword ptr [rbp - 68], edx
	jmp	LBB69_133
LBB69_78:
Ltmp365:
                                        
	mov	qword ptr [rbp - 64], rax
	mov	dword ptr [rbp - 68], edx
	jmp	LBB69_81
LBB69_79:
Ltmp360:
                                        
	mov	qword ptr [rbp - 64], rax
	mov	dword ptr [rbp - 68], edx
Ltmp361:
	lea	rdi, [rbp - 600]
	call	__ZN8CryptoPP7IntegerD1Ev
Ltmp362:
	jmp	LBB69_80
LBB69_80:
	jmp	LBB69_81
LBB69_81:
Ltmp366:
	lea	rdi, [rbp - 648]
	call	__ZN8CryptoPP7IntegerD1Ev
Ltmp367:
	jmp	LBB69_82
LBB69_82:
	jmp	LBB69_133
LBB69_83:
Ltmp378:
                                        
	mov	qword ptr [rbp - 64], rax
	mov	dword ptr [rbp - 68], edx
Ltmp379:
	lea	rdi, [rbp - 696]
	call	__ZN8CryptoPP7IntegerD1Ev
Ltmp380:
	jmp	LBB69_84
LBB69_84:
	jmp	LBB69_133
LBB69_85:
Ltmp413:
                                        
	mov	qword ptr [rbp - 64], rax
	mov	dword ptr [rbp - 68], edx
	jmp	LBB69_91
LBB69_86:
Ltmp408:
                                        
	mov	qword ptr [rbp - 64], rax
	mov	dword ptr [rbp - 68], edx
	jmp	LBB69_89
LBB69_87:
Ltmp403:
                                        
	mov	qword ptr [rbp - 64], rax
	mov	dword ptr [rbp - 68], edx
Ltmp404:
	lea	rdi, [rbp - 744]
	call	__ZN8CryptoPP7IntegerD1Ev
Ltmp405:
	jmp	LBB69_88
LBB69_88:
	jmp	LBB69_89
LBB69_89:
Ltmp409:
	lea	rdi, [rbp - 792]
	call	__ZN8CryptoPP7IntegerD1Ev
Ltmp410:
	jmp	LBB69_90
LBB69_90:
	jmp	LBB69_91
LBB69_91:
Ltmp414:
	lea	rdi, [rbp - 840]
	call	__ZN8CryptoPP7IntegerD1Ev
Ltmp415:
	jmp	LBB69_92
LBB69_92:
	jmp	LBB69_133
LBB69_93:
Ltmp422:
                                        
	mov	qword ptr [rbp - 64], rax
	mov	dword ptr [rbp - 68], edx
Ltmp423:
	lea	rdi, [rbp - 888]
	call	__ZN8CryptoPP7IntegerD1Ev
Ltmp424:
	jmp	LBB69_94
LBB69_94:
	jmp	LBB69_133
LBB69_95:
Ltmp445:
                                        
	mov	qword ptr [rbp - 64], rax
	mov	dword ptr [rbp - 68], edx
	jmp	LBB69_101
LBB69_96:
Ltmp440:
                                        
	mov	qword ptr [rbp - 64], rax
	mov	dword ptr [rbp - 68], edx
	jmp	LBB69_99
LBB69_97:
Ltmp435:
                                        
	mov	qword ptr [rbp - 64], rax
	mov	dword ptr [rbp - 68], edx
Ltmp436:
	lea	rdi, [rbp - 936]
	call	__ZN8CryptoPP7IntegerD1Ev
Ltmp437:
	jmp	LBB69_98
LBB69_98:
	jmp	LBB69_99
LBB69_99:
Ltmp441:
	lea	rdi, [rbp - 984]
	call	__ZN8CryptoPP7IntegerD1Ev
Ltmp442:
	jmp	LBB69_100
LBB69_100:
	jmp	LBB69_101
LBB69_101:
Ltmp446:
	lea	rdi, [rbp - 1032]
	call	__ZN8CryptoPP7IntegerD1Ev
Ltmp447:
	jmp	LBB69_102
LBB69_102:
	jmp	LBB69_133
LBB69_103:
Ltmp468:
                                        
	mov	qword ptr [rbp - 64], rax
	mov	dword ptr [rbp - 68], edx
	jmp	LBB69_109
LBB69_104:
Ltmp463:
                                        
	mov	qword ptr [rbp - 64], rax
	mov	dword ptr [rbp - 68], edx
	jmp	LBB69_107
LBB69_105:
Ltmp458:
                                        
	mov	qword ptr [rbp - 64], rax
	mov	dword ptr [rbp - 68], edx
Ltmp459:
	lea	rdi, [rbp - 1080]
	call	__ZN8CryptoPP7IntegerD1Ev
Ltmp460:
	jmp	LBB69_106
LBB69_106:
	jmp	LBB69_107
LBB69_107:
Ltmp464:
	lea	rdi, [rbp - 1128]
	call	__ZN8CryptoPP7IntegerD1Ev
Ltmp465:
	jmp	LBB69_108
LBB69_108:
	jmp	LBB69_109
LBB69_109:
Ltmp469:
	lea	rdi, [rbp - 1176]
	call	__ZN8CryptoPP7IntegerD1Ev
Ltmp470:
	jmp	LBB69_110
LBB69_110:
	jmp	LBB69_133
LBB69_111:
Ltmp477:
                                        
	mov	qword ptr [rbp - 64], rax
	mov	dword ptr [rbp - 68], edx
Ltmp478:
	lea	rdi, [rbp - 1224]
	call	__ZN8CryptoPP7IntegerD1Ev
Ltmp479:
	jmp	LBB69_112
LBB69_112:
	jmp	LBB69_133
LBB69_113:                              
	mov	eax, dword ptr [rbp - 548]
	add	eax, 1
	mov	dword ptr [rbp - 548], eax
	cmp	eax, dword ptr [rbp - 172]
	jne	LBB69_123

	mov	edi, 40
	call	___cxa_allocate_exception
	mov	rcx, rax
	mov	byte ptr [rbp - 1249], 1
Ltmp385:
	lea	rsi, [rip + L_.str.2]
	lea	rdi, [rbp - 1248]
	mov	qword ptr [rbp - 1408], rcx 
	mov	qword ptr [rbp - 1416], rax 
	call	__ZNSt3__112basic_stringIcNS_11char_traitsIcEENS_9allocatorIcEEEC1INS_9nullptr_tEEEPKc
Ltmp386:
	jmp	LBB69_115
LBB69_115:
Ltmp388:
	lea	rsi, [rbp - 1248]
	mov	rdi, qword ptr [rbp - 1416] 
	call	__ZN8CryptoPP15InvalidArgumentC1ERKNSt3__112basic_stringIcNS1_11char_traitsIcEENS1_9allocatorIcEEEE
Ltmp389:
	jmp	LBB69_116
LBB69_116:
	mov	byte ptr [rbp - 1249], 0
Ltmp390:
	mov	rsi, qword ptr [rip + __ZTIN8CryptoPP15InvalidArgumentE@GOTPCREL]
	mov	rdx, qword ptr [rip + __ZN8CryptoPP15InvalidArgumentD1Ev@GOTPCREL]
	mov	rdi, qword ptr [rbp - 1408] 
	call	___cxa_throw
Ltmp391:
	jmp	LBB69_148
LBB69_117:
Ltmp387:
                                        
	mov	qword ptr [rbp - 64], rax
	mov	dword ptr [rbp - 68], edx
	jmp	LBB69_120
LBB69_118:
Ltmp392:
                                        
	mov	qword ptr [rbp - 64], rax
	mov	dword ptr [rbp - 68], edx
Ltmp393:
	lea	rdi, [rbp - 1248]
	call	__ZNSt3__112basic_stringIcNS_11char_traitsIcEENS_9allocatorIcEEED1Ev
Ltmp394:
	jmp	LBB69_119
LBB69_119:
	jmp	LBB69_120
LBB69_120:
	test	byte ptr [rbp - 1249], 1
	jne	LBB69_121
	jmp	LBB69_122
LBB69_121:
	mov	rdi, qword ptr [rbp - 1408] 
	call	___cxa_free_exception
LBB69_122:
	jmp	LBB69_133
LBB69_123:                              
Ltmp383:
	lea	rdi, [rbp - 440]
	lea	rsi, [rbp - 544]
	call	__ZN8CryptoPP7IntegeraSERKS0_
Ltmp384:
	jmp	LBB69_124
LBB69_124:                              
	jmp	LBB69_37
LBB69_125:                              
	mov	dword ptr [rbp - 492], 0
LBB69_126:                              
Ltmp485:
	lea	rdi, [rbp - 544]
	call	__ZN8CryptoPP7IntegerD1Ev
Ltmp486:
	jmp	LBB69_127
LBB69_127:                              
	jmp	LBB69_128
LBB69_128:                              
Ltmp490:
	lea	rdi, [rbp - 440]
	call	__ZN8CryptoPP7IntegerD1Ev
Ltmp491:
	jmp	LBB69_129
LBB69_129:                              
	mov	eax, dword ptr [rbp - 492]
	test	eax, eax
	mov	dword ptr [rbp - 1420], eax 
	je	LBB69_130
	jmp	LBB69_149
LBB69_149:                              
	mov	eax, dword ptr [rbp - 1420] 
	sub	eax, 6
	je	LBB69_131
	jmp	LBB69_137
LBB69_130:                              
	jmp	LBB69_131
LBB69_131:                              
Ltmp492:
	lea	rdi, [rbp - 392]
	call	__ZN8CryptoPP7IntegerppEv
Ltmp493:
	jmp	LBB69_132
LBB69_132:                              
	jmp	LBB69_24
LBB69_133:
Ltmp483:
	lea	rdi, [rbp - 544]
	call	__ZN8CryptoPP7IntegerD1Ev
Ltmp484:
	jmp	LBB69_134
LBB69_134:
	jmp	LBB69_135
LBB69_135:
Ltmp488:
	lea	rdi, [rbp - 440]
	call	__ZN8CryptoPP7IntegerD1Ev
Ltmp489:
	jmp	LBB69_136
LBB69_136:
	jmp	LBB69_139
LBB69_137:
Ltmp497:
	lea	rdi, [rbp - 392]
	call	__ZN8CryptoPP7IntegerD1Ev
Ltmp498:
	jmp	LBB69_138
LBB69_138:
Ltmp502:
	lea	rdi, [rbp - 344]
	call	__ZN8CryptoPP17ModularArithmeticD1Ev
Ltmp503:
	jmp	LBB69_141
LBB69_139:
Ltmp495:
	lea	rdi, [rbp - 392]
	call	__ZN8CryptoPP7IntegerD1Ev
Ltmp496:
	jmp	LBB69_140
LBB69_140:
	jmp	LBB69_142
LBB69_141:
	lea	rdi, [rbp - 120]
	call	__ZN8CryptoPP7IntegerD1Ev
	add	rsp, 1440
	pop	rbp
	ret
LBB69_142:
Ltmp500:
	lea	rdi, [rbp - 344]
	call	__ZN8CryptoPP17ModularArithmeticD1Ev
Ltmp501:
	jmp	LBB69_143
LBB69_143:
	jmp	LBB69_144
LBB69_144:
Ltmp507:
	lea	rdi, [rbp - 120]
	call	__ZN8CryptoPP7IntegerD1Ev
Ltmp508:
	jmp	LBB69_145
LBB69_145:
	jmp	LBB69_146
LBB69_146:
	mov	rdi, qword ptr [rbp - 64]
	call	__Unwind_Resume
	ud2
LBB69_147:
Ltmp519:
	mov	rdi, rax
	mov	qword ptr [rbp - 1432], rdx 
	call	___clang_call_terminate
LBB69_148:
	ud2
Lfunc_end10:
	.cfi_endproc
	.section	__TEXT,__gcc_except_tab
	.p2align	2
GCC_except_table69:
Lexception10:
	.byte	255                     
	.byte	155                     
	.uleb128 Lttbase9-Lttbaseref9
Lttbaseref9:
	.byte	1                       
	.uleb128 Lcst_end10-Lcst_begin10
Lcst_begin10:
	.uleb128 Lfunc_begin10-Lfunc_begin10 
	.uleb128 Ltmp509-Lfunc_begin10  
	.byte	0                       
	.byte	0                       
	.uleb128 Ltmp509-Lfunc_begin10  
	.uleb128 Ltmp510-Ltmp509        
	.uleb128 Ltmp511-Lfunc_begin10  
	.byte	0                       
	.uleb128 Ltmp512-Lfunc_begin10  
	.uleb128 Ltmp515-Ltmp512        
	.uleb128 Ltmp516-Lfunc_begin10  
	.byte	0                       
	.uleb128 Ltmp517-Lfunc_begin10  
	.uleb128 Ltmp518-Ltmp517        
	.uleb128 Ltmp519-Lfunc_begin10  
	.byte	1                       
	.uleb128 Ltmp518-Lfunc_begin10  
	.uleb128 Ltmp328-Ltmp518        
	.byte	0                       
	.byte	0                       
	.uleb128 Ltmp328-Lfunc_begin10  
	.uleb128 Ltmp331-Ltmp328        
	.uleb128 Ltmp332-Lfunc_begin10  
	.byte	0                       
	.uleb128 Ltmp331-Lfunc_begin10  
	.uleb128 Ltmp335-Ltmp331        
	.byte	0                       
	.byte	0                       
	.uleb128 Ltmp335-Lfunc_begin10  
	.uleb128 Ltmp505-Ltmp335        
	.uleb128 Ltmp506-Lfunc_begin10  
	.byte	0                       
	.uleb128 Ltmp333-Lfunc_begin10  
	.uleb128 Ltmp334-Ltmp333        
	.uleb128 Ltmp519-Lfunc_begin10  
	.byte	1                       
	.uleb128 Ltmp337-Lfunc_begin10  
	.uleb128 Ltmp338-Ltmp337        
	.uleb128 Ltmp506-Lfunc_begin10  
	.byte	0                       
	.uleb128 Ltmp339-Lfunc_begin10  
	.uleb128 Ltmp340-Ltmp339        
	.uleb128 Ltmp499-Lfunc_begin10  
	.byte	0                       
	.uleb128 Ltmp341-Lfunc_begin10  
	.uleb128 Ltmp342-Ltmp341        
	.uleb128 Ltmp494-Lfunc_begin10  
	.byte	0                       
	.uleb128 Ltmp343-Lfunc_begin10  
	.uleb128 Ltmp344-Ltmp343        
	.uleb128 Ltmp487-Lfunc_begin10  
	.byte	0                       
	.uleb128 Ltmp345-Lfunc_begin10  
	.uleb128 Ltmp346-Ltmp345        
	.uleb128 Ltmp347-Lfunc_begin10  
	.byte	0                       
	.uleb128 Ltmp350-Lfunc_begin10  
	.uleb128 Ltmp351-Ltmp350        
	.uleb128 Ltmp487-Lfunc_begin10  
	.byte	0                       
	.uleb128 Ltmp348-Lfunc_begin10  
	.uleb128 Ltmp349-Ltmp348        
	.uleb128 Ltmp519-Lfunc_begin10  
	.byte	1                       
	.uleb128 Ltmp352-Lfunc_begin10  
	.uleb128 Ltmp353-Ltmp352        
	.uleb128 Ltmp487-Lfunc_begin10  
	.byte	0                       
	.uleb128 Ltmp354-Lfunc_begin10  
	.uleb128 Ltmp355-Ltmp354        
	.uleb128 Ltmp482-Lfunc_begin10  
	.byte	0                       
	.uleb128 Ltmp356-Lfunc_begin10  
	.uleb128 Ltmp357-Ltmp356        
	.uleb128 Ltmp365-Lfunc_begin10  
	.byte	0                       
	.uleb128 Ltmp358-Lfunc_begin10  
	.uleb128 Ltmp359-Ltmp358        
	.uleb128 Ltmp360-Lfunc_begin10  
	.byte	0                       
	.uleb128 Ltmp363-Lfunc_begin10  
	.uleb128 Ltmp364-Ltmp363        
	.uleb128 Ltmp365-Lfunc_begin10  
	.byte	0                       
	.uleb128 Ltmp368-Lfunc_begin10  
	.uleb128 Ltmp375-Ltmp368        
	.uleb128 Ltmp482-Lfunc_begin10  
	.byte	0                       
	.uleb128 Ltmp376-Lfunc_begin10  
	.uleb128 Ltmp377-Ltmp376        
	.uleb128 Ltmp378-Lfunc_begin10  
	.byte	0                       
	.uleb128 Ltmp381-Lfunc_begin10  
	.uleb128 Ltmp396-Ltmp381        
	.uleb128 Ltmp482-Lfunc_begin10  
	.byte	0                       
	.uleb128 Ltmp397-Lfunc_begin10  
	.uleb128 Ltmp398-Ltmp397        
	.uleb128 Ltmp413-Lfunc_begin10  
	.byte	0                       
	.uleb128 Ltmp399-Lfunc_begin10  
	.uleb128 Ltmp400-Ltmp399        
	.uleb128 Ltmp408-Lfunc_begin10  
	.byte	0                       
	.uleb128 Ltmp401-Lfunc_begin10  
	.uleb128 Ltmp402-Ltmp401        
	.uleb128 Ltmp403-Lfunc_begin10  
	.byte	0                       
	.uleb128 Ltmp406-Lfunc_begin10  
	.uleb128 Ltmp407-Ltmp406        
	.uleb128 Ltmp408-Lfunc_begin10  
	.byte	0                       
	.uleb128 Ltmp411-Lfunc_begin10  
	.uleb128 Ltmp412-Ltmp411        
	.uleb128 Ltmp413-Lfunc_begin10  
	.byte	0                       
	.uleb128 Ltmp416-Lfunc_begin10  
	.uleb128 Ltmp419-Ltmp416        
	.uleb128 Ltmp482-Lfunc_begin10  
	.byte	0                       
	.uleb128 Ltmp420-Lfunc_begin10  
	.uleb128 Ltmp421-Ltmp420        
	.uleb128 Ltmp422-Lfunc_begin10  
	.byte	0                       
	.uleb128 Ltmp425-Lfunc_begin10  
	.uleb128 Ltmp428-Ltmp425        
	.uleb128 Ltmp482-Lfunc_begin10  
	.byte	0                       
	.uleb128 Ltmp429-Lfunc_begin10  
	.uleb128 Ltmp430-Ltmp429        
	.uleb128 Ltmp445-Lfunc_begin10  
	.byte	0                       
	.uleb128 Ltmp431-Lfunc_begin10  
	.uleb128 Ltmp432-Ltmp431        
	.uleb128 Ltmp440-Lfunc_begin10  
	.byte	0                       
	.uleb128 Ltmp433-Lfunc_begin10  
	.uleb128 Ltmp434-Ltmp433        
	.uleb128 Ltmp435-Lfunc_begin10  
	.byte	0                       
	.uleb128 Ltmp438-Lfunc_begin10  
	.uleb128 Ltmp439-Ltmp438        
	.uleb128 Ltmp440-Lfunc_begin10  
	.byte	0                       
	.uleb128 Ltmp443-Lfunc_begin10  
	.uleb128 Ltmp444-Ltmp443        
	.uleb128 Ltmp445-Lfunc_begin10  
	.byte	0                       
	.uleb128 Ltmp448-Lfunc_begin10  
	.uleb128 Ltmp451-Ltmp448        
	.uleb128 Ltmp482-Lfunc_begin10  
	.byte	0                       
	.uleb128 Ltmp452-Lfunc_begin10  
	.uleb128 Ltmp453-Ltmp452        
	.uleb128 Ltmp468-Lfunc_begin10  
	.byte	0                       
	.uleb128 Ltmp454-Lfunc_begin10  
	.uleb128 Ltmp455-Ltmp454        
	.uleb128 Ltmp463-Lfunc_begin10  
	.byte	0                       
	.uleb128 Ltmp456-Lfunc_begin10  
	.uleb128 Ltmp457-Ltmp456        
	.uleb128 Ltmp458-Lfunc_begin10  
	.byte	0                       
	.uleb128 Ltmp461-Lfunc_begin10  
	.uleb128 Ltmp462-Ltmp461        
	.uleb128 Ltmp463-Lfunc_begin10  
	.byte	0                       
	.uleb128 Ltmp466-Lfunc_begin10  
	.uleb128 Ltmp467-Ltmp466        
	.uleb128 Ltmp468-Lfunc_begin10  
	.byte	0                       
	.uleb128 Ltmp471-Lfunc_begin10  
	.uleb128 Ltmp474-Ltmp471        
	.uleb128 Ltmp482-Lfunc_begin10  
	.byte	0                       
	.uleb128 Ltmp475-Lfunc_begin10  
	.uleb128 Ltmp476-Ltmp475        
	.uleb128 Ltmp477-Lfunc_begin10  
	.byte	0                       
	.uleb128 Ltmp480-Lfunc_begin10  
	.uleb128 Ltmp481-Ltmp480        
	.uleb128 Ltmp482-Lfunc_begin10  
	.byte	0                       
	.uleb128 Ltmp361-Lfunc_begin10  
	.uleb128 Ltmp479-Ltmp361        
	.uleb128 Ltmp519-Lfunc_begin10  
	.byte	1                       
	.uleb128 Ltmp479-Lfunc_begin10  
	.uleb128 Ltmp385-Ltmp479        
	.byte	0                       
	.byte	0                       
	.uleb128 Ltmp385-Lfunc_begin10  
	.uleb128 Ltmp386-Ltmp385        
	.uleb128 Ltmp387-Lfunc_begin10  
	.byte	0                       
	.uleb128 Ltmp388-Lfunc_begin10  
	.uleb128 Ltmp391-Ltmp388        
	.uleb128 Ltmp392-Lfunc_begin10  
	.byte	0                       
	.uleb128 Ltmp393-Lfunc_begin10  
	.uleb128 Ltmp394-Ltmp393        
	.uleb128 Ltmp519-Lfunc_begin10  
	.byte	1                       
	.uleb128 Ltmp394-Lfunc_begin10  
	.uleb128 Ltmp383-Ltmp394        
	.byte	0                       
	.byte	0                       
	.uleb128 Ltmp383-Lfunc_begin10  
	.uleb128 Ltmp384-Ltmp383        
	.uleb128 Ltmp482-Lfunc_begin10  
	.byte	0                       
	.uleb128 Ltmp485-Lfunc_begin10  
	.uleb128 Ltmp486-Ltmp485        
	.uleb128 Ltmp487-Lfunc_begin10  
	.byte	0                       
	.uleb128 Ltmp490-Lfunc_begin10  
	.uleb128 Ltmp493-Ltmp490        
	.uleb128 Ltmp494-Lfunc_begin10  
	.byte	0                       
	.uleb128 Ltmp483-Lfunc_begin10  
	.uleb128 Ltmp489-Ltmp483        
	.uleb128 Ltmp519-Lfunc_begin10  
	.byte	1                       
	.uleb128 Ltmp497-Lfunc_begin10  
	.uleb128 Ltmp498-Ltmp497        
	.uleb128 Ltmp499-Lfunc_begin10  
	.byte	0                       
	.uleb128 Ltmp502-Lfunc_begin10  
	.uleb128 Ltmp503-Ltmp502        
	.uleb128 Ltmp506-Lfunc_begin10  
	.byte	0                       
	.uleb128 Ltmp495-Lfunc_begin10  
	.uleb128 Ltmp496-Ltmp495        
	.uleb128 Ltmp519-Lfunc_begin10  
	.byte	1                       
	.uleb128 Ltmp496-Lfunc_begin10  
	.uleb128 Ltmp500-Ltmp496        
	.byte	0                       
	.byte	0                       
	.uleb128 Ltmp500-Lfunc_begin10  
	.uleb128 Ltmp508-Ltmp500        
	.uleb128 Ltmp519-Lfunc_begin10  
	.byte	1                       
	.uleb128 Ltmp508-Lfunc_begin10  
	.uleb128 Lfunc_end10-Ltmp508    
	.byte	0                       
	.byte	0                       
Lcst_end10:
	.byte	1                       
                                        
	.byte	0                       
	.p2align	2
                                        
	.long	0                       
Lttbase9:
	.p2align	2
                                        
	.section	__TEXT,__text,regular,pure_instructions
	.globl	__ZN8CryptoPP17ModularArithmeticC1ERKNS_7IntegerE 
	.weak_def_can_be_hidden	__ZN8CryptoPP17ModularArithmeticC1ERKNS_7IntegerE
	.p2align	4, 0x90
__ZN8CryptoPP17ModularArithmeticC1ERKNS_7IntegerE: 
	.cfi_startproc

	push	rbp
	.cfi_def_cfa_offset 16
	.cfi_offset rbp, -16
	mov	rbp, rsp
	.cfi_def_cfa_register rbp
	sub	rsp, 16
	mov	qword ptr [rbp - 8], rdi
	mov	qword ptr [rbp - 16], rsi
	mov	rdi, qword ptr [rbp - 8]
	mov	rsi, qword ptr [rbp - 16]
	call	__ZN8CryptoPP17ModularArithmeticC2ERKNS_7IntegerE
	add	rsp, 16
	pop	rbp
	ret
	.cfi_endproc
                                        
	.globl	__ZN8CryptoPPeqERKNS_7IntegerES2_ 
	.weak_definition	__ZN8CryptoPPeqERKNS_7IntegerES2_
	.p2align	4, 0x90
__ZN8CryptoPPeqERKNS_7IntegerES2_:      
	.cfi_startproc

	push	rbp
	.cfi_def_cfa_offset 16
	.cfi_offset rbp, -16
	mov	rbp, rsp
	.cfi_def_cfa_register rbp
	sub	rsp, 16
	mov	qword ptr [rbp - 8], rdi
	mov	qword ptr [rbp - 16], rsi
	mov	rdi, qword ptr [rbp - 8]
	mov	rsi, qword ptr [rbp - 16]
	call	__ZNK8CryptoPP7Integer7CompareERKS0_
	cmp	eax, 0
	sete	cl
	and	cl, 1
	movzx	eax, cl
	add	rsp, 16
	pop	rbp
	ret
	.cfi_endproc
                                        
	.globl	__ZN8CryptoPPneERKNS_7IntegerES2_ 
	.weak_definition	__ZN8CryptoPPneERKNS_7IntegerES2_
	.p2align	4, 0x90
__ZN8CryptoPPneERKNS_7IntegerES2_:      
	.cfi_startproc

	push	rbp
	.cfi_def_cfa_offset 16
	.cfi_offset rbp, -16
	mov	rbp, rsp
	.cfi_def_cfa_register rbp
	sub	rsp, 16
	mov	qword ptr [rbp - 8], rdi
	mov	qword ptr [rbp - 16], rsi
	mov	rdi, qword ptr [rbp - 8]
	mov	rsi, qword ptr [rbp - 16]
	call	__ZNK8CryptoPP7Integer7CompareERKS0_
	cmp	eax, 0
	setne	cl
	and	cl, 1
	movzx	eax, cl
	add	rsp, 16
	pop	rbp
	ret
	.cfi_endproc
                                        
	.globl	__ZNK8CryptoPP17ModularArithmetic6SquareERKNS_7IntegerE 
	.weak_def_can_be_hidden	__ZNK8CryptoPP17ModularArithmetic6SquareERKNS_7IntegerE
	.p2align	4, 0x90
__ZNK8CryptoPP17ModularArithmetic6SquareERKNS_7IntegerE: 
Lfunc_begin11:
	.cfi_startproc
	.cfi_personality 155, ___gxx_personality_v0
	.cfi_lsda 16, Lexception11

	push	rbp
	.cfi_def_cfa_offset 16
	.cfi_offset rbp, -16
	mov	rbp, rsp
	.cfi_def_cfa_register rbp
	sub	rsp, 160
	mov	qword ptr [rbp - 8], rdi
	mov	qword ptr [rbp - 16], rsi
	mov	rax, qword ptr [rbp - 8]
	mov	rsi, qword ptr [rbp - 16]
	lea	rcx, [rbp - 112]
	mov	rdi, rcx
	mov	qword ptr [rbp - 136], rax 
	mov	qword ptr [rbp - 144], rcx 
	call	__ZNK8CryptoPP7Integer7SquaredEv
	mov	rax, qword ptr [rbp - 136] 
	add	rax, 24
Ltmp520:
	lea	rdi, [rbp - 64]
	mov	rsi, qword ptr [rbp - 144] 
	mov	rdx, rax
	call	__ZN8CryptoPPrmERKNS_7IntegerES2_
Ltmp521:
	jmp	LBB73_1
LBB73_1:
	mov	rax, qword ptr [rbp - 136] 
	add	rax, 120
Ltmp522:
	lea	rsi, [rbp - 64]
	mov	rdi, rax
	call	__ZN8CryptoPP7IntegeraSERKS0_
Ltmp523:
	mov	qword ptr [rbp - 152], rax 
	jmp	LBB73_2
LBB73_2:
Ltmp527:
	lea	rdi, [rbp - 64]
	call	__ZN8CryptoPP7IntegerD1Ev
Ltmp528:
	jmp	LBB73_3
LBB73_3:
	lea	rdi, [rbp - 112]
	call	__ZN8CryptoPP7IntegerD1Ev
	mov	rax, qword ptr [rbp - 152] 
	add	rsp, 160
	pop	rbp
	ret
LBB73_4:
Ltmp529:
                                        
	mov	qword ptr [rbp - 120], rax
	mov	dword ptr [rbp - 124], edx
	jmp	LBB73_7
LBB73_5:
Ltmp524:
                                        
	mov	qword ptr [rbp - 120], rax
	mov	dword ptr [rbp - 124], edx
Ltmp525:
	lea	rdi, [rbp - 64]
	call	__ZN8CryptoPP7IntegerD1Ev
Ltmp526:
	jmp	LBB73_6
LBB73_6:
	jmp	LBB73_7
LBB73_7:
Ltmp530:
	lea	rdi, [rbp - 112]
	call	__ZN8CryptoPP7IntegerD1Ev
Ltmp531:
	jmp	LBB73_8
LBB73_8:
	jmp	LBB73_9
LBB73_9:
	mov	rdi, qword ptr [rbp - 120]
	call	__Unwind_Resume
	ud2
LBB73_10:
Ltmp532:
	mov	rdi, rax
	mov	qword ptr [rbp - 160], rdx 
	call	___clang_call_terminate
Lfunc_end11:
	.cfi_endproc
	.section	__TEXT,__gcc_except_tab
	.p2align	2
GCC_except_table73:
Lexception11:
	.byte	255                     
	.byte	155                     
	.uleb128 Lttbase10-Lttbaseref10
Lttbaseref10:
	.byte	1                       
	.uleb128 Lcst_end11-Lcst_begin11
Lcst_begin11:
	.uleb128 Lfunc_begin11-Lfunc_begin11 
	.uleb128 Ltmp520-Lfunc_begin11  
	.byte	0                       
	.byte	0                       
	.uleb128 Ltmp520-Lfunc_begin11  
	.uleb128 Ltmp521-Ltmp520        
	.uleb128 Ltmp529-Lfunc_begin11  
	.byte	0                       
	.uleb128 Ltmp522-Lfunc_begin11  
	.uleb128 Ltmp523-Ltmp522        
	.uleb128 Ltmp524-Lfunc_begin11  
	.byte	0                       
	.uleb128 Ltmp527-Lfunc_begin11  
	.uleb128 Ltmp528-Ltmp527        
	.uleb128 Ltmp529-Lfunc_begin11  
	.byte	0                       
	.uleb128 Ltmp528-Lfunc_begin11  
	.uleb128 Ltmp525-Ltmp528        
	.byte	0                       
	.byte	0                       
	.uleb128 Ltmp525-Lfunc_begin11  
	.uleb128 Ltmp531-Ltmp525        
	.uleb128 Ltmp532-Lfunc_begin11  
	.byte	1                       
	.uleb128 Ltmp531-Lfunc_begin11  
	.uleb128 Lfunc_end11-Ltmp531    
	.byte	0                       
	.byte	0                       
Lcst_end11:
	.byte	1                       
                                        
	.byte	0                       
	.p2align	2
                                        
	.long	0                       
Lttbase10:
	.p2align	2
                                        
	.section	__TEXT,__text,regular,pure_instructions
	.globl	__ZN8CryptoPP3GCDERKNS_7IntegerES2_ 
	.weak_definition	__ZN8CryptoPP3GCDERKNS_7IntegerES2_
	.p2align	4, 0x90
__ZN8CryptoPP3GCDERKNS_7IntegerES2_:    
	.cfi_startproc

	push	rbp
	.cfi_def_cfa_offset 16
	.cfi_offset rbp, -16
	mov	rbp, rsp
	.cfi_def_cfa_register rbp
	sub	rsp, 32
	mov	rax, rdi
	mov	rcx, rdi
	mov	qword ptr [rbp - 8], rcx
	mov	qword ptr [rbp - 16], rsi
	mov	qword ptr [rbp - 24], rdx
	mov	rsi, qword ptr [rbp - 16]
	mov	rdx, qword ptr [rbp - 24]
	mov	qword ptr [rbp - 32], rax 
	call	__ZN8CryptoPP7Integer3GcdERKS0_S2_
	mov	rax, qword ptr [rbp - 32] 
	add	rsp, 32
	pop	rbp
	ret
	.cfi_endproc
                                        
	.globl	__ZN8CryptoPPdvERKNS_7IntegerES2_ 
	.weak_definition	__ZN8CryptoPPdvERKNS_7IntegerES2_
	.p2align	4, 0x90
__ZN8CryptoPPdvERKNS_7IntegerES2_:      
	.cfi_startproc

	push	rbp
	.cfi_def_cfa_offset 16
	.cfi_offset rbp, -16
	mov	rbp, rsp
	.cfi_def_cfa_register rbp
	sub	rsp, 32
	mov	rax, rdi
	mov	rcx, rdi
	mov	qword ptr [rbp - 8], rcx
	mov	qword ptr [rbp - 16], rsi
	mov	qword ptr [rbp - 24], rdx
	mov	rsi, qword ptr [rbp - 16]
	mov	rdx, qword ptr [rbp - 24]
	mov	qword ptr [rbp - 32], rax 
	call	__ZNK8CryptoPP7Integer9DividedByERKS0_
	mov	rax, qword ptr [rbp - 32] 
	add	rsp, 32
	pop	rbp
	ret
	.cfi_endproc
                                        
	.globl	__ZN8CryptoPP17ModularArithmeticD1Ev 
	.weak_def_can_be_hidden	__ZN8CryptoPP17ModularArithmeticD1Ev
	.p2align	4, 0x90
__ZN8CryptoPP17ModularArithmeticD1Ev:   
	.cfi_startproc

	push	rbp
	.cfi_def_cfa_offset 16
	.cfi_offset rbp, -16
	mov	rbp, rsp
	.cfi_def_cfa_register rbp
	sub	rsp, 16
	mov	qword ptr [rbp - 8], rdi
	mov	rdi, qword ptr [rbp - 8]
	call	__ZN8CryptoPP17ModularArithmeticD2Ev
	add	rsp, 16
	pop	rbp
	ret
	.cfi_endproc
                                        
	.globl	__ZN8CryptoPP21InvertibleRSAFunction19BERDecodePrivateKeyERNS_22BufferedTransformationEbm 
	.p2align	4, 0x90
__ZN8CryptoPP21InvertibleRSAFunction19BERDecodePrivateKeyERNS_22BufferedTransformationEbm: 
Lfunc_begin12:
	.cfi_startproc
	.cfi_personality 155, ___gxx_personality_v0
	.cfi_lsda 16, Lexception12

	push	rbp
	.cfi_def_cfa_offset 16
	.cfi_offset rbp, -16
	mov	rbp, rsp
	.cfi_def_cfa_register rbp
	sub	rsp, 144
                                        
	mov	rax, qword ptr [rip + ___stack_chk_guard@GOTPCREL]
	mov	rax, qword ptr [rax]
	mov	qword ptr [rbp - 8], rax
	mov	qword ptr [rbp - 72], rdi
	mov	qword ptr [rbp - 80], rsi
	and	dl, 1
	mov	byte ptr [rbp - 81], dl
	mov	qword ptr [rbp - 96], rcx
	mov	rax, qword ptr [rbp - 72]
	mov	rsi, qword ptr [rbp - 80]
	lea	rcx, [rbp - 64]
	mov	rdi, rcx
	mov	qword ptr [rbp - 128], rax 
	mov	qword ptr [rbp - 136], rcx 
	call	__ZN8CryptoPP18BERSequenceDecoderC1ERNS_22BufferedTransformationE
Ltmp533:
	lea	rsi, [rbp - 100]
	mov	edx, 2
	xor	r8d, r8d
	mov	rdi, qword ptr [rbp - 136] 
	mov	ecx, r8d
	call	__ZN8CryptoPP17BERDecodeUnsignedIjEEvRNS_22BufferedTransformationERT_hS3_S3_
Ltmp534:
	jmp	LBB77_1
LBB77_1:
	mov	rax, qword ptr [rbp - 128] 
	add	rax, 24
Ltmp535:
	lea	rsi, [rbp - 64]
	mov	rdi, rax
	call	__ZN8CryptoPP7Integer9BERDecodeERNS_22BufferedTransformationE
Ltmp536:
	jmp	LBB77_2
LBB77_2:
	mov	rax, qword ptr [rbp - 128] 
	add	rax, 72
Ltmp537:
	lea	rsi, [rbp - 64]
	mov	rdi, rax
	call	__ZN8CryptoPP7Integer9BERDecodeERNS_22BufferedTransformationE
Ltmp538:
	jmp	LBB77_3
LBB77_3:
	mov	rax, qword ptr [rbp - 128] 
	add	rax, 224
Ltmp539:
	lea	rsi, [rbp - 64]
	mov	rdi, rax
	call	__ZN8CryptoPP7Integer9BERDecodeERNS_22BufferedTransformationE
Ltmp540:
	jmp	LBB77_4
LBB77_4:
	mov	rax, qword ptr [rbp - 128] 
	add	rax, 272
Ltmp541:
	lea	rsi, [rbp - 64]
	mov	rdi, rax
	call	__ZN8CryptoPP7Integer9BERDecodeERNS_22BufferedTransformationE
Ltmp542:
	jmp	LBB77_5
LBB77_5:
	mov	rax, qword ptr [rbp - 128] 
	add	rax, 320
Ltmp543:
	lea	rsi, [rbp - 64]
	mov	rdi, rax
	call	__ZN8CryptoPP7Integer9BERDecodeERNS_22BufferedTransformationE
Ltmp544:
	jmp	LBB77_6
LBB77_6:
	mov	rax, qword ptr [rbp - 128] 
	add	rax, 368
Ltmp545:
	lea	rsi, [rbp - 64]
	mov	rdi, rax
	call	__ZN8CryptoPP7Integer9BERDecodeERNS_22BufferedTransformationE
Ltmp546:
	jmp	LBB77_7
LBB77_7:
	mov	rax, qword ptr [rbp - 128] 
	add	rax, 416
Ltmp547:
	lea	rsi, [rbp - 64]
	mov	rdi, rax
	call	__ZN8CryptoPP7Integer9BERDecodeERNS_22BufferedTransformationE
Ltmp548:
	jmp	LBB77_8
LBB77_8:
	mov	rax, qword ptr [rbp - 128] 
	add	rax, 464
Ltmp549:
	lea	rsi, [rbp - 64]
	mov	rdi, rax
	call	__ZN8CryptoPP7Integer9BERDecodeERNS_22BufferedTransformationE
Ltmp550:
	jmp	LBB77_9
LBB77_9:
Ltmp551:
	lea	rdi, [rbp - 64]
	call	__ZN8CryptoPP17BERGeneralDecoder10MessageEndEv
Ltmp552:
	jmp	LBB77_10
LBB77_10:
	lea	rdi, [rbp - 64]
	call	__ZN8CryptoPP18BERSequenceDecoderD1Ev
	mov	rax, qword ptr [rip + ___stack_chk_guard@GOTPCREL]
	mov	rax, qword ptr [rax]
	mov	rcx, qword ptr [rbp - 8]
	cmp	rax, rcx
	jne	LBB77_16

	add	rsp, 144
	pop	rbp
	ret
LBB77_12:
Ltmp553:
                                        
	mov	qword ptr [rbp - 112], rax
	mov	dword ptr [rbp - 116], edx
Ltmp554:
	lea	rdi, [rbp - 64]
	call	__ZN8CryptoPP18BERSequenceDecoderD1Ev
Ltmp555:
	jmp	LBB77_13
LBB77_13:
	jmp	LBB77_14
LBB77_14:
	mov	rdi, qword ptr [rbp - 112]
	call	__Unwind_Resume
	ud2
LBB77_15:
Ltmp556:
	mov	rdi, rax
	mov	qword ptr [rbp - 144], rdx 
	call	___clang_call_terminate
LBB77_16:
	call	___stack_chk_fail
	ud2
Lfunc_end12:
	.cfi_endproc
	.section	__TEXT,__gcc_except_tab
	.p2align	2
GCC_except_table77:
Lexception12:
	.byte	255                     
	.byte	155                     
	.uleb128 Lttbase11-Lttbaseref11
Lttbaseref11:
	.byte	1                       
	.uleb128 Lcst_end12-Lcst_begin12
Lcst_begin12:
	.uleb128 Lfunc_begin12-Lfunc_begin12 
	.uleb128 Ltmp533-Lfunc_begin12  
	.byte	0                       
	.byte	0                       
	.uleb128 Ltmp533-Lfunc_begin12  
	.uleb128 Ltmp552-Ltmp533        
	.uleb128 Ltmp553-Lfunc_begin12  
	.byte	0                       
	.uleb128 Ltmp552-Lfunc_begin12  
	.uleb128 Ltmp554-Ltmp552        
	.byte	0                       
	.byte	0                       
	.uleb128 Ltmp554-Lfunc_begin12  
	.uleb128 Ltmp555-Ltmp554        
	.uleb128 Ltmp556-Lfunc_begin12  
	.byte	1                       
	.uleb128 Ltmp555-Lfunc_begin12  
	.uleb128 Lfunc_end12-Ltmp555    
	.byte	0                       
	.byte	0                       
Lcst_end12:
	.byte	1                       
                                        
	.byte	0                       
	.p2align	2
                                        
	.long	0                       
Lttbase11:
	.p2align	2
                                        
	.section	__TEXT,__text,regular,pure_instructions
	.globl	__ZN8CryptoPP17BERDecodeUnsignedIjEEvRNS_22BufferedTransformationERT_hS3_S3_ 
	.weak_definition	__ZN8CryptoPP17BERDecodeUnsignedIjEEvRNS_22BufferedTransformationERT_hS3_S3_
	.p2align	4, 0x90
__ZN8CryptoPP17BERDecodeUnsignedIjEEvRNS_22BufferedTransformationERT_hS3_S3_: 
Lfunc_begin13:
	.cfi_startproc
	.cfi_personality 155, ___gxx_personality_v0
	.cfi_lsda 16, Lexception13

	push	rbp
	.cfi_def_cfa_offset 16
	.cfi_offset rbp, -16
	mov	rbp, rsp
	.cfi_def_cfa_register rbp
	sub	rsp, 192
                                        
	mov	qword ptr [rbp - 8], rdi
	mov	qword ptr [rbp - 16], rsi
	mov	byte ptr [rbp - 17], dl
	mov	dword ptr [rbp - 24], ecx
	mov	dword ptr [rbp - 28], r8d
	mov	rax, qword ptr [rbp - 8]
	mov	rsi, qword ptr [rax]
	mov	rdi, rax
	lea	rax, [rbp - 29]
	mov	qword ptr [rbp - 120], rsi 
	mov	rsi, rax
	mov	rax, qword ptr [rbp - 120] 
	call	qword ptr [rax + 168]
	cmp	rax, 0
	je	LBB78_2

	movzx	eax, byte ptr [rbp - 29]
	movzx	ecx, byte ptr [rbp - 17]
	cmp	eax, ecx
	je	LBB78_3
LBB78_2:
	call	__ZN8CryptoPP14BERDecodeErrorEv
LBB78_3:
	mov	rdi, qword ptr [rbp - 8]
	lea	rsi, [rbp - 40]
	call	__ZN8CryptoPP15BERLengthDecodeERNS_22BufferedTransformationERm
	and	al, 1
	mov	byte ptr [rbp - 41], al
	test	byte ptr [rbp - 41], 1
	jne	LBB78_5

	call	__ZN8CryptoPP14BERDecodeErrorEv
LBB78_5:
	mov	rax, qword ptr [rbp - 40]
	mov	rcx, qword ptr [rbp - 8]
	mov	rdx, qword ptr [rcx]
	mov	rdi, rcx
	mov	qword ptr [rbp - 128], rax 
	call	qword ptr [rdx + 152]
	mov	rcx, qword ptr [rbp - 128] 
	cmp	rcx, rax
	jbe	LBB78_7

	call	__ZN8CryptoPP14BERDecodeErrorEv
LBB78_7:
	movzx	eax, byte ptr [rbp - 17]
	cmp	eax, 1
	jne	LBB78_10

	cmp	qword ptr [rbp - 40], 1
	je	LBB78_10

	call	__ZN8CryptoPP14BERDecodeErrorEv
LBB78_10:
	movzx	eax, byte ptr [rbp - 17]
	cmp	eax, 2
	je	LBB78_12

	movzx	eax, byte ptr [rbp - 17]
	cmp	eax, 10
	jne	LBB78_14
LBB78_12:
	cmp	qword ptr [rbp - 40], 0
	jne	LBB78_14

	call	__ZN8CryptoPP14BERDecodeErrorEv
LBB78_14:
	mov	rsi, qword ptr [rbp - 40]
	lea	rax, [rbp - 80]
	mov	rdi, rax
	mov	qword ptr [rbp - 136], rax 
	call	__ZN8CryptoPP8SecBlockIhNS_20AllocatorWithCleanupIhLb0EEEEC1Em
	mov	rax, qword ptr [rbp - 40]
	mov	rcx, qword ptr [rbp - 8]
Ltmp557:
	mov	rdi, qword ptr [rbp - 136] 
	mov	qword ptr [rbp - 144], rax 
	mov	qword ptr [rbp - 152], rcx 
	call	__ZN8CryptoPP8SecBlockIhNS_20AllocatorWithCleanupIhLb0EEEEcvPhEv
Ltmp558:
	mov	qword ptr [rbp - 160], rax 
	jmp	LBB78_15
LBB78_15:
	mov	rdx, qword ptr [rbp - 40]
	mov	rax, qword ptr [rbp - 152] 
	mov	rcx, qword ptr [rax]
	mov	rcx, qword ptr [rcx + 176]
Ltmp559:
	mov	rdi, rax
	mov	rsi, qword ptr [rbp - 160] 
	call	rcx
Ltmp560:
	mov	qword ptr [rbp - 168], rax 
	jmp	LBB78_16
LBB78_16:
	mov	rax, qword ptr [rbp - 144] 
	mov	rcx, qword ptr [rbp - 168] 
	cmp	rax, rcx
	je	LBB78_20

Ltmp561:
	call	__ZN8CryptoPP14BERDecodeErrorEv
Ltmp562:
	jmp	LBB78_18
LBB78_18:
	jmp	LBB78_20
LBB78_19:
Ltmp569:
                                        
	mov	qword ptr [rbp - 88], rax
	mov	dword ptr [rbp - 92], edx
Ltmp570:
	lea	rdi, [rbp - 80]
	call	__ZN8CryptoPP8SecBlockIhNS_20AllocatorWithCleanupIhLb0EEEED1Ev
Ltmp571:
	jmp	LBB78_38
LBB78_20:
Ltmp563:
	lea	rdi, [rbp - 80]
	call	__ZN8CryptoPP8SecBlockIhNS_20AllocatorWithCleanupIhLb0EEEEcvPhEv
Ltmp564:
	mov	qword ptr [rbp - 176], rax 
	jmp	LBB78_21
LBB78_21:
	mov	rax, qword ptr [rbp - 176] 
	mov	qword ptr [rbp - 104], rax
LBB78_22:                               
	xor	eax, eax
                                        
	cmp	qword ptr [rbp - 40], 4
	mov	byte ptr [rbp - 177], al 
	jbe	LBB78_24

	mov	rax, qword ptr [rbp - 104]
	movzx	ecx, byte ptr [rax]
	cmp	ecx, 0
	sete	dl
	mov	byte ptr [rbp - 177], dl 
LBB78_24:                               
	mov	al, byte ptr [rbp - 177] 
	test	al, 1
	jne	LBB78_25
	jmp	LBB78_26
LBB78_25:                               
	mov	rax, qword ptr [rbp - 40]
	add	rax, -1
	mov	qword ptr [rbp - 40], rax
	mov	rax, qword ptr [rbp - 104]
	add	rax, 1
	mov	qword ptr [rbp - 104], rax
	jmp	LBB78_22
LBB78_26:
	cmp	qword ptr [rbp - 40], 4
	jbe	LBB78_29

Ltmp565:
	call	__ZN8CryptoPP14BERDecodeErrorEv
Ltmp566:
	jmp	LBB78_28
LBB78_28:
	jmp	LBB78_29
LBB78_29:
	mov	rax, qword ptr [rbp - 16]
	mov	dword ptr [rax], 0
	mov	dword ptr [rbp - 108], 0
LBB78_30:                               
	mov	eax, dword ptr [rbp - 108]
	mov	ecx, eax
	cmp	rcx, qword ptr [rbp - 40]
	jae	LBB78_33

	mov	rax, qword ptr [rbp - 16]
	mov	ecx, dword ptr [rax]
	shl	ecx, 8
	mov	rax, qword ptr [rbp - 104]
	mov	edx, dword ptr [rbp - 108]
	mov	esi, edx
	movzx	edx, byte ptr [rax + rsi]
	or	ecx, edx
	mov	rax, qword ptr [rbp - 16]
	mov	dword ptr [rax], ecx

	mov	eax, dword ptr [rbp - 108]
	add	eax, 1
	mov	dword ptr [rbp - 108], eax
	jmp	LBB78_30
LBB78_33:
	mov	rax, qword ptr [rbp - 16]
	mov	ecx, dword ptr [rax]
	cmp	ecx, dword ptr [rbp - 24]
	jb	LBB78_35

	mov	rax, qword ptr [rbp - 16]
	mov	ecx, dword ptr [rax]
	cmp	ecx, dword ptr [rbp - 28]
	jbe	LBB78_37
LBB78_35:
Ltmp567:
	call	__ZN8CryptoPP14BERDecodeErrorEv
Ltmp568:
	jmp	LBB78_36
LBB78_36:
	jmp	LBB78_37
LBB78_37:
	lea	rdi, [rbp - 80]
	call	__ZN8CryptoPP8SecBlockIhNS_20AllocatorWithCleanupIhLb0EEEED1Ev
	add	rsp, 192
	pop	rbp
	ret
LBB78_38:
	jmp	LBB78_39
LBB78_39:
	mov	rdi, qword ptr [rbp - 88]
	call	__Unwind_Resume
	ud2
LBB78_40:
Ltmp572:
	mov	rdi, rax
	mov	qword ptr [rbp - 192], rdx 
	call	___clang_call_terminate
Lfunc_end13:
	.cfi_endproc
	.section	__TEXT,__gcc_except_tab
	.p2align	2
GCC_except_table78:
Lexception13:
	.byte	255                     
	.byte	155                     
	.uleb128 Lttbase12-Lttbaseref12
Lttbaseref12:
	.byte	1                       
	.uleb128 Lcst_end13-Lcst_begin13
Lcst_begin13:
	.uleb128 Lfunc_begin13-Lfunc_begin13 
	.uleb128 Ltmp557-Lfunc_begin13  
	.byte	0                       
	.byte	0                       
	.uleb128 Ltmp557-Lfunc_begin13  
	.uleb128 Ltmp562-Ltmp557        
	.uleb128 Ltmp569-Lfunc_begin13  
	.byte	0                       
	.uleb128 Ltmp570-Lfunc_begin13  
	.uleb128 Ltmp571-Ltmp570        
	.uleb128 Ltmp572-Lfunc_begin13  
	.byte	1                       
	.uleb128 Ltmp563-Lfunc_begin13  
	.uleb128 Ltmp568-Ltmp563        
	.uleb128 Ltmp569-Lfunc_begin13  
	.byte	0                       
	.uleb128 Ltmp568-Lfunc_begin13  
	.uleb128 Lfunc_end13-Ltmp568    
	.byte	0                       
	.byte	0                       
Lcst_end13:
	.byte	1                       
                                        
	.byte	0                       
	.p2align	2
                                        
	.long	0                       
Lttbase12:
	.p2align	2
                                        
	.section	__TEXT,__text,regular,pure_instructions
	.globl	__ZThn128_N8CryptoPP21InvertibleRSAFunction19BERDecodePrivateKeyERNS_22BufferedTransformationEbm 
	.p2align	4, 0x90
__ZThn128_N8CryptoPP21InvertibleRSAFunction19BERDecodePrivateKeyERNS_22BufferedTransformationEbm: 
	.cfi_startproc

	push	rbp
	.cfi_def_cfa_offset 16
	.cfi_offset rbp, -16
	mov	rbp, rsp
	.cfi_def_cfa_register rbp
                                        
	mov	qword ptr [rbp - 8], rdi
	mov	qword ptr [rbp - 16], rsi
	and	dl, 1
	mov	byte ptr [rbp - 17], dl
	mov	qword ptr [rbp - 32], rcx
	mov	rax, qword ptr [rbp - 8]
	add	rax, -128
	mov	rsi, qword ptr [rbp - 16]
	mov	dl, byte ptr [rbp - 17]
	mov	rcx, qword ptr [rbp - 32]
	movzx	r8d, dl
	and	r8d, 1
	mov	rdi, rax
	mov	edx, r8d
	pop	rbp
	jmp	__ZN8CryptoPP21InvertibleRSAFunction19BERDecodePrivateKeyERNS_22BufferedTransformationEbm 
	.cfi_endproc
                                        
	.globl	__ZNK8CryptoPP21InvertibleRSAFunction19DEREncodePrivateKeyERNS_22BufferedTransformationE 
	.p2align	4, 0x90
__ZNK8CryptoPP21InvertibleRSAFunction19DEREncodePrivateKeyERNS_22BufferedTransformationE: 
Lfunc_begin14:
	.cfi_startproc
	.cfi_personality 155, ___gxx_personality_v0
	.cfi_lsda 16, Lexception14

	push	rbp
	.cfi_def_cfa_offset 16
	.cfi_offset rbp, -16
	mov	rbp, rsp
	.cfi_def_cfa_register rbp
	sub	rsp, 160
	mov	rax, qword ptr [rip + ___stack_chk_guard@GOTPCREL]
	mov	rax, qword ptr [rax]
	mov	qword ptr [rbp - 8], rax
	mov	qword ptr [rbp - 112], rdi
	mov	qword ptr [rbp - 120], rsi
	mov	rax, qword ptr [rbp - 112]
	mov	rsi, qword ptr [rbp - 120]
	lea	rcx, [rbp - 104]
	mov	rdi, rcx
	mov	qword ptr [rbp - 144], rax 
	mov	qword ptr [rbp - 152], rcx 
	call	__ZN8CryptoPP18DERSequenceEncoderC1ERNS_22BufferedTransformationE
Ltmp573:
	xor	esi, esi
	mov	edx, 2
	mov	rdi, qword ptr [rbp - 152] 
	call	__ZN8CryptoPP17DEREncodeUnsignedIjEEmRNS_22BufferedTransformationET_h
Ltmp574:
	jmp	LBB80_1
LBB80_1:
	mov	rax, qword ptr [rbp - 144] 
	add	rax, 24
Ltmp575:
	lea	rsi, [rbp - 104]
	mov	rdi, rax
	call	__ZNK8CryptoPP7Integer9DEREncodeERNS_22BufferedTransformationE
Ltmp576:
	jmp	LBB80_2
LBB80_2:
	mov	rax, qword ptr [rbp - 144] 
	add	rax, 72
Ltmp577:
	lea	rsi, [rbp - 104]
	mov	rdi, rax
	call	__ZNK8CryptoPP7Integer9DEREncodeERNS_22BufferedTransformationE
Ltmp578:
	jmp	LBB80_3
LBB80_3:
	mov	rax, qword ptr [rbp - 144] 
	add	rax, 224
Ltmp579:
	lea	rsi, [rbp - 104]
	mov	rdi, rax
	call	__ZNK8CryptoPP7Integer9DEREncodeERNS_22BufferedTransformationE
Ltmp580:
	jmp	LBB80_4
LBB80_4:
	mov	rax, qword ptr [rbp - 144] 
	add	rax, 272
Ltmp581:
	lea	rsi, [rbp - 104]
	mov	rdi, rax
	call	__ZNK8CryptoPP7Integer9DEREncodeERNS_22BufferedTransformationE
Ltmp582:
	jmp	LBB80_5
LBB80_5:
	mov	rax, qword ptr [rbp - 144] 
	add	rax, 320
Ltmp583:
	lea	rsi, [rbp - 104]
	mov	rdi, rax
	call	__ZNK8CryptoPP7Integer9DEREncodeERNS_22BufferedTransformationE
Ltmp584:
	jmp	LBB80_6
LBB80_6:
	mov	rax, qword ptr [rbp - 144] 
	add	rax, 368
Ltmp585:
	lea	rsi, [rbp - 104]
	mov	rdi, rax
	call	__ZNK8CryptoPP7Integer9DEREncodeERNS_22BufferedTransformationE
Ltmp586:
	jmp	LBB80_7
LBB80_7:
	mov	rax, qword ptr [rbp - 144] 
	add	rax, 416
Ltmp587:
	lea	rsi, [rbp - 104]
	mov	rdi, rax
	call	__ZNK8CryptoPP7Integer9DEREncodeERNS_22BufferedTransformationE
Ltmp588:
	jmp	LBB80_8
LBB80_8:
	mov	rax, qword ptr [rbp - 144] 
	add	rax, 464
Ltmp589:
	lea	rsi, [rbp - 104]
	mov	rdi, rax
	call	__ZNK8CryptoPP7Integer9DEREncodeERNS_22BufferedTransformationE
Ltmp590:
	jmp	LBB80_9
LBB80_9:
Ltmp591:
	lea	rdi, [rbp - 104]
	call	__ZN8CryptoPP17DERGeneralEncoder10MessageEndEv
Ltmp592:
	jmp	LBB80_10
LBB80_10:
	lea	rdi, [rbp - 104]
	call	__ZN8CryptoPP18DERSequenceEncoderD1Ev
	mov	rax, qword ptr [rip + ___stack_chk_guard@GOTPCREL]
	mov	rax, qword ptr [rax]
	mov	rcx, qword ptr [rbp - 8]
	cmp	rax, rcx
	jne	LBB80_16

	add	rsp, 160
	pop	rbp
	ret
LBB80_12:
Ltmp593:
                                        
	mov	qword ptr [rbp - 128], rax
	mov	dword ptr [rbp - 132], edx
Ltmp594:
	lea	rdi, [rbp - 104]
	call	__ZN8CryptoPP18DERSequenceEncoderD1Ev
Ltmp595:
	jmp	LBB80_13
LBB80_13:
	jmp	LBB80_14
LBB80_14:
	mov	rdi, qword ptr [rbp - 128]
	call	__Unwind_Resume
	ud2
LBB80_15:
Ltmp596:
	mov	rdi, rax
	mov	qword ptr [rbp - 160], rdx 
	call	___clang_call_terminate
LBB80_16:
	call	___stack_chk_fail
	ud2
Lfunc_end14:
	.cfi_endproc
	.section	__TEXT,__gcc_except_tab
	.p2align	2
GCC_except_table80:
Lexception14:
	.byte	255                     
	.byte	155                     
	.uleb128 Lttbase13-Lttbaseref13
Lttbaseref13:
	.byte	1                       
	.uleb128 Lcst_end14-Lcst_begin14
Lcst_begin14:
	.uleb128 Lfunc_begin14-Lfunc_begin14 
	.uleb128 Ltmp573-Lfunc_begin14  
	.byte	0                       
	.byte	0                       
	.uleb128 Ltmp573-Lfunc_begin14  
	.uleb128 Ltmp592-Ltmp573        
	.uleb128 Ltmp593-Lfunc_begin14  
	.byte	0                       
	.uleb128 Ltmp592-Lfunc_begin14  
	.uleb128 Ltmp594-Ltmp592        
	.byte	0                       
	.byte	0                       
	.uleb128 Ltmp594-Lfunc_begin14  
	.uleb128 Ltmp595-Ltmp594        
	.uleb128 Ltmp596-Lfunc_begin14  
	.byte	1                       
	.uleb128 Ltmp595-Lfunc_begin14  
	.uleb128 Lfunc_end14-Ltmp595    
	.byte	0                       
	.byte	0                       
Lcst_end14:
	.byte	1                       
                                        
	.byte	0                       
	.p2align	2
                                        
	.long	0                       
Lttbase13:
	.p2align	2
                                        
	.section	__TEXT,__text,regular,pure_instructions
	.globl	__ZN8CryptoPP17DEREncodeUnsignedIjEEmRNS_22BufferedTransformationET_h 
	.weak_definition	__ZN8CryptoPP17DEREncodeUnsignedIjEEmRNS_22BufferedTransformationET_h
	.p2align	4, 0x90
__ZN8CryptoPP17DEREncodeUnsignedIjEEmRNS_22BufferedTransformationET_h: 
	.cfi_startproc

	push	rbp
	.cfi_def_cfa_offset 16
	.cfi_offset rbp, -16
	mov	rbp, rsp
	.cfi_def_cfa_register rbp
	sub	rsp, 80
                                        
	mov	qword ptr [rbp - 8], rdi
	mov	dword ptr [rbp - 12], esi
	mov	byte ptr [rbp - 13], dl
	movzx	eax, byte ptr [rbp - 13]
	cmp	eax, 1
	jne	LBB81_2

	xor	eax, eax
	mov	ecx, dword ptr [rbp - 12]
	cmp	ecx, 0
	mov	ecx, 255
	cmovne	eax, ecx
                                        
	mov	byte ptr [rbp - 14], al
	mov	dword ptr [rbp - 24], 1
	jmp	LBB81_14
LBB81_2:
	mov	byte ptr [rbp - 18], 0
	mov	dword ptr [rbp - 28], 0
LBB81_3:                                
	mov	eax, dword ptr [rbp - 28]
	mov	ecx, eax
	cmp	rcx, 4
	jae	LBB81_6

	mov	eax, dword ptr [rbp - 12]
	mov	ecx, dword ptr [rbp - 28]
	mov	edx, ecx
	mov	esi, 3
	sub	rsi, rdx
	shl	rsi, 3
                                        
	mov	ecx, esi
                                        
	shr	eax, cl
                                        
	mov	esi, dword ptr [rbp - 28]
	add	esi, 1
	mov	esi, esi
	mov	edx, esi
	mov	byte ptr [rbp + rdx - 18], al

	mov	eax, dword ptr [rbp - 28]
	add	eax, 1
	mov	dword ptr [rbp - 28], eax
	jmp	LBB81_3
LBB81_6:
	mov	dword ptr [rbp - 24], 4
LBB81_7:                                
	xor	eax, eax
                                        
	cmp	dword ptr [rbp - 24], 1
	mov	byte ptr [rbp - 41], al 
	jbe	LBB81_9

	mov	eax, dword ptr [rbp - 24]
	mov	ecx, eax
	mov	edx, 5
	sub	rdx, rcx
	movzx	eax, byte ptr [rbp + rdx - 18]
	cmp	eax, 0
	sete	sil
	mov	byte ptr [rbp - 41], sil 
LBB81_9:                                
	mov	al, byte ptr [rbp - 41] 
	test	al, 1
	jne	LBB81_10
	jmp	LBB81_11
LBB81_10:                               
	mov	eax, dword ptr [rbp - 24]
	add	eax, -1
	mov	dword ptr [rbp - 24], eax
	jmp	LBB81_7
LBB81_11:
	mov	eax, dword ptr [rbp - 24]
	mov	ecx, eax
	mov	edx, 5
	sub	rdx, rcx
	movzx	eax, byte ptr [rbp + rdx - 18]
	and	eax, 128
	cmp	eax, 0
	je	LBB81_13

	mov	eax, dword ptr [rbp - 24]
	add	eax, 1
	mov	dword ptr [rbp - 24], eax
LBB81_13:
	jmp	LBB81_14
LBB81_14:
	mov	rdi, qword ptr [rbp - 8]
	movzx	esi, byte ptr [rbp - 13]
	mov	edx, 1
	call	__ZN8CryptoPP22BufferedTransformation3PutEhb
	mov	rdi, qword ptr [rbp - 8]
	mov	ecx, dword ptr [rbp - 24]
	mov	esi, ecx
	mov	qword ptr [rbp - 56], rax 
	call	__ZN8CryptoPP15DERLengthEncodeERNS_22BufferedTransformationEm
	xor	ecx, ecx
	mov	esi, ecx
	lea	rdi, [rbp - 18]
	mov	qword ptr [rbp - 40], rax
	mov	rax, qword ptr [rbp - 8]
	add	rdi, 4
	add	rdi, 1
	mov	ecx, dword ptr [rbp - 24]
	mov	r8d, ecx
	sub	rsi, r8
	add	rdi, rsi
	mov	ecx, dword ptr [rbp - 24]
	mov	edx, ecx
	mov	qword ptr [rbp - 64], rdi 
	mov	rdi, rax
	mov	rsi, qword ptr [rbp - 64] 
	mov	ecx, 1
	call	__ZN8CryptoPP22BufferedTransformation3PutEPKhmb
	mov	rdx, qword ptr [rbp - 40]
	add	rdx, 1
	mov	ecx, dword ptr [rbp - 24]
	mov	esi, ecx
	add	rdx, rsi
	mov	qword ptr [rbp - 72], rax 
	mov	rax, rdx
	add	rsp, 80
	pop	rbp
	ret
	.cfi_endproc
                                        
	.globl	__ZThn128_NK8CryptoPP21InvertibleRSAFunction19DEREncodePrivateKeyERNS_22BufferedTransformationE 
	.p2align	4, 0x90
__ZThn128_NK8CryptoPP21InvertibleRSAFunction19DEREncodePrivateKeyERNS_22BufferedTransformationE: 
	.cfi_startproc

	push	rbp
	.cfi_def_cfa_offset 16
	.cfi_offset rbp, -16
	mov	rbp, rsp
	.cfi_def_cfa_register rbp
	mov	qword ptr [rbp - 8], rdi
	mov	qword ptr [rbp - 16], rsi
	mov	rax, qword ptr [rbp - 8]
	add	rax, -128
	mov	rsi, qword ptr [rbp - 16]
	mov	rdi, rax
	pop	rbp
	jmp	__ZNK8CryptoPP21InvertibleRSAFunction19DEREncodePrivateKeyERNS_22BufferedTransformationE 
	.cfi_endproc
                                        
	.globl	__ZNK8CryptoPP21InvertibleRSAFunction16CalculateInverseERNS_21RandomNumberGeneratorERKNS_7IntegerE 
	.p2align	4, 0x90
__ZNK8CryptoPP21InvertibleRSAFunction16CalculateInverseERNS_21RandomNumberGeneratorERKNS_7IntegerE: 
Lfunc_begin15:
	.cfi_startproc
	.cfi_personality 155, ___gxx_personality_v0
	.cfi_lsda 16, Lexception15

	push	rbp
	.cfi_def_cfa_offset 16
	.cfi_offset rbp, -16
	mov	rbp, rsp
	.cfi_def_cfa_register rbp
	sub	rsp, 656
	mov	rax, rdi
	mov	qword ptr [rbp - 8], rdi
	mov	qword ptr [rbp - 16], rsi
	mov	qword ptr [rbp - 24], rdx
	mov	qword ptr [rbp - 32], rcx
	mov	rcx, qword ptr [rbp - 16]
	mov	rdx, qword ptr [rcx]
	mov	rdx, qword ptr [rdx - 24]
	mov	rsi, rcx
	add	rsi, rdx
	mov	qword ptr [rbp - 504], rdi 
	mov	rdi, rsi
	mov	qword ptr [rbp - 512], rax 
	mov	qword ptr [rbp - 520], rcx 
	call	__ZNK8CryptoPP14CryptoMaterial18DoQuickSanityCheckEv
	mov	rax, qword ptr [rbp - 520] 
	add	rax, 24
	lea	rdi, [rbp - 200]
	mov	rsi, rax
	call	__ZN8CryptoPP17ModularArithmeticC1ERKNS_7IntegerE
Ltmp597:
	lea	rdi, [rbp - 248]
	call	__ZN8CryptoPP7IntegerC1Ev
Ltmp598:
	jmp	LBB83_1
LBB83_1:
Ltmp599:
	lea	rdi, [rbp - 312]
	call	__ZN8CryptoPP7IntegerC1Ev
Ltmp600:
	jmp	LBB83_2
LBB83_2:
	jmp	LBB83_3
LBB83_3:                                
	mov	rsi, qword ptr [rbp - 24]
Ltmp601:
	mov	qword ptr [rbp - 528], rsi 
	call	__ZN8CryptoPP7Integer3OneEv
Ltmp602:
	mov	qword ptr [rbp - 536], rax 
	jmp	LBB83_4
LBB83_4:                                
	mov	rax, qword ptr [rbp - 520] 
	add	rax, 24
Ltmp603:
	mov	qword ptr [rbp - 544], rax 
	call	__ZN8CryptoPP7Integer3OneEv
Ltmp604:
	mov	qword ptr [rbp - 552], rax 
	jmp	LBB83_5
LBB83_5:                                
Ltmp605:
	lea	rdi, [rbp - 360]
	mov	rsi, qword ptr [rbp - 544] 
	mov	rdx, qword ptr [rbp - 552] 
	call	__ZN8CryptoPPmiERKNS_7IntegerES2_
Ltmp606:
	jmp	LBB83_6
LBB83_6:                                
Ltmp607:
	lea	rdi, [rbp - 248]
	lea	rcx, [rbp - 360]
	mov	rsi, qword ptr [rbp - 528] 
	mov	rdx, qword ptr [rbp - 536] 
	call	__ZN8CryptoPP7Integer9RandomizeERNS_21RandomNumberGeneratorERKS0_S4_
Ltmp608:
	jmp	LBB83_7
LBB83_7:                                
Ltmp612:
	lea	rdi, [rbp - 360]
	call	__ZN8CryptoPP7IntegerD1Ev
Ltmp613:
	jmp	LBB83_8
LBB83_8:                                
Ltmp614:
	lea	rdi, [rbp - 200]
	lea	rsi, [rbp - 248]
	call	__ZNK8CryptoPP17ModularArithmetic21MultiplicativeInverseERKNS_7IntegerE
Ltmp615:
	mov	qword ptr [rbp - 560], rax 
	jmp	LBB83_9
LBB83_9:                                
Ltmp616:
	lea	rdi, [rbp - 312]
	mov	rsi, qword ptr [rbp - 560] 
	call	__ZN8CryptoPP7IntegeraSERKS0_
Ltmp617:
	jmp	LBB83_10
LBB83_10:                               
	jmp	LBB83_11
LBB83_11:                               
Ltmp618:
	lea	rdi, [rbp - 312]
	call	__ZNK8CryptoPP7Integer6IsZeroEv
Ltmp619:
	mov	byte ptr [rbp - 561], al 
	jmp	LBB83_12
LBB83_12:                               
	mov	al, byte ptr [rbp - 561] 
	test	al, 1
	jne	LBB83_3
	jmp	LBB83_13
LBB83_13:
	mov	rax, qword ptr [rbp - 520] 
	add	rax, 72
Ltmp620:
	lea	rdi, [rbp - 408]
	lea	rsi, [rbp - 200]
	lea	rdx, [rbp - 248]
	mov	rcx, rax
	call	__ZNK8CryptoPP12AbstractRingINS_7IntegerEE12ExponentiateERKS1_S4_
Ltmp621:
	jmp	LBB83_14
LBB83_14:
	mov	rdx, qword ptr [rbp - 32]
Ltmp622:
	lea	rdi, [rbp - 200]
	lea	rsi, [rbp - 408]
	call	__ZNK8CryptoPP17ModularArithmetic8MultiplyERKNS_7IntegerES3_
Ltmp623:
	mov	qword ptr [rbp - 576], rax 
	jmp	LBB83_15
LBB83_15:
Ltmp624:
	lea	rdi, [rbp - 408]
	mov	rsi, qword ptr [rbp - 576] 
	call	__ZN8CryptoPP7IntegeraSERKS0_
Ltmp625:
	jmp	LBB83_16
LBB83_16:
	mov	byte ptr [rbp - 409], 0
	mov	rax, qword ptr [rbp - 520] 
	add	rax, 416
	mov	rcx, qword ptr [rbp - 520] 
	add	rcx, 368
	mov	rdx, qword ptr [rbp - 520] 
	add	rdx, 320
	mov	rsi, qword ptr [rbp - 520] 
	add	rsi, 272
	mov	rdi, qword ptr [rbp - 520] 
	add	rdi, 464
Ltmp626:
	mov	r8, rsp
	mov	qword ptr [r8], rdi
	lea	rdi, [rbp - 408]
	mov	r8, qword ptr [rbp - 504] 
	mov	qword ptr [rbp - 584], rdi 
	mov	rdi, r8
	mov	r9, qword ptr [rbp - 584] 
	mov	qword ptr [rbp - 592], rsi 
	mov	rsi, r9
	mov	qword ptr [rbp - 600], rdx 
	mov	rdx, rax
	mov	r8, qword ptr [rbp - 600] 
	mov	r9, qword ptr [rbp - 592] 
	call	__ZN8CryptoPP11ModularRootERKNS_7IntegerES2_S2_S2_S2_S2_
Ltmp627:
	jmp	LBB83_17
LBB83_17:
Ltmp628:
	lea	rdi, [rbp - 200]
	lea	rdx, [rbp - 312]
	mov	rsi, qword ptr [rbp - 504] 
	call	__ZNK8CryptoPP17ModularArithmetic8MultiplyERKNS_7IntegerES3_
Ltmp629:
	mov	qword ptr [rbp - 608], rax 
	jmp	LBB83_18
LBB83_18:
Ltmp630:
	mov	rdi, qword ptr [rbp - 504] 
	mov	rsi, qword ptr [rbp - 608] 
	call	__ZN8CryptoPP7IntegeraSERKS0_
Ltmp631:
	jmp	LBB83_19
LBB83_19:
	mov	rax, qword ptr [rbp - 520] 
	add	rax, 72
Ltmp632:
	lea	rdi, [rbp - 464]
	lea	rsi, [rbp - 200]
	mov	rdx, qword ptr [rbp - 504] 
	mov	rcx, rax
	call	__ZNK8CryptoPP12AbstractRingINS_7IntegerEE12ExponentiateERKS1_S4_
Ltmp633:
	jmp	LBB83_20
LBB83_20:
	mov	rsi, qword ptr [rbp - 32]
Ltmp634:
	lea	rdi, [rbp - 464]
	call	__ZN8CryptoPPneERKNS_7IntegerES2_
Ltmp635:
	mov	byte ptr [rbp - 609], al 
	jmp	LBB83_21
LBB83_21:
Ltmp639:
	lea	rdi, [rbp - 464]
	call	__ZN8CryptoPP7IntegerD1Ev
Ltmp640:
	jmp	LBB83_22
LBB83_22:
	mov	al, byte ptr [rbp - 609] 
	test	al, 1
	jne	LBB83_23
	jmp	LBB83_41
LBB83_23:
	mov	edi, 40
	call	___cxa_allocate_exception
	mov	rcx, rax
	mov	byte ptr [rbp - 489], 1
Ltmp654:
	lea	rsi, [rip + L_.str.3]
	lea	rdi, [rbp - 488]
	mov	qword ptr [rbp - 624], rcx 
	mov	qword ptr [rbp - 632], rax 
	call	__ZNSt3__112basic_stringIcNS_11char_traitsIcEENS_9allocatorIcEEEC1INS_9nullptr_tEEEPKc
Ltmp655:
	jmp	LBB83_24
LBB83_24:
Ltmp657:
	mov	esi, 6
	lea	rdx, [rbp - 488]
	mov	rdi, qword ptr [rbp - 632] 
	call	__ZN8CryptoPP9ExceptionC1ENS0_9ErrorTypeERKNSt3__112basic_stringIcNS2_11char_traitsIcEENS2_9allocatorIcEEEE
Ltmp658:
	jmp	LBB83_25
LBB83_25:
	mov	byte ptr [rbp - 489], 0
Ltmp659:
	mov	rsi, qword ptr [rip + __ZTIN8CryptoPP9ExceptionE@GOTPCREL]
	mov	rdx, qword ptr [rip + __ZN8CryptoPP9ExceptionD1Ev@GOTPCREL]
	mov	rdi, qword ptr [rbp - 624] 
	call	___cxa_throw
Ltmp660:
	jmp	LBB83_60
LBB83_26:
Ltmp653:
                                        
	mov	qword ptr [rbp - 256], rax
	mov	dword ptr [rbp - 260], edx
	jmp	LBB83_56
LBB83_27:
Ltmp650:
                                        
	mov	qword ptr [rbp - 256], rax
	mov	dword ptr [rbp - 260], edx
	jmp	LBB83_54
LBB83_28:
Ltmp647:
                                        
	mov	qword ptr [rbp - 256], rax
	mov	dword ptr [rbp - 260], edx
	jmp	LBB83_51
LBB83_29:
Ltmp609:
                                        
	mov	qword ptr [rbp - 256], rax
	mov	dword ptr [rbp - 260], edx
Ltmp610:
	lea	rdi, [rbp - 360]
	call	__ZN8CryptoPP7IntegerD1Ev
Ltmp611:
	jmp	LBB83_30
LBB83_30:
	jmp	LBB83_51
LBB83_31:
Ltmp644:
                                        
	mov	qword ptr [rbp - 256], rax
	mov	dword ptr [rbp - 260], edx
	jmp	LBB83_48
LBB83_32:
Ltmp641:
                                        
	mov	qword ptr [rbp - 256], rax
	mov	dword ptr [rbp - 260], edx
	jmp	LBB83_45
LBB83_33:
Ltmp636:
                                        
	mov	qword ptr [rbp - 256], rax
	mov	dword ptr [rbp - 260], edx
Ltmp637:
	lea	rdi, [rbp - 464]
	call	__ZN8CryptoPP7IntegerD1Ev
Ltmp638:
	jmp	LBB83_34
LBB83_34:
	jmp	LBB83_45
LBB83_35:
Ltmp656:
                                        
	mov	qword ptr [rbp - 256], rax
	mov	dword ptr [rbp - 260], edx
	jmp	LBB83_38
LBB83_36:
Ltmp661:
                                        
	mov	qword ptr [rbp - 256], rax
	mov	dword ptr [rbp - 260], edx
Ltmp662:
	lea	rdi, [rbp - 488]
	call	__ZNSt3__112basic_stringIcNS_11char_traitsIcEENS_9allocatorIcEEED1Ev
Ltmp663:
	jmp	LBB83_37
LBB83_37:
	jmp	LBB83_38
LBB83_38:
	test	byte ptr [rbp - 489], 1
	jne	LBB83_39
	jmp	LBB83_40
LBB83_39:
	mov	rdi, qword ptr [rbp - 624] 
	call	___cxa_free_exception
LBB83_40:
	jmp	LBB83_45
LBB83_41:
	mov	byte ptr [rbp - 409], 1
	test	byte ptr [rbp - 409], 1
	jne	LBB83_44

Ltmp642:
	mov	rdi, qword ptr [rbp - 504] 
	call	__ZN8CryptoPP7IntegerD1Ev
Ltmp643:
	jmp	LBB83_43
LBB83_43:
	jmp	LBB83_44
LBB83_44:
Ltmp645:
	lea	rdi, [rbp - 408]
	call	__ZN8CryptoPP7IntegerD1Ev
Ltmp646:
	jmp	LBB83_47
LBB83_45:
Ltmp664:
	mov	rdi, qword ptr [rbp - 504] 
	call	__ZN8CryptoPP7IntegerD1Ev
Ltmp665:
	jmp	LBB83_46
LBB83_46:
	jmp	LBB83_48
LBB83_47:
Ltmp648:
	lea	rdi, [rbp - 312]
	call	__ZN8CryptoPP7IntegerD1Ev
Ltmp649:
	jmp	LBB83_50
LBB83_48:
Ltmp666:
	lea	rdi, [rbp - 408]
	call	__ZN8CryptoPP7IntegerD1Ev
Ltmp667:
	jmp	LBB83_49
LBB83_49:
	jmp	LBB83_51
LBB83_50:
Ltmp651:
	lea	rdi, [rbp - 248]
	call	__ZN8CryptoPP7IntegerD1Ev
Ltmp652:
	jmp	LBB83_53
LBB83_51:
Ltmp668:
	lea	rdi, [rbp - 312]
	call	__ZN8CryptoPP7IntegerD1Ev
Ltmp669:
	jmp	LBB83_52
LBB83_52:
	jmp	LBB83_54
LBB83_53:
	lea	rdi, [rbp - 200]
	call	__ZN8CryptoPP17ModularArithmeticD1Ev
	mov	rax, qword ptr [rbp - 512] 
	add	rsp, 656
	pop	rbp
	ret
LBB83_54:
Ltmp670:
	lea	rdi, [rbp - 248]
	call	__ZN8CryptoPP7IntegerD1Ev
Ltmp671:
	jmp	LBB83_55
LBB83_55:
	jmp	LBB83_56
LBB83_56:
Ltmp672:
	lea	rdi, [rbp - 200]
	call	__ZN8CryptoPP17ModularArithmeticD1Ev
Ltmp673:
	jmp	LBB83_57
LBB83_57:
	jmp	LBB83_58
LBB83_58:
	mov	rdi, qword ptr [rbp - 256]
	call	__Unwind_Resume
	ud2
LBB83_59:
Ltmp674:
	mov	rdi, rax
	mov	qword ptr [rbp - 640], rdx 
	call	___clang_call_terminate
LBB83_60:
	ud2
Lfunc_end15:
	.cfi_endproc
	.section	__TEXT,__gcc_except_tab
	.p2align	2
GCC_except_table83:
Lexception15:
	.byte	255                     
	.byte	155                     
	.uleb128 Lttbase14-Lttbaseref14
Lttbaseref14:
	.byte	1                       
	.uleb128 Lcst_end15-Lcst_begin15
Lcst_begin15:
	.uleb128 Lfunc_begin15-Lfunc_begin15 
	.uleb128 Ltmp597-Lfunc_begin15  
	.byte	0                       
	.byte	0                       
	.uleb128 Ltmp597-Lfunc_begin15  
	.uleb128 Ltmp598-Ltmp597        
	.uleb128 Ltmp653-Lfunc_begin15  
	.byte	0                       
	.uleb128 Ltmp599-Lfunc_begin15  
	.uleb128 Ltmp600-Ltmp599        
	.uleb128 Ltmp650-Lfunc_begin15  
	.byte	0                       
	.uleb128 Ltmp601-Lfunc_begin15  
	.uleb128 Ltmp606-Ltmp601        
	.uleb128 Ltmp647-Lfunc_begin15  
	.byte	0                       
	.uleb128 Ltmp607-Lfunc_begin15  
	.uleb128 Ltmp608-Ltmp607        
	.uleb128 Ltmp609-Lfunc_begin15  
	.byte	0                       
	.uleb128 Ltmp612-Lfunc_begin15  
	.uleb128 Ltmp621-Ltmp612        
	.uleb128 Ltmp647-Lfunc_begin15  
	.byte	0                       
	.uleb128 Ltmp622-Lfunc_begin15  
	.uleb128 Ltmp627-Ltmp622        
	.uleb128 Ltmp644-Lfunc_begin15  
	.byte	0                       
	.uleb128 Ltmp628-Lfunc_begin15  
	.uleb128 Ltmp633-Ltmp628        
	.uleb128 Ltmp641-Lfunc_begin15  
	.byte	0                       
	.uleb128 Ltmp634-Lfunc_begin15  
	.uleb128 Ltmp635-Ltmp634        
	.uleb128 Ltmp636-Lfunc_begin15  
	.byte	0                       
	.uleb128 Ltmp639-Lfunc_begin15  
	.uleb128 Ltmp640-Ltmp639        
	.uleb128 Ltmp641-Lfunc_begin15  
	.byte	0                       
	.uleb128 Ltmp640-Lfunc_begin15  
	.uleb128 Ltmp654-Ltmp640        
	.byte	0                       
	.byte	0                       
	.uleb128 Ltmp654-Lfunc_begin15  
	.uleb128 Ltmp655-Ltmp654        
	.uleb128 Ltmp656-Lfunc_begin15  
	.byte	0                       
	.uleb128 Ltmp657-Lfunc_begin15  
	.uleb128 Ltmp660-Ltmp657        
	.uleb128 Ltmp661-Lfunc_begin15  
	.byte	0                       
	.uleb128 Ltmp610-Lfunc_begin15  
	.uleb128 Ltmp663-Ltmp610        
	.uleb128 Ltmp674-Lfunc_begin15  
	.byte	1                       
	.uleb128 Ltmp663-Lfunc_begin15  
	.uleb128 Ltmp642-Ltmp663        
	.byte	0                       
	.byte	0                       
	.uleb128 Ltmp642-Lfunc_begin15  
	.uleb128 Ltmp643-Ltmp642        
	.uleb128 Ltmp644-Lfunc_begin15  
	.byte	0                       
	.uleb128 Ltmp645-Lfunc_begin15  
	.uleb128 Ltmp646-Ltmp645        
	.uleb128 Ltmp647-Lfunc_begin15  
	.byte	0                       
	.uleb128 Ltmp664-Lfunc_begin15  
	.uleb128 Ltmp665-Ltmp664        
	.uleb128 Ltmp674-Lfunc_begin15  
	.byte	1                       
	.uleb128 Ltmp648-Lfunc_begin15  
	.uleb128 Ltmp649-Ltmp648        
	.uleb128 Ltmp650-Lfunc_begin15  
	.byte	0                       
	.uleb128 Ltmp666-Lfunc_begin15  
	.uleb128 Ltmp667-Ltmp666        
	.uleb128 Ltmp674-Lfunc_begin15  
	.byte	1                       
	.uleb128 Ltmp651-Lfunc_begin15  
	.uleb128 Ltmp652-Ltmp651        
	.uleb128 Ltmp653-Lfunc_begin15  
	.byte	0                       
	.uleb128 Ltmp668-Lfunc_begin15  
	.uleb128 Ltmp669-Ltmp668        
	.uleb128 Ltmp674-Lfunc_begin15  
	.byte	1                       
	.uleb128 Ltmp669-Lfunc_begin15  
	.uleb128 Ltmp670-Ltmp669        
	.byte	0                       
	.byte	0                       
	.uleb128 Ltmp670-Lfunc_begin15  
	.uleb128 Ltmp673-Ltmp670        
	.uleb128 Ltmp674-Lfunc_begin15  
	.byte	1                       
	.uleb128 Ltmp673-Lfunc_begin15  
	.uleb128 Lfunc_end15-Ltmp673    
	.byte	0                       
	.byte	0                       
Lcst_end15:
	.byte	1                       
                                        
	.byte	0                       
	.p2align	2
                                        
	.long	0                       
Lttbase14:
	.p2align	2
                                        
	.section	__TEXT,__text,regular,pure_instructions
	.globl	__ZNK8CryptoPP17ModularArithmetic21MultiplicativeInverseERKNS_7IntegerE 
	.weak_def_can_be_hidden	__ZNK8CryptoPP17ModularArithmetic21MultiplicativeInverseERKNS_7IntegerE
	.p2align	4, 0x90
__ZNK8CryptoPP17ModularArithmetic21MultiplicativeInverseERKNS_7IntegerE: 
Lfunc_begin16:
	.cfi_startproc
	.cfi_personality 155, ___gxx_personality_v0
	.cfi_lsda 16, Lexception16

	push	rbp
	.cfi_def_cfa_offset 16
	.cfi_offset rbp, -16
	mov	rbp, rsp
	.cfi_def_cfa_register rbp
	sub	rsp, 112
	mov	qword ptr [rbp - 8], rdi
	mov	qword ptr [rbp - 16], rsi
	mov	rax, qword ptr [rbp - 8]
	mov	rsi, qword ptr [rbp - 16]
	mov	rcx, rax
	add	rcx, 24
	lea	rdx, [rbp - 64]
	mov	rdi, rdx
	mov	qword ptr [rbp - 88], rdx 
	mov	rdx, rcx
	mov	qword ptr [rbp - 96], rax 
	call	__ZNK8CryptoPP7Integer10InverseModERKS0_
	mov	rax, qword ptr [rbp - 96] 
	add	rax, 120
Ltmp675:
	mov	rdi, rax
	mov	rsi, qword ptr [rbp - 88] 
	call	__ZN8CryptoPP7IntegeraSERKS0_
Ltmp676:
	mov	qword ptr [rbp - 104], rax 
	jmp	LBB84_1
LBB84_1:
	lea	rdi, [rbp - 64]
	call	__ZN8CryptoPP7IntegerD1Ev
	mov	rax, qword ptr [rbp - 104] 
	add	rsp, 112
	pop	rbp
	ret
LBB84_2:
Ltmp677:
                                        
	mov	qword ptr [rbp - 72], rax
	mov	dword ptr [rbp - 76], edx
Ltmp678:
	lea	rdi, [rbp - 64]
	call	__ZN8CryptoPP7IntegerD1Ev
Ltmp679:
	jmp	LBB84_3
LBB84_3:
	jmp	LBB84_4
LBB84_4:
	mov	rdi, qword ptr [rbp - 72]
	call	__Unwind_Resume
	ud2
LBB84_5:
Ltmp680:
	mov	rdi, rax
	mov	qword ptr [rbp - 112], rdx 
	call	___clang_call_terminate
Lfunc_end16:
	.cfi_endproc
	.section	__TEXT,__gcc_except_tab
	.p2align	2
GCC_except_table84:
Lexception16:
	.byte	255                     
	.byte	155                     
	.uleb128 Lttbase15-Lttbaseref15
Lttbaseref15:
	.byte	1                       
	.uleb128 Lcst_end16-Lcst_begin16
Lcst_begin16:
	.uleb128 Lfunc_begin16-Lfunc_begin16 
	.uleb128 Ltmp675-Lfunc_begin16  
	.byte	0                       
	.byte	0                       
	.uleb128 Ltmp675-Lfunc_begin16  
	.uleb128 Ltmp676-Ltmp675        
	.uleb128 Ltmp677-Lfunc_begin16  
	.byte	0                       
	.uleb128 Ltmp676-Lfunc_begin16  
	.uleb128 Ltmp678-Ltmp676        
	.byte	0                       
	.byte	0                       
	.uleb128 Ltmp678-Lfunc_begin16  
	.uleb128 Ltmp679-Ltmp678        
	.uleb128 Ltmp680-Lfunc_begin16  
	.byte	1                       
	.uleb128 Ltmp679-Lfunc_begin16  
	.uleb128 Lfunc_end16-Ltmp679    
	.byte	0                       
	.byte	0                       
Lcst_end16:
	.byte	1                       
                                        
	.byte	0                       
	.p2align	2
                                        
	.long	0                       
Lttbase15:
	.p2align	2
                                        
	.section	__TEXT,__text,regular,pure_instructions
	.globl	__ZNK8CryptoPP7Integer6IsZeroEv 
	.weak_definition	__ZNK8CryptoPP7Integer6IsZeroEv
	.p2align	4, 0x90
__ZNK8CryptoPP7Integer6IsZeroEv:        
	.cfi_startproc

	push	rbp
	.cfi_def_cfa_offset 16
	.cfi_offset rbp, -16
	mov	rbp, rsp
	.cfi_def_cfa_register rbp
	sub	rsp, 16
	mov	qword ptr [rbp - 8], rdi
	mov	rdi, qword ptr [rbp - 8]
	call	__ZNK8CryptoPP7IntegerntEv
	and	al, 1
	movzx	eax, al
	add	rsp, 16
	pop	rbp
	ret
	.cfi_endproc
                                        
	.globl	__ZNK8CryptoPP17ModularArithmetic8MultiplyERKNS_7IntegerES3_ 
	.weak_def_can_be_hidden	__ZNK8CryptoPP17ModularArithmetic8MultiplyERKNS_7IntegerES3_
	.p2align	4, 0x90
__ZNK8CryptoPP17ModularArithmetic8MultiplyERKNS_7IntegerES3_: 
Lfunc_begin17:
	.cfi_startproc
	.cfi_personality 155, ___gxx_personality_v0
	.cfi_lsda 16, Lexception17

	push	rbp
	.cfi_def_cfa_offset 16
	.cfi_offset rbp, -16
	mov	rbp, rsp
	.cfi_def_cfa_register rbp
	sub	rsp, 176
	mov	qword ptr [rbp - 8], rdi
	mov	qword ptr [rbp - 16], rsi
	mov	qword ptr [rbp - 24], rdx
	mov	rax, qword ptr [rbp - 8]
	mov	rsi, qword ptr [rbp - 16]
	mov	rdx, qword ptr [rbp - 24]
	lea	rcx, [rbp - 120]
	mov	rdi, rcx
	mov	qword ptr [rbp - 144], rax 
	mov	qword ptr [rbp - 152], rcx 
	call	__ZN8CryptoPPmlERKNS_7IntegerES2_
	mov	rax, qword ptr [rbp - 144] 
	add	rax, 24
Ltmp681:
	lea	rdi, [rbp - 72]
	mov	rsi, qword ptr [rbp - 152] 
	mov	rdx, rax
	call	__ZN8CryptoPPrmERKNS_7IntegerES2_
Ltmp682:
	jmp	LBB86_1
LBB86_1:
	mov	rax, qword ptr [rbp - 144] 
	add	rax, 120
Ltmp683:
	lea	rsi, [rbp - 72]
	mov	rdi, rax
	call	__ZN8CryptoPP7IntegeraSERKS0_
Ltmp684:
	mov	qword ptr [rbp - 160], rax 
	jmp	LBB86_2
LBB86_2:
Ltmp688:
	lea	rdi, [rbp - 72]
	call	__ZN8CryptoPP7IntegerD1Ev
Ltmp689:
	jmp	LBB86_3
LBB86_3:
	lea	rdi, [rbp - 120]
	call	__ZN8CryptoPP7IntegerD1Ev
	mov	rax, qword ptr [rbp - 160] 
	add	rsp, 176
	pop	rbp
	ret
LBB86_4:
Ltmp690:
                                        
	mov	qword ptr [rbp - 128], rax
	mov	dword ptr [rbp - 132], edx
	jmp	LBB86_7
LBB86_5:
Ltmp685:
                                        
	mov	qword ptr [rbp - 128], rax
	mov	dword ptr [rbp - 132], edx
Ltmp686:
	lea	rdi, [rbp - 72]
	call	__ZN8CryptoPP7IntegerD1Ev
Ltmp687:
	jmp	LBB86_6
LBB86_6:
	jmp	LBB86_7
LBB86_7:
Ltmp691:
	lea	rdi, [rbp - 120]
	call	__ZN8CryptoPP7IntegerD1Ev
Ltmp692:
	jmp	LBB86_8
LBB86_8:
	jmp	LBB86_9
LBB86_9:
	mov	rdi, qword ptr [rbp - 128]
	call	__Unwind_Resume
	ud2
LBB86_10:
Ltmp693:
	mov	rdi, rax
	mov	qword ptr [rbp - 168], rdx 
	call	___clang_call_terminate
Lfunc_end17:
	.cfi_endproc
	.section	__TEXT,__gcc_except_tab
	.p2align	2
GCC_except_table86:
Lexception17:
	.byte	255                     
	.byte	155                     
	.uleb128 Lttbase16-Lttbaseref16
Lttbaseref16:
	.byte	1                       
	.uleb128 Lcst_end17-Lcst_begin17
Lcst_begin17:
	.uleb128 Lfunc_begin17-Lfunc_begin17 
	.uleb128 Ltmp681-Lfunc_begin17  
	.byte	0                       
	.byte	0                       
	.uleb128 Ltmp681-Lfunc_begin17  
	.uleb128 Ltmp682-Ltmp681        
	.uleb128 Ltmp690-Lfunc_begin17  
	.byte	0                       
	.uleb128 Ltmp683-Lfunc_begin17  
	.uleb128 Ltmp684-Ltmp683        
	.uleb128 Ltmp685-Lfunc_begin17  
	.byte	0                       
	.uleb128 Ltmp688-Lfunc_begin17  
	.uleb128 Ltmp689-Ltmp688        
	.uleb128 Ltmp690-Lfunc_begin17  
	.byte	0                       
	.uleb128 Ltmp689-Lfunc_begin17  
	.uleb128 Ltmp686-Ltmp689        
	.byte	0                       
	.byte	0                       
	.uleb128 Ltmp686-Lfunc_begin17  
	.uleb128 Ltmp692-Ltmp686        
	.uleb128 Ltmp693-Lfunc_begin17  
	.byte	1                       
	.uleb128 Ltmp692-Lfunc_begin17  
	.uleb128 Lfunc_end17-Ltmp692    
	.byte	0                       
	.byte	0                       
Lcst_end17:
	.byte	1                       
                                        
	.byte	0                       
	.p2align	2
                                        
	.long	0                       
Lttbase16:
	.p2align	2
                                        
	.section	__TEXT,__text,regular,pure_instructions
	.globl	__ZN8CryptoPP9ExceptionC1ENS0_9ErrorTypeERKNSt3__112basic_stringIcNS2_11char_traitsIcEENS2_9allocatorIcEEEE 
	.weak_def_can_be_hidden	__ZN8CryptoPP9ExceptionC1ENS0_9ErrorTypeERKNSt3__112basic_stringIcNS2_11char_traitsIcEENS2_9allocatorIcEEEE
	.p2align	4, 0x90
__ZN8CryptoPP9ExceptionC1ENS0_9ErrorTypeERKNSt3__112basic_stringIcNS2_11char_traitsIcEENS2_9allocatorIcEEEE: 
	.cfi_startproc

	push	rbp
	.cfi_def_cfa_offset 16
	.cfi_offset rbp, -16
	mov	rbp, rsp
	.cfi_def_cfa_register rbp
	sub	rsp, 32
	mov	qword ptr [rbp - 8], rdi
	mov	dword ptr [rbp - 12], esi
	mov	qword ptr [rbp - 24], rdx
	mov	rdi, qword ptr [rbp - 8]
	mov	esi, dword ptr [rbp - 12]
	mov	rdx, qword ptr [rbp - 24]
	call	__ZN8CryptoPP9ExceptionC2ENS0_9ErrorTypeERKNSt3__112basic_stringIcNS2_11char_traitsIcEENS2_9allocatorIcEEEE
	add	rsp, 32
	pop	rbp
	ret
	.cfi_endproc
                                        
	.globl	__ZN8CryptoPP9ExceptionD1Ev 
	.weak_def_can_be_hidden	__ZN8CryptoPP9ExceptionD1Ev
	.p2align	4, 0x90
__ZN8CryptoPP9ExceptionD1Ev:            

	push	rbp
	mov	rbp, rsp
	sub	rsp, 16
	mov	qword ptr [rbp - 8], rdi
	mov	rdi, qword ptr [rbp - 8]
	call	__ZN8CryptoPP9ExceptionD2Ev
	add	rsp, 16
	pop	rbp
	ret
                                        
	.globl	__ZThn120_NK8CryptoPP21InvertibleRSAFunction16CalculateInverseERNS_21RandomNumberGeneratorERKNS_7IntegerE 
	.p2align	4, 0x90
__ZThn120_NK8CryptoPP21InvertibleRSAFunction16CalculateInverseERNS_21RandomNumberGeneratorERKNS_7IntegerE: 
	.cfi_startproc

	push	rbp
	.cfi_def_cfa_offset 16
	.cfi_offset rbp, -16
	mov	rbp, rsp
	.cfi_def_cfa_register rbp
	sub	rsp, 48
	mov	rax, rdi
	mov	r8, rdi
	mov	qword ptr [rbp - 8], r8
	mov	qword ptr [rbp - 16], rsi
	mov	qword ptr [rbp - 24], rdx
	mov	qword ptr [rbp - 32], rcx
	mov	rcx, qword ptr [rbp - 16]
	add	rcx, -120
	mov	rdx, qword ptr [rbp - 24]
	mov	rsi, qword ptr [rbp - 32]
	mov	qword ptr [rbp - 40], rsi 
	mov	rsi, rcx
	mov	rcx, qword ptr [rbp - 40] 
	mov	qword ptr [rbp - 48], rax 
	call	__ZNK8CryptoPP21InvertibleRSAFunction16CalculateInverseERNS_21RandomNumberGeneratorERKNS_7IntegerE
	mov	rax, qword ptr [rbp - 48] 
	add	rsp, 48
	pop	rbp
	ret
	.cfi_endproc
                                        
	.globl	__ZNK8CryptoPP21InvertibleRSAFunction8ValidateERNS_21RandomNumberGeneratorEj 
	.p2align	4, 0x90
__ZNK8CryptoPP21InvertibleRSAFunction8ValidateERNS_21RandomNumberGeneratorEj: 
Lfunc_begin18:
	.cfi_startproc
	.cfi_personality 155, ___gxx_personality_v0
	.cfi_lsda 16, Lexception18

	push	rbp
	.cfi_def_cfa_offset 16
	.cfi_offset rbp, -16
	mov	rbp, rsp
	.cfi_def_cfa_register rbp
	sub	rsp, 1216
	mov	qword ptr [rbp - 8], rdi
	mov	qword ptr [rbp - 16], rsi
	mov	dword ptr [rbp - 20], edx
	mov	rax, qword ptr [rbp - 8]
	mov	rcx, rax
	mov	rsi, qword ptr [rbp - 16]
	mov	edx, dword ptr [rbp - 20]
	mov	rdi, rcx
	mov	qword ptr [rbp - 984], rax 
	call	__ZNK8CryptoPP11RSAFunction8ValidateERNS_21RandomNumberGeneratorEj
	xor	edx, edx
                                        
	and	al, 1
	mov	byte ptr [rbp - 21], al
	test	byte ptr [rbp - 21], 1
	mov	byte ptr [rbp - 985], dl 
	je	LBB90_4

	mov	rax, qword ptr [rbp - 984] 
	add	rax, 272
	mov	qword ptr [rbp - 1000], rax 
	call	__ZN8CryptoPP7Integer3OneEv
	mov	rdi, qword ptr [rbp - 1000] 
	mov	rsi, rax
	call	__ZN8CryptoPPgtERKNS_7IntegerES2_
	xor	ecx, ecx
                                        
	test	al, 1
	mov	byte ptr [rbp - 985], cl 
	jne	LBB90_2
	jmp	LBB90_4
LBB90_2:
	mov	rax, qword ptr [rbp - 984] 
	add	rax, 272
	mov	rdi, rax
	call	__ZNK8CryptoPP7Integer5IsOddEv
	xor	ecx, ecx
                                        
	test	al, 1
	mov	byte ptr [rbp - 985], cl 
	jne	LBB90_3
	jmp	LBB90_4
LBB90_3:
	mov	rax, qword ptr [rbp - 984] 
	add	rax, 272
	mov	rcx, qword ptr [rbp - 984] 
	add	rcx, 24
	mov	rdi, rax
	mov	rsi, rcx
	call	__ZN8CryptoPPltERKNS_7IntegerES2_
	mov	byte ptr [rbp - 985], al 
LBB90_4:
	mov	al, byte ptr [rbp - 985] 
	xor	ecx, ecx
                                        
	and	al, 1
	mov	byte ptr [rbp - 21], al
	test	byte ptr [rbp - 21], 1
	mov	byte ptr [rbp - 1001], cl 
	je	LBB90_8

	mov	rax, qword ptr [rbp - 984] 
	add	rax, 320
	mov	qword ptr [rbp - 1016], rax 
	call	__ZN8CryptoPP7Integer3OneEv
	mov	rdi, qword ptr [rbp - 1016] 
	mov	rsi, rax
	call	__ZN8CryptoPPgtERKNS_7IntegerES2_
	xor	ecx, ecx
                                        
	test	al, 1
	mov	byte ptr [rbp - 1001], cl 
	jne	LBB90_6
	jmp	LBB90_8
LBB90_6:
	mov	rax, qword ptr [rbp - 984] 
	add	rax, 320
	mov	rdi, rax
	call	__ZNK8CryptoPP7Integer5IsOddEv
	xor	ecx, ecx
                                        
	test	al, 1
	mov	byte ptr [rbp - 1001], cl 
	jne	LBB90_7
	jmp	LBB90_8
LBB90_7:
	mov	rax, qword ptr [rbp - 984] 
	add	rax, 320
	mov	rcx, qword ptr [rbp - 984] 
	add	rcx, 24
	mov	rdi, rax
	mov	rsi, rcx
	call	__ZN8CryptoPPltERKNS_7IntegerES2_
	mov	byte ptr [rbp - 1001], al 
LBB90_8:
	mov	al, byte ptr [rbp - 1001] 
	xor	ecx, ecx
                                        
	and	al, 1
	mov	byte ptr [rbp - 21], al
	test	byte ptr [rbp - 21], 1
	mov	byte ptr [rbp - 1017], cl 
	je	LBB90_12

	mov	rax, qword ptr [rbp - 984] 
	add	rax, 224
	mov	qword ptr [rbp - 1032], rax 
	call	__ZN8CryptoPP7Integer3OneEv
	mov	rdi, qword ptr [rbp - 1032] 
	mov	rsi, rax
	call	__ZN8CryptoPPgtERKNS_7IntegerES2_
	xor	ecx, ecx
                                        
	test	al, 1
	mov	byte ptr [rbp - 1017], cl 
	jne	LBB90_10
	jmp	LBB90_12
LBB90_10:
	mov	rax, qword ptr [rbp - 984] 
	add	rax, 224
	mov	rdi, rax
	call	__ZNK8CryptoPP7Integer5IsOddEv
	xor	ecx, ecx
                                        
	test	al, 1
	mov	byte ptr [rbp - 1017], cl 
	jne	LBB90_11
	jmp	LBB90_12
LBB90_11:
	mov	rax, qword ptr [rbp - 984] 
	add	rax, 224
	mov	rcx, qword ptr [rbp - 984] 
	add	rcx, 24
	mov	rdi, rax
	mov	rsi, rcx
	call	__ZN8CryptoPPltERKNS_7IntegerES2_
	mov	byte ptr [rbp - 1017], al 
LBB90_12:
	mov	al, byte ptr [rbp - 1017] 
	xor	ecx, ecx
                                        
	and	al, 1
	mov	byte ptr [rbp - 21], al
	test	byte ptr [rbp - 21], 1
	mov	byte ptr [rbp - 1033], cl 
	je	LBB90_16

	mov	rax, qword ptr [rbp - 984] 
	add	rax, 368
	mov	qword ptr [rbp - 1048], rax 
	call	__ZN8CryptoPP7Integer3OneEv
	mov	rdi, qword ptr [rbp - 1048] 
	mov	rsi, rax
	call	__ZN8CryptoPPgtERKNS_7IntegerES2_
	xor	ecx, ecx
                                        
	test	al, 1
	mov	byte ptr [rbp - 1033], cl 
	jne	LBB90_14
	jmp	LBB90_16
LBB90_14:
	mov	rax, qword ptr [rbp - 984] 
	add	rax, 368
	mov	rdi, rax
	call	__ZNK8CryptoPP7Integer5IsOddEv
	xor	ecx, ecx
                                        
	test	al, 1
	mov	byte ptr [rbp - 1033], cl 
	jne	LBB90_15
	jmp	LBB90_16
LBB90_15:
	mov	rax, qword ptr [rbp - 984] 
	add	rax, 368
	mov	rcx, qword ptr [rbp - 984] 
	add	rcx, 272
	mov	rdi, rax
	mov	rsi, rcx
	call	__ZN8CryptoPPltERKNS_7IntegerES2_
	mov	byte ptr [rbp - 1033], al 
LBB90_16:
	mov	al, byte ptr [rbp - 1033] 
	xor	ecx, ecx
                                        
	and	al, 1
	mov	byte ptr [rbp - 21], al
	test	byte ptr [rbp - 21], 1
	mov	byte ptr [rbp - 1049], cl 
	je	LBB90_20

	mov	rax, qword ptr [rbp - 984] 
	add	rax, 416
	mov	qword ptr [rbp - 1064], rax 
	call	__ZN8CryptoPP7Integer3OneEv
	mov	rdi, qword ptr [rbp - 1064] 
	mov	rsi, rax
	call	__ZN8CryptoPPgtERKNS_7IntegerES2_
	xor	ecx, ecx
                                        
	test	al, 1
	mov	byte ptr [rbp - 1049], cl 
	jne	LBB90_18
	jmp	LBB90_20
LBB90_18:
	mov	rax, qword ptr [rbp - 984] 
	add	rax, 416
	mov	rdi, rax
	call	__ZNK8CryptoPP7Integer5IsOddEv
	xor	ecx, ecx
                                        
	test	al, 1
	mov	byte ptr [rbp - 1049], cl 
	jne	LBB90_19
	jmp	LBB90_20
LBB90_19:
	mov	rax, qword ptr [rbp - 984] 
	add	rax, 416
	mov	rcx, qword ptr [rbp - 984] 
	add	rcx, 320
	mov	rdi, rax
	mov	rsi, rcx
	call	__ZN8CryptoPPltERKNS_7IntegerES2_
	mov	byte ptr [rbp - 1049], al 
LBB90_20:
	mov	al, byte ptr [rbp - 1049] 
	xor	ecx, ecx
                                        
	and	al, 1
	mov	byte ptr [rbp - 21], al
	test	byte ptr [rbp - 21], 1
	mov	byte ptr [rbp - 1065], cl 
	je	LBB90_23

	mov	rax, qword ptr [rbp - 984] 
	add	rax, 464
	mov	rdi, rax
	call	__ZNK8CryptoPP7Integer10IsPositiveEv
	xor	ecx, ecx
                                        
	test	al, 1
	mov	byte ptr [rbp - 1065], cl 
	jne	LBB90_22
	jmp	LBB90_23
LBB90_22:
	mov	rax, qword ptr [rbp - 984] 
	add	rax, 464
	mov	rcx, qword ptr [rbp - 984] 
	add	rcx, 272
	mov	rdi, rax
	mov	rsi, rcx
	call	__ZN8CryptoPPltERKNS_7IntegerES2_
	mov	byte ptr [rbp - 1065], al 
LBB90_23:
	mov	al, byte ptr [rbp - 1065] 
	and	al, 1
	mov	byte ptr [rbp - 21], al
	cmp	dword ptr [rbp - 20], 1
	jb	LBB90_189

	xor	eax, eax
                                        
	mov	cl, byte ptr [rbp - 21]
	mov	byte ptr [rbp - 73], 0
	test	cl, 1
	mov	byte ptr [rbp - 1066], al 
	je	LBB90_27

	mov	rax, qword ptr [rbp - 984] 
	add	rax, 272
	mov	rcx, qword ptr [rbp - 984] 
	add	rcx, 320
	lea	rdx, [rbp - 72]
	mov	rdi, rdx
	mov	rsi, rax
	mov	qword ptr [rbp - 1080], rdx 
	mov	rdx, rcx
	call	__ZN8CryptoPPmlERKNS_7IntegerES2_
	mov	byte ptr [rbp - 73], 1
	mov	rax, qword ptr [rbp - 984] 
	add	rax, 24
Ltmp694:
	mov	rdi, qword ptr [rbp - 1080] 
	mov	rsi, rax
	call	__ZN8CryptoPPeqERKNS_7IntegerES2_
Ltmp695:
	mov	byte ptr [rbp - 1081], al 
	jmp	LBB90_26
LBB90_26:
	mov	al, byte ptr [rbp - 1081] 
	mov	byte ptr [rbp - 1066], al 
	jmp	LBB90_27
LBB90_27:
	mov	al, byte ptr [rbp - 1066] 
	and	al, 1
	mov	byte ptr [rbp - 21], al
	test	byte ptr [rbp - 73], 1
	jne	LBB90_28
	jmp	LBB90_29
LBB90_28:
	lea	rdi, [rbp - 72]
	call	__ZN8CryptoPP7IntegerD1Ev
LBB90_29:
	xor	eax, eax
                                        
	mov	cl, byte ptr [rbp - 21]
	mov	byte ptr [rbp - 193], 0
	mov	byte ptr [rbp - 345], 0
	mov	byte ptr [rbp - 346], 0
	mov	byte ptr [rbp - 449], 0
	mov	byte ptr [rbp - 450], 0
	mov	byte ptr [rbp - 451], 0
	mov	byte ptr [rbp - 452], 0
	mov	byte ptr [rbp - 505], 0
	test	cl, 1
	mov	byte ptr [rbp - 1082], al 
	je	LBB90_39

	mov	rax, qword ptr [rbp - 984] 
	add	rax, 72
	mov	rcx, qword ptr [rbp - 984] 
	add	rcx, 224
	lea	rdi, [rbp - 192]
	mov	rsi, rax
	mov	rdx, rcx
	call	__ZN8CryptoPPmlERKNS_7IntegerES2_
	mov	byte ptr [rbp - 193], 1
	mov	rax, qword ptr [rbp - 984] 
	add	rax, 272
Ltmp699:
	lea	rdi, [rbp - 344]
	mov	esi, 1
	mov	qword ptr [rbp - 1096], rax 
	call	__ZN8CryptoPP7IntegerC1El
Ltmp700:
	jmp	LBB90_31
LBB90_31:
	mov	byte ptr [rbp - 345], 1
Ltmp701:
	lea	rdi, [rbp - 296]
	lea	rdx, [rbp - 344]
	mov	rsi, qword ptr [rbp - 1096] 
	call	__ZN8CryptoPPmiERKNS_7IntegerES2_
Ltmp702:
	jmp	LBB90_32
LBB90_32:
	mov	byte ptr [rbp - 346], 1
	mov	rax, qword ptr [rbp - 984] 
	add	rax, 320
Ltmp703:
	lea	rdi, [rbp - 448]
	mov	esi, 1
	mov	qword ptr [rbp - 1104], rax 
	call	__ZN8CryptoPP7IntegerC1El
Ltmp704:
	jmp	LBB90_33
LBB90_33:
	mov	byte ptr [rbp - 449], 1
Ltmp705:
	lea	rdi, [rbp - 400]
	lea	rdx, [rbp - 448]
	mov	rsi, qword ptr [rbp - 1104] 
	call	__ZN8CryptoPPmiERKNS_7IntegerES2_
Ltmp706:
	jmp	LBB90_34
LBB90_34:
	mov	byte ptr [rbp - 450], 1
Ltmp707:
	lea	rdi, [rbp - 248]
	lea	rsi, [rbp - 296]
	lea	rdx, [rbp - 400]
	call	__ZN8CryptoPP3LCMERKNS_7IntegerES2_
Ltmp708:
	jmp	LBB90_35
LBB90_35:
	mov	byte ptr [rbp - 451], 1
Ltmp709:
	lea	rdi, [rbp - 144]
	lea	rsi, [rbp - 192]
	lea	rdx, [rbp - 248]
	call	__ZN8CryptoPPrmERKNS_7IntegerES2_
Ltmp710:
	jmp	LBB90_36
LBB90_36:
	mov	byte ptr [rbp - 452], 1
Ltmp711:
	lea	rdi, [rbp - 504]
	mov	esi, 1
	call	__ZN8CryptoPP7IntegerC1El
Ltmp712:
	jmp	LBB90_37
LBB90_37:
	mov	byte ptr [rbp - 505], 1
Ltmp713:
	lea	rdi, [rbp - 144]
	lea	rsi, [rbp - 504]
	call	__ZN8CryptoPPeqERKNS_7IntegerES2_
Ltmp714:
	mov	byte ptr [rbp - 1105], al 
	jmp	LBB90_38
LBB90_38:
	mov	al, byte ptr [rbp - 1105] 
	mov	byte ptr [rbp - 1082], al 
	jmp	LBB90_39
LBB90_39:
	mov	al, byte ptr [rbp - 1082] 
	and	al, 1
	mov	byte ptr [rbp - 21], al
	test	byte ptr [rbp - 505], 1
	jne	LBB90_40
	jmp	LBB90_42
LBB90_40:
Ltmp718:
	lea	rdi, [rbp - 504]
	call	__ZN8CryptoPP7IntegerD1Ev
Ltmp719:
	jmp	LBB90_41
LBB90_41:
	jmp	LBB90_42
LBB90_42:
	test	byte ptr [rbp - 452], 1
	jne	LBB90_43
	jmp	LBB90_45
LBB90_43:
Ltmp723:
	lea	rdi, [rbp - 144]
	call	__ZN8CryptoPP7IntegerD1Ev
Ltmp724:
	jmp	LBB90_44
LBB90_44:
	jmp	LBB90_45
LBB90_45:
	test	byte ptr [rbp - 451], 1
	jne	LBB90_46
	jmp	LBB90_48
LBB90_46:
Ltmp728:
	lea	rdi, [rbp - 248]
	call	__ZN8CryptoPP7IntegerD1Ev
Ltmp729:
	jmp	LBB90_47
LBB90_47:
	jmp	LBB90_48
LBB90_48:
	test	byte ptr [rbp - 450], 1
	jne	LBB90_49
	jmp	LBB90_51
LBB90_49:
Ltmp733:
	lea	rdi, [rbp - 400]
	call	__ZN8CryptoPP7IntegerD1Ev
Ltmp734:
	jmp	LBB90_50
LBB90_50:
	jmp	LBB90_51
LBB90_51:
	test	byte ptr [rbp - 449], 1
	jne	LBB90_52
	jmp	LBB90_54
LBB90_52:
Ltmp738:
	lea	rdi, [rbp - 448]
	call	__ZN8CryptoPP7IntegerD1Ev
Ltmp739:
	jmp	LBB90_53
LBB90_53:
	jmp	LBB90_54
LBB90_54:
	test	byte ptr [rbp - 346], 1
	jne	LBB90_55
	jmp	LBB90_57
LBB90_55:
Ltmp743:
	lea	rdi, [rbp - 296]
	call	__ZN8CryptoPP7IntegerD1Ev
Ltmp744:
	jmp	LBB90_56
LBB90_56:
	jmp	LBB90_57
LBB90_57:
	test	byte ptr [rbp - 345], 1
	jne	LBB90_58
	jmp	LBB90_60
LBB90_58:
Ltmp748:
	lea	rdi, [rbp - 344]
	call	__ZN8CryptoPP7IntegerD1Ev
Ltmp749:
	jmp	LBB90_59
LBB90_59:
	jmp	LBB90_60
LBB90_60:
	test	byte ptr [rbp - 193], 1
	jne	LBB90_61
	jmp	LBB90_62
LBB90_61:
	lea	rdi, [rbp - 192]
	call	__ZN8CryptoPP7IntegerD1Ev
LBB90_62:
	xor	eax, eax
                                        
	mov	cl, byte ptr [rbp - 21]
	mov	byte ptr [rbp - 657], 0
	mov	byte ptr [rbp - 658], 0
	mov	byte ptr [rbp - 659], 0
	mov	byte ptr [rbp - 809], 0
	mov	byte ptr [rbp - 810], 0
	mov	byte ptr [rbp - 811], 0
	test	cl, 1
	mov	byte ptr [rbp - 1106], al 
	je	LBB90_72

	mov	rax, qword ptr [rbp - 984] 
	add	rax, 368
	mov	rcx, qword ptr [rbp - 984] 
	add	rcx, 224
	mov	rdx, qword ptr [rbp - 984] 
	add	rdx, 272
	lea	rsi, [rbp - 656]
	mov	edi, 1
	mov	qword ptr [rbp - 1120], rdi 
	mov	rdi, rsi
	mov	r8, qword ptr [rbp - 1120] 
	mov	qword ptr [rbp - 1128], rsi 
	mov	rsi, r8
	mov	qword ptr [rbp - 1136], rax 
	mov	qword ptr [rbp - 1144], rcx 
	mov	qword ptr [rbp - 1152], rdx 
	call	__ZN8CryptoPP7IntegerC1El
	mov	byte ptr [rbp - 657], 1
Ltmp753:
	lea	rdi, [rbp - 608]
	mov	rsi, qword ptr [rbp - 1152] 
	mov	rdx, qword ptr [rbp - 1128] 
	call	__ZN8CryptoPPmiERKNS_7IntegerES2_
Ltmp754:
	jmp	LBB90_64
LBB90_64:
	mov	byte ptr [rbp - 658], 1
Ltmp755:
	lea	rdi, [rbp - 560]
	lea	rdx, [rbp - 608]
	mov	rsi, qword ptr [rbp - 1144] 
	call	__ZN8CryptoPPrmERKNS_7IntegerES2_
Ltmp756:
	jmp	LBB90_65
LBB90_65:
	mov	byte ptr [rbp - 659], 1
Ltmp757:
	lea	rsi, [rbp - 560]
	mov	rdi, qword ptr [rbp - 1136] 
	call	__ZN8CryptoPPeqERKNS_7IntegerES2_
Ltmp758:
	mov	byte ptr [rbp - 1153], al 
	jmp	LBB90_66
LBB90_66:
	xor	eax, eax
                                        
	mov	cl, byte ptr [rbp - 1153] 
	test	cl, 1
	mov	byte ptr [rbp - 1106], al 
	jne	LBB90_67
	jmp	LBB90_72
LBB90_67:
	mov	rax, qword ptr [rbp - 984] 
	add	rax, 416
	mov	rcx, qword ptr [rbp - 984] 
	add	rcx, 224
	mov	rdx, qword ptr [rbp - 984] 
	add	rdx, 320
Ltmp759:
	lea	rdi, [rbp - 808]
	mov	esi, 1
	mov	qword ptr [rbp - 1168], rax 
	mov	qword ptr [rbp - 1176], rcx 
	mov	qword ptr [rbp - 1184], rdx 
	call	__ZN8CryptoPP7IntegerC1El
Ltmp760:
	jmp	LBB90_68
LBB90_68:
	mov	byte ptr [rbp - 809], 1
Ltmp761:
	lea	rdi, [rbp - 760]
	lea	rdx, [rbp - 808]
	mov	rsi, qword ptr [rbp - 1184] 
	call	__ZN8CryptoPPmiERKNS_7IntegerES2_
Ltmp762:
	jmp	LBB90_69
LBB90_69:
	mov	byte ptr [rbp - 810], 1
Ltmp763:
	lea	rdi, [rbp - 712]
	lea	rdx, [rbp - 760]
	mov	rsi, qword ptr [rbp - 1176] 
	call	__ZN8CryptoPPrmERKNS_7IntegerES2_
Ltmp764:
	jmp	LBB90_70
LBB90_70:
	mov	byte ptr [rbp - 811], 1
Ltmp765:
	lea	rsi, [rbp - 712]
	mov	rdi, qword ptr [rbp - 1168] 
	call	__ZN8CryptoPPeqERKNS_7IntegerES2_
Ltmp766:
	mov	byte ptr [rbp - 1185], al 
	jmp	LBB90_71
LBB90_71:
	mov	al, byte ptr [rbp - 1185] 
	mov	byte ptr [rbp - 1106], al 
	jmp	LBB90_72
LBB90_72:
	mov	al, byte ptr [rbp - 1106] 
	and	al, 1
	mov	byte ptr [rbp - 21], al
	test	byte ptr [rbp - 811], 1
	jne	LBB90_73
	jmp	LBB90_75
LBB90_73:
Ltmp770:
	lea	rdi, [rbp - 712]
	call	__ZN8CryptoPP7IntegerD1Ev
Ltmp771:
	jmp	LBB90_74
LBB90_74:
	jmp	LBB90_75
LBB90_75:
	test	byte ptr [rbp - 810], 1
	jne	LBB90_76
	jmp	LBB90_78
LBB90_76:
Ltmp775:
	lea	rdi, [rbp - 760]
	call	__ZN8CryptoPP7IntegerD1Ev
Ltmp776:
	jmp	LBB90_77
LBB90_77:
	jmp	LBB90_78
LBB90_78:
	test	byte ptr [rbp - 809], 1
	jne	LBB90_79
	jmp	LBB90_81
LBB90_79:
Ltmp780:
	lea	rdi, [rbp - 808]
	call	__ZN8CryptoPP7IntegerD1Ev
Ltmp781:
	jmp	LBB90_80
LBB90_80:
	jmp	LBB90_81
LBB90_81:
	test	byte ptr [rbp - 659], 1
	jne	LBB90_82
	jmp	LBB90_84
LBB90_82:
Ltmp785:
	lea	rdi, [rbp - 560]
	call	__ZN8CryptoPP7IntegerD1Ev
Ltmp786:
	jmp	LBB90_83
LBB90_83:
	jmp	LBB90_84
LBB90_84:
	test	byte ptr [rbp - 658], 1
	jne	LBB90_85
	jmp	LBB90_87
LBB90_85:
Ltmp790:
	lea	rdi, [rbp - 608]
	call	__ZN8CryptoPP7IntegerD1Ev
Ltmp791:
	jmp	LBB90_86
LBB90_86:
	jmp	LBB90_87
LBB90_87:
	test	byte ptr [rbp - 657], 1
	jne	LBB90_88
	jmp	LBB90_89
LBB90_88:
	lea	rdi, [rbp - 656]
	call	__ZN8CryptoPP7IntegerD1Ev
LBB90_89:
	xor	eax, eax
                                        
	mov	cl, byte ptr [rbp - 21]
	mov	byte ptr [rbp - 913], 0
	mov	byte ptr [rbp - 914], 0
	mov	byte ptr [rbp - 969], 0
	test	cl, 1
	mov	byte ptr [rbp - 1186], al 
	je	LBB90_94

	mov	rax, qword ptr [rbp - 984] 
	add	rax, 464
	mov	rcx, qword ptr [rbp - 984] 
	add	rcx, 320
	lea	rdx, [rbp - 912]
	mov	rdi, rdx
	mov	rsi, rax
	mov	qword ptr [rbp - 1200], rdx 
	mov	rdx, rcx
	call	__ZN8CryptoPPmlERKNS_7IntegerES2_
	mov	byte ptr [rbp - 913], 1
	mov	rax, qword ptr [rbp - 984] 
	add	rax, 272
Ltmp795:
	lea	rdi, [rbp - 864]
	mov	rsi, qword ptr [rbp - 1200] 
	mov	rdx, rax
	call	__ZN8CryptoPPrmERKNS_7IntegerES2_
Ltmp796:
	jmp	LBB90_91
LBB90_91:
	mov	byte ptr [rbp - 914], 1
Ltmp797:
	lea	rdi, [rbp - 968]
	mov	esi, 1
	call	__ZN8CryptoPP7IntegerC1El
Ltmp798:
	jmp	LBB90_92
LBB90_92:
	mov	byte ptr [rbp - 969], 1
Ltmp799:
	lea	rdi, [rbp - 864]
	lea	rsi, [rbp - 968]
	call	__ZN8CryptoPPeqERKNS_7IntegerES2_
Ltmp800:
	mov	byte ptr [rbp - 1201], al 
	jmp	LBB90_93
LBB90_93:
	mov	al, byte ptr [rbp - 1201] 
	mov	byte ptr [rbp - 1186], al 
	jmp	LBB90_94
LBB90_94:
	mov	al, byte ptr [rbp - 1186] 
	and	al, 1
	mov	byte ptr [rbp - 21], al
	test	byte ptr [rbp - 969], 1
	jne	LBB90_95
	jmp	LBB90_97
LBB90_95:
Ltmp804:
	lea	rdi, [rbp - 968]
	call	__ZN8CryptoPP7IntegerD1Ev
Ltmp805:
	jmp	LBB90_96
LBB90_96:
	jmp	LBB90_97
LBB90_97:
	test	byte ptr [rbp - 914], 1
	jne	LBB90_98
	jmp	LBB90_100
LBB90_98:
Ltmp809:
	lea	rdi, [rbp - 864]
	call	__ZN8CryptoPP7IntegerD1Ev
Ltmp810:
	jmp	LBB90_99
LBB90_99:
	jmp	LBB90_100
LBB90_100:
	test	byte ptr [rbp - 913], 1
	jne	LBB90_101
	jmp	LBB90_102
LBB90_101:
	lea	rdi, [rbp - 912]
	call	__ZN8CryptoPP7IntegerD1Ev
LBB90_102:
	jmp	LBB90_189
LBB90_103:
Ltmp696:
                                        
	mov	qword ptr [rbp - 88], rax
	mov	dword ptr [rbp - 92], edx
	test	byte ptr [rbp - 73], 1
	jne	LBB90_104
	jmp	LBB90_106
LBB90_104:
Ltmp697:
	lea	rdi, [rbp - 72]
	call	__ZN8CryptoPP7IntegerD1Ev
Ltmp698:
	jmp	LBB90_105
LBB90_105:
	jmp	LBB90_106
LBB90_106:
	jmp	LBB90_195
LBB90_107:
Ltmp750:
                                        
	mov	qword ptr [rbp - 88], rax
	mov	dword ptr [rbp - 92], edx
	jmp	LBB90_142
LBB90_108:
Ltmp745:
                                        
	mov	qword ptr [rbp - 88], rax
	mov	dword ptr [rbp - 92], edx
	jmp	LBB90_138
LBB90_109:
Ltmp740:
                                        
	mov	qword ptr [rbp - 88], rax
	mov	dword ptr [rbp - 92], edx
	jmp	LBB90_134
LBB90_110:
Ltmp735:
                                        
	mov	qword ptr [rbp - 88], rax
	mov	dword ptr [rbp - 92], edx
	jmp	LBB90_130
LBB90_111:
Ltmp730:
                                        
	mov	qword ptr [rbp - 88], rax
	mov	dword ptr [rbp - 92], edx
	jmp	LBB90_126
LBB90_112:
Ltmp725:
                                        
	mov	qword ptr [rbp - 88], rax
	mov	dword ptr [rbp - 92], edx
	jmp	LBB90_122
LBB90_113:
Ltmp720:
                                        
	mov	qword ptr [rbp - 88], rax
	mov	dword ptr [rbp - 92], edx
	jmp	LBB90_118
LBB90_114:
Ltmp715:
                                        
	mov	qword ptr [rbp - 88], rax
	mov	dword ptr [rbp - 92], edx
	test	byte ptr [rbp - 505], 1
	jne	LBB90_115
	jmp	LBB90_117
LBB90_115:
Ltmp716:
	lea	rdi, [rbp - 504]
	call	__ZN8CryptoPP7IntegerD1Ev
Ltmp717:
	jmp	LBB90_116
LBB90_116:
	jmp	LBB90_117
LBB90_117:
	jmp	LBB90_118
LBB90_118:
	test	byte ptr [rbp - 452], 1
	jne	LBB90_119
	jmp	LBB90_121
LBB90_119:
Ltmp721:
	lea	rdi, [rbp - 144]
	call	__ZN8CryptoPP7IntegerD1Ev
Ltmp722:
	jmp	LBB90_120
LBB90_120:
	jmp	LBB90_121
LBB90_121:
	jmp	LBB90_122
LBB90_122:
	test	byte ptr [rbp - 451], 1
	jne	LBB90_123
	jmp	LBB90_125
LBB90_123:
Ltmp726:
	lea	rdi, [rbp - 248]
	call	__ZN8CryptoPP7IntegerD1Ev
Ltmp727:
	jmp	LBB90_124
LBB90_124:
	jmp	LBB90_125
LBB90_125:
	jmp	LBB90_126
LBB90_126:
	test	byte ptr [rbp - 450], 1
	jne	LBB90_127
	jmp	LBB90_129
LBB90_127:
Ltmp731:
	lea	rdi, [rbp - 400]
	call	__ZN8CryptoPP7IntegerD1Ev
Ltmp732:
	jmp	LBB90_128
LBB90_128:
	jmp	LBB90_129
LBB90_129:
	jmp	LBB90_130
LBB90_130:
	test	byte ptr [rbp - 449], 1
	jne	LBB90_131
	jmp	LBB90_133
LBB90_131:
Ltmp736:
	lea	rdi, [rbp - 448]
	call	__ZN8CryptoPP7IntegerD1Ev
Ltmp737:
	jmp	LBB90_132
LBB90_132:
	jmp	LBB90_133
LBB90_133:
	jmp	LBB90_134
LBB90_134:
	test	byte ptr [rbp - 346], 1
	jne	LBB90_135
	jmp	LBB90_137
LBB90_135:
Ltmp741:
	lea	rdi, [rbp - 296]
	call	__ZN8CryptoPP7IntegerD1Ev
Ltmp742:
	jmp	LBB90_136
LBB90_136:
	jmp	LBB90_137
LBB90_137:
	jmp	LBB90_138
LBB90_138:
	test	byte ptr [rbp - 345], 1
	jne	LBB90_139
	jmp	LBB90_141
LBB90_139:
Ltmp746:
	lea	rdi, [rbp - 344]
	call	__ZN8CryptoPP7IntegerD1Ev
Ltmp747:
	jmp	LBB90_140
LBB90_140:
	jmp	LBB90_141
LBB90_141:
	jmp	LBB90_142
LBB90_142:
	test	byte ptr [rbp - 193], 1
	jne	LBB90_143
	jmp	LBB90_145
LBB90_143:
Ltmp751:
	lea	rdi, [rbp - 192]
	call	__ZN8CryptoPP7IntegerD1Ev
Ltmp752:
	jmp	LBB90_144
LBB90_144:
	jmp	LBB90_145
LBB90_145:
	jmp	LBB90_195
LBB90_146:
Ltmp792:
                                        
	mov	qword ptr [rbp - 88], rax
	mov	dword ptr [rbp - 92], edx
	jmp	LBB90_171
LBB90_147:
Ltmp787:
                                        
	mov	qword ptr [rbp - 88], rax
	mov	dword ptr [rbp - 92], edx
	jmp	LBB90_167
LBB90_148:
Ltmp782:
                                        
	mov	qword ptr [rbp - 88], rax
	mov	dword ptr [rbp - 92], edx
	jmp	LBB90_163
LBB90_149:
Ltmp777:
                                        
	mov	qword ptr [rbp - 88], rax
	mov	dword ptr [rbp - 92], edx
	jmp	LBB90_159
LBB90_150:
Ltmp772:
                                        
	mov	qword ptr [rbp - 88], rax
	mov	dword ptr [rbp - 92], edx
	jmp	LBB90_155
LBB90_151:
Ltmp767:
                                        
	mov	qword ptr [rbp - 88], rax
	mov	dword ptr [rbp - 92], edx
	test	byte ptr [rbp - 811], 1
	jne	LBB90_152
	jmp	LBB90_154
LBB90_152:
Ltmp768:
	lea	rdi, [rbp - 712]
	call	__ZN8CryptoPP7IntegerD1Ev
Ltmp769:
	jmp	LBB90_153
LBB90_153:
	jmp	LBB90_154
LBB90_154:
	jmp	LBB90_155
LBB90_155:
	test	byte ptr [rbp - 810], 1
	jne	LBB90_156
	jmp	LBB90_158
LBB90_156:
Ltmp773:
	lea	rdi, [rbp - 760]
	call	__ZN8CryptoPP7IntegerD1Ev
Ltmp774:
	jmp	LBB90_157
LBB90_157:
	jmp	LBB90_158
LBB90_158:
	jmp	LBB90_159
LBB90_159:
	test	byte ptr [rbp - 809], 1
	jne	LBB90_160
	jmp	LBB90_162
LBB90_160:
Ltmp778:
	lea	rdi, [rbp - 808]
	call	__ZN8CryptoPP7IntegerD1Ev
Ltmp779:
	jmp	LBB90_161
LBB90_161:
	jmp	LBB90_162
LBB90_162:
	jmp	LBB90_163
LBB90_163:
	test	byte ptr [rbp - 659], 1
	jne	LBB90_164
	jmp	LBB90_166
LBB90_164:
Ltmp783:
	lea	rdi, [rbp - 560]
	call	__ZN8CryptoPP7IntegerD1Ev
Ltmp784:
	jmp	LBB90_165
LBB90_165:
	jmp	LBB90_166
LBB90_166:
	jmp	LBB90_167
LBB90_167:
	test	byte ptr [rbp - 658], 1
	jne	LBB90_168
	jmp	LBB90_170
LBB90_168:
Ltmp788:
	lea	rdi, [rbp - 608]
	call	__ZN8CryptoPP7IntegerD1Ev
Ltmp789:
	jmp	LBB90_169
LBB90_169:
	jmp	LBB90_170
LBB90_170:
	jmp	LBB90_171
LBB90_171:
	test	byte ptr [rbp - 657], 1
	jne	LBB90_172
	jmp	LBB90_174
LBB90_172:
Ltmp793:
	lea	rdi, [rbp - 656]
	call	__ZN8CryptoPP7IntegerD1Ev
Ltmp794:
	jmp	LBB90_173
LBB90_173:
	jmp	LBB90_174
LBB90_174:
	jmp	LBB90_195
LBB90_175:
Ltmp811:
                                        
	mov	qword ptr [rbp - 88], rax
	mov	dword ptr [rbp - 92], edx
	jmp	LBB90_185
LBB90_176:
Ltmp806:
                                        
	mov	qword ptr [rbp - 88], rax
	mov	dword ptr [rbp - 92], edx
	jmp	LBB90_181
LBB90_177:
Ltmp801:
                                        
	mov	qword ptr [rbp - 88], rax
	mov	dword ptr [rbp - 92], edx
	test	byte ptr [rbp - 969], 1
	jne	LBB90_178
	jmp	LBB90_180
LBB90_178:
Ltmp802:
	lea	rdi, [rbp - 968]
	call	__ZN8CryptoPP7IntegerD1Ev
Ltmp803:
	jmp	LBB90_179
LBB90_179:
	jmp	LBB90_180
LBB90_180:
	jmp	LBB90_181
LBB90_181:
	test	byte ptr [rbp - 914], 1
	jne	LBB90_182
	jmp	LBB90_184
LBB90_182:
Ltmp807:
	lea	rdi, [rbp - 864]
	call	__ZN8CryptoPP7IntegerD1Ev
Ltmp808:
	jmp	LBB90_183
LBB90_183:
	jmp	LBB90_184
LBB90_184:
	jmp	LBB90_185
LBB90_185:
	test	byte ptr [rbp - 913], 1
	jne	LBB90_186
	jmp	LBB90_188
LBB90_186:
Ltmp812:
	lea	rdi, [rbp - 912]
	call	__ZN8CryptoPP7IntegerD1Ev
Ltmp813:
	jmp	LBB90_187
LBB90_187:
	jmp	LBB90_188
LBB90_188:
	jmp	LBB90_195
LBB90_189:
	cmp	dword ptr [rbp - 20], 2
	jb	LBB90_194

	xor	eax, eax
                                        
	test	byte ptr [rbp - 21], 1
	mov	byte ptr [rbp - 1202], al 
	je	LBB90_193

	mov	rdi, qword ptr [rbp - 16]
	mov	rax, qword ptr [rbp - 984] 
	add	rax, 272
	mov	ecx, dword ptr [rbp - 20]
	sub	ecx, 2
	mov	rsi, rax
	mov	edx, ecx
	call	__ZN8CryptoPP11VerifyPrimeERNS_21RandomNumberGeneratorERKNS_7IntegerEj
	xor	ecx, ecx
                                        
	test	al, 1
	mov	byte ptr [rbp - 1202], cl 
	jne	LBB90_192
	jmp	LBB90_193
LBB90_192:
	mov	rdi, qword ptr [rbp - 16]
	mov	rax, qword ptr [rbp - 984] 
	add	rax, 320
	mov	ecx, dword ptr [rbp - 20]
	sub	ecx, 2
	mov	rsi, rax
	mov	edx, ecx
	call	__ZN8CryptoPP11VerifyPrimeERNS_21RandomNumberGeneratorERKNS_7IntegerEj
	mov	byte ptr [rbp - 1202], al 
LBB90_193:
	mov	al, byte ptr [rbp - 1202] 
	and	al, 1
	mov	byte ptr [rbp - 21], al
LBB90_194:
	mov	al, byte ptr [rbp - 21]
	and	al, 1
	movzx	eax, al
	add	rsp, 1216
	pop	rbp
	ret
LBB90_195:
	mov	rdi, qword ptr [rbp - 88]
	call	__Unwind_Resume
	ud2
LBB90_196:
Ltmp814:
	mov	rdi, rax
	mov	qword ptr [rbp - 1216], rdx 
	call	___clang_call_terminate
Lfunc_end18:
	.cfi_endproc
	.section	__TEXT,__gcc_except_tab
	.p2align	2
GCC_except_table90:
Lexception18:
	.byte	255                     
	.byte	155                     
	.uleb128 Lttbase17-Lttbaseref17
Lttbaseref17:
	.byte	1                       
	.uleb128 Lcst_end18-Lcst_begin18
Lcst_begin18:
	.uleb128 Lfunc_begin18-Lfunc_begin18 
	.uleb128 Ltmp694-Lfunc_begin18  
	.byte	0                       
	.byte	0                       
	.uleb128 Ltmp694-Lfunc_begin18  
	.uleb128 Ltmp695-Ltmp694        
	.uleb128 Ltmp696-Lfunc_begin18  
	.byte	0                       
	.uleb128 Ltmp695-Lfunc_begin18  
	.uleb128 Ltmp699-Ltmp695        
	.byte	0                       
	.byte	0                       
	.uleb128 Ltmp699-Lfunc_begin18  
	.uleb128 Ltmp700-Ltmp699        
	.uleb128 Ltmp750-Lfunc_begin18  
	.byte	0                       
	.uleb128 Ltmp701-Lfunc_begin18  
	.uleb128 Ltmp702-Ltmp701        
	.uleb128 Ltmp745-Lfunc_begin18  
	.byte	0                       
	.uleb128 Ltmp703-Lfunc_begin18  
	.uleb128 Ltmp704-Ltmp703        
	.uleb128 Ltmp740-Lfunc_begin18  
	.byte	0                       
	.uleb128 Ltmp705-Lfunc_begin18  
	.uleb128 Ltmp706-Ltmp705        
	.uleb128 Ltmp735-Lfunc_begin18  
	.byte	0                       
	.uleb128 Ltmp707-Lfunc_begin18  
	.uleb128 Ltmp708-Ltmp707        
	.uleb128 Ltmp730-Lfunc_begin18  
	.byte	0                       
	.uleb128 Ltmp709-Lfunc_begin18  
	.uleb128 Ltmp710-Ltmp709        
	.uleb128 Ltmp725-Lfunc_begin18  
	.byte	0                       
	.uleb128 Ltmp711-Lfunc_begin18  
	.uleb128 Ltmp712-Ltmp711        
	.uleb128 Ltmp720-Lfunc_begin18  
	.byte	0                       
	.uleb128 Ltmp713-Lfunc_begin18  
	.uleb128 Ltmp714-Ltmp713        
	.uleb128 Ltmp715-Lfunc_begin18  
	.byte	0                       
	.uleb128 Ltmp718-Lfunc_begin18  
	.uleb128 Ltmp719-Ltmp718        
	.uleb128 Ltmp720-Lfunc_begin18  
	.byte	0                       
	.uleb128 Ltmp723-Lfunc_begin18  
	.uleb128 Ltmp724-Ltmp723        
	.uleb128 Ltmp725-Lfunc_begin18  
	.byte	0                       
	.uleb128 Ltmp728-Lfunc_begin18  
	.uleb128 Ltmp729-Ltmp728        
	.uleb128 Ltmp730-Lfunc_begin18  
	.byte	0                       
	.uleb128 Ltmp733-Lfunc_begin18  
	.uleb128 Ltmp734-Ltmp733        
	.uleb128 Ltmp735-Lfunc_begin18  
	.byte	0                       
	.uleb128 Ltmp738-Lfunc_begin18  
	.uleb128 Ltmp739-Ltmp738        
	.uleb128 Ltmp740-Lfunc_begin18  
	.byte	0                       
	.uleb128 Ltmp743-Lfunc_begin18  
	.uleb128 Ltmp744-Ltmp743        
	.uleb128 Ltmp745-Lfunc_begin18  
	.byte	0                       
	.uleb128 Ltmp748-Lfunc_begin18  
	.uleb128 Ltmp749-Ltmp748        
	.uleb128 Ltmp750-Lfunc_begin18  
	.byte	0                       
	.uleb128 Ltmp749-Lfunc_begin18  
	.uleb128 Ltmp753-Ltmp749        
	.byte	0                       
	.byte	0                       
	.uleb128 Ltmp753-Lfunc_begin18  
	.uleb128 Ltmp754-Ltmp753        
	.uleb128 Ltmp792-Lfunc_begin18  
	.byte	0                       
	.uleb128 Ltmp755-Lfunc_begin18  
	.uleb128 Ltmp756-Ltmp755        
	.uleb128 Ltmp787-Lfunc_begin18  
	.byte	0                       
	.uleb128 Ltmp757-Lfunc_begin18  
	.uleb128 Ltmp760-Ltmp757        
	.uleb128 Ltmp782-Lfunc_begin18  
	.byte	0                       
	.uleb128 Ltmp761-Lfunc_begin18  
	.uleb128 Ltmp762-Ltmp761        
	.uleb128 Ltmp777-Lfunc_begin18  
	.byte	0                       
	.uleb128 Ltmp763-Lfunc_begin18  
	.uleb128 Ltmp764-Ltmp763        
	.uleb128 Ltmp772-Lfunc_begin18  
	.byte	0                       
	.uleb128 Ltmp765-Lfunc_begin18  
	.uleb128 Ltmp766-Ltmp765        
	.uleb128 Ltmp767-Lfunc_begin18  
	.byte	0                       
	.uleb128 Ltmp770-Lfunc_begin18  
	.uleb128 Ltmp771-Ltmp770        
	.uleb128 Ltmp772-Lfunc_begin18  
	.byte	0                       
	.uleb128 Ltmp775-Lfunc_begin18  
	.uleb128 Ltmp776-Ltmp775        
	.uleb128 Ltmp777-Lfunc_begin18  
	.byte	0                       
	.uleb128 Ltmp780-Lfunc_begin18  
	.uleb128 Ltmp781-Ltmp780        
	.uleb128 Ltmp782-Lfunc_begin18  
	.byte	0                       
	.uleb128 Ltmp785-Lfunc_begin18  
	.uleb128 Ltmp786-Ltmp785        
	.uleb128 Ltmp787-Lfunc_begin18  
	.byte	0                       
	.uleb128 Ltmp790-Lfunc_begin18  
	.uleb128 Ltmp791-Ltmp790        
	.uleb128 Ltmp792-Lfunc_begin18  
	.byte	0                       
	.uleb128 Ltmp791-Lfunc_begin18  
	.uleb128 Ltmp795-Ltmp791        
	.byte	0                       
	.byte	0                       
	.uleb128 Ltmp795-Lfunc_begin18  
	.uleb128 Ltmp796-Ltmp795        
	.uleb128 Ltmp811-Lfunc_begin18  
	.byte	0                       
	.uleb128 Ltmp797-Lfunc_begin18  
	.uleb128 Ltmp798-Ltmp797        
	.uleb128 Ltmp806-Lfunc_begin18  
	.byte	0                       
	.uleb128 Ltmp799-Lfunc_begin18  
	.uleb128 Ltmp800-Ltmp799        
	.uleb128 Ltmp801-Lfunc_begin18  
	.byte	0                       
	.uleb128 Ltmp804-Lfunc_begin18  
	.uleb128 Ltmp805-Ltmp804        
	.uleb128 Ltmp806-Lfunc_begin18  
	.byte	0                       
	.uleb128 Ltmp809-Lfunc_begin18  
	.uleb128 Ltmp810-Ltmp809        
	.uleb128 Ltmp811-Lfunc_begin18  
	.byte	0                       
	.uleb128 Ltmp810-Lfunc_begin18  
	.uleb128 Ltmp697-Ltmp810        
	.byte	0                       
	.byte	0                       
	.uleb128 Ltmp697-Lfunc_begin18  
	.uleb128 Ltmp813-Ltmp697        
	.uleb128 Ltmp814-Lfunc_begin18  
	.byte	1                       
	.uleb128 Ltmp813-Lfunc_begin18  
	.uleb128 Lfunc_end18-Ltmp813    
	.byte	0                       
	.byte	0                       
Lcst_end18:
	.byte	1                       
                                        
	.byte	0                       
	.p2align	2
                                        
	.long	0                       
Lttbase17:
	.p2align	2
                                        
	.section	__TEXT,__text,regular,pure_instructions
	.globl	__ZNK8CryptoPP7Integer10IsPositiveEv 
	.weak_definition	__ZNK8CryptoPP7Integer10IsPositiveEv
	.p2align	4, 0x90
__ZNK8CryptoPP7Integer10IsPositiveEv:   
	.cfi_startproc

	push	rbp
	.cfi_def_cfa_offset 16
	.cfi_offset rbp, -16
	mov	rbp, rsp
	.cfi_def_cfa_register rbp
	sub	rsp, 32
	mov	qword ptr [rbp - 8], rdi
	mov	rax, qword ptr [rbp - 8]
	mov	rdi, rax
	mov	qword ptr [rbp - 16], rax 
	call	__ZNK8CryptoPP7Integer11NotNegativeEv
	xor	ecx, ecx
                                        
	test	al, 1
	mov	byte ptr [rbp - 17], cl 
	jne	LBB91_1
	jmp	LBB91_2
LBB91_1:
	mov	rdi, qword ptr [rbp - 16] 
	call	__ZNK8CryptoPP7Integer7NotZeroEv
	mov	byte ptr [rbp - 17], al 
LBB91_2:
	mov	al, byte ptr [rbp - 17] 
	and	al, 1
	movzx	eax, al
	add	rsp, 32
	pop	rbp
	ret
	.cfi_endproc
                                        
	.globl	__ZTv0_n48_NK8CryptoPP21InvertibleRSAFunction8ValidateERNS_21RandomNumberGeneratorEj 
	.p2align	4, 0x90
__ZTv0_n48_NK8CryptoPP21InvertibleRSAFunction8ValidateERNS_21RandomNumberGeneratorEj: 
	.cfi_startproc

	push	rbp
	.cfi_def_cfa_offset 16
	.cfi_offset rbp, -16
	mov	rbp, rsp
	.cfi_def_cfa_register rbp
	mov	qword ptr [rbp - 8], rdi
	mov	qword ptr [rbp - 16], rsi
	mov	dword ptr [rbp - 20], edx
	mov	rax, qword ptr [rbp - 8]
	mov	rcx, qword ptr [rax]
	mov	rcx, qword ptr [rcx - 48]
	add	rax, rcx
	mov	rsi, qword ptr [rbp - 16]
	mov	edx, dword ptr [rbp - 20]
	mov	rdi, rax
	pop	rbp
	jmp	__ZNK8CryptoPP21InvertibleRSAFunction8ValidateERNS_21RandomNumberGeneratorEj 
	.cfi_endproc
                                        
	.globl	__ZNK8CryptoPP21InvertibleRSAFunction12GetVoidValueEPKcRKSt9type_infoPv 
	.p2align	4, 0x90
__ZNK8CryptoPP21InvertibleRSAFunction12GetVoidValueEPKcRKSt9type_infoPv: 
	.cfi_startproc

	push	rbp
	.cfi_def_cfa_offset 16
	.cfi_offset rbp, -16
	mov	rbp, rsp
	.cfi_def_cfa_register rbp
	sub	rsp, 224
	mov	qword ptr [rbp - 8], rdi
	mov	qword ptr [rbp - 16], rsi
	mov	qword ptr [rbp - 24], rdx
	mov	qword ptr [rbp - 32], rcx
	mov	rsi, qword ptr [rbp - 8]
	mov	rdx, qword ptr [rbp - 16]
	mov	rcx, qword ptr [rbp - 24]
	mov	r8, qword ptr [rbp - 32]
	xor	eax, eax
	mov	r9d, eax
	lea	rdi, [rbp - 72]
	mov	qword ptr [rbp - 176], rdi 
	call	__ZN8CryptoPP14GetValueHelperINS_11RSAFunctionENS_21InvertibleRSAFunctionEEENS_19GetValueHelperClassIT0_T_EEPKS4_PKcRKSt9type_infoPvPKNS_14NameValuePairsE
	mov	rdi, qword ptr [rbp - 176] 
	call	__ZN8CryptoPP19GetValueHelperClassINS_21InvertibleRSAFunctionENS_11RSAFunctionEE10AssignableEv
	mov	qword ptr [rbp - 184], rax 
	call	__ZN8CryptoPP4Name6Prime1Ev
	mov	rcx, qword ptr [rip + __ZNK8CryptoPP21InvertibleRSAFunction9GetPrime1Ev@GOTPCREL]
	mov	qword ptr [rbp - 88], rcx
	mov	qword ptr [rbp - 80], 0
	mov	rdx, qword ptr [rbp - 88]
	mov	rcx, qword ptr [rbp - 80]
	mov	rdi, qword ptr [rbp - 184] 
	mov	rsi, rax
	call	__ZN8CryptoPP19GetValueHelperClassINS_21InvertibleRSAFunctionENS_11RSAFunctionEEclINS_7IntegerEEERS3_PKcMS1_KFRKT_vE
	mov	qword ptr [rbp - 192], rax 
	call	__ZN8CryptoPP4Name6Prime2Ev
	mov	rcx, qword ptr [rip + __ZNK8CryptoPP21InvertibleRSAFunction9GetPrime2Ev@GOTPCREL]
	mov	qword ptr [rbp - 104], rcx
	mov	qword ptr [rbp - 96], 0
	mov	rdx, qword ptr [rbp - 104]
	mov	rcx, qword ptr [rbp - 96]
	mov	rdi, qword ptr [rbp - 192] 
	mov	rsi, rax
	call	__ZN8CryptoPP19GetValueHelperClassINS_21InvertibleRSAFunctionENS_11RSAFunctionEEclINS_7IntegerEEERS3_PKcMS1_KFRKT_vE
	mov	qword ptr [rbp - 200], rax 
	call	__ZN8CryptoPP4Name15PrivateExponentEv
	mov	rcx, qword ptr [rip + __ZNK8CryptoPP21InvertibleRSAFunction18GetPrivateExponentEv@GOTPCREL]
	mov	qword ptr [rbp - 120], rcx
	mov	qword ptr [rbp - 112], 0
	mov	rdx, qword ptr [rbp - 120]
	mov	rcx, qword ptr [rbp - 112]
	mov	rdi, qword ptr [rbp - 200] 
	mov	rsi, rax
	call	__ZN8CryptoPP19GetValueHelperClassINS_21InvertibleRSAFunctionENS_11RSAFunctionEEclINS_7IntegerEEERS3_PKcMS1_KFRKT_vE
	mov	qword ptr [rbp - 208], rax 
	call	__ZN8CryptoPP4Name24ModPrime1PrivateExponentEv
	mov	rcx, qword ptr [rip + __ZNK8CryptoPP21InvertibleRSAFunction27GetModPrime1PrivateExponentEv@GOTPCREL]
	mov	qword ptr [rbp - 136], rcx
	mov	qword ptr [rbp - 128], 0
	mov	rdx, qword ptr [rbp - 136]
	mov	rcx, qword ptr [rbp - 128]
	mov	rdi, qword ptr [rbp - 208] 
	mov	rsi, rax
	call	__ZN8CryptoPP19GetValueHelperClassINS_21InvertibleRSAFunctionENS_11RSAFunctionEEclINS_7IntegerEEERS3_PKcMS1_KFRKT_vE
	mov	qword ptr [rbp - 216], rax 
	call	__ZN8CryptoPP4Name24ModPrime2PrivateExponentEv
	mov	rcx, qword ptr [rip + __ZNK8CryptoPP21InvertibleRSAFunction27GetModPrime2PrivateExponentEv@GOTPCREL]
	mov	qword ptr [rbp - 152], rcx
	mov	qword ptr [rbp - 144], 0
	mov	rdx, qword ptr [rbp - 152]
	mov	rcx, qword ptr [rbp - 144]
	mov	rdi, qword ptr [rbp - 216] 
	mov	rsi, rax
	call	__ZN8CryptoPP19GetValueHelperClassINS_21InvertibleRSAFunctionENS_11RSAFunctionEEclINS_7IntegerEEERS3_PKcMS1_KFRKT_vE
	mov	qword ptr [rbp - 224], rax 
	call	__ZN8CryptoPP4Name38MultiplicativeInverseOfPrime2ModPrime1Ev
	mov	rcx, qword ptr [rip + __ZNK8CryptoPP21InvertibleRSAFunction41GetMultiplicativeInverseOfPrime2ModPrime1Ev@GOTPCREL]
	mov	qword ptr [rbp - 168], rcx
	mov	qword ptr [rbp - 160], 0
	mov	rdx, qword ptr [rbp - 168]
	mov	rcx, qword ptr [rbp - 160]
	mov	rdi, qword ptr [rbp - 224] 
	mov	rsi, rax
	call	__ZN8CryptoPP19GetValueHelperClassINS_21InvertibleRSAFunctionENS_11RSAFunctionEEclINS_7IntegerEEERS3_PKcMS1_KFRKT_vE
	mov	rdi, rax
	call	__ZNK8CryptoPP19GetValueHelperClassINS_21InvertibleRSAFunctionENS_11RSAFunctionEEcvbEv
	and	al, 1
	movzx	eax, al
	add	rsp, 224
	pop	rbp
	ret
	.cfi_endproc
                                        
	.globl	__ZN8CryptoPP14GetValueHelperINS_11RSAFunctionENS_21InvertibleRSAFunctionEEENS_19GetValueHelperClassIT0_T_EEPKS4_PKcRKSt9type_infoPvPKNS_14NameValuePairsE 
	.weak_definition	__ZN8CryptoPP14GetValueHelperINS_11RSAFunctionENS_21InvertibleRSAFunctionEEENS_19GetValueHelperClassIT0_T_EEPKS4_PKcRKSt9type_infoPvPKNS_14NameValuePairsE
	.p2align	4, 0x90
__ZN8CryptoPP14GetValueHelperINS_11RSAFunctionENS_21InvertibleRSAFunctionEEENS_19GetValueHelperClassIT0_T_EEPKS4_PKcRKSt9type_infoPvPKNS_14NameValuePairsE: 
	.cfi_startproc

	push	rbp
	.cfi_def_cfa_offset 16
	.cfi_offset rbp, -16
	mov	rbp, rsp
	.cfi_def_cfa_register rbp
	sub	rsp, 48
	mov	rax, rdi
	mov	qword ptr [rbp - 8], rsi
	mov	qword ptr [rbp - 16], rdx
	mov	qword ptr [rbp - 24], rcx
	mov	qword ptr [rbp - 32], r8
	mov	qword ptr [rbp - 40], r9
	mov	rsi, qword ptr [rbp - 8]
	mov	rdx, qword ptr [rbp - 16]
	mov	rcx, qword ptr [rbp - 24]
	mov	r8, qword ptr [rbp - 32]
	mov	r9, qword ptr [rbp - 40]
	mov	qword ptr [rbp - 48], rax 
	call	__ZN8CryptoPP19GetValueHelperClassINS_21InvertibleRSAFunctionENS_11RSAFunctionEEC1EPKS1_PKcRKSt9type_infoPvPKNS_14NameValuePairsE
	mov	rax, qword ptr [rbp - 48] 
	add	rsp, 48
	pop	rbp
	ret
	.cfi_endproc
                                        
	.globl	__ZN8CryptoPP19GetValueHelperClassINS_21InvertibleRSAFunctionENS_11RSAFunctionEE10AssignableEv 
	.weak_definition	__ZN8CryptoPP19GetValueHelperClassINS_21InvertibleRSAFunctionENS_11RSAFunctionEE10AssignableEv
	.p2align	4, 0x90
__ZN8CryptoPP19GetValueHelperClassINS_21InvertibleRSAFunctionENS_11RSAFunctionEE10AssignableEv: 
	.cfi_startproc

	push	rbp
	.cfi_def_cfa_offset 16
	.cfi_offset rbp, -16
	mov	rbp, rsp
	.cfi_def_cfa_register rbp
	sub	rsp, 32
	mov	qword ptr [rbp - 8], rdi
	mov	rax, qword ptr [rbp - 8]
	test	byte ptr [rax + 33], 1
	mov	qword ptr [rbp - 16], rax 
	je	LBB95_2

	lea	rax, [rip + __ZTIN8CryptoPP21InvertibleRSAFunctionE]
	mov	rdi, rax
	call	__ZNKSt9type_info4nameEv
	mov	rcx, qword ptr [rbp - 16] 
	mov	rdx, qword ptr [rcx + 24]
	mov	rdi, rdx
	lea	rsi, [rip + L_.str.43]
	mov	qword ptr [rbp - 24], rax 
	call	__ZNSt3__112basic_stringIcNS_11char_traitsIcEENS_9allocatorIcEEEpLEPKc
	mov	rdi, rax
	mov	rsi, qword ptr [rbp - 24] 
	call	__ZNSt3__112basic_stringIcNS_11char_traitsIcEENS_9allocatorIcEEEpLEPKc
	mov	rdi, rax
	mov	esi, 59
	call	__ZNSt3__112basic_stringIcNS_11char_traitsIcEENS_9allocatorIcEEEpLEc
LBB95_2:
	mov	rax, qword ptr [rbp - 16] 
	test	byte ptr [rax + 32], 1
	jne	LBB95_6

	mov	rax, qword ptr [rbp - 16] 
	mov	rdi, qword ptr [rax + 8]
	lea	rsi, [rip + L_.str.43]
	mov	edx, 11
	call	_strncmp
	cmp	eax, 0
	jne	LBB95_6

	lea	rax, [rip + __ZTIN8CryptoPP21InvertibleRSAFunctionE]
	mov	rcx, qword ptr [rbp - 16] 
	mov	rdx, qword ptr [rcx + 8]
	add	rdx, 11
	mov	rdi, rax
	mov	qword ptr [rbp - 32], rdx 
	call	__ZNKSt9type_info4nameEv
	mov	rdi, qword ptr [rbp - 32] 
	mov	rsi, rax
	call	_strcmp
	cmp	eax, 0
	jne	LBB95_6

	lea	rax, [rip + __ZTIN8CryptoPP21InvertibleRSAFunctionE]
	mov	rcx, qword ptr [rbp - 16] 
	mov	rdi, qword ptr [rcx + 8]
	mov	rdx, qword ptr [rcx + 16]
	mov	rsi, rax
	call	__ZN8CryptoPP14NameValuePairs19ThrowIfTypeMismatchEPKcRKSt9type_infoS5_
	mov	rax, qword ptr [rbp - 16] 
	mov	rsi, qword ptr [rax]
	mov	rcx, qword ptr [rax + 24]
	mov	rdi, rcx
	call	__ZN8CryptoPP21InvertibleRSAFunctionaSERKS0_
	mov	rcx, qword ptr [rbp - 16] 
	mov	byte ptr [rcx + 32], 1
LBB95_6:
	mov	rax, qword ptr [rbp - 16] 
	add	rsp, 32
	pop	rbp
	ret
	.cfi_endproc
                                        
	.globl	__ZN8CryptoPP19GetValueHelperClassINS_21InvertibleRSAFunctionENS_11RSAFunctionEEclINS_7IntegerEEERS3_PKcMS1_KFRKT_vE 
	.weak_definition	__ZN8CryptoPP19GetValueHelperClassINS_21InvertibleRSAFunctionENS_11RSAFunctionEEclINS_7IntegerEEERS3_PKcMS1_KFRKT_vE
	.p2align	4, 0x90
__ZN8CryptoPP19GetValueHelperClassINS_21InvertibleRSAFunctionENS_11RSAFunctionEEclINS_7IntegerEEERS3_PKcMS1_KFRKT_vE: 
	.cfi_startproc

	push	rbp
	.cfi_def_cfa_offset 16
	.cfi_offset rbp, -16
	mov	rbp, rsp
	.cfi_def_cfa_register rbp
	sub	rsp, 80
	mov	qword ptr [rbp - 16], rdx
	mov	qword ptr [rbp - 8], rcx
	mov	rax, qword ptr [rbp - 16]
	mov	rcx, qword ptr [rbp - 8]
	mov	qword ptr [rbp - 24], rdi
	mov	qword ptr [rbp - 32], rsi
	mov	qword ptr [rbp - 40], rcx
	mov	qword ptr [rbp - 48], rax
	mov	rax, qword ptr [rbp - 24]
	test	byte ptr [rax + 33], 1
	mov	qword ptr [rbp - 56], rax 
	je	LBB96_2

	mov	rsi, qword ptr [rbp - 32]
	mov	rax, qword ptr [rbp - 56] 
	mov	rcx, qword ptr [rax + 24]
	mov	rdi, rcx
	call	__ZNSt3__112basic_stringIcNS_11char_traitsIcEENS_9allocatorIcEEEpLEPKc
	mov	rdi, rax
	lea	rsi, [rip + L_.str.44]
	call	__ZNSt3__112basic_stringIcNS_11char_traitsIcEENS_9allocatorIcEEEpLEPKc
LBB96_2:
	mov	rax, qword ptr [rbp - 56] 
	test	byte ptr [rax + 32], 1
	jne	LBB96_8

	mov	rdi, qword ptr [rbp - 32]
	mov	rax, qword ptr [rbp - 56] 
	mov	rsi, qword ptr [rax + 8]
	call	_strcmp
	cmp	eax, 0
	jne	LBB96_8

	mov	rdi, qword ptr [rbp - 32]
	mov	rax, qword ptr [rbp - 56] 
	mov	rdx, qword ptr [rax + 16]
	mov	rsi, qword ptr [rip + __ZTIN8CryptoPP7IntegerE@GOTPCREL]
	call	__ZN8CryptoPP14NameValuePairs19ThrowIfTypeMismatchEPKcRKSt9type_infoS5_
	mov	rax, qword ptr [rbp - 56] 
	mov	rcx, qword ptr [rax]
	mov	rdx, qword ptr [rbp - 48]
	mov	rsi, qword ptr [rbp - 40]
	add	rcx, rsi
	mov	rsi, rdx
	and	rsi, 1
	cmp	rsi, 0
	mov	qword ptr [rbp - 64], rdx 
	mov	qword ptr [rbp - 72], rcx 
	je	LBB96_6

	mov	rax, qword ptr [rbp - 72] 
	mov	rcx, qword ptr [rax]
	mov	rdx, qword ptr [rbp - 64] 
	sub	rdx, 1
	mov	rcx, qword ptr [rcx + rdx]
	mov	qword ptr [rbp - 80], rcx 
	jmp	LBB96_7
LBB96_6:
	mov	rax, qword ptr [rbp - 64] 
	mov	qword ptr [rbp - 80], rax 
LBB96_7:
	mov	rax, qword ptr [rbp - 80] 
	mov	rdi, qword ptr [rbp - 72] 
	call	rax
	mov	rcx, qword ptr [rbp - 56] 
	mov	rdx, qword ptr [rcx + 24]
	mov	rdi, rdx
	mov	rsi, rax
	call	__ZN8CryptoPP7IntegeraSERKS0_
	mov	rcx, qword ptr [rbp - 56] 
	mov	byte ptr [rcx + 32], 1
LBB96_8:
	mov	rax, qword ptr [rbp - 56] 
	add	rsp, 80
	pop	rbp
	ret
	.cfi_endproc
                                        
	.globl	__ZN8CryptoPP4Name6Prime1Ev 
	.weak_definition	__ZN8CryptoPP4Name6Prime1Ev
	.p2align	4, 0x90
__ZN8CryptoPP4Name6Prime1Ev:            

	push	rbp
	mov	rbp, rsp
	lea	rax, [rip + L_.str.26]
	pop	rbp
	ret
                                        
	.globl	__ZNK8CryptoPP21InvertibleRSAFunction9GetPrime1Ev 
	.weak_definition	__ZNK8CryptoPP21InvertibleRSAFunction9GetPrime1Ev
	.p2align	4, 0x90
__ZNK8CryptoPP21InvertibleRSAFunction9GetPrime1Ev: 

	push	rbp
	mov	rbp, rsp
	mov	qword ptr [rbp - 8], rdi
	mov	rax, qword ptr [rbp - 8]
	add	rax, 272
	pop	rbp
	ret
                                        
	.globl	__ZN8CryptoPP4Name6Prime2Ev 
	.weak_definition	__ZN8CryptoPP4Name6Prime2Ev
	.p2align	4, 0x90
__ZN8CryptoPP4Name6Prime2Ev:            

	push	rbp
	mov	rbp, rsp
	lea	rax, [rip + L_.str.27]
	pop	rbp
	ret
                                        
	.globl	__ZNK8CryptoPP21InvertibleRSAFunction9GetPrime2Ev 
	.weak_definition	__ZNK8CryptoPP21InvertibleRSAFunction9GetPrime2Ev
	.p2align	4, 0x90
__ZNK8CryptoPP21InvertibleRSAFunction9GetPrime2Ev: 

	push	rbp
	mov	rbp, rsp
	mov	qword ptr [rbp - 8], rdi
	mov	rax, qword ptr [rbp - 8]
	add	rax, 320
	pop	rbp
	ret
                                        
	.globl	__ZN8CryptoPP4Name15PrivateExponentEv 
	.weak_definition	__ZN8CryptoPP4Name15PrivateExponentEv
	.p2align	4, 0x90
__ZN8CryptoPP4Name15PrivateExponentEv:  

	push	rbp
	mov	rbp, rsp
	lea	rax, [rip + L_.str.28]
	pop	rbp
	ret
                                        
	.globl	__ZNK8CryptoPP21InvertibleRSAFunction18GetPrivateExponentEv 
	.weak_definition	__ZNK8CryptoPP21InvertibleRSAFunction18GetPrivateExponentEv
	.p2align	4, 0x90
__ZNK8CryptoPP21InvertibleRSAFunction18GetPrivateExponentEv: 

	push	rbp
	mov	rbp, rsp
	mov	qword ptr [rbp - 8], rdi
	mov	rax, qword ptr [rbp - 8]
	add	rax, 224
	pop	rbp
	ret
                                        
	.globl	__ZN8CryptoPP4Name24ModPrime1PrivateExponentEv 
	.weak_definition	__ZN8CryptoPP4Name24ModPrime1PrivateExponentEv
	.p2align	4, 0x90
__ZN8CryptoPP4Name24ModPrime1PrivateExponentEv: 

	push	rbp
	mov	rbp, rsp
	lea	rax, [rip + L_.str.29]
	pop	rbp
	ret
                                        
	.globl	__ZNK8CryptoPP21InvertibleRSAFunction27GetModPrime1PrivateExponentEv 
	.weak_definition	__ZNK8CryptoPP21InvertibleRSAFunction27GetModPrime1PrivateExponentEv
	.p2align	4, 0x90
__ZNK8CryptoPP21InvertibleRSAFunction27GetModPrime1PrivateExponentEv: 

	push	rbp
	mov	rbp, rsp
	mov	qword ptr [rbp - 8], rdi
	mov	rax, qword ptr [rbp - 8]
	add	rax, 368
	pop	rbp
	ret
                                        
	.globl	__ZN8CryptoPP4Name24ModPrime2PrivateExponentEv 
	.weak_definition	__ZN8CryptoPP4Name24ModPrime2PrivateExponentEv
	.p2align	4, 0x90
__ZN8CryptoPP4Name24ModPrime2PrivateExponentEv: 

	push	rbp
	mov	rbp, rsp
	lea	rax, [rip + L_.str.30]
	pop	rbp
	ret
                                        
	.globl	__ZNK8CryptoPP21InvertibleRSAFunction27GetModPrime2PrivateExponentEv 
	.weak_definition	__ZNK8CryptoPP21InvertibleRSAFunction27GetModPrime2PrivateExponentEv
	.p2align	4, 0x90
__ZNK8CryptoPP21InvertibleRSAFunction27GetModPrime2PrivateExponentEv: 

	push	rbp
	mov	rbp, rsp
	mov	qword ptr [rbp - 8], rdi
	mov	rax, qword ptr [rbp - 8]
	add	rax, 416
	pop	rbp
	ret
                                        
	.globl	__ZN8CryptoPP4Name38MultiplicativeInverseOfPrime2ModPrime1Ev 
	.weak_definition	__ZN8CryptoPP4Name38MultiplicativeInverseOfPrime2ModPrime1Ev
	.p2align	4, 0x90
__ZN8CryptoPP4Name38MultiplicativeInverseOfPrime2ModPrime1Ev: 

	push	rbp
	mov	rbp, rsp
	lea	rax, [rip + L_.str.31]
	pop	rbp
	ret
                                        
	.globl	__ZNK8CryptoPP21InvertibleRSAFunction41GetMultiplicativeInverseOfPrime2ModPrime1Ev 
	.weak_definition	__ZNK8CryptoPP21InvertibleRSAFunction41GetMultiplicativeInverseOfPrime2ModPrime1Ev
	.p2align	4, 0x90
__ZNK8CryptoPP21InvertibleRSAFunction41GetMultiplicativeInverseOfPrime2ModPrime1Ev: 

	push	rbp
	mov	rbp, rsp
	mov	qword ptr [rbp - 8], rdi
	mov	rax, qword ptr [rbp - 8]
	add	rax, 464
	pop	rbp
	ret
                                        
	.globl	__ZNK8CryptoPP19GetValueHelperClassINS_21InvertibleRSAFunctionENS_11RSAFunctionEEcvbEv 
	.weak_definition	__ZNK8CryptoPP19GetValueHelperClassINS_21InvertibleRSAFunctionENS_11RSAFunctionEEcvbEv
	.p2align	4, 0x90
__ZNK8CryptoPP19GetValueHelperClassINS_21InvertibleRSAFunctionENS_11RSAFunctionEEcvbEv: 

	push	rbp
	mov	rbp, rsp
	mov	qword ptr [rbp - 8], rdi
	mov	rax, qword ptr [rbp - 8]
	mov	cl, byte ptr [rax + 32]
	and	cl, 1
	movzx	eax, cl
	pop	rbp
	ret
                                        
	.globl	__ZTv0_n32_NK8CryptoPP21InvertibleRSAFunction12GetVoidValueEPKcRKSt9type_infoPv 
	.p2align	4, 0x90
__ZTv0_n32_NK8CryptoPP21InvertibleRSAFunction12GetVoidValueEPKcRKSt9type_infoPv: 
	.cfi_startproc

	push	rbp
	.cfi_def_cfa_offset 16
	.cfi_offset rbp, -16
	mov	rbp, rsp
	.cfi_def_cfa_register rbp
	mov	qword ptr [rbp - 8], rdi
	mov	qword ptr [rbp - 16], rsi
	mov	qword ptr [rbp - 24], rdx
	mov	qword ptr [rbp - 32], rcx
	mov	rax, qword ptr [rbp - 8]
	mov	rcx, qword ptr [rax]
	mov	rcx, qword ptr [rcx - 32]
	add	rax, rcx
	mov	rsi, qword ptr [rbp - 16]
	mov	rdx, qword ptr [rbp - 24]
	mov	rcx, qword ptr [rbp - 32]
	mov	rdi, rax
	pop	rbp
	jmp	__ZNK8CryptoPP21InvertibleRSAFunction12GetVoidValueEPKcRKSt9type_infoPv 
	.cfi_endproc
                                        
	.globl	__ZN8CryptoPP21InvertibleRSAFunction10AssignFromERKNS_14NameValuePairsE 
	.p2align	4, 0x90
__ZN8CryptoPP21InvertibleRSAFunction10AssignFromERKNS_14NameValuePairsE: 
	.cfi_startproc

	push	rbp
	.cfi_def_cfa_offset 16
	.cfi_offset rbp, -16
	mov	rbp, rsp
	.cfi_def_cfa_register rbp
	sub	rsp, 192
	mov	qword ptr [rbp - 8], rdi
	mov	qword ptr [rbp - 16], rsi
	mov	rsi, qword ptr [rbp - 8]
	mov	rdx, qword ptr [rbp - 16]
	lea	rax, [rbp - 40]
	mov	rdi, rax
	mov	qword ptr [rbp - 144], rax 
	call	__ZN8CryptoPP16AssignFromHelperINS_11RSAFunctionENS_21InvertibleRSAFunctionEEENS_21AssignFromHelperClassIT0_T_EEPS4_RKNS_14NameValuePairsE
	call	__ZN8CryptoPP4Name6Prime1Ev
	mov	rcx, qword ptr [rip + __ZN8CryptoPP21InvertibleRSAFunction9SetPrime1ERKNS_7IntegerE@GOTPCREL]
	mov	qword ptr [rbp - 56], rcx
	mov	qword ptr [rbp - 48], 0
	mov	rdx, qword ptr [rbp - 56]
	mov	rcx, qword ptr [rbp - 48]
	mov	rdi, qword ptr [rbp - 144] 
	mov	rsi, rax
	call	__ZN8CryptoPP21AssignFromHelperClassINS_21InvertibleRSAFunctionENS_11RSAFunctionEEclINS_7IntegerEEERS3_PKcMS1_FvRKT_E
	mov	qword ptr [rbp - 152], rax 
	call	__ZN8CryptoPP4Name6Prime2Ev
	mov	rcx, qword ptr [rip + __ZN8CryptoPP21InvertibleRSAFunction9SetPrime2ERKNS_7IntegerE@GOTPCREL]
	mov	qword ptr [rbp - 72], rcx
	mov	qword ptr [rbp - 64], 0
	mov	rdx, qword ptr [rbp - 72]
	mov	rcx, qword ptr [rbp - 64]
	mov	rdi, qword ptr [rbp - 152] 
	mov	rsi, rax
	call	__ZN8CryptoPP21AssignFromHelperClassINS_21InvertibleRSAFunctionENS_11RSAFunctionEEclINS_7IntegerEEERS3_PKcMS1_FvRKT_E
	mov	qword ptr [rbp - 160], rax 
	call	__ZN8CryptoPP4Name15PrivateExponentEv
	mov	rcx, qword ptr [rip + __ZN8CryptoPP21InvertibleRSAFunction18SetPrivateExponentERKNS_7IntegerE@GOTPCREL]
	mov	qword ptr [rbp - 88], rcx
	mov	qword ptr [rbp - 80], 0
	mov	rdx, qword ptr [rbp - 88]
	mov	rcx, qword ptr [rbp - 80]
	mov	rdi, qword ptr [rbp - 160] 
	mov	rsi, rax
	call	__ZN8CryptoPP21AssignFromHelperClassINS_21InvertibleRSAFunctionENS_11RSAFunctionEEclINS_7IntegerEEERS3_PKcMS1_FvRKT_E
	mov	qword ptr [rbp - 168], rax 
	call	__ZN8CryptoPP4Name24ModPrime1PrivateExponentEv
	mov	rcx, qword ptr [rip + __ZN8CryptoPP21InvertibleRSAFunction27SetModPrime1PrivateExponentERKNS_7IntegerE@GOTPCREL]
	mov	qword ptr [rbp - 104], rcx
	mov	qword ptr [rbp - 96], 0
	mov	rdx, qword ptr [rbp - 104]
	mov	rcx, qword ptr [rbp - 96]
	mov	rdi, qword ptr [rbp - 168] 
	mov	rsi, rax
	call	__ZN8CryptoPP21AssignFromHelperClassINS_21InvertibleRSAFunctionENS_11RSAFunctionEEclINS_7IntegerEEERS3_PKcMS1_FvRKT_E
	mov	qword ptr [rbp - 176], rax 
	call	__ZN8CryptoPP4Name24ModPrime2PrivateExponentEv
	mov	rcx, qword ptr [rip + __ZN8CryptoPP21InvertibleRSAFunction27SetModPrime2PrivateExponentERKNS_7IntegerE@GOTPCREL]
	mov	qword ptr [rbp - 120], rcx
	mov	qword ptr [rbp - 112], 0
	mov	rdx, qword ptr [rbp - 120]
	mov	rcx, qword ptr [rbp - 112]
	mov	rdi, qword ptr [rbp - 176] 
	mov	rsi, rax
	call	__ZN8CryptoPP21AssignFromHelperClassINS_21InvertibleRSAFunctionENS_11RSAFunctionEEclINS_7IntegerEEERS3_PKcMS1_FvRKT_E
	mov	qword ptr [rbp - 184], rax 
	call	__ZN8CryptoPP4Name38MultiplicativeInverseOfPrime2ModPrime1Ev
	mov	rcx, qword ptr [rip + __ZN8CryptoPP21InvertibleRSAFunction41SetMultiplicativeInverseOfPrime2ModPrime1ERKNS_7IntegerE@GOTPCREL]
	mov	qword ptr [rbp - 136], rcx
	mov	qword ptr [rbp - 128], 0
	mov	rdx, qword ptr [rbp - 136]
	mov	rcx, qword ptr [rbp - 128]
	mov	rdi, qword ptr [rbp - 184] 
	mov	rsi, rax
	call	__ZN8CryptoPP21AssignFromHelperClassINS_21InvertibleRSAFunctionENS_11RSAFunctionEEclINS_7IntegerEEERS3_PKcMS1_FvRKT_E
	add	rsp, 192
	pop	rbp
	ret
	.cfi_endproc
                                        
	.globl	__ZN8CryptoPP16AssignFromHelperINS_11RSAFunctionENS_21InvertibleRSAFunctionEEENS_21AssignFromHelperClassIT0_T_EEPS4_RKNS_14NameValuePairsE 
	.weak_definition	__ZN8CryptoPP16AssignFromHelperINS_11RSAFunctionENS_21InvertibleRSAFunctionEEENS_21AssignFromHelperClassIT0_T_EEPS4_RKNS_14NameValuePairsE
	.p2align	4, 0x90
__ZN8CryptoPP16AssignFromHelperINS_11RSAFunctionENS_21InvertibleRSAFunctionEEENS_21AssignFromHelperClassIT0_T_EEPS4_RKNS_14NameValuePairsE: 
	.cfi_startproc

	push	rbp
	.cfi_def_cfa_offset 16
	.cfi_offset rbp, -16
	mov	rbp, rsp
	.cfi_def_cfa_register rbp
	sub	rsp, 32
	mov	rax, rdi
	mov	qword ptr [rbp - 8], rsi
	mov	qword ptr [rbp - 16], rdx
	mov	rsi, qword ptr [rbp - 8]
	mov	rdx, qword ptr [rbp - 16]
	mov	qword ptr [rbp - 24], rax 
	call	__ZN8CryptoPP21AssignFromHelperClassINS_21InvertibleRSAFunctionENS_11RSAFunctionEEC1EPS1_RKNS_14NameValuePairsE
	mov	rax, qword ptr [rbp - 24] 
	add	rsp, 32
	pop	rbp
	ret
	.cfi_endproc
                                        
	.globl	__ZN8CryptoPP21AssignFromHelperClassINS_21InvertibleRSAFunctionENS_11RSAFunctionEEclINS_7IntegerEEERS3_PKcMS1_FvRKT_E 
	.weak_definition	__ZN8CryptoPP21AssignFromHelperClassINS_21InvertibleRSAFunctionENS_11RSAFunctionEEclINS_7IntegerEEERS3_PKcMS1_FvRKT_E
	.p2align	4, 0x90
__ZN8CryptoPP21AssignFromHelperClassINS_21InvertibleRSAFunctionENS_11RSAFunctionEEclINS_7IntegerEEERS3_PKcMS1_FvRKT_E: 
Lfunc_begin19:
	.cfi_startproc
	.cfi_personality 155, ___gxx_personality_v0
	.cfi_lsda 16, Lexception19

	push	rbp
	.cfi_def_cfa_offset 16
	.cfi_offset rbp, -16
	mov	rbp, rsp
	.cfi_def_cfa_register rbp
	sub	rsp, 288
	mov	qword ptr [rbp - 16], rdx
	mov	qword ptr [rbp - 8], rcx
	mov	rax, qword ptr [rbp - 16]
	mov	rcx, qword ptr [rbp - 8]
	mov	qword ptr [rbp - 24], rdi
	mov	qword ptr [rbp - 32], rsi
	mov	qword ptr [rbp - 40], rcx
	mov	qword ptr [rbp - 48], rax
	mov	rax, qword ptr [rbp - 24]
	test	byte ptr [rax + 16], 1
	mov	qword ptr [rbp - 224], rax 
	jne	LBB113_32

	lea	rax, [rbp - 96]
	mov	rdi, rax
	mov	qword ptr [rbp - 232], rax 
	call	__ZN8CryptoPP7IntegerC1Ev
	mov	rax, qword ptr [rbp - 224] 
	mov	rdi, qword ptr [rax + 8]
	mov	rsi, qword ptr [rbp - 32]
Ltmp815:
	mov	rdx, qword ptr [rbp - 232] 
	call	__ZNK8CryptoPP14NameValuePairs8GetValueINS_7IntegerEEEbPKcRT_
Ltmp816:
	mov	byte ptr [rbp - 233], al 
	jmp	LBB113_2
LBB113_2:
	mov	al, byte ptr [rbp - 233] 
	test	al, 1
	jne	LBB113_25
	jmp	LBB113_3
LBB113_3:
	mov	edi, 40
	call	___cxa_allocate_exception
	mov	rcx, rax
	mov	byte ptr [rbp - 209], 1
	lea	rdi, [rip + __ZTIN8CryptoPP21InvertibleRSAFunctionE]
	mov	qword ptr [rbp - 248], rcx 
	mov	qword ptr [rbp - 256], rax 
	call	__ZNKSt9type_info4nameEv
Ltmp817:
	lea	rdi, [rbp - 208]
	mov	rsi, rax
	call	__ZNSt3__112basic_stringIcNS_11char_traitsIcEENS_9allocatorIcEEEC1INS_9nullptr_tEEEPKc
Ltmp818:
	jmp	LBB113_4
LBB113_4:
Ltmp820:
	lea	rdx, [rip + L_.str.45]
	lea	rdi, [rbp - 184]
	lea	rsi, [rbp - 208]
	call	__ZNSt3__1plIcNS_11char_traitsIcEENS_9allocatorIcEEEENS_12basic_stringIT_T0_T1_EERKS9_PKS6_
Ltmp821:
	jmp	LBB113_5
LBB113_5:
	mov	rdx, qword ptr [rbp - 32]
Ltmp823:
	lea	rdi, [rbp - 160]
	lea	rsi, [rbp - 184]
	call	__ZNSt3__1plIcNS_11char_traitsIcEENS_9allocatorIcEEEENS_12basic_stringIT_T0_T1_EERKS9_PKS6_
Ltmp824:
	jmp	LBB113_6
LBB113_6:
Ltmp826:
	lea	rdx, [rip + L_.str.42]
	lea	rdi, [rbp - 136]
	lea	rsi, [rbp - 160]
	call	__ZNSt3__1plIcNS_11char_traitsIcEENS_9allocatorIcEEEENS_12basic_stringIT_T0_T1_EERKS9_PKS6_
Ltmp827:
	jmp	LBB113_7
LBB113_7:
Ltmp829:
	lea	rsi, [rbp - 136]
	mov	rdi, qword ptr [rbp - 256] 
	call	__ZN8CryptoPP15InvalidArgumentC1ERKNSt3__112basic_stringIcNS1_11char_traitsIcEENS1_9allocatorIcEEEE
Ltmp830:
	jmp	LBB113_8
LBB113_8:
	mov	byte ptr [rbp - 209], 0
Ltmp831:
	mov	rsi, qword ptr [rip + __ZTIN8CryptoPP15InvalidArgumentE@GOTPCREL]
	mov	rdx, qword ptr [rip + __ZN8CryptoPP15InvalidArgumentD1Ev@GOTPCREL]
	mov	rdi, qword ptr [rbp - 248] 
	call	___cxa_throw
Ltmp832:
	jmp	LBB113_35
LBB113_9:
Ltmp844:
                                        
	mov	qword ptr [rbp - 104], rax
	mov	dword ptr [rbp - 108], edx
	jmp	LBB113_30
LBB113_10:
Ltmp819:
                                        
	mov	qword ptr [rbp - 104], rax
	mov	dword ptr [rbp - 108], edx
	jmp	LBB113_22
LBB113_11:
Ltmp822:
                                        
	mov	qword ptr [rbp - 104], rax
	mov	dword ptr [rbp - 108], edx
	jmp	LBB113_20
LBB113_12:
Ltmp825:
                                        
	mov	qword ptr [rbp - 104], rax
	mov	dword ptr [rbp - 108], edx
	jmp	LBB113_18
LBB113_13:
Ltmp828:
                                        
	mov	qword ptr [rbp - 104], rax
	mov	dword ptr [rbp - 108], edx
	jmp	LBB113_16
LBB113_14:
Ltmp833:
                                        
	mov	qword ptr [rbp - 104], rax
	mov	dword ptr [rbp - 108], edx
Ltmp834:
	lea	rdi, [rbp - 136]
	call	__ZNSt3__112basic_stringIcNS_11char_traitsIcEENS_9allocatorIcEEED1Ev
Ltmp835:
	jmp	LBB113_15
LBB113_15:
	jmp	LBB113_16
LBB113_16:
Ltmp836:
	lea	rdi, [rbp - 160]
	call	__ZNSt3__112basic_stringIcNS_11char_traitsIcEENS_9allocatorIcEEED1Ev
Ltmp837:
	jmp	LBB113_17
LBB113_17:
	jmp	LBB113_18
LBB113_18:
Ltmp838:
	lea	rdi, [rbp - 184]
	call	__ZNSt3__112basic_stringIcNS_11char_traitsIcEENS_9allocatorIcEEED1Ev
Ltmp839:
	jmp	LBB113_19
LBB113_19:
	jmp	LBB113_20
LBB113_20:
Ltmp840:
	lea	rdi, [rbp - 208]
	call	__ZNSt3__112basic_stringIcNS_11char_traitsIcEENS_9allocatorIcEEED1Ev
Ltmp841:
	jmp	LBB113_21
LBB113_21:
	jmp	LBB113_22
LBB113_22:
	test	byte ptr [rbp - 209], 1
	jne	LBB113_23
	jmp	LBB113_24
LBB113_23:
	mov	rdi, qword ptr [rbp - 248] 
	call	___cxa_free_exception
LBB113_24:
	jmp	LBB113_30
LBB113_25:
	mov	rax, qword ptr [rbp - 224] 
	mov	rcx, qword ptr [rax]
	mov	rdx, qword ptr [rbp - 48]
	mov	rsi, qword ptr [rbp - 40]
	add	rcx, rsi
	mov	rsi, rdx
	and	rsi, 1
	cmp	rsi, 0
	mov	qword ptr [rbp - 264], rdx 
	mov	qword ptr [rbp - 272], rcx 
	je	LBB113_27

	mov	rax, qword ptr [rbp - 272] 
	mov	rcx, qword ptr [rax]
	mov	rdx, qword ptr [rbp - 264] 
	sub	rdx, 1
	mov	rcx, qword ptr [rcx + rdx]
	mov	qword ptr [rbp - 280], rcx 
	jmp	LBB113_28
LBB113_27:
	mov	rax, qword ptr [rbp - 264] 
	mov	qword ptr [rbp - 280], rax 
LBB113_28:
Ltmp842:
	mov	rax, qword ptr [rbp - 280] 
	lea	rsi, [rbp - 96]
	mov	rdi, qword ptr [rbp - 272] 
	call	rax
Ltmp843:
	jmp	LBB113_29
LBB113_29:
	lea	rdi, [rbp - 96]
	call	__ZN8CryptoPP7IntegerD1Ev
	jmp	LBB113_32
LBB113_30:
Ltmp845:
	lea	rdi, [rbp - 96]
	call	__ZN8CryptoPP7IntegerD1Ev
Ltmp846:
	jmp	LBB113_31
LBB113_31:
	jmp	LBB113_33
LBB113_32:
	mov	rax, qword ptr [rbp - 224] 
	add	rsp, 288
	pop	rbp
	ret
LBB113_33:
	mov	rdi, qword ptr [rbp - 104]
	call	__Unwind_Resume
	ud2
LBB113_34:
Ltmp847:
	mov	rdi, rax
	mov	qword ptr [rbp - 288], rdx 
	call	___clang_call_terminate
LBB113_35:
	ud2
Lfunc_end19:
	.cfi_endproc
	.section	__TEXT,__gcc_except_tab
	.p2align	2
GCC_except_table113:
Lexception19:
	.byte	255                     
	.byte	155                     
	.uleb128 Lttbase18-Lttbaseref18
Lttbaseref18:
	.byte	1                       
	.uleb128 Lcst_end19-Lcst_begin19
Lcst_begin19:
	.uleb128 Lfunc_begin19-Lfunc_begin19 
	.uleb128 Ltmp815-Lfunc_begin19  
	.byte	0                       
	.byte	0                       
	.uleb128 Ltmp815-Lfunc_begin19  
	.uleb128 Ltmp816-Ltmp815        
	.uleb128 Ltmp844-Lfunc_begin19  
	.byte	0                       
	.uleb128 Ltmp816-Lfunc_begin19  
	.uleb128 Ltmp817-Ltmp816        
	.byte	0                       
	.byte	0                       
	.uleb128 Ltmp817-Lfunc_begin19  
	.uleb128 Ltmp818-Ltmp817        
	.uleb128 Ltmp819-Lfunc_begin19  
	.byte	0                       
	.uleb128 Ltmp820-Lfunc_begin19  
	.uleb128 Ltmp821-Ltmp820        
	.uleb128 Ltmp822-Lfunc_begin19  
	.byte	0                       
	.uleb128 Ltmp823-Lfunc_begin19  
	.uleb128 Ltmp824-Ltmp823        
	.uleb128 Ltmp825-Lfunc_begin19  
	.byte	0                       
	.uleb128 Ltmp826-Lfunc_begin19  
	.uleb128 Ltmp827-Ltmp826        
	.uleb128 Ltmp828-Lfunc_begin19  
	.byte	0                       
	.uleb128 Ltmp829-Lfunc_begin19  
	.uleb128 Ltmp832-Ltmp829        
	.uleb128 Ltmp833-Lfunc_begin19  
	.byte	0                       
	.uleb128 Ltmp834-Lfunc_begin19  
	.uleb128 Ltmp841-Ltmp834        
	.uleb128 Ltmp847-Lfunc_begin19  
	.byte	1                       
	.uleb128 Ltmp841-Lfunc_begin19  
	.uleb128 Ltmp842-Ltmp841        
	.byte	0                       
	.byte	0                       
	.uleb128 Ltmp842-Lfunc_begin19  
	.uleb128 Ltmp843-Ltmp842        
	.uleb128 Ltmp844-Lfunc_begin19  
	.byte	0                       
	.uleb128 Ltmp843-Lfunc_begin19  
	.uleb128 Ltmp845-Ltmp843        
	.byte	0                       
	.byte	0                       
	.uleb128 Ltmp845-Lfunc_begin19  
	.uleb128 Ltmp846-Ltmp845        
	.uleb128 Ltmp847-Lfunc_begin19  
	.byte	1                       
	.uleb128 Ltmp846-Lfunc_begin19  
	.uleb128 Lfunc_end19-Ltmp846    
	.byte	0                       
	.byte	0                       
Lcst_end19:
	.byte	1                       
                                        
	.byte	0                       
	.p2align	2
                                        
	.long	0                       
Lttbase18:
	.p2align	2
                                        
	.section	__TEXT,__text,regular,pure_instructions
	.globl	__ZN8CryptoPP21InvertibleRSAFunction9SetPrime1ERKNS_7IntegerE 
	.weak_definition	__ZN8CryptoPP21InvertibleRSAFunction9SetPrime1ERKNS_7IntegerE
	.p2align	4, 0x90
