	.section	__TEXT,__text,regular,pure_instructions
	.build_version macos, 11, 0	sdk_version 11, 1
	.intel_syntax noprefix
	.section	__TEXT,__StaticInit,regular,pure_instructions
	.p2align	4, 0x90         
___cxx_global_var_init:                 

	push	rbp
	mov	rbp, rsp
	call	__ZNSt3__16chrono12steady_clock3nowEv
	mov	qword ptr [rip + __ZN6loguruL12s_start_timeE], rax
	pop	rbp
	ret
                                        
	.p2align	4, 0x90         
___cxx_global_var_init.1:               
	.cfi_startproc

	push	rbp
	.cfi_def_cfa_offset 16
	.cfi_offset rbp, -16
	mov	rbp, rsp
	.cfi_def_cfa_register rbp
	push	rbx
	push	rax
	.cfi_offset rbx, -24
	lea	rbx, [rip + __ZN6loguruL7s_mutexE]
	mov	rdi, rbx
	call	__ZNSt3__115recursive_mutexC1Ev
	mov	rdi, qword ptr [rip + __ZNSt3__115recursive_mutexD1Ev@GOTPCREL]
	lea	rdx, [rip + ___dso_handle]
	mov	rsi, rbx
	call	___cxa_atexit
	add	rsp, 8
	pop	rbx
	pop	rbp
	ret
	.cfi_endproc
                                        
	.p2align	4, 0x90         
___cxx_global_var_init.2:               

	push	rbp
	mov	rbp, rsp
	push	rbx
	push	rax
	lea	rbx, [rip + __ZN6loguruL16s_argv0_filenameE]
	mov	rdi, rbx
	call	__ZNSt3__112basic_stringIcNS_11char_traitsIcEENS_9allocatorIcEEEC1Ev
	mov	rdi, qword ptr [rip + __ZNSt3__112basic_stringIcNS_11char_traitsIcEENS_9allocatorIcEEED1Ev@GOTPCREL]
	lea	rdx, [rip + ___dso_handle]
	mov	rsi, rbx
	call	___cxa_atexit
	add	rsp, 8
	pop	rbx
	pop	rbp
	ret
                                        
	.section	__TEXT,__text,regular,pure_instructions
	.p2align	4, 0x90         
__ZNSt3__112basic_stringIcNS_11char_traitsIcEENS_9allocatorIcEEEC1Ev: 

	push	rbp
	mov	rbp, rsp
	call	__ZNSt3__112basic_stringIcNS_11char_traitsIcEENS_9allocatorIcEEEC2Ev
	pop	rbp
	ret
                                        
	.section	__TEXT,__StaticInit,regular,pure_instructions
	.p2align	4, 0x90         
___cxx_global_var_init.3:               

	push	rbp
	mov	rbp, rsp
	push	rbx
	push	rax
	lea	rbx, [rip + __ZN6loguruL11s_argumentsE]
	mov	rdi, rbx
	call	__ZNSt3__112basic_stringIcNS_11char_traitsIcEENS_9allocatorIcEEEC1Ev
	mov	rdi, qword ptr [rip + __ZNSt3__112basic_stringIcNS_11char_traitsIcEENS_9allocatorIcEEED1Ev@GOTPCREL]
	lea	rdx, [rip + ___dso_handle]
	mov	rsi, rbx
	call	___cxa_atexit
	add	rsp, 8
	pop	rbx
	pop	rbp
	ret
                                        
	.p2align	4, 0x90         
___cxx_global_var_init.4:               

	push	rbp
	mov	rbp, rsp
	call	__ZNSt3__16vectorIN6loguru8CallbackENS_9allocatorIS2_EEEC1Ev
	lea	rdi, [rip + __ZNSt3__16vectorIN6loguru8CallbackENS_9allocatorIS2_EEED1Ev]
	lea	rsi, [rip + __ZN6loguruL11s_callbacksE]
	lea	rdx, [rip + ___dso_handle]
	call	___cxa_atexit
	pop	rbp
	ret
                                        
	.section	__TEXT,__text,regular,pure_instructions
	.p2align	4, 0x90         
__ZNSt3__16vectorIN6loguru8CallbackENS_9allocatorIS2_EEEC1Ev: 

	push	rbp
	mov	rbp, rsp
	call	__ZNSt3__16vectorIN6loguru8CallbackENS_9allocatorIS2_EEEC2Ev
	pop	rbp
	ret
                                        
	.p2align	4, 0x90         
__ZNSt3__16vectorIN6loguru8CallbackENS_9allocatorIS2_EEED1Ev: 

	push	rbp
	mov	rbp, rsp
	call	__ZNSt3__16vectorIN6loguru8CallbackENS_9allocatorIS2_EEED2Ev
	pop	rbp
	ret
                                        
	.section	__TEXT,__StaticInit,regular,pure_instructions
	.p2align	4, 0x90         
___cxx_global_var_init.5:               

	push	rbp
	mov	rbp, rsp
	push	rbx
	push	rax
	lea	rbx, [rip + __ZN6loguruL21s_user_stack_cleanupsE]
	mov	rdi, rbx
	call	__ZNSt3__16vectorINS_4pairINS_12basic_stringIcNS_11char_traitsIcEENS_9allocatorIcEEEES7_EENS5_IS8_EEEC1Ev
	lea	rdi, [rip + __ZNSt3__16vectorINS_4pairINS_12basic_stringIcNS_11char_traitsIcEENS_9allocatorIcEEEES7_EENS5_IS8_EEED1Ev]
	lea	rdx, [rip + ___dso_handle]
	mov	rsi, rbx
	call	___cxa_atexit
	add	rsp, 8
	pop	rbx
	pop	rbp
	ret
                                        
	.section	__TEXT,__text,regular,pure_instructions
	.p2align	4, 0x90         
__ZNSt3__16vectorINS_4pairINS_12basic_stringIcNS_11char_traitsIcEENS_9allocatorIcEEEES7_EENS5_IS8_EEEC1Ev: 

	push	rbp
	mov	rbp, rsp
	call	__ZNSt3__16vectorINS_4pairINS_12basic_stringIcNS_11char_traitsIcEENS_9allocatorIcEEEES7_EENS5_IS8_EEEC2Ev
	pop	rbp
	ret
                                        
	.p2align	4, 0x90         
__ZNSt3__16vectorINS_4pairINS_12basic_stringIcNS_11char_traitsIcEENS_9allocatorIcEEEES7_EENS5_IS8_EEED1Ev: 

	push	rbp
	mov	rbp, rsp
	call	__ZNSt3__16vectorINS_4pairINS_12basic_stringIcNS_11char_traitsIcEENS_9allocatorIcEEEES7_EENS5_IS8_EEED2Ev
	pop	rbp
	ret
                                        
	.section	__TEXT,__StaticInit,regular,pure_instructions
	.p2align	4, 0x90         
___cxx_global_var_init.6:               

	push	rbp
	mov	rbp, rsp
	call	__ZN6loguru13SignalOptions4noneEv
	mov	qword ptr [rip + __ZN6loguruL16s_signal_optionsE], rax
	pop	rbp
	ret
                                        
	.section	__TEXT,__text,regular,pure_instructions
	.globl	__ZN6loguru13SignalOptions4noneEv 
	.weak_def_can_be_hidden	__ZN6loguru13SignalOptions4noneEv
	.p2align	4, 0x90
__ZN6loguru13SignalOptions4noneEv:      

	push	rbp
	mov	rbp, rsp
	sub	rsp, 16
	lea	rdi, [rbp - 8]
	call	__ZN6loguru13SignalOptionsC1Ev
	mov	qword ptr [rbp - 8], 0
	xor	eax, eax
	add	rsp, 16
	pop	rbp
	ret
                                        
	.section	__TEXT,__StaticInit,regular,pure_instructions
	.p2align	4, 0x90         
___cxx_global_var_init.7:               
	.cfi_startproc

	push	rbp
	.cfi_def_cfa_offset 16
	.cfi_offset rbp, -16
	mov	rbp, rsp
	.cfi_def_cfa_register rbp
	call	__ZNK6loguru3$_0clEv
	mov	byte ptr [rip + __ZN6loguruL20s_terminal_has_colorE], al
	pop	rbp
	ret
	.cfi_endproc
                                        
	.section	__TEXT,__text,regular,pure_instructions
	.p2align	4, 0x90         
__ZNK6loguru3$_0clEv:                   
	.cfi_startproc

	push	rbp
	.cfi_def_cfa_offset 16
	.cfi_offset rbp, -16
	mov	rbp, rsp
	.cfi_def_cfa_register rbp
	push	r14
	push	rbx
	.cfi_offset rbx, -32
	.cfi_offset r14, -24
	mov	edi, 2
	call	_isatty
	test	eax, eax
	je	LBB14_14

	lea	rdi, [rip + L_.str.133]
	call	_getenv
	test	rax, rax
	je	LBB14_14

	mov	rbx, rax
	lea	rsi, [rip + L_.str.134]
	mov	rdi, rax
	call	_strcmp
	mov	r14b, 1
	test	eax, eax
	je	LBB14_15

	lea	rsi, [rip + L_.str.135]
	mov	rdi, rbx
	call	_strcmp
	test	eax, eax
	je	LBB14_15

	lea	rsi, [rip + L_.str.136]
	mov	rdi, rbx
	call	_strcmp
	test	eax, eax
	je	LBB14_15

	lea	rsi, [rip + L_.str.137]
	mov	rdi, rbx
	call	_strcmp
	test	eax, eax
	je	LBB14_15

	lea	rsi, [rip + L_.str.138]
	mov	rdi, rbx
	call	_strcmp
	test	eax, eax
	je	LBB14_15

	lea	rsi, [rip + L_.str.139]
	mov	rdi, rbx
	call	_strcmp
	test	eax, eax
	je	LBB14_15

	lea	rsi, [rip + L_.str.140]
	mov	rdi, rbx
	call	_strcmp
	test	eax, eax
	je	LBB14_15

	lea	rsi, [rip + L_.str.141]
	mov	rdi, rbx
	call	_strcmp
	test	eax, eax
	je	LBB14_15

	lea	rsi, [rip + L_.str.142]
	mov	rdi, rbx
	call	_strcmp
	test	eax, eax
	je	LBB14_15

	lea	rsi, [rip + L_.str.143]
	mov	rdi, rbx
	call	_strcmp
	test	eax, eax
	je	LBB14_15

	lea	rsi, [rip + L_.str.144]
	mov	rdi, rbx
	call	_strcmp
	test	eax, eax
	sete	r14b
	jmp	LBB14_15
LBB14_14:
	xor	r14d, r14d
LBB14_15:
	mov	eax, r14d
	pop	rbx
	pop	r14
	pop	rbp
	ret
	.cfi_endproc
                                        
	.globl	__ZN6loguru18terminal_has_colorEv 
	.p2align	4, 0x90
__ZN6loguru18terminal_has_colorEv:      

	push	rbp
	mov	rbp, rsp
	mov	al, byte ptr [rip + __ZN6loguruL20s_terminal_has_colorE]
	pop	rbp
	ret
                                        
	.globl	__ZN6loguru14terminal_blackEv 
	.p2align	4, 0x90
__ZN6loguru14terminal_blackEv:          

	push	rbp
	mov	rbp, rsp
	cmp	byte ptr [rip + __ZN6loguruL20s_terminal_has_colorE], 0
	lea	rcx, [rip + L_.str.8]
	lea	rax, [rip + L_.str]
	cmove	rax, rcx
	pop	rbp
	ret
                                        
	.globl	__ZN6loguru12terminal_redEv 
	.p2align	4, 0x90
__ZN6loguru12terminal_redEv:            

	push	rbp
	mov	rbp, rsp
	cmp	byte ptr [rip + __ZN6loguruL20s_terminal_has_colorE], 0
	lea	rcx, [rip + L_.str.8]
	lea	rax, [rip + L_.str.9]
	cmove	rax, rcx
	pop	rbp
	ret
                                        
	.globl	__ZN6loguru14terminal_greenEv 
	.p2align	4, 0x90
__ZN6loguru14terminal_greenEv:          

	push	rbp
	mov	rbp, rsp
	cmp	byte ptr [rip + __ZN6loguruL20s_terminal_has_colorE], 0
	lea	rcx, [rip + L_.str.8]
	lea	rax, [rip + L_.str.10]
	cmove	rax, rcx
	pop	rbp
	ret
                                        
	.globl	__ZN6loguru15terminal_yellowEv 
	.p2align	4, 0x90
__ZN6loguru15terminal_yellowEv:         

	push	rbp
	mov	rbp, rsp
	cmp	byte ptr [rip + __ZN6loguruL20s_terminal_has_colorE], 0
	lea	rcx, [rip + L_.str.8]
	lea	rax, [rip + L_.str.11]
	cmove	rax, rcx
	pop	rbp
	ret
                                        
	.globl	__ZN6loguru13terminal_blueEv 
	.p2align	4, 0x90
__ZN6loguru13terminal_blueEv:           

	push	rbp
	mov	rbp, rsp
	cmp	byte ptr [rip + __ZN6loguruL20s_terminal_has_colorE], 0
	lea	rcx, [rip + L_.str.8]
	lea	rax, [rip + L_.str.12]
	cmove	rax, rcx
	pop	rbp
	ret
                                        
	.globl	__ZN6loguru15terminal_purpleEv 
	.p2align	4, 0x90
__ZN6loguru15terminal_purpleEv:         

	push	rbp
	mov	rbp, rsp
	cmp	byte ptr [rip + __ZN6loguruL20s_terminal_has_colorE], 0
	lea	rcx, [rip + L_.str.8]
	lea	rax, [rip + L_.str.13]
	cmove	rax, rcx
	pop	rbp
	ret
                                        
	.globl	__ZN6loguru13terminal_cyanEv 
	.p2align	4, 0x90
__ZN6loguru13terminal_cyanEv:           

	push	rbp
	mov	rbp, rsp
	cmp	byte ptr [rip + __ZN6loguruL20s_terminal_has_colorE], 0
	lea	rcx, [rip + L_.str.8]
	lea	rax, [rip + L_.str.14]
	cmove	rax, rcx
	pop	rbp
	ret
                                        
	.globl	__ZN6loguru19terminal_light_grayEv 
	.p2align	4, 0x90
__ZN6loguru19terminal_light_grayEv:     

	push	rbp
	mov	rbp, rsp
	cmp	byte ptr [rip + __ZN6loguruL20s_terminal_has_colorE], 0
	lea	rcx, [rip + L_.str.8]
	lea	rax, [rip + L_.str.15]
	cmove	rax, rcx
	pop	rbp
	ret
                                        
	.globl	__ZN6loguru14terminal_whiteEv 
	.p2align	4, 0x90
__ZN6loguru14terminal_whiteEv:          

	push	rbp
	mov	rbp, rsp
	cmp	byte ptr [rip + __ZN6loguruL20s_terminal_has_colorE], 0
	lea	rcx, [rip + L_.str.8]
	lea	rax, [rip + L_.str.15]
	cmove	rax, rcx
	pop	rbp
	ret
                                        
	.globl	__ZN6loguru18terminal_light_redEv 
	.p2align	4, 0x90
__ZN6loguru18terminal_light_redEv:      

	push	rbp
	mov	rbp, rsp
	cmp	byte ptr [rip + __ZN6loguruL20s_terminal_has_colorE], 0
	lea	rcx, [rip + L_.str.8]
	lea	rax, [rip + L_.str.16]
	cmove	rax, rcx
	pop	rbp
	ret
                                        
	.globl	__ZN6loguru12terminal_dimEv 
	.p2align	4, 0x90
__ZN6loguru12terminal_dimEv:            

	push	rbp
	mov	rbp, rsp
	cmp	byte ptr [rip + __ZN6loguruL20s_terminal_has_colorE], 0
	lea	rcx, [rip + L_.str.8]
	lea	rax, [rip + L_.str.17]
	cmove	rax, rcx
	pop	rbp
	ret
                                        
	.globl	__ZN6loguru13terminal_boldEv 
	.p2align	4, 0x90
__ZN6loguru13terminal_boldEv:           

	push	rbp
	mov	rbp, rsp
	cmp	byte ptr [rip + __ZN6loguruL20s_terminal_has_colorE], 0
	lea	rcx, [rip + L_.str.8]
	lea	rax, [rip + L_.str.18]
	cmove	rax, rcx
	pop	rbp
	ret
                                        
	.globl	__ZN6loguru18terminal_underlineEv 
	.p2align	4, 0x90
__ZN6loguru18terminal_underlineEv:      

	push	rbp
	mov	rbp, rsp
	cmp	byte ptr [rip + __ZN6loguruL20s_terminal_has_colorE], 0
	lea	rcx, [rip + L_.str.8]
	lea	rax, [rip + L_.str.19]
	cmove	rax, rcx
	pop	rbp
	ret
                                        
	.globl	__ZN6loguru14terminal_resetEv 
	.p2align	4, 0x90
__ZN6loguru14terminal_resetEv:          

	push	rbp
	mov	rbp, rsp
	cmp	byte ptr [rip + __ZN6loguruL20s_terminal_has_colorE], 0
	lea	rcx, [rip + L_.str.8]
	lea	rax, [rip + L_.str.20]
	cmove	rax, rcx
	pop	rbp
	ret
                                        
	.globl	__ZN6loguru8file_logEPvRKNS_7MessageE 
	.p2align	4, 0x90
__ZN6loguru8file_logEPvRKNS_7MessageE:  

	push	rbp
	mov	rbp, rsp
	push	r14
	push	rbx
	mov	rbx, rsi
	call	__ZN6loguru7to_fileEPv
	mov	r14, rax
	mov	rdx, qword ptr [rbx + 24]
	mov	rcx, qword ptr [rbx + 32]
	mov	r8, qword ptr [rbx + 40]
	mov	r9, qword ptr [rbx + 48]
	lea	rsi, [rip + L_.str.21]
	mov	rdi, rax
	xor	eax, eax
	call	_fprintf
	cmp	dword ptr [rip + __ZN6loguru19g_flush_interval_msE], 0
	jne	LBB30_2

	mov	rdi, r14
	call	_fflush
LBB30_2:
	pop	rbx
	pop	r14
	pop	rbp
	ret
                                        
	.globl	__ZN6loguru7to_fileEPv  
	.weak_def_can_be_hidden	__ZN6loguru7to_fileEPv
	.p2align	4, 0x90
__ZN6loguru7to_fileEPv:                 

	push	rbp
	mov	rbp, rsp
	mov	rax, rdi
	pop	rbp
	ret
                                        
	.globl	__ZN6loguru10file_closeEPv 
	.p2align	4, 0x90
__ZN6loguru10file_closeEPv:             

	push	rbp
	mov	rbp, rsp
	call	__ZN6loguru7to_fileEPv
	test	rax, rax
	je	LBB32_2

	mov	rdi, rax
	call	_fclose
LBB32_2:
	pop	rbp
	ret
                                        
	.globl	__ZN6loguru10file_flushEPv 
	.p2align	4, 0x90
__ZN6loguru10file_flushEPv:             

	push	rbp
	mov	rbp, rsp
	call	__ZN6loguru7to_fileEPv
	mov	rdi, rax
	call	_fflush
	pop	rbp
	ret
                                        
	.globl	__ZN6loguru10syslog_logEPvRKNS_7MessageE 
	.p2align	4, 0x90
__ZN6loguru10syslog_logEPvRKNS_7MessageE: 
	.cfi_startproc

	push	rbp
	.cfi_def_cfa_offset 16
	.cfi_offset rbp, -16
	mov	rbp, rsp
	.cfi_def_cfa_register rbp
	mov	eax, dword ptr [rsi]
	lea	ecx, [rax + 3]
	lea	edx, [rax + 5]
	cmp	ecx, 5
	mov	ecx, 7
	cmovb	ecx, edx
	cmp	eax, -3
	mov	edi, 1
	cmovge	edi, ecx
	mov	rdx, qword ptr [rsi + 32]
	mov	rcx, qword ptr [rsi + 40]
	mov	r8, qword ptr [rsi + 48]
	lea	rsi, [rip + L_.str.22]
	xor	eax, eax
	call	_syslog$DARWIN_EXTSN
	pop	rbp
	ret
	.cfi_endproc
                                        
	.globl	__ZN6loguru12syslog_closeEPv 
	.p2align	4, 0x90
__ZN6loguru12syslog_closeEPv:           
	.cfi_startproc

	push	rbp
	.cfi_def_cfa_offset 16
	.cfi_offset rbp, -16
	mov	rbp, rsp
	.cfi_def_cfa_register rbp
	call	_closelog
	pop	rbp
	ret
	.cfi_endproc
                                        
	.globl	__ZN6loguru12syslog_flushEPv 
	.p2align	4, 0x90
__ZN6loguru12syslog_flushEPv:           

	push	rbp
	mov	rbp, rsp
	pop	rbp
	ret
                                        
	.globl	__ZN6loguru4TextD2Ev    
	.p2align	4, 0x90
__ZN6loguru4TextD2Ev:                   
	.cfi_startproc

	push	rbp
	.cfi_def_cfa_offset 16
	.cfi_offset rbp, -16
	mov	rbp, rsp
	.cfi_def_cfa_register rbp
	mov	rdi, qword ptr [rdi]
	call	_free
	pop	rbp
	ret
	.cfi_endproc
                                        
	.private_extern	___clang_call_terminate 
	.globl	___clang_call_terminate
	.weak_def_can_be_hidden	___clang_call_terminate
	.p2align	4, 0x90
___clang_call_terminate:                

	push	rax
	call	___cxa_begin_catch
	call	__ZSt9terminatev
                                        
	.globl	__ZN6loguru4TextD1Ev    
	.p2align	4, 0x90
__ZN6loguru4TextD1Ev:                   

	push	rbp
	mov	rbp, rsp
	call	__ZN6loguru4TextD2Ev
	pop	rbp
	ret
                                        
	.globl	__ZN6loguru10textprintfEPKcz 
	.p2align	4, 0x90
__ZN6loguru10textprintfEPKcz:           
	.cfi_startproc

	push	rbp
	.cfi_def_cfa_offset 16
	.cfi_offset rbp, -16
	mov	rbp, rsp
	.cfi_def_cfa_register rbp
	push	rbx
	sub	rsp, 216
	.cfi_offset rbx, -24
	mov	rbx, rdi
	test	al, al
	je	LBB40_2

	movaps	xmmword ptr [rbp - 176], xmm0
	movaps	xmmword ptr [rbp - 160], xmm1
	movaps	xmmword ptr [rbp - 144], xmm2
	movaps	xmmword ptr [rbp - 128], xmm3
	movaps	xmmword ptr [rbp - 112], xmm4
	movaps	xmmword ptr [rbp - 96], xmm5
	movaps	xmmword ptr [rbp - 80], xmm6
	movaps	xmmword ptr [rbp - 64], xmm7
LBB40_2:
	mov	qword ptr [rbp - 208], rdx
	mov	qword ptr [rbp - 200], rcx
	mov	qword ptr [rbp - 192], r8
	mov	qword ptr [rbp - 184], r9
	mov	rax, qword ptr [rip + ___stack_chk_guard@GOTPCREL]
	mov	rax, qword ptr [rax]
	mov	qword ptr [rbp - 16], rax
	lea	rax, [rbp - 224]
	mov	qword ptr [rbp - 32], rax
	lea	rax, [rbp + 16]
	mov	qword ptr [rbp - 40], rax
	movabs	rax, 206158430224
	mov	qword ptr [rbp - 48], rax
	lea	rdx, [rbp - 48]
	mov	rdi, rbx
	call	__ZN6loguruL11vtextprintfEPKcP13__va_list_tag
	mov	rax, qword ptr [rip + ___stack_chk_guard@GOTPCREL]
	mov	rax, qword ptr [rax]
	cmp	rax, qword ptr [rbp - 16]
	jne	LBB40_4

	mov	rax, rbx
	add	rsp, 216
	pop	rbx
	pop	rbp
	ret
LBB40_4:
	call	___stack_chk_fail
	.cfi_endproc
                                        
	.p2align	4, 0x90         
__ZN6loguruL11vtextprintfEPKcP13__va_list_tag: 
	.cfi_startproc

	push	rbp
	.cfi_def_cfa_offset 16
	.cfi_offset rbp, -16
	mov	rbp, rsp
	.cfi_def_cfa_register rbp
	push	r14
	push	rbx
	sub	rsp, 16
	.cfi_offset rbx, -32
	.cfi_offset r14, -24
	mov	r14, rsi
	mov	rbx, rdi
	mov	qword ptr [rbp - 24], 0
	lea	rdi, [rbp - 24]
	call	_vasprintf
	test	eax, eax
	js	LBB41_2

	mov	rsi, qword ptr [rbp - 24]
	mov	rdi, rbx
	call	__ZN6loguru4TextC1EPc
	mov	rax, rbx
	add	rsp, 16
	pop	rbx
	pop	r14
	pop	rbp
	ret
LBB41_2:
	lea	rsi, [rip + L_.str.145]
	lea	rdx, [rip + L_.str.28]
	lea	r8, [rip + L_.str.146]
	xor	edi, edi
	mov	ecx, 433
	mov	r9, r14
	xor	eax, eax
	call	__ZN6loguru13log_and_abortEiPKcS1_jS1_z
	.cfi_endproc
                                        
	.globl	__ZN6loguru10textprintfEv 
	.p2align	4, 0x90
__ZN6loguru10textprintfEv:              
	.cfi_startproc

	push	rbp
	.cfi_def_cfa_offset 16
	.cfi_offset rbp, -16
	mov	rbp, rsp
	.cfi_def_cfa_register rbp
	push	rbx
	push	rax
	.cfi_offset rbx, -24
	mov	rbx, rdi
	mov	edi, 1
	mov	esi, 1
	call	_calloc
	mov	rdi, rbx
	mov	rsi, rax
	call	__ZN6loguru4TextC1EPc
	mov	rax, rbx
	add	rsp, 8
	pop	rbx
	pop	rbp
	ret
	.cfi_endproc
                                        
	.globl	__ZN6loguru4TextC1EPc   
	.weak_def_can_be_hidden	__ZN6loguru4TextC1EPc
	.p2align	4, 0x90
__ZN6loguru4TextC1EPc:                  
	.cfi_startproc

	push	rbp
	.cfi_def_cfa_offset 16
	.cfi_offset rbp, -16
	mov	rbp, rsp
	.cfi_def_cfa_register rbp
	call	__ZN6loguru4TextC2EPc
	pop	rbp
	ret
	.cfi_endproc
                                        
	.globl	__ZN6loguru8filenameEPKc 
	.p2align	4, 0x90
__ZN6loguru8filenameEPKc:               

	push	rbp
	mov	rbp, rsp
	mov	rax, rdi
	lea	rcx, [rdi + 1]
	jmp	LBB44_1
	.p2align	4, 0x90
LBB44_5:                                
	mov	rax, rcx
LBB44_6:                                
	inc	rcx
LBB44_1:                                
	movzx	edx, byte ptr [rcx - 1]
	cmp	dl, 47
	je	LBB44_5

	cmp	dl, 92
	je	LBB44_5

	test	dl, dl
	jne	LBB44_6

	pop	rbp
	ret
                                        
	.globl	__ZN6loguru13errno_as_textEv 
	.p2align	4, 0x90
__ZN6loguru13errno_as_textEv:           
	.cfi_startproc

	push	rbp
	.cfi_def_cfa_offset 16
	.cfi_offset rbp, -16
	mov	rbp, rsp
	.cfi_def_cfa_register rbp
	push	r14
	push	rbx
	sub	rsp, 272
	.cfi_offset rbx, -32
	.cfi_offset r14, -24
	mov	rbx, rdi
	mov	rax, qword ptr [rip + ___stack_chk_guard@GOTPCREL]
	mov	rax, qword ptr [rax]
	mov	qword ptr [rbp - 24], rax
	call	___error
	mov	edi, dword ptr [rax]
	lea	r14, [rbp - 288]
	mov	edx, 256
	mov	rsi, r14
	call	_strerror_r
	mov	rdi, r14
	call	_strdup
	mov	rdi, rbx
	mov	rsi, rax
	call	__ZN6loguru4TextC1EPc
	mov	rax, qword ptr [rip + ___stack_chk_guard@GOTPCREL]
	mov	rax, qword ptr [rax]
	cmp	rax, qword ptr [rbp - 24]
	jne	LBB45_2

	mov	rax, rbx
	add	rsp, 272
	pop	rbx
	pop	r14
	pop	rbp
	ret
LBB45_2:
	call	___stack_chk_fail
	.cfi_endproc
                                        
	.globl	__ZN6loguru4initERiPPcRKNS_7OptionsE 
	.p2align	4, 0x90
__ZN6loguru4initERiPPcRKNS_7OptionsE:   
Lfunc_begin0:
	.cfi_startproc
	.cfi_personality 155, ___gxx_personality_v0
	.cfi_lsda 16, Lexception0

	push	rbp
	.cfi_def_cfa_offset 16
	.cfi_offset rbp, -16
	mov	rbp, rsp
	.cfi_def_cfa_register rbp
	push	r15
	push	r14
	push	r13
	push	r12
	push	rbx
	sub	rsp, 168
	.cfi_offset rbx, -56
	.cfi_offset r12, -48
	.cfi_offset r13, -40
	.cfi_offset r14, -32
	.cfi_offset r15, -24
	mov	rax, qword ptr [rip + ___stack_chk_guard@GOTPCREL]
	mov	rax, qword ptr [rax]
	mov	qword ptr [rbp - 48], rax
	movsxd	rax, dword ptr [rdi]
	mov	dword ptr [rbp - 176], eax
	mov	dword ptr [rbp - 168], 0
	test	rax, rax
	jle	LBB46_36

	mov	r15, rsi
	mov	qword ptr [rbp - 192], rdx 
	mov	rax, qword ptr [rsi + 8*rax]
	mov	qword ptr [rbp - 144], rax
	mov	qword ptr [rbp - 184], 0
	test	rax, rax
	jne	LBB46_40

	mov	r12, rdi
	mov	rdi, qword ptr [r15]
	call	__ZN6loguru8filenameEPKc
	lea	rdi, [rip + __ZN6loguruL16s_argv0_filenameE]
	mov	rsi, rax
	call	__ZNSt3__112basic_stringIcNS_11char_traitsIcEENS_9allocatorIcEEEaSEPKc
	lea	rdi, [rip + __ZN6loguruL13s_current_dirE]
	mov	esi, 1024
	call	_getcwd
	test	rax, rax
	jne	LBB46_6

	lea	rdi, [rbp - 144]
	call	__ZN6loguru13errno_as_textEv
	call	__ZN6loguru24current_verbosity_cutoffEv
	cmp	eax, -1
	jl	LBB46_5

	lea	rdi, [rbp - 144]
	call	__ZNK6loguru4Text5c_strEv
Ltmp24:
	lea	rsi, [rip + L_.str.28]
	lea	rcx, [rip + L_.str.33]
	mov	edi, -1
	mov	edx, 599
	mov	r8, rax
	xor	eax, eax
	call	__ZN6loguru3logEiPKcjS1_z
Ltmp25:
LBB46_5:
	lea	rdi, [rbp - 144]
	call	__ZN6loguru4TextD1Ev
LBB46_6:
	lea	rdi, [rip + __ZN6loguruL11s_argumentsE]
	lea	rsi, [rip + L_.str.8]
	call	__ZNSt3__112basic_stringIcNS_11char_traitsIcEENS_9allocatorIcEEEaSEPKc
	cmp	dword ptr [r12], 0
	jle	LBB46_12

	xor	r13d, r13d
	lea	rbx, [rbp - 144]
	lea	r14, [rip + L_.str.34]
	jmp	LBB46_9
	.p2align	4, 0x90
LBB46_8:                                
	movsxd	rax, dword ptr [r12]
	cmp	r13, rax
	jge	LBB46_12
LBB46_9:                                
	mov	rsi, qword ptr [r15 + 8*r13]
	mov	rdi, rbx
	call	__ZNSt3__112basic_stringIcNS_11char_traitsIcEENS_9allocatorIcEEEC1IDnEEPKc
Ltmp27:
	mov	rdi, rbx
	call	__ZN6loguruL6escapeERNSt3__112basic_stringIcNS0_11char_traitsIcEENS0_9allocatorIcEEEERKS6_
Ltmp28:

	mov	rdi, rbx
	call	__ZNSt3__112basic_stringIcNS_11char_traitsIcEENS_9allocatorIcEEED1Ev
	inc	r13
	movsxd	rax, dword ptr [r12]
	cmp	r13, rax
	jge	LBB46_8

	lea	rdi, [rip + __ZN6loguruL11s_argumentsE]
	mov	rsi, r14
	call	__ZNSt3__112basic_stringIcNS_11char_traitsIcEENS_9allocatorIcEEEpLEPKc
	jmp	LBB46_8
LBB46_12:
	mov	r13, qword ptr [rbp - 192] 
	mov	rdx, qword ptr [r13]
	test	rdx, rdx
	je	LBB46_14

	mov	rdi, r12
	mov	rsi, r15
	call	__ZN6loguruL10parse_argsERiPPcPKc
LBB46_14:
	mov	rbx, qword ptr [r13 + 8]
	test	rbx, rbx
	je	LBB46_17

	xorps	xmm0, xmm0
	movaps	xmmword ptr [rbp - 144], xmm0
	call	_pthread_self
	lea	rsi, [rbp - 144]
	mov	edx, 16
	mov	rdi, rax
	call	_pthread_getname_np
	cmp	byte ptr [rbp - 144], 0
	jne	LBB46_17

	mov	rdi, rbx
	call	_pthread_setname_np
LBB46_17:
	cmp	dword ptr [rip + __ZN6loguru18g_stderr_verbosityE], 0
	js	LBB46_24

	cmp	byte ptr [rip + __ZN6loguru17g_preamble_headerE], 0
	je	LBB46_23

	lea	rdi, [rbp - 144]
	call	__ZN6loguruL21print_preamble_headerEPcm
	cmp	byte ptr [rip + __ZN6loguru18g_colorlogtostderrE], 0
	mov	rax, qword ptr [rip + ___stderrp@GOTPCREL]
	mov	rbx, qword ptr [rax]
	je	LBB46_22

	cmp	byte ptr [rip + __ZN6loguruL20s_terminal_has_colorE], 0
	je	LBB46_22

	call	__ZN6loguru14terminal_resetEv
	mov	r14, rax
	call	__ZN6loguru12terminal_dimEv
	lea	rsi, [rip + L_.str.35]
	lea	r8, [rbp - 144]
	mov	rdi, rbx
	mov	rdx, r14
	mov	rcx, rax
	xor	eax, eax
	call	_fprintf
	jmp	LBB46_23
LBB46_22:
	lea	rsi, [rip + L_.str.36]
	lea	rdx, [rbp - 144]
	mov	rdi, rbx
	xor	eax, eax
	call	_fprintf
LBB46_23:
	mov	rax, qword ptr [rip + ___stderrp@GOTPCREL]
	mov	rdi, qword ptr [rax]
	call	_fflush
LBB46_24:
	mov	ebx, dword ptr [rip + __ZN6loguru20g_internal_verbosityE]
	call	__ZN6loguru24current_verbosity_cutoffEv
	cmp	ebx, eax
	jg	LBB46_26

	lea	rdi, [rip + __ZN6loguruL11s_argumentsE]
	call	__ZNKSt3__112basic_stringIcNS_11char_traitsIcEENS_9allocatorIcEEE5c_strEv
	lea	rsi, [rip + L_.str.28]
	lea	rcx, [rip + L_.str.37]
	mov	edi, ebx
	mov	edx, 647
	mov	r8, rax
	xor	eax, eax
	call	__ZN6loguru3logEiPKcjS1_z
LBB46_26:
	lea	rdi, [rip + __ZN6loguruL13s_current_dirE]
	call	_strlen
	test	rax, rax
	je	LBB46_29

	mov	ebx, dword ptr [rip + __ZN6loguru20g_internal_verbosityE]
	call	__ZN6loguru24current_verbosity_cutoffEv
	cmp	ebx, eax
	jg	LBB46_29

	lea	rsi, [rip + L_.str.28]
	lea	rcx, [rip + L_.str.38]
	lea	r8, [rip + __ZN6loguruL13s_current_dirE]
	mov	edi, ebx
	mov	edx, 650
	xor	eax, eax
	call	__ZN6loguru3logEiPKcjS1_z
LBB46_29:
	mov	ebx, dword ptr [rip + __ZN6loguru20g_internal_verbosityE]
	call	__ZN6loguru24current_verbosity_cutoffEv
	cmp	ebx, eax
	jg	LBB46_31

	mov	r8d, dword ptr [rip + __ZN6loguru18g_stderr_verbosityE]
	lea	rsi, [rip + L_.str.28]
	lea	rcx, [rip + L_.str.39]
	mov	edi, ebx
	mov	edx, 652
	xor	eax, eax
	call	__ZN6loguru3logEiPKcjS1_z
LBB46_31:
	mov	ebx, dword ptr [rip + __ZN6loguru20g_internal_verbosityE]
	call	__ZN6loguru24current_verbosity_cutoffEv
	cmp	ebx, eax
	jg	LBB46_33

	lea	rsi, [rip + L_.str.28]
	lea	rcx, [rip + L_.str.40]
	mov	edi, ebx
	mov	edx, 653
	xor	eax, eax
	call	__ZN6loguru3logEiPKcjS1_z
LBB46_33:
	add	r13, 16
	mov	rdi, r13
	call	__ZN6loguruL23install_signal_handlersERKNS_13SignalOptionsE
	lea	rdi, [rip + __ZN6loguruL9on_atexitEv]
	call	_atexit
	mov	rax, qword ptr [rip + ___stack_chk_guard@GOTPCREL]
	mov	rax, qword ptr [rax]
	cmp	rax, qword ptr [rbp - 48]
	jne	LBB46_35

	add	rsp, 168
	pop	rbx
	pop	r12
	pop	r13
	pop	r14
	pop	r15
	pop	rbp
	ret
LBB46_35:
	call	___stack_chk_fail
LBB46_36:
	lea	rdi, [rbp - 144]
	lea	rsi, [rbp - 176]
	call	__ZN6loguru12format_valueIiEENS_4TextERKT_
Ltmp0:
	lea	rdi, [rbp - 184]
	lea	rsi, [rbp - 168]
	call	__ZN6loguru12format_valueIiEENS_4TextERKT_
Ltmp1:

	lea	rdi, [rbp - 144]
	call	__ZNK6loguru4Text5c_strEv
	mov	rbx, rax
	lea	rdi, [rbp - 184]
	call	__ZNK6loguru4Text5c_strEv
Ltmp3:
	mov	qword ptr [rsp + 8], rax
	lea	rcx, [rip + L_.str.25]
	mov	qword ptr [rsp], rcx
	lea	rsi, [rip + L_.str.23]
	lea	rdx, [rip + L_.str.24]
	lea	r8, [rip + L_.str.26]
	lea	rdi, [rbp - 160]
	mov	r9, rbx
	xor	eax, eax
	call	__ZN6loguru10textprintfEPKcz
Ltmp4:

Ltmp6:
	lea	rsi, [rip + L_.str.27]
	lea	rdi, [rbp - 152]
	xor	eax, eax
	call	__ZN6loguru10textprintfEPKcz
Ltmp7:

	lea	rdi, [rbp - 160]
	call	__ZNK6loguru4Text5c_strEv
	mov	rbx, rax
	lea	rdi, [rbp - 152]
	call	__ZNK6loguru4Text5c_strEv
Ltmp9:
	lea	rdx, [rip + L_.str.28]
	lea	r8, [rip + L_.str.29]
	xor	edi, edi
	mov	rsi, rbx
	mov	ecx, 588
	mov	r9, rax
	xor	eax, eax
	call	__ZN6loguru13log_and_abortEiPKcS1_jS1_z
Ltmp10:
	jmp	LBB46_44
LBB46_40:
	lea	rdi, [rbp - 160]
	lea	rsi, [rbp - 144]
	call	__ZN6loguru12format_valueIPcEENS_4TextERKT_
Ltmp12:
	lea	rdi, [rbp - 152]
	lea	rsi, [rbp - 184]
	call	__ZN6loguru12format_valueIDnEENS_4TextERKT_
Ltmp13:

	lea	rdi, [rbp - 160]
	call	__ZNK6loguru4Text5c_strEv
	mov	rbx, rax
	lea	rdi, [rbp - 152]
	call	__ZNK6loguru4Text5c_strEv
Ltmp15:
	mov	qword ptr [rsp + 8], rax
	lea	rcx, [rip + L_.str.31]
	mov	qword ptr [rsp], rcx
	lea	rsi, [rip + L_.str.23]
	lea	rdx, [rip + L_.str.30]
	lea	r8, [rip + L_.str.32]
	lea	rdi, [rbp - 176]
	mov	r9, rbx
	xor	eax, eax
	call	__ZN6loguru10textprintfEPKcz
Ltmp16:

Ltmp18:
	lea	rsi, [rip + L_.str.27]
	lea	rdi, [rbp - 168]
	xor	eax, eax
	call	__ZN6loguru10textprintfEPKcz
Ltmp19:

	lea	rdi, [rbp - 176]
	call	__ZNK6loguru4Text5c_strEv
	mov	rbx, rax
	lea	rdi, [rbp - 168]
	call	__ZNK6loguru4Text5c_strEv
Ltmp21:
	lea	rdx, [rip + L_.str.28]
	lea	r8, [rip + L_.str.29]
	xor	edi, edi
	mov	rsi, rbx
	mov	ecx, 589
	mov	r9, rax
	xor	eax, eax
	call	__ZN6loguru13log_and_abortEiPKcS1_jS1_z
Ltmp22:
LBB46_44:
	ud2
LBB46_45:
Ltmp23:
	mov	rbx, rax
	lea	rdi, [rbp - 168]
	call	__ZN6loguru4TextD1Ev
	jmp	LBB46_47
LBB46_46:
Ltmp20:
	mov	rbx, rax
LBB46_47:
	lea	rdi, [rbp - 176]
	call	__ZN6loguru4TextD1Ev
	jmp	LBB46_49
LBB46_48:
Ltmp17:
	mov	rbx, rax
LBB46_49:
	lea	rdi, [rbp - 152]
	call	__ZN6loguru4TextD1Ev
	jmp	LBB46_51
LBB46_50:
Ltmp14:
	mov	rbx, rax
LBB46_51:
	lea	rdi, [rbp - 160]
	call	__ZN6loguru4TextD1Ev
	jmp	LBB46_62
LBB46_52:
Ltmp11:
	mov	rbx, rax
	lea	rdi, [rbp - 152]
	call	__ZN6loguru4TextD1Ev
	jmp	LBB46_54
LBB46_53:
Ltmp8:
	mov	rbx, rax
LBB46_54:
	lea	rdi, [rbp - 160]
	call	__ZN6loguru4TextD1Ev
	jmp	LBB46_56
LBB46_55:
Ltmp5:
	mov	rbx, rax
LBB46_56:
	lea	rdi, [rbp - 184]
	call	__ZN6loguru4TextD1Ev
	jmp	LBB46_60
LBB46_57:
Ltmp2:
	jmp	LBB46_59
LBB46_58:
Ltmp26:
LBB46_59:
	mov	rbx, rax
LBB46_60:
	lea	rdi, [rbp - 144]
	call	__ZN6loguru4TextD1Ev
	jmp	LBB46_62
LBB46_61:
Ltmp29:
	mov	rbx, rax
	lea	rdi, [rbp - 144]
	call	__ZNSt3__112basic_stringIcNS_11char_traitsIcEENS_9allocatorIcEEED1Ev
LBB46_62:
	mov	rdi, rbx
	call	__Unwind_Resume
	ud2
Lfunc_end0:
	.cfi_endproc
	.section	__TEXT,__gcc_except_tab
	.p2align	2
GCC_except_table46:
Lexception0:
	.byte	255                     
	.byte	255                     
	.byte	1                       
	.uleb128 Lcst_end0-Lcst_begin0
Lcst_begin0:
	.uleb128 Lfunc_begin0-Lfunc_begin0 
	.uleb128 Ltmp24-Lfunc_begin0    
	.byte	0                       
	.byte	0                       
	.uleb128 Ltmp24-Lfunc_begin0    
	.uleb128 Ltmp25-Ltmp24          
	.uleb128 Ltmp26-Lfunc_begin0    
	.byte	0                       
	.uleb128 Ltmp25-Lfunc_begin0    
	.uleb128 Ltmp27-Ltmp25          
	.byte	0                       
	.byte	0                       
	.uleb128 Ltmp27-Lfunc_begin0    
	.uleb128 Ltmp28-Ltmp27          
	.uleb128 Ltmp29-Lfunc_begin0    
	.byte	0                       
	.uleb128 Ltmp28-Lfunc_begin0    
	.uleb128 Ltmp0-Ltmp28           
	.byte	0                       
	.byte	0                       
	.uleb128 Ltmp0-Lfunc_begin0     
	.uleb128 Ltmp1-Ltmp0            
	.uleb128 Ltmp2-Lfunc_begin0     
	.byte	0                       
	.uleb128 Ltmp3-Lfunc_begin0     
	.uleb128 Ltmp4-Ltmp3            
	.uleb128 Ltmp5-Lfunc_begin0     
	.byte	0                       
	.uleb128 Ltmp6-Lfunc_begin0     
	.uleb128 Ltmp7-Ltmp6            
	.uleb128 Ltmp8-Lfunc_begin0     
	.byte	0                       
	.uleb128 Ltmp9-Lfunc_begin0     
	.uleb128 Ltmp10-Ltmp9           
	.uleb128 Ltmp11-Lfunc_begin0    
	.byte	0                       
	.uleb128 Ltmp10-Lfunc_begin0    
	.uleb128 Ltmp12-Ltmp10          
	.byte	0                       
	.byte	0                       
	.uleb128 Ltmp12-Lfunc_begin0    
	.uleb128 Ltmp13-Ltmp12          
	.uleb128 Ltmp14-Lfunc_begin0    
	.byte	0                       
	.uleb128 Ltmp15-Lfunc_begin0    
	.uleb128 Ltmp16-Ltmp15          
	.uleb128 Ltmp17-Lfunc_begin0    
	.byte	0                       
	.uleb128 Ltmp18-Lfunc_begin0    
	.uleb128 Ltmp19-Ltmp18          
	.uleb128 Ltmp20-Lfunc_begin0    
	.byte	0                       
	.uleb128 Ltmp21-Lfunc_begin0    
	.uleb128 Ltmp22-Ltmp21          
	.uleb128 Ltmp23-Lfunc_begin0    
	.byte	0                       
	.uleb128 Ltmp22-Lfunc_begin0    
	.uleb128 Lfunc_end0-Ltmp22      
	.byte	0                       
	.byte	0                       
Lcst_end0:
	.p2align	2
                                        
	.section	__TEXT,__text,regular,pure_instructions
	.globl	__ZN6loguru12format_valueIiEENS_4TextERKT_ 
	.weak_def_can_be_hidden	__ZN6loguru12format_valueIiEENS_4TextERKT_
	.p2align	4, 0x90
__ZN6loguru12format_valueIiEENS_4TextERKT_: 
	.cfi_startproc

	push	rbp
	.cfi_def_cfa_offset 16
	.cfi_offset rbp, -16
	mov	rbp, rsp
	.cfi_def_cfa_register rbp
	push	rbx
	push	rax
	.cfi_offset rbx, -24
	mov	rbx, rdi
	mov	edx, dword ptr [rsi]
	lea	rsi, [rip + L_.str.147]
	xor	eax, eax
	call	__ZN6loguru10textprintfEPKcz
	mov	rax, rbx
	add	rsp, 8
	pop	rbx
	pop	rbp
	ret
	.cfi_endproc
                                        
	.globl	__ZNK6loguru4Text5c_strEv 
	.weak_def_can_be_hidden	__ZNK6loguru4Text5c_strEv
	.p2align	4, 0x90
__ZNK6loguru4Text5c_strEv:              

	push	rbp
	mov	rbp, rsp
	mov	rax, qword ptr [rdi]
	pop	rbp
	ret
                                        
	.globl	__ZN6loguru13log_and_abortEiPKcS1_jS1_z 
	.p2align	4, 0x90
__ZN6loguru13log_and_abortEiPKcS1_jS1_z: 
Lfunc_begin1:
	.cfi_startproc
	.cfi_personality 155, ___gxx_personality_v0
	.cfi_lsda 16, Lexception1

	push	rbp
	.cfi_def_cfa_offset 16
	.cfi_offset rbp, -16
	mov	rbp, rsp
	.cfi_def_cfa_register rbp
	push	r15
	push	r14
	push	r13
	push	r12
	push	rbx
	sub	rsp, 216
	.cfi_offset rbx, -56
	.cfi_offset r12, -48
	.cfi_offset r13, -40
	.cfi_offset r14, -32
	.cfi_offset r15, -24
	mov	r14d, ecx
	mov	r12, rdx
	mov	r15, rsi
	mov	ebx, edi
	test	al, al
	je	LBB49_2

	movaps	xmmword ptr [rbp - 208], xmm0
	movaps	xmmword ptr [rbp - 192], xmm1
	movaps	xmmword ptr [rbp - 176], xmm2
	movaps	xmmword ptr [rbp - 160], xmm3
	movaps	xmmword ptr [rbp - 144], xmm4
	movaps	xmmword ptr [rbp - 128], xmm5
	movaps	xmmword ptr [rbp - 112], xmm6
	movaps	xmmword ptr [rbp - 96], xmm7
LBB49_2:
	mov	qword ptr [rbp - 216], r9
	lea	rax, [rbp - 256]
	mov	qword ptr [rbp - 64], rax
	lea	rax, [rbp + 16]
	mov	qword ptr [rbp - 72], rax
	movabs	rax, 206158430248
	mov	qword ptr [rbp - 80], rax
	lea	r13, [rbp - 48]
	lea	rdx, [rbp - 80]
	mov	rdi, r13
	mov	rsi, r8
	call	__ZN6loguruL11vtextprintfEPKcP13__va_list_tag
	inc	ebx
	mov	rdi, r13
	call	__ZNK6loguru4Text5c_strEv
Ltmp30:
	mov	edi, ebx
	mov	esi, -3
	mov	rdx, r12
	mov	ecx, r14d
	mov	r8, r15
	mov	r9, rax
	call	__ZN6loguru17log_to_everywhereEiiPKcjS1_S1_
Ltmp31:

Ltmp32:
	call	_abort
Ltmp33:

	ud2
LBB49_5:
Ltmp34:
	mov	rbx, rax
	lea	rdi, [rbp - 48]
	call	__ZN6loguru4TextD1Ev
	mov	rdi, rbx
	call	__Unwind_Resume
	ud2
Lfunc_end1:
	.cfi_endproc
	.section	__TEXT,__gcc_except_tab
	.p2align	2
GCC_except_table49:
Lexception1:
	.byte	255                     
	.byte	255                     
	.byte	1                       
	.uleb128 Lcst_end1-Lcst_begin1
Lcst_begin1:
	.uleb128 Lfunc_begin1-Lfunc_begin1 
	.uleb128 Ltmp30-Lfunc_begin1    
	.byte	0                       
	.byte	0                       
	.uleb128 Ltmp30-Lfunc_begin1    
	.uleb128 Ltmp33-Ltmp30          
	.uleb128 Ltmp34-Lfunc_begin1    
	.byte	0                       
	.uleb128 Ltmp33-Lfunc_begin1    
	.uleb128 Lfunc_end1-Ltmp33      
	.byte	0                       
	.byte	0                       
Lcst_end1:
	.p2align	2
                                        
	.section	__TEXT,__text,regular,pure_instructions
	.globl	__ZN6loguru12format_valueIPcEENS_4TextERKT_ 
	.weak_def_can_be_hidden	__ZN6loguru12format_valueIPcEENS_4TextERKT_
	.p2align	4, 0x90
__ZN6loguru12format_valueIPcEENS_4TextERKT_: 
	.cfi_startproc

	push	rbp
	.cfi_def_cfa_offset 16
	.cfi_offset rbp, -16
	mov	rbp, rsp
	.cfi_def_cfa_register rbp
	push	rbx
	push	rax
	.cfi_offset rbx, -24
	mov	rbx, rdi
	lea	rsi, [rip + L_.str.196]
	xor	eax, eax
	call	__ZN6loguru10textprintfEPKcz
	mov	rax, rbx
	add	rsp, 8
	pop	rbx
	pop	rbp
	ret
	.cfi_endproc
                                        
	.globl	__ZN6loguru12format_valueIDnEENS_4TextERKT_ 
	.weak_def_can_be_hidden	__ZN6loguru12format_valueIDnEENS_4TextERKT_
	.p2align	4, 0x90
__ZN6loguru12format_valueIDnEENS_4TextERKT_: 
	.cfi_startproc

	push	rbp
	.cfi_def_cfa_offset 16
	.cfi_offset rbp, -16
	mov	rbp, rsp
	.cfi_def_cfa_register rbp
	push	rbx
	push	rax
	.cfi_offset rbx, -24
	mov	rbx, rdi
	lea	rsi, [rip + L_.str.196]
	xor	eax, eax
	call	__ZN6loguru10textprintfEPKcz
	mov	rax, rbx
	add	rsp, 8
	pop	rbx
	pop	rbp
	ret
	.cfi_endproc
                                        
	.p2align	4, 0x90         
__ZNSt3__112basic_stringIcNS_11char_traitsIcEENS_9allocatorIcEEEaSEPKc: 
	.cfi_startproc

	push	rbp
	.cfi_def_cfa_offset 16
	.cfi_offset rbp, -16
	mov	rbp, rsp
	.cfi_def_cfa_register rbp
	call	__ZNSt3__112basic_stringIcNS_11char_traitsIcEENS_9allocatorIcEEE6assignEPKc
	pop	rbp
	ret
	.cfi_endproc
                                        
	.globl	__ZN6loguru24current_verbosity_cutoffEv 
	.p2align	4, 0x90
__ZN6loguru24current_verbosity_cutoffEv: 

	push	rbp
	mov	rbp, rsp
	mov	ecx, dword ptr [rip + __ZN6loguru18g_stderr_verbosityE]
	mov	eax, dword ptr [rip + __ZN6loguruL19s_max_out_verbosityE]
	cmp	ecx, eax
	cmovge	eax, ecx
	pop	rbp
	ret
                                        
	.globl	__ZN6loguru3logEiPKcjS1_z 
	.p2align	4, 0x90
__ZN6loguru3logEiPKcjS1_z:              
Lfunc_begin2:
	.cfi_startproc
	.cfi_personality 155, ___gxx_personality_v0
	.cfi_lsda 16, Lexception2

	push	rbp
	.cfi_def_cfa_offset 16
	.cfi_offset rbp, -16
	mov	rbp, rsp
	.cfi_def_cfa_register rbp
	push	r15
	push	r14
	push	r12
	push	rbx
	sub	rsp, 224
	.cfi_offset rbx, -48
	.cfi_offset r12, -40
	.cfi_offset r14, -32
	.cfi_offset r15, -24
	mov	r14d, edx
	mov	r15, rsi
	mov	r12d, edi
	test	al, al
	je	LBB54_2

	movaps	xmmword ptr [rbp - 208], xmm0
	movaps	xmmword ptr [rbp - 192], xmm1
	movaps	xmmword ptr [rbp - 176], xmm2
	movaps	xmmword ptr [rbp - 160], xmm3
	movaps	xmmword ptr [rbp - 144], xmm4
	movaps	xmmword ptr [rbp - 128], xmm5
	movaps	xmmword ptr [rbp - 112], xmm6
	movaps	xmmword ptr [rbp - 96], xmm7
LBB54_2:
	mov	qword ptr [rbp - 224], r8
	mov	qword ptr [rbp - 216], r9
	mov	rax, qword ptr [rip + ___stack_chk_guard@GOTPCREL]
	mov	rax, qword ptr [rax]
	mov	qword ptr [rbp - 40], rax
	lea	rax, [rbp - 256]
	mov	qword ptr [rbp - 48], rax
	lea	rax, [rbp + 16]
	mov	qword ptr [rbp - 56], rax
	movabs	rax, 206158430240
	mov	qword ptr [rbp - 64], rax
	lea	rbx, [rbp - 72]
	lea	rdx, [rbp - 64]
	mov	rdi, rbx
	mov	rsi, rcx
	call	__ZN6loguruL11vtextprintfEPKcP13__va_list_tag
	mov	rdi, rbx
	call	__ZNK6loguru4Text5c_strEv
Ltmp35:
	lea	r8, [rip + L_.str.8]
	mov	edi, 1
	mov	esi, r12d
	mov	rdx, r15
	mov	ecx, r14d
	mov	r9, rax
	call	__ZN6loguru17log_to_everywhereEiiPKcjS1_S1_
Ltmp36:

	lea	rdi, [rbp - 72]
	call	__ZN6loguru4TextD1Ev
	mov	rax, qword ptr [rip + ___stack_chk_guard@GOTPCREL]
	mov	rax, qword ptr [rax]
	cmp	rax, qword ptr [rbp - 40]
	jne	LBB54_6

	add	rsp, 224
	pop	rbx
	pop	r12
	pop	r14
	pop	r15
	pop	rbp
	ret
LBB54_6:
	call	___stack_chk_fail
LBB54_5:
Ltmp37:
	mov	rbx, rax
	lea	rdi, [rbp - 72]
	call	__ZN6loguru4TextD1Ev
	mov	rdi, rbx
	call	__Unwind_Resume
	ud2
Lfunc_end2:
	.cfi_endproc
	.section	__TEXT,__gcc_except_tab
	.p2align	2
GCC_except_table54:
Lexception2:
	.byte	255                     
	.byte	255                     
	.byte	1                       
	.uleb128 Lcst_end2-Lcst_begin2
Lcst_begin2:
	.uleb128 Lfunc_begin2-Lfunc_begin2 
	.uleb128 Ltmp35-Lfunc_begin2    
	.byte	0                       
	.byte	0                       
	.uleb128 Ltmp35-Lfunc_begin2    
	.uleb128 Ltmp36-Ltmp35          
	.uleb128 Ltmp37-Lfunc_begin2    
	.byte	0                       
	.uleb128 Ltmp36-Lfunc_begin2    
	.uleb128 Lfunc_end2-Ltmp36      
	.byte	0                       
	.byte	0                       
Lcst_end2:
	.p2align	2
                                        
	.section	__TEXT,__text,regular,pure_instructions
	.p2align	4, 0x90         
__ZN6loguruL6escapeERNSt3__112basic_stringIcNS0_11char_traitsIcEENS0_9allocatorIcEEEERKS6_: 
	.cfi_startproc

	push	rbp
	.cfi_def_cfa_offset 16
	.cfi_offset rbp, -16
	mov	rbp, rsp
	.cfi_def_cfa_register rbp
	push	r15
	push	r14
	push	r13
	push	r12
	push	rbx
	sub	rsp, 24
	.cfi_offset rbx, -56
	.cfi_offset r12, -48
	.cfi_offset r13, -40
	.cfi_offset r14, -32
	.cfi_offset r15, -24
	mov	rbx, rdi
	call	__ZNKSt3__112basic_stringIcNS_11char_traitsIcEENS_9allocatorIcEEE5beginEv
	mov	qword ptr [rbp - 56], rax
	mov	rdi, rbx
	call	__ZNKSt3__112basic_stringIcNS_11char_traitsIcEENS_9allocatorIcEEE3endEv
	mov	qword ptr [rbp - 48], rax
	lea	rdi, [rbp - 56]
	lea	rsi, [rbp - 48]
	call	__ZNSt3__1neIPKcEEbRKNS_11__wrap_iterIT_EES7_
	test	al, al
	je	LBB55_20

	lea	rbx, [rbp - 56]
	lea	r14, [rip + __ZN6loguruL11s_argumentsE]
	lea	r12, [rbp - 48]
	lea	r15, [rip + LJTI55_0]
	jmp	LBB55_5
LBB55_2:                                
	mov	rdi, r14
	lea	rsi, [rip + L_.str.150]
	.p2align	4, 0x90
LBB55_3:                                
	call	__ZNSt3__112basic_stringIcNS_11char_traitsIcEENS_9allocatorIcEEEpLEPKc
LBB55_4:                                
	mov	rdi, rbx
	call	__ZNSt3__111__wrap_iterIPKcEppEv
	mov	rdi, rbx
	mov	rsi, r12
	call	__ZNSt3__1neIPKcEEbRKNS_11__wrap_iterIT_EES7_
	test	al, al
	je	LBB55_20
LBB55_5:                                
	mov	rdi, rbx
	call	__ZNKSt3__111__wrap_iterIPKcEdeEv
	movzx	r13d, byte ptr [rax]
	lea	eax, [r13 - 7]
	cmp	al, 85
	ja	LBB55_14

	movzx	eax, al
	movsxd	rax, dword ptr [r15 + 4*rax]
	add	rax, r15
	jmp	rax
LBB55_7:                                
	mov	rdi, r14
	lea	rsi, [rip + L_.str.148]
	jmp	LBB55_3
LBB55_8:                                
	mov	rdi, r14
	lea	rsi, [rip + L_.str.116]
	jmp	LBB55_3
LBB55_9:                                
	mov	rdi, r14
	lea	rsi, [rip + L_.str.120]
	jmp	LBB55_3
LBB55_10:                               
	mov	rdi, r14
	lea	rsi, [rip + L_.str.118]
	jmp	LBB55_3
LBB55_11:                               
	mov	rdi, r14
	lea	rsi, [rip + L_.str.149]
	jmp	LBB55_3
LBB55_12:                               
	mov	rdi, r14
	lea	rsi, [rip + L_.str.117]
	jmp	LBB55_3
LBB55_13:                               
	mov	rdi, r14
	lea	rsi, [rip + L_.str.119]
	jmp	LBB55_3
LBB55_14:                               
	cmp	r13b, 31
	ja	LBB55_19

	mov	rdi, r14
	lea	rsi, [rip + L_.str.151]
	call	__ZNSt3__112basic_stringIcNS_11char_traitsIcEENS_9allocatorIcEEEpLEPKc
	movzx	edi, r13b
	call	__ZN6loguruL14write_hex_byteERNSt3__112basic_stringIcNS0_11char_traitsIcEENS0_9allocatorIcEEEEh
	jmp	LBB55_4
LBB55_16:                               
	mov	rdi, r14
	lea	rsi, [rip + L_.str.113]
	jmp	LBB55_3
LBB55_17:                               
	mov	rdi, r14
	lea	rsi, [rip + L_.str.114]
	jmp	LBB55_3
LBB55_18:                               
	mov	rdi, r14
	lea	rsi, [rip + L_.str.112]
	jmp	LBB55_3
LBB55_19:                               
	movsx	esi, r13b
	mov	rdi, r14
	call	__ZNSt3__112basic_stringIcNS_11char_traitsIcEENS_9allocatorIcEEEpLEc
	jmp	LBB55_4
LBB55_20:
	add	rsp, 24
	pop	rbx
	pop	r12
	pop	r13
	pop	r14
	pop	r15
	pop	rbp
	ret
	.cfi_endproc
	.p2align	2, 0x90
	.data_region jt32












LJTI55_0:
	.long	L55_0_set_7
	.long	L55_0_set_8
	.long	L55_0_set_9
	.long	L55_0_set_10
	.long	L55_0_set_11
	.long	L55_0_set_12
	.long	L55_0_set_13
	.long	L55_0_set_14
	.long	L55_0_set_14
	.long	L55_0_set_14
	.long	L55_0_set_14
	.long	L55_0_set_14
	.long	L55_0_set_14
	.long	L55_0_set_14
	.long	L55_0_set_14
	.long	L55_0_set_14
	.long	L55_0_set_14
	.long	L55_0_set_14
	.long	L55_0_set_14
	.long	L55_0_set_14
	.long	L55_0_set_14
	.long	L55_0_set_14
	.long	L55_0_set_14
	.long	L55_0_set_14
	.long	L55_0_set_14
	.long	L55_0_set_2
	.long	L55_0_set_14
	.long	L55_0_set_16
	.long	L55_0_set_14
	.long	L55_0_set_14
	.long	L55_0_set_14
	.long	L55_0_set_14
	.long	L55_0_set_17
	.long	L55_0_set_14
	.long	L55_0_set_14
	.long	L55_0_set_14
	.long	L55_0_set_14
	.long	L55_0_set_14
	.long	L55_0_set_14
	.long	L55_0_set_14
	.long	L55_0_set_14
	.long	L55_0_set_14
	.long	L55_0_set_14
	.long	L55_0_set_14
	.long	L55_0_set_14
	.long	L55_0_set_14
	.long	L55_0_set_14
	.long	L55_0_set_14
	.long	L55_0_set_14
	.long	L55_0_set_14
	.long	L55_0_set_14
	.long	L55_0_set_14
	.long	L55_0_set_14
	.long	L55_0_set_14
	.long	L55_0_set_14
	.long	L55_0_set_14
	.long	L55_0_set_14
	.long	L55_0_set_14
	.long	L55_0_set_14
	.long	L55_0_set_14
	.long	L55_0_set_14
	.long	L55_0_set_14
	.long	L55_0_set_14
	.long	L55_0_set_14
	.long	L55_0_set_14
	.long	L55_0_set_14
	.long	L55_0_set_14
	.long	L55_0_set_14
	.long	L55_0_set_14
	.long	L55_0_set_14
	.long	L55_0_set_14
	.long	L55_0_set_14
	.long	L55_0_set_14
	.long	L55_0_set_14
	.long	L55_0_set_14
	.long	L55_0_set_14
	.long	L55_0_set_14
	.long	L55_0_set_14
	.long	L55_0_set_14
	.long	L55_0_set_14
	.long	L55_0_set_14
	.long	L55_0_set_14
	.long	L55_0_set_14
	.long	L55_0_set_14
	.long	L55_0_set_14
	.long	L55_0_set_18
	.end_data_region
                                        
	.p2align	4, 0x90         
__ZNSt3__112basic_stringIcNS_11char_traitsIcEENS_9allocatorIcEEEC1IDnEEPKc: 
	.cfi_startproc

	push	rbp
	.cfi_def_cfa_offset 16
	.cfi_offset rbp, -16
	mov	rbp, rsp
	.cfi_def_cfa_register rbp
	call	__ZNSt3__112basic_stringIcNS_11char_traitsIcEENS_9allocatorIcEEEC2IDnEEPKc
	pop	rbp
	ret
	.cfi_endproc
                                        
	.p2align	4, 0x90         
__ZNSt3__112basic_stringIcNS_11char_traitsIcEENS_9allocatorIcEEEpLEPKc: 
	.cfi_startproc

	push	rbp
	.cfi_def_cfa_offset 16
	.cfi_offset rbp, -16
	mov	rbp, rsp
	.cfi_def_cfa_register rbp
	call	__ZNSt3__112basic_stringIcNS_11char_traitsIcEENS_9allocatorIcEEE6appendEPKc
	pop	rbp
	ret
	.cfi_endproc
                                        
	.p2align	4, 0x90         
__ZN6loguruL10parse_argsERiPPcPKc:      
Lfunc_begin3:
	.cfi_startproc
	.cfi_personality 155, ___gxx_personality_v0
	.cfi_lsda 16, Lexception3

	push	rbp
	.cfi_def_cfa_offset 16
	.cfi_offset rbp, -16
	mov	rbp, rsp
	.cfi_def_cfa_register rbp
	push	r15
	push	r14
	push	r13
	push	r12
	push	rbx
	sub	rsp, 104
	.cfi_offset rbx, -56
	.cfi_offset r12, -48
	.cfi_offset r13, -40
	.cfi_offset r14, -32
	.cfi_offset r15, -24
	mov	qword ptr [rbp - 104], rdx 
	mov	qword ptr [rbp - 72], rsi 
	mov	qword ptr [rbp - 80], rdi 
	mov	eax, dword ptr [rdi]
	mov	dword ptr [rbp - 44], eax 
	cmp	eax, 2
	jl	LBB58_32

	mov	dword ptr [rbp - 60], 1 
	mov	r14d, 1
	jmp	LBB58_2
	.p2align	4, 0x90
LBB58_30:                               
	mov	rdx, qword ptr [rbp - 72] 
	mov	rax, qword ptr [rdx + 8*r15]
	mov	esi, dword ptr [rbp - 60] 
	movsxd	rcx, esi
	inc	esi
	mov	dword ptr [rbp - 60], esi 
	mov	qword ptr [rdx + 8*rcx], rax
LBB58_31:                               
	inc	r14d
	mov	rax, qword ptr [rbp - 80] 
	cmp	r14d, dword ptr [rax]
	jge	LBB58_32
LBB58_2:                                
	movsxd	r15, r14d
	mov	rax, qword ptr [rbp - 72] 
	mov	r12, qword ptr [rax + 8*r15]
	mov	rbx, qword ptr [rbp - 104] 
	mov	rdi, rbx
	call	_strlen
	mov	r13, rax
	mov	rdi, r12
	mov	rsi, rbx
	mov	rdx, rax
	call	_strncmp
	test	eax, eax
	je	LBB58_4

	xor	eax, eax
	xor	ebx, ebx
	test	al, al
	je	LBB58_8
LBB58_7:                                
	lea	rdi, [rbp - 88]
	call	__ZNSt3__16localeD1Ev
LBB58_8:                                
	test	bl, bl
	je	LBB58_30

	cmp	byte ptr [r12 + r13], 0
	je	LBB58_11

	dec	dword ptr [rbp - 44]    
	add	r12, r13
	jmp	LBB58_25
	.p2align	4, 0x90
LBB58_4:                                
	movsx	ebx, byte ptr [r12 + r13]
	lea	rdi, [rbp - 88]
	lea	rsi, [rip + L_.str.8]
	call	__ZNSt3__16localeC1EPKc
Ltmp38:
	mov	edi, ebx
	lea	rsi, [rbp - 88]
	call	__ZNSt3__1L7isalphaIcEEbT_RKNS_6localeE
Ltmp39:

	mov	ebx, eax
	xor	bl, 1
	mov	al, 1
	test	al, al
	jne	LBB58_7
	jmp	LBB58_8
LBB58_11:                               
	inc	r14d
	mov	dword ptr [rbp - 96], r14d
	mov	rax, qword ptr [rbp - 80] 
	mov	eax, dword ptr [rax]
	mov	dword ptr [rbp - 92], eax
	cmp	r14d, eax
	jge	LBB58_12

	movsxd	rax, r14d
	mov	rcx, qword ptr [rbp - 72] 
	mov	r12, qword ptr [rcx + 8*rax]
	add	dword ptr [rbp - 44], -2 
LBB58_25:                               
	lea	rbx, [r12 + 1]
	cmp	byte ptr [r12], 61
	cmovne	rbx, r12
	mov	rdi, rbx
	call	__ZN6loguru23get_verbosity_from_nameEPKc
	cmp	eax, -10
	jne	LBB58_26

	mov	qword ptr [rbp - 56], 0
	mov	rdi, rbx
	lea	rsi, [rbp - 56]
	mov	edx, 10
	call	_strtol
	mov	dword ptr [rip + __ZN6loguru18g_stderr_verbosityE], eax
	mov	rax, qword ptr [rbp - 56]
	test	rax, rax
	je	LBB58_29

	cmp	byte ptr [rax], 0
	je	LBB58_31
	jmp	LBB58_29
	.p2align	4, 0x90
LBB58_26:                               
	mov	dword ptr [rip + __ZN6loguru18g_stderr_verbosityE], eax
	jmp	LBB58_31
LBB58_32:
	mov	eax, dword ptr [rbp - 44] 
	mov	rcx, qword ptr [rbp - 80] 
	mov	dword ptr [rcx], eax
	cdqe
	mov	rcx, qword ptr [rbp - 72] 
	mov	qword ptr [rcx + 8*rax], 0
	add	rsp, 104
	pop	rbx
	pop	r12
	pop	r13
	pop	r14
	pop	r15
	pop	rbp
	ret
LBB58_29:
	lea	rsi, [rip + L_.str.157]
	lea	rdx, [rip + L_.str.28]
	lea	r8, [rip + L_.str.158]
	xor	edi, edi
	mov	ecx, 495
	mov	r9, rbx
	xor	eax, eax
	call	__ZN6loguru13log_and_abortEiPKcS1_jS1_z
LBB58_12:
	lea	rdi, [rbp - 56]
	lea	rsi, [rbp - 96]
	call	__ZN6loguru12format_valueIiEENS_4TextERKT_
Ltmp41:
	lea	rdi, [rbp - 128]
	lea	rsi, [rbp - 92]
	call	__ZN6loguru12format_valueIiEENS_4TextERKT_
Ltmp42:

	lea	rdi, [rbp - 56]
	call	__ZNK6loguru4Text5c_strEv
	mov	rbx, rax
	lea	rdi, [rbp - 128]
	call	__ZNK6loguru4Text5c_strEv
Ltmp44:
	mov	qword ptr [rsp + 8], rax
	lea	rcx, [rip + L_.str.153]
	mov	qword ptr [rsp], rcx
	lea	rsi, [rip + L_.str.23]
	lea	rdx, [rip + L_.str.155]
	lea	r8, [rip + L_.str.24]
	lea	rdi, [rbp - 120]
	mov	r9, rbx
	xor	eax, eax
	call	__ZN6loguru10textprintfEPKcz
Ltmp45:

Ltmp47:
	lea	rsi, [rip + L_.str.156]
	lea	rdi, [rbp - 112]
	mov	rdx, qword ptr [rbp - 104] 
	xor	eax, eax
	call	__ZN6loguru10textprintfEPKcz
Ltmp48:

	lea	rdi, [rbp - 120]
	call	__ZNK6loguru4Text5c_strEv
	mov	rbx, rax
	lea	rdi, [rbp - 112]
	call	__ZNK6loguru4Text5c_strEv
Ltmp50:
	lea	rdx, [rip + L_.str.28]
	lea	r8, [rip + L_.str.29]
	xor	edi, edi
	mov	rsi, rbx
	mov	ecx, 482
	mov	r9, rax
	xor	eax, eax
	call	__ZN6loguru13log_and_abortEiPKcS1_jS1_z
Ltmp51:

	ud2
LBB58_20:
Ltmp52:
	mov	rbx, rax
	lea	rdi, [rbp - 112]
	call	__ZN6loguru4TextD1Ev
	jmp	LBB58_21
LBB58_19:
Ltmp49:
	mov	rbx, rax
LBB58_21:
	lea	rdi, [rbp - 120]
	call	__ZN6loguru4TextD1Ev
	jmp	LBB58_22
LBB58_18:
Ltmp46:
	mov	rbx, rax
LBB58_22:
	lea	rdi, [rbp - 128]
	call	__ZN6loguru4TextD1Ev
	jmp	LBB58_23
LBB58_17:
Ltmp43:
	mov	rbx, rax
LBB58_23:
	lea	rdi, [rbp - 56]
	call	__ZN6loguru4TextD1Ev
	jmp	LBB58_34
LBB58_33:
Ltmp40:
	mov	rbx, rax
	lea	rdi, [rbp - 88]
	call	__ZNSt3__16localeD1Ev
LBB58_34:
	mov	rdi, rbx
	call	__Unwind_Resume
	ud2
Lfunc_end3:
	.cfi_endproc
	.section	__TEXT,__gcc_except_tab
	.p2align	2
GCC_except_table58:
Lexception3:
	.byte	255                     
	.byte	255                     
	.byte	1                       
	.uleb128 Lcst_end3-Lcst_begin3
Lcst_begin3:
	.uleb128 Lfunc_begin3-Lfunc_begin3 
	.uleb128 Ltmp38-Lfunc_begin3    
	.byte	0                       
	.byte	0                       
	.uleb128 Ltmp38-Lfunc_begin3    
	.uleb128 Ltmp39-Ltmp38          
	.uleb128 Ltmp40-Lfunc_begin3    
	.byte	0                       
	.uleb128 Ltmp39-Lfunc_begin3    
	.uleb128 Ltmp41-Ltmp39          
	.byte	0                       
	.byte	0                       
	.uleb128 Ltmp41-Lfunc_begin3    
	.uleb128 Ltmp42-Ltmp41          
	.uleb128 Ltmp43-Lfunc_begin3    
	.byte	0                       
	.uleb128 Ltmp44-Lfunc_begin3    
	.uleb128 Ltmp45-Ltmp44          
	.uleb128 Ltmp46-Lfunc_begin3    
	.byte	0                       
	.uleb128 Ltmp47-Lfunc_begin3    
	.uleb128 Ltmp48-Ltmp47          
	.uleb128 Ltmp49-Lfunc_begin3    
	.byte	0                       
	.uleb128 Ltmp50-Lfunc_begin3    
	.uleb128 Ltmp51-Ltmp50          
	.uleb128 Ltmp52-Lfunc_begin3    
	.byte	0                       
	.uleb128 Ltmp51-Lfunc_begin3    
	.uleb128 Lfunc_end3-Ltmp51      
	.byte	0                       
	.byte	0                       
Lcst_end3:
	.p2align	2
                                        
	.section	__TEXT,__text,regular,pure_instructions
	.p2align	4, 0x90         
__ZN6loguruL21print_preamble_headerEPcm: 

	push	rbp
	mov	rbp, rsp
	push	r14
	push	rbx
	mov	r14, rdi
	mov	byte ptr [rdi], 0
	cmp	byte ptr [rip + __ZN6loguru15g_preamble_dateE], 0
	je	LBB59_1

	movabs	rax, 2314885531981603172
	mov	qword ptr [r14], rax
	mov	dword ptr [r14 + 8], 2105376
	mov	ebx, 11
	cmp	byte ptr [rip + __ZN6loguru15g_preamble_timeE], 0
	je	LBB59_5
LBB59_4:
	lea	rdi, [r14 + rbx]
	mov	esi, 92
	sub	rsi, rbx
	lea	rdx, [rip + L_.str.163]
	xor	eax, eax
	call	_snprintf
	cdqe
	add	rbx, rax
LBB59_5:
	cmp	rbx, 91
	ja	LBB59_8

	cmp	byte ptr [rip + __ZN6loguru17g_preamble_uptimeE], 0
	je	LBB59_8

	lea	rdi, [r14 + rbx]
	mov	esi, 92
	sub	rsi, rbx
	lea	rdx, [rip + L_.str.164]
	xor	eax, eax
	call	_snprintf
	cdqe
	add	rbx, rax
LBB59_8:
	cmp	rbx, 91
	ja	LBB59_11

	cmp	byte ptr [rip + __ZN6loguru17g_preamble_threadE], 0
	je	LBB59_11

	lea	rdi, [r14 + rbx]
	mov	esi, 92
	sub	rsi, rbx
	lea	rdx, [rip + L_.str.165]
	lea	r8, [rip + L_.str.166]
	mov	ecx, 16
	xor	eax, eax
	call	_snprintf
	cdqe
	add	rbx, rax
LBB59_11:
	cmp	rbx, 91
	ja	LBB59_14

	cmp	byte ptr [rip + __ZN6loguru15g_preamble_fileE], 0
	je	LBB59_14

	lea	rdi, [r14 + rbx]
	mov	esi, 92
	sub	rsi, rbx
	lea	rdx, [rip + L_.str.167]
	lea	r8, [rip + L_.str.168]
	mov	ecx, 23
	xor	eax, eax
	call	_snprintf
	cdqe
	add	rbx, rax
LBB59_14:
	cmp	rbx, 91
	ja	LBB59_17

	cmp	byte ptr [rip + __ZN6loguru18g_preamble_verboseE], 0
	je	LBB59_17

	lea	rdi, [r14 + rbx]
	mov	esi, 92
	sub	rsi, rbx
	lea	rdx, [rip + L_.str.169]
	xor	eax, eax
	call	_snprintf
	cdqe
	add	rbx, rax
LBB59_17:
	cmp	rbx, 91
	ja	LBB59_20

	cmp	byte ptr [rip + __ZN6loguru15g_preamble_pipeE], 0
	je	LBB59_20

	add	r14, rbx
	mov	esi, 92
	sub	rsi, rbx
	lea	rdx, [rip + L_.str.170]
	mov	rdi, r14
	xor	eax, eax
	call	_snprintf
LBB59_20:
	pop	rbx
	pop	r14
	pop	rbp
	ret
LBB59_1:
	xor	ebx, ebx
	cmp	byte ptr [rip + __ZN6loguru15g_preamble_timeE], 0
	jne	LBB59_4
	jmp	LBB59_5
                                        
	.p2align	4, 0x90         
__ZNKSt3__112basic_stringIcNS_11char_traitsIcEENS_9allocatorIcEEE5c_strEv: 

	push	rbp
	mov	rbp, rsp
	call	__ZNKSt3__112basic_stringIcNS_11char_traitsIcEENS_9allocatorIcEEE4dataEv
	pop	rbp
	ret
                                        
	.p2align	4, 0x90         
__ZN6loguruL23install_signal_handlersERKNS_13SignalOptionsE: 
	.cfi_startproc

	push	rbp
	.cfi_def_cfa_offset 16
	.cfi_offset rbp, -16
	mov	rbp, rsp
	.cfi_def_cfa_register rbp
	push	rbx
	sub	rsp, 24
	.cfi_offset rbx, -24
	mov	rbx, rdi
	mov	rax, qword ptr [rdi]
	mov	qword ptr [rip + __ZN6loguruL16s_signal_optionsE], rax
	xorps	xmm0, xmm0
	movaps	xmmword ptr [rbp - 32], xmm0
	or	byte ptr [rbp - 20], 64
	lea	rax, [rip + __ZN6loguru14signal_handlerEiP9__siginfoPv]
	mov	qword ptr [rbp - 32], rax
	cmp	byte ptr [rdi + 1], 0
	je	LBB61_2

	lea	rsi, [rbp - 32]
	mov	edi, 6
	xor	edx, edx
	call	_sigaction
	cmp	eax, -1
	je	LBB61_15
LBB61_2:
	cmp	byte ptr [rbx + 2], 0
	je	LBB61_4

	lea	rsi, [rbp - 32]
	mov	edi, 10
	xor	edx, edx
	call	_sigaction
	cmp	eax, -1
	je	LBB61_16
LBB61_4:
	cmp	byte ptr [rbx + 3], 0
	je	LBB61_6

	lea	rsi, [rbp - 32]
	mov	edi, 8
	xor	edx, edx
	call	_sigaction
	cmp	eax, -1
	je	LBB61_17
LBB61_6:
	cmp	byte ptr [rbx + 4], 0
	je	LBB61_8

	lea	rsi, [rbp - 32]
	mov	edi, 4
	xor	edx, edx
	call	_sigaction
	cmp	eax, -1
	je	LBB61_18
LBB61_8:
	cmp	byte ptr [rbx + 5], 0
	je	LBB61_10

	lea	rsi, [rbp - 32]
	mov	edi, 2
	xor	edx, edx
	call	_sigaction
	cmp	eax, -1
	je	LBB61_19
LBB61_10:
	cmp	byte ptr [rbx + 6], 0
	je	LBB61_12

	lea	rsi, [rbp - 32]
	mov	edi, 11
	xor	edx, edx
	call	_sigaction
	cmp	eax, -1
	je	LBB61_20
LBB61_12:
	cmp	byte ptr [rbx + 7], 0
	je	LBB61_14

	lea	rsi, [rbp - 32]
	mov	edi, 15
	xor	edx, edx
	call	_sigaction
	cmp	eax, -1
	je	LBB61_21
LBB61_14:
	add	rsp, 24
	pop	rbx
	pop	rbp
	ret
LBB61_15:
	lea	rsi, [rip + L_.str.182]
	lea	rdx, [rip + L_.str.28]
	lea	r8, [rip + L_.str.183]
	xor	edi, edi
	mov	ecx, 1934
	xor	eax, eax
	call	__ZN6loguru13log_and_abortEiPKcS1_jS1_z
LBB61_16:
	lea	rsi, [rip + L_.str.184]
	lea	rdx, [rip + L_.str.28]
	lea	r8, [rip + L_.str.185]
	xor	edi, edi
	mov	ecx, 1937
	xor	eax, eax
	call	__ZN6loguru13log_and_abortEiPKcS1_jS1_z
LBB61_17:
	lea	rsi, [rip + L_.str.186]
	lea	rdx, [rip + L_.str.28]
	lea	r8, [rip + L_.str.187]
	xor	edi, edi
	mov	ecx, 1940
	xor	eax, eax
	call	__ZN6loguru13log_and_abortEiPKcS1_jS1_z
LBB61_18:
	lea	rsi, [rip + L_.str.188]
	lea	rdx, [rip + L_.str.28]
	lea	r8, [rip + L_.str.189]
	xor	edi, edi
	mov	ecx, 1943
	xor	eax, eax
	call	__ZN6loguru13log_and_abortEiPKcS1_jS1_z
LBB61_19:
	lea	rsi, [rip + L_.str.190]
	lea	rdx, [rip + L_.str.28]
	lea	r8, [rip + L_.str.191]
	xor	edi, edi
	mov	ecx, 1946
	xor	eax, eax
	call	__ZN6loguru13log_and_abortEiPKcS1_jS1_z
LBB61_20:
	lea	rsi, [rip + L_.str.192]
	lea	rdx, [rip + L_.str.28]
	lea	r8, [rip + L_.str.193]
	xor	edi, edi
	mov	ecx, 1949
	xor	eax, eax
	call	__ZN6loguru13log_and_abortEiPKcS1_jS1_z
LBB61_21:
	lea	rsi, [rip + L_.str.194]
	lea	rdx, [rip + L_.str.28]
	lea	r8, [rip + L_.str.195]
	xor	edi, edi
	mov	ecx, 1952
	xor	eax, eax
	call	__ZN6loguru13log_and_abortEiPKcS1_jS1_z
	.cfi_endproc
                                        
	.p2align	4, 0x90         
__ZN6loguruL9on_atexitEv:               
	.cfi_startproc

	push	rbp
	.cfi_def_cfa_offset 16
	.cfi_offset rbp, -16
	mov	rbp, rsp
	.cfi_def_cfa_register rbp
	push	rbx
	push	rax
	.cfi_offset rbx, -24
	mov	ebx, dword ptr [rip + __ZN6loguru20g_internal_verbosityE]
	call	__ZN6loguru24current_verbosity_cutoffEv
	cmp	ebx, eax
	jg	LBB62_2

	lea	rsi, [rip + L_.str.28]
	lea	rcx, [rip + L_.str.159]
	mov	edi, ebx
	mov	edx, 526
	xor	eax, eax
	call	__ZN6loguru3logEiPKcjS1_z
LBB62_2:
	call	__ZN6loguru5flushEv
	add	rsp, 8
	pop	rbx
	pop	rbp
	ret
	.cfi_endproc
                                        
	.globl	__ZN6loguru8shutdownEv  
	.p2align	4, 0x90
__ZN6loguru8shutdownEv:                 
	.cfi_startproc

	push	rbp
	.cfi_def_cfa_offset 16
	.cfi_offset rbp, -16
	mov	rbp, rsp
	.cfi_def_cfa_register rbp
	push	rbx
	push	rax
	.cfi_offset rbx, -24
	mov	ebx, dword ptr [rip + __ZN6loguru20g_internal_verbosityE]
	call	__ZN6loguru24current_verbosity_cutoffEv
	cmp	ebx, eax
	jg	LBB63_2

	lea	rsi, [rip + L_.str.28]
	lea	rcx, [rip + L_.str.41]
	mov	edi, ebx
	mov	edx, 662
	xor	eax, eax
	call	__ZN6loguru3logEiPKcjS1_z
LBB63_2:
	call	__ZN6loguru20remove_all_callbacksEv
	xor	edi, edi
	call	__ZN6loguru17set_fatal_handlerEPFvRKNS_7MessageEE
	xor	edi, edi
	call	__ZN6loguru30set_verbosity_to_name_callbackEPFPKciE
	xor	edi, edi
	call	__ZN6loguru30set_name_to_verbosity_callbackEPFiPKcE
	add	rsp, 8
	pop	rbx
	pop	rbp
	ret
	.cfi_endproc
                                        
	.globl	__ZN6loguru20remove_all_callbacksEv 
	.p2align	4, 0x90
__ZN6loguru20remove_all_callbacksEv:    
Lfunc_begin4:
	.cfi_startproc
	.cfi_personality 155, ___gxx_personality_v0
	.cfi_lsda 16, Lexception4

	push	rbp
	.cfi_def_cfa_offset 16
	.cfi_offset rbp, -16
	mov	rbp, rsp
	.cfi_def_cfa_register rbp
	push	r14
	push	rbx
	sub	rsp, 32
	.cfi_offset rbx, -32
	.cfi_offset r14, -24
	lea	rdi, [rbp - 40]
	call	__ZNSt3__110lock_guardINS_15recursive_mutexEEC1ERS1_
	call	__ZNSt3__16vectorIN6loguru8CallbackENS_9allocatorIS2_EEE5beginEv
	mov	qword ptr [rbp - 32], rax
	call	__ZNSt3__16vectorIN6loguru8CallbackENS_9allocatorIS2_EEE3endEv
	mov	qword ptr [rbp - 24], rax
	lea	rdi, [rbp - 32]
	lea	rsi, [rbp - 24]
	call	__ZNSt3__1neIPN6loguru8CallbackEEEbRKNS_11__wrap_iterIT_EES8_
	test	al, al
	je	LBB64_5

	lea	rbx, [rbp - 32]
	lea	r14, [rbp - 24]
	jmp	LBB64_2
	.p2align	4, 0x90
LBB64_4:                                
	mov	rdi, rbx
	call	__ZNSt3__111__wrap_iterIPN6loguru8CallbackEEppEv
	mov	rdi, rbx
	mov	rsi, r14
	call	__ZNSt3__1neIPN6loguru8CallbackEEEbRKNS_11__wrap_iterIT_EES8_
	test	al, al
	je	LBB64_5
LBB64_2:                                
	mov	rdi, rbx
	call	__ZNKSt3__111__wrap_iterIPN6loguru8CallbackEEdeEv
	mov	rcx, qword ptr [rax + 48]
	test	rcx, rcx
	je	LBB64_4

	mov	rdi, qword ptr [rax + 32]
Ltmp53:
	call	rcx
Ltmp54:
	jmp	LBB64_4
LBB64_5:
	call	__ZNSt3__16vectorIN6loguru8CallbackENS_9allocatorIS2_EEE5clearEv
	call	__ZN6loguruL18on_callback_changeEv
	lea	rdi, [rbp - 40]
	call	__ZNSt3__110lock_guardINS_15recursive_mutexEED1Ev
	add	rsp, 32
	pop	rbx
	pop	r14
	pop	rbp
	ret
LBB64_6:
Ltmp55:
	mov	rbx, rax
	lea	rdi, [rbp - 40]
	call	__ZNSt3__110lock_guardINS_15recursive_mutexEED1Ev
	mov	rdi, rbx
	call	__Unwind_Resume
	ud2
Lfunc_end4:
	.cfi_endproc
	.section	__TEXT,__gcc_except_tab
	.p2align	2
GCC_except_table64:
Lexception4:
	.byte	255                     
	.byte	255                     
	.byte	1                       
	.uleb128 Lcst_end4-Lcst_begin4
Lcst_begin4:
	.uleb128 Lfunc_begin4-Lfunc_begin4 
	.uleb128 Ltmp53-Lfunc_begin4    
	.byte	0                       
	.byte	0                       
	.uleb128 Ltmp53-Lfunc_begin4    
	.uleb128 Ltmp54-Ltmp53          
	.uleb128 Ltmp55-Lfunc_begin4    
	.byte	0                       
	.uleb128 Ltmp54-Lfunc_begin4    
	.uleb128 Lfunc_end4-Ltmp54      
	.byte	0                       
	.byte	0                       
Lcst_end4:
	.p2align	2
                                        
	.section	__TEXT,__text,regular,pure_instructions
	.globl	__ZN6loguru17set_fatal_handlerEPFvRKNS_7MessageEE 
	.p2align	4, 0x90
__ZN6loguru17set_fatal_handlerEPFvRKNS_7MessageEE: 

	push	rbp
	mov	rbp, rsp
	mov	qword ptr [rip + __ZN6loguruL15s_fatal_handlerE], rdi
	pop	rbp
	ret
                                        
	.globl	__ZN6loguru30set_verbosity_to_name_callbackEPFPKciE 
	.p2align	4, 0x90
__ZN6loguru30set_verbosity_to_name_callbackEPFPKciE: 

	push	rbp
	mov	rbp, rsp
	mov	qword ptr [rip + __ZN6loguruL28s_verbosity_to_name_callbackE], rdi
	pop	rbp
	ret
                                        
	.globl	__ZN6loguru30set_name_to_verbosity_callbackEPFiPKcE 
	.p2align	4, 0x90
__ZN6loguru30set_name_to_verbosity_callbackEPFiPKcE: 

	push	rbp
	mov	rbp, rsp
	mov	qword ptr [rip + __ZN6loguruL28s_name_to_verbosity_callbackE], rdi
	pop	rbp
	ret
                                        
	.globl	__ZN6loguru15write_date_timeEPcm 
	.p2align	4, 0x90
__ZN6loguru15write_date_timeEPcm:       
	.cfi_startproc

	push	rbp
	.cfi_def_cfa_offset 16
	.cfi_offset rbp, -16
	mov	rbp, rsp
	.cfi_def_cfa_register rbp
	push	r15
	push	r14
	push	r13
	push	r12
	push	rbx
	sub	rsp, 72
	.cfi_offset rbx, -56
	.cfi_offset r12, -48
	.cfi_offset r13, -40
	.cfi_offset r14, -32
	.cfi_offset r15, -24
	mov	r14, rsi
	mov	r15, rdi
	call	__ZNSt3__16chrono12system_clock3nowEv
	mov	qword ptr [rbp - 56], rax
	lea	rdi, [rbp - 56]
	call	__ZNKSt3__16chrono10time_pointINS0_12system_clockENS0_8durationIxNS_5ratioILl1ELl1000000EEEEEE16time_since_epochEv
	mov	qword ptr [rbp - 48], rax
	lea	rdi, [rbp - 48]
	call	__ZNSt3__16chronoL13duration_castINS0_8durationIxNS_5ratioILl1ELl1000EEEEExNS3_ILl1ELl1000000EEEEENS_9enable_ifIXsr13__is_durationIT_EE5valueES8_E4typeERKNS2_IT0_T1_EE
	mov	qword ptr [rbp - 112], rax
	lea	rdi, [rbp - 112]
	call	__ZNKSt3__16chrono8durationIxNS_5ratioILl1ELl1000EEEE5countEv
	mov	r12, rax
	movabs	rcx, 2361183241434822607
	imul	rcx
	mov	rbx, rdx
	mov	rax, rdx
	shr	rax, 63
	sar	rbx, 7
	add	rbx, rax
	mov	qword ptr [rbp - 48], rbx
	lea	rdi, [rbp - 48]
	lea	rsi, [rbp - 112]
	call	_localtime_r
	mov	ecx, 1900
	add	ecx, dword ptr [rbp - 92]
	mov	r8d, dword ptr [rbp - 96]
	inc	r8d
	mov	r9d, dword ptr [rbp - 100]
	mov	r10d, dword ptr [rbp - 104]
	mov	r11d, dword ptr [rbp - 112]
	mov	r13d, dword ptr [rbp - 108]
	imul	rax, rbx, 1000
	sub	r12, rax
	lea	rdx, [rip + L_.str.42]
	mov	rdi, r15
	mov	rsi, r14
	mov	eax, 0
	push	r12
	push	r11
	push	r13
	push	r10
	call	_snprintf
	add	rsp, 104
	pop	rbx
	pop	r12
	pop	r13
	pop	r14
	pop	r15
	pop	rbp
	ret
	.cfi_endproc
                                        
	.p2align	4, 0x90         
__ZNSt3__16chronoL13duration_castINS0_8durationIxNS_5ratioILl1ELl1000EEEEExNS3_ILl1ELl1000000EEEEENS_9enable_ifIXsr13__is_durationIT_EE5valueES8_E4typeERKNS2_IT0_T1_EE: 

	push	rbp
	mov	rbp, rsp
	call	__ZNKSt3__16chrono15__duration_castINS0_8durationIxNS_5ratioILl1ELl1000000EEEEENS2_IxNS3_ILl1ELl1000EEEEES6_Lb1ELb0EEclERKS5_
	pop	rbp
	ret
                                        
	.p2align	4, 0x90         
__ZNKSt3__16chrono10time_pointINS0_12system_clockENS0_8durationIxNS_5ratioILl1ELl1000000EEEEEE16time_since_epochEv: 

	push	rbp
	mov	rbp, rsp
	mov	rax, qword ptr [rdi]
	pop	rbp
	ret
                                        
	.p2align	4, 0x90         
__ZNKSt3__16chrono8durationIxNS_5ratioILl1ELl1000EEEE5countEv: 

	push	rbp
	mov	rbp, rsp
	mov	rax, qword ptr [rdi]
	pop	rbp
	ret
                                        
	.globl	__ZN6loguru14argv0_filenameEv 
	.p2align	4, 0x90
__ZN6loguru14argv0_filenameEv:          

	push	rbp
	mov	rbp, rsp
	lea	rdi, [rip + __ZN6loguruL16s_argv0_filenameE]
	call	__ZNKSt3__112basic_stringIcNS_11char_traitsIcEENS_9allocatorIcEEE5c_strEv
	pop	rbp
	ret
                                        
	.globl	__ZN6loguru9argumentsEv 
	.p2align	4, 0x90
__ZN6loguru9argumentsEv:                

	push	rbp
	mov	rbp, rsp
	lea	rdi, [rip + __ZN6loguruL11s_argumentsE]
	call	__ZNKSt3__112basic_stringIcNS_11char_traitsIcEENS_9allocatorIcEEE5c_strEv
	pop	rbp
	ret
                                        
	.globl	__ZN6loguru11current_dirEv 
	.p2align	4, 0x90
__ZN6loguru11current_dirEv:             

	push	rbp
	mov	rbp, rsp
	lea	rax, [rip + __ZN6loguruL13s_current_dirE]
	pop	rbp
	ret
                                        
	.globl	__ZN6loguru8home_dirEv  
	.p2align	4, 0x90
__ZN6loguru8home_dirEv:                 
	.cfi_startproc

	push	rbp
	.cfi_def_cfa_offset 16
	.cfi_offset rbp, -16
	mov	rbp, rsp
	.cfi_def_cfa_register rbp
	lea	rdi, [rip + L_.str.43]
	call	_getenv
	test	rax, rax
	je	LBB75_2

	pop	rbp
	ret
LBB75_2:
	lea	rsi, [rip + L_.str.44]
	lea	rdx, [rip + L_.str.28]
	lea	r8, [rip + L_.str.45]
	xor	edi, edi
	mov	ecx, 710
	xor	eax, eax
	call	__ZN6loguru13log_and_abortEiPKcS1_jS1_z
	.cfi_endproc
                                        
	.globl	__ZN6loguru16suggest_log_pathEPKcPcj 
	.p2align	4, 0x90
__ZN6loguru16suggest_log_pathEPKcPcj:   
	.cfi_startproc

	push	rbp
	.cfi_def_cfa_offset 16
	.cfi_offset rbp, -16
	mov	rbp, rsp
	.cfi_def_cfa_register rbp
	push	r15
	push	r14
	push	r12
	push	rbx
	.cfi_offset rbx, -48
	.cfi_offset r12, -40
	.cfi_offset r14, -32
	.cfi_offset r15, -24
	mov	r14d, edx
	mov	rbx, rsi
	mov	r15, rdi
	lea	r12d, [r14 - 1]
	cmp	byte ptr [rdi], 126
	jne	LBB76_2

	call	__ZN6loguru8home_dirEv
	inc	r15
	lea	rdx, [rip + L_.str.46]
	mov	rdi, rbx
	mov	rsi, r12
	mov	rcx, rax
	mov	r8, r15
	xor	eax, eax
	call	_snprintf
	jmp	LBB76_3
LBB76_2:
	lea	rdx, [rip + L_.str.29]
	mov	rdi, rbx
	mov	rsi, r12
	mov	rcx, r15
	xor	eax, eax
	call	_snprintf
LBB76_3:
	mov	rdi, rbx
	call	_strlen
	mov	r14d, r14d
	test	rax, rax
	je	LBB76_7

	cmp	byte ptr [rax + rbx - 1], 47
	je	LBB76_7

	mov	rcx, rax
	add	rcx, 2
	cmp	rcx, r14
	jae	LBB76_8

	mov	word ptr [rbx + rax], 47
LBB76_7:
	lea	rdi, [rip + __ZN6loguruL16s_argv0_filenameE]
	call	__ZNKSt3__112basic_stringIcNS_11char_traitsIcEENS_9allocatorIcEEE5c_strEv
	mov	r15, rax
	mov	rdi, rbx
	call	_strlen
	not	rax
	lea	rdx, [rax + r14]
	mov	rdi, rbx
	mov	rsi, r15
	call	_strncat
	mov	rdi, rbx
	call	_strlen
	not	rax
	lea	rdx, [rax + r14]
	lea	rsi, [rip + L_.str.49]
	mov	rdi, rbx
	call	_strncat
	mov	rdi, rbx
	call	_strlen
	lea	rdi, [rbx + rax]
	mov	rsi, r14
	sub	rsi, rax
	call	__ZN6loguru15write_date_timeEPcm
	mov	rdi, rbx
	call	_strlen
	not	rax
	add	r14, rax
	lea	rsi, [rip + L_.str.50]
	mov	rdi, rbx
	mov	rdx, r14
	call	_strncat
	pop	rbx
	pop	r12
	pop	r14
	pop	r15
	pop	rbp
	ret
LBB76_8:
	lea	rsi, [rip + L_.str.47]
	lea	rdx, [rip + L_.str.28]
	lea	r8, [rip + L_.str.48]
	xor	edi, edi
	mov	ecx, 727
	xor	eax, eax
	call	__ZN6loguru13log_and_abortEiPKcS1_jS1_z
	.cfi_endproc
                                        
	.globl	__ZN6loguru18create_directoriesEPKc 
	.p2align	4, 0x90
__ZN6loguru18create_directoriesEPKc:    
	.cfi_startproc

	push	rbp
	.cfi_def_cfa_offset 16
	.cfi_offset rbp, -16
	mov	rbp, rsp
	.cfi_def_cfa_register rbp
	push	r15
	push	r14
	push	rbx
	push	rax
	.cfi_offset rbx, -40
	.cfi_offset r14, -32
	.cfi_offset r15, -24
	test	rdi, rdi
	je	LBB77_26

	cmp	byte ptr [rdi], 0
	je	LBB77_26

	call	_strdup
	mov	r14, rax
	lea	rdi, [rax + 1]
	call	__ZL6strchrUa9enable_ifIXLb1EEEPci
	mov	r15b, 1
	test	rax, rax
	je	LBB77_25

	mov	rbx, rax
	jmp	LBB77_4
	.p2align	4, 0x90
LBB77_24:                               
	mov	byte ptr [rbx], 47
	inc	rbx
	mov	rdi, rbx
	call	__ZL6strchrUa9enable_ifIXLb1EEEPci
	mov	rbx, rax
	test	rax, rax
	je	LBB77_25
LBB77_4:                                
	mov	byte ptr [rbx], 0
	mov	rdi, r14
	mov	esi, 493
	call	_mkdir
	cmp	eax, -1
	jne	LBB77_24

	call	___error
	cmp	dword ptr [rax], 17
	je	LBB77_24

	call	__ZN6loguru24current_verbosity_cutoffEv
	cmp	eax, -2
	jl	LBB77_8

	lea	rsi, [rip + L_.str.28]
	lea	rcx, [rip + L_.str.52]
	mov	edi, -2
	mov	edx, 759
	mov	r8, r14
	xor	eax, eax
	call	__ZN6loguru3logEiPKcjS1_z
LBB77_8:
	call	__ZN6loguru24current_verbosity_cutoffEv
	cmp	eax, -2
	jl	LBB77_11

	call	___error
	cmp	dword ptr [rax], 13
	jne	LBB77_11

	lea	rsi, [rip + L_.str.28]
	lea	rcx, [rip + L_.str.53]
	mov	edi, -2
	mov	edx, 760
	xor	eax, eax
	call	__ZN6loguru3logEiPKcjS1_z
LBB77_11:
	call	__ZN6loguru24current_verbosity_cutoffEv
	cmp	eax, -2
	jl	LBB77_14

	call	___error
	cmp	dword ptr [rax], 63
	jne	LBB77_14

	lea	rsi, [rip + L_.str.28]
	lea	rcx, [rip + L_.str.54]
	mov	edi, -2
	mov	edx, 761
	xor	eax, eax
	call	__ZN6loguru3logEiPKcjS1_z
LBB77_14:
	call	__ZN6loguru24current_verbosity_cutoffEv
	cmp	eax, -2
	jl	LBB77_17

	call	___error
	cmp	dword ptr [rax], 2
	jne	LBB77_17

	lea	rsi, [rip + L_.str.28]
	lea	rcx, [rip + L_.str.55]
	mov	edi, -2
	mov	edx, 762
	xor	eax, eax
	call	__ZN6loguru3logEiPKcjS1_z
LBB77_17:
	call	__ZN6loguru24current_verbosity_cutoffEv
	cmp	eax, -2
	jl	LBB77_20

	call	___error
	cmp	dword ptr [rax], 20
	jne	LBB77_20

	lea	rsi, [rip + L_.str.28]
	lea	rcx, [rip + L_.str.56]
	mov	edi, -2
	mov	edx, 763
	xor	eax, eax
	call	__ZN6loguru3logEiPKcjS1_z
LBB77_20:
	call	__ZN6loguru24current_verbosity_cutoffEv
	cmp	eax, -2
	jl	LBB77_23

	call	___error
	cmp	dword ptr [rax], 62
	jne	LBB77_23

	lea	rsi, [rip + L_.str.28]
	lea	rcx, [rip + L_.str.57]
	mov	edi, -2
	mov	edx, 764
	xor	eax, eax
	call	__ZN6loguru3logEiPKcjS1_z
LBB77_23:
	mov	byte ptr [rbx], 47
	xor	r15d, r15d
LBB77_25:
	mov	rdi, r14
	call	_free
	mov	eax, r15d
	add	rsp, 8
	pop	rbx
	pop	r14
	pop	r15
	pop	rbp
	ret
LBB77_26:
	lea	rsi, [rip + L_.str.51]
	lea	rdx, [rip + L_.str.28]
	xor	edi, edi
	mov	ecx, 748
	call	__ZN6loguru13log_and_abortEiPKcS1_j
	.cfi_endproc
                                        
	.globl	__ZN6loguru13log_and_abortEiPKcS1_j 
	.p2align	4, 0x90
__ZN6loguru13log_and_abortEiPKcS1_j:    
	.cfi_startproc

	push	rbp
	.cfi_def_cfa_offset 16
	.cfi_offset rbp, -16
	mov	rbp, rsp
	.cfi_def_cfa_register rbp
	inc	edi
	lea	r8, [rip + L_.str.34]
	xor	eax, eax
	call	__ZN6loguru13log_and_abortEiPKcS1_jS1_z
	.cfi_endproc
                                        
	.p2align	4, 0x90         
__ZL6strchrUa9enable_ifIXLb1EEEPci:     

	push	rbp
	mov	rbp, rsp
	call	__ZL15__libcpp_strchrPKci
	pop	rbp
	ret
                                        
	.globl	__ZN6loguru8add_fileEPKcNS_8FileModeEi 
	.p2align	4, 0x90
__ZN6loguru8add_fileEPKcNS_8FileModeEi: 
	.cfi_startproc

	push	rbp
	.cfi_def_cfa_offset 16
	.cfi_offset rbp, -16
	mov	rbp, rsp
	.cfi_def_cfa_register rbp
	push	r15
	push	r14
	push	r13
	push	r12
	push	rbx
	sub	rsp, 1144
	.cfi_offset rbx, -56
	.cfi_offset r12, -48
	.cfi_offset r13, -40
	.cfi_offset r14, -32
	.cfi_offset r15, -24
	mov	r14d, edx
	mov	r12d, esi
	mov	r13, rdi
	mov	rax, qword ptr [rip + ___stack_chk_guard@GOTPCREL]
	mov	rax, qword ptr [rax]
	mov	qword ptr [rbp - 48], rax
	cmp	byte ptr [rdi], 126
	jne	LBB80_2

	call	__ZN6loguru8home_dirEv
	lea	r8, [r13 + 1]
	lea	rdx, [rip + L_.str.46]
	lea	rdi, [rbp - 1072]
	mov	esi, 1023
	mov	rcx, rax
	xor	eax, eax
	call	_snprintf
	jmp	LBB80_3
LBB80_2:
	lea	rdx, [rip + L_.str.29]
	lea	rdi, [rbp - 1072]
	mov	esi, 1023
	mov	rcx, r13
	xor	eax, eax
	call	_snprintf
LBB80_3:
	lea	rdi, [rbp - 1072]
	call	__ZN6loguru18create_directoriesEPKc
	test	al, al
	jne	LBB80_6

	call	__ZN6loguru24current_verbosity_cutoffEv
	cmp	eax, -2
	jl	LBB80_6

	lea	rsi, [rip + L_.str.28]
	lea	rcx, [rip + L_.str.58]
	lea	r8, [rbp - 1072]
	mov	edi, -2
	mov	edx, 786
	xor	eax, eax
	call	__ZN6loguru3logEiPKcjS1_z
LBB80_6:
	test	r12d, r12d
	lea	rax, [rip + L_.str.59]
	lea	r15, [rip + L_.str.60]
	cmove	r15, rax
	lea	rdi, [rbp - 1072]
	mov	rsi, r15
	call	_fopen
	test	rax, rax
	je	LBB80_7

	mov	rbx, rax
	lea	rsi, [rip + __ZN6loguru8file_logEPvRKNS_7MessageE]
	lea	r8, [rip + __ZN6loguru10file_closeEPv]
	lea	r9, [rip + __ZN6loguru10file_flushEPv]
	mov	rdi, r13
	mov	rdx, rax
	mov	ecx, r14d
	call	__ZN6loguru12add_callbackEPKcPFvPvRKNS_7MessageEES2_iPFvS2_ES9_
	cmp	r12d, 1
	jne	LBB80_12

	lea	rdi, [rip + L_.str.62]
	mov	esi, 5
	mov	edx, 1
	mov	rcx, rbx
	call	_fwrite
LBB80_12:
	lea	rdi, [rip + __ZN6loguruL11s_argumentsE]
	call	__ZNKSt3__112basic_stringIcNS_11char_traitsIcEENS_9allocatorIcEEE5emptyEv
	test	al, al
	jne	LBB80_14

	lea	rdi, [rip + __ZN6loguruL11s_argumentsE]
	call	__ZNKSt3__112basic_stringIcNS_11char_traitsIcEENS_9allocatorIcEEE5c_strEv
	lea	rsi, [rip + L_.str.63]
	mov	rdi, rbx
	mov	rdx, rax
	xor	eax, eax
	call	_fprintf
LBB80_14:
	lea	rdi, [rip + __ZN6loguruL13s_current_dirE]
	call	_strlen
	test	rax, rax
	je	LBB80_16

	lea	rsi, [rip + L_.str.64]
	lea	rdx, [rip + __ZN6loguruL13s_current_dirE]
	mov	rdi, rbx
	xor	eax, eax
	call	_fprintf
LBB80_16:
	lea	rsi, [rip + L_.str.65]
	mov	rdi, rbx
	mov	edx, r14d
	xor	eax, eax
	call	_fprintf
	cmp	byte ptr [rip + __ZN6loguru17g_preamble_headerE], 0
	je	LBB80_18

	lea	r12, [rbp - 1168]
	mov	rdi, r12
	call	__ZN6loguruL21print_preamble_headerEPcm
	lea	rsi, [rip + L_.str.36]
	mov	rdi, rbx
	mov	rdx, r12
	xor	eax, eax
	call	_fprintf
LBB80_18:
	mov	rdi, rbx
	call	_fflush
	mov	ebx, dword ptr [rip + __ZN6loguru20g_internal_verbosityE]
	call	__ZN6loguru24current_verbosity_cutoffEv
	mov	r12b, 1
	cmp	ebx, eax
	jg	LBB80_20

	mov	dword ptr [rsp], r14d
	lea	rsi, [rip + L_.str.28]
	lea	rcx, [rip + L_.str.66]
	lea	r8, [rbp - 1072]
	mov	edi, ebx
	mov	edx, 830
	mov	r9, r15
	xor	eax, eax
	call	__ZN6loguru3logEiPKcjS1_z
	jmp	LBB80_20
LBB80_7:
	call	__ZN6loguru24current_verbosity_cutoffEv
	cmp	eax, -2
	jge	LBB80_9

	xor	r12d, r12d
	jmp	LBB80_20
LBB80_9:
	lea	rsi, [rip + L_.str.28]
	lea	rcx, [rip + L_.str.61]
	xor	r12d, r12d
	lea	r8, [rbp - 1072]
	mov	edi, -2
	mov	edx, 798
	xor	eax, eax
	call	__ZN6loguru3logEiPKcjS1_z
LBB80_20:
	mov	rax, qword ptr [rip + ___stack_chk_guard@GOTPCREL]
	mov	rax, qword ptr [rax]
	cmp	rax, qword ptr [rbp - 48]
	jne	LBB80_22

	mov	eax, r12d
	add	rsp, 1144
	pop	rbx
	pop	r12
	pop	r13
	pop	r14
	pop	r15
	pop	rbp
	ret
LBB80_22:
	call	___stack_chk_fail
	.cfi_endproc
                                        
	.globl	__ZN6loguru12add_callbackEPKcPFvPvRKNS_7MessageEES2_iPFvS2_ES9_ 
	.p2align	4, 0x90
__ZN6loguru12add_callbackEPKcPFvPvRKNS_7MessageEES2_iPFvS2_ES9_: 
Lfunc_begin5:
	.cfi_startproc
	.cfi_personality 155, ___gxx_personality_v0
	.cfi_lsda 16, Lexception5

	push	rbp
	.cfi_def_cfa_offset 16
	.cfi_offset rbp, -16
	mov	rbp, rsp
	.cfi_def_cfa_register rbp
	push	r15
	push	r14
	push	r13
	push	r12
	push	rbx
	sub	rsp, 88
	.cfi_offset rbx, -56
	.cfi_offset r12, -48
	.cfi_offset r13, -40
	.cfi_offset r14, -32
	.cfi_offset r15, -24
	mov	qword ptr [rbp - 56], r9 
	mov	r15, r8
	mov	r12d, ecx
	mov	r13, rdx
	mov	rbx, rsi
	mov	r14, rdi
	lea	rdi, [rbp - 48]
	call	__ZNSt3__110lock_guardINS_15recursive_mutexEEC1ERS1_
Ltmp56:
	lea	rdi, [rbp - 128]
	mov	rsi, r14
	call	__ZNSt3__112basic_stringIcNS_11char_traitsIcEENS_9allocatorIcEEEC1IDnEEPKc
Ltmp57:

	mov	qword ptr [rbp - 104], rbx
	mov	qword ptr [rbp - 96], r13
	mov	dword ptr [rbp - 88], r12d
	mov	qword ptr [rbp - 80], r15
	mov	rax, qword ptr [rbp - 56] 
	mov	qword ptr [rbp - 72], rax
	mov	dword ptr [rbp - 64], 0
Ltmp59:
	lea	rdi, [rbp - 128]
	call	__ZNSt3__16vectorIN6loguru8CallbackENS_9allocatorIS2_EEE9push_backEOS2_
Ltmp60:

	lea	rdi, [rbp - 128]
	call	__ZN6loguru8CallbackD1Ev
	call	__ZN6loguruL18on_callback_changeEv
	lea	rdi, [rbp - 48]
	call	__ZNSt3__110lock_guardINS_15recursive_mutexEED1Ev
	add	rsp, 88
	pop	rbx
	pop	r12
	pop	r13
	pop	r14
	pop	r15
	pop	rbp
	ret
LBB81_4:
Ltmp61:
	mov	rbx, rax
	lea	rdi, [rbp - 128]
	call	__ZN6loguru8CallbackD1Ev
	jmp	LBB81_5
LBB81_3:
Ltmp58:
	mov	rbx, rax
LBB81_5:
	lea	rdi, [rbp - 48]
	call	__ZNSt3__110lock_guardINS_15recursive_mutexEED1Ev
	mov	rdi, rbx
	call	__Unwind_Resume
	ud2
Lfunc_end5:
	.cfi_endproc
	.section	__TEXT,__gcc_except_tab
	.p2align	2
GCC_except_table81:
Lexception5:
	.byte	255                     
	.byte	255                     
	.byte	1                       
	.uleb128 Lcst_end5-Lcst_begin5
Lcst_begin5:
	.uleb128 Lfunc_begin5-Lfunc_begin5 
	.uleb128 Ltmp56-Lfunc_begin5    
	.byte	0                       
	.byte	0                       
	.uleb128 Ltmp56-Lfunc_begin5    
	.uleb128 Ltmp57-Ltmp56          
	.uleb128 Ltmp58-Lfunc_begin5    
	.byte	0                       
	.uleb128 Ltmp59-Lfunc_begin5    
	.uleb128 Ltmp60-Ltmp59          
	.uleb128 Ltmp61-Lfunc_begin5    
	.byte	0                       
	.uleb128 Ltmp60-Lfunc_begin5    
	.uleb128 Lfunc_end5-Ltmp60      
	.byte	0                       
	.byte	0                       
Lcst_end5:
	.p2align	2
                                        
	.section	__TEXT,__text,regular,pure_instructions
	.p2align	4, 0x90         
__ZNKSt3__112basic_stringIcNS_11char_traitsIcEENS_9allocatorIcEEE5emptyEv: 

	push	rbp
	mov	rbp, rsp
	call	__ZNKSt3__112basic_stringIcNS_11char_traitsIcEENS_9allocatorIcEEE4sizeEv
	test	rax, rax
	sete	al
	pop	rbp
	ret
                                        
	.globl	__ZN6loguru10add_syslogEPKci 
	.p2align	4, 0x90
__ZN6loguru10add_syslogEPKci:           
	.cfi_startproc

	push	rbp
	.cfi_def_cfa_offset 16
	.cfi_offset rbp, -16
	mov	rbp, rsp
	.cfi_def_cfa_register rbp
	mov	edx, 8
	call	__ZN6loguru10add_syslogEPKcii
	mov	al, 1
	pop	rbp
	ret
	.cfi_endproc
                                        
	.globl	__ZN6loguru10add_syslogEPKcii 
	.p2align	4, 0x90
__ZN6loguru10add_syslogEPKcii:          
	.cfi_startproc

	push	rbp
	.cfi_def_cfa_offset 16
	.cfi_offset rbp, -16
	mov	rbp, rsp
	.cfi_def_cfa_register rbp
	push	r14
	push	rbx
	.cfi_offset rbx, -32
	.cfi_offset r14, -24
	mov	ebx, edx
	mov	r14d, esi
	test	rdi, rdi
	jne	LBB84_2

	call	__ZN6loguru14argv0_filenameEv
	mov	rdi, rax
LBB84_2:
	xor	esi, esi
	mov	edx, ebx
	call	_openlog
	lea	rdi, [rip + L_.str.67]
	lea	rsi, [rip + __ZN6loguru10syslog_logEPvRKNS_7MessageE]
	lea	r8, [rip + __ZN6loguru12syslog_closeEPv]
	lea	r9, [rip + __ZN6loguru12syslog_flushEPv]
	xor	edx, edx
	mov	ecx, r14d
	call	__ZN6loguru12add_callbackEPKcPFvPvRKNS_7MessageEES2_iPFvS2_ES9_
	mov	ebx, dword ptr [rip + __ZN6loguru20g_internal_verbosityE]
	call	__ZN6loguru24current_verbosity_cutoffEv
	cmp	ebx, eax
	jg	LBB84_4

	lea	rsi, [rip + L_.str.28]
	lea	rcx, [rip + L_.str.68]
	mov	edi, ebx
	mov	edx, 862
	mov	r8d, r14d
	xor	eax, eax
	call	__ZN6loguru3logEiPKcjS1_z
LBB84_4:
	mov	al, 1
	pop	rbx
	pop	r14
	pop	rbp
	ret
	.cfi_endproc
                                        
	.globl	__ZN6loguru17get_fatal_handlerEv 
	.p2align	4, 0x90
__ZN6loguru17get_fatal_handlerEv:       

	push	rbp
	mov	rbp, rsp
	mov	rax, qword ptr [rip + __ZN6loguruL15s_fatal_handlerE]
	pop	rbp
	ret
                                        
	.globl	__ZN6loguru17add_stack_cleanupEPKcS1_ 
	.p2align	4, 0x90
__ZN6loguru17add_stack_cleanupEPKcS1_:  
Lfunc_begin6:
	.cfi_startproc
	.cfi_personality 155, ___gxx_personality_v0
	.cfi_lsda 16, Lexception6

	push	rbp
	.cfi_def_cfa_offset 16
	.cfi_offset rbp, -16
	mov	rbp, rsp
	.cfi_def_cfa_register rbp
	push	r14
	push	rbx
	sub	rsp, 64
	.cfi_offset rbx, -32
	.cfi_offset r14, -24
	mov	rbx, rsi
	mov	qword ptr [rbp - 32], rdi
	mov	qword ptr [rbp - 24], rsi
	call	_strlen
	mov	r14, rax
	mov	rdi, rbx
	call	_strlen
	cmp	r14, rax
	jbe	LBB86_1

	lea	rbx, [rbp - 80]
	lea	rsi, [rbp - 32]
	lea	rdx, [rbp - 24]
	mov	rdi, rbx
	call	__ZNSt3__14pairINS_12basic_stringIcNS_11char_traitsIcEENS_9allocatorIcEEEES6_EC1IRPKcSB_Lb0EEEOT_OT0_
Ltmp62:
	lea	rdi, [rip + __ZN6loguruL21s_user_stack_cleanupsE]
	mov	rsi, rbx
	call	__ZNSt3__16vectorINS_4pairINS_12basic_stringIcNS_11char_traitsIcEENS_9allocatorIcEEEES7_EENS5_IS8_EEE9push_backEOS8_
Ltmp63:

	lea	rdi, [rbp - 80]
	call	__ZNSt3__14pairINS_12basic_stringIcNS_11char_traitsIcEENS_9allocatorIcEEEES6_ED1Ev
	jmp	LBB86_5
LBB86_1:
	call	__ZN6loguru24current_verbosity_cutoffEv
	cmp	eax, -1
	jl	LBB86_5

	lea	rsi, [rip + L_.str.28]
	lea	rcx, [rip + L_.str.69]
	mov	edi, -1
	mov	edx, 896
	xor	eax, eax
	call	__ZN6loguru3logEiPKcjS1_z
LBB86_5:
	add	rsp, 64
	pop	rbx
	pop	r14
	pop	rbp
	ret
LBB86_6:
Ltmp64:
	mov	rbx, rax
	lea	rdi, [rbp - 80]
	call	__ZNSt3__14pairINS_12basic_stringIcNS_11char_traitsIcEENS_9allocatorIcEEEES6_ED1Ev
	mov	rdi, rbx
	call	__Unwind_Resume
	ud2
Lfunc_end6:
	.cfi_endproc
	.section	__TEXT,__gcc_except_tab
	.p2align	2
GCC_except_table86:
Lexception6:
	.byte	255                     
	.byte	255                     
	.byte	1                       
	.uleb128 Lcst_end6-Lcst_begin6
Lcst_begin6:
	.uleb128 Lfunc_begin6-Lfunc_begin6 
	.uleb128 Ltmp62-Lfunc_begin6    
	.byte	0                       
	.byte	0                       
	.uleb128 Ltmp62-Lfunc_begin6    
	.uleb128 Ltmp63-Ltmp62          
	.uleb128 Ltmp64-Lfunc_begin6    
	.byte	0                       
	.uleb128 Ltmp63-Lfunc_begin6    
	.uleb128 Lfunc_end6-Ltmp63      
	.byte	0                       
	.byte	0                       
Lcst_end6:
	.p2align	2
                                        
	.section	__TEXT,__text,regular,pure_instructions
	.p2align	4, 0x90         
__ZNSt3__16vectorINS_4pairINS_12basic_stringIcNS_11char_traitsIcEENS_9allocatorIcEEEES7_EENS5_IS8_EEE9push_backEOS8_: 
	.cfi_startproc

	push	rbp
	.cfi_def_cfa_offset 16
	.cfi_offset rbp, -16
	mov	rbp, rsp
	.cfi_def_cfa_register rbp
	push	r15
	push	r14
	push	r12
	push	rbx
	.cfi_offset rbx, -48
	.cfi_offset r12, -40
	.cfi_offset r14, -32
	.cfi_offset r15, -24
	mov	r14, rsi
	mov	rbx, rdi
	mov	r15, qword ptr [rdi + 8]
	call	__ZNSt3__113__vector_baseINS_4pairINS_12basic_stringIcNS_11char_traitsIcEENS_9allocatorIcEEEES7_EENS5_IS8_EEE9__end_capEv
	mov	r12, qword ptr [rax]
	mov	rdi, r14
	call	__ZNSt3__1L4moveIRNS_4pairINS_12basic_stringIcNS_11char_traitsIcEENS_9allocatorIcEEEES7_EEEEONS_16remove_referenceIT_E4typeEOSB_
	mov	rdi, rbx
	mov	rsi, rax
	cmp	r15, r12
	jae	LBB87_2

	call	__ZNSt3__16vectorINS_4pairINS_12basic_stringIcNS_11char_traitsIcEENS_9allocatorIcEEEES7_EENS5_IS8_EEE22__construct_one_at_endIJS8_EEEvDpOT_
	jmp	LBB87_3
LBB87_2:
	call	__ZNSt3__16vectorINS_4pairINS_12basic_stringIcNS_11char_traitsIcEENS_9allocatorIcEEEES7_EENS5_IS8_EEE21__push_back_slow_pathIS8_EEvOT_
LBB87_3:
	pop	rbx
	pop	r12
	pop	r14
	pop	r15
	pop	rbp
	ret
	.cfi_endproc
                                        
	.p2align	4, 0x90         
__ZNSt3__14pairINS_12basic_stringIcNS_11char_traitsIcEENS_9allocatorIcEEEES6_EC1IRPKcSB_Lb0EEEOT_OT0_: 
	.cfi_startproc

	push	rbp
	.cfi_def_cfa_offset 16
	.cfi_offset rbp, -16
	mov	rbp, rsp
	.cfi_def_cfa_register rbp
	call	__ZNSt3__14pairINS_12basic_stringIcNS_11char_traitsIcEENS_9allocatorIcEEEES6_EC2IRPKcSB_Lb0EEEOT_OT0_
	pop	rbp
	ret
	.cfi_endproc
                                        
	.globl	__ZNSt3__14pairINS_12basic_stringIcNS_11char_traitsIcEENS_9allocatorIcEEEES6_ED1Ev 
	.weak_def_can_be_hidden	__ZNSt3__14pairINS_12basic_stringIcNS_11char_traitsIcEENS_9allocatorIcEEEES6_ED1Ev
	.p2align	4, 0x90
__ZNSt3__14pairINS_12basic_stringIcNS_11char_traitsIcEENS_9allocatorIcEEEES6_ED1Ev: 

	push	rbp
	mov	rbp, rsp
	call	__ZNSt3__14pairINS_12basic_stringIcNS_11char_traitsIcEENS_9allocatorIcEEEES6_ED2Ev
	pop	rbp
	ret
                                        
	.p2align	4, 0x90         
__ZNSt3__110lock_guardINS_15recursive_mutexEEC1ERS1_: 
	.cfi_startproc

	push	rbp
	.cfi_def_cfa_offset 16
	.cfi_offset rbp, -16
	mov	rbp, rsp
	.cfi_def_cfa_register rbp
	call	__ZNSt3__110lock_guardINS_15recursive_mutexEEC2ERS1_
	pop	rbp
	ret
	.cfi_endproc
                                        
	.p2align	4, 0x90         
__ZNSt3__16vectorIN6loguru8CallbackENS_9allocatorIS2_EEE9push_backEOS2_: 
	.cfi_startproc

	push	rbp
	.cfi_def_cfa_offset 16
	.cfi_offset rbp, -16
	mov	rbp, rsp
	.cfi_def_cfa_register rbp
	push	r15
	push	r14
	push	rbx
	push	rax
	.cfi_offset rbx, -40
	.cfi_offset r14, -32
	.cfi_offset r15, -24
	mov	r15, rdi
	mov	r14, qword ptr [rip + __ZN6loguruL11s_callbacksE+8]
	lea	rdi, [rip + __ZN6loguruL11s_callbacksE]
	call	__ZNSt3__113__vector_baseIN6loguru8CallbackENS_9allocatorIS2_EEE9__end_capEv
	mov	rbx, qword ptr [rax]
	mov	rdi, r15
	call	__ZNSt3__1L4moveIRN6loguru8CallbackEEEONS_16remove_referenceIT_E4typeEOS5_
	mov	rdi, rax
	cmp	r14, rbx
	jae	LBB91_2

	call	__ZNSt3__16vectorIN6loguru8CallbackENS_9allocatorIS2_EEE22__construct_one_at_endIJS2_EEEvDpOT_
	jmp	LBB91_3
LBB91_2:
	call	__ZNSt3__16vectorIN6loguru8CallbackENS_9allocatorIS2_EEE21__push_back_slow_pathIS2_EEvOT_
LBB91_3:
	add	rsp, 8
	pop	rbx
	pop	r14
	pop	r15
	pop	rbp
	ret
	.cfi_endproc
                                        
	.globl	__ZN6loguru8CallbackD1Ev 
	.weak_def_can_be_hidden	__ZN6loguru8CallbackD1Ev
	.p2align	4, 0x90
__ZN6loguru8CallbackD1Ev:               

	push	rbp
	mov	rbp, rsp
	call	__ZN6loguru8CallbackD2Ev
	pop	rbp
	ret
                                        
	.p2align	4, 0x90         
__ZN6loguruL18on_callback_changeEv:     

	push	rbp
	mov	rbp, rsp
	push	r14
	push	rbx
	sub	rsp, 16
	mov	dword ptr [rip + __ZN6loguruL19s_max_out_verbosityE], -9
	call	__ZNSt3__16vectorIN6loguru8CallbackENS_9allocatorIS2_EEE5beginEv
	mov	qword ptr [rbp - 32], rax
	call	__ZNSt3__16vectorIN6loguru8CallbackENS_9allocatorIS2_EEE3endEv
	mov	qword ptr [rbp - 24], rax
	lea	rdi, [rbp - 32]
	lea	rsi, [rbp - 24]
	call	__ZNSt3__1neIPN6loguru8CallbackEEEbRKNS_11__wrap_iterIT_EES8_
	test	al, al
	je	LBB93_3

	lea	rbx, [rbp - 32]
	lea	r14, [rbp - 24]
	.p2align	4, 0x90
LBB93_2:                                
	mov	rdi, rbx
	call	__ZNKSt3__111__wrap_iterIPN6loguru8CallbackEEdeEv
	lea	rdi, [rax + 40]
	call	__ZNSt3__1L3maxIiEERKT_S3_S3_
	mov	eax, dword ptr [rax]
	mov	dword ptr [rip + __ZN6loguruL19s_max_out_verbosityE], eax
	mov	rdi, rbx
	call	__ZNSt3__111__wrap_iterIPN6loguru8CallbackEEppEv
	mov	rdi, rbx
	mov	rsi, r14
	call	__ZNSt3__1neIPN6loguru8CallbackEEEbRKNS_11__wrap_iterIT_EES8_
	test	al, al
	jne	LBB93_2
LBB93_3:
	add	rsp, 16
	pop	rbx
	pop	r14
	pop	rbp
	ret
                                        
	.p2align	4, 0x90         
__ZNSt3__110lock_guardINS_15recursive_mutexEED1Ev: 

	push	rbp
	mov	rbp, rsp
	call	__ZNSt3__110lock_guardINS_15recursive_mutexEED2Ev
	pop	rbp
	ret
                                        
	.globl	__ZN6loguru18get_verbosity_nameEi 
	.p2align	4, 0x90
__ZN6loguru18get_verbosity_nameEi:      
	.cfi_startproc

	push	rbp
	.cfi_def_cfa_offset 16
	.cfi_offset rbp, -16
	mov	rbp, rsp
	.cfi_def_cfa_register rbp
	push	rbx
	push	rax
	.cfi_offset rbx, -24
	mov	ebx, edi
	mov	rax, qword ptr [rip + __ZN6loguruL28s_verbosity_to_name_callbackE]
	test	rax, rax
	je	LBB95_1

	mov	edi, ebx
	call	rax
	test	rax, rax
	jne	LBB95_9
	jmp	LBB95_4
LBB95_1:
	xor	eax, eax
	test	rax, rax
	jne	LBB95_9
LBB95_4:
	cmp	ebx, -2
	jge	LBB95_6

	lea	rax, [rip + L_.str.70]
	jmp	LBB95_9
LBB95_6:
	add	ebx, 2
	cmp	ebx, 2
	ja	LBB95_7

	movsxd	rax, ebx
	lea	rcx, [rip + l_switch.table._ZN6loguru18get_verbosity_nameEi]
	mov	rax, qword ptr [rcx + 8*rax]
	jmp	LBB95_9
LBB95_7:
	xor	eax, eax
LBB95_9:
	add	rsp, 8
	pop	rbx
	pop	rbp
	ret
	.cfi_endproc
                                        
	.globl	__ZN6loguru23get_verbosity_from_nameEPKc 
	.p2align	4, 0x90
__ZN6loguru23get_verbosity_from_nameEPKc: 
	.cfi_startproc

	push	rbp
	.cfi_def_cfa_offset 16
	.cfi_offset rbp, -16
	mov	rbp, rsp
	.cfi_def_cfa_register rbp
	push	rbx
	push	rax
	.cfi_offset rbx, -24
	mov	rbx, rdi
	mov	rax, qword ptr [rip + __ZN6loguruL28s_name_to_verbosity_callbackE]
	test	rax, rax
	je	LBB96_1

	mov	rdi, rbx
	call	rax
	cmp	eax, -10
	je	LBB96_4
	jmp	LBB96_13
LBB96_1:
	mov	eax, -10
	cmp	eax, -10
	jne	LBB96_13
LBB96_4:
	lea	rsi, [rip + L_.str.74]
	mov	rdi, rbx
	call	_strcmp
	test	eax, eax
	je	LBB96_5

	lea	rsi, [rip + L_.str.73]
	mov	rdi, rbx
	call	_strcmp
	test	eax, eax
	je	LBB96_7

	lea	rsi, [rip + L_.str.75]
	mov	rdi, rbx
	call	_strcmp
	test	eax, eax
	je	LBB96_9

	lea	rsi, [rip + L_.str.76]
	mov	rdi, rbx
	call	_strcmp
	test	eax, eax
	je	LBB96_11

	lea	rsi, [rip + L_.str.77]
	mov	rdi, rbx
	call	_strcmp
	test	eax, eax
	mov	ecx, -3
	mov	eax, -10
	cmove	eax, ecx
	jmp	LBB96_13
LBB96_5:
	mov	eax, -9
	jmp	LBB96_13
LBB96_7:
	xor	eax, eax
	jmp	LBB96_13
LBB96_9:
	mov	eax, -1
	jmp	LBB96_13
LBB96_11:
	mov	eax, -2
LBB96_13:
	add	rsp, 8
	pop	rbx
	pop	rbp
	ret
	.cfi_endproc
                                        
	.globl	__ZN6loguru15remove_callbackEPKc 
	.p2align	4, 0x90
__ZN6loguru15remove_callbackEPKc:       
Lfunc_begin7:
	.cfi_startproc
	.cfi_personality 155, ___gxx_personality_v0
	.cfi_lsda 16, Lexception7

	push	rbp
	.cfi_def_cfa_offset 16
	.cfi_offset rbp, -16
	mov	rbp, rsp
	.cfi_def_cfa_register rbp
	push	rbx
	sub	rsp, 40
	.cfi_offset rbx, -24
	mov	qword ptr [rbp - 32], rdi
	lea	rdi, [rbp - 24]
	call	__ZNSt3__110lock_guardINS_15recursive_mutexEEC1ERS1_
	call	__ZNSt3__1L5beginINS_6vectorIN6loguru8CallbackENS_9allocatorIS3_EEEEEEDTcldtfp_5beginEERT_
	mov	rbx, rax
	call	__ZNSt3__1L3endINS_6vectorIN6loguru8CallbackENS_9allocatorIS3_EEEEEEDTcldtfp_3endEERT_
	lea	rdx, [rbp - 32]
	mov	rdi, rbx
	mov	rsi, rax
	call	__ZNSt3__1L7find_ifINS_11__wrap_iterIPN6loguru8CallbackEEEZNS2_15remove_callbackEPKcE3$_1EET_S9_S9_T0_
	mov	qword ptr [rbp - 16], rax
	call	__ZNSt3__16vectorIN6loguru8CallbackENS_9allocatorIS2_EEE3endEv
	mov	qword ptr [rbp - 48], rax
	lea	rdi, [rbp - 16]
	lea	rsi, [rbp - 48]
	call	__ZNSt3__1neIPN6loguru8CallbackEEEbRKNS_11__wrap_iterIT_EES8_
	test	al, al
	je	LBB97_4

	lea	rdi, [rbp - 16]
	call	__ZNKSt3__111__wrap_iterIPN6loguru8CallbackEEptEv
	mov	rcx, qword ptr [rax + 48]
	test	rcx, rcx
	je	LBB97_3

	mov	rdi, qword ptr [rax + 32]
Ltmp67:
	call	rcx
Ltmp68:
LBB97_3:
	lea	rdi, [rbp - 40]
	lea	rsi, [rbp - 16]
	call	__ZNSt3__111__wrap_iterIPKN6loguru8CallbackEEC1IPS2_EERKNS0_IT_EEPNS_9enable_ifIXsr14is_convertibleIS8_S4_EE5valueEvE4typeE
	mov	rdi, qword ptr [rbp - 40]
	call	__ZNSt3__16vectorIN6loguru8CallbackENS_9allocatorIS2_EEE5eraseENS_11__wrap_iterIPKS2_EE
	call	__ZN6loguruL18on_callback_changeEv
	mov	bl, 1
	jmp	LBB97_6
LBB97_4:
	call	__ZN6loguru24current_verbosity_cutoffEv
	xor	ebx, ebx
	cmp	eax, -2
	jl	LBB97_6

	mov	r8, qword ptr [rbp - 32]
Ltmp65:
	lea	rsi, [rip + L_.str.28]
	lea	rcx, [rip + L_.str.78]
	mov	edi, -2
	mov	edx, 985
	xor	eax, eax
	call	__ZN6loguru3logEiPKcjS1_z
Ltmp66:
LBB97_6:
	lea	rdi, [rbp - 24]
	call	__ZNSt3__110lock_guardINS_15recursive_mutexEED1Ev
	mov	eax, ebx
	add	rsp, 40
	pop	rbx
	pop	rbp
	ret
LBB97_7:
Ltmp69:
	mov	rbx, rax
	lea	rdi, [rbp - 24]
	call	__ZNSt3__110lock_guardINS_15recursive_mutexEED1Ev
	mov	rdi, rbx
	call	__Unwind_Resume
	ud2
Lfunc_end7:
	.cfi_endproc
	.section	__TEXT,__gcc_except_tab
	.p2align	2
GCC_except_table97:
Lexception7:
	.byte	255                     
	.byte	255                     
	.byte	1                       
	.uleb128 Lcst_end7-Lcst_begin7
Lcst_begin7:
	.uleb128 Lfunc_begin7-Lfunc_begin7 
	.uleb128 Ltmp67-Lfunc_begin7    
	.byte	0                       
	.byte	0                       
	.uleb128 Ltmp67-Lfunc_begin7    
	.uleb128 Ltmp66-Ltmp67          
	.uleb128 Ltmp69-Lfunc_begin7    
	.byte	0                       
	.uleb128 Ltmp66-Lfunc_begin7    
	.uleb128 Lfunc_end7-Ltmp66      
	.byte	0                       
	.byte	0                       
Lcst_end7:
	.p2align	2
                                        
	.section	__TEXT,__text,regular,pure_instructions
	.p2align	4, 0x90         
__ZNSt3__1L7find_ifINS_11__wrap_iterIPN6loguru8CallbackEEEZNS2_15remove_callbackEPKcE3$_1EET_S9_S9_T0_: 

	push	rbp
	mov	rbp, rsp
	push	r15
	push	r14
	push	rbx
	sub	rsp, 24
	mov	qword ptr [rbp - 32], rdi
	mov	qword ptr [rbp - 40], rsi
	mov	qword ptr [rbp - 48], rdx
	lea	rdi, [rbp - 32]
	lea	rsi, [rbp - 40]
	call	__ZNSt3__1neIPN6loguru8CallbackEEEbRKNS_11__wrap_iterIT_EES8_
	test	al, al
	je	LBB98_4

	lea	rbx, [rbp - 32]
	lea	r14, [rbp - 48]
	lea	r15, [rbp - 40]
	.p2align	4, 0x90
LBB98_2:                                
	mov	rdi, rbx
	call	__ZNKSt3__111__wrap_iterIPN6loguru8CallbackEEdeEv
	mov	rdi, r14
	mov	rsi, rax
	call	__ZZN6loguru15remove_callbackEPKcENK3$_1clERKNS_8CallbackE
	test	al, al
	jne	LBB98_4

	mov	rdi, rbx
	call	__ZNSt3__111__wrap_iterIPN6loguru8CallbackEEppEv
	mov	rdi, rbx
	mov	rsi, r15
	call	__ZNSt3__1neIPN6loguru8CallbackEEEbRKNS_11__wrap_iterIT_EES8_
	test	al, al
	jne	LBB98_2
LBB98_4:
	mov	rax, qword ptr [rbp - 32]
	add	rsp, 24
	pop	rbx
	pop	r14
	pop	r15
	pop	rbp
	ret
                                        
	.p2align	4, 0x90         
__ZNSt3__1L5beginINS_6vectorIN6loguru8CallbackENS_9allocatorIS3_EEEEEEDTcldtfp_5beginEERT_: 

	push	rbp
	mov	rbp, rsp
	call	__ZNSt3__16vectorIN6loguru8CallbackENS_9allocatorIS2_EEE5beginEv
	pop	rbp
	ret
                                        
	.p2align	4, 0x90         
__ZNSt3__1L3endINS_6vectorIN6loguru8CallbackENS_9allocatorIS3_EEEEEEDTcldtfp_3endEERT_: 

	push	rbp
	mov	rbp, rsp
	call	__ZNSt3__16vectorIN6loguru8CallbackENS_9allocatorIS2_EEE3endEv
	pop	rbp
	ret
                                        
	.p2align	4, 0x90         
__ZNSt3__1neIPN6loguru8CallbackEEEbRKNS_11__wrap_iterIT_EES8_: 

	push	rbp
	mov	rbp, rsp
	call	__ZNSt3__1eqIPN6loguru8CallbackES3_EEbRKNS_11__wrap_iterIT_EERKNS4_IT0_EE
	xor	al, 1
	pop	rbp
	ret
                                        
	.p2align	4, 0x90         
__ZNSt3__16vectorIN6loguru8CallbackENS_9allocatorIS2_EEE3endEv: 

	push	rbp
	mov	rbp, rsp
	mov	rdi, qword ptr [rip + __ZN6loguruL11s_callbacksE+8]
	call	__ZNSt3__16vectorIN6loguru8CallbackENS_9allocatorIS2_EEE11__make_iterEPS2_
	pop	rbp
	ret
                                        
	.p2align	4, 0x90         
__ZNKSt3__111__wrap_iterIPN6loguru8CallbackEEptEv: 

	push	rbp
	mov	rbp, rsp
	mov	rdi, qword ptr [rdi]
	call	__ZNSt3__1L9addressofIN6loguru8CallbackEEEPT_RS3_
	pop	rbp
	ret
                                        
	.p2align	4, 0x90         
__ZNSt3__16vectorIN6loguru8CallbackENS_9allocatorIS2_EEE5eraseENS_11__wrap_iterIPKS2_EE: 

	push	rbp
	mov	rbp, rsp
	push	rbx
	sub	rsp, 24
	mov	qword ptr [rbp - 24], rdi
	call	__ZNKSt3__16vectorIN6loguru8CallbackENS_9allocatorIS2_EEE6cbeginEv
	mov	qword ptr [rbp - 16], rax
	lea	rdi, [rbp - 24]
	lea	rsi, [rbp - 16]
	call	__ZNSt3__1miIPKN6loguru8CallbackES4_EEDTmicldtfp_4baseEcldtfp0_4baseEERKNS_11__wrap_iterIT_EERKNS6_IT0_EE
	mov	rcx, qword ptr [rip + __ZN6loguruL11s_callbacksE]
	lea	rax, [rax + 8*rax]
	lea	rbx, [rcx + 8*rax]
	lea	rdi, [rcx + 8*rax + 72]
	mov	rsi, qword ptr [rip + __ZN6loguruL11s_callbacksE+8]
	mov	rdx, rbx
	call	__ZNSt3__1L4moveIPN6loguru8CallbackES3_EET0_T_S5_S4_
	mov	rdi, rax
	call	__ZNSt3__16vectorIN6loguru8CallbackENS_9allocatorIS2_EEE17__destruct_at_endEPS2_
	mov	rdi, rbx
	call	__ZNSt3__16vectorIN6loguru8CallbackENS_9allocatorIS2_EEE11__make_iterEPS2_
	add	rsp, 24
	pop	rbx
	pop	rbp
	ret
                                        
	.p2align	4, 0x90         
__ZNSt3__111__wrap_iterIPKN6loguru8CallbackEEC1IPS2_EERKNS0_IT_EEPNS_9enable_ifIXsr14is_convertibleIS8_S4_EE5valueEvE4typeE: 

	push	rbp
	mov	rbp, rsp
	call	__ZNSt3__111__wrap_iterIPKN6loguru8CallbackEEC2IPS2_EERKNS0_IT_EEPNS_9enable_ifIXsr14is_convertibleIS8_S4_EE5valueEvE4typeE
	pop	rbp
	ret
                                        
	.p2align	4, 0x90         
__ZNSt3__16vectorIN6loguru8CallbackENS_9allocatorIS2_EEE5beginEv: 

	push	rbp
	mov	rbp, rsp
	mov	rdi, qword ptr [rip + __ZN6loguruL11s_callbacksE]
	call	__ZNSt3__16vectorIN6loguru8CallbackENS_9allocatorIS2_EEE11__make_iterEPS2_
	pop	rbp
	ret
                                        
	.p2align	4, 0x90         
__ZNKSt3__111__wrap_iterIPN6loguru8CallbackEEdeEv: 

	push	rbp
	mov	rbp, rsp
	mov	rax, qword ptr [rdi]
	pop	rbp
	ret
                                        
	.p2align	4, 0x90         
__ZNSt3__111__wrap_iterIPN6loguru8CallbackEEppEv: 

	push	rbp
	mov	rbp, rsp
	add	qword ptr [rdi], 72
	pop	rbp
	ret
                                        
	.p2align	4, 0x90         
__ZNSt3__16vectorIN6loguru8CallbackENS_9allocatorIS2_EEE5clearEv: 
	.cfi_startproc

	push	rbp
	.cfi_def_cfa_offset 16
	.cfi_offset rbp, -16
	mov	rbp, rsp
	.cfi_def_cfa_register rbp
	lea	rdi, [rip + __ZN6loguruL11s_callbacksE]
	call	__ZNSt3__113__vector_baseIN6loguru8CallbackENS_9allocatorIS2_EEE5clearEv
	pop	rbp
	ret
	.cfi_endproc
                                        
	.globl	__ZN6loguru15set_thread_nameEPKc 
	.p2align	4, 0x90
__ZN6loguru15set_thread_nameEPKc:       
	.cfi_startproc

	push	rbp
	.cfi_def_cfa_offset 16
	.cfi_offset rbp, -16
	mov	rbp, rsp
	.cfi_def_cfa_register rbp
	call	_pthread_setname_np
	pop	rbp
	ret
	.cfi_endproc
                                        
	.globl	__ZN6loguru15get_thread_nameEPcyb 
	.p2align	4, 0x90
__ZN6loguru15get_thread_nameEPcyb:      
Lfunc_begin8:
	.cfi_startproc
	.cfi_personality 155, ___gxx_personality_v0
	.cfi_lsda 16, Lexception8

	push	rbp
	.cfi_def_cfa_offset 16
	.cfi_offset rbp, -16
	mov	rbp, rsp
	.cfi_def_cfa_register rbp
	push	r15
	push	r14
	push	rbx
	sub	rsp, 72
	.cfi_offset rbx, -40
	.cfi_offset r14, -32
	.cfi_offset r15, -24
	mov	qword ptr [rbp - 32], rsi
	mov	dword ptr [rbp - 36], 0
	test	rsi, rsi
	je	LBB111_1

	mov	r14, rdi
	test	rdi, rdi
	je	LBB111_19

	mov	r15d, edx
	mov	rbx, rsi
	call	_pthread_self
	mov	rdi, rax
	mov	rsi, r14
	mov	rdx, rbx
	call	_pthread_getname_np
	cmp	byte ptr [r14], 0
	jne	LBB111_18

	call	_pthread_self
	lea	rsi, [rbp - 32]
	mov	rdi, rax
	call	_pthread_threadid_np
	test	r15b, r15b
	je	LBB111_17

	lea	ecx, [rbx - 1]
	mov	r8d, dword ptr [rbp - 32]
	lea	rdx, [rip + L_.str.85]
	mov	rdi, r14
	mov	rsi, rbx
	xor	eax, eax
	call	_snprintf
	jmp	LBB111_18
LBB111_17:
	mov	ecx, dword ptr [rbp - 32]
	lea	rdx, [rip + L_.str.86]
	mov	rdi, r14
	mov	rsi, rbx
	xor	eax, eax
	call	_snprintf
LBB111_18:
	add	rsp, 72
	pop	rbx
	pop	r14
	pop	r15
	pop	rbp
	ret
LBB111_1:
	lea	rdi, [rbp - 72]
	lea	rsi, [rbp - 32]
	call	__ZN6loguru12format_valueIyEENS_4TextERKT_
Ltmp70:
	lea	rdi, [rbp - 64]
	lea	rsi, [rbp - 36]
	call	__ZN6loguru12format_valueIjEENS_4TextERKT_
Ltmp71:

	lea	rdi, [rbp - 72]
	call	__ZNK6loguru4Text5c_strEv
	mov	rbx, rax
	lea	rdi, [rbp - 64]
	call	__ZNK6loguru4Text5c_strEv
Ltmp73:
	mov	qword ptr [rsp + 8], rax
	lea	rcx, [rip + L_.str.80]
	mov	qword ptr [rsp], rcx
	lea	rsi, [rip + L_.str.23]
	lea	rdx, [rip + L_.str.79]
	lea	r8, [rip + L_.str.81]
	lea	rdi, [rbp - 56]
	mov	r9, rbx
	xor	eax, eax
	call	__ZN6loguru10textprintfEPKcz
Ltmp74:

Ltmp76:
	lea	rsi, [rip + L_.str.82]
	lea	rdi, [rbp - 48]
	xor	eax, eax
	call	__ZN6loguru10textprintfEPKcz
Ltmp77:

	lea	rdi, [rbp - 56]
	call	__ZNK6loguru4Text5c_strEv
	mov	rbx, rax
	lea	rdi, [rbp - 48]
	call	__ZNK6loguru4Text5c_strEv
Ltmp79:
	lea	rdx, [rip + L_.str.28]
	lea	r8, [rip + L_.str.29]
	xor	edi, edi
	mov	rsi, rbx
	mov	ecx, 1058
	mov	r9, rax
	xor	eax, eax
	call	__ZN6loguru13log_and_abortEiPKcS1_jS1_z
Ltmp80:

	ud2
LBB111_19:
	lea	rsi, [rip + L_.str.83]
	lea	rdx, [rip + L_.str.28]
	lea	r8, [rip + L_.str.84]
	xor	edi, edi
	mov	ecx, 1059
	xor	eax, eax
	call	__ZN6loguru13log_and_abortEiPKcS1_jS1_z
LBB111_9:
Ltmp81:
	mov	rbx, rax
	lea	rdi, [rbp - 48]
	call	__ZN6loguru4TextD1Ev
	jmp	LBB111_10
LBB111_8:
Ltmp78:
	mov	rbx, rax
LBB111_10:
	lea	rdi, [rbp - 56]
	call	__ZN6loguru4TextD1Ev
	jmp	LBB111_11
LBB111_7:
Ltmp75:
	mov	rbx, rax
LBB111_11:
	lea	rdi, [rbp - 64]
	call	__ZN6loguru4TextD1Ev
	jmp	LBB111_12
LBB111_6:
Ltmp72:
	mov	rbx, rax
LBB111_12:
	lea	rdi, [rbp - 72]
	call	__ZN6loguru4TextD1Ev
	mov	rdi, rbx
	call	__Unwind_Resume
	ud2
Lfunc_end8:
	.cfi_endproc
	.section	__TEXT,__gcc_except_tab
	.p2align	2
GCC_except_table111:
Lexception8:
	.byte	255                     
	.byte	255                     
	.byte	1                       
	.uleb128 Lcst_end8-Lcst_begin8
Lcst_begin8:
	.uleb128 Lfunc_begin8-Lfunc_begin8 
	.uleb128 Ltmp70-Lfunc_begin8    
	.byte	0                       
	.byte	0                       
	.uleb128 Ltmp70-Lfunc_begin8    
	.uleb128 Ltmp71-Ltmp70          
	.uleb128 Ltmp72-Lfunc_begin8    
	.byte	0                       
	.uleb128 Ltmp73-Lfunc_begin8    
	.uleb128 Ltmp74-Ltmp73          
	.uleb128 Ltmp75-Lfunc_begin8    
	.byte	0                       
	.uleb128 Ltmp76-Lfunc_begin8    
	.uleb128 Ltmp77-Ltmp76          
	.uleb128 Ltmp78-Lfunc_begin8    
	.byte	0                       
	.uleb128 Ltmp79-Lfunc_begin8    
	.uleb128 Ltmp80-Ltmp79          
	.uleb128 Ltmp81-Lfunc_begin8    
	.byte	0                       
	.uleb128 Ltmp80-Lfunc_begin8    
	.uleb128 Lfunc_end8-Ltmp80      
	.byte	0                       
	.byte	0                       
Lcst_end8:
	.p2align	2
                                        
	.section	__TEXT,__text,regular,pure_instructions
	.globl	__ZN6loguru12format_valueIyEENS_4TextERKT_ 
	.weak_def_can_be_hidden	__ZN6loguru12format_valueIyEENS_4TextERKT_
	.p2align	4, 0x90
__ZN6loguru12format_valueIyEENS_4TextERKT_: 
	.cfi_startproc

	push	rbp
	.cfi_def_cfa_offset 16
	.cfi_offset rbp, -16
	mov	rbp, rsp
	.cfi_def_cfa_register rbp
	push	rbx
	push	rax
	.cfi_offset rbx, -24
	mov	rbx, rdi
	mov	rdx, qword ptr [rsi]
	lea	rsi, [rip + L_.str.160]
	xor	eax, eax
	call	__ZN6loguru10textprintfEPKcz
	mov	rax, rbx
	add	rsp, 8
	pop	rbx
	pop	rbp
	ret
	.cfi_endproc
                                        
	.globl	__ZN6loguru12format_valueIjEENS_4TextERKT_ 
	.weak_def_can_be_hidden	__ZN6loguru12format_valueIjEENS_4TextERKT_
	.p2align	4, 0x90
__ZN6loguru12format_valueIjEENS_4TextERKT_: 
	.cfi_startproc

	push	rbp
	.cfi_def_cfa_offset 16
	.cfi_offset rbp, -16
	mov	rbp, rsp
	.cfi_def_cfa_register rbp
	push	rbx
	push	rax
	.cfi_offset rbx, -24
	mov	rbx, rdi
	mov	edx, dword ptr [rsi]
	lea	rsi, [rip + L_.str.161]
	xor	eax, eax
	call	__ZN6loguru10textprintfEPKcz
	mov	rax, rbx
	add	rsp, 8
	pop	rbx
	pop	rbp
	ret
	.cfi_endproc
                                        
	.globl	__ZN6loguru8demangleEPKc 
	.p2align	4, 0x90
__ZN6loguru8demangleEPKc:               
	.cfi_startproc

	push	rbp
	.cfi_def_cfa_offset 16
	.cfi_offset rbp, -16
	mov	rbp, rsp
	.cfi_def_cfa_register rbp
	push	r14
	push	rbx
	sub	rsp, 16
	.cfi_offset rbx, -32
	.cfi_offset r14, -24
	mov	rbx, rsi
	mov	r14, rdi
	mov	dword ptr [rbp - 20], -1
	lea	rcx, [rbp - 20]
	mov	rdi, rsi
	xor	esi, esi
	xor	edx, edx
	call	___cxa_demangle
	cmp	dword ptr [rbp - 20], 0
	je	LBB114_2

	mov	rdi, rbx
	call	_strdup
LBB114_2:
	mov	rdi, r14
	mov	rsi, rax
	call	__ZN6loguru4TextC1EPc
	mov	rax, r14
	add	rsp, 16
	pop	rbx
	pop	r14
	pop	rbp
	ret
	.cfi_endproc
                                        
	.section	__TEXT,__StaticInit,regular,pure_instructions
	.p2align	4, 0x90         
___cxx_global_var_init.87:              
Lfunc_begin9:
	.cfi_startproc
	.cfi_personality 155, ___gxx_personality_v0
	.cfi_lsda 16, Lexception9

	push	rbp
	.cfi_def_cfa_offset 16
	.cfi_offset rbp, -16
	mov	rbp, rsp
	.cfi_def_cfa_register rbp
	push	r15
	push	r14
	push	r12
	push	rbx
	sub	rsp, 448
	.cfi_offset rbx, -48
	.cfi_offset r12, -40
	.cfi_offset r14, -32
	.cfi_offset r15, -24
	mov	rax, qword ptr [rip + ___stack_chk_guard@GOTPCREL]
	mov	rax, qword ptr [rax]
	mov	qword ptr [rbp - 40], rax
Ltmp82:
	lea	rdi, [rbp - 472]
	call	__ZN6loguru9type_nameINSt3__112basic_stringIcNS1_11char_traitsIcEENS1_9allocatorIcEEEEEES7_v
Ltmp83:

Ltmp85:
	lea	rdi, [rbp - 376]
	lea	rsi, [rbp - 472]
	call	__ZNSt3__14pairINS_12basic_stringIcNS_11char_traitsIcEENS_9allocatorIcEEEES6_EC1IS6_RA12_KcLb0EEEOT_OT0_
Ltmp86:

Ltmp88:
	lea	rdi, [rbp - 448]
	call	__ZN6loguru9type_nameINSt3__112basic_stringIwNS1_11char_traitsIwEENS1_9allocatorIwEEEEEENS2_IcNS3_IcEENS5_IcEEEEv
Ltmp89:

	lea	rdi, [rbp - 328]
Ltmp91:
	lea	rsi, [rbp - 448]
	call	__ZNSt3__14pairINS_12basic_stringIcNS_11char_traitsIcEENS_9allocatorIcEEEES6_EC1IS6_RA13_KcLb0EEEOT_OT0_
Ltmp92:

Ltmp94:
	lea	rdi, [rbp - 424]
	call	__ZN6loguru9type_nameINSt3__112basic_stringIDsNS1_11char_traitsIDsEENS1_9allocatorIDsEEEEEENS2_IcNS3_IcEENS5_IcEEEEv
Ltmp95:

	lea	rdi, [rbp - 280]
Ltmp97:
	lea	rdx, [rip + L_.str.90]
	lea	rsi, [rbp - 424]
	call	__ZNSt3__14pairINS_12basic_stringIcNS_11char_traitsIcEENS_9allocatorIcEEEES6_EC1IS6_RA15_KcLb0EEEOT_OT0_
Ltmp98:

Ltmp100:
	lea	rdi, [rbp - 400]
	call	__ZN6loguru9type_nameINSt3__112basic_stringIDiNS1_11char_traitsIDiEENS1_9allocatorIDiEEEEEENS2_IcNS3_IcEENS5_IcEEEEv
Ltmp101:

	mov	ebx, 3
	lea	rdi, [rbp - 232]
Ltmp103:
	lea	rdx, [rip + L_.str.91]
	lea	rsi, [rbp - 400]
	call	__ZNSt3__14pairINS_12basic_stringIcNS_11char_traitsIcEENS_9allocatorIcEEEES6_EC1IS6_RA15_KcLb0EEEOT_OT0_
Ltmp104:

	mov	ebx, 4
	lea	rdi, [rbp - 184]
Ltmp105:
	call	__ZNSt3__14pairINS_12basic_stringIcNS_11char_traitsIcEENS_9allocatorIcEEEES6_EC1IRA11_KcRA6_S9_Lb0EEEOT_OT0_
Ltmp106:

	mov	ebx, 5
	lea	rdi, [rbp - 136]
Ltmp107:
	call	__ZNSt3__14pairINS_12basic_stringIcNS_11char_traitsIcEENS_9allocatorIcEEEES6_EC1IRA12_KcRA1_S9_Lb0EEEOT_OT0_
Ltmp108:

	mov	ebx, 6
	lea	rdi, [rbp - 88]
Ltmp109:
	call	__ZNSt3__14pairINS_12basic_stringIcNS_11char_traitsIcEENS_9allocatorIcEEEES6_EC1IRA9_KcRA1_S9_Lb0EEEOT_OT0_
Ltmp110:

Ltmp112:
	lea	rdi, [rbp - 376]
	call	__ZNSt3__16vectorINS_4pairINS_12basic_stringIcNS_11char_traitsIcEENS_9allocatorIcEEEES7_EENS5_IS8_EEEC1ESt16initializer_listIS8_E
Ltmp113:

	mov	ebx, 288
	.p2align	4, 0x90
LBB115_13:                              
	lea	rdi, [rbp + rbx - 376]
	call	__ZNSt3__14pairINS_12basic_stringIcNS_11char_traitsIcEENS_9allocatorIcEEEES6_ED1Ev
	add	rbx, -48
	cmp	rbx, -48
	jne	LBB115_13

	lea	rdi, [rbp - 400]
	call	__ZNSt3__112basic_stringIcNS_11char_traitsIcEENS_9allocatorIcEEED1Ev
	lea	rdi, [rbp - 424]
	call	__ZNSt3__112basic_stringIcNS_11char_traitsIcEENS_9allocatorIcEEED1Ev
	lea	rdi, [rbp - 448]
	call	__ZNSt3__112basic_stringIcNS_11char_traitsIcEENS_9allocatorIcEEED1Ev
	lea	rdi, [rbp - 472]
	call	__ZNSt3__112basic_stringIcNS_11char_traitsIcEENS_9allocatorIcEEED1Ev
	lea	rdi, [rip + __ZNSt3__16vectorINS_4pairINS_12basic_stringIcNS_11char_traitsIcEENS_9allocatorIcEEEES7_EENS5_IS8_EEED1Ev]
	lea	rsi, [rip + __ZN6loguruL12REPLACE_LISTE]
	lea	rdx, [rip + ___dso_handle]
	call	___cxa_atexit
	mov	rax, qword ptr [rip + ___stack_chk_guard@GOTPCREL]
	mov	rax, qword ptr [rax]
	cmp	rax, qword ptr [rbp - 40]
	jne	LBB115_35

	add	rsp, 448
	pop	rbx
	pop	r12
	pop	r14
	pop	r15
	pop	rbp
	ret
LBB115_35:
	call	___stack_chk_fail
LBB115_24:
Ltmp114:
	mov	r14, rax
	mov	r12d, 288
	mov	ebx, 6
	xor	r15d, r15d
LBB115_25:                              
	lea	rdi, [rbp + r12 - 376]
	call	__ZNSt3__14pairINS_12basic_stringIcNS_11char_traitsIcEENS_9allocatorIcEEEES6_ED1Ev
	add	r12, -48
	cmp	r12, -48
	jne	LBB115_25
	jmp	LBB115_26
LBB115_22:
Ltmp102:
	mov	r14, rax
	mov	r15b, 1
	mov	ebx, 3
	jmp	LBB115_27
LBB115_21:
Ltmp99:
	mov	r14, rax
	mov	r15b, 1
	mov	ebx, 2
	jmp	LBB115_27
LBB115_20:
Ltmp96:
	mov	r14, rax
	mov	r15b, 1
	mov	ebx, 2
	jmp	LBB115_28
LBB115_19:
Ltmp93:
	mov	r14, rax
	mov	r15b, 1
	mov	ebx, 1
	jmp	LBB115_28
LBB115_18:
Ltmp90:
	mov	r14, rax
	mov	r15b, 1
	mov	ebx, 1
	jmp	LBB115_29
LBB115_17:
Ltmp87:
	mov	r14, rax
	mov	r15b, 1
	xor	ebx, ebx
	jmp	LBB115_29
LBB115_16:
Ltmp84:
	mov	r14, rax
	mov	r15b, 1
	xor	ebx, ebx
	jmp	LBB115_30
LBB115_23:
Ltmp111:
	mov	r14, rax
	mov	r15b, 1
LBB115_26:
	lea	rdi, [rbp - 400]
	call	__ZNSt3__112basic_stringIcNS_11char_traitsIcEENS_9allocatorIcEEED1Ev
LBB115_27:
	lea	rdi, [rbp - 424]
	call	__ZNSt3__112basic_stringIcNS_11char_traitsIcEENS_9allocatorIcEEED1Ev
LBB115_28:
	lea	rdi, [rbp - 448]
	call	__ZNSt3__112basic_stringIcNS_11char_traitsIcEENS_9allocatorIcEEED1Ev
LBB115_29:
	lea	rdi, [rbp - 472]
	call	__ZNSt3__112basic_stringIcNS_11char_traitsIcEENS_9allocatorIcEEED1Ev
LBB115_30:
	test	rbx, rbx
	je	LBB115_34

	test	r15b, r15b
	je	LBB115_34

	shl	rbx, 4
	lea	rbx, [rbx + 2*rbx]
	lea	r15, [rbp - 424]
LBB115_33:                              
	lea	rdi, [r15 + rbx]
	call	__ZNSt3__14pairINS_12basic_stringIcNS_11char_traitsIcEENS_9allocatorIcEEEES6_ED1Ev
	add	rbx, -48
	jne	LBB115_33
LBB115_34:
	mov	rdi, r14
	call	__Unwind_Resume
	ud2
Lfunc_end9:
	.cfi_endproc
	.section	__TEXT,__gcc_except_tab
	.p2align	2
GCC_except_table115:
Lexception9:
	.byte	255                     
	.byte	255                     
	.byte	1                       
	.uleb128 Lcst_end9-Lcst_begin9
Lcst_begin9:
	.uleb128 Ltmp82-Lfunc_begin9    
	.uleb128 Ltmp83-Ltmp82          
	.uleb128 Ltmp84-Lfunc_begin9    
	.byte	0                       
	.uleb128 Ltmp85-Lfunc_begin9    
	.uleb128 Ltmp86-Ltmp85          
	.uleb128 Ltmp87-Lfunc_begin9    
	.byte	0                       
	.uleb128 Ltmp88-Lfunc_begin9    
	.uleb128 Ltmp89-Ltmp88          
	.uleb128 Ltmp90-Lfunc_begin9    
	.byte	0                       
	.uleb128 Ltmp91-Lfunc_begin9    
	.uleb128 Ltmp92-Ltmp91          
	.uleb128 Ltmp93-Lfunc_begin9    
	.byte	0                       
	.uleb128 Ltmp94-Lfunc_begin9    
	.uleb128 Ltmp95-Ltmp94          
	.uleb128 Ltmp96-Lfunc_begin9    
	.byte	0                       
	.uleb128 Ltmp97-Lfunc_begin9    
	.uleb128 Ltmp98-Ltmp97          
	.uleb128 Ltmp99-Lfunc_begin9    
	.byte	0                       
	.uleb128 Ltmp100-Lfunc_begin9   
	.uleb128 Ltmp101-Ltmp100        
	.uleb128 Ltmp102-Lfunc_begin9   
	.byte	0                       
	.uleb128 Ltmp103-Lfunc_begin9   
	.uleb128 Ltmp110-Ltmp103        
	.uleb128 Ltmp111-Lfunc_begin9   
	.byte	0                       
	.uleb128 Ltmp112-Lfunc_begin9   
	.uleb128 Ltmp113-Ltmp112        
	.uleb128 Ltmp114-Lfunc_begin9   
	.byte	0                       
	.uleb128 Ltmp113-Lfunc_begin9   
	.uleb128 Lfunc_end9-Ltmp113     
	.byte	0                       
	.byte	0                       
Lcst_end9:
	.p2align	2
                                        
	.section	__TEXT,__text,regular,pure_instructions
	.globl	__ZN6loguru9type_nameINSt3__112basic_stringIcNS1_11char_traitsIcEENS1_9allocatorIcEEEEEES7_v 
	.weak_def_can_be_hidden	__ZN6loguru9type_nameINSt3__112basic_stringIcNS1_11char_traitsIcEENS1_9allocatorIcEEEEEES7_v
	.p2align	4, 0x90
__ZN6loguru9type_nameINSt3__112basic_stringIcNS1_11char_traitsIcEENS1_9allocatorIcEEEEEES7_v: 
Lfunc_begin10:
	.cfi_startproc
	.cfi_personality 155, ___gxx_personality_v0
	.cfi_lsda 16, Lexception10

	push	rbp
	.cfi_def_cfa_offset 16
	.cfi_offset rbp, -16
	mov	rbp, rsp
	.cfi_def_cfa_register rbp
	push	r14
	push	rbx
	sub	rsp, 16
	.cfi_offset rbx, -32
	.cfi_offset r14, -24
	mov	rbx, rdi
	mov	rdi, qword ptr [rip + __ZTINSt3__112basic_stringIcNS_11char_traitsIcEENS_9allocatorIcEEEE@GOTPCREL]
	call	__ZNKSt9type_info4nameEv
	lea	r14, [rbp - 24]
	mov	rdi, r14
	mov	rsi, rax
	call	__ZN6loguru8demangleEPKc
	mov	rdi, r14
	call	__ZNK6loguru4Text5c_strEv
Ltmp115:
	mov	rdi, rbx
	mov	rsi, rax
	call	__ZNSt3__112basic_stringIcNS_11char_traitsIcEENS_9allocatorIcEEEC1IDnEEPKc
Ltmp116:

	lea	rdi, [rbp - 24]
	call	__ZN6loguru4TextD1Ev
	mov	rax, rbx
	add	rsp, 16
	pop	rbx
	pop	r14
	pop	rbp
	ret
LBB116_2:
Ltmp117:
	mov	rbx, rax
	lea	rdi, [rbp - 24]
	call	__ZN6loguru4TextD1Ev
	mov	rdi, rbx
	call	__Unwind_Resume
	ud2
Lfunc_end10:
	.cfi_endproc
	.section	__TEXT,__gcc_except_tab
	.p2align	2
GCC_except_table116:
Lexception10:
	.byte	255                     
	.byte	255                     
	.byte	1                       
	.uleb128 Lcst_end10-Lcst_begin10
Lcst_begin10:
	.uleb128 Lfunc_begin10-Lfunc_begin10 
	.uleb128 Ltmp115-Lfunc_begin10  
	.byte	0                       
	.byte	0                       
	.uleb128 Ltmp115-Lfunc_begin10  
	.uleb128 Ltmp116-Ltmp115        
	.uleb128 Ltmp117-Lfunc_begin10  
	.byte	0                       
	.uleb128 Ltmp116-Lfunc_begin10  
	.uleb128 Lfunc_end10-Ltmp116    
	.byte	0                       
	.byte	0                       
Lcst_end10:
	.p2align	2
                                        
	.section	__TEXT,__text,regular,pure_instructions
	.p2align	4, 0x90         
__ZNSt3__14pairINS_12basic_stringIcNS_11char_traitsIcEENS_9allocatorIcEEEES6_EC1IS6_RA12_KcLb0EEEOT_OT0_: 
	.cfi_startproc

	push	rbp
	.cfi_def_cfa_offset 16
	.cfi_offset rbp, -16
	mov	rbp, rsp
	.cfi_def_cfa_register rbp
	call	__ZNSt3__14pairINS_12basic_stringIcNS_11char_traitsIcEENS_9allocatorIcEEEES6_EC2IS6_RA12_KcLb0EEEOT_OT0_
	pop	rbp
	ret
	.cfi_endproc
                                        
	.globl	__ZN6loguru9type_nameINSt3__112basic_stringIwNS1_11char_traitsIwEENS1_9allocatorIwEEEEEENS2_IcNS3_IcEENS5_IcEEEEv 
	.weak_def_can_be_hidden	__ZN6loguru9type_nameINSt3__112basic_stringIwNS1_11char_traitsIwEENS1_9allocatorIwEEEEEENS2_IcNS3_IcEENS5_IcEEEEv
	.p2align	4, 0x90
__ZN6loguru9type_nameINSt3__112basic_stringIwNS1_11char_traitsIwEENS1_9allocatorIwEEEEEENS2_IcNS3_IcEENS5_IcEEEEv: 
Lfunc_begin11:
	.cfi_startproc
	.cfi_personality 155, ___gxx_personality_v0
	.cfi_lsda 16, Lexception11

	push	rbp
	.cfi_def_cfa_offset 16
	.cfi_offset rbp, -16
	mov	rbp, rsp
	.cfi_def_cfa_register rbp
	push	r14
	push	rbx
	sub	rsp, 16
	.cfi_offset rbx, -32
	.cfi_offset r14, -24
	mov	rbx, rdi
	mov	rdi, qword ptr [rip + __ZTINSt3__112basic_stringIwNS_11char_traitsIwEENS_9allocatorIwEEEE@GOTPCREL]
	call	__ZNKSt9type_info4nameEv
	lea	r14, [rbp - 24]
	mov	rdi, r14
	mov	rsi, rax
	call	__ZN6loguru8demangleEPKc
	mov	rdi, r14
	call	__ZNK6loguru4Text5c_strEv
Ltmp118:
	mov	rdi, rbx
	mov	rsi, rax
	call	__ZNSt3__112basic_stringIcNS_11char_traitsIcEENS_9allocatorIcEEEC1IDnEEPKc
Ltmp119:

	lea	rdi, [rbp - 24]
	call	__ZN6loguru4TextD1Ev
	mov	rax, rbx
	add	rsp, 16
	pop	rbx
	pop	r14
	pop	rbp
	ret
LBB118_2:
Ltmp120:
	mov	rbx, rax
	lea	rdi, [rbp - 24]
	call	__ZN6loguru4TextD1Ev
	mov	rdi, rbx
	call	__Unwind_Resume
	ud2
Lfunc_end11:
	.cfi_endproc
	.section	__TEXT,__gcc_except_tab
	.p2align	2
GCC_except_table118:
Lexception11:
	.byte	255                     
	.byte	255                     
	.byte	1                       
	.uleb128 Lcst_end11-Lcst_begin11
Lcst_begin11:
	.uleb128 Lfunc_begin11-Lfunc_begin11 
	.uleb128 Ltmp118-Lfunc_begin11  
	.byte	0                       
	.byte	0                       
	.uleb128 Ltmp118-Lfunc_begin11  
	.uleb128 Ltmp119-Ltmp118        
	.uleb128 Ltmp120-Lfunc_begin11  
	.byte	0                       
	.uleb128 Ltmp119-Lfunc_begin11  
	.uleb128 Lfunc_end11-Ltmp119    
	.byte	0                       
	.byte	0                       
Lcst_end11:
	.p2align	2
                                        
	.section	__TEXT,__text,regular,pure_instructions
	.p2align	4, 0x90         
__ZNSt3__14pairINS_12basic_stringIcNS_11char_traitsIcEENS_9allocatorIcEEEES6_EC1IS6_RA13_KcLb0EEEOT_OT0_: 
	.cfi_startproc

	push	rbp
	.cfi_def_cfa_offset 16
	.cfi_offset rbp, -16
	mov	rbp, rsp
	.cfi_def_cfa_register rbp
	call	__ZNSt3__14pairINS_12basic_stringIcNS_11char_traitsIcEENS_9allocatorIcEEEES6_EC2IS6_RA13_KcLb0EEEOT_OT0_
	pop	rbp
	ret
	.cfi_endproc
                                        
	.globl	__ZN6loguru9type_nameINSt3__112basic_stringIDsNS1_11char_traitsIDsEENS1_9allocatorIDsEEEEEENS2_IcNS3_IcEENS5_IcEEEEv 
	.weak_def_can_be_hidden	__ZN6loguru9type_nameINSt3__112basic_stringIDsNS1_11char_traitsIDsEENS1_9allocatorIDsEEEEEENS2_IcNS3_IcEENS5_IcEEEEv
	.p2align	4, 0x90
__ZN6loguru9type_nameINSt3__112basic_stringIDsNS1_11char_traitsIDsEENS1_9allocatorIDsEEEEEENS2_IcNS3_IcEENS5_IcEEEEv: 
Lfunc_begin12:
	.cfi_startproc
	.cfi_personality 155, ___gxx_personality_v0
	.cfi_lsda 16, Lexception12

	push	rbp
	.cfi_def_cfa_offset 16
	.cfi_offset rbp, -16
	mov	rbp, rsp
	.cfi_def_cfa_register rbp
	push	r14
	push	rbx
	sub	rsp, 16
	.cfi_offset rbx, -32
	.cfi_offset r14, -24
	mov	rbx, rdi
	mov	rdi, qword ptr [rip + __ZTINSt3__112basic_stringIDsNS_11char_traitsIDsEENS_9allocatorIDsEEEE@GOTPCREL]
	call	__ZNKSt9type_info4nameEv
	lea	r14, [rbp - 24]
	mov	rdi, r14
	mov	rsi, rax
	call	__ZN6loguru8demangleEPKc
	mov	rdi, r14
	call	__ZNK6loguru4Text5c_strEv
Ltmp121:
	mov	rdi, rbx
	mov	rsi, rax
	call	__ZNSt3__112basic_stringIcNS_11char_traitsIcEENS_9allocatorIcEEEC1IDnEEPKc
Ltmp122:

	lea	rdi, [rbp - 24]
	call	__ZN6loguru4TextD1Ev
	mov	rax, rbx
	add	rsp, 16
	pop	rbx
	pop	r14
	pop	rbp
	ret
LBB120_2:
Ltmp123:
	mov	rbx, rax
	lea	rdi, [rbp - 24]
	call	__ZN6loguru4TextD1Ev
	mov	rdi, rbx
	call	__Unwind_Resume
	ud2
Lfunc_end12:
	.cfi_endproc
	.section	__TEXT,__gcc_except_tab
	.p2align	2
GCC_except_table120:
Lexception12:
	.byte	255                     
	.byte	255                     
	.byte	1                       
	.uleb128 Lcst_end12-Lcst_begin12
Lcst_begin12:
	.uleb128 Lfunc_begin12-Lfunc_begin12 
	.uleb128 Ltmp121-Lfunc_begin12  
	.byte	0                       
	.byte	0                       
	.uleb128 Ltmp121-Lfunc_begin12  
	.uleb128 Ltmp122-Ltmp121        
	.uleb128 Ltmp123-Lfunc_begin12  
	.byte	0                       
	.uleb128 Ltmp122-Lfunc_begin12  
	.uleb128 Lfunc_end12-Ltmp122    
	.byte	0                       
	.byte	0                       
Lcst_end12:
	.p2align	2
                                        
	.section	__TEXT,__text,regular,pure_instructions
	.p2align	4, 0x90         
__ZNSt3__14pairINS_12basic_stringIcNS_11char_traitsIcEENS_9allocatorIcEEEES6_EC1IS6_RA15_KcLb0EEEOT_OT0_: 
	.cfi_startproc

	push	rbp
	.cfi_def_cfa_offset 16
	.cfi_offset rbp, -16
	mov	rbp, rsp
	.cfi_def_cfa_register rbp
	call	__ZNSt3__14pairINS_12basic_stringIcNS_11char_traitsIcEENS_9allocatorIcEEEES6_EC2IS6_RA15_KcLb0EEEOT_OT0_
	pop	rbp
	ret
	.cfi_endproc
                                        
	.globl	__ZN6loguru9type_nameINSt3__112basic_stringIDiNS1_11char_traitsIDiEENS1_9allocatorIDiEEEEEENS2_IcNS3_IcEENS5_IcEEEEv 
	.weak_def_can_be_hidden	__ZN6loguru9type_nameINSt3__112basic_stringIDiNS1_11char_traitsIDiEENS1_9allocatorIDiEEEEEENS2_IcNS3_IcEENS5_IcEEEEv
	.p2align	4, 0x90
__ZN6loguru9type_nameINSt3__112basic_stringIDiNS1_11char_traitsIDiEENS1_9allocatorIDiEEEEEENS2_IcNS3_IcEENS5_IcEEEEv: 
Lfunc_begin13:
	.cfi_startproc
	.cfi_personality 155, ___gxx_personality_v0
	.cfi_lsda 16, Lexception13

	push	rbp
	.cfi_def_cfa_offset 16
	.cfi_offset rbp, -16
	mov	rbp, rsp
	.cfi_def_cfa_register rbp
	push	r14
	push	rbx
	sub	rsp, 16
	.cfi_offset rbx, -32
	.cfi_offset r14, -24
	mov	rbx, rdi
	mov	rdi, qword ptr [rip + __ZTINSt3__112basic_stringIDiNS_11char_traitsIDiEENS_9allocatorIDiEEEE@GOTPCREL]
	call	__ZNKSt9type_info4nameEv
	lea	r14, [rbp - 24]
	mov	rdi, r14
	mov	rsi, rax
	call	__ZN6loguru8demangleEPKc
	mov	rdi, r14
	call	__ZNK6loguru4Text5c_strEv
Ltmp124:
	mov	rdi, rbx
	mov	rsi, rax
	call	__ZNSt3__112basic_stringIcNS_11char_traitsIcEENS_9allocatorIcEEEC1IDnEEPKc
Ltmp125:

	lea	rdi, [rbp - 24]
	call	__ZN6loguru4TextD1Ev
	mov	rax, rbx
	add	rsp, 16
	pop	rbx
	pop	r14
	pop	rbp
	ret
LBB122_2:
Ltmp126:
	mov	rbx, rax
	lea	rdi, [rbp - 24]
	call	__ZN6loguru4TextD1Ev
	mov	rdi, rbx
	call	__Unwind_Resume
	ud2
Lfunc_end13:
	.cfi_endproc
	.section	__TEXT,__gcc_except_tab
	.p2align	2
GCC_except_table122:
Lexception13:
	.byte	255                     
	.byte	255                     
	.byte	1                       
	.uleb128 Lcst_end13-Lcst_begin13
Lcst_begin13:
	.uleb128 Lfunc_begin13-Lfunc_begin13 
	.uleb128 Ltmp124-Lfunc_begin13  
	.byte	0                       
	.byte	0                       
	.uleb128 Ltmp124-Lfunc_begin13  
	.uleb128 Ltmp125-Ltmp124        
	.uleb128 Ltmp126-Lfunc_begin13  
	.byte	0                       
	.uleb128 Ltmp125-Lfunc_begin13  
	.uleb128 Lfunc_end13-Ltmp125    
	.byte	0                       
	.byte	0                       
Lcst_end13:
	.p2align	2
                                        
	.section	__TEXT,__text,regular,pure_instructions
	.p2align	4, 0x90         
__ZNSt3__14pairINS_12basic_stringIcNS_11char_traitsIcEENS_9allocatorIcEEEES6_EC1IRA11_KcRA6_S9_Lb0EEEOT_OT0_: 
	.cfi_startproc

	push	rbp
	.cfi_def_cfa_offset 16
	.cfi_offset rbp, -16
	mov	rbp, rsp
	.cfi_def_cfa_register rbp
	call	__ZNSt3__14pairINS_12basic_stringIcNS_11char_traitsIcEENS_9allocatorIcEEEES6_EC2IRA11_KcRA6_S9_Lb0EEEOT_OT0_
	pop	rbp
	ret
	.cfi_endproc
                                        
	.p2align	4, 0x90         
__ZNSt3__14pairINS_12basic_stringIcNS_11char_traitsIcEENS_9allocatorIcEEEES6_EC1IRA12_KcRA1_S9_Lb0EEEOT_OT0_: 
	.cfi_startproc

	push	rbp
	.cfi_def_cfa_offset 16
	.cfi_offset rbp, -16
	mov	rbp, rsp
	.cfi_def_cfa_register rbp
	call	__ZNSt3__14pairINS_12basic_stringIcNS_11char_traitsIcEENS_9allocatorIcEEEES6_EC2IRA12_KcRA1_S9_Lb0EEEOT_OT0_
	pop	rbp
	ret
	.cfi_endproc
                                        
	.p2align	4, 0x90         
__ZNSt3__14pairINS_12basic_stringIcNS_11char_traitsIcEENS_9allocatorIcEEEES6_EC1IRA9_KcRA1_S9_Lb0EEEOT_OT0_: 
	.cfi_startproc

	push	rbp
	.cfi_def_cfa_offset 16
	.cfi_offset rbp, -16
	mov	rbp, rsp
	.cfi_def_cfa_register rbp
	call	__ZNSt3__14pairINS_12basic_stringIcNS_11char_traitsIcEENS_9allocatorIcEEEES6_EC2IRA9_KcRA1_S9_Lb0EEEOT_OT0_
	pop	rbp
	ret
	.cfi_endproc
                                        
	.p2align	4, 0x90         
__ZNSt3__16vectorINS_4pairINS_12basic_stringIcNS_11char_traitsIcEENS_9allocatorIcEEEES7_EENS5_IS8_EEEC1ESt16initializer_listIS8_E: 
	.cfi_startproc

	push	rbp
	.cfi_def_cfa_offset 16
	.cfi_offset rbp, -16
	mov	rbp, rsp
	.cfi_def_cfa_register rbp
	call	__ZNSt3__16vectorINS_4pairINS_12basic_stringIcNS_11char_traitsIcEENS_9allocatorIcEEEES7_EENS5_IS8_EEEC2ESt16initializer_listIS8_E
	pop	rbp
	ret
	.cfi_endproc
                                        
	.globl	__ZN6loguru15do_replacementsERKNSt3__16vectorINS0_4pairINS0_12basic_stringIcNS0_11char_traitsIcEENS0_9allocatorIcEEEES8_EENS6_IS9_EEEERS8_ 
	.p2align	4, 0x90
__ZN6loguru15do_replacementsERKNSt3__16vectorINS0_4pairINS0_12basic_stringIcNS0_11char_traitsIcEENS0_9allocatorIcEEEES8_EENS6_IS9_EEEERS8_: 
	.cfi_startproc

	push	rbp
	.cfi_def_cfa_offset 16
	.cfi_offset rbp, -16
	mov	rbp, rsp
	.cfi_def_cfa_register rbp
	push	r15
	push	r14
	push	r13
	push	r12
	push	rbx
	sub	rsp, 24
	.cfi_offset rbx, -56
	.cfi_offset r12, -48
	.cfi_offset r13, -40
	.cfi_offset r14, -32
	.cfi_offset r15, -24
	mov	r12, rsi
	mov	rbx, rdi
	call	__ZNKSt3__16vectorINS_4pairINS_12basic_stringIcNS_11char_traitsIcEENS_9allocatorIcEEEES7_EENS5_IS8_EEE5beginEv
	mov	qword ptr [rbp - 56], rax
	mov	rdi, rbx
	call	__ZNKSt3__16vectorINS_4pairINS_12basic_stringIcNS_11char_traitsIcEENS_9allocatorIcEEEES7_EENS5_IS8_EEE3endEv
	mov	qword ptr [rbp - 48], rax
	lea	rdi, [rbp - 56]
	lea	rsi, [rbp - 48]
	call	__ZNSt3__1neIPKNS_4pairINS_12basic_stringIcNS_11char_traitsIcEENS_9allocatorIcEEEES7_EEEEbRKNS_11__wrap_iterIT_EESF_
	test	al, al
	je	LBB127_7

	lea	r14, [rbp - 56]
	jmp	LBB127_2
	.p2align	4, 0x90
LBB127_6:                               
	mov	rdi, r14
	call	__ZNSt3__111__wrap_iterIPKNS_4pairINS_12basic_stringIcNS_11char_traitsIcEENS_9allocatorIcEEEES7_EEEppEv
	mov	rdi, r14
	lea	rsi, [rbp - 48]
	call	__ZNSt3__1neIPKNS_4pairINS_12basic_stringIcNS_11char_traitsIcEENS_9allocatorIcEEEES7_EEEEbRKNS_11__wrap_iterIT_EESF_
	test	al, al
	je	LBB127_7
LBB127_2:                               
                                        
	mov	rdi, r14
	call	__ZNKSt3__111__wrap_iterIPKNS_4pairINS_12basic_stringIcNS_11char_traitsIcEENS_9allocatorIcEEEES7_EEEdeEv
	mov	rbx, rax
	mov	rdi, rax
	call	__ZNKSt3__112basic_stringIcNS_11char_traitsIcEENS_9allocatorIcEEE4sizeEv
	mov	r15, rax
	lea	r13, [rbx + 24]
	mov	rdi, r13
	call	__ZNKSt3__112basic_stringIcNS_11char_traitsIcEENS_9allocatorIcEEE4sizeEv
	cmp	r15, rax
	jbe	LBB127_6

	mov	rdi, r12
	mov	rsi, rbx
	call	__ZNKSt3__112basic_stringIcNS_11char_traitsIcEENS_9allocatorIcEEE4findERKS5_m
	cmp	rax, -1
	je	LBB127_6

	mov	r15, rax
	.p2align	4, 0x90
LBB127_5:                               
                                        
	mov	rdi, rbx
	call	__ZNKSt3__112basic_stringIcNS_11char_traitsIcEENS_9allocatorIcEEE4sizeEv
	mov	rdi, r12
	mov	rsi, r15
	mov	rdx, rax
	mov	rcx, r13
	call	__ZNSt3__112basic_stringIcNS_11char_traitsIcEENS_9allocatorIcEEE7replaceEmmRKS5_
	mov	rdi, r12
	mov	rsi, rbx
	call	__ZNKSt3__112basic_stringIcNS_11char_traitsIcEENS_9allocatorIcEEE4findERKS5_m
	mov	r15, rax
	cmp	rax, -1
	jne	LBB127_5
	jmp	LBB127_6
LBB127_7:
	add	rsp, 24
	pop	rbx
	pop	r12
	pop	r13
	pop	r14
	pop	r15
	pop	rbp
	ret
	.cfi_endproc
                                        
	.p2align	4, 0x90         
__ZNKSt3__16vectorINS_4pairINS_12basic_stringIcNS_11char_traitsIcEENS_9allocatorIcEEEES7_EENS5_IS8_EEE5beginEv: 

	push	rbp
	mov	rbp, rsp
	mov	rdi, qword ptr [rdi]
	call	__ZNKSt3__16vectorINS_4pairINS_12basic_stringIcNS_11char_traitsIcEENS_9allocatorIcEEEES7_EENS5_IS8_EEE11__make_iterEPKS8_
	pop	rbp
	ret
                                        
	.p2align	4, 0x90         
__ZNKSt3__16vectorINS_4pairINS_12basic_stringIcNS_11char_traitsIcEENS_9allocatorIcEEEES7_EENS5_IS8_EEE3endEv: 

	push	rbp
	mov	rbp, rsp
	mov	rdi, qword ptr [rdi + 8]
	call	__ZNKSt3__16vectorINS_4pairINS_12basic_stringIcNS_11char_traitsIcEENS_9allocatorIcEEEES7_EENS5_IS8_EEE11__make_iterEPKS8_
	pop	rbp
	ret
                                        
	.p2align	4, 0x90         
__ZNSt3__1neIPKNS_4pairINS_12basic_stringIcNS_11char_traitsIcEENS_9allocatorIcEEEES7_EEEEbRKNS_11__wrap_iterIT_EESF_: 

	push	rbp
	mov	rbp, rsp
	call	__ZNSt3__1eqIPKNS_4pairINS_12basic_stringIcNS_11char_traitsIcEENS_9allocatorIcEEEES7_EESA_EEbRKNS_11__wrap_iterIT_EERKNSB_IT0_EE
	xor	al, 1
	pop	rbp
	ret
                                        
	.p2align	4, 0x90         
__ZNKSt3__111__wrap_iterIPKNS_4pairINS_12basic_stringIcNS_11char_traitsIcEENS_9allocatorIcEEEES7_EEEdeEv: 

	push	rbp
	mov	rbp, rsp
	mov	rax, qword ptr [rdi]
	pop	rbp
	ret
                                        
	.p2align	4, 0x90         
__ZNKSt3__112basic_stringIcNS_11char_traitsIcEENS_9allocatorIcEEE4sizeEv: 

	push	rbp
	mov	rbp, rsp
	push	rbx
	push	rax
	mov	rbx, rdi
	call	__ZNKSt3__112basic_stringIcNS_11char_traitsIcEENS_9allocatorIcEEE9__is_longEv
	mov	rdi, rbx
	test	al, al
	je	LBB132_2

	call	__ZNKSt3__112basic_stringIcNS_11char_traitsIcEENS_9allocatorIcEEE15__get_long_sizeEv
	jmp	LBB132_3
LBB132_2:
	call	__ZNKSt3__112basic_stringIcNS_11char_traitsIcEENS_9allocatorIcEEE16__get_short_sizeEv
LBB132_3:
	add	rsp, 8
	pop	rbx
	pop	rbp
	ret
                                        
	.p2align	4, 0x90         
__ZNKSt3__112basic_stringIcNS_11char_traitsIcEENS_9allocatorIcEEE4findERKS5_m: 

	push	rbp
	mov	rbp, rsp
	push	r15
	push	r14
	push	r12
	push	rbx
	mov	r14, rsi
	mov	rbx, rdi
	call	__ZNKSt3__112basic_stringIcNS_11char_traitsIcEENS_9allocatorIcEEE4dataEv
	mov	r15, rax
	mov	rdi, rbx
	call	__ZNKSt3__112basic_stringIcNS_11char_traitsIcEENS_9allocatorIcEEE4sizeEv
	mov	r12, rax
	mov	rdi, r14
	call	__ZNKSt3__112basic_stringIcNS_11char_traitsIcEENS_9allocatorIcEEE4dataEv
	mov	rbx, rax
	mov	rdi, r14
	call	__ZNKSt3__112basic_stringIcNS_11char_traitsIcEENS_9allocatorIcEEE4sizeEv
	mov	rdi, r15
	mov	rsi, r12
	mov	rdx, rbx
	mov	rcx, rax
	call	__ZNSt3__1L10__str_findIcmNS_11char_traitsIcEELm18446744073709551615EEET0_PKT_S3_S6_S3_S3_
	pop	rbx
	pop	r12
	pop	r14
	pop	r15
	pop	rbp
	ret
                                        
	.p2align	4, 0x90         
__ZNSt3__112basic_stringIcNS_11char_traitsIcEENS_9allocatorIcEEE7replaceEmmRKS5_: 
	.cfi_startproc

	push	rbp
	.cfi_def_cfa_offset 16
	.cfi_offset rbp, -16
	mov	rbp, rsp
	.cfi_def_cfa_register rbp
	push	r15
	push	r14
	push	r13
	push	r12
	push	rbx
	push	rax
	.cfi_offset rbx, -56
	.cfi_offset r12, -48
	.cfi_offset r13, -40
	.cfi_offset r14, -32
	.cfi_offset r15, -24
	mov	rbx, rcx
	mov	r14, rdx
	mov	r15, rsi
	mov	r12, rdi
	mov	rdi, rcx
	call	__ZNKSt3__112basic_stringIcNS_11char_traitsIcEENS_9allocatorIcEEE4dataEv
	mov	r13, rax
	mov	rdi, rbx
	call	__ZNKSt3__112basic_stringIcNS_11char_traitsIcEENS_9allocatorIcEEE4sizeEv
	mov	rdi, r12
	mov	rsi, r15
	mov	rdx, r14
	mov	rcx, r13
	mov	r8, rax
	call	__ZNSt3__112basic_stringIcNS_11char_traitsIcEENS_9allocatorIcEEE7replaceEmmPKcm
	add	rsp, 8
	pop	rbx
	pop	r12
	pop	r13
	pop	r14
	pop	r15
	pop	rbp
	ret
	.cfi_endproc
                                        
	.p2align	4, 0x90         
__ZNSt3__111__wrap_iterIPKNS_4pairINS_12basic_stringIcNS_11char_traitsIcEENS_9allocatorIcEEEES7_EEEppEv: 

	push	rbp
	mov	rbp, rsp
	add	qword ptr [rdi], 48
	pop	rbp
	ret
                                        
	.globl	__ZN6loguru19prettify_stacktraceERKNSt3__112basic_stringIcNS0_11char_traitsIcEENS0_9allocatorIcEEEE 
	.p2align	4, 0x90
__ZN6loguru19prettify_stacktraceERKNSt3__112basic_stringIcNS0_11char_traitsIcEENS0_9allocatorIcEEEE: 
Lfunc_begin14:
	.cfi_startproc
	.cfi_personality 155, ___gxx_personality_v0
	.cfi_lsda 16, Lexception14

	push	rbp
	.cfi_def_cfa_offset 16
	.cfi_offset rbp, -16
	mov	rbp, rsp
	.cfi_def_cfa_register rbp
	push	r15
	push	r14
	push	r12
	push	rbx
	sub	rsp, 176
	.cfi_offset rbx, -48
	.cfi_offset r12, -40
	.cfi_offset r14, -32
	.cfi_offset r15, -24
	mov	r12, rdi
	call	__ZNSt3__112basic_stringIcNS_11char_traitsIcEENS_9allocatorIcEEEC1ERKS5_
Ltmp127:
	lea	rdi, [rip + __ZN6loguruL21s_user_stack_cleanupsE]
	mov	rsi, r12
	call	__ZN6loguru15do_replacementsERKNSt3__16vectorINS0_4pairINS0_12basic_stringIcNS0_11char_traitsIcEENS0_9allocatorIcEEEES8_EENS6_IS9_EEEERS8_
Ltmp128:

Ltmp129:
	lea	rdi, [rip + __ZN6loguruL12REPLACE_LISTE]
	mov	rsi, r12
	call	__ZN6loguru15do_replacementsERKNSt3__16vectorINS0_4pairINS0_12basic_stringIcNS0_11char_traitsIcEENS0_9allocatorIcEEEES8_EENS6_IS9_EEEERS8_
Ltmp130:

Ltmp132:
	lea	rsi, [rip + L_.str.96]
	lea	rdi, [rbp - 208]
	call	__ZNSt3__111basic_regexIcNS_12regex_traitsIcEEEC1EPKcNS_15regex_constants18syntax_option_typeE
Ltmp133:

Ltmp135:
	lea	rsi, [rip + L_.str.8]
	lea	rdi, [rbp - 56]
	call	__ZNSt3__112basic_stringIcNS_11char_traitsIcEENS_9allocatorIcEEEC1IDnEEPKc
Ltmp136:

Ltmp138:
	lea	rdi, [rbp - 144]
	lea	rdx, [rbp - 208]
	lea	rcx, [rbp - 56]
	mov	rsi, r12
	call	__ZNSt3__1L13regex_replaceINS_12regex_traitsIcEEcNS_11char_traitsIcEENS_9allocatorIcEES4_S6_EENS_12basic_stringIT0_T1_T2_EERKSB_RKNS_11basic_regexIS8_T_EERKNS7_IS8_T3_T4_EENS_15regex_constants15match_flag_typeE
Ltmp139:

	lea	rbx, [rbp - 144]
	mov	rdi, r12
	mov	rsi, rbx
	call	__ZNSt3__112basic_stringIcNS_11char_traitsIcEENS_9allocatorIcEEEaSEOS5_
	mov	rdi, rbx
	call	__ZNSt3__112basic_stringIcNS_11char_traitsIcEENS_9allocatorIcEEED1Ev
	lea	rdi, [rbp - 56]
	call	__ZNSt3__112basic_stringIcNS_11char_traitsIcEENS_9allocatorIcEEED1Ev
Ltmp141:
	lea	rsi, [rip + L_.str.97]
	lea	rdi, [rbp - 144]
	call	__ZNSt3__111basic_regexIcNS_12regex_traitsIcEEEC1EPKcNS_15regex_constants18syntax_option_typeE
Ltmp142:

Ltmp144:
	lea	rsi, [rip + L_.str.98]
	lea	rdi, [rbp - 80]
	call	__ZNSt3__112basic_stringIcNS_11char_traitsIcEENS_9allocatorIcEEEC1IDnEEPKc
Ltmp145:

Ltmp147:
	lea	rdi, [rbp - 56]
	lea	rdx, [rbp - 144]
	lea	rcx, [rbp - 80]
	mov	rsi, r12
	call	__ZNSt3__1L13regex_replaceINS_12regex_traitsIcEEcNS_11char_traitsIcEENS_9allocatorIcEES4_S6_EENS_12basic_stringIT0_T1_T2_EERKSB_RKNS_11basic_regexIS8_T_EERKNS7_IS8_T3_T4_EENS_15regex_constants15match_flag_typeE
Ltmp148:

	lea	rbx, [rbp - 56]
	mov	rdi, r12
	mov	rsi, rbx
	call	__ZNSt3__112basic_stringIcNS_11char_traitsIcEENS_9allocatorIcEEEaSEOS5_
	mov	rdi, rbx
	call	__ZNSt3__112basic_stringIcNS_11char_traitsIcEENS_9allocatorIcEEED1Ev
	lea	rdi, [rbp - 80]
	call	__ZNSt3__112basic_stringIcNS_11char_traitsIcEENS_9allocatorIcEEED1Ev
	lea	rdi, [rbp - 144]
	call	__ZNSt3__111basic_regexIcNS_12regex_traitsIcEEED1Ev
	lea	rdi, [rbp - 208]
	call	__ZNSt3__111basic_regexIcNS_12regex_traitsIcEEED1Ev
LBB136_20:
	mov	rax, r12
	add	rsp, 176
	pop	rbx
	pop	r12
	pop	r14
	pop	r15
	pop	rbp
	ret
LBB136_15:
Ltmp149:
	mov	r15, rdx
	mov	r14, rax
	lea	rdi, [rbp - 80]
	call	__ZNSt3__112basic_stringIcNS_11char_traitsIcEENS_9allocatorIcEEED1Ev
	jmp	LBB136_16
LBB136_14:
Ltmp146:
	mov	r15, rdx
	mov	r14, rax
LBB136_16:
	lea	rdi, [rbp - 144]
	call	__ZNSt3__111basic_regexIcNS_12regex_traitsIcEEED1Ev
	jmp	LBB136_17
LBB136_13:
Ltmp143:
	jmp	LBB136_11
LBB136_12:
Ltmp140:
	mov	r15, rdx
	mov	r14, rax
	lea	rdi, [rbp - 56]
	call	__ZNSt3__112basic_stringIcNS_11char_traitsIcEENS_9allocatorIcEEED1Ev
	jmp	LBB136_17
LBB136_10:
Ltmp137:
LBB136_11:
	mov	r15, rdx
	mov	r14, rax
LBB136_17:
	lea	rdi, [rbp - 208]
	call	__ZNSt3__111basic_regexIcNS_12regex_traitsIcEEED1Ev
	cmp	r15d, 1
	jne	LBB136_23
LBB136_19:
	mov	rdi, r14
	call	___cxa_begin_catch
Ltmp150:
	call	___cxa_end_catch
Ltmp151:
	jmp	LBB136_20
LBB136_24:
Ltmp152:
	jmp	LBB136_22
LBB136_9:
Ltmp134:
	mov	r15, rdx
	mov	r14, rax
	cmp	r15d, 1
	je	LBB136_19
	jmp	LBB136_23
LBB136_21:
Ltmp131:
LBB136_22:
	mov	r14, rax
LBB136_23:
	mov	rdi, r12
	call	__ZNSt3__112basic_stringIcNS_11char_traitsIcEENS_9allocatorIcEEED1Ev
	mov	rdi, r14
	call	__Unwind_Resume
	ud2
Lfunc_end14:
	.cfi_endproc
	.section	__TEXT,__gcc_except_tab
	.p2align	2
GCC_except_table136:
Lexception14:
	.byte	255                     
	.byte	155                     
	.uleb128 Lttbase0-Lttbaseref0
Lttbaseref0:
	.byte	1                       
	.uleb128 Lcst_end14-Lcst_begin14
Lcst_begin14:
	.uleb128 Lfunc_begin14-Lfunc_begin14 
	.uleb128 Ltmp127-Lfunc_begin14  
	.byte	0                       
	.byte	0                       
	.uleb128 Ltmp127-Lfunc_begin14  
	.uleb128 Ltmp130-Ltmp127        
	.uleb128 Ltmp131-Lfunc_begin14  
	.byte	0                       
	.uleb128 Ltmp132-Lfunc_begin14  
	.uleb128 Ltmp133-Ltmp132        
	.uleb128 Ltmp134-Lfunc_begin14  
	.byte	3                       
	.uleb128 Ltmp135-Lfunc_begin14  
	.uleb128 Ltmp136-Ltmp135        
	.uleb128 Ltmp137-Lfunc_begin14  
	.byte	3                       
	.uleb128 Ltmp138-Lfunc_begin14  
	.uleb128 Ltmp139-Ltmp138        
	.uleb128 Ltmp140-Lfunc_begin14  
	.byte	3                       
	.uleb128 Ltmp141-Lfunc_begin14  
	.uleb128 Ltmp142-Ltmp141        
	.uleb128 Ltmp143-Lfunc_begin14  
	.byte	3                       
	.uleb128 Ltmp144-Lfunc_begin14  
	.uleb128 Ltmp145-Ltmp144        
	.uleb128 Ltmp146-Lfunc_begin14  
	.byte	3                       
	.uleb128 Ltmp147-Lfunc_begin14  
	.uleb128 Ltmp148-Ltmp147        
	.uleb128 Ltmp149-Lfunc_begin14  
	.byte	3                       
	.uleb128 Ltmp148-Lfunc_begin14  
	.uleb128 Ltmp150-Ltmp148        
	.byte	0                       
	.byte	0                       
	.uleb128 Ltmp150-Lfunc_begin14  
	.uleb128 Ltmp151-Ltmp150        
	.uleb128 Ltmp152-Lfunc_begin14  
	.byte	0                       
	.uleb128 Ltmp151-Lfunc_begin14  
	.uleb128 Lfunc_end14-Ltmp151    
	.byte	0                       
	.byte	0                       
Lcst_end14:
	.byte	0                       
                                        
	.byte	0                       
	.byte	1                       
                                        
	.byte	125                     
	.p2align	2
                                        
	.long	__ZTINSt3__111regex_errorE@GOTPCREL+4 
Lttbase0:
	.p2align	2
                                        
	.section	__TEXT,__text,regular,pure_instructions
	.p2align	4, 0x90         
__ZNSt3__111basic_regexIcNS_12regex_traitsIcEEEC1EPKcNS_15regex_constants18syntax_option_typeE: 
	.cfi_startproc

	push	rbp
	.cfi_def_cfa_offset 16
	.cfi_offset rbp, -16
	mov	rbp, rsp
	.cfi_def_cfa_register rbp
	call	__ZNSt3__111basic_regexIcNS_12regex_traitsIcEEEC2EPKcNS_15regex_constants18syntax_option_typeE
	pop	rbp
	ret
	.cfi_endproc
                                        
	.p2align	4, 0x90         
__ZNSt3__1L13regex_replaceINS_12regex_traitsIcEEcNS_11char_traitsIcEENS_9allocatorIcEES4_S6_EENS_12basic_stringIT0_T1_T2_EERKSB_RKNS_11basic_regexIS8_T_EERKNS7_IS8_T3_T4_EENS_15regex_constants15match_flag_typeE: 
Lfunc_begin15:
	.cfi_startproc
	.cfi_personality 155, ___gxx_personality_v0
	.cfi_lsda 16, Lexception15

	push	rbp
	.cfi_def_cfa_offset 16
	.cfi_offset rbp, -16
	mov	rbp, rsp
	.cfi_def_cfa_register rbp
	push	r15
	push	r14
	push	r13
	push	r12
	push	rbx
	push	rax
	.cfi_offset rbx, -56
	.cfi_offset r12, -48
	.cfi_offset r13, -40
	.cfi_offset r14, -32
	.cfi_offset r15, -24
	mov	r14, rcx
	mov	qword ptr [rbp - 48], rdx 
	mov	rbx, rsi
	mov	r12, rdi
	call	__ZNSt3__112basic_stringIcNS_11char_traitsIcEENS_9allocatorIcEEEC1Ev
	mov	rdi, r12
	call	__ZNSt3__1L13back_inserterINS_12basic_stringIcNS_11char_traitsIcEENS_9allocatorIcEEEEEENS_20back_insert_iteratorIT_EERS8_
	mov	r13, rax
	mov	rdi, rbx
	call	__ZNKSt3__112basic_stringIcNS_11char_traitsIcEENS_9allocatorIcEEE5beginEv
	mov	r15, rax
	mov	rdi, rbx
	call	__ZNKSt3__112basic_stringIcNS_11char_traitsIcEENS_9allocatorIcEEE3endEv
	mov	rbx, rax
	mov	rdi, r14
	call	__ZNKSt3__112basic_stringIcNS_11char_traitsIcEENS_9allocatorIcEEE5c_strEv
Ltmp153:
	mov	rdi, r13
	mov	rsi, r15
	mov	rdx, rbx
	mov	rcx, qword ptr [rbp - 48] 
	mov	r8, rax
	xor	r9d, r9d
	call	__ZNSt3__113regex_replaceINS_20back_insert_iteratorINS_12basic_stringIcNS_11char_traitsIcEENS_9allocatorIcEEEEEENS_11__wrap_iterIPKcEENS_12regex_traitsIcEEcEET_SF_T0_SG_RKNS_11basic_regexIT2_T1_EEPKSI_NS_15regex_constants15match_flag_typeE
Ltmp154:

	mov	rax, r12
	add	rsp, 8
	pop	rbx
	pop	r12
	pop	r13
	pop	r14
	pop	r15
	pop	rbp
	ret
LBB138_2:
Ltmp155:
	mov	rbx, rax
	mov	rdi, r12
	call	__ZNSt3__112basic_stringIcNS_11char_traitsIcEENS_9allocatorIcEEED1Ev
	mov	rdi, rbx
	call	__Unwind_Resume
	ud2
Lfunc_end15:
	.cfi_endproc
	.section	__TEXT,__gcc_except_tab
	.p2align	2
GCC_except_table138:
Lexception15:
	.byte	255                     
	.byte	255                     
	.byte	1                       
	.uleb128 Lcst_end15-Lcst_begin15
Lcst_begin15:
	.uleb128 Ltmp153-Lfunc_begin15  
	.uleb128 Ltmp154-Ltmp153        
	.uleb128 Ltmp155-Lfunc_begin15  
	.byte	0                       
	.uleb128 Ltmp154-Lfunc_begin15  
	.uleb128 Lfunc_end15-Ltmp154    
	.byte	0                       
	.byte	0                       
Lcst_end15:
	.p2align	2
                                        
	.section	__TEXT,__text,regular,pure_instructions
	.p2align	4, 0x90         
__ZNSt3__112basic_stringIcNS_11char_traitsIcEENS_9allocatorIcEEEaSEOS5_: 

	push	rbp
	mov	rbp, rsp
	call	__ZNSt3__112basic_stringIcNS_11char_traitsIcEENS_9allocatorIcEEE13__move_assignERS5_NS_17integral_constantIbLb1EEE
	pop	rbp
	ret
                                        
	.globl	__ZNSt3__111basic_regexIcNS_12regex_traitsIcEEED1Ev 
	.weak_def_can_be_hidden	__ZNSt3__111basic_regexIcNS_12regex_traitsIcEEED1Ev
	.p2align	4, 0x90
__ZNSt3__111basic_regexIcNS_12regex_traitsIcEEED1Ev: 

	push	rbp
	mov	rbp, rsp
	call	__ZNSt3__111basic_regexIcNS_12regex_traitsIcEEED2Ev
	pop	rbp
	ret
                                        
	.globl	__ZN6loguru23stacktrace_as_stdstringEi 
	.p2align	4, 0x90
__ZN6loguru23stacktrace_as_stdstringEi: 
Lfunc_begin16:
	.cfi_startproc
	.cfi_personality 155, ___gxx_personality_v0
	.cfi_lsda 16, Lexception16

	push	rbp
	.cfi_def_cfa_offset 16
	.cfi_offset rbp, -16
	mov	rbp, rsp
	.cfi_def_cfa_register rbp
	push	r15
	push	r14
	push	r13
	push	r12
	push	rbx
	sub	rsp, 2152
	.cfi_offset rbx, -56
	.cfi_offset r12, -48
	.cfi_offset r13, -40
	.cfi_offset r14, -32
	.cfi_offset r15, -24
	mov	ebx, esi
	mov	qword ptr [rbp - 2144], rdi 
	mov	rax, qword ptr [rip + ___stack_chk_guard@GOTPCREL]
	mov	rax, qword ptr [rax]
	mov	qword ptr [rbp - 48], rax
	lea	r14, [rbp - 1072]
	mov	rdi, r14
	mov	esi, 128
	call	_backtrace
	mov	r15d, eax
	mov	rdi, r14
	mov	esi, eax
	call	_backtrace_symbols
	mov	qword ptr [rbp - 2112], rax 
	lea	rdi, [rbp - 2136]
	call	__ZNSt3__112basic_stringIcNS_11char_traitsIcEENS_9allocatorIcEEEC1Ev
	mov	dword ptr [rbp - 2100], r15d 
	cmp	r15d, ebx
	jle	LBB141_16

	mov	eax, dword ptr [rbp - 2100] 
	movsxd	r14, eax
	movsxd	r12, ebx
	not	ebx
	add	ebx, eax
	lea	r15, [rbp - 2096]
	.p2align	4, 0x90
LBB141_2:                               
	mov	rdi, qword ptr [rbp + 8*r14 - 1080]
Ltmp156:
	lea	rsi, [rbp - 2176]
	call	_dladdr
Ltmp157:

	test	eax, eax
	je	LBB141_13

	mov	rdi, qword ptr [rbp - 2160]
	test	rdi, rdi
	je	LBB141_13

	mov	dword ptr [rbp - 2104], -1
	cmp	byte ptr [rdi], 95
	jne	LBB141_6

Ltmp158:
	xor	esi, esi
	xor	edx, edx
	lea	rcx, [rbp - 2104]
	call	___cxa_demangle
Ltmp159:

	mov	r13, rax
	jmp	LBB141_9
	.p2align	4, 0x90
LBB141_13:                              
	mov	r9, qword ptr [rbp + 8*r14 - 1080]
	mov	rax, qword ptr [rbp - 2112] 
	mov	rax, qword ptr [rax + 8*r14 - 8]
	mov	qword ptr [rsp], rax
	mov	esi, 1024
	mov	rdi, r15
	lea	rdx, [rip + L_.str.100]
	mov	ecx, ebx
	mov	r8d, 18
	xor	eax, eax
	call	_snprintf
	jmp	LBB141_14
LBB141_6:                               
	xor	r13d, r13d
LBB141_9:                               
	mov	r9, qword ptr [rbp + 8*r14 - 1080]
	cmp	dword ptr [rbp - 2104], 0
	mov	rax, r13
	je	LBB141_12

	mov	rax, qword ptr [rbp - 2160]
	test	rax, rax
	jne	LBB141_12

	mov	rax, qword ptr [rbp - 2112] 
	mov	rax, qword ptr [rax + 8*r14 - 8]
LBB141_12:                              
	mov	rcx, qword ptr [rbp + 8*r14 - 1080]
	sub	rcx, qword ptr [rbp - 2152]
	mov	qword ptr [rsp + 8], rcx
	mov	qword ptr [rsp], rax
	mov	esi, 1024
	mov	rdi, r15
	lea	rdx, [rip + L_.str.99]
	mov	ecx, ebx
	mov	r8d, 18
	xor	eax, eax
	call	_snprintf
	mov	rdi, r13
	call	_free
LBB141_14:                              
Ltmp161:
	lea	rdi, [rbp - 2136]
	mov	rsi, r15
	call	__ZNSt3__112basic_stringIcNS_11char_traitsIcEENS_9allocatorIcEEEpLEPKc
Ltmp162:

	dec	r14
	dec	ebx
	cmp	r14, r12
	jg	LBB141_2
LBB141_16:
	mov	rdi, qword ptr [rbp - 2112] 
	call	_free
	cmp	dword ptr [rbp - 2100], 128 
	jne	LBB141_19

Ltmp164:
	lea	rsi, [rip + L_.str.101]
	lea	rdi, [rbp - 2096]
	lea	rdx, [rbp - 2136]
	call	__ZNSt3__1plIcNS_11char_traitsIcEENS_9allocatorIcEEEENS_12basic_stringIT_T0_T1_EEPKS6_RKS9_
Ltmp165:

	lea	rdi, [rbp - 2136]
	lea	rbx, [rbp - 2096]
	mov	rsi, rbx
	call	__ZNSt3__112basic_stringIcNS_11char_traitsIcEENS_9allocatorIcEEEaSEOS5_
	mov	rdi, rbx
	call	__ZNSt3__112basic_stringIcNS_11char_traitsIcEENS_9allocatorIcEEED1Ev
LBB141_19:
	lea	rdi, [rbp - 2136]
	call	__ZNKSt3__112basic_stringIcNS_11char_traitsIcEENS_9allocatorIcEEE5emptyEv
	test	al, al
	mov	r15, qword ptr [rbp - 2144] 
	jne	LBB141_22

	lea	r14, [rbp - 2136]
	mov	rdi, r14
	call	__ZNKSt3__112basic_stringIcNS_11char_traitsIcEENS_9allocatorIcEEE4sizeEv
	mov	rbx, rax
	dec	rbx
	mov	rdi, r14
	mov	rsi, rbx
	call	__ZNSt3__112basic_stringIcNS_11char_traitsIcEENS_9allocatorIcEEEixEm
	cmp	byte ptr [rax], 10
	jne	LBB141_22

Ltmp167:
	lea	rdi, [rbp - 2136]
	mov	rsi, rbx
	call	__ZNSt3__112basic_stringIcNS_11char_traitsIcEENS_9allocatorIcEEE6resizeEm
Ltmp168:
LBB141_22:
Ltmp169:
	lea	rsi, [rbp - 2136]
	mov	rdi, r15
	call	__ZN6loguru19prettify_stacktraceERKNSt3__112basic_stringIcNS0_11char_traitsIcEENS0_9allocatorIcEEEE
Ltmp170:

	lea	rdi, [rbp - 2136]
	call	__ZNSt3__112basic_stringIcNS_11char_traitsIcEENS_9allocatorIcEEED1Ev
	mov	rax, qword ptr [rip + ___stack_chk_guard@GOTPCREL]
	mov	rax, qword ptr [rax]
	cmp	rax, qword ptr [rbp - 48]
	jne	LBB141_24

	mov	rax, r15
	add	rsp, 2152
	pop	rbx
	pop	r12
	pop	r13
	pop	r14
	pop	r15
	pop	rbp
	ret
LBB141_24:
	call	___stack_chk_fail
LBB141_26:
Ltmp166:
	jmp	LBB141_29
LBB141_25:
Ltmp171:
	jmp	LBB141_29
LBB141_30:
Ltmp160:
	jmp	LBB141_29
LBB141_28:
Ltmp163:
LBB141_29:
	mov	rbx, rax
	lea	rdi, [rbp - 2136]
	call	__ZNSt3__112basic_stringIcNS_11char_traitsIcEENS_9allocatorIcEEED1Ev
	mov	rdi, rbx
	call	__Unwind_Resume
	ud2
Lfunc_end16:
	.cfi_endproc
	.section	__TEXT,__gcc_except_tab
	.p2align	2
GCC_except_table141:
Lexception16:
	.byte	255                     
	.byte	255                     
	.byte	1                       
	.uleb128 Lcst_end16-Lcst_begin16
Lcst_begin16:
	.uleb128 Lfunc_begin16-Lfunc_begin16 
	.uleb128 Ltmp156-Lfunc_begin16  
	.byte	0                       
	.byte	0                       
	.uleb128 Ltmp156-Lfunc_begin16  
	.uleb128 Ltmp157-Ltmp156        
	.uleb128 Ltmp163-Lfunc_begin16  
	.byte	0                       
	.uleb128 Ltmp158-Lfunc_begin16  
	.uleb128 Ltmp159-Ltmp158        
	.uleb128 Ltmp160-Lfunc_begin16  
	.byte	0                       
	.uleb128 Ltmp161-Lfunc_begin16  
	.uleb128 Ltmp162-Ltmp161        
	.uleb128 Ltmp163-Lfunc_begin16  
	.byte	0                       
	.uleb128 Ltmp164-Lfunc_begin16  
	.uleb128 Ltmp165-Ltmp164        
	.uleb128 Ltmp166-Lfunc_begin16  
	.byte	0                       
	.uleb128 Ltmp167-Lfunc_begin16  
	.uleb128 Ltmp170-Ltmp167        
	.uleb128 Ltmp171-Lfunc_begin16  
	.byte	0                       
	.uleb128 Ltmp170-Lfunc_begin16  
	.uleb128 Lfunc_end16-Ltmp170    
	.byte	0                       
	.byte	0                       
Lcst_end16:
	.p2align	2
                                        
	.section	__TEXT,__text,regular,pure_instructions
	.p2align	4, 0x90         
__ZNSt3__112basic_stringIcNS_11char_traitsIcEENS_9allocatorIcEEEixEm: 

	push	rbp
	mov	rbp, rsp
	push	rbx
	push	rax
	mov	rbx, rsi
	call	__ZNSt3__112basic_stringIcNS_11char_traitsIcEENS_9allocatorIcEEE13__get_pointerEv
	add	rax, rbx
	add	rsp, 8
	pop	rbx
	pop	rbp
	ret
                                        
	.p2align	4, 0x90         
__ZNSt3__112basic_stringIcNS_11char_traitsIcEENS_9allocatorIcEEE6resizeEm: 
	.cfi_startproc

	push	rbp
	.cfi_def_cfa_offset 16
	.cfi_offset rbp, -16
	mov	rbp, rsp
	.cfi_def_cfa_register rbp
	xor	edx, edx
	call	__ZNSt3__112basic_stringIcNS_11char_traitsIcEENS_9allocatorIcEEE6resizeEmc
	pop	rbp
	ret
	.cfi_endproc
                                        
	.globl	__ZN6loguru10stacktraceEi 
	.p2align	4, 0x90
__ZN6loguru10stacktraceEi:              
Lfunc_begin17:
	.cfi_startproc
	.cfi_personality 155, ___gxx_personality_v0
	.cfi_lsda 16, Lexception17

	push	rbp
	.cfi_def_cfa_offset 16
	.cfi_offset rbp, -16
	mov	rbp, rsp
	.cfi_def_cfa_register rbp
	push	r14
	push	rbx
	sub	rsp, 32
	.cfi_offset rbx, -32
	.cfi_offset r14, -24
	mov	rbx, rdi
	inc	esi
	lea	r14, [rbp - 40]
	mov	rdi, r14
	call	__ZN6loguru23stacktrace_as_stdstringEi
	mov	rdi, r14
	call	__ZNKSt3__112basic_stringIcNS_11char_traitsIcEENS_9allocatorIcEEE5c_strEv
	mov	rdi, rax
	call	_strdup
Ltmp172:
	mov	rdi, rbx
	mov	rsi, rax
	call	__ZN6loguru4TextC1EPc
Ltmp173:

	lea	rdi, [rbp - 40]
	call	__ZNSt3__112basic_stringIcNS_11char_traitsIcEENS_9allocatorIcEEED1Ev
	mov	rax, rbx
	add	rsp, 32
	pop	rbx
	pop	r14
	pop	rbp
	ret
LBB144_2:
Ltmp174:
	mov	rbx, rax
	lea	rdi, [rbp - 40]
	call	__ZNSt3__112basic_stringIcNS_11char_traitsIcEENS_9allocatorIcEEED1Ev
	mov	rdi, rbx
	call	__Unwind_Resume
	ud2
Lfunc_end17:
	.cfi_endproc
	.section	__TEXT,__gcc_except_tab
	.p2align	2
GCC_except_table144:
Lexception17:
	.byte	255                     
	.byte	255                     
	.byte	1                       
	.uleb128 Lcst_end17-Lcst_begin17
Lcst_begin17:
	.uleb128 Lfunc_begin17-Lfunc_begin17 
	.uleb128 Ltmp172-Lfunc_begin17  
	.byte	0                       
	.byte	0                       
	.uleb128 Ltmp172-Lfunc_begin17  
	.uleb128 Ltmp173-Ltmp172        
	.uleb128 Ltmp174-Lfunc_begin17  
	.byte	0                       
	.uleb128 Ltmp173-Lfunc_begin17  
	.uleb128 Lfunc_end17-Ltmp173    
	.byte	0                       
	.byte	0                       
Lcst_end17:
	.p2align	2
                                        
	.section	__TEXT,__text,regular,pure_instructions
	.globl	__ZN6loguru17log_to_everywhereEiiPKcjS1_S1_ 
	.p2align	4, 0x90
__ZN6loguru17log_to_everywhereEiiPKcjS1_S1_: 
	.cfi_startproc

	push	rbp
	.cfi_def_cfa_offset 16
	.cfi_offset rbp, -16
	mov	rbp, rsp
	.cfi_def_cfa_register rbp
	push	r15
	push	r14
	push	r13
	push	r12
	push	rbx
	sub	rsp, 168
	.cfi_offset rbx, -56
	.cfi_offset r12, -48
	.cfi_offset r13, -40
	.cfi_offset r14, -32
	.cfi_offset r15, -24
	mov	qword ptr [rbp - 152], r9 
	mov	r15, r8
	mov	r12d, ecx
	mov	r13, rdx
	mov	ebx, esi
	mov	r14d, edi
	mov	rax, qword ptr [rip + ___stack_chk_guard@GOTPCREL]
	mov	rax, qword ptr [rax]
	mov	qword ptr [rbp - 48], rax
	lea	rdi, [rbp - 144]
	call	__ZN6loguruL14print_preambleEPcmiPKcj
	mov	dword ptr [rbp - 208], ebx
	mov	qword ptr [rbp - 200], r13
	mov	dword ptr [rbp - 192], r12d
	lea	rax, [rbp - 144]
	mov	qword ptr [rbp - 184], rax
	lea	rax, [rip + L_.str.8]
	mov	qword ptr [rbp - 176], rax
	mov	qword ptr [rbp - 168], r15
	mov	rax, qword ptr [rbp - 152] 
	mov	qword ptr [rbp - 160], rax
	inc	r14d
	lea	rsi, [rbp - 208]
	mov	edi, r14d
	mov	edx, 1
	mov	ecx, 1
	call	__ZN6loguruL11log_messageEiRNS_7MessageEbb
	mov	rax, qword ptr [rip + ___stack_chk_guard@GOTPCREL]
	mov	rax, qword ptr [rax]
	cmp	rax, qword ptr [rbp - 48]
	jne	LBB145_2

	add	rsp, 168
	pop	rbx
	pop	r12
	pop	r13
	pop	r14
	pop	r15
	pop	rbp
	ret
LBB145_2:
	call	___stack_chk_fail
	.cfi_endproc
                                        
	.section	__TEXT,__literal8,8byte_literals
	.p2align	3               
LCPI146_0:
	.quad	4652007308841189376     
	.section	__TEXT,__text,regular,pure_instructions
	.p2align	4, 0x90
__ZN6loguruL14print_preambleEPcmiPKcj:  
	.cfi_startproc

	push	rbp
	.cfi_def_cfa_offset 16
	.cfi_offset rbp, -16
	mov	rbp, rsp
	.cfi_def_cfa_register rbp
	push	r15
	push	r14
	push	r13
	push	r12
	push	rbx
	sub	rsp, 168
	.cfi_offset rbx, -56
	.cfi_offset r12, -48
	.cfi_offset r13, -40
	.cfi_offset r14, -32
	.cfi_offset r15, -24
	mov	rax, qword ptr [rip + ___stack_chk_guard@GOTPCREL]
	mov	rax, qword ptr [rax]
	mov	qword ptr [rbp - 48], rax
	mov	byte ptr [rdi], 0
	cmp	byte ptr [rip + __ZN6loguru10g_preambleE], 0
	je	LBB146_25

	mov	r13, rdx
	mov	r15d, esi
	mov	rbx, rdi
	mov	dword ptr [rbp - 124], ecx 
	call	__ZNSt3__16chrono12system_clock3nowEv
	mov	qword ptr [rbp - 80], rax
	lea	rdi, [rbp - 80]
	call	__ZNKSt3__16chrono10time_pointINS0_12system_clockENS0_8durationIxNS_5ratioILl1ELl1000000EEEEEE16time_since_epochEv
	mov	qword ptr [rbp - 112], rax
	lea	rdi, [rbp - 112]
	call	__ZNSt3__16chronoL13duration_castINS0_8durationIxNS_5ratioILl1ELl1000EEEEExNS3_ILl1ELl1000000EEEEENS_9enable_ifIXsr13__is_durationIT_EE5valueES8_E4typeERKNS2_IT0_T1_EE
	mov	qword ptr [rbp - 200], rax
	lea	rdi, [rbp - 200]
	call	__ZNKSt3__16chrono8durationIxNS_5ratioILl1ELl1000EEEE5countEv
	mov	r12, rax
	movabs	rcx, 2361183241434822607
	imul	rcx
	mov	r14, rdx
	mov	rax, rdx
	shr	rax, 63
	sar	r14, 7
	add	r14, rax
	mov	qword ptr [rbp - 144], r14
	lea	rdi, [rbp - 144]
	lea	rsi, [rbp - 200]
	call	_localtime_r
	call	__ZNSt3__16chrono12steady_clock3nowEv
	mov	qword ptr [rbp - 120], rax
	lea	rdi, [rbp - 120]
	call	__ZNSt3__16chronomiINS0_12steady_clockENS0_8durationIxNS_5ratioILl1ELl1000000000EEEEES6_EENS_11common_typeIJT0_T1_EE4typeERKNS0_10time_pointIT_S8_EERKNSC_ISD_S9_EE
	mov	qword ptr [rbp - 80], rax
	lea	rdi, [rbp - 80]
	call	__ZNSt3__16chronoL13duration_castINS0_8durationIxNS_5ratioILl1ELl1000EEEEExNS3_ILl1ELl1000000000EEEEENS_9enable_ifIXsr13__is_durationIT_EE5valueES8_E4typeERKNS2_IT0_T1_EE
	mov	qword ptr [rbp - 112], rax
	lea	rdi, [rbp - 112]
	call	__ZNKSt3__16chrono8durationIxNS_5ratioILl1ELl1000EEEE5countEv
	mov	qword ptr [rbp - 136], rax 
	xorpd	xmm0, xmm0
	movapd	xmmword ptr [rbp - 80], xmm0
	mov	byte ptr [rbp - 64], 0
	lea	rdi, [rbp - 80]
	mov	esi, 17
	mov	edx, 1
	call	__ZN6loguru15get_thread_nameEPcyb
	mov	rdi, r13
	call	__ZN6loguru8filenameEPKc
	mov	r13, rax
	mov	edi, r15d
	call	__ZN6loguru18get_verbosity_nameEi
	test	rax, rax
	je	LBB146_3

	lea	rdx, [rip + L_.str.29]
	lea	rdi, [rbp - 120]
	mov	esi, 5
	mov	rcx, rax
	xor	eax, eax
	call	_snprintf
	jmp	LBB146_4
LBB146_3:
	lea	rdx, [rip + L_.str.171]
	lea	rdi, [rbp - 120]
	mov	esi, 5
	mov	ecx, r15d
	xor	eax, eax
	call	_snprintf
LBB146_4:
	mov	r15, rbx
	cmp	byte ptr [rip + __ZN6loguru15g_preamble_dateE], 0
	je	LBB146_5

	mov	ecx, 1900
	add	ecx, dword ptr [rbp - 180]
	mov	r9d, dword ptr [rbp - 188]
	mov	r8d, dword ptr [rbp - 184]
	inc	r8d
	lea	rdx, [rip + L_.str.172]
	mov	esi, 92
	mov	rdi, r15
	xor	eax, eax
	call	_snprintf
	movsxd	rbx, eax
	cmp	rbx, 91
	jbe	LBB146_8
	jmp	LBB146_10
LBB146_5:
	xor	ebx, ebx
	cmp	rbx, 91
	ja	LBB146_10
LBB146_8:
	cmp	byte ptr [rip + __ZN6loguru15g_preamble_timeE], 0
	je	LBB146_10

	imul	rax, r14, 1000
	sub	r12, rax
	lea	rdi, [r15 + rbx]
	mov	esi, 92
	sub	rsi, rbx
	mov	ecx, dword ptr [rbp - 192]
	mov	r9d, dword ptr [rbp - 200]
	mov	r8d, dword ptr [rbp - 196]
	mov	qword ptr [rsp], r12
	lea	rdx, [rip + L_.str.173]
	xor	eax, eax
	call	_snprintf
	cdqe
	add	rbx, rax
LBB146_10:
	cmp	rbx, 91
	ja	LBB146_13

	cmp	byte ptr [rip + __ZN6loguru17g_preamble_uptimeE], 0
	je	LBB146_13

	xorps	xmm0, xmm0
	cvtsi2sd	xmm0, qword ptr [rbp - 136] 
	divsd	xmm0, qword ptr [rip + LCPI146_0]
	lea	rdi, [r15 + rbx]
	mov	esi, 92
	sub	rsi, rbx
	lea	rdx, [rip + L_.str.174]
	mov	al, 1
	call	_snprintf
	cdqe
	add	rbx, rax
LBB146_13:
	cmp	rbx, 91
	ja	LBB146_16

	cmp	byte ptr [rip + __ZN6loguru17g_preamble_threadE], 0
	je	LBB146_16

	lea	rdi, [r15 + rbx]
	mov	esi, 92
	sub	rsi, rbx
	lea	rdx, [rip + L_.str.165]
	lea	r8, [rbp - 80]
	mov	ecx, 16
	xor	eax, eax
	call	_snprintf
	cdqe
	add	rbx, rax
LBB146_16:
	cmp	rbx, 91
	ja	LBB146_19

	cmp	byte ptr [rip + __ZN6loguru15g_preamble_fileE], 0
	je	LBB146_19

	lea	rdx, [rip + L_.str.29]
	lea	r14, [rbp - 112]
	mov	esi, 24
	mov	rdi, r14
	mov	rcx, r13
	xor	eax, eax
	call	_snprintf
	lea	rdi, [r15 + rbx]
	mov	esi, 92
	sub	rsi, rbx
	lea	rdx, [rip + L_.str.175]
	mov	ecx, 23
	mov	r8, r14
	mov	r9d, dword ptr [rbp - 124] 
	xor	eax, eax
	call	_snprintf
	cdqe
	add	rbx, rax
LBB146_19:
	cmp	rbx, 91
	ja	LBB146_22

	cmp	byte ptr [rip + __ZN6loguru18g_preamble_verboseE], 0
	je	LBB146_22

	lea	rdi, [r15 + rbx]
	mov	esi, 92
	sub	rsi, rbx
	lea	rdx, [rip + L_.str.176]
	lea	rcx, [rbp - 120]
	xor	eax, eax
	call	_snprintf
	cdqe
	add	rbx, rax
LBB146_22:
	cmp	rbx, 91
	ja	LBB146_25

	cmp	byte ptr [rip + __ZN6loguru15g_preamble_pipeE], 0
	je	LBB146_25

	add	r15, rbx
	mov	esi, 92
	sub	rsi, rbx
	lea	rdx, [rip + L_.str.170]
	mov	rdi, r15
	xor	eax, eax
	call	_snprintf
LBB146_25:
	mov	rax, qword ptr [rip + ___stack_chk_guard@GOTPCREL]
	mov	rax, qword ptr [rax]
	cmp	rax, qword ptr [rbp - 48]
	jne	LBB146_27

	add	rsp, 168
	pop	rbx
	pop	r12
	pop	r13
	pop	r14
	pop	r15
	pop	rbp
	ret
LBB146_27:
	call	___stack_chk_fail
	.cfi_endproc
                                        
	.p2align	4, 0x90         
__ZN6loguruL11log_messageEiRNS_7MessageEbb: 
Lfunc_begin18:
	.cfi_startproc
	.cfi_personality 155, ___gxx_personality_v0
	.cfi_lsda 16, Lexception18

	push	rbp
	.cfi_def_cfa_offset 16
	.cfi_offset rbp, -16
	mov	rbp, rsp
	.cfi_def_cfa_register rbp
	push	r15
	push	r14
	push	r13
	push	r12
	push	rbx
	sub	rsp, 72
	.cfi_offset rbx, -56
	.cfi_offset r12, -48
	.cfi_offset r13, -40
	.cfi_offset r14, -32
	.cfi_offset r15, -24
	mov	dword ptr [rbp - 64], ecx 
	mov	dword ptr [rbp - 60], edx 
	mov	r12, rsi
	mov	ebx, edi
	mov	r15d, dword ptr [rsi]
	lea	rdi, [rbp - 72]
	call	__ZNSt3__110lock_guardINS_15recursive_mutexEEC1ERS1_
	cmp	dword ptr [r12], -3
	jne	LBB147_10

	add	ebx, 2
Ltmp175:
	lea	rdi, [rbp - 56]
	mov	esi, ebx
	call	__ZN6loguru10stacktraceEi
Ltmp176:

	lea	rdi, [rbp - 56]
	call	__ZNK6loguru4Text5emptyEv
	test	al, al
	jne	LBB147_5

	call	__ZN6loguru24current_verbosity_cutoffEv
	cmp	eax, -2
	jl	LBB147_5

	lea	rdi, [rbp - 56]
	call	__ZNK6loguru4Text5c_strEv
Ltmp178:
	lea	rsi, [rip + L_.str.28]
	lea	rcx, [rip + L_.str.177]
	mov	edi, -2
	mov	edx, 1341
	mov	r8, rax
	xor	eax, eax
	call	__ZN6loguru7raw_logEiPKcjS1_z
Ltmp179:
LBB147_5:
Ltmp181:
	lea	rdi, [rbp - 48]
	call	__ZN6loguru17get_error_contextEv
Ltmp182:

	lea	rdi, [rbp - 48]
	call	__ZNK6loguru4Text5emptyEv
	test	al, al
	jne	LBB147_9

	call	__ZN6loguru24current_verbosity_cutoffEv
	cmp	eax, -2
	jl	LBB147_9

	lea	rdi, [rbp - 48]
	call	__ZNK6loguru4Text5c_strEv
Ltmp184:
	lea	rsi, [rip + L_.str.28]
	lea	rcx, [rip + L_.str.29]
	mov	edi, -2
	mov	edx, 1346
	mov	r8, rax
	xor	eax, eax
	call	__ZN6loguru7raw_logEiPKcjS1_z
Ltmp185:
LBB147_9:
	lea	rdi, [rbp - 48]
	call	__ZN6loguru4TextD1Ev
	lea	rdi, [rbp - 56]
	call	__ZN6loguru4TextD1Ev
LBB147_10:
	cmp	byte ptr [rbp - 60], 0  
	je	LBB147_12

	call	__ZNKSt3__113__atomic_baseIjLb0EEcvjEv
	mov	edi, eax
	call	__ZN6loguruL11indentationEj
	mov	qword ptr [r12 + 32], rax
LBB147_12:
	cmp	r15d, dword ptr [rip + __ZN6loguru18g_stderr_verbosityE]
	jg	LBB147_30

	cmp	byte ptr [rip + __ZN6loguru18g_colorlogtostderrE], 0
	je	LBB147_26

	cmp	byte ptr [rip + __ZN6loguruL20s_terminal_has_colorE], 0
	je	LBB147_26

	mov	rax, qword ptr [rip + ___stderrp@GOTPCREL]
	mov	r13, qword ptr [rax]
	call	__ZN6loguru14terminal_resetEv
	mov	rbx, rax
	test	r15d, r15d
	js	LBB147_21

	call	__ZN6loguru12terminal_dimEv
	mov	r8, qword ptr [r12 + 24]
	mov	r9, qword ptr [r12 + 32]
	test	r15d, r15d
	lea	rcx, [rip + L_.str.8]
	cmove	rcx, rbx
	mov	rdx, qword ptr [r12 + 40]
	mov	rsi, qword ptr [r12 + 48]
	mov	qword ptr [rsp + 24], rbx
	mov	qword ptr [rsp + 16], rsi
	mov	qword ptr [rsp + 8], rdx
	mov	qword ptr [rsp], rcx
	lea	rsi, [rip + L_.str.178]
	jmp	LBB147_25
LBB147_26:
	mov	rax, qword ptr [rip + ___stderrp@GOTPCREL]
	mov	rdi, qword ptr [rax]
	mov	rdx, qword ptr [r12 + 24]
	mov	rcx, qword ptr [r12 + 32]
	mov	r8, qword ptr [r12 + 40]
	mov	r9, qword ptr [r12 + 48]
	lea	rsi, [rip + L_.str.21]
	jmp	LBB147_27
LBB147_21:
	cmp	r15d, -1
	je	LBB147_22

	call	__ZN6loguru12terminal_redEv
	jmp	LBB147_24
LBB147_22:
	call	__ZN6loguru15terminal_yellowEv
LBB147_24:
	mov	r8, qword ptr [r12 + 24]
	mov	r9, qword ptr [r12 + 32]
	mov	rcx, qword ptr [r12 + 40]
	mov	rdx, qword ptr [r12 + 48]
	mov	qword ptr [rsp + 16], rbx
	mov	qword ptr [rsp + 8], rdx
	mov	qword ptr [rsp], rcx
	lea	rsi, [rip + L_.str.179]
LBB147_25:
	mov	rdi, r13
	mov	rdx, rbx
	mov	rcx, rax
LBB147_27:
	xor	eax, eax
	call	_fprintf
	cmp	dword ptr [rip + __ZN6loguru19g_flush_interval_msE], 0
	je	LBB147_28

	mov	byte ptr [rip + __ZN6loguruL16s_needs_flushingE], 1
	jmp	LBB147_30
LBB147_28:
	mov	rax, qword ptr [rip + ___stderrp@GOTPCREL]
	mov	rdi, qword ptr [rax]
	call	_fflush
LBB147_30:
	call	__ZNSt3__16vectorIN6loguru8CallbackENS_9allocatorIS2_EEE5beginEv
	mov	qword ptr [rbp - 56], rax
	call	__ZNSt3__16vectorIN6loguru8CallbackENS_9allocatorIS2_EEE3endEv
	mov	qword ptr [rbp - 48], rax
	lea	rdi, [rbp - 56]
	lea	rsi, [rbp - 48]
	call	__ZNSt3__1neIPN6loguru8CallbackEEEbRKNS_11__wrap_iterIT_EES8_
	test	al, al
	je	LBB147_39

	lea	rbx, [rbp - 56]
	lea	r13, [rbp - 48]
	jmp	LBB147_32
	.p2align	4, 0x90
LBB147_55:                              
	mov	byte ptr [rip + __ZN6loguruL16s_needs_flushingE], 1
LBB147_56:                              
	mov	rdi, rbx
	call	__ZNSt3__111__wrap_iterIPN6loguru8CallbackEEppEv
	mov	rdi, rbx
	mov	rsi, r13
	call	__ZNSt3__1neIPN6loguru8CallbackEEEbRKNS_11__wrap_iterIT_EES8_
	test	al, al
	je	LBB147_39
LBB147_32:                              
	mov	rdi, rbx
	call	__ZNKSt3__111__wrap_iterIPN6loguru8CallbackEEdeEv
	cmp	r15d, dword ptr [rax + 40]
	jg	LBB147_56

	mov	r14, rax
	cmp	byte ptr [rbp - 60], 0  
	je	LBB147_35

	mov	edi, dword ptr [r14 + 64]
	call	__ZN6loguruL11indentationEj
	mov	qword ptr [r12 + 32], rax
LBB147_35:                              
	mov	rdi, qword ptr [r14 + 32]
Ltmp187:
	mov	rsi, r12
	call	qword ptr [r14 + 24]
Ltmp188:

	cmp	dword ptr [rip + __ZN6loguru19g_flush_interval_msE], 0
	jne	LBB147_55

	mov	rax, qword ptr [r14 + 56]
	test	rax, rax
	je	LBB147_56

	mov	rdi, qword ptr [r14 + 32]
Ltmp189:
	call	rax
Ltmp190:
	jmp	LBB147_56
LBB147_39:
	cmp	dword ptr [rip + __ZN6loguru19g_flush_interval_msE], 0
	je	LBB147_44

	cmp	qword ptr [rip + __ZN6loguruL14s_flush_threadE], 0
	jne	LBB147_44

Ltmp192:
	mov	edi, 8
	call	__Znwm
Ltmp193:

	mov	rbx, rax
Ltmp194:
	mov	rdi, rax
	call	__ZNSt3__16threadC1IZN6loguruL11log_messageEiRNS2_7MessageEbbE3$_4JEvEEOT_DpOT0_
Ltmp195:

	mov	qword ptr [rip + __ZN6loguruL14s_flush_threadE], rbx
LBB147_44:
	cmp	dword ptr [r12], -3
	jne	LBB147_58

Ltmp197:
	call	__ZN6loguru5flushEv
Ltmp198:

	mov	rax, qword ptr [rip + __ZN6loguruL15s_fatal_handlerE]
	test	rax, rax
	je	LBB147_49

Ltmp199:
	mov	rdi, r12
	call	rax
Ltmp200:

Ltmp201:
	call	__ZN6loguru5flushEv
Ltmp202:
LBB147_49:
	cmp	byte ptr [rbp - 64], 0  
	jne	LBB147_50
LBB147_58:
	lea	rdi, [rbp - 72]
	call	__ZNSt3__110lock_guardINS_15recursive_mutexEED1Ev
	add	rsp, 72
	pop	rbx
	pop	r12
	pop	r13
	pop	r14
	pop	r15
	pop	rbp
	ret
LBB147_50:
	cmp	byte ptr [rip + __ZN6loguruL16s_signal_optionsE+1], 0
	je	LBB147_52

Ltmp203:
	mov	edi, 6
	xor	esi, esi
	call	_signal
Ltmp204:
LBB147_52:
Ltmp205:
	call	_abort
Ltmp206:

	ud2
LBB147_63:
Ltmp186:
	mov	r14, rax
	lea	rdi, [rbp - 48]
	call	__ZN6loguru4TextD1Ev
	jmp	LBB147_19
LBB147_62:
Ltmp180:
	jmp	LBB147_18
LBB147_57:
Ltmp196:
	mov	r14, rax
	mov	rdi, rbx
	call	__ZdlPv
	jmp	LBB147_61
LBB147_17:
Ltmp183:
LBB147_18:
	mov	r14, rax
LBB147_19:
	lea	rdi, [rbp - 56]
	call	__ZN6loguru4TextD1Ev
	jmp	LBB147_61
LBB147_59:
Ltmp177:
	jmp	LBB147_60
LBB147_20:
Ltmp207:
	jmp	LBB147_60
LBB147_54:
Ltmp191:
LBB147_60:
	mov	r14, rax
LBB147_61:
	lea	rdi, [rbp - 72]
	call	__ZNSt3__110lock_guardINS_15recursive_mutexEED1Ev
	mov	rdi, r14
	call	__Unwind_Resume
	ud2
Lfunc_end18:
	.cfi_endproc
	.section	__TEXT,__gcc_except_tab
	.p2align	2
GCC_except_table147:
Lexception18:
	.byte	255                     
	.byte	255                     
	.byte	1                       
	.uleb128 Lcst_end18-Lcst_begin18
Lcst_begin18:
	.uleb128 Lfunc_begin18-Lfunc_begin18 
	.uleb128 Ltmp175-Lfunc_begin18  
	.byte	0                       
	.byte	0                       
	.uleb128 Ltmp175-Lfunc_begin18  
	.uleb128 Ltmp176-Ltmp175        
	.uleb128 Ltmp177-Lfunc_begin18  
	.byte	0                       
	.uleb128 Ltmp178-Lfunc_begin18  
	.uleb128 Ltmp179-Ltmp178        
	.uleb128 Ltmp180-Lfunc_begin18  
	.byte	0                       
	.uleb128 Ltmp181-Lfunc_begin18  
	.uleb128 Ltmp182-Ltmp181        
	.uleb128 Ltmp183-Lfunc_begin18  
	.byte	0                       
	.uleb128 Ltmp184-Lfunc_begin18  
	.uleb128 Ltmp185-Ltmp184        
	.uleb128 Ltmp186-Lfunc_begin18  
	.byte	0                       
	.uleb128 Ltmp187-Lfunc_begin18  
	.uleb128 Ltmp190-Ltmp187        
	.uleb128 Ltmp191-Lfunc_begin18  
	.byte	0                       
	.uleb128 Ltmp192-Lfunc_begin18  
	.uleb128 Ltmp193-Ltmp192        
	.uleb128 Ltmp207-Lfunc_begin18  
	.byte	0                       
	.uleb128 Ltmp194-Lfunc_begin18  
	.uleb128 Ltmp195-Ltmp194        
	.uleb128 Ltmp196-Lfunc_begin18  
	.byte	0                       
	.uleb128 Ltmp197-Lfunc_begin18  
	.uleb128 Ltmp206-Ltmp197        
	.uleb128 Ltmp207-Lfunc_begin18  
	.byte	0                       
	.uleb128 Ltmp206-Lfunc_begin18  
	.uleb128 Lfunc_end18-Ltmp206    
	.byte	0                       
	.byte	0                       
Lcst_end18:
	.p2align	2
                                        
	.section	__TEXT,__text,regular,pure_instructions
	.globl	__ZN6loguru7raw_logEiPKcjS1_z 
	.p2align	4, 0x90
__ZN6loguru7raw_logEiPKcjS1_z:          
Lfunc_begin19:
	.cfi_startproc
	.cfi_personality 155, ___gxx_personality_v0
	.cfi_lsda 16, Lexception19

	push	rbp
	.cfi_def_cfa_offset 16
	.cfi_offset rbp, -16
	mov	rbp, rsp
	.cfi_def_cfa_register rbp
	push	r15
	push	r14
	push	r12
	push	rbx
	sub	rsp, 272
	.cfi_offset rbx, -48
	.cfi_offset r12, -40
	.cfi_offset r14, -32
	.cfi_offset r15, -24
	mov	r14d, edx
	mov	r15, rsi
	mov	r12d, edi
	test	al, al
	je	LBB148_2

	movaps	xmmword ptr [rbp - 256], xmm0
	movaps	xmmword ptr [rbp - 240], xmm1
	movaps	xmmword ptr [rbp - 224], xmm2
	movaps	xmmword ptr [rbp - 208], xmm3
	movaps	xmmword ptr [rbp - 192], xmm4
	movaps	xmmword ptr [rbp - 176], xmm5
	movaps	xmmword ptr [rbp - 160], xmm6
	movaps	xmmword ptr [rbp - 144], xmm7
LBB148_2:
	mov	qword ptr [rbp - 272], r8
	mov	qword ptr [rbp - 264], r9
	mov	rax, qword ptr [rip + ___stack_chk_guard@GOTPCREL]
	mov	rax, qword ptr [rax]
	mov	qword ptr [rbp - 40], rax
	lea	rax, [rbp - 304]
	mov	qword ptr [rbp - 48], rax
	lea	rax, [rbp + 16]
	mov	qword ptr [rbp - 56], rax
	movabs	rax, 206158430240
	mov	qword ptr [rbp - 64], rax
	lea	rbx, [rbp - 72]
	lea	rdx, [rbp - 64]
	mov	rdi, rbx
	mov	rsi, rcx
	call	__ZN6loguruL11vtextprintfEPKcP13__va_list_tag
	mov	dword ptr [rbp - 128], r12d
	mov	qword ptr [rbp - 120], r15
	mov	dword ptr [rbp - 112], r14d
	lea	rax, [rip + L_.str.8]
	mov	qword ptr [rbp - 104], rax
	mov	qword ptr [rbp - 96], rax
	mov	qword ptr [rbp - 88], rax
	mov	rdi, rbx
	call	__ZNK6loguru4Text5c_strEv
	mov	qword ptr [rbp - 80], rax
Ltmp208:
	lea	rsi, [rbp - 128]
	mov	edi, 1
	xor	edx, edx
	mov	ecx, 1
	call	__ZN6loguruL11log_messageEiRNS_7MessageEbb
Ltmp209:

	lea	rdi, [rbp - 72]
	call	__ZN6loguru4TextD1Ev
	mov	rax, qword ptr [rip + ___stack_chk_guard@GOTPCREL]
	mov	rax, qword ptr [rax]
	cmp	rax, qword ptr [rbp - 40]
	jne	LBB148_6

	add	rsp, 272
	pop	rbx
	pop	r12
	pop	r14
	pop	r15
	pop	rbp
	ret
LBB148_6:
	call	___stack_chk_fail
LBB148_5:
Ltmp210:
	mov	rbx, rax
	lea	rdi, [rbp - 72]
	call	__ZN6loguru4TextD1Ev
	mov	rdi, rbx
	call	__Unwind_Resume
	ud2
Lfunc_end19:
	.cfi_endproc
	.section	__TEXT,__gcc_except_tab
	.p2align	2
GCC_except_table148:
Lexception19:
	.byte	255                     
	.byte	255                     
	.byte	1                       
	.uleb128 Lcst_end19-Lcst_begin19
Lcst_begin19:
	.uleb128 Lfunc_begin19-Lfunc_begin19 
	.uleb128 Ltmp208-Lfunc_begin19  
	.byte	0                       
	.byte	0                       
	.uleb128 Ltmp208-Lfunc_begin19  
	.uleb128 Ltmp209-Ltmp208        
	.uleb128 Ltmp210-Lfunc_begin19  
	.byte	0                       
	.uleb128 Ltmp209-Lfunc_begin19  
	.uleb128 Lfunc_end19-Ltmp209    
	.byte	0                       
	.byte	0                       
Lcst_end19:
	.p2align	2
                                        
	.section	__TEXT,__text,regular,pure_instructions
	.globl	__ZN6loguru5flushEv     
	.p2align	4, 0x90
__ZN6loguru5flushEv:                    
Lfunc_begin20:
	.cfi_startproc
	.cfi_personality 155, ___gxx_personality_v0
	.cfi_lsda 16, Lexception20

	push	rbp
	.cfi_def_cfa_offset 16
	.cfi_offset rbp, -16
	mov	rbp, rsp
	.cfi_def_cfa_register rbp
	push	r14
	push	rbx
	sub	rsp, 32
	.cfi_offset rbx, -32
	.cfi_offset r14, -24
	lea	rdi, [rbp - 40]
	call	__ZNSt3__110lock_guardINS_15recursive_mutexEEC1ERS1_
	mov	rax, qword ptr [rip + ___stderrp@GOTPCREL]
	mov	rdi, qword ptr [rax]
	call	_fflush
	call	__ZNSt3__16vectorIN6loguru8CallbackENS_9allocatorIS2_EEE5beginEv
	mov	qword ptr [rbp - 32], rax
	call	__ZNSt3__16vectorIN6loguru8CallbackENS_9allocatorIS2_EEE3endEv
	mov	qword ptr [rbp - 24], rax
	lea	rdi, [rbp - 32]
	lea	rsi, [rbp - 24]
	call	__ZNSt3__1neIPN6loguru8CallbackEEEbRKNS_11__wrap_iterIT_EES8_
	test	al, al
	je	LBB149_5

	lea	rbx, [rbp - 32]
	lea	r14, [rbp - 24]
	jmp	LBB149_2
	.p2align	4, 0x90
LBB149_4:                               
	mov	rdi, rbx
	call	__ZNSt3__111__wrap_iterIPN6loguru8CallbackEEppEv
	mov	rdi, rbx
	mov	rsi, r14
	call	__ZNSt3__1neIPN6loguru8CallbackEEEbRKNS_11__wrap_iterIT_EES8_
	test	al, al
	je	LBB149_5
LBB149_2:                               
	mov	rdi, rbx
	call	__ZNKSt3__111__wrap_iterIPN6loguru8CallbackEEdeEv
	mov	rcx, qword ptr [rax + 56]
	test	rcx, rcx
	je	LBB149_4

	mov	rdi, qword ptr [rax + 32]
Ltmp211:
	call	rcx
Ltmp212:
	jmp	LBB149_4
LBB149_5:
	mov	byte ptr [rip + __ZN6loguruL16s_needs_flushingE], 0
	lea	rdi, [rbp - 40]
	call	__ZNSt3__110lock_guardINS_15recursive_mutexEED1Ev
	add	rsp, 32
	pop	rbx
	pop	r14
	pop	rbp
	ret
LBB149_6:
Ltmp213:
	mov	rbx, rax
	lea	rdi, [rbp - 40]
	call	__ZNSt3__110lock_guardINS_15recursive_mutexEED1Ev
	mov	rdi, rbx
	call	__Unwind_Resume
	ud2
Lfunc_end20:
	.cfi_endproc
	.section	__TEXT,__gcc_except_tab
	.p2align	2
GCC_except_table149:
Lexception20:
	.byte	255                     
	.byte	255                     
	.byte	1                       
	.uleb128 Lcst_end20-Lcst_begin20
Lcst_begin20:
	.uleb128 Lfunc_begin20-Lfunc_begin20 
	.uleb128 Ltmp211-Lfunc_begin20  
	.byte	0                       
	.byte	0                       
	.uleb128 Ltmp211-Lfunc_begin20  
	.uleb128 Ltmp212-Ltmp211        
	.uleb128 Ltmp213-Lfunc_begin20  
	.byte	0                       
	.uleb128 Ltmp212-Lfunc_begin20  
	.uleb128 Lfunc_end20-Ltmp212    
	.byte	0                       
	.byte	0                       
Lcst_end20:
	.p2align	2
                                        
	.section	__TEXT,__text,regular,pure_instructions
	.globl	__ZN6loguru12LogScopeRAIIC2EiPKcjS2_z 
	.p2align	4, 0x90
__ZN6loguru12LogScopeRAIIC2EiPKcjS2_z:  
Lfunc_begin21:
	.cfi_startproc
	.cfi_personality 155, ___gxx_personality_v0
	.cfi_lsda 16, Lexception21

	push	rbp
	.cfi_def_cfa_offset 16
	.cfi_offset rbp, -16
	mov	rbp, rsp
	.cfi_def_cfa_register rbp
	push	r15
	push	r14
	push	r13
	push	r12
	push	rbx
	sub	rsp, 248
	.cfi_offset rbx, -56
	.cfi_offset r12, -48
	.cfi_offset r13, -40
	.cfi_offset r14, -32
	.cfi_offset r15, -24
	mov	rbx, r8
	mov	r15d, ecx
	mov	r12, rdx
	mov	r13d, esi
	mov	r14, rdi
	test	al, al
	je	LBB150_2

	movaps	xmmword ptr [rbp - 240], xmm0
	movaps	xmmword ptr [rbp - 224], xmm1
	movaps	xmmword ptr [rbp - 208], xmm2
	movaps	xmmword ptr [rbp - 192], xmm3
	movaps	xmmword ptr [rbp - 176], xmm4
	movaps	xmmword ptr [rbp - 160], xmm5
	movaps	xmmword ptr [rbp - 144], xmm6
	movaps	xmmword ptr [rbp - 128], xmm7
LBB150_2:
	mov	qword ptr [rbp - 248], r9
	mov	rax, qword ptr [rip + ___stack_chk_guard@GOTPCREL]
	mov	rax, qword ptr [rax]
	mov	qword ptr [rbp - 48], rax
	mov	dword ptr [r14], r13d
	mov	qword ptr [r14 + 8], r12
	mov	dword ptr [r14 + 16], r15d
	call	__ZN6loguru24current_verbosity_cutoffEv
	cmp	eax, r13d
	jge	LBB150_3

	mov	qword ptr [r14 + 8], 0
	jmp	LBB150_13
LBB150_3:
	lea	rdi, [rbp - 104]
	call	__ZNSt3__110lock_guardINS_15recursive_mutexEEC1ERS1_
	cmp	dword ptr [rip + __ZN6loguru18g_stderr_verbosityE], r13d
	setge	byte ptr [r14 + 20]
	call	__ZN6loguruL6now_nsEv
	mov	qword ptr [r14 + 24], rax
	lea	rax, [rbp - 288]
	mov	qword ptr [rbp - 64], rax
	lea	rax, [rbp + 16]
	mov	qword ptr [rbp - 72], rax
	movabs	rax, 206158430248
	mov	qword ptr [rbp - 80], rax
	mov	rdx, rbx
	lea	rbx, [r14 + 32]
	lea	rcx, [rbp - 80]
	mov	esi, 196
	mov	rdi, rbx
	call	_vsnprintf
	mov	esi, dword ptr [r14]
Ltmp214:
	lea	r8, [rip + L_.str.102]
	mov	edi, 1
	mov	rdx, r12
	mov	ecx, r15d
	mov	r9, rbx
	call	__ZN6loguru17log_to_everywhereEiiPKcjS1_S1_
Ltmp215:

	cmp	byte ptr [r14 + 20], 0
	je	LBB150_6

	call	__ZNSt3__113__atomic_baseIjLb1EEppEv
LBB150_6:
	call	__ZNSt3__16vectorIN6loguru8CallbackENS_9allocatorIS2_EEE5beginEv
	mov	qword ptr [rbp - 96], rax
	call	__ZNSt3__16vectorIN6loguru8CallbackENS_9allocatorIS2_EEE3endEv
	mov	qword ptr [rbp - 88], rax
	lea	rdi, [rbp - 96]
	lea	rsi, [rbp - 88]
	call	__ZNSt3__1neIPN6loguru8CallbackEEEbRKNS_11__wrap_iterIT_EES8_
	test	al, al
	je	LBB150_11

	lea	rbx, [rbp - 96]
	lea	r14, [rbp - 88]
	jmp	LBB150_8
	.p2align	4, 0x90
LBB150_10:                              
	mov	rdi, rbx
	call	__ZNSt3__111__wrap_iterIPN6loguru8CallbackEEppEv
	mov	rdi, rbx
	mov	rsi, r14
	call	__ZNSt3__1neIPN6loguru8CallbackEEEbRKNS_11__wrap_iterIT_EES8_
	test	al, al
	je	LBB150_11
LBB150_8:                               
	mov	rdi, rbx
	call	__ZNKSt3__111__wrap_iterIPN6loguru8CallbackEEdeEv
	cmp	dword ptr [rax + 40], r13d
	jl	LBB150_10

	inc	dword ptr [rax + 64]
	jmp	LBB150_10
LBB150_11:
	lea	rdi, [rbp - 104]
	call	__ZNSt3__110lock_guardINS_15recursive_mutexEED1Ev
LBB150_13:
	mov	rax, qword ptr [rip + ___stack_chk_guard@GOTPCREL]
	mov	rax, qword ptr [rax]
	cmp	rax, qword ptr [rbp - 48]
	jne	LBB150_16

	add	rsp, 248
	pop	rbx
	pop	r12
	pop	r13
	pop	r14
	pop	r15
	pop	rbp
	ret
LBB150_16:
	call	___stack_chk_fail
LBB150_15:
Ltmp216:
	mov	rbx, rax
	lea	rdi, [rbp - 104]
	call	__ZNSt3__110lock_guardINS_15recursive_mutexEED1Ev
	mov	rdi, rbx
	call	__Unwind_Resume
	ud2
Lfunc_end21:
	.cfi_endproc
	.section	__TEXT,__gcc_except_tab
	.p2align	2
GCC_except_table150:
Lexception21:
	.byte	255                     
	.byte	255                     
	.byte	1                       
	.uleb128 Lcst_end21-Lcst_begin21
Lcst_begin21:
	.uleb128 Lfunc_begin21-Lfunc_begin21 
	.uleb128 Ltmp214-Lfunc_begin21  
	.byte	0                       
	.byte	0                       
	.uleb128 Ltmp214-Lfunc_begin21  
	.uleb128 Ltmp215-Ltmp214        
	.uleb128 Ltmp216-Lfunc_begin21  
	.byte	0                       
	.uleb128 Ltmp215-Lfunc_begin21  
	.uleb128 Lfunc_end21-Ltmp215    
	.byte	0                       
	.byte	0                       
Lcst_end21:
	.p2align	2
                                        
	.section	__TEXT,__text,regular,pure_instructions
	.p2align	4, 0x90         
__ZN6loguruL6now_nsEv:                  

	push	rbp
	mov	rbp, rsp
	sub	rsp, 32
	call	__ZNSt3__16chrono12steady_clock3nowEv
	mov	qword ptr [rbp - 8], rax
	lea	rdi, [rbp - 8]
	call	__ZNKSt3__16chrono10time_pointINS0_12steady_clockENS0_8durationIxNS_5ratioILl1ELl1000000000EEEEEE16time_since_epochEv
	mov	qword ptr [rbp - 16], rax
	lea	rdi, [rbp - 16]
	call	__ZNSt3__16chronoL13duration_castINS0_8durationIxNS_5ratioILl1ELl1000000000EEEEExS4_EENS_9enable_ifIXsr13__is_durationIT_EE5valueES7_E4typeERKNS2_IT0_T1_EE
	mov	qword ptr [rbp - 24], rax
	lea	rdi, [rbp - 24]
	call	__ZNKSt3__16chrono8durationIxNS_5ratioILl1ELl1000000000EEEE5countEv
	add	rsp, 32
	pop	rbp
	ret
                                        
	.p2align	4, 0x90         
__ZNSt3__113__atomic_baseIjLb1EEppEv:   

	push	rbp
	mov	rbp, rsp
	call	__ZNSt3__113__atomic_baseIjLb1EE9fetch_addEjNS_12memory_orderE
	pop	rbp
	ret
                                        
	.globl	__ZN6loguru12LogScopeRAIIC1EiPKcjS2_z 
	.p2align	4, 0x90
__ZN6loguru12LogScopeRAIIC1EiPKcjS2_z:  
Lfunc_begin22:
	.cfi_startproc
	.cfi_personality 155, ___gxx_personality_v0
	.cfi_lsda 16, Lexception22

	push	rbp
	.cfi_def_cfa_offset 16
	.cfi_offset rbp, -16
	mov	rbp, rsp
	.cfi_def_cfa_register rbp
	push	r15
	push	r14
	push	r13
	push	r12
	push	rbx
	sub	rsp, 248
	.cfi_offset rbx, -56
	.cfi_offset r12, -48
	.cfi_offset r13, -40
	.cfi_offset r14, -32
	.cfi_offset r15, -24
	mov	rbx, r8
	mov	r15d, ecx
	mov	r12, rdx
	mov	r13d, esi
	mov	r14, rdi
	test	al, al
	je	LBB153_2

	movaps	xmmword ptr [rbp - 240], xmm0
	movaps	xmmword ptr [rbp - 224], xmm1
	movaps	xmmword ptr [rbp - 208], xmm2
	movaps	xmmword ptr [rbp - 192], xmm3
	movaps	xmmword ptr [rbp - 176], xmm4
	movaps	xmmword ptr [rbp - 160], xmm5
	movaps	xmmword ptr [rbp - 144], xmm6
	movaps	xmmword ptr [rbp - 128], xmm7
LBB153_2:
	mov	qword ptr [rbp - 248], r9
	mov	rax, qword ptr [rip + ___stack_chk_guard@GOTPCREL]
	mov	rax, qword ptr [rax]
	mov	qword ptr [rbp - 48], rax
	mov	dword ptr [r14], r13d
	mov	qword ptr [r14 + 8], r12
	mov	dword ptr [r14 + 16], r15d
	call	__ZN6loguru24current_verbosity_cutoffEv
	cmp	eax, r13d
	jge	LBB153_3

	mov	qword ptr [r14 + 8], 0
	jmp	LBB153_13
LBB153_3:
	lea	rdi, [rbp - 104]
	call	__ZNSt3__110lock_guardINS_15recursive_mutexEEC1ERS1_
	cmp	dword ptr [rip + __ZN6loguru18g_stderr_verbosityE], r13d
	setge	byte ptr [r14 + 20]
	call	__ZN6loguruL6now_nsEv
	mov	qword ptr [r14 + 24], rax
	lea	rax, [rbp - 288]
	mov	qword ptr [rbp - 64], rax
	lea	rax, [rbp + 16]
	mov	qword ptr [rbp - 72], rax
	movabs	rax, 206158430248
	mov	qword ptr [rbp - 80], rax
	mov	rdx, rbx
	lea	rbx, [r14 + 32]
	lea	rcx, [rbp - 80]
	mov	esi, 196
	mov	rdi, rbx
	call	_vsnprintf
	mov	esi, dword ptr [r14]
Ltmp217:
	lea	r8, [rip + L_.str.102]
	mov	edi, 1
	mov	rdx, r12
	mov	ecx, r15d
	mov	r9, rbx
	call	__ZN6loguru17log_to_everywhereEiiPKcjS1_S1_
Ltmp218:

	cmp	byte ptr [r14 + 20], 0
	je	LBB153_6

	call	__ZNSt3__113__atomic_baseIjLb1EEppEv
LBB153_6:
	call	__ZNSt3__16vectorIN6loguru8CallbackENS_9allocatorIS2_EEE5beginEv
	mov	qword ptr [rbp - 96], rax
	call	__ZNSt3__16vectorIN6loguru8CallbackENS_9allocatorIS2_EEE3endEv
	mov	qword ptr [rbp - 88], rax
	lea	rdi, [rbp - 96]
	lea	rsi, [rbp - 88]
	call	__ZNSt3__1neIPN6loguru8CallbackEEEbRKNS_11__wrap_iterIT_EES8_
	test	al, al
	je	LBB153_11

	lea	rbx, [rbp - 96]
	lea	r14, [rbp - 88]
	jmp	LBB153_8
	.p2align	4, 0x90
LBB153_10:                              
	mov	rdi, rbx
	call	__ZNSt3__111__wrap_iterIPN6loguru8CallbackEEppEv
	mov	rdi, rbx
	mov	rsi, r14
	call	__ZNSt3__1neIPN6loguru8CallbackEEEbRKNS_11__wrap_iterIT_EES8_
	test	al, al
	je	LBB153_11
LBB153_8:                               
	mov	rdi, rbx
	call	__ZNKSt3__111__wrap_iterIPN6loguru8CallbackEEdeEv
	cmp	dword ptr [rax + 40], r13d
	jl	LBB153_10

	inc	dword ptr [rax + 64]
	jmp	LBB153_10
LBB153_11:
	lea	rdi, [rbp - 104]
	call	__ZNSt3__110lock_guardINS_15recursive_mutexEED1Ev
LBB153_13:
	mov	rax, qword ptr [rip + ___stack_chk_guard@GOTPCREL]
	mov	rax, qword ptr [rax]
	cmp	rax, qword ptr [rbp - 48]
	jne	LBB153_16

	add	rsp, 248
	pop	rbx
	pop	r12
	pop	r13
	pop	r14
	pop	r15
	pop	rbp
	ret
LBB153_16:
	call	___stack_chk_fail
LBB153_15:
Ltmp219:
	mov	rbx, rax
	lea	rdi, [rbp - 104]
	call	__ZNSt3__110lock_guardINS_15recursive_mutexEED1Ev
	mov	rdi, rbx
	call	__Unwind_Resume
	ud2
Lfunc_end22:
	.cfi_endproc
	.section	__TEXT,__gcc_except_tab
	.p2align	2
GCC_except_table153:
Lexception22:
	.byte	255                     
	.byte	255                     
	.byte	1                       
	.uleb128 Lcst_end22-Lcst_begin22
Lcst_begin22:
	.uleb128 Lfunc_begin22-Lfunc_begin22 
	.uleb128 Ltmp217-Lfunc_begin22  
	.byte	0                       
	.byte	0                       
	.uleb128 Ltmp217-Lfunc_begin22  
	.uleb128 Ltmp218-Ltmp217        
	.uleb128 Ltmp219-Lfunc_begin22  
	.byte	0                       
	.uleb128 Ltmp218-Lfunc_begin22  
	.uleb128 Lfunc_end22-Ltmp218    
	.byte	0                       
	.byte	0                       
Lcst_end22:
	.p2align	2
                                        
	.section	__TEXT,__literal8,8byte_literals
	.p2align	3               
LCPI154_0:
	.quad	4741671816366391296     
	.section	__TEXT,__text,regular,pure_instructions
	.globl	__ZN6loguru12LogScopeRAIID2Ev
	.p2align	4, 0x90
__ZN6loguru12LogScopeRAIID2Ev:          
Lfunc_begin23:
	.cfi_startproc
	.cfi_personality 155, ___gxx_personality_v0
	.cfi_lsda 16, Lexception23

	push	rbp
	.cfi_def_cfa_offset 16
	.cfi_offset rbp, -16
	mov	rbp, rsp
	.cfi_def_cfa_register rbp
	push	r15
	push	r14
	push	rbx
	sub	rsp, 24
	.cfi_offset rbx, -40
	.cfi_offset r14, -32
	.cfi_offset r15, -24
	cmp	qword ptr [rdi + 8], 0
	je	LBB154_14

	mov	r14, rdi
Ltmp220:
	lea	rdi, [rbp - 48]
	call	__ZNSt3__110lock_guardINS_15recursive_mutexEEC1ERS1_
Ltmp221:

	cmp	byte ptr [r14 + 20], 0
	je	LBB154_5

	call	__ZNKSt3__113__atomic_baseIjLb0EEcvjEv
	test	eax, eax
	je	LBB154_5

	call	__ZNSt3__113__atomic_baseIjLb1EEmmEv
LBB154_5:
	call	__ZNSt3__16vectorIN6loguru8CallbackENS_9allocatorIS2_EEE5beginEv
	mov	qword ptr [rbp - 32], rax
	call	__ZNSt3__16vectorIN6loguru8CallbackENS_9allocatorIS2_EEE3endEv
	mov	qword ptr [rbp - 40], rax
	lea	rdi, [rbp - 32]
	lea	rsi, [rbp - 40]
	call	__ZNSt3__1neIPN6loguru8CallbackEEEbRKNS_11__wrap_iterIT_EES8_
	test	al, al
	je	LBB154_11

	lea	rbx, [rbp - 32]
	lea	r15, [rbp - 40]
	jmp	LBB154_7
	.p2align	4, 0x90
LBB154_10:                              
	mov	rdi, rbx
	call	__ZNSt3__111__wrap_iterIPN6loguru8CallbackEEppEv
	mov	rdi, rbx
	mov	rsi, r15
	call	__ZNSt3__1neIPN6loguru8CallbackEEEbRKNS_11__wrap_iterIT_EES8_
	test	al, al
	je	LBB154_11
LBB154_7:                               
	mov	rdi, rbx
	call	__ZNKSt3__111__wrap_iterIPN6loguru8CallbackEEdeEv
	mov	ecx, dword ptr [r14]
	cmp	ecx, dword ptr [rax + 40]
	jg	LBB154_10

	mov	ecx, dword ptr [rax + 64]
	test	ecx, ecx
	je	LBB154_10

	dec	ecx
	mov	dword ptr [rax + 64], ecx
	jmp	LBB154_10
LBB154_11:
	call	__ZN6loguruL6now_nsEv
	sub	rax, qword ptr [r14 + 24]
	cvtsi2sd	xmm0, rax
	divsd	xmm0, qword ptr [rip + LCPI154_0]
	lea	rcx, [r14 + 32]
Ltmp223:
	lea	rsi, [rip + L_.str.103]
	lea	rdi, [rbp - 32]
	mov	edx, 3
	mov	al, 1
	call	__ZN6loguru10textprintfEPKcz
Ltmp224:

	mov	ebx, dword ptr [r14]
	mov	r15, qword ptr [r14 + 8]
	mov	r14d, dword ptr [r14 + 16]
	lea	rdi, [rbp - 32]
	call	__ZNK6loguru4Text5c_strEv
Ltmp226:
	lea	r8, [rip + L_.str.104]
	mov	edi, 1
	mov	esi, ebx
	mov	rdx, r15
	mov	ecx, r14d
	mov	r9, rax
	call	__ZN6loguru17log_to_everywhereEiiPKcjS1_S1_
Ltmp227:

	lea	rdi, [rbp - 32]
	call	__ZN6loguru4TextD1Ev
	lea	rdi, [rbp - 48]
	call	__ZNSt3__110lock_guardINS_15recursive_mutexEED1Ev
LBB154_14:
	add	rsp, 24
	pop	rbx
	pop	r14
	pop	r15
	pop	rbp
	ret
LBB154_16:
Ltmp228:
	mov	rbx, rax
	lea	rdi, [rbp - 32]
	call	__ZN6loguru4TextD1Ev
	jmp	LBB154_17
LBB154_15:
Ltmp225:
	mov	rbx, rax
LBB154_17:
	lea	rdi, [rbp - 48]
	call	__ZNSt3__110lock_guardINS_15recursive_mutexEED1Ev
	mov	rdi, rbx
	call	___clang_call_terminate
LBB154_19:
Ltmp222:
	mov	rdi, rax
	call	___clang_call_terminate
Lfunc_end23:
	.cfi_endproc
	.section	__TEXT,__gcc_except_tab
	.p2align	2
GCC_except_table154:
Lexception23:
	.byte	255                     
	.byte	155                     
	.uleb128 Lttbase1-Lttbaseref1
Lttbaseref1:
	.byte	1                       
	.uleb128 Lcst_end23-Lcst_begin23
Lcst_begin23:
	.uleb128 Ltmp220-Lfunc_begin23  
	.uleb128 Ltmp221-Ltmp220        
	.uleb128 Ltmp222-Lfunc_begin23  
	.byte	1                       
	.uleb128 Ltmp223-Lfunc_begin23  
	.uleb128 Ltmp224-Ltmp223        
	.uleb128 Ltmp225-Lfunc_begin23  
	.byte	1                       
	.uleb128 Ltmp226-Lfunc_begin23  
	.uleb128 Ltmp227-Ltmp226        
	.uleb128 Ltmp228-Lfunc_begin23  
	.byte	1                       
Lcst_end23:
	.byte	1                       
                                        
	.byte	0                       
	.p2align	2
                                        
	.long	0                       
Lttbase1:
	.p2align	2
                                        
	.section	__TEXT,__text,regular,pure_instructions
	.p2align	4, 0x90         
__ZNKSt3__113__atomic_baseIjLb0EEcvjEv: 

	push	rbp
	mov	rbp, rsp
	call	__ZNKSt3__113__atomic_baseIjLb0EE4loadENS_12memory_orderE
	pop	rbp
	ret
                                        
	.p2align	4, 0x90         
__ZNSt3__113__atomic_baseIjLb1EEmmEv:   

	push	rbp
	mov	rbp, rsp
	call	__ZNSt3__113__atomic_baseIjLb1EE9fetch_subEjNS_12memory_orderE
	pop	rbp
	ret
                                        
	.globl	__ZN6loguru12LogScopeRAIID1Ev 
	.p2align	4, 0x90
__ZN6loguru12LogScopeRAIID1Ev:          

	push	rbp
	mov	rbp, rsp
	call	__ZN6loguru12LogScopeRAIID2Ev
	pop	rbp
	ret
                                        
	.globl	__ZN6loguru10vstrprintfEPKcP13__va_list_tag 
	.p2align	4, 0x90
__ZN6loguru10vstrprintfEPKcP13__va_list_tag: 
Lfunc_begin24:
	.cfi_startproc
	.cfi_personality 155, ___gxx_personality_v0
	.cfi_lsda 16, Lexception24

	push	rbp
	.cfi_def_cfa_offset 16
	.cfi_offset rbp, -16
	mov	rbp, rsp
	.cfi_def_cfa_register rbp
	push	r14
	push	rbx
	sub	rsp, 16
	.cfi_offset rbx, -32
	.cfi_offset r14, -24
	mov	rbx, rdi
	lea	r14, [rbp - 24]
	mov	rdi, r14
	call	__ZN6loguruL11vtextprintfEPKcP13__va_list_tag
	mov	rdi, r14
	call	__ZNK6loguru4Text5c_strEv
Ltmp229:
	mov	rdi, rbx
	mov	rsi, rax
	call	__ZNSt3__112basic_stringIcNS_11char_traitsIcEENS_9allocatorIcEEEC1IDnEEPKc
Ltmp230:

	lea	rdi, [rbp - 24]
	call	__ZN6loguru4TextD1Ev
	mov	rax, rbx
	add	rsp, 16
	pop	rbx
	pop	r14
	pop	rbp
	ret
LBB158_2:
Ltmp231:
	mov	rbx, rax
	lea	rdi, [rbp - 24]
	call	__ZN6loguru4TextD1Ev
	mov	rdi, rbx
	call	__Unwind_Resume
	ud2
Lfunc_end24:
	.cfi_endproc
	.section	__TEXT,__gcc_except_tab
	.p2align	2
GCC_except_table158:
Lexception24:
	.byte	255                     
	.byte	255                     
	.byte	1                       
	.uleb128 Lcst_end24-Lcst_begin24
Lcst_begin24:
	.uleb128 Lfunc_begin24-Lfunc_begin24 
	.uleb128 Ltmp229-Lfunc_begin24  
	.byte	0                       
	.byte	0                       
	.uleb128 Ltmp229-Lfunc_begin24  
	.uleb128 Ltmp230-Ltmp229        
	.uleb128 Ltmp231-Lfunc_begin24  
	.byte	0                       
	.uleb128 Ltmp230-Lfunc_begin24  
	.uleb128 Lfunc_end24-Ltmp230    
	.byte	0                       
	.byte	0                       
Lcst_end24:
	.p2align	2
                                        
	.section	__TEXT,__text,regular,pure_instructions
	.globl	__ZN6loguru9strprintfEPKcz 
	.p2align	4, 0x90
__ZN6loguru9strprintfEPKcz:             
	.cfi_startproc

	push	rbp
	.cfi_def_cfa_offset 16
	.cfi_offset rbp, -16
	mov	rbp, rsp
	.cfi_def_cfa_register rbp
	push	rbx
	sub	rsp, 216
	.cfi_offset rbx, -24
	mov	rbx, rdi
	test	al, al
	je	LBB159_2

	movaps	xmmword ptr [rbp - 176], xmm0
	movaps	xmmword ptr [rbp - 160], xmm1
	movaps	xmmword ptr [rbp - 144], xmm2
	movaps	xmmword ptr [rbp - 128], xmm3
	movaps	xmmword ptr [rbp - 112], xmm4
	movaps	xmmword ptr [rbp - 96], xmm5
	movaps	xmmword ptr [rbp - 80], xmm6
	movaps	xmmword ptr [rbp - 64], xmm7
LBB159_2:
	mov	qword ptr [rbp - 208], rdx
	mov	qword ptr [rbp - 200], rcx
	mov	qword ptr [rbp - 192], r8
	mov	qword ptr [rbp - 184], r9
	mov	rax, qword ptr [rip + ___stack_chk_guard@GOTPCREL]
	mov	rax, qword ptr [rax]
	mov	qword ptr [rbp - 16], rax
	lea	rax, [rbp - 224]
	mov	qword ptr [rbp - 32], rax
	lea	rax, [rbp + 16]
	mov	qword ptr [rbp - 40], rax
	movabs	rax, 206158430224
	mov	qword ptr [rbp - 48], rax
	lea	rdx, [rbp - 48]
	mov	rdi, rbx
	call	__ZN6loguru10vstrprintfEPKcP13__va_list_tag
	mov	rax, qword ptr [rip + ___stack_chk_guard@GOTPCREL]
	mov	rax, qword ptr [rax]
	cmp	rax, qword ptr [rbp - 16]
	jne	LBB159_4

	mov	rax, rbx
	add	rsp, 216
	pop	rbx
	pop	rbp
	ret
LBB159_4:
	call	___stack_chk_fail
	.cfi_endproc
                                        
	.globl	__ZN6loguru12stream_printERNS_12StringStreamEPKc 
	.p2align	4, 0x90
__ZN6loguru12stream_printERNS_12StringStreamEPKc: 
	.cfi_startproc

	push	rbp
	.cfi_def_cfa_offset 16
	.cfi_offset rbp, -16
	mov	rbp, rsp
	.cfi_def_cfa_register rbp
	call	__ZNSt3__112basic_stringIcNS_11char_traitsIcEENS_9allocatorIcEEEpLEPKc
	pop	rbp
	ret
	.cfi_endproc
                                        
	.globl	__ZN6loguru22get_thread_ec_head_refEv 
	.p2align	4, 0x90
__ZN6loguru22get_thread_ec_head_refEv:  

	push	rbp
	mov	rbp, rsp
	mov	rdi, qword ptr [rip + __ZN6loguruL13thread_ec_ptrE@TLVP]
	call	qword ptr [rdi]
	pop	rbp
	ret
                                        
	.globl	__ZN6loguru20get_thread_ec_handleEv 
	.p2align	4, 0x90
__ZN6loguru20get_thread_ec_handleEv:    

	push	rbp
	mov	rbp, rsp
	mov	rdi, qword ptr [rip + __ZN6loguruL13thread_ec_ptrE@TLVP]
	call	qword ptr [rdi]
	mov	rax, qword ptr [rax]
	pop	rbp
	ret
                                        
	.globl	__ZN6loguru17get_error_contextEv 
	.p2align	4, 0x90
__ZN6loguru17get_error_contextEv:       
	.cfi_startproc

	push	rbp
	.cfi_def_cfa_offset 16
	.cfi_offset rbp, -16
	mov	rbp, rsp
	.cfi_def_cfa_register rbp
	push	rbx
	push	rax
	.cfi_offset rbx, -24
	mov	rbx, rdi
	mov	rdi, qword ptr [rip + __ZN6loguruL13thread_ec_ptrE@TLVP]
	call	qword ptr [rdi]
	mov	rsi, qword ptr [rax]
	mov	rdi, rbx
	call	__ZN6loguru21get_error_context_forEPKNS_11EcEntryBaseE
	mov	rax, rbx
	add	rsp, 8
	pop	rbx
	pop	rbp
	ret
	.cfi_endproc
                                        
	.globl	__ZN6loguru21get_error_context_forEPKNS_11EcEntryBaseE 
	.p2align	4, 0x90
__ZN6loguru21get_error_context_forEPKNS_11EcEntryBaseE: 
Lfunc_begin25:
	.cfi_startproc
	.cfi_personality 155, ___gxx_personality_v0
	.cfi_lsda 16, Lexception25

	push	rbp
	.cfi_def_cfa_offset 16
	.cfi_offset rbp, -16
	mov	rbp, rsp
	.cfi_def_cfa_register rbp
	push	r15
	push	r14
	push	r13
	push	r12
	push	rbx
	sub	rsp, 136
	.cfi_offset rbx, -56
	.cfi_offset r12, -48
	.cfi_offset r13, -40
	.cfi_offset r14, -32
	.cfi_offset r15, -24
	mov	r15, rdi
	mov	qword ptr [rbp - 48], rsi
	lea	rdi, [rbp - 128]
	call	__ZNSt3__16vectorIPKN6loguru11EcEntryBaseENS_9allocatorIS4_EEEC1Ev
	cmp	qword ptr [rbp - 48], 0
	je	LBB164_4

	lea	r14, [rbp - 128]
	lea	rbx, [rbp - 48]
	.p2align	4, 0x90
LBB164_2:                               
Ltmp232:
	mov	rdi, r14
	mov	rsi, rbx
	call	__ZNSt3__16vectorIPKN6loguru11EcEntryBaseENS_9allocatorIS4_EEE9push_backERKS4_
Ltmp233:

	mov	rax, qword ptr [rbp - 48]
	mov	rax, qword ptr [rax + 32]
	mov	qword ptr [rbp - 48], rax
	test	rax, rax
	jne	LBB164_2
LBB164_4:
	lea	r14, [rbp - 128]
	mov	rdi, r14
	call	__ZNSt3__16vectorIPKN6loguru11EcEntryBaseENS_9allocatorIS4_EEE5beginEv
	mov	rbx, rax
	mov	rdi, r14
	call	__ZNSt3__16vectorIPKN6loguru11EcEntryBaseENS_9allocatorIS4_EEE3endEv
	mov	rdi, rbx
	mov	rsi, rax
	call	__ZNSt3__1L7reverseINS_11__wrap_iterIPPKN6loguru11EcEntryBaseEEEEEvT_S8_
	lea	rdi, [rbp - 96]
	call	__ZN6loguru12StringStreamC1Ev
	mov	rdi, r14
	call	__ZNKSt3__16vectorIPKN6loguru11EcEntryBaseENS_9allocatorIS4_EEE5emptyEv
	test	al, al
	jne	LBB164_16

Ltmp235:
	lea	rsi, [rip + L_.str.105]
	lea	rdi, [rbp - 96]
	call	__ZNSt3__112basic_stringIcNS_11char_traitsIcEENS_9allocatorIcEEEpLEPKc
Ltmp236:

	mov	qword ptr [rbp - 104], r15 
	lea	rbx, [rbp - 128]
	mov	rdi, rbx
	call	__ZNSt3__16vectorIPKN6loguru11EcEntryBaseENS_9allocatorIS4_EEE5beginEv
	mov	qword ptr [rbp - 56], rax
	mov	rdi, rbx
	call	__ZNSt3__16vectorIPKN6loguru11EcEntryBaseENS_9allocatorIS4_EEE3endEv
	mov	qword ptr [rbp - 72], rax
	lea	rdi, [rbp - 56]
	lea	rsi, [rbp - 72]
	call	__ZNSt3__1neIPPKN6loguru11EcEntryBaseEEEbRKNS_11__wrap_iterIT_EESA_
	test	al, al
	je	LBB164_15

	lea	rbx, [rbp - 56]
	lea	r15, [rbp - 152]
	lea	r13, [rbp - 176]
	lea	r12, [rbp - 96]
	.p2align	4, 0x90
LBB164_8:                               
	mov	rdi, rbx
	call	__ZNKSt3__111__wrap_iterIPPKN6loguru11EcEntryBaseEEdeEv
	mov	r14, qword ptr [rax]
	mov	rsi, qword ptr [r14 + 24]
Ltmp237:
	mov	rdi, r15
	call	__ZNSt3__112basic_stringIcNS_11char_traitsIcEENS_9allocatorIcEEEC1IDnEEPKc
Ltmp238:

	mov	rbx, r15
Ltmp240:
	mov	rdi, r13
	mov	rsi, r15
	lea	rdx, [rip + L_.str.106]
	call	__ZNSt3__1plIcNS_11char_traitsIcEENS_9allocatorIcEEEENS_12basic_stringIT_T0_T1_EEOS9_PKS6_
Ltmp241:

	mov	rdi, rbx
	call	__ZNSt3__112basic_stringIcNS_11char_traitsIcEENS_9allocatorIcEEED1Ev
	mov	rdi, qword ptr [r14 + 8]
	call	__ZN6loguru8filenameEPKc
	mov	r15, rax
	mov	eax, dword ptr [r14 + 16]
	mov	dword ptr [rbp - 60], eax 
	mov	rdi, r13
	call	__ZNKSt3__112basic_stringIcNS_11char_traitsIcEENS_9allocatorIcEEE5c_strEv
Ltmp243:
	mov	rdi, rbx
	lea	rsi, [rip + L_.str.107]
	mov	edx, 23
	mov	rcx, r15
	mov	r8d, dword ptr [rbp - 60] 
	mov	r9, rax
	xor	eax, eax
	call	__ZN6loguru10textprintfEPKcz
Ltmp244:

	mov	rdi, rbx
	call	__ZNK6loguru4Text5c_strEv
Ltmp246:
	mov	rdi, r12
	mov	rsi, rax
	call	__ZNSt3__112basic_stringIcNS_11char_traitsIcEENS_9allocatorIcEEEpLEPKc
Ltmp247:

	mov	rax, qword ptr [r14]
Ltmp248:
	mov	rdi, r14
	mov	rsi, r12
	call	qword ptr [rax]
Ltmp249:

Ltmp250:
	mov	rdi, r12
	lea	rsi, [rip + L_.str.108]
	call	__ZNSt3__112basic_stringIcNS_11char_traitsIcEENS_9allocatorIcEEEpLEPKc
Ltmp251:

	mov	rdi, rbx
	call	__ZN6loguru4TextD1Ev
	lea	r13, [rbp - 176]
	mov	rdi, r13
	call	__ZNSt3__112basic_stringIcNS_11char_traitsIcEENS_9allocatorIcEEED1Ev
	mov	r15, rbx
	lea	rbx, [rbp - 56]
	mov	rdi, rbx
	call	__ZNSt3__111__wrap_iterIPPKN6loguru11EcEntryBaseEEppEv
	mov	rdi, rbx
	lea	rsi, [rbp - 72]
	call	__ZNSt3__1neIPPKN6loguru11EcEntryBaseEEEbRKNS_11__wrap_iterIT_EESA_
	test	al, al
	jne	LBB164_8
LBB164_15:
Ltmp253:
	lea	rsi, [rip + L_.str.109]
	lea	rdi, [rbp - 96]
	call	__ZNSt3__112basic_stringIcNS_11char_traitsIcEENS_9allocatorIcEEEpLEPKc
Ltmp254:
	mov	r15, qword ptr [rbp - 104] 
LBB164_16:
	lea	rdi, [rbp - 96]
	call	__ZNKSt3__112basic_stringIcNS_11char_traitsIcEENS_9allocatorIcEEE5c_strEv
	mov	rdi, rax
	call	_strdup
Ltmp255:
	mov	rdi, r15
	mov	rsi, rax
	call	__ZN6loguru4TextC1EPc
Ltmp256:

	lea	rdi, [rbp - 96]
	call	__ZN6loguru12StringStreamD1Ev
	lea	rdi, [rbp - 128]
	call	__ZNSt3__16vectorIPKN6loguru11EcEntryBaseENS_9allocatorIS4_EEED1Ev
	mov	rax, r15
	add	rsp, 136
	pop	rbx
	pop	r12
	pop	r13
	pop	r14
	pop	r15
	pop	rbp
	ret
LBB164_18:
Ltmp257:
	jmp	LBB164_22
LBB164_19:
Ltmp245:
	mov	rbx, rax
	jmp	LBB164_25
LBB164_20:
Ltmp242:
	mov	rbx, rax
	lea	rdi, [rbp - 152]
	jmp	LBB164_26
LBB164_21:
Ltmp239:
LBB164_22:
	mov	rbx, rax
	jmp	LBB164_27
LBB164_23:
Ltmp234:
	mov	rbx, rax
	jmp	LBB164_28
LBB164_24:
Ltmp252:
	mov	rbx, rax
	lea	rdi, [rbp - 152]
	call	__ZN6loguru4TextD1Ev
LBB164_25:
	lea	rdi, [rbp - 176]
LBB164_26:
	call	__ZNSt3__112basic_stringIcNS_11char_traitsIcEENS_9allocatorIcEEED1Ev
LBB164_27:
	lea	rdi, [rbp - 96]
	call	__ZN6loguru12StringStreamD1Ev
LBB164_28:
	lea	rdi, [rbp - 128]
	call	__ZNSt3__16vectorIPKN6loguru11EcEntryBaseENS_9allocatorIS4_EEED1Ev
	mov	rdi, rbx
	call	__Unwind_Resume
	ud2
Lfunc_end25:
	.cfi_endproc
	.section	__TEXT,__gcc_except_tab
	.p2align	2
GCC_except_table164:
Lexception25:
	.byte	255                     
	.byte	255                     
	.byte	1                       
	.uleb128 Lcst_end25-Lcst_begin25
Lcst_begin25:
	.uleb128 Ltmp232-Lfunc_begin25  
	.uleb128 Ltmp233-Ltmp232        
	.uleb128 Ltmp234-Lfunc_begin25  
	.byte	0                       
	.uleb128 Ltmp235-Lfunc_begin25  
	.uleb128 Ltmp236-Ltmp235        
	.uleb128 Ltmp257-Lfunc_begin25  
	.byte	0                       
	.uleb128 Ltmp237-Lfunc_begin25  
	.uleb128 Ltmp238-Ltmp237        
	.uleb128 Ltmp239-Lfunc_begin25  
	.byte	0                       
	.uleb128 Ltmp240-Lfunc_begin25  
	.uleb128 Ltmp241-Ltmp240        
	.uleb128 Ltmp242-Lfunc_begin25  
	.byte	0                       
	.uleb128 Ltmp243-Lfunc_begin25  
	.uleb128 Ltmp244-Ltmp243        
	.uleb128 Ltmp245-Lfunc_begin25  
	.byte	0                       
	.uleb128 Ltmp246-Lfunc_begin25  
	.uleb128 Ltmp251-Ltmp246        
	.uleb128 Ltmp252-Lfunc_begin25  
	.byte	0                       
	.uleb128 Ltmp253-Lfunc_begin25  
	.uleb128 Ltmp256-Ltmp253        
	.uleb128 Ltmp257-Lfunc_begin25  
	.byte	0                       
	.uleb128 Ltmp256-Lfunc_begin25  
	.uleb128 Lfunc_end25-Ltmp256    
	.byte	0                       
	.byte	0                       
Lcst_end25:
	.p2align	2
                                        
	.section	__TEXT,__text,regular,pure_instructions
	.p2align	4, 0x90         
__ZNSt3__16vectorIPKN6loguru11EcEntryBaseENS_9allocatorIS4_EEEC1Ev: 

	push	rbp
	mov	rbp, rsp
	call	__ZNSt3__16vectorIPKN6loguru11EcEntryBaseENS_9allocatorIS4_EEEC2Ev
	pop	rbp
	ret
                                        
	.p2align	4, 0x90         
__ZNSt3__16vectorIPKN6loguru11EcEntryBaseENS_9allocatorIS4_EEE9push_backERKS4_: 
	.cfi_startproc

	push	rbp
	.cfi_def_cfa_offset 16
	.cfi_offset rbp, -16
	mov	rbp, rsp
	.cfi_def_cfa_register rbp
	push	r15
	push	r14
	push	rbx
	push	rax
	.cfi_offset rbx, -40
	.cfi_offset r14, -32
	.cfi_offset r15, -24
	mov	r14, rsi
	mov	rbx, rdi
	mov	r15, qword ptr [rdi + 8]
	call	__ZNSt3__113__vector_baseIPKN6loguru11EcEntryBaseENS_9allocatorIS4_EEE9__end_capEv
	cmp	r15, qword ptr [rax]
	je	LBB166_2

	mov	rdi, rbx
	mov	rsi, r14
	call	__ZNSt3__16vectorIPKN6loguru11EcEntryBaseENS_9allocatorIS4_EEE22__construct_one_at_endIJRKS4_EEEvDpOT_
	jmp	LBB166_3
LBB166_2:
	mov	rdi, rbx
	mov	rsi, r14
	call	__ZNSt3__16vectorIPKN6loguru11EcEntryBaseENS_9allocatorIS4_EEE21__push_back_slow_pathIRKS4_EEvOT_
LBB166_3:
	add	rsp, 8
	pop	rbx
	pop	r14
	pop	r15
	pop	rbp
	ret
	.cfi_endproc
                                        
	.p2align	4, 0x90         
__ZNSt3__1L7reverseINS_11__wrap_iterIPPKN6loguru11EcEntryBaseEEEEEvT_S8_: 

	push	rbp
	mov	rbp, rsp
	call	__ZNSt3__1L9__reverseINS_11__wrap_iterIPPKN6loguru11EcEntryBaseEEEEEvT_S8_NS_26random_access_iterator_tagE
	pop	rbp
	ret
                                        
	.p2align	4, 0x90         
__ZNSt3__16vectorIPKN6loguru11EcEntryBaseENS_9allocatorIS4_EEE5beginEv: 

	push	rbp
	mov	rbp, rsp
	mov	rdi, qword ptr [rdi]
	call	__ZNSt3__16vectorIPKN6loguru11EcEntryBaseENS_9allocatorIS4_EEE11__make_iterEPS4_
	pop	rbp
	ret
                                        
	.p2align	4, 0x90         
__ZNSt3__16vectorIPKN6loguru11EcEntryBaseENS_9allocatorIS4_EEE3endEv: 

	push	rbp
	mov	rbp, rsp
	mov	rdi, qword ptr [rdi + 8]
	call	__ZNSt3__16vectorIPKN6loguru11EcEntryBaseENS_9allocatorIS4_EEE11__make_iterEPS4_
	pop	rbp
	ret
                                        
	.globl	__ZN6loguru12StringStreamC1Ev 
	.weak_def_can_be_hidden	__ZN6loguru12StringStreamC1Ev
	.p2align	4, 0x90
__ZN6loguru12StringStreamC1Ev:          

	push	rbp
	mov	rbp, rsp
	call	__ZN6loguru12StringStreamC2Ev
	pop	rbp
	ret
                                        
	.p2align	4, 0x90         
__ZNKSt3__16vectorIPKN6loguru11EcEntryBaseENS_9allocatorIS4_EEE5emptyEv: 

	push	rbp
	mov	rbp, rsp
	mov	rax, qword ptr [rdi]
	cmp	rax, qword ptr [rdi + 8]
	sete	al
	pop	rbp
	ret
                                        
	.p2align	4, 0x90         
__ZNSt3__1neIPPKN6loguru11EcEntryBaseEEEbRKNS_11__wrap_iterIT_EESA_: 

	push	rbp
	mov	rbp, rsp
	call	__ZNSt3__1eqIPPKN6loguru11EcEntryBaseES5_EEbRKNS_11__wrap_iterIT_EERKNS6_IT0_EE
	xor	al, 1
	pop	rbp
	ret
                                        
	.p2align	4, 0x90         
__ZNKSt3__111__wrap_iterIPPKN6loguru11EcEntryBaseEEdeEv: 

	push	rbp
	mov	rbp, rsp
	mov	rax, qword ptr [rdi]
	pop	rbp
	ret
                                        
	.p2align	4, 0x90         
__ZNSt3__1plIcNS_11char_traitsIcEENS_9allocatorIcEEEENS_12basic_stringIT_T0_T1_EEOS9_PKS6_: 
	.cfi_startproc

	push	rbp
	.cfi_def_cfa_offset 16
	.cfi_offset rbp, -16
	mov	rbp, rsp
	.cfi_def_cfa_register rbp
	push	rbx
	push	rax
	.cfi_offset rbx, -24
	mov	rbx, rdi
	mov	rdi, rsi
	mov	rsi, rdx
	call	__ZNSt3__112basic_stringIcNS_11char_traitsIcEENS_9allocatorIcEEE6appendEPKc
	mov	rdi, rax
	call	__ZNSt3__1L4moveIRNS_12basic_stringIcNS_11char_traitsIcEENS_9allocatorIcEEEEEEONS_16remove_referenceIT_E4typeEOS9_
	mov	rdi, rbx
	mov	rsi, rax
	call	__ZNSt3__112basic_stringIcNS_11char_traitsIcEENS_9allocatorIcEEEC1EOS5_
	mov	rax, rbx
	add	rsp, 8
	pop	rbx
	pop	rbp
	ret
	.cfi_endproc
                                        
	.p2align	4, 0x90         
__ZNSt3__111__wrap_iterIPPKN6loguru11EcEntryBaseEEppEv: 

	push	rbp
	mov	rbp, rsp
	add	qword ptr [rdi], 8
	pop	rbp
	ret
                                        
	.globl	__ZN6loguru12StringStreamD1Ev 
	.weak_def_can_be_hidden	__ZN6loguru12StringStreamD1Ev
	.p2align	4, 0x90
__ZN6loguru12StringStreamD1Ev:          

	push	rbp
	mov	rbp, rsp
	call	__ZN6loguru12StringStreamD2Ev
	pop	rbp
	ret
                                        
	.p2align	4, 0x90         
__ZNSt3__16vectorIPKN6loguru11EcEntryBaseENS_9allocatorIS4_EEED1Ev: 

	push	rbp
	mov	rbp, rsp
	call	__ZNSt3__16vectorIPKN6loguru11EcEntryBaseENS_9allocatorIS4_EEED2Ev
	pop	rbp
	ret
                                        
	.globl	__ZN6loguru11EcEntryBaseC2EPKcjS2_ 
	.p2align	4, 0x90
__ZN6loguru11EcEntryBaseC2EPKcjS2_:     

	push	rbp
	mov	rbp, rsp
	mov	r8, rdi
	mov	rax, qword ptr [rip + __ZTVN6loguru11EcEntryBaseE@GOTPCREL]
	add	rax, 16
	mov	qword ptr [rdi], rax
	mov	qword ptr [rdi + 8], rsi
	mov	dword ptr [rdi + 16], edx
	mov	qword ptr [rdi + 24], rcx
	mov	rdi, qword ptr [rip + __ZN6loguruL13thread_ec_ptrE@TLVP]
	call	qword ptr [rdi]
	mov	rcx, qword ptr [rax]
	mov	qword ptr [r8 + 32], rcx
	mov	qword ptr [rax], r8
	pop	rbp
	ret
                                        
	.globl	__ZN6loguru11EcEntryBaseD2Ev 
	.p2align	4, 0x90
__ZN6loguru11EcEntryBaseD2Ev:           
	.cfi_startproc

	push	rbp
	.cfi_def_cfa_offset 16
	.cfi_offset rbp, -16
	mov	rbp, rsp
	.cfi_def_cfa_register rbp
	mov	rax, qword ptr [rip + __ZTVN6loguru11EcEntryBaseE@GOTPCREL]
	add	rax, 16
	mov	qword ptr [rdi], rax
	mov	rcx, qword ptr [rdi + 32]
	mov	rdi, qword ptr [rip + __ZN6loguruL13thread_ec_ptrE@TLVP]
	call	qword ptr [rdi]
	mov	qword ptr [rax], rcx
	pop	rbp
	ret
	.cfi_endproc
                                        
	.globl	__ZN6loguru11EcEntryBaseD1Ev 
	.p2align	4, 0x90
__ZN6loguru11EcEntryBaseD1Ev:           

	push	rbp
	mov	rbp, rsp
	ud2
                                        
	.globl	__ZN6loguru10ec_to_textEPKc 
	.p2align	4, 0x90
__ZN6loguru10ec_to_textEPKc:            
Lfunc_begin26:
	.cfi_startproc
	.cfi_personality 155, ___gxx_personality_v0
	.cfi_lsda 16, Lexception26

	push	rbp
	.cfi_def_cfa_offset 16
	.cfi_offset rbp, -16
	mov	rbp, rsp
	.cfi_def_cfa_register rbp
	push	r14
	push	rbx
	sub	rsp, 80
	.cfi_offset rbx, -32
	.cfi_offset r14, -24
	mov	r14, rdi
	lea	rbx, [rbp - 88]
	mov	rdi, rbx
	call	__ZNSt3__112basic_stringIcNS_11char_traitsIcEENS_9allocatorIcEEEC1IDnEEPKc
Ltmp258:
	lea	rdi, [rbp - 40]
	mov	rsi, rbx
	call	__ZNSt3__1plIcNS_11char_traitsIcEENS_9allocatorIcEEEENS_12basic_stringIT_T0_T1_EEPKS6_OS9_
Ltmp259:

Ltmp261:
	lea	rdx, [rip + L_.str.110]
	lea	rdi, [rbp - 64]
	lea	rsi, [rbp - 40]
	call	__ZNSt3__1plIcNS_11char_traitsIcEENS_9allocatorIcEEEENS_12basic_stringIT_T0_T1_EEOS9_PKS6_
Ltmp262:

	lea	rdi, [rbp - 40]
	call	__ZNSt3__112basic_stringIcNS_11char_traitsIcEENS_9allocatorIcEEED1Ev
	lea	rdi, [rbp - 88]
	call	__ZNSt3__112basic_stringIcNS_11char_traitsIcEENS_9allocatorIcEEED1Ev
	lea	rdi, [rbp - 64]
	call	__ZNKSt3__112basic_stringIcNS_11char_traitsIcEENS_9allocatorIcEEE5c_strEv
	mov	rdi, rax
	call	_strdup
Ltmp264:
	mov	rdi, r14
	mov	rsi, rax
	call	__ZN6loguru4TextC1EPc
Ltmp265:

	lea	rdi, [rbp - 64]
	call	__ZNSt3__112basic_stringIcNS_11char_traitsIcEENS_9allocatorIcEEED1Ev
	mov	rax, r14
	add	rsp, 80
	pop	rbx
	pop	r14
	pop	rbp
	ret
LBB181_4:
Ltmp266:
	mov	rbx, rax
	lea	rdi, [rbp - 64]
	jmp	LBB181_8
LBB181_5:
Ltmp263:
	mov	rbx, rax
	lea	rdi, [rbp - 40]
	call	__ZNSt3__112basic_stringIcNS_11char_traitsIcEENS_9allocatorIcEEED1Ev
	jmp	LBB181_7
LBB181_6:
Ltmp260:
	mov	rbx, rax
LBB181_7:
	lea	rdi, [rbp - 88]
LBB181_8:
	call	__ZNSt3__112basic_stringIcNS_11char_traitsIcEENS_9allocatorIcEEED1Ev
	mov	rdi, rbx
	call	__Unwind_Resume
	ud2
Lfunc_end26:
	.cfi_endproc
	.section	__TEXT,__gcc_except_tab
	.p2align	2
GCC_except_table181:
Lexception26:
	.byte	255                     
	.byte	255                     
	.byte	1                       
	.uleb128 Lcst_end26-Lcst_begin26
Lcst_begin26:
	.uleb128 Lfunc_begin26-Lfunc_begin26 
	.uleb128 Ltmp258-Lfunc_begin26  
	.byte	0                       
	.byte	0                       
	.uleb128 Ltmp258-Lfunc_begin26  
	.uleb128 Ltmp259-Ltmp258        
	.uleb128 Ltmp260-Lfunc_begin26  
	.byte	0                       
	.uleb128 Ltmp261-Lfunc_begin26  
	.uleb128 Ltmp262-Ltmp261        
	.uleb128 Ltmp263-Lfunc_begin26  
	.byte	0                       
	.uleb128 Ltmp264-Lfunc_begin26  
	.uleb128 Ltmp265-Ltmp264        
	.uleb128 Ltmp266-Lfunc_begin26  
	.byte	0                       
	.uleb128 Ltmp265-Lfunc_begin26  
	.uleb128 Lfunc_end26-Ltmp265    
	.byte	0                       
	.byte	0                       
Lcst_end26:
	.p2align	2
                                        
	.section	__TEXT,__text,regular,pure_instructions
	.p2align	4, 0x90         
__ZNSt3__1plIcNS_11char_traitsIcEENS_9allocatorIcEEEENS_12basic_stringIT_T0_T1_EEPKS6_OS9_: 
	.cfi_startproc

	push	rbp
	.cfi_def_cfa_offset 16
	.cfi_offset rbp, -16
	mov	rbp, rsp
	.cfi_def_cfa_register rbp
	push	rbx
	push	rax
	.cfi_offset rbx, -24
	mov	rbx, rdi
	lea	rdx, [rip + L_.str.110]
	mov	rdi, rsi
	xor	esi, esi
	call	__ZNSt3__112basic_stringIcNS_11char_traitsIcEENS_9allocatorIcEEE6insertEmPKc
	mov	rdi, rax
	call	__ZNSt3__1L4moveIRNS_12basic_stringIcNS_11char_traitsIcEENS_9allocatorIcEEEEEEONS_16remove_referenceIT_E4typeEOS9_
	mov	rdi, rbx
	mov	rsi, rax
	call	__ZNSt3__112basic_stringIcNS_11char_traitsIcEENS_9allocatorIcEEEC1EOS5_
	mov	rax, rbx
	add	rsp, 8
	pop	rbx
	pop	rbp
	ret
	.cfi_endproc
                                        
	.globl	__ZN6loguru10ec_to_textEc 
	.p2align	4, 0x90
__ZN6loguru10ec_to_textEc:              
Lfunc_begin27:
	.cfi_startproc
	.cfi_personality 155, ___gxx_personality_v0
	.cfi_lsda 16, Lexception27

	push	rbp
	.cfi_def_cfa_offset 16
	.cfi_offset rbp, -16
	mov	rbp, rsp
	.cfi_def_cfa_register rbp
	push	r15
	push	r14
	push	rbx
	sub	rsp, 40
	.cfi_offset rbx, -40
	.cfi_offset r14, -32
	.cfi_offset r15, -24
	mov	r15d, esi
	mov	r14, rdi
	lea	rsi, [rip + L_.str.111]
	lea	rbx, [rbp - 48]
	mov	rdi, rbx
	call	__ZNSt3__112basic_stringIcNS_11char_traitsIcEENS_9allocatorIcEEEC1IDnEEPKc
	mov	qword ptr [rbp - 64], rbx
	lea	rax, [rbp - 64]
	mov	qword ptr [rbp - 56], rax
	cmp	r15b, 39
	ja	LBB183_1

	movzx	eax, r15b
	lea	rcx, [rip + LJTI183_0]
	movsxd	rax, dword ptr [rcx + 4*rax]
	add	rax, rcx
	jmp	rax
LBB183_6:
Ltmp277:
	lea	rsi, [rip + L_.str.115]
	lea	rdi, [rbp - 48]
	call	__ZNSt3__112basic_stringIcNS_11char_traitsIcEENS_9allocatorIcEEEpLEPKc
Ltmp278:
	jmp	LBB183_16
LBB183_1:
	cmp	r15b, 92
	jne	LBB183_12

Ltmp283:
	lea	rsi, [rip + L_.str.112]
	lea	rdi, [rbp - 48]
	call	__ZNSt3__112basic_stringIcNS_11char_traitsIcEENS_9allocatorIcEEEpLEPKc
Ltmp284:
	jmp	LBB183_16
LBB183_12:
	cmp	r15b, 31
	ja	LBB183_15

Ltmp287:
	lea	rsi, [rip + L_.str.121]
	lea	rdi, [rbp - 48]
	call	__ZNSt3__112basic_stringIcNS_11char_traitsIcEENS_9allocatorIcEEEpLEPKc
Ltmp288:

	movsx	eax, r15b
Ltmp289:
	movzx	esi, ax
	lea	rdi, [rbp - 56]
	call	__ZZN6loguru10ec_to_textEcENK3$_3clEt
Ltmp290:
	jmp	LBB183_16
LBB183_7:
Ltmp275:
	lea	rsi, [rip + L_.str.116]
	lea	rdi, [rbp - 48]
	call	__ZNSt3__112basic_stringIcNS_11char_traitsIcEENS_9allocatorIcEEEpLEPKc
Ltmp276:
	jmp	LBB183_16
LBB183_11:
Ltmp267:
	lea	rsi, [rip + L_.str.120]
	lea	rdi, [rbp - 48]
	call	__ZNSt3__112basic_stringIcNS_11char_traitsIcEENS_9allocatorIcEEEpLEPKc
Ltmp268:
	jmp	LBB183_16
LBB183_9:
Ltmp271:
	lea	rsi, [rip + L_.str.118]
	lea	rdi, [rbp - 48]
	call	__ZNSt3__112basic_stringIcNS_11char_traitsIcEENS_9allocatorIcEEEpLEPKc
Ltmp272:
	jmp	LBB183_16
LBB183_8:
Ltmp273:
	lea	rsi, [rip + L_.str.117]
	lea	rdi, [rbp - 48]
	call	__ZNSt3__112basic_stringIcNS_11char_traitsIcEENS_9allocatorIcEEEpLEPKc
Ltmp274:
	jmp	LBB183_16
LBB183_10:
Ltmp269:
	lea	rsi, [rip + L_.str.119]
	lea	rdi, [rbp - 48]
	call	__ZNSt3__112basic_stringIcNS_11char_traitsIcEENS_9allocatorIcEEEpLEPKc
Ltmp270:
	jmp	LBB183_16
LBB183_4:
Ltmp281:
	lea	rsi, [rip + L_.str.113]
	lea	rdi, [rbp - 48]
	call	__ZNSt3__112basic_stringIcNS_11char_traitsIcEENS_9allocatorIcEEEpLEPKc
Ltmp282:
	jmp	LBB183_16
LBB183_5:
Ltmp279:
	lea	rsi, [rip + L_.str.114]
	lea	rdi, [rbp - 48]
	call	__ZNSt3__112basic_stringIcNS_11char_traitsIcEENS_9allocatorIcEEEpLEPKc
Ltmp280:
	jmp	LBB183_16
LBB183_15:
Ltmp285:
	movsx	esi, r15b
	lea	rdi, [rbp - 48]
	call	__ZNSt3__112basic_stringIcNS_11char_traitsIcEENS_9allocatorIcEEEpLEc
Ltmp286:
LBB183_16:
Ltmp291:
	lea	rsi, [rip + L_.str.111]
	lea	rdi, [rbp - 48]
	call	__ZNSt3__112basic_stringIcNS_11char_traitsIcEENS_9allocatorIcEEEpLEPKc
Ltmp292:

	lea	rdi, [rbp - 48]
	call	__ZNKSt3__112basic_stringIcNS_11char_traitsIcEENS_9allocatorIcEEE5c_strEv
	mov	rdi, rax
	call	_strdup
Ltmp293:
	mov	rdi, r14
	mov	rsi, rax
	call	__ZN6loguru4TextC1EPc
Ltmp294:

	lea	rdi, [rbp - 48]
	call	__ZNSt3__112basic_stringIcNS_11char_traitsIcEENS_9allocatorIcEEED1Ev
	mov	rax, r14
	add	rsp, 40
	pop	rbx
	pop	r14
	pop	r15
	pop	rbp
	ret
LBB183_3:
Ltmp295:
	mov	rbx, rax
	lea	rdi, [rbp - 48]
	call	__ZNSt3__112basic_stringIcNS_11char_traitsIcEENS_9allocatorIcEEED1Ev
	mov	rdi, rbx
	call	__Unwind_Resume
	ud2
Lfunc_end27:
	.cfi_endproc
	.p2align	2, 0x90
	.data_region jt32









LJTI183_0:
	.long	L183_0_set_6
	.long	L183_0_set_12
	.long	L183_0_set_12
	.long	L183_0_set_12
	.long	L183_0_set_12
	.long	L183_0_set_12
	.long	L183_0_set_12
	.long	L183_0_set_12
	.long	L183_0_set_7
	.long	L183_0_set_11
	.long	L183_0_set_9
	.long	L183_0_set_12
	.long	L183_0_set_8
	.long	L183_0_set_10
	.long	L183_0_set_12
	.long	L183_0_set_12
	.long	L183_0_set_12
	.long	L183_0_set_12
	.long	L183_0_set_12
	.long	L183_0_set_12
	.long	L183_0_set_12
	.long	L183_0_set_12
	.long	L183_0_set_12
	.long	L183_0_set_12
	.long	L183_0_set_12
	.long	L183_0_set_12
	.long	L183_0_set_12
	.long	L183_0_set_12
	.long	L183_0_set_12
	.long	L183_0_set_12
	.long	L183_0_set_12
	.long	L183_0_set_12
	.long	L183_0_set_12
	.long	L183_0_set_12
	.long	L183_0_set_4
	.long	L183_0_set_12
	.long	L183_0_set_12
	.long	L183_0_set_12
	.long	L183_0_set_12
	.long	L183_0_set_5
	.end_data_region
	.section	__TEXT,__gcc_except_tab
	.p2align	2
GCC_except_table183:
Lexception27:
	.byte	255                     
	.byte	255                     
	.byte	1                       
	.uleb128 Lcst_end27-Lcst_begin27
Lcst_begin27:
	.uleb128 Lfunc_begin27-Lfunc_begin27 
	.uleb128 Ltmp277-Lfunc_begin27  
	.byte	0                       
	.byte	0                       
	.uleb128 Ltmp277-Lfunc_begin27  
	.uleb128 Ltmp294-Ltmp277        
	.uleb128 Ltmp295-Lfunc_begin27  
	.byte	0                       
	.uleb128 Ltmp294-Lfunc_begin27  
	.uleb128 Lfunc_end27-Ltmp294    
	.byte	0                       
	.byte	0                       
Lcst_end27:
	.p2align	2
                                        
	.section	__TEXT,__text,regular,pure_instructions
	.p2align	4, 0x90         
__ZZN6loguru10ec_to_textEcENK3$_3clEt:  
	.cfi_startproc

	push	rbp
	.cfi_def_cfa_offset 16
	.cfi_offset rbp, -16
	mov	rbp, rsp
	.cfi_def_cfa_register rbp
	push	r14
	push	rbx
	.cfi_offset rbx, -32
	.cfi_offset r14, -24
	mov	ebx, esi
	mov	r14, rdi
	mov	rdi, qword ptr [rdi]
	shr	esi, 12
	call	__ZZN6loguru10ec_to_textEcENK3$_2clEj
	mov	rdi, qword ptr [r14]
	mov	esi, ebx
	shr	esi, 8
	and	esi, 15
	call	__ZZN6loguru10ec_to_textEcENK3$_2clEj
	mov	rdi, qword ptr [r14]
	mov	esi, ebx
	shr	esi, 4
	and	esi, 15
	call	__ZZN6loguru10ec_to_textEcENK3$_2clEj
	mov	rdi, qword ptr [r14]
	and	ebx, 15
	mov	esi, ebx
	call	__ZZN6loguru10ec_to_textEcENK3$_2clEj
	pop	rbx
	pop	r14
	pop	rbp
	ret
	.cfi_endproc
                                        
	.p2align	4, 0x90         
__ZNSt3__112basic_stringIcNS_11char_traitsIcEENS_9allocatorIcEEEpLEc: 
	.cfi_startproc

	push	rbp
	.cfi_def_cfa_offset 16
	.cfi_offset rbp, -16
	mov	rbp, rsp
	.cfi_def_cfa_register rbp
	call	__ZNSt3__112basic_stringIcNS_11char_traitsIcEENS_9allocatorIcEEE9push_backEc
	pop	rbp
	ret
	.cfi_endproc
                                        
	.globl	__ZN6loguru10ec_to_textEi 
	.p2align	4, 0x90
__ZN6loguru10ec_to_textEi:              
Lfunc_begin28:
	.cfi_startproc
	.cfi_personality 155, ___gxx_personality_v0
	.cfi_lsda 16, Lexception28

	push	rbp
	.cfi_def_cfa_offset 16
	.cfi_offset rbp, -16
	mov	rbp, rsp
	.cfi_def_cfa_register rbp
	push	r14
	push	rbx
	sub	rsp, 32
	.cfi_offset rbx, -32
	.cfi_offset r14, -24
	mov	rbx, rdi
	lea	r14, [rbp - 40]
	mov	rdi, r14
	call	__ZNSt3__19to_stringEi
	mov	rdi, r14
	call	__ZNKSt3__112basic_stringIcNS_11char_traitsIcEENS_9allocatorIcEEE5c_strEv
	mov	rdi, rax
	call	_strdup
Ltmp296:
	mov	rdi, rbx
	mov	rsi, rax
	call	__ZN6loguru4TextC1EPc
Ltmp297:

	lea	rdi, [rbp - 40]
	call	__ZNSt3__112basic_stringIcNS_11char_traitsIcEENS_9allocatorIcEEED1Ev
	mov	rax, rbx
	add	rsp, 32
	pop	rbx
	pop	r14
	pop	rbp
	ret
LBB186_2:
Ltmp298:
	mov	rbx, rax
	lea	rdi, [rbp - 40]
	call	__ZNSt3__112basic_stringIcNS_11char_traitsIcEENS_9allocatorIcEEED1Ev
	mov	rdi, rbx
	call	__Unwind_Resume
	ud2
Lfunc_end28:
	.cfi_endproc
	.section	__TEXT,__gcc_except_tab
	.p2align	2
GCC_except_table186:
Lexception28:
	.byte	255                     
	.byte	255                     
	.byte	1                       
	.uleb128 Lcst_end28-Lcst_begin28
Lcst_begin28:
	.uleb128 Lfunc_begin28-Lfunc_begin28 
	.uleb128 Ltmp296-Lfunc_begin28  
	.byte	0                       
	.byte	0                       
	.uleb128 Ltmp296-Lfunc_begin28  
	.uleb128 Ltmp297-Ltmp296        
	.uleb128 Ltmp298-Lfunc_begin28  
	.byte	0                       
	.uleb128 Ltmp297-Lfunc_begin28  
	.uleb128 Lfunc_end28-Ltmp297    
	.byte	0                       
	.byte	0                       
Lcst_end28:
	.p2align	2
                                        
	.section	__TEXT,__text,regular,pure_instructions
	.globl	__ZN6loguru10ec_to_textEj 
	.p2align	4, 0x90
__ZN6loguru10ec_to_textEj:              
Lfunc_begin29:
	.cfi_startproc
	.cfi_personality 155, ___gxx_personality_v0
	.cfi_lsda 16, Lexception29

	push	rbp
	.cfi_def_cfa_offset 16
	.cfi_offset rbp, -16
	mov	rbp, rsp
	.cfi_def_cfa_register rbp
	push	r14
	push	rbx
	sub	rsp, 32
	.cfi_offset rbx, -32
	.cfi_offset r14, -24
	mov	rbx, rdi
	lea	r14, [rbp - 40]
	mov	rdi, r14
	call	__ZNSt3__19to_stringEj
	mov	rdi, r14
	call	__ZNKSt3__112basic_stringIcNS_11char_traitsIcEENS_9allocatorIcEEE5c_strEv
	mov	rdi, rax
	call	_strdup
Ltmp299:
	mov	rdi, rbx
	mov	rsi, rax
	call	__ZN6loguru4TextC1EPc
Ltmp300:

	lea	rdi, [rbp - 40]
	call	__ZNSt3__112basic_stringIcNS_11char_traitsIcEENS_9allocatorIcEEED1Ev
	mov	rax, rbx
	add	rsp, 32
	pop	rbx
	pop	r14
	pop	rbp
	ret
LBB187_2:
Ltmp301:
	mov	rbx, rax
	lea	rdi, [rbp - 40]
	call	__ZNSt3__112basic_stringIcNS_11char_traitsIcEENS_9allocatorIcEEED1Ev
	mov	rdi, rbx
	call	__Unwind_Resume
	ud2
Lfunc_end29:
	.cfi_endproc
	.section	__TEXT,__gcc_except_tab
	.p2align	2
GCC_except_table187:
Lexception29:
	.byte	255                     
	.byte	255                     
	.byte	1                       
	.uleb128 Lcst_end29-Lcst_begin29
Lcst_begin29:
	.uleb128 Lfunc_begin29-Lfunc_begin29 
	.uleb128 Ltmp299-Lfunc_begin29  
	.byte	0                       
	.byte	0                       
	.uleb128 Ltmp299-Lfunc_begin29  
	.uleb128 Ltmp300-Ltmp299        
	.uleb128 Ltmp301-Lfunc_begin29  
	.byte	0                       
	.uleb128 Ltmp300-Lfunc_begin29  
	.uleb128 Lfunc_end29-Ltmp300    
	.byte	0                       
	.byte	0                       
Lcst_end29:
	.p2align	2
                                        
	.section	__TEXT,__text,regular,pure_instructions
	.globl	__ZN6loguru10ec_to_textEl 
	.p2align	4, 0x90
__ZN6loguru10ec_to_textEl:              
Lfunc_begin30:
	.cfi_startproc
	.cfi_personality 155, ___gxx_personality_v0
	.cfi_lsda 16, Lexception30

	push	rbp
	.cfi_def_cfa_offset 16
	.cfi_offset rbp, -16
	mov	rbp, rsp
	.cfi_def_cfa_register rbp
	push	r14
	push	rbx
	sub	rsp, 32
	.cfi_offset rbx, -32
	.cfi_offset r14, -24
	mov	rbx, rdi
	lea	r14, [rbp - 40]
	mov	rdi, r14
	call	__ZNSt3__19to_stringEl
	mov	rdi, r14
	call	__ZNKSt3__112basic_stringIcNS_11char_traitsIcEENS_9allocatorIcEEE5c_strEv
	mov	rdi, rax
	call	_strdup
Ltmp302:
	mov	rdi, rbx
	mov	rsi, rax
	call	__ZN6loguru4TextC1EPc
Ltmp303:

	lea	rdi, [rbp - 40]
	call	__ZNSt3__112basic_stringIcNS_11char_traitsIcEENS_9allocatorIcEEED1Ev
	mov	rax, rbx
	add	rsp, 32
	pop	rbx
	pop	r14
	pop	rbp
	ret
LBB188_2:
Ltmp304:
	mov	rbx, rax
	lea	rdi, [rbp - 40]
	call	__ZNSt3__112basic_stringIcNS_11char_traitsIcEENS_9allocatorIcEEED1Ev
	mov	rdi, rbx
	call	__Unwind_Resume
	ud2
Lfunc_end30:
	.cfi_endproc
	.section	__TEXT,__gcc_except_tab
	.p2align	2
GCC_except_table188:
Lexception30:
	.byte	255                     
	.byte	255                     
	.byte	1                       
	.uleb128 Lcst_end30-Lcst_begin30
Lcst_begin30:
	.uleb128 Lfunc_begin30-Lfunc_begin30 
	.uleb128 Ltmp302-Lfunc_begin30  
	.byte	0                       
	.byte	0                       
	.uleb128 Ltmp302-Lfunc_begin30  
	.uleb128 Ltmp303-Ltmp302        
	.uleb128 Ltmp304-Lfunc_begin30  
	.byte	0                       
	.uleb128 Ltmp303-Lfunc_begin30  
	.uleb128 Lfunc_end30-Ltmp303    
	.byte	0                       
	.byte	0                       
Lcst_end30:
	.p2align	2
                                        
	.section	__TEXT,__text,regular,pure_instructions
	.globl	__ZN6loguru10ec_to_textEm 
	.p2align	4, 0x90
__ZN6loguru10ec_to_textEm:              
Lfunc_begin31:
	.cfi_startproc
	.cfi_personality 155, ___gxx_personality_v0
	.cfi_lsda 16, Lexception31

	push	rbp
	.cfi_def_cfa_offset 16
	.cfi_offset rbp, -16
	mov	rbp, rsp
	.cfi_def_cfa_register rbp
	push	r14
	push	rbx
	sub	rsp, 32
	.cfi_offset rbx, -32
	.cfi_offset r14, -24
	mov	rbx, rdi
	lea	r14, [rbp - 40]
	mov	rdi, r14
	call	__ZNSt3__19to_stringEm
	mov	rdi, r14
	call	__ZNKSt3__112basic_stringIcNS_11char_traitsIcEENS_9allocatorIcEEE5c_strEv
	mov	rdi, rax
	call	_strdup
Ltmp305:
	mov	rdi, rbx
	mov	rsi, rax
	call	__ZN6loguru4TextC1EPc
Ltmp306:

	lea	rdi, [rbp - 40]
	call	__ZNSt3__112basic_stringIcNS_11char_traitsIcEENS_9allocatorIcEEED1Ev
	mov	rax, rbx
	add	rsp, 32
	pop	rbx
	pop	r14
	pop	rbp
	ret
LBB189_2:
Ltmp307:
	mov	rbx, rax
	lea	rdi, [rbp - 40]
	call	__ZNSt3__112basic_stringIcNS_11char_traitsIcEENS_9allocatorIcEEED1Ev
	mov	rdi, rbx
	call	__Unwind_Resume
	ud2
Lfunc_end31:
	.cfi_endproc
	.section	__TEXT,__gcc_except_tab
	.p2align	2
GCC_except_table189:
Lexception31:
	.byte	255                     
	.byte	255                     
	.byte	1                       
	.uleb128 Lcst_end31-Lcst_begin31
Lcst_begin31:
	.uleb128 Lfunc_begin31-Lfunc_begin31 
	.uleb128 Ltmp305-Lfunc_begin31  
	.byte	0                       
	.byte	0                       
	.uleb128 Ltmp305-Lfunc_begin31  
	.uleb128 Ltmp306-Ltmp305        
	.uleb128 Ltmp307-Lfunc_begin31  
	.byte	0                       
	.uleb128 Ltmp306-Lfunc_begin31  
	.uleb128 Lfunc_end31-Ltmp306    
	.byte	0                       
	.byte	0                       
Lcst_end31:
	.p2align	2
                                        
	.section	__TEXT,__text,regular,pure_instructions
	.globl	__ZN6loguru10ec_to_textEx 
	.p2align	4, 0x90
__ZN6loguru10ec_to_textEx:              
Lfunc_begin32:
	.cfi_startproc
	.cfi_personality 155, ___gxx_personality_v0
	.cfi_lsda 16, Lexception32

	push	rbp
	.cfi_def_cfa_offset 16
	.cfi_offset rbp, -16
	mov	rbp, rsp
	.cfi_def_cfa_register rbp
	push	r14
	push	rbx
	sub	rsp, 32
	.cfi_offset rbx, -32
	.cfi_offset r14, -24
	mov	rbx, rdi
	lea	r14, [rbp - 40]
	mov	rdi, r14
	call	__ZNSt3__19to_stringEx
	mov	rdi, r14
	call	__ZNKSt3__112basic_stringIcNS_11char_traitsIcEENS_9allocatorIcEEE5c_strEv
	mov	rdi, rax
	call	_strdup
Ltmp308:
	mov	rdi, rbx
	mov	rsi, rax
	call	__ZN6loguru4TextC1EPc
Ltmp309:

	lea	rdi, [rbp - 40]
	call	__ZNSt3__112basic_stringIcNS_11char_traitsIcEENS_9allocatorIcEEED1Ev
	mov	rax, rbx
	add	rsp, 32
	pop	rbx
	pop	r14
	pop	rbp
	ret
LBB190_2:
Ltmp310:
	mov	rbx, rax
	lea	rdi, [rbp - 40]
	call	__ZNSt3__112basic_stringIcNS_11char_traitsIcEENS_9allocatorIcEEED1Ev
	mov	rdi, rbx
	call	__Unwind_Resume
	ud2
Lfunc_end32:
	.cfi_endproc
	.section	__TEXT,__gcc_except_tab
	.p2align	2
GCC_except_table190:
Lexception32:
	.byte	255                     
	.byte	255                     
	.byte	1                       
	.uleb128 Lcst_end32-Lcst_begin32
Lcst_begin32:
	.uleb128 Lfunc_begin32-Lfunc_begin32 
	.uleb128 Ltmp308-Lfunc_begin32  
	.byte	0                       
	.byte	0                       
	.uleb128 Ltmp308-Lfunc_begin32  
	.uleb128 Ltmp309-Ltmp308        
	.uleb128 Ltmp310-Lfunc_begin32  
	.byte	0                       
	.uleb128 Ltmp309-Lfunc_begin32  
	.uleb128 Lfunc_end32-Ltmp309    
	.byte	0                       
	.byte	0                       
Lcst_end32:
	.p2align	2
                                        
	.section	__TEXT,__text,regular,pure_instructions
	.globl	__ZN6loguru10ec_to_textEy 
	.p2align	4, 0x90
__ZN6loguru10ec_to_textEy:              
Lfunc_begin33:
	.cfi_startproc
	.cfi_personality 155, ___gxx_personality_v0
	.cfi_lsda 16, Lexception33

	push	rbp
	.cfi_def_cfa_offset 16
	.cfi_offset rbp, -16
	mov	rbp, rsp
	.cfi_def_cfa_register rbp
	push	r14
	push	rbx
	sub	rsp, 32
	.cfi_offset rbx, -32
	.cfi_offset r14, -24
	mov	rbx, rdi
	lea	r14, [rbp - 40]
	mov	rdi, r14
	call	__ZNSt3__19to_stringEy
	mov	rdi, r14
	call	__ZNKSt3__112basic_stringIcNS_11char_traitsIcEENS_9allocatorIcEEE5c_strEv
	mov	rdi, rax
	call	_strdup
Ltmp311:
	mov	rdi, rbx
	mov	rsi, rax
	call	__ZN6loguru4TextC1EPc
Ltmp312:

	lea	rdi, [rbp - 40]
	call	__ZNSt3__112basic_stringIcNS_11char_traitsIcEENS_9allocatorIcEEED1Ev
	mov	rax, rbx
	add	rsp, 32
	pop	rbx
	pop	r14
	pop	rbp
	ret
LBB191_2:
Ltmp313:
	mov	rbx, rax
	lea	rdi, [rbp - 40]
	call	__ZNSt3__112basic_stringIcNS_11char_traitsIcEENS_9allocatorIcEEED1Ev
	mov	rdi, rbx
	call	__Unwind_Resume
	ud2
Lfunc_end33:
	.cfi_endproc
	.section	__TEXT,__gcc_except_tab
	.p2align	2
GCC_except_table191:
Lexception33:
	.byte	255                     
	.byte	255                     
	.byte	1                       
	.uleb128 Lcst_end33-Lcst_begin33
Lcst_begin33:
	.uleb128 Lfunc_begin33-Lfunc_begin33 
	.uleb128 Ltmp311-Lfunc_begin33  
	.byte	0                       
	.byte	0                       
	.uleb128 Ltmp311-Lfunc_begin33  
	.uleb128 Ltmp312-Ltmp311        
	.uleb128 Ltmp313-Lfunc_begin33  
	.byte	0                       
	.uleb128 Ltmp312-Lfunc_begin33  
	.uleb128 Lfunc_end33-Ltmp312    
	.byte	0                       
	.byte	0                       
Lcst_end33:
	.p2align	2
                                        
	.section	__TEXT,__text,regular,pure_instructions
	.globl	__ZN6loguru10ec_to_textEf 
	.p2align	4, 0x90
__ZN6loguru10ec_to_textEf:              
Lfunc_begin34:
	.cfi_startproc
	.cfi_personality 155, ___gxx_personality_v0
	.cfi_lsda 16, Lexception34

	push	rbp
	.cfi_def_cfa_offset 16
	.cfi_offset rbp, -16
	mov	rbp, rsp
	.cfi_def_cfa_register rbp
	push	r14
	push	rbx
	sub	rsp, 32
	.cfi_offset rbx, -32
	.cfi_offset r14, -24
	mov	rbx, rdi
	lea	r14, [rbp - 40]
	mov	rdi, r14
	call	__ZNSt3__19to_stringEf
	mov	rdi, r14
	call	__ZNKSt3__112basic_stringIcNS_11char_traitsIcEENS_9allocatorIcEEE5c_strEv
	mov	rdi, rax
	call	_strdup
Ltmp314:
	mov	rdi, rbx
	mov	rsi, rax
	call	__ZN6loguru4TextC1EPc
Ltmp315:

	lea	rdi, [rbp - 40]
	call	__ZNSt3__112basic_stringIcNS_11char_traitsIcEENS_9allocatorIcEEED1Ev
	mov	rax, rbx
	add	rsp, 32
	pop	rbx
	pop	r14
	pop	rbp
	ret
LBB192_2:
Ltmp316:
	mov	rbx, rax
	lea	rdi, [rbp - 40]
	call	__ZNSt3__112basic_stringIcNS_11char_traitsIcEENS_9allocatorIcEEED1Ev
	mov	rdi, rbx
	call	__Unwind_Resume
	ud2
Lfunc_end34:
	.cfi_endproc
	.section	__TEXT,__gcc_except_tab
	.p2align	2
GCC_except_table192:
Lexception34:
	.byte	255                     
	.byte	255                     
	.byte	1                       
	.uleb128 Lcst_end34-Lcst_begin34
Lcst_begin34:
	.uleb128 Lfunc_begin34-Lfunc_begin34 
	.uleb128 Ltmp314-Lfunc_begin34  
	.byte	0                       
	.byte	0                       
	.uleb128 Ltmp314-Lfunc_begin34  
	.uleb128 Ltmp315-Ltmp314        
	.uleb128 Ltmp316-Lfunc_begin34  
	.byte	0                       
	.uleb128 Ltmp315-Lfunc_begin34  
	.uleb128 Lfunc_end34-Ltmp315    
	.byte	0                       
	.byte	0                       
Lcst_end34:
	.p2align	2
                                        
	.section	__TEXT,__text,regular,pure_instructions
	.globl	__ZN6loguru10ec_to_textEd 
	.p2align	4, 0x90
__ZN6loguru10ec_to_textEd:              
Lfunc_begin35:
	.cfi_startproc
	.cfi_personality 155, ___gxx_personality_v0
	.cfi_lsda 16, Lexception35

	push	rbp
	.cfi_def_cfa_offset 16
	.cfi_offset rbp, -16
	mov	rbp, rsp
	.cfi_def_cfa_register rbp
	push	r14
	push	rbx
	sub	rsp, 32
	.cfi_offset rbx, -32
	.cfi_offset r14, -24
	mov	rbx, rdi
	lea	r14, [rbp - 40]
	mov	rdi, r14
	call	__ZNSt3__19to_stringEd
	mov	rdi, r14
	call	__ZNKSt3__112basic_stringIcNS_11char_traitsIcEENS_9allocatorIcEEE5c_strEv
	mov	rdi, rax
	call	_strdup
Ltmp317:
	mov	rdi, rbx
	mov	rsi, rax
	call	__ZN6loguru4TextC1EPc
Ltmp318:

	lea	rdi, [rbp - 40]
	call	__ZNSt3__112basic_stringIcNS_11char_traitsIcEENS_9allocatorIcEEED1Ev
	mov	rax, rbx
	add	rsp, 32
	pop	rbx
	pop	r14
	pop	rbp
	ret
LBB193_2:
Ltmp319:
	mov	rbx, rax
	lea	rdi, [rbp - 40]
	call	__ZNSt3__112basic_stringIcNS_11char_traitsIcEENS_9allocatorIcEEED1Ev
	mov	rdi, rbx
	call	__Unwind_Resume
	ud2
Lfunc_end35:
	.cfi_endproc
	.section	__TEXT,__gcc_except_tab
	.p2align	2
GCC_except_table193:
Lexception35:
	.byte	255                     
	.byte	255                     
	.byte	1                       
	.uleb128 Lcst_end35-Lcst_begin35
Lcst_begin35:
	.uleb128 Lfunc_begin35-Lfunc_begin35 
	.uleb128 Ltmp317-Lfunc_begin35  
	.byte	0                       
	.byte	0                       
	.uleb128 Ltmp317-Lfunc_begin35  
	.uleb128 Ltmp318-Ltmp317        
	.uleb128 Ltmp319-Lfunc_begin35  
	.byte	0                       
	.uleb128 Ltmp318-Lfunc_begin35  
	.uleb128 Lfunc_end35-Ltmp318    
	.byte	0                       
	.byte	0                       
Lcst_end35:
	.p2align	2
                                        
	.section	__TEXT,__text,regular,pure_instructions
	.globl	__ZN6loguru10ec_to_textEe 
	.p2align	4, 0x90
__ZN6loguru10ec_to_textEe:              
Lfunc_begin36:
	.cfi_startproc
	.cfi_personality 155, ___gxx_personality_v0
	.cfi_lsda 16, Lexception36

	push	rbp
	.cfi_def_cfa_offset 16
	.cfi_offset rbp, -16
	mov	rbp, rsp
	.cfi_def_cfa_register rbp
	push	r14
	push	rbx
	sub	rsp, 48
	.cfi_offset rbx, -32
	.cfi_offset r14, -24
	mov	rbx, rdi
	fld	tbyte ptr [rbp + 16]
	fstp	tbyte ptr [rsp]
	lea	r14, [rbp - 40]
	mov	rdi, r14
	call	__ZNSt3__19to_stringEe
	mov	rdi, r14
	call	__ZNKSt3__112basic_stringIcNS_11char_traitsIcEENS_9allocatorIcEEE5c_strEv
	mov	rdi, rax
	call	_strdup
Ltmp320:
	mov	rdi, rbx
	mov	rsi, rax
	call	__ZN6loguru4TextC1EPc
Ltmp321:

	lea	rdi, [rbp - 40]
	call	__ZNSt3__112basic_stringIcNS_11char_traitsIcEENS_9allocatorIcEEED1Ev
	mov	rax, rbx
	add	rsp, 48
	pop	rbx
	pop	r14
	pop	rbp
	ret
LBB194_2:
Ltmp322:
	mov	rbx, rax
	lea	rdi, [rbp - 40]
	call	__ZNSt3__112basic_stringIcNS_11char_traitsIcEENS_9allocatorIcEEED1Ev
	mov	rdi, rbx
	call	__Unwind_Resume
	ud2
Lfunc_end36:
	.cfi_endproc
	.section	__TEXT,__gcc_except_tab
	.p2align	2
GCC_except_table194:
Lexception36:
	.byte	255                     
	.byte	255                     
	.byte	1                       
	.uleb128 Lcst_end36-Lcst_begin36
Lcst_begin36:
	.uleb128 Lfunc_begin36-Lfunc_begin36 
	.uleb128 Ltmp320-Lfunc_begin36  
	.byte	0                       
	.byte	0                       
	.uleb128 Ltmp320-Lfunc_begin36  
	.uleb128 Ltmp321-Ltmp320        
	.uleb128 Ltmp322-Lfunc_begin36  
	.byte	0                       
	.uleb128 Ltmp321-Lfunc_begin36  
	.uleb128 Lfunc_end36-Ltmp321    
	.byte	0                       
	.byte	0                       
Lcst_end36:
	.p2align	2
                                        
	.section	__TEXT,__text,regular,pure_instructions
	.globl	__ZN6loguru10ec_to_textEPKNS_11EcEntryBaseE 
	.p2align	4, 0x90
__ZN6loguru10ec_to_textEPKNS_11EcEntryBaseE: 
Lfunc_begin37:
	.cfi_startproc
	.cfi_personality 155, ___gxx_personality_v0
	.cfi_lsda 16, Lexception37

	push	rbp
	.cfi_def_cfa_offset 16
	.cfi_offset rbp, -16
	mov	rbp, rsp
	.cfi_def_cfa_register rbp
	push	r15
	push	r14
	push	r12
	push	rbx
	sub	rsp, 16
	.cfi_offset rbx, -48
	.cfi_offset r12, -40
	.cfi_offset r14, -32
	.cfi_offset r15, -24
	mov	r14, rdi
	lea	r15, [rbp - 40]
	mov	rdi, r15
	call	__ZN6loguru21get_error_context_forEPKNS_11EcEntryBaseE
	mov	rdi, r15
	call	__ZNK6loguru4Text5c_strEv
	mov	rdi, rax
	call	_strlen
	lea	rdi, [rax + 2]
	call	_malloc
	mov	rbx, rax
	mov	byte ptr [rax], 10
	lea	r12, [rax + 1]
	mov	rdi, r15
	call	__ZNK6loguru4Text5c_strEv
	mov	rdi, r12
	mov	rsi, rax
	call	_strcpy
Ltmp323:
	mov	rdi, r14
	mov	rsi, rbx
	call	__ZN6loguru4TextC1EPc
Ltmp324:

	lea	rdi, [rbp - 40]
	call	__ZN6loguru4TextD1Ev
	mov	rax, r14
	add	rsp, 16
	pop	rbx
	pop	r12
	pop	r14
	pop	r15
	pop	rbp
	ret
LBB195_2:
Ltmp325:
	mov	rbx, rax
	lea	rdi, [rbp - 40]
	call	__ZN6loguru4TextD1Ev
	mov	rdi, rbx
	call	__Unwind_Resume
	ud2
Lfunc_end37:
	.cfi_endproc
	.section	__TEXT,__gcc_except_tab
	.p2align	2
GCC_except_table195:
Lexception37:
	.byte	255                     
	.byte	255                     
	.byte	1                       
	.uleb128 Lcst_end37-Lcst_begin37
Lcst_begin37:
	.uleb128 Lfunc_begin37-Lfunc_begin37 
	.uleb128 Ltmp323-Lfunc_begin37  
	.byte	0                       
	.byte	0                       
	.uleb128 Ltmp323-Lfunc_begin37  
	.uleb128 Ltmp324-Ltmp323        
	.uleb128 Ltmp325-Lfunc_begin37  
	.byte	0                       
	.uleb128 Ltmp324-Lfunc_begin37  
	.uleb128 Lfunc_end37-Ltmp324    
	.byte	0                       
	.byte	0                       
Lcst_end37:
	.p2align	2
                                        
	.section	__TEXT,__text,regular,pure_instructions
	.globl	__ZN6loguru15write_to_stderrEPKcm 
	.p2align	4, 0x90
__ZN6loguru15write_to_stderrEPKcm:      
	.cfi_startproc

	push	rbp
	.cfi_def_cfa_offset 16
	.cfi_offset rbp, -16
	mov	rbp, rsp
	.cfi_def_cfa_register rbp
	mov	rdx, rsi
	mov	rsi, rdi
	mov	edi, 2
	call	_write
	pop	rbp
	ret
	.cfi_endproc
                                        
	.globl	__ZN6loguru15write_to_stderrEPKc 
	.p2align	4, 0x90
__ZN6loguru15write_to_stderrEPKc:       
	.cfi_startproc

	push	rbp
	.cfi_def_cfa_offset 16
	.cfi_offset rbp, -16
	mov	rbp, rsp
	.cfi_def_cfa_register rbp
	push	rbx
	push	rax
	.cfi_offset rbx, -24
	mov	rbx, rdi
	call	_strlen
	mov	rdi, rbx
	mov	rsi, rax
	call	__ZN6loguru15write_to_stderrEPKcm
	add	rsp, 8
	pop	rbx
	pop	rbp
	ret
	.cfi_endproc
                                        
	.globl	__ZN6loguru27call_default_signal_handlerEi 
	.p2align	4, 0x90
__ZN6loguru27call_default_signal_handlerEi: 
	.cfi_startproc

	push	rbp
	.cfi_def_cfa_offset 16
	.cfi_offset rbp, -16
	mov	rbp, rsp
	.cfi_def_cfa_register rbp
	push	rbx
	sub	rsp, 24
	.cfi_offset rbx, -24
	mov	ebx, edi
	xorps	xmm0, xmm0
	movaps	xmmword ptr [rbp - 32], xmm0
	lea	rsi, [rbp - 32]
	xor	edx, edx
	call	_sigaction
	call	_getpid
	mov	edi, eax
	mov	esi, ebx
	call	_kill
	add	rsp, 24
	pop	rbx
	pop	rbp
	ret
	.cfi_endproc
                                        
	.globl	__ZN6loguru14signal_handlerEiP9__siginfoPv 
	.p2align	4, 0x90
__ZN6loguru14signal_handlerEiP9__siginfoPv: 
Lfunc_begin38:
	.cfi_startproc
	.cfi_personality 155, ___gxx_personality_v0
	.cfi_lsda 16, Lexception38

	push	rbp
	.cfi_def_cfa_offset 16
	.cfi_offset rbp, -16
	mov	rbp, rsp
	.cfi_def_cfa_register rbp
	push	r15
	push	r14
	push	r12
	push	rbx
	sub	rsp, 176
	.cfi_offset rbx, -48
	.cfi_offset r12, -40
	.cfi_offset r14, -32
	.cfi_offset r15, -24
	mov	ebx, edi
	mov	rax, qword ptr [rip + ___stack_chk_guard@GOTPCREL]
	mov	rax, qword ptr [rax]
	mov	qword ptr [rbp - 40], rax
	cmp	edi, 6
	lea	rax, [rip + L_.str.123]
	lea	rcx, [rip + L_.str.122]
	cmove	rcx, rax
	cmp	edi, 10
	lea	rax, [rip + L_.str.124]
	cmovne	rax, rcx
	cmp	edi, 8
	lea	rcx, [rip + L_.str.125]
	cmovne	rcx, rax
	cmp	edi, 4
	lea	rax, [rip + L_.str.126]
	cmovne	rax, rcx
	cmp	edi, 2
	lea	rcx, [rip + L_.str.127]
	cmovne	rcx, rax
	cmp	edi, 11
	lea	rax, [rip + L_.str.128]
	cmovne	rax, rcx
	cmp	edi, 15
	lea	r14, [rip + L_.str.129]
	cmovne	r14, rax
	cmp	byte ptr [rip + __ZN6loguru18g_colorlogtostderrE], 0
	je	LBB199_3

	cmp	byte ptr [rip + __ZN6loguruL20s_terminal_has_colorE], 0
	je	LBB199_3

	call	__ZN6loguru14terminal_resetEv
	mov	rdi, rax
	call	__ZN6loguru15write_to_stderrEPKc
	call	__ZN6loguru13terminal_boldEv
	mov	rdi, rax
	call	__ZN6loguru15write_to_stderrEPKc
	call	__ZN6loguru18terminal_light_redEv
	mov	rdi, rax
	call	__ZN6loguru15write_to_stderrEPKc
LBB199_3:
	lea	r15, [rip + L_.str.108]
	mov	rdi, r15
	call	__ZN6loguru15write_to_stderrEPKc
	lea	rdi, [rip + L_.str.130]
	call	__ZN6loguru15write_to_stderrEPKc
	mov	rdi, r14
	call	__ZN6loguru15write_to_stderrEPKc
	mov	rdi, r15
	call	__ZN6loguru15write_to_stderrEPKc
	cmp	byte ptr [rip + __ZN6loguru18g_colorlogtostderrE], 0
	je	LBB199_6

	cmp	byte ptr [rip + __ZN6loguruL20s_terminal_has_colorE], 0
	je	LBB199_6

	call	__ZN6loguru14terminal_resetEv
	mov	rdi, rax
	call	__ZN6loguru15write_to_stderrEPKc
LBB199_6:
	cmp	byte ptr [rip + __ZN6loguruL16s_signal_optionsE], 0
	je	LBB199_11

	call	__ZN6loguru5flushEv
	lea	r15, [rip + L_.str.8]
	lea	r12, [rbp - 144]
	mov	rdi, r12
	mov	esi, -3
	mov	rdx, r15
	xor	ecx, ecx
	call	__ZN6loguruL14print_preambleEPcmiPKcj
	mov	dword ptr [rbp - 200], -3
	mov	qword ptr [rbp - 192], r15
	mov	dword ptr [rbp - 184], 0
	mov	qword ptr [rbp - 176], r12
	mov	qword ptr [rbp - 168], r15
	lea	rax, [rip + L_.str.131]
	mov	qword ptr [rbp - 160], rax
	mov	qword ptr [rbp - 152], r14
Ltmp326:
	lea	rsi, [rbp - 200]
	mov	edi, 1
	xor	edx, edx
	xor	ecx, ecx
	call	__ZN6loguruL11log_messageEiRNS_7MessageEbb
Ltmp327:
LBB199_10:
	call	__ZN6loguru5flushEv
LBB199_11:
	mov	edi, ebx
	call	__ZN6loguru27call_default_signal_handlerEi
	mov	rax, qword ptr [rip + ___stack_chk_guard@GOTPCREL]
	mov	rax, qword ptr [rax]
	cmp	rax, qword ptr [rbp - 40]
	jne	LBB199_12

	add	rsp, 176
	pop	rbx
	pop	r12
	pop	r14
	pop	r15
	pop	rbp
	ret
LBB199_12:
	call	___stack_chk_fail
LBB199_8:
Ltmp328:
	mov	rdi, rax
	call	___cxa_begin_catch
Ltmp329:
	lea	rdi, [rip + L_.str.132]
	call	__ZN6loguru15write_to_stderrEPKc
Ltmp330:

	call	___cxa_end_catch
	jmp	LBB199_10
LBB199_13:
Ltmp331:
	mov	rbx, rax
Ltmp332:
	call	___cxa_end_catch
Ltmp333:

	mov	rdi, rbx
	call	__Unwind_Resume
	ud2
LBB199_16:
Ltmp334:
	mov	rdi, rax
	call	___clang_call_terminate
Lfunc_end38:
	.cfi_endproc
	.section	__TEXT,__gcc_except_tab
	.p2align	2
GCC_except_table199:
Lexception38:
	.byte	255                     
	.byte	155                     
	.uleb128 Lttbase2-Lttbaseref2
Lttbaseref2:
	.byte	1                       
	.uleb128 Lcst_end38-Lcst_begin38
Lcst_begin38:
	.uleb128 Lfunc_begin38-Lfunc_begin38 
	.uleb128 Ltmp326-Lfunc_begin38  
	.byte	0                       
	.byte	0                       
	.uleb128 Ltmp326-Lfunc_begin38  
	.uleb128 Ltmp327-Ltmp326        
	.uleb128 Ltmp328-Lfunc_begin38  
	.byte	1                       
	.uleb128 Ltmp327-Lfunc_begin38  
	.uleb128 Ltmp329-Ltmp327        
	.byte	0                       
	.byte	0                       
	.uleb128 Ltmp329-Lfunc_begin38  
	.uleb128 Ltmp330-Ltmp329        
	.uleb128 Ltmp331-Lfunc_begin38  
	.byte	0                       
	.uleb128 Ltmp330-Lfunc_begin38  
	.uleb128 Ltmp332-Ltmp330        
	.byte	0                       
	.byte	0                       
	.uleb128 Ltmp332-Lfunc_begin38  
	.uleb128 Ltmp333-Ltmp332        
	.uleb128 Ltmp334-Lfunc_begin38  
	.byte	1                       
	.uleb128 Ltmp333-Lfunc_begin38  
	.uleb128 Lfunc_end38-Ltmp333    
	.byte	0                       
	.byte	0                       
Lcst_end38:
	.byte	1                       
                                        
	.byte	0                       
	.p2align	2
                                        
	.long	0                       
Lttbase2:
	.p2align	2
                                        
	.section	__TEXT,__text,regular,pure_instructions
	.globl	__ZN6loguru13SignalOptionsC1Ev 
	.weak_def_can_be_hidden	__ZN6loguru13SignalOptionsC1Ev
	.p2align	4, 0x90
__ZN6loguru13SignalOptionsC1Ev:         

	push	rbp
	mov	rbp, rsp
	call	__ZN6loguru13SignalOptionsC2Ev
	pop	rbp
	ret
                                        
	.globl	__ZN6loguru13SignalOptionsC2Ev 
	.weak_def_can_be_hidden	__ZN6loguru13SignalOptionsC2Ev
	.p2align	4, 0x90
__ZN6loguru13SignalOptionsC2Ev:         

	push	rbp
	mov	rbp, rsp
	movabs	rax, 72340172838076673
	mov	qword ptr [rdi], rax
	pop	rbp
	ret
                                        
	.globl	__ZN6loguru4TextC2EPc   
	.weak_def_can_be_hidden	__ZN6loguru4TextC2EPc
	.p2align	4, 0x90
__ZN6loguru4TextC2EPc:                  

	push	rbp
	mov	rbp, rsp
	mov	qword ptr [rdi], rsi
	pop	rbp
	ret
                                        
	.p2align	4, 0x90         
__ZNKSt3__112basic_stringIcNS_11char_traitsIcEENS_9allocatorIcEEE5beginEv: 

	push	rbp
	mov	rbp, rsp
	sub	rsp, 16
	call	__ZNKSt3__112basic_stringIcNS_11char_traitsIcEENS_9allocatorIcEEE13__get_pointerEv
	lea	rdi, [rbp - 8]
	mov	rsi, rax
	call	__ZNSt3__111__wrap_iterIPKcEC1ES2_
	mov	rax, qword ptr [rbp - 8]
	add	rsp, 16
	pop	rbp
	ret
                                        
	.p2align	4, 0x90         
__ZNKSt3__112basic_stringIcNS_11char_traitsIcEENS_9allocatorIcEEE3endEv: 

	push	rbp
	mov	rbp, rsp
	push	r14
	push	rbx
	sub	rsp, 16
	mov	rbx, rdi
	call	__ZNKSt3__112basic_stringIcNS_11char_traitsIcEENS_9allocatorIcEEE13__get_pointerEv
	mov	r14, rax
	mov	rdi, rbx
	call	__ZNKSt3__112basic_stringIcNS_11char_traitsIcEENS_9allocatorIcEEE4sizeEv
	lea	rsi, [rax + r14]
	lea	rdi, [rbp - 24]
	call	__ZNSt3__111__wrap_iterIPKcEC1ES2_
	mov	rax, qword ptr [rbp - 24]
	add	rsp, 16
	pop	rbx
	pop	r14
	pop	rbp
	ret
                                        
	.p2align	4, 0x90         
__ZNSt3__1neIPKcEEbRKNS_11__wrap_iterIT_EES7_: 

	push	rbp
	mov	rbp, rsp
	call	__ZNSt3__1eqIPKcS2_EEbRKNS_11__wrap_iterIT_EERKNS3_IT0_EE
	xor	al, 1
	pop	rbp
	ret
                                        
	.p2align	4, 0x90         
__ZNKSt3__111__wrap_iterIPKcEdeEv:      

	push	rbp
	mov	rbp, rsp
	mov	rax, qword ptr [rdi]
	pop	rbp
	ret
                                        
	.p2align	4, 0x90         
__ZN6loguruL14write_hex_byteERNSt3__112basic_stringIcNS0_11char_traitsIcEENS0_9allocatorIcEEEEh: 
	.cfi_startproc

	push	rbp
	.cfi_def_cfa_offset 16
	.cfi_offset rbp, -16
	mov	rbp, rsp
	.cfi_def_cfa_register rbp
	push	rbx
	push	rax
	.cfi_offset rbx, -24
	mov	ebx, edi
	shr	edi, 4
	call	__ZN6loguruL15write_hex_digitERNSt3__112basic_stringIcNS0_11char_traitsIcEENS0_9allocatorIcEEEEj
	and	ebx, 15
	mov	edi, ebx
	call	__ZN6loguruL15write_hex_digitERNSt3__112basic_stringIcNS0_11char_traitsIcEENS0_9allocatorIcEEEEj
	add	rsp, 8
	pop	rbx
	pop	rbp
	ret
	.cfi_endproc
                                        
	.p2align	4, 0x90         
__ZNSt3__111__wrap_iterIPKcEppEv:       

	push	rbp
	mov	rbp, rsp
	inc	qword ptr [rdi]
	pop	rbp
	ret
                                        
	.p2align	4, 0x90         
__ZNKSt3__112basic_stringIcNS_11char_traitsIcEENS_9allocatorIcEEE13__get_pointerEv: 

	push	rbp
	mov	rbp, rsp
	push	rbx
	push	rax
	mov	rbx, rdi
	call	__ZNKSt3__112basic_stringIcNS_11char_traitsIcEENS_9allocatorIcEEE9__is_longEv
	mov	rdi, rbx
	test	al, al
	je	LBB209_2

	call	__ZNKSt3__112basic_stringIcNS_11char_traitsIcEENS_9allocatorIcEEE18__get_long_pointerEv
	jmp	LBB209_3
LBB209_2:
	call	__ZNKSt3__112basic_stringIcNS_11char_traitsIcEENS_9allocatorIcEEE19__get_short_pointerEv
LBB209_3:
	add	rsp, 8
	pop	rbx
	pop	rbp
	ret
                                        
	.p2align	4, 0x90         
__ZNSt3__111__wrap_iterIPKcEC1ES2_:     

	push	rbp
	mov	rbp, rsp
	call	__ZNSt3__111__wrap_iterIPKcEC2ES2_
	pop	rbp
	ret
                                        
	.p2align	4, 0x90         
__ZNKSt3__112basic_stringIcNS_11char_traitsIcEENS_9allocatorIcEEE9__is_longEv: 

	push	rbp
	mov	rbp, rsp
	call	__ZNKSt3__117__compressed_pairINS_12basic_stringIcNS_11char_traitsIcEENS_9allocatorIcEEE5__repES5_E5firstEv
	mov	al, byte ptr [rax]
	and	al, 1
	pop	rbp
	ret
                                        
	.p2align	4, 0x90         
__ZNKSt3__112basic_stringIcNS_11char_traitsIcEENS_9allocatorIcEEE18__get_long_pointerEv: 

	push	rbp
	mov	rbp, rsp
	call	__ZNKSt3__117__compressed_pairINS_12basic_stringIcNS_11char_traitsIcEENS_9allocatorIcEEE5__repES5_E5firstEv
	mov	rax, qword ptr [rax + 16]
	pop	rbp
	ret
                                        
	.p2align	4, 0x90         
__ZNKSt3__112basic_stringIcNS_11char_traitsIcEENS_9allocatorIcEEE19__get_short_pointerEv: 

	push	rbp
	mov	rbp, rsp
	call	__ZNKSt3__117__compressed_pairINS_12basic_stringIcNS_11char_traitsIcEENS_9allocatorIcEEE5__repES5_E5firstEv
	lea	rdi, [rax + 1]
	call	__ZNSt3__114pointer_traitsIPKcE10pointer_toERS1_
	pop	rbp
	ret
                                        
	.p2align	4, 0x90         
__ZNKSt3__117__compressed_pairINS_12basic_stringIcNS_11char_traitsIcEENS_9allocatorIcEEE5__repES5_E5firstEv: 

	push	rbp
	mov	rbp, rsp
	call	__ZNKSt3__122__compressed_pair_elemINS_12basic_stringIcNS_11char_traitsIcEENS_9allocatorIcEEE5__repELi0ELb0EE5__getEv
	pop	rbp
	ret
                                        
	.p2align	4, 0x90         
__ZNKSt3__122__compressed_pair_elemINS_12basic_stringIcNS_11char_traitsIcEENS_9allocatorIcEEE5__repELi0ELb0EE5__getEv: 

	push	rbp
	mov	rbp, rsp
	mov	rax, rdi
	pop	rbp
	ret
                                        
	.p2align	4, 0x90         
__ZNSt3__114pointer_traitsIPKcE10pointer_toERS1_: 

	push	rbp
	mov	rbp, rsp
	call	__ZNSt3__1L9addressofIKcEEPT_RS2_
	pop	rbp
	ret
                                        
	.p2align	4, 0x90         
__ZNSt3__1L9addressofIKcEEPT_RS2_:      

	push	rbp
	mov	rbp, rsp
	mov	rax, rdi
	pop	rbp
	ret
                                        
	.p2align	4, 0x90         
__ZNSt3__111__wrap_iterIPKcEC2ES2_:     

	push	rbp
	mov	rbp, rsp
	mov	qword ptr [rdi], rsi
	pop	rbp
	ret
                                        
	.p2align	4, 0x90         
__ZNSt3__1eqIPKcS2_EEbRKNS_11__wrap_iterIT_EERKNS3_IT0_EE: 

	push	rbp
	mov	rbp, rsp
	push	r14
	push	rbx
	mov	r14, rsi
	call	__ZNKSt3__111__wrap_iterIPKcE4baseEv
	mov	rbx, rax
	mov	rdi, r14
	call	__ZNKSt3__111__wrap_iterIPKcE4baseEv
	cmp	rbx, rax
	sete	al
	pop	rbx
	pop	r14
	pop	rbp
	ret
                                        
	.p2align	4, 0x90         
__ZNKSt3__111__wrap_iterIPKcE4baseEv:   

	push	rbp
	mov	rbp, rsp
	mov	rax, qword ptr [rdi]
	pop	rbp
	ret
                                        
	.p2align	4, 0x90         
__ZN6loguruL15write_hex_digitERNSt3__112basic_stringIcNS0_11char_traitsIcEENS0_9allocatorIcEEEEj: 
Lfunc_begin39:
	.cfi_startproc
	.cfi_personality 155, ___gxx_personality_v0
	.cfi_lsda 16, Lexception39

	push	rbp
	.cfi_def_cfa_offset 16
	.cfi_offset rbp, -16
	mov	rbp, rsp
	.cfi_def_cfa_register rbp
	push	rbx
	sub	rsp, 56
	.cfi_offset rbx, -24
	mov	dword ptr [rbp - 16], edi
	mov	dword ptr [rbp - 12], 16
	cmp	edi, 16
	jae	LBB221_1

	cmp	edi, 10
	mov	eax, 48
	mov	ecx, 55
	cmovb	ecx, eax
	add	cl, dil
	movsx	esi, cl
	lea	rdi, [rip + __ZN6loguruL11s_argumentsE]
	call	__ZNSt3__112basic_stringIcNS_11char_traitsIcEENS_9allocatorIcEEE9push_backEc
	add	rsp, 56
	pop	rbx
	pop	rbp
	ret
LBB221_1:
	lea	rdi, [rbp - 48]
	lea	rsi, [rbp - 16]
	call	__ZN6loguru12format_valueIjEENS_4TextERKT_
Ltmp335:
	lea	rdi, [rbp - 40]
	lea	rsi, [rbp - 12]
	call	__ZN6loguru12format_valueIjEENS_4TextERKT_
Ltmp336:

	lea	rdi, [rbp - 48]
	call	__ZNK6loguru4Text5c_strEv
	mov	rbx, rax
	lea	rdi, [rbp - 40]
	call	__ZNK6loguru4Text5c_strEv
Ltmp338:
	mov	qword ptr [rsp + 8], rax
	lea	rcx, [rip + L_.str.153]
	mov	qword ptr [rsp], rcx
	lea	rsi, [rip + L_.str.23]
	lea	rdx, [rip + L_.str.152]
	lea	r8, [rip + L_.str.154]
	lea	rdi, [rbp - 32]
	mov	r9, rbx
	xor	eax, eax
	call	__ZN6loguru10textprintfEPKcz
Ltmp339:

Ltmp341:
	lea	rdi, [rbp - 24]
	call	__ZN6loguru10textprintfEv
Ltmp342:

	lea	rdi, [rbp - 32]
	call	__ZNK6loguru4Text5c_strEv
	mov	rbx, rax
	lea	rdi, [rbp - 24]
	call	__ZNK6loguru4Text5c_strEv
Ltmp344:
	lea	rdx, [rip + L_.str.28]
	lea	r8, [rip + L_.str.29]
	xor	edi, edi
	mov	rsi, rbx
	mov	ecx, 534
	mov	r9, rax
	xor	eax, eax
	call	__ZN6loguru13log_and_abortEiPKcS1_jS1_z
Ltmp345:

	ud2
LBB221_9:
Ltmp346:
	mov	rbx, rax
	lea	rdi, [rbp - 24]
	call	__ZN6loguru4TextD1Ev
	jmp	LBB221_10
LBB221_8:
Ltmp343:
	mov	rbx, rax
LBB221_10:
	lea	rdi, [rbp - 32]
	call	__ZN6loguru4TextD1Ev
	jmp	LBB221_11
LBB221_7:
Ltmp340:
	mov	rbx, rax
LBB221_11:
	lea	rdi, [rbp - 40]
	call	__ZN6loguru4TextD1Ev
	jmp	LBB221_12
LBB221_6:
Ltmp337:
	mov	rbx, rax
LBB221_12:
	lea	rdi, [rbp - 48]
	call	__ZN6loguru4TextD1Ev
	mov	rdi, rbx
	call	__Unwind_Resume
	ud2
Lfunc_end39:
	.cfi_endproc
	.section	__TEXT,__gcc_except_tab
	.p2align	2
GCC_except_table221:
Lexception39:
	.byte	255                     
	.byte	255                     
	.byte	1                       
	.uleb128 Lcst_end39-Lcst_begin39
Lcst_begin39:
	.uleb128 Lfunc_begin39-Lfunc_begin39 
	.uleb128 Ltmp335-Lfunc_begin39  
	.byte	0                       
	.byte	0                       
	.uleb128 Ltmp335-Lfunc_begin39  
	.uleb128 Ltmp336-Ltmp335        
	.uleb128 Ltmp337-Lfunc_begin39  
	.byte	0                       
	.uleb128 Ltmp338-Lfunc_begin39  
	.uleb128 Ltmp339-Ltmp338        
	.uleb128 Ltmp340-Lfunc_begin39  
	.byte	0                       
	.uleb128 Ltmp341-Lfunc_begin39  
	.uleb128 Ltmp342-Ltmp341        
	.uleb128 Ltmp343-Lfunc_begin39  
	.byte	0                       
	.uleb128 Ltmp344-Lfunc_begin39  
	.uleb128 Ltmp345-Ltmp344        
	.uleb128 Ltmp346-Lfunc_begin39  
	.byte	0                       
	.uleb128 Ltmp345-Lfunc_begin39  
	.uleb128 Lfunc_end39-Ltmp345    
	.byte	0                       
	.byte	0                       
Lcst_end39:
	.p2align	2
                                        
	.section	__TEXT,__text,regular,pure_instructions
	.p2align	4, 0x90         
__ZNSt3__1L7isalphaIcEEbT_RKNS_6localeE: 
	.cfi_startproc

	push	rbp
	.cfi_def_cfa_offset 16
	.cfi_offset rbp, -16
	mov	rbp, rsp
	.cfi_def_cfa_register rbp
	push	rbx
	push	rax
	.cfi_offset rbx, -24
	mov	ebx, edi
	mov	rdi, rsi
	call	__ZNSt3__1L9use_facetINS_5ctypeIcEEEERKT_RKNS_6localeE
	mov	rdi, rax
	mov	esi, 256
	mov	edx, ebx
	call	__ZNKSt3__15ctypeIcE2isEjc
	add	rsp, 8
	pop	rbx
	pop	rbp
	ret
	.cfi_endproc
                                        
	.p2align	4, 0x90         
__ZNSt3__1L9use_facetINS_5ctypeIcEEEERKT_RKNS_6localeE: 
	.cfi_startproc

	push	rbp
	.cfi_def_cfa_offset 16
	.cfi_offset rbp, -16
	mov	rbp, rsp
	.cfi_def_cfa_register rbp
	mov	rsi, qword ptr [rip + __ZNSt3__15ctypeIcE2idE@GOTPCREL]
	call	__ZNKSt3__16locale9use_facetERNS0_2idE
	pop	rbp
	ret
	.cfi_endproc
                                        
	.p2align	4, 0x90         
__ZNKSt3__15ctypeIcE2isEjc:             

	push	rbp
	mov	rbp, rsp
	push	r15
	push	r14
	push	rbx
	push	rax
	mov	ebx, edx
	mov	r14d, esi
	mov	r15, rdi
	mov	edi, edx
	call	__Z7isasciii
	test	eax, eax
	je	LBB224_1

	mov	rax, qword ptr [r15 + 16]
	movsx	rcx, bl
	test	dword ptr [rax + 4*rcx], r14d
	setne	al
	jmp	LBB224_3
LBB224_1:
	xor	eax, eax
LBB224_3:
                                        
	add	rsp, 8
	pop	rbx
	pop	r14
	pop	r15
	pop	rbp
	ret
                                        
	.globl	__Z7isasciii            
	.weak_def_can_be_hidden	__Z7isasciii
	.p2align	4, 0x90
__Z7isasciii:                           

	push	rbp
	mov	rbp, rsp
	xor	eax, eax
	cmp	edi, 128
	setb	al
	pop	rbp
	ret
                                        
	.p2align	4, 0x90         
__ZNKSt3__16chrono15__duration_castINS0_8durationIxNS_5ratioILl1ELl1000000EEEEENS2_IxNS3_ILl1ELl1000EEEEES6_Lb1ELb0EEclERKS5_: 

	push	rbp
	mov	rbp, rsp
	sub	rsp, 16
	call	__ZNKSt3__16chrono8durationIxNS_5ratioILl1ELl1000000EEEE5countEv
	movabs	rcx, 2361183241434822607
	imul	rcx
	mov	rax, rdx
	shr	rax, 63
	sar	rdx, 7
	add	rdx, rax
	mov	qword ptr [rbp - 8], rdx
	lea	rdi, [rbp - 16]
	lea	rsi, [rbp - 8]
	call	__ZNSt3__16chrono8durationIxNS_5ratioILl1ELl1000EEEEC1IxEERKT_PNS_9enable_ifIXaasr14is_convertibleIS6_xEE5valueooL_ZNS_17integral_constantIbLb0EE5valueEEntsr23treat_as_floating_pointIS6_EE5valueEvE4typeE
	mov	rax, qword ptr [rbp - 16]
	add	rsp, 16
	pop	rbp
	ret
                                        
	.p2align	4, 0x90         
__ZNKSt3__16chrono8durationIxNS_5ratioILl1ELl1000000EEEE5countEv: 

	push	rbp
	mov	rbp, rsp
	mov	rax, qword ptr [rdi]
	pop	rbp
	ret
                                        
	.p2align	4, 0x90         
__ZNSt3__16chrono8durationIxNS_5ratioILl1ELl1000EEEEC1IxEERKT_PNS_9enable_ifIXaasr14is_convertibleIS6_xEE5valueooL_ZNS_17integral_constantIbLb0EE5valueEEntsr23treat_as_floating_pointIS6_EE5valueEvE4typeE: 

	push	rbp
	mov	rbp, rsp
	call	__ZNSt3__16chrono8durationIxNS_5ratioILl1ELl1000EEEEC2IxEERKT_PNS_9enable_ifIXaasr14is_convertibleIS6_xEE5valueooL_ZNS_17integral_constantIbLb0EE5valueEEntsr23treat_as_floating_pointIS6_EE5valueEvE4typeE
	pop	rbp
	ret
                                        
	.p2align	4, 0x90         
__ZNSt3__16chrono8durationIxNS_5ratioILl1ELl1000EEEEC2IxEERKT_PNS_9enable_ifIXaasr14is_convertibleIS6_xEE5valueooL_ZNS_17integral_constantIbLb0EE5valueEEntsr23treat_as_floating_pointIS6_EE5valueEvE4typeE: 

	push	rbp
	mov	rbp, rsp
	mov	rax, qword ptr [rsi]
	mov	qword ptr [rdi], rax
	pop	rbp
	ret
                                        
	.p2align	4, 0x90         
__ZL15__libcpp_strchrPKci:              

	push	rbp
	mov	rbp, rsp
	mov	esi, 47
	call	_strchr
	pop	rbp
	ret
                                        
	.p2align	4, 0x90         
__ZNSt3__14pairINS_12basic_stringIcNS_11char_traitsIcEENS_9allocatorIcEEEES6_EC2IRPKcSB_Lb0EEEOT_OT0_: 
Lfunc_begin40:
	.cfi_startproc
	.cfi_personality 155, ___gxx_personality_v0
	.cfi_lsda 16, Lexception40

	push	rbp
	.cfi_def_cfa_offset 16
	.cfi_offset rbp, -16
	mov	rbp, rsp
	.cfi_def_cfa_register rbp
	push	r15
	push	r14
	push	rbx
	push	rax
	.cfi_offset rbx, -40
	.cfi_offset r14, -32
	.cfi_offset r15, -24
	mov	r14, rdx
	mov	r15, rdi
	mov	rdi, rsi
	call	__ZNSt3__1L7forwardIRPKcEEOT_RNS_16remove_referenceIS4_E4typeE
	mov	rsi, qword ptr [rax]
	mov	rdi, r15
	call	__ZNSt3__112basic_stringIcNS_11char_traitsIcEENS_9allocatorIcEEEC1IDnEEPKc
	lea	rbx, [r15 + 24]
	mov	rdi, r14
	call	__ZNSt3__1L7forwardIRPKcEEOT_RNS_16remove_referenceIS4_E4typeE
	mov	rsi, qword ptr [rax]
Ltmp347:
	mov	rdi, rbx
	call	__ZNSt3__112basic_stringIcNS_11char_traitsIcEENS_9allocatorIcEEEC1IDnEEPKc
Ltmp348:

	add	rsp, 8
	pop	rbx
	pop	r14
	pop	r15
	pop	rbp
	ret
LBB231_2:
Ltmp349:
	mov	rbx, rax
	mov	rdi, r15
	call	__ZNSt3__112basic_stringIcNS_11char_traitsIcEENS_9allocatorIcEEED1Ev
	mov	rdi, rbx
	call	__Unwind_Resume
	ud2
Lfunc_end40:
	.cfi_endproc
	.section	__TEXT,__gcc_except_tab
	.p2align	2
GCC_except_table231:
Lexception40:
	.byte	255                     
	.byte	255                     
	.byte	1                       
	.uleb128 Lcst_end40-Lcst_begin40
Lcst_begin40:
	.uleb128 Lfunc_begin40-Lfunc_begin40 
	.uleb128 Ltmp347-Lfunc_begin40  
	.byte	0                       
	.byte	0                       
	.uleb128 Ltmp347-Lfunc_begin40  
	.uleb128 Ltmp348-Ltmp347        
	.uleb128 Ltmp349-Lfunc_begin40  
	.byte	0                       
	.uleb128 Ltmp348-Lfunc_begin40  
	.uleb128 Lfunc_end40-Ltmp348    
	.byte	0                       
	.byte	0                       
Lcst_end40:
	.p2align	2
                                        
	.section	__TEXT,__text,regular,pure_instructions
	.p2align	4, 0x90         
__ZNSt3__1L7forwardIRPKcEEOT_RNS_16remove_referenceIS4_E4typeE: 

	push	rbp
	mov	rbp, rsp
	mov	rax, rdi
	pop	rbp
	ret
                                        
	.globl	__ZNSt3__14pairINS_12basic_stringIcNS_11char_traitsIcEENS_9allocatorIcEEEES6_ED2Ev 
	.weak_def_can_be_hidden	__ZNSt3__14pairINS_12basic_stringIcNS_11char_traitsIcEENS_9allocatorIcEEEES6_ED2Ev
	.p2align	4, 0x90
__ZNSt3__14pairINS_12basic_stringIcNS_11char_traitsIcEENS_9allocatorIcEEEES6_ED2Ev: 

	push	rbp
	mov	rbp, rsp
	push	rbx
	push	rax
	mov	rbx, rdi
	add	rdi, 24
	call	__ZNSt3__112basic_stringIcNS_11char_traitsIcEENS_9allocatorIcEEED1Ev
	mov	rdi, rbx
	call	__ZNSt3__112basic_stringIcNS_11char_traitsIcEENS_9allocatorIcEEED1Ev
	add	rsp, 8
	pop	rbx
	pop	rbp
	ret
                                        
	.globl	__ZN6loguru8CallbackD2Ev 
	.weak_def_can_be_hidden	__ZN6loguru8CallbackD2Ev
	.p2align	4, 0x90
__ZN6loguru8CallbackD2Ev:               

	push	rbp
	mov	rbp, rsp
	call	__ZNSt3__112basic_stringIcNS_11char_traitsIcEENS_9allocatorIcEEED1Ev
	pop	rbp
	ret
                                        
	.p2align	4, 0x90         
__ZNSt3__1L3maxIiEERKT_S3_S3_:          

	push	rbp
	mov	rbp, rsp
	call	__ZNSt3__1L3maxIiNS_6__lessIiiEEEERKT_S5_S5_T0_
	pop	rbp
	ret
                                        
	.p2align	4, 0x90         
__ZNSt3__1L3maxIiNS_6__lessIiiEEEERKT_S5_S5_T0_: 

	push	rbp
	mov	rbp, rsp
	push	rbx
	push	rax
	mov	rbx, rdi
	call	__ZNKSt3__16__lessIiiEclERKiS3_
	lea	rcx, [rip + __ZN6loguruL19s_max_out_verbosityE]
	test	al, al
	cmovne	rcx, rbx
	mov	rax, rcx
	add	rsp, 8
	pop	rbx
	pop	rbp
	ret
                                        
	.p2align	4, 0x90         
__ZNKSt3__16__lessIiiEclERKiS3_:        

	push	rbp
	mov	rbp, rsp
	mov	eax, dword ptr [rip + __ZN6loguruL19s_max_out_verbosityE]
	cmp	eax, dword ptr [rdi]
	setl	al
	pop	rbp
	ret
                                        
	.p2align	4, 0x90         
__ZNSt3__1eqIPN6loguru8CallbackES3_EEbRKNS_11__wrap_iterIT_EERKNS4_IT0_EE: 

	push	rbp
	mov	rbp, rsp
	push	r14
	push	rbx
	mov	r14, rsi
	call	__ZNKSt3__111__wrap_iterIPN6loguru8CallbackEE4baseEv
	mov	rbx, rax
	mov	rdi, r14
	call	__ZNKSt3__111__wrap_iterIPN6loguru8CallbackEE4baseEv
	cmp	rbx, rax
	sete	al
	pop	rbx
	pop	r14
	pop	rbp
	ret
                                        
	.p2align	4, 0x90         
__ZNKSt3__111__wrap_iterIPN6loguru8CallbackEE4baseEv: 

	push	rbp
	mov	rbp, rsp
	mov	rax, qword ptr [rdi]
	pop	rbp
	ret
                                        
	.p2align	4, 0x90         
__ZNSt3__1L9addressofIN6loguru8CallbackEEEPT_RS3_: 

	push	rbp
	mov	rbp, rsp
	mov	rax, rdi
	pop	rbp
	ret
                                        
	.p2align	4, 0x90         
__ZNSt3__111__wrap_iterIPKN6loguru8CallbackEEC2IPS2_EERKNS0_IT_EEPNS_9enable_ifIXsr14is_convertibleIS8_S4_EE5valueEvE4typeE: 

	push	rbp
	mov	rbp, rsp
	push	rbx
	push	rax
	mov	rbx, rdi
	mov	rdi, rsi
	call	__ZNKSt3__111__wrap_iterIPN6loguru8CallbackEE4baseEv
	mov	qword ptr [rbx], rax
	add	rsp, 8
	pop	rbx
	pop	rbp
	ret
                                        
	.p2align	4, 0x90         
__ZNSt3__14pairINS_12basic_stringIcNS_11char_traitsIcEENS_9allocatorIcEEEES6_EC2IS6_RA12_KcLb0EEEOT_OT0_: 
Lfunc_begin41:
	.cfi_startproc
	.cfi_personality 155, ___gxx_personality_v0
	.cfi_lsda 16, Lexception41

	push	rbp
	.cfi_def_cfa_offset 16
	.cfi_offset rbp, -16
	mov	rbp, rsp
	.cfi_def_cfa_register rbp
	push	r14
	push	rbx
	.cfi_offset rbx, -32
	.cfi_offset r14, -24
	mov	rbx, rdi
	mov	rdi, rsi
	call	__ZNSt3__1L7forwardINS_12basic_stringIcNS_11char_traitsIcEENS_9allocatorIcEEEEEEOT_RNS_16remove_referenceIS7_E4typeE
	mov	rdi, rbx
	mov	rsi, rax
	call	__ZNSt3__112basic_stringIcNS_11char_traitsIcEENS_9allocatorIcEEEC1EOS5_
	lea	rdi, [rbx + 24]
Ltmp350:
	lea	rsi, [rip + L_.str.88]
	call	__ZNSt3__112basic_stringIcNS_11char_traitsIcEENS_9allocatorIcEEEC1IDnEEPKc
Ltmp351:

	pop	rbx
	pop	r14
	pop	rbp
	ret
LBB242_2:
Ltmp352:
	mov	r14, rax
	mov	rdi, rbx
	call	__ZNSt3__112basic_stringIcNS_11char_traitsIcEENS_9allocatorIcEEED1Ev
	mov	rdi, r14
	call	__Unwind_Resume
	ud2
Lfunc_end41:
	.cfi_endproc
	.section	__TEXT,__gcc_except_tab
	.p2align	2
GCC_except_table242:
Lexception41:
	.byte	255                     
	.byte	255                     
	.byte	1                       
	.uleb128 Lcst_end41-Lcst_begin41
Lcst_begin41:
	.uleb128 Ltmp350-Lfunc_begin41  
	.uleb128 Ltmp351-Ltmp350        
	.uleb128 Ltmp352-Lfunc_begin41  
	.byte	0                       
	.uleb128 Ltmp351-Lfunc_begin41  
	.uleb128 Lfunc_end41-Ltmp351    
	.byte	0                       
	.byte	0                       
Lcst_end41:
	.p2align	2
                                        
	.section	__TEXT,__text,regular,pure_instructions
	.p2align	4, 0x90         
__ZNSt3__1L7forwardINS_12basic_stringIcNS_11char_traitsIcEENS_9allocatorIcEEEEEEOT_RNS_16remove_referenceIS7_E4typeE: 

	push	rbp
	mov	rbp, rsp
	mov	rax, rdi
	pop	rbp
	ret
                                        
	.p2align	4, 0x90         
__ZNSt3__112basic_stringIcNS_11char_traitsIcEENS_9allocatorIcEEEC1EOS5_: 

	push	rbp
	mov	rbp, rsp
	call	__ZNSt3__112basic_stringIcNS_11char_traitsIcEENS_9allocatorIcEEEC2EOS5_
	pop	rbp
	ret
