	.section	__TEXT,__text,regular,pure_instructions
	.build_version macos, 11, 0	sdk_version 11, 1
	.intel_syntax noprefix
	.section	__TEXT,__StaticInit,regular,pure_instructions
	.p2align	4, 0x90         
___cxx_global_var_init:                 
	.cfi_startproc

	push	rbp
	.cfi_def_cfa_offset 16
	.cfi_offset rbp, -16
	mov	rbp, rsp
	.cfi_def_cfa_register rbp
	call	__ZNSt3__16chrono12steady_clock3nowEv
	mov	qword ptr [rip + __ZN6loguruL12s_start_timeE], rax
	pop	rbp
	ret
	.cfi_endproc
                                        
	.p2align	4, 0x90         
___cxx_global_var_init.1:               
	.cfi_startproc

	push	rbp
	.cfi_def_cfa_offset 16
	.cfi_offset rbp, -16
	mov	rbp, rsp
	.cfi_def_cfa_register rbp
	lea	rdi, [rip + __ZN6loguruL7s_mutexE]
	call	__ZNSt3__115recursive_mutexC1Ev
	mov	rax, qword ptr [rip + __ZNSt3__115recursive_mutexD1Ev@GOTPCREL]
	lea	rcx, [rip + __ZN6loguruL7s_mutexE]
	mov	rdi, rax
	mov	rsi, rcx
	lea	rdx, [rip + ___dso_handle]
	call	___cxa_atexit
	pop	rbp
	ret
	.cfi_endproc
                                        
	.p2align	4, 0x90         
___cxx_global_var_init.2:               
	.cfi_startproc

	push	rbp
	.cfi_def_cfa_offset 16
	.cfi_offset rbp, -16
	mov	rbp, rsp
	.cfi_def_cfa_register rbp
	lea	rdi, [rip + __ZN6loguruL16s_argv0_filenameE]
	call	__ZNSt3__112basic_stringIcNS_11char_traitsIcEENS_9allocatorIcEEEC1Ev
	mov	rax, qword ptr [rip + __ZNSt3__112basic_stringIcNS_11char_traitsIcEENS_9allocatorIcEEED1Ev@GOTPCREL]
	lea	rcx, [rip + __ZN6loguruL16s_argv0_filenameE]
	mov	rdi, rax
	mov	rsi, rcx
	lea	rdx, [rip + ___dso_handle]
	call	___cxa_atexit
	pop	rbp
	ret
	.cfi_endproc
                                        
	.section	__TEXT,__text,regular,pure_instructions
	.p2align	4, 0x90         
__ZNSt3__112basic_stringIcNS_11char_traitsIcEENS_9allocatorIcEEEC1Ev: 

	push	rbp
	mov	rbp, rsp
	sub	rsp, 16
	mov	qword ptr [rbp - 8], rdi
	mov	rdi, qword ptr [rbp - 8]
	call	__ZNSt3__112basic_stringIcNS_11char_traitsIcEENS_9allocatorIcEEEC2Ev
	add	rsp, 16
	pop	rbp
	ret
                                        
	.section	__TEXT,__StaticInit,regular,pure_instructions
	.p2align	4, 0x90         
___cxx_global_var_init.3:               
	.cfi_startproc

	push	rbp
	.cfi_def_cfa_offset 16
	.cfi_offset rbp, -16
	mov	rbp, rsp
	.cfi_def_cfa_register rbp
	lea	rdi, [rip + __ZN6loguruL11s_argumentsE]
	call	__ZNSt3__112basic_stringIcNS_11char_traitsIcEENS_9allocatorIcEEEC1Ev
	mov	rax, qword ptr [rip + __ZNSt3__112basic_stringIcNS_11char_traitsIcEENS_9allocatorIcEEED1Ev@GOTPCREL]
	lea	rcx, [rip + __ZN6loguruL11s_argumentsE]
	mov	rdi, rax
	mov	rsi, rcx
	lea	rdx, [rip + ___dso_handle]
	call	___cxa_atexit
	pop	rbp
	ret
	.cfi_endproc
                                        
	.p2align	4, 0x90         
___cxx_global_var_init.4:               
	.cfi_startproc

	push	rbp
	.cfi_def_cfa_offset 16
	.cfi_offset rbp, -16
	mov	rbp, rsp
	.cfi_def_cfa_register rbp
	lea	rdi, [rip + __ZN6loguruL11s_callbacksE]
	call	__ZNSt3__16vectorIN6loguru8CallbackENS_9allocatorIS2_EEEC1Ev
	lea	rax, [rip + __ZNSt3__16vectorIN6loguru8CallbackENS_9allocatorIS2_EEED1Ev]
	lea	rcx, [rip + __ZN6loguruL11s_callbacksE]
	mov	rdi, rax
	mov	rsi, rcx
	lea	rdx, [rip + ___dso_handle]
	call	___cxa_atexit
	pop	rbp
	ret
	.cfi_endproc
                                        
	.section	__TEXT,__text,regular,pure_instructions
	.p2align	4, 0x90         
__ZNSt3__16vectorIN6loguru8CallbackENS_9allocatorIS2_EEEC1Ev: 

	push	rbp
	mov	rbp, rsp
	sub	rsp, 16
	mov	qword ptr [rbp - 8], rdi
	mov	rdi, qword ptr [rbp - 8]
	call	__ZNSt3__16vectorIN6loguru8CallbackENS_9allocatorIS2_EEEC2Ev
	add	rsp, 16
	pop	rbp
	ret
                                        
	.p2align	4, 0x90         
__ZNSt3__16vectorIN6loguru8CallbackENS_9allocatorIS2_EEED1Ev: 

	push	rbp
	mov	rbp, rsp
	sub	rsp, 16
	mov	qword ptr [rbp - 8], rdi
	mov	rdi, qword ptr [rbp - 8]
	call	__ZNSt3__16vectorIN6loguru8CallbackENS_9allocatorIS2_EEED2Ev
	add	rsp, 16
	pop	rbp
	ret
                                        
	.section	__TEXT,__StaticInit,regular,pure_instructions
	.p2align	4, 0x90         
___cxx_global_var_init.5:               
	.cfi_startproc

	push	rbp
	.cfi_def_cfa_offset 16
	.cfi_offset rbp, -16
	mov	rbp, rsp
	.cfi_def_cfa_register rbp
	lea	rdi, [rip + __ZN6loguruL21s_user_stack_cleanupsE]
	call	__ZNSt3__16vectorINS_4pairINS_12basic_stringIcNS_11char_traitsIcEENS_9allocatorIcEEEES7_EENS5_IS8_EEEC1Ev
	lea	rax, [rip + __ZNSt3__16vectorINS_4pairINS_12basic_stringIcNS_11char_traitsIcEENS_9allocatorIcEEEES7_EENS5_IS8_EEED1Ev]
	lea	rcx, [rip + __ZN6loguruL21s_user_stack_cleanupsE]
	mov	rdi, rax
	mov	rsi, rcx
	lea	rdx, [rip + ___dso_handle]
	call	___cxa_atexit
	pop	rbp
	ret
	.cfi_endproc
                                        
	.section	__TEXT,__text,regular,pure_instructions
	.p2align	4, 0x90         
__ZNSt3__16vectorINS_4pairINS_12basic_stringIcNS_11char_traitsIcEENS_9allocatorIcEEEES7_EENS5_IS8_EEEC1Ev: 

	push	rbp
	mov	rbp, rsp
	sub	rsp, 16
	mov	qword ptr [rbp - 8], rdi
	mov	rdi, qword ptr [rbp - 8]
	call	__ZNSt3__16vectorINS_4pairINS_12basic_stringIcNS_11char_traitsIcEENS_9allocatorIcEEEES7_EENS5_IS8_EEEC2Ev
	add	rsp, 16
	pop	rbp
	ret
                                        
	.p2align	4, 0x90         
__ZNSt3__16vectorINS_4pairINS_12basic_stringIcNS_11char_traitsIcEENS_9allocatorIcEEEES7_EENS5_IS8_EEED1Ev: 

	push	rbp
	mov	rbp, rsp
	sub	rsp, 16
	mov	qword ptr [rbp - 8], rdi
	mov	rdi, qword ptr [rbp - 8]
	call	__ZNSt3__16vectorINS_4pairINS_12basic_stringIcNS_11char_traitsIcEENS_9allocatorIcEEEES7_EENS5_IS8_EEED2Ev
	add	rsp, 16
	pop	rbp
	ret
                                        
	.section	__TEXT,__StaticInit,regular,pure_instructions
	.p2align	4, 0x90         
___cxx_global_var_init.6:               
	.cfi_startproc

	push	rbp
	.cfi_def_cfa_offset 16
	.cfi_offset rbp, -16
	mov	rbp, rsp
	.cfi_def_cfa_register rbp
	call	__ZN6loguru13SignalOptions4noneEv
	mov	qword ptr [rip + __ZN6loguruL16s_signal_optionsE], rax
	pop	rbp
	ret
	.cfi_endproc
                                        
	.section	__TEXT,__text,regular,pure_instructions
	.globl	__ZN6loguru13SignalOptions4noneEv 
	.weak_definition	__ZN6loguru13SignalOptions4noneEv
	.p2align	4, 0x90
__ZN6loguru13SignalOptions4noneEv:      

	push	rbp
	mov	rbp, rsp
	sub	rsp, 16
	lea	rdi, [rbp - 8]
	call	__ZN6loguru13SignalOptionsC1Ev
	mov	byte ptr [rbp - 8], 0
	mov	byte ptr [rbp - 7], 0
	mov	byte ptr [rbp - 6], 0
	mov	byte ptr [rbp - 5], 0
	mov	byte ptr [rbp - 4], 0
	mov	byte ptr [rbp - 3], 0
	mov	byte ptr [rbp - 2], 0
	mov	byte ptr [rbp - 1], 0
	mov	rax, qword ptr [rbp - 8]
	add	rsp, 16
	pop	rbp
	ret
                                        
	.section	__TEXT,__StaticInit,regular,pure_instructions
	.p2align	4, 0x90         
___cxx_global_var_init.7:               
	.cfi_startproc

	push	rbp
	.cfi_def_cfa_offset 16
	.cfi_offset rbp, -16
	mov	rbp, rsp
	.cfi_def_cfa_register rbp
	sub	rsp, 16
	lea	rdi, [rbp - 8]
	call	__ZNK6loguru3$_0clEv
	and	al, 1
	mov	byte ptr [rip + __ZN6loguruL20s_terminal_has_colorE], al
	add	rsp, 16
	pop	rbp
	ret
	.cfi_endproc
                                        
	.section	__TEXT,__text,regular,pure_instructions
	.p2align	4, 0x90         
__ZNK6loguru3$_0clEv:                   
	.cfi_startproc

	push	rbp
	.cfi_def_cfa_offset 16
	.cfi_offset rbp, -16
	mov	rbp, rsp
	.cfi_def_cfa_register rbp
	sub	rsp, 80
	mov	qword ptr [rbp - 16], rdi
	mov	edi, 2
	call	_isatty
	cmp	eax, 0
	jne	LBB14_2

	mov	byte ptr [rbp - 1], 0
	jmp	LBB14_16
LBB14_2:
	lea	rdi, [rip + L_.str.133]
	call	_getenv
	mov	qword ptr [rbp - 24], rax
	cmp	qword ptr [rbp - 24], 0
	je	LBB14_15

	xor	eax, eax
	mov	rdi, qword ptr [rbp - 24]
	lea	rsi, [rip + L_.str.134]
	mov	dword ptr [rbp - 28], eax 
	call	_strcmp
	mov	ecx, dword ptr [rbp - 28] 
	cmp	ecx, eax
	mov	dl, 1
	mov	byte ptr [rbp - 29], dl 
	je	LBB14_14

	xor	eax, eax
	mov	rdi, qword ptr [rbp - 24]
	lea	rsi, [rip + L_.str.135]
	mov	dword ptr [rbp - 36], eax 
	call	_strcmp
	mov	ecx, dword ptr [rbp - 36] 
	cmp	ecx, eax
	mov	dl, 1
	mov	byte ptr [rbp - 29], dl 
	je	LBB14_14

	xor	eax, eax
	mov	rdi, qword ptr [rbp - 24]
	lea	rsi, [rip + L_.str.136]
	mov	dword ptr [rbp - 40], eax 
	call	_strcmp
	mov	ecx, dword ptr [rbp - 40] 
	cmp	ecx, eax
	mov	dl, 1
	mov	byte ptr [rbp - 29], dl 
	je	LBB14_14

	xor	eax, eax
	mov	rdi, qword ptr [rbp - 24]
	lea	rsi, [rip + L_.str.137]
	mov	dword ptr [rbp - 44], eax 
	call	_strcmp
	mov	ecx, dword ptr [rbp - 44] 
	cmp	ecx, eax
	mov	dl, 1
	mov	byte ptr [rbp - 29], dl 
	je	LBB14_14

	xor	eax, eax
	mov	rdi, qword ptr [rbp - 24]
	lea	rsi, [rip + L_.str.138]
	mov	dword ptr [rbp - 48], eax 
	call	_strcmp
	mov	ecx, dword ptr [rbp - 48] 
	cmp	ecx, eax
	mov	dl, 1
	mov	byte ptr [rbp - 29], dl 
	je	LBB14_14

	xor	eax, eax
	mov	rdi, qword ptr [rbp - 24]
	lea	rsi, [rip + L_.str.139]
	mov	dword ptr [rbp - 52], eax 
	call	_strcmp
	mov	ecx, dword ptr [rbp - 52] 
	cmp	ecx, eax
	mov	dl, 1
	mov	byte ptr [rbp - 29], dl 
	je	LBB14_14

	xor	eax, eax
	mov	rdi, qword ptr [rbp - 24]
	lea	rsi, [rip + L_.str.140]
	mov	dword ptr [rbp - 56], eax 
	call	_strcmp
	mov	ecx, dword ptr [rbp - 56] 
	cmp	ecx, eax
	mov	dl, 1
	mov	byte ptr [rbp - 29], dl 
	je	LBB14_14

	xor	eax, eax
	mov	rdi, qword ptr [rbp - 24]
	lea	rsi, [rip + L_.str.141]
	mov	dword ptr [rbp - 60], eax 
	call	_strcmp
	mov	ecx, dword ptr [rbp - 60] 
	cmp	ecx, eax
	mov	dl, 1
	mov	byte ptr [rbp - 29], dl 
	je	LBB14_14

	xor	eax, eax
	mov	rdi, qword ptr [rbp - 24]
	lea	rsi, [rip + L_.str.142]
	mov	dword ptr [rbp - 64], eax 
	call	_strcmp
	mov	ecx, dword ptr [rbp - 64] 
	cmp	ecx, eax
	mov	dl, 1
	mov	byte ptr [rbp - 29], dl 
	je	LBB14_14

	xor	eax, eax
	mov	rdi, qword ptr [rbp - 24]
	lea	rsi, [rip + L_.str.143]
	mov	dword ptr [rbp - 68], eax 
	call	_strcmp
	mov	ecx, dword ptr [rbp - 68] 
	cmp	ecx, eax
	mov	dl, 1
	mov	byte ptr [rbp - 29], dl 
	je	LBB14_14

	xor	eax, eax
	mov	rdi, qword ptr [rbp - 24]
	lea	rsi, [rip + L_.str.144]
	mov	dword ptr [rbp - 72], eax 
	call	_strcmp
	mov	ecx, dword ptr [rbp - 72] 
	cmp	ecx, eax
	sete	dl
	mov	byte ptr [rbp - 29], dl 
LBB14_14:
	mov	al, byte ptr [rbp - 29] 
	and	al, 1
	mov	byte ptr [rbp - 1], al
	jmp	LBB14_16
LBB14_15:
	mov	byte ptr [rbp - 1], 0
LBB14_16:
	mov	al, byte ptr [rbp - 1]
	and	al, 1
	movzx	eax, al
	add	rsp, 80
	pop	rbp
	ret
	.cfi_endproc
                                        
	.globl	__ZN6loguru18terminal_has_colorEv 
	.p2align	4, 0x90
__ZN6loguru18terminal_has_colorEv:      

	push	rbp
	mov	rbp, rsp
	mov	al, byte ptr [rip + __ZN6loguruL20s_terminal_has_colorE]
	and	al, 1
	movzx	eax, al
	pop	rbp
	ret
                                        
	.globl	__ZN6loguru14terminal_blackEv 
	.p2align	4, 0x90
__ZN6loguru14terminal_blackEv:          

	push	rbp
	mov	rbp, rsp
	mov	al, byte ptr [rip + __ZN6loguruL20s_terminal_has_colorE]
	test	al, 1
	lea	rcx, [rip + L_.str]
	lea	rdx, [rip + L_.str.8]
	cmovne	rdx, rcx
	mov	rax, rdx
	pop	rbp
	ret
                                        
	.globl	__ZN6loguru12terminal_redEv 
	.p2align	4, 0x90
__ZN6loguru12terminal_redEv:            

	push	rbp
	mov	rbp, rsp
	mov	al, byte ptr [rip + __ZN6loguruL20s_terminal_has_colorE]
	test	al, 1
	lea	rcx, [rip + L_.str.9]
	lea	rdx, [rip + L_.str.8]
	cmovne	rdx, rcx
	mov	rax, rdx
	pop	rbp
	ret
                                        
	.globl	__ZN6loguru14terminal_greenEv 
	.p2align	4, 0x90
__ZN6loguru14terminal_greenEv:          

	push	rbp
	mov	rbp, rsp
	mov	al, byte ptr [rip + __ZN6loguruL20s_terminal_has_colorE]
	test	al, 1
	lea	rcx, [rip + L_.str.10]
	lea	rdx, [rip + L_.str.8]
	cmovne	rdx, rcx
	mov	rax, rdx
	pop	rbp
	ret
                                        
	.globl	__ZN6loguru15terminal_yellowEv 
	.p2align	4, 0x90
__ZN6loguru15terminal_yellowEv:         

	push	rbp
	mov	rbp, rsp
	mov	al, byte ptr [rip + __ZN6loguruL20s_terminal_has_colorE]
	test	al, 1
	lea	rcx, [rip + L_.str.11]
	lea	rdx, [rip + L_.str.8]
	cmovne	rdx, rcx
	mov	rax, rdx
	pop	rbp
	ret
                                        
	.globl	__ZN6loguru13terminal_blueEv 
	.p2align	4, 0x90
__ZN6loguru13terminal_blueEv:           

	push	rbp
	mov	rbp, rsp
	mov	al, byte ptr [rip + __ZN6loguruL20s_terminal_has_colorE]
	test	al, 1
	lea	rcx, [rip + L_.str.12]
	lea	rdx, [rip + L_.str.8]
	cmovne	rdx, rcx
	mov	rax, rdx
	pop	rbp
	ret
                                        
	.globl	__ZN6loguru15terminal_purpleEv 
	.p2align	4, 0x90
__ZN6loguru15terminal_purpleEv:         

	push	rbp
	mov	rbp, rsp
	mov	al, byte ptr [rip + __ZN6loguruL20s_terminal_has_colorE]
	test	al, 1
	lea	rcx, [rip + L_.str.13]
	lea	rdx, [rip + L_.str.8]
	cmovne	rdx, rcx
	mov	rax, rdx
	pop	rbp
	ret
                                        
	.globl	__ZN6loguru13terminal_cyanEv 
	.p2align	4, 0x90
__ZN6loguru13terminal_cyanEv:           

	push	rbp
	mov	rbp, rsp
	mov	al, byte ptr [rip + __ZN6loguruL20s_terminal_has_colorE]
	test	al, 1
	lea	rcx, [rip + L_.str.14]
	lea	rdx, [rip + L_.str.8]
	cmovne	rdx, rcx
	mov	rax, rdx
	pop	rbp
	ret
                                        
	.globl	__ZN6loguru19terminal_light_grayEv 
	.p2align	4, 0x90
__ZN6loguru19terminal_light_grayEv:     

	push	rbp
	mov	rbp, rsp
	mov	al, byte ptr [rip + __ZN6loguruL20s_terminal_has_colorE]
	test	al, 1
	lea	rcx, [rip + L_.str.15]
	lea	rdx, [rip + L_.str.8]
	cmovne	rdx, rcx
	mov	rax, rdx
	pop	rbp
	ret
                                        
	.globl	__ZN6loguru14terminal_whiteEv 
	.p2align	4, 0x90
__ZN6loguru14terminal_whiteEv:          

	push	rbp
	mov	rbp, rsp
	mov	al, byte ptr [rip + __ZN6loguruL20s_terminal_has_colorE]
	test	al, 1
	lea	rcx, [rip + L_.str.15]
	lea	rdx, [rip + L_.str.8]
	cmovne	rdx, rcx
	mov	rax, rdx
	pop	rbp
	ret
                                        
	.globl	__ZN6loguru18terminal_light_redEv 
	.p2align	4, 0x90
__ZN6loguru18terminal_light_redEv:      

	push	rbp
	mov	rbp, rsp
	mov	al, byte ptr [rip + __ZN6loguruL20s_terminal_has_colorE]
	test	al, 1
	lea	rcx, [rip + L_.str.16]
	lea	rdx, [rip + L_.str.8]
	cmovne	rdx, rcx
	mov	rax, rdx
	pop	rbp
	ret
                                        
	.globl	__ZN6loguru12terminal_dimEv 
	.p2align	4, 0x90
__ZN6loguru12terminal_dimEv:            

	push	rbp
	mov	rbp, rsp
	mov	al, byte ptr [rip + __ZN6loguruL20s_terminal_has_colorE]
	test	al, 1
	lea	rcx, [rip + L_.str.17]
	lea	rdx, [rip + L_.str.8]
	cmovne	rdx, rcx
	mov	rax, rdx
	pop	rbp
	ret
                                        
	.globl	__ZN6loguru13terminal_boldEv 
	.p2align	4, 0x90
__ZN6loguru13terminal_boldEv:           

	push	rbp
	mov	rbp, rsp
	mov	al, byte ptr [rip + __ZN6loguruL20s_terminal_has_colorE]
	test	al, 1
	lea	rcx, [rip + L_.str.18]
	lea	rdx, [rip + L_.str.8]
	cmovne	rdx, rcx
	mov	rax, rdx
	pop	rbp
	ret
                                        
	.globl	__ZN6loguru18terminal_underlineEv 
	.p2align	4, 0x90
__ZN6loguru18terminal_underlineEv:      

	push	rbp
	mov	rbp, rsp
	mov	al, byte ptr [rip + __ZN6loguruL20s_terminal_has_colorE]
	test	al, 1
	lea	rcx, [rip + L_.str.19]
	lea	rdx, [rip + L_.str.8]
	cmovne	rdx, rcx
	mov	rax, rdx
	pop	rbp
	ret
                                        
	.globl	__ZN6loguru14terminal_resetEv 
	.p2align	4, 0x90
__ZN6loguru14terminal_resetEv:          

	push	rbp
	mov	rbp, rsp
	mov	al, byte ptr [rip + __ZN6loguruL20s_terminal_has_colorE]
	test	al, 1
	lea	rcx, [rip + L_.str.20]
	lea	rdx, [rip + L_.str.8]
	cmovne	rdx, rcx
	mov	rax, rdx
	pop	rbp
	ret
                                        
	.globl	__ZN6loguru8file_logEPvRKNS_7MessageE 
	.p2align	4, 0x90
__ZN6loguru8file_logEPvRKNS_7MessageE:  
	.cfi_startproc

	push	rbp
	.cfi_def_cfa_offset 16
	.cfi_offset rbp, -16
	mov	rbp, rsp
	.cfi_def_cfa_register rbp
	sub	rsp, 32
	mov	qword ptr [rbp - 8], rdi
	mov	qword ptr [rbp - 16], rsi
	mov	rdi, qword ptr [rbp - 8]
	call	__ZN6loguru7to_fileEPv
	mov	qword ptr [rbp - 24], rax
	mov	rdi, qword ptr [rbp - 24]
	mov	rax, qword ptr [rbp - 16]
	mov	rdx, qword ptr [rax + 24]
	mov	rax, qword ptr [rbp - 16]
	mov	rcx, qword ptr [rax + 32]
	mov	rax, qword ptr [rbp - 16]
	mov	r8, qword ptr [rax + 40]
	mov	rax, qword ptr [rbp - 16]
	mov	r9, qword ptr [rax + 48]
	lea	rsi, [rip + L_.str.21]
	mov	al, 0
	call	_fprintf
	cmp	dword ptr [rip + __ZN6loguru19g_flush_interval_msE], 0
	jne	LBB30_2

	mov	rdi, qword ptr [rbp - 24]
	call	_fflush
LBB30_2:
	add	rsp, 32
	pop	rbp
	ret
	.cfi_endproc
                                        
	.globl	__ZN6loguru7to_fileEPv  
	.weak_definition	__ZN6loguru7to_fileEPv
	.p2align	4, 0x90
__ZN6loguru7to_fileEPv:                 

	push	rbp
	mov	rbp, rsp
	mov	qword ptr [rbp - 8], rdi
	mov	rax, qword ptr [rbp - 8]
	pop	rbp
	ret
                                        
	.globl	__ZN6loguru10file_closeEPv 
	.p2align	4, 0x90
__ZN6loguru10file_closeEPv:             
	.cfi_startproc

	push	rbp
	.cfi_def_cfa_offset 16
	.cfi_offset rbp, -16
	mov	rbp, rsp
	.cfi_def_cfa_register rbp
	sub	rsp, 16
	mov	qword ptr [rbp - 8], rdi
	mov	rdi, qword ptr [rbp - 8]
	call	__ZN6loguru7to_fileEPv
	mov	qword ptr [rbp - 16], rax
	cmp	qword ptr [rbp - 16], 0
	je	LBB32_2

	mov	rdi, qword ptr [rbp - 16]
	call	_fclose
LBB32_2:
	add	rsp, 16
	pop	rbp
	ret
	.cfi_endproc
                                        
	.globl	__ZN6loguru10file_flushEPv 
	.p2align	4, 0x90
__ZN6loguru10file_flushEPv:             
	.cfi_startproc

	push	rbp
	.cfi_def_cfa_offset 16
	.cfi_offset rbp, -16
	mov	rbp, rsp
	.cfi_def_cfa_register rbp
	sub	rsp, 16
	mov	qword ptr [rbp - 8], rdi
	mov	rdi, qword ptr [rbp - 8]
	call	__ZN6loguru7to_fileEPv
	mov	qword ptr [rbp - 16], rax
	mov	rdi, qword ptr [rbp - 16]
	call	_fflush
	add	rsp, 16
	pop	rbp
	ret
	.cfi_endproc
                                        
	.globl	__ZN6loguru10syslog_logEPvRKNS_7MessageE 
	.p2align	4, 0x90
__ZN6loguru10syslog_logEPvRKNS_7MessageE: 
	.cfi_startproc

	push	rbp
	.cfi_def_cfa_offset 16
	.cfi_offset rbp, -16
	mov	rbp, rsp
	.cfi_def_cfa_register rbp
	sub	rsp, 32
	mov	qword ptr [rbp - 8], rdi
	mov	qword ptr [rbp - 16], rsi
	mov	rax, qword ptr [rbp - 16]
	cmp	dword ptr [rax], -3
	jge	LBB34_2

	mov	dword ptr [rbp - 20], 1
	jmp	LBB34_10
LBB34_2:
	mov	rax, qword ptr [rbp - 16]
	mov	ecx, dword ptr [rax]
	add	ecx, 3
	mov	eax, ecx
	sub	ecx, 4
	mov	qword ptr [rbp - 32], rax 
	ja	LBB34_8

	lea	rax, [rip + LJTI34_0]
	mov	rcx, qword ptr [rbp - 32] 
	movsxd	rdx, dword ptr [rax + 4*rcx]
	add	rdx, rax
	jmp	rdx
LBB34_3:
	mov	dword ptr [rbp - 20], 2
	jmp	LBB34_9
LBB34_4:
	mov	dword ptr [rbp - 20], 3
	jmp	LBB34_9
LBB34_5:
	mov	dword ptr [rbp - 20], 4
	jmp	LBB34_9
LBB34_6:
	mov	dword ptr [rbp - 20], 5
	jmp	LBB34_9
LBB34_7:
	mov	dword ptr [rbp - 20], 6
	jmp	LBB34_9
LBB34_8:
	mov	dword ptr [rbp - 20], 7
LBB34_9:
	jmp	LBB34_10
LBB34_10:
	mov	edi, dword ptr [rbp - 20]
	mov	rax, qword ptr [rbp - 16]
	mov	rdx, qword ptr [rax + 32]
	mov	rax, qword ptr [rbp - 16]
	mov	rcx, qword ptr [rax + 40]
	mov	rax, qword ptr [rbp - 16]
	mov	r8, qword ptr [rax + 48]
	lea	rsi, [rip + L_.str.22]
	mov	al, 0
	call	_syslog$DARWIN_EXTSN
	add	rsp, 32
	pop	rbp
	ret
	.cfi_endproc
	.p2align	2, 0x90
	.data_region jt32





LJTI34_0:
	.long	L34_0_set_3
	.long	L34_0_set_4
	.long	L34_0_set_5
	.long	L34_0_set_6
	.long	L34_0_set_7
	.end_data_region
                                        
	.globl	__ZN6loguru12syslog_closeEPv 
	.p2align	4, 0x90
__ZN6loguru12syslog_closeEPv:           
	.cfi_startproc

	push	rbp
	.cfi_def_cfa_offset 16
	.cfi_offset rbp, -16
	mov	rbp, rsp
	.cfi_def_cfa_register rbp
	sub	rsp, 16
	mov	qword ptr [rbp - 8], rdi
	call	_closelog
	add	rsp, 16
	pop	rbp
	ret
	.cfi_endproc
                                        
	.globl	__ZN6loguru12syslog_flushEPv 
	.p2align	4, 0x90
__ZN6loguru12syslog_flushEPv:           

	push	rbp
	mov	rbp, rsp
	mov	qword ptr [rbp - 8], rdi
	pop	rbp
	ret
                                        
	.globl	__ZN6loguru4TextD2Ev    
	.p2align	4, 0x90
__ZN6loguru4TextD2Ev:                   
Lfunc_begin0:
	.cfi_startproc
	.cfi_personality 155, ___gxx_personality_v0
	.cfi_lsda 16, Lexception0

	push	rbp
	.cfi_def_cfa_offset 16
	.cfi_offset rbp, -16
	mov	rbp, rsp
	.cfi_def_cfa_register rbp
	sub	rsp, 16
	mov	qword ptr [rbp - 8], rdi
	mov	rax, qword ptr [rbp - 8]
	mov	rdi, qword ptr [rax]
Ltmp0:
	call	_free
Ltmp1:
	jmp	LBB37_1
LBB37_1:
	add	rsp, 16
	pop	rbp
	ret
LBB37_2:
Ltmp2:
	mov	rdi, rax
	mov	qword ptr [rbp - 16], rdx 
	call	___clang_call_terminate
Lfunc_end0:
	.cfi_endproc
	.section	__TEXT,__gcc_except_tab
	.p2align	2
GCC_except_table37:
Lexception0:
	.byte	255                     
	.byte	155                     
	.uleb128 Lttbase0-Lttbaseref0
Lttbaseref0:
	.byte	1                       
	.uleb128 Lcst_end0-Lcst_begin0
Lcst_begin0:
	.uleb128 Ltmp0-Lfunc_begin0     
	.uleb128 Ltmp1-Ltmp0            
	.uleb128 Ltmp2-Lfunc_begin0     
	.byte	1                       
Lcst_end0:
	.byte	1                       
                                        
	.byte	0                       
	.p2align	2
                                        
	.long	0                       
Lttbase0:
	.p2align	2
                                        
	.section	__TEXT,__text,regular,pure_instructions
	.private_extern	___clang_call_terminate 
	.globl	___clang_call_terminate
	.weak_definition	___clang_call_terminate
	.p2align	4, 0x90
___clang_call_terminate:                

	push	rax
	call	___cxa_begin_catch
	mov	qword ptr [rsp], rax    
	call	__ZSt9terminatev
                                        
	.globl	__ZN6loguru4TextD1Ev    
	.p2align	4, 0x90
__ZN6loguru4TextD1Ev:                   

	push	rbp
	mov	rbp, rsp
	sub	rsp, 16
	mov	qword ptr [rbp - 8], rdi
	mov	rdi, qword ptr [rbp - 8]
	call	__ZN6loguru4TextD2Ev
	add	rsp, 16
	pop	rbp
	ret
                                        
	.globl	__ZN6loguru10textprintfEPKcz 
	.p2align	4, 0x90
__ZN6loguru10textprintfEPKcz:           
	.cfi_startproc

	push	rbp
	.cfi_def_cfa_offset 16
	.cfi_offset rbp, -16
	mov	rbp, rsp
	.cfi_def_cfa_register rbp
	sub	rsp, 432
	mov	r10, rdi
	test	al, al
	movaps	xmmword ptr [rbp - 256], xmm7 
	movaps	xmmword ptr [rbp - 272], xmm6 
	movaps	xmmword ptr [rbp - 288], xmm5 
	movaps	xmmword ptr [rbp - 304], xmm4 
	movaps	xmmword ptr [rbp - 320], xmm3 
	movaps	xmmword ptr [rbp - 336], xmm2 
	movaps	xmmword ptr [rbp - 352], xmm1 
	movaps	xmmword ptr [rbp - 368], xmm0 
	mov	qword ptr [rbp - 376], r9 
	mov	qword ptr [rbp - 384], r8 
	mov	qword ptr [rbp - 392], rcx 
	mov	qword ptr [rbp - 400], rdx 
	mov	qword ptr [rbp - 408], rsi 
	mov	qword ptr [rbp - 416], rdi 
	mov	qword ptr [rbp - 424], r10 
	je	LBB40_6

	movaps	xmm0, xmmword ptr [rbp - 368] 
	movaps	xmmword ptr [rbp - 192], xmm0
	movaps	xmm1, xmmword ptr [rbp - 352] 
	movaps	xmmword ptr [rbp - 176], xmm1
	movaps	xmm2, xmmword ptr [rbp - 336] 
	movaps	xmmword ptr [rbp - 160], xmm2
	movaps	xmm3, xmmword ptr [rbp - 320] 
	movaps	xmmword ptr [rbp - 144], xmm3
	movaps	xmm4, xmmword ptr [rbp - 304] 
	movaps	xmmword ptr [rbp - 128], xmm4
	movaps	xmm5, xmmword ptr [rbp - 288] 
	movaps	xmmword ptr [rbp - 112], xmm5
	movaps	xmm6, xmmword ptr [rbp - 272] 
	movaps	xmmword ptr [rbp - 96], xmm6
	movaps	xmm7, xmmword ptr [rbp - 256] 
	movaps	xmmword ptr [rbp - 80], xmm7
LBB40_6:
	mov	rax, qword ptr [rbp - 376] 
	mov	qword ptr [rbp - 200], rax
	mov	rcx, qword ptr [rbp - 384] 
	mov	qword ptr [rbp - 208], rcx
	mov	rdx, qword ptr [rbp - 392] 
	mov	qword ptr [rbp - 216], rdx
	mov	rsi, qword ptr [rbp - 400] 
	mov	qword ptr [rbp - 224], rsi
	lea	rdi, [rbp - 32]
	mov	r8, qword ptr [rip + ___stack_chk_guard@GOTPCREL]
	mov	r8, qword ptr [r8]
	mov	qword ptr [rbp - 8], r8
	mov	r8, qword ptr [rbp - 416] 
	mov	qword ptr [rbp - 40], r8
	mov	r8, qword ptr [rbp - 408] 
	mov	qword ptr [rbp - 48], r8
	mov	r9, rdi
	lea	r10, [rbp - 240]
	mov	qword ptr [r9 + 16], r10
	lea	r10, [rbp + 16]
	mov	qword ptr [r9 + 8], r10
	mov	dword ptr [r9 + 4], 48
	mov	dword ptr [r9], 16
	mov	byte ptr [rbp - 49], 0
	mov	rsi, qword ptr [rbp - 48]
	mov	r9, qword ptr [rbp - 416] 
	mov	qword ptr [rbp - 432], rdi 
	mov	rdi, r9
	mov	rdx, qword ptr [rbp - 432] 
	call	__ZN6loguruL11vtextprintfEPKcP13__va_list_tag
	lea	rax, [rbp - 32]
	mov	byte ptr [rbp - 49], 1
	test	byte ptr [rbp - 49], 1
	jne	LBB40_2

	mov	rdi, qword ptr [rbp - 416] 
	call	__ZN6loguru4TextD1Ev
LBB40_2:
	mov	rax, qword ptr [rip + ___stack_chk_guard@GOTPCREL]
	mov	rax, qword ptr [rax]
	mov	rcx, qword ptr [rbp - 8]
	cmp	rax, rcx
	jne	LBB40_4

	mov	rax, qword ptr [rbp - 424] 
	add	rsp, 432
	pop	rbp
	ret
LBB40_4:
	call	___stack_chk_fail
	ud2
	.cfi_endproc
                                        
	.p2align	4, 0x90         
__ZN6loguruL11vtextprintfEPKcP13__va_list_tag: 
	.cfi_startproc

	push	rbp
	.cfi_def_cfa_offset 16
	.cfi_offset rbp, -16
	mov	rbp, rsp
	.cfi_def_cfa_register rbp
	sub	rsp, 64
	mov	rax, rdi
	mov	rcx, rdi
	mov	qword ptr [rbp - 8], rcx
	mov	qword ptr [rbp - 16], rsi
	mov	qword ptr [rbp - 24], rdx
	mov	qword ptr [rbp - 32], 0
	mov	rsi, qword ptr [rbp - 16]
	mov	rdx, qword ptr [rbp - 24]
	lea	rcx, [rbp - 32]
	mov	qword ptr [rbp - 48], rdi 
	mov	rdi, rcx
	mov	qword ptr [rbp - 56], rax 
	call	_vasprintf
	mov	dword ptr [rbp - 36], eax
	cmp	dword ptr [rbp - 36], 0
	setge	r8b
	and	r8b, 1
	movzx	eax, r8b
	cmp	eax, 1
	sete	r8b
	xor	r8b, -1
	xor	r8b, -1
	test	r8b, 1
	jne	LBB41_1
	jmp	LBB41_2
LBB41_1:
	jmp	LBB41_3
LBB41_2:
	mov	r9, qword ptr [rbp - 16]
	lea	rsi, [rip + L_.str.145]
	lea	rdx, [rip + L_.str.28]
	lea	r8, [rip + L_.str.146]
	xor	eax, eax
	mov	cl, al
	mov	edi, 433
	mov	dword ptr [rbp - 60], edi 
	mov	edi, eax
	mov	eax, dword ptr [rbp - 60] 
	mov	byte ptr [rbp - 61], cl 
	mov	ecx, eax
	mov	al, byte ptr [rbp - 61] 
	call	__ZN6loguru13log_and_abortEiPKcS1_jS1_z
LBB41_3:
	mov	rsi, qword ptr [rbp - 32]
	mov	rdi, qword ptr [rbp - 48] 
	call	__ZN6loguru4TextC1EPc
	mov	rax, qword ptr [rbp - 56] 
	add	rsp, 64
	pop	rbp
	ret
	.cfi_endproc
                                        
	.globl	__ZN6loguru10textprintfEv 
	.p2align	4, 0x90
__ZN6loguru10textprintfEv:              
	.cfi_startproc

	push	rbp
	.cfi_def_cfa_offset 16
	.cfi_offset rbp, -16
	mov	rbp, rsp
	.cfi_def_cfa_register rbp
	sub	rsp, 32
	mov	rax, rdi
	mov	rcx, rdi
	mov	qword ptr [rbp - 8], rcx
	mov	ecx, 1
	mov	qword ptr [rbp - 16], rdi 
	mov	rdi, rcx
	mov	rsi, rcx
	mov	qword ptr [rbp - 24], rax 
	call	_calloc
	mov	rdi, qword ptr [rbp - 16] 
	mov	rsi, rax
	call	__ZN6loguru4TextC1EPc
	mov	rax, qword ptr [rbp - 24] 
	add	rsp, 32
	pop	rbp
	ret
	.cfi_endproc
                                        
	.globl	__ZN6loguru4TextC1EPc   
	.weak_def_can_be_hidden	__ZN6loguru4TextC1EPc
	.p2align	4, 0x90
__ZN6loguru4TextC1EPc:                  
	.cfi_startproc

	push	rbp
	.cfi_def_cfa_offset 16
	.cfi_offset rbp, -16
	mov	rbp, rsp
	.cfi_def_cfa_register rbp
	sub	rsp, 16
	mov	qword ptr [rbp - 8], rdi
	mov	qword ptr [rbp - 16], rsi
	mov	rdi, qword ptr [rbp - 8]
	mov	rsi, qword ptr [rbp - 16]
	call	__ZN6loguru4TextC2EPc
	add	rsp, 16
	pop	rbp
	ret
	.cfi_endproc
                                        
	.globl	__ZN6loguru8filenameEPKc 
	.p2align	4, 0x90
__ZN6loguru8filenameEPKc:               

	push	rbp
	mov	rbp, rsp
	mov	qword ptr [rbp - 8], rdi
	mov	rax, qword ptr [rbp - 8]
	mov	qword ptr [rbp - 16], rax
LBB44_1:                                
	mov	rax, qword ptr [rbp - 16]
	cmp	byte ptr [rax], 0
	je	LBB44_7

	mov	rax, qword ptr [rbp - 16]
	movsx	ecx, byte ptr [rax]
	cmp	ecx, 47
	je	LBB44_4

	mov	rax, qword ptr [rbp - 16]
	movsx	ecx, byte ptr [rax]
	cmp	ecx, 92
	jne	LBB44_5
LBB44_4:                                
	mov	rax, qword ptr [rbp - 16]
	add	rax, 1
	mov	qword ptr [rbp - 8], rax
LBB44_5:                                
	jmp	LBB44_6
LBB44_6:                                
	mov	rax, qword ptr [rbp - 16]
	add	rax, 1
	mov	qword ptr [rbp - 16], rax
	jmp	LBB44_1
LBB44_7:
	mov	rax, qword ptr [rbp - 8]
	pop	rbp
	ret
                                        
	.globl	__ZN6loguru13errno_as_textEv 
	.p2align	4, 0x90
__ZN6loguru13errno_as_textEv:           
	.cfi_startproc

	push	rbp
	.cfi_def_cfa_offset 16
	.cfi_offset rbp, -16
	mov	rbp, rsp
	.cfi_def_cfa_register rbp
	sub	rsp, 304
	mov	rax, rdi
	mov	rcx, qword ptr [rip + ___stack_chk_guard@GOTPCREL]
	mov	rcx, qword ptr [rcx]
	mov	qword ptr [rbp - 8], rcx
	mov	rcx, rdi
	mov	qword ptr [rbp - 280], rcx
	mov	qword ptr [rbp - 288], rdi 
	mov	qword ptr [rbp - 296], rax 
	call	___error
	lea	rsi, [rbp - 272]
	mov	edi, dword ptr [rax]
	mov	edx, 256
	call	_strerror_r
	lea	rdi, [rbp - 272]
	mov	dword ptr [rbp - 300], eax 
	call	_strdup
	mov	rdi, qword ptr [rbp - 288] 
	mov	rsi, rax
	call	__ZN6loguru4TextC1EPc
	mov	rax, qword ptr [rip + ___stack_chk_guard@GOTPCREL]
	mov	rax, qword ptr [rax]
	mov	rcx, qword ptr [rbp - 8]
	cmp	rax, rcx
	jne	LBB45_2

	mov	rax, qword ptr [rbp - 296] 
	add	rsp, 304
	pop	rbp
	ret
LBB45_2:
	call	___stack_chk_fail
	ud2
	.cfi_endproc
                                        
	.globl	__ZN6loguru4initERiPPcRKNS_7OptionsE 
	.p2align	4, 0x90
__ZN6loguru4initERiPPcRKNS_7OptionsE:   
Lfunc_begin1:
	.cfi_startproc
	.cfi_personality 155, ___gxx_personality_v0
	.cfi_lsda 16, Lexception1

	push	rbp
	.cfi_def_cfa_offset 16
	.cfi_offset rbp, -16
	mov	rbp, rsp
	.cfi_def_cfa_register rbp
	sub	rsp, 512
	mov	rax, qword ptr [rip + ___stack_chk_guard@GOTPCREL]
	mov	rax, qword ptr [rax]
	mov	qword ptr [rbp - 8], rax
	mov	qword ptr [rbp - 136], rdi
	mov	qword ptr [rbp - 144], rsi
	mov	qword ptr [rbp - 152], rdx

	mov	rax, qword ptr [rbp - 136]
	mov	ecx, dword ptr [rax]
	mov	dword ptr [rbp - 156], ecx
	mov	dword ptr [rbp - 160], 0
	mov	ecx, dword ptr [rbp - 156]
	cmp	ecx, dword ptr [rbp - 160]
	setg	dl
	xor	dl, -1
	xor	dl, -1
	test	dl, 1
	jne	LBB46_18

	lea	rdi, [rbp - 168]
	lea	rsi, [rbp - 156]
	call	__ZN6loguru12format_valueIiEENS_4TextERKT_
Ltmp3:
	lea	rdi, [rbp - 176]
	lea	rsi, [rbp - 160]
	call	__ZN6loguru12format_valueIiEENS_4TextERKT_
Ltmp4:
	jmp	LBB46_3
LBB46_3:
Ltmp6:
	lea	rdi, [rbp - 168]
	call	__ZNK6loguru4Text5c_strEv
Ltmp7:
	mov	qword ptr [rbp - 320], rax 
	jmp	LBB46_4
LBB46_4:
Ltmp8:
	lea	rdi, [rbp - 176]
	call	__ZNK6loguru4Text5c_strEv
Ltmp9:
	mov	qword ptr [rbp - 328], rax 
	jmp	LBB46_5
LBB46_5:
Ltmp10:
	mov	rax, rsp
	mov	rcx, qword ptr [rbp - 328] 
	mov	qword ptr [rax + 8], rcx
	lea	rdx, [rip + L_.str.25]
	mov	qword ptr [rax], rdx
	lea	rsi, [rip + L_.str.23]
	lea	rax, [rip + L_.str.24]
	lea	r8, [rip + L_.str.26]
	xor	edi, edi
                                        
	lea	r9, [rbp - 200]
	mov	byte ptr [rbp - 329], dil 
	mov	rdi, r9
	mov	qword ptr [rbp - 344], rdx 
	mov	rdx, rax
	mov	rcx, qword ptr [rbp - 344] 
	mov	r9, qword ptr [rbp - 320] 
	mov	al, byte ptr [rbp - 329] 
	call	__ZN6loguru10textprintfEPKcz
Ltmp11:
	jmp	LBB46_6
LBB46_6:
Ltmp13:
	lea	rsi, [rip + L_.str.27]
	xor	eax, eax
                                        
	lea	rdi, [rbp - 208]
	call	__ZN6loguru10textprintfEPKcz
Ltmp14:
	jmp	LBB46_7
LBB46_7:
Ltmp16:
	lea	rdi, [rbp - 200]
	call	__ZNK6loguru4Text5c_strEv
Ltmp17:
	mov	qword ptr [rbp - 352], rax 
	jmp	LBB46_8
LBB46_8:
Ltmp18:
	lea	rdi, [rbp - 208]
	call	__ZNK6loguru4Text5c_strEv
Ltmp19:
	mov	qword ptr [rbp - 360], rax 
	jmp	LBB46_9
LBB46_9:
Ltmp20:
	lea	rdx, [rip + L_.str.28]
	lea	r8, [rip + L_.str.29]
	xor	eax, eax
	mov	cl, al
	mov	esi, 588
	mov	edi, eax
	mov	r9, qword ptr [rbp - 352] 
	mov	dword ptr [rbp - 364], esi 
	mov	rsi, r9
	mov	eax, dword ptr [rbp - 364] 
	mov	byte ptr [rbp - 365], cl 
	mov	ecx, eax
	mov	r9, qword ptr [rbp - 360] 
	mov	al, byte ptr [rbp - 365] 
	call	__ZN6loguru13log_and_abortEiPKcS1_jS1_z
Ltmp21:
	jmp	LBB46_10
LBB46_10:
	ud2
LBB46_11:
Ltmp5:
                                        
	mov	qword ptr [rbp - 184], rax
	mov	dword ptr [rbp - 188], edx
	jmp	LBB46_17
LBB46_12:
Ltmp12:
                                        
	mov	qword ptr [rbp - 184], rax
	mov	dword ptr [rbp - 188], edx
	jmp	LBB46_16
LBB46_13:
Ltmp15:
                                        
	mov	qword ptr [rbp - 184], rax
	mov	dword ptr [rbp - 188], edx
	jmp	LBB46_15
LBB46_14:
Ltmp22:
                                        
	mov	qword ptr [rbp - 184], rax
	mov	dword ptr [rbp - 188], edx
	lea	rdi, [rbp - 208]
	call	__ZN6loguru4TextD1Ev
LBB46_15:
	lea	rdi, [rbp - 200]
	call	__ZN6loguru4TextD1Ev
LBB46_16:
	lea	rdi, [rbp - 176]
	call	__ZN6loguru4TextD1Ev
LBB46_17:
	lea	rdi, [rbp - 168]
	call	__ZN6loguru4TextD1Ev
	jmp	LBB46_85
LBB46_18:
	jmp	LBB46_19
LBB46_19:
	jmp	LBB46_20
LBB46_20:
	mov	rax, qword ptr [rbp - 144]
	mov	rcx, qword ptr [rbp - 136]
	movsxd	rcx, dword ptr [rcx]
	mov	rax, qword ptr [rax + 8*rcx]
	mov	qword ptr [rbp - 216], rax
	mov	qword ptr [rbp - 224], 0
	cmp	qword ptr [rbp - 216], 0
	sete	dl
	xor	dl, -1
	xor	dl, -1
	test	dl, 1
	jne	LBB46_37

	lea	rdi, [rbp - 232]
	lea	rsi, [rbp - 216]
	call	__ZN6loguru12format_valueIPcEENS_4TextERKT_
Ltmp23:
	lea	rdi, [rbp - 240]
	lea	rsi, [rbp - 224]
	call	__ZN6loguru12format_valueIDnEENS_4TextERKT_
Ltmp24:
	jmp	LBB46_22
LBB46_22:
Ltmp26:
	lea	rdi, [rbp - 232]
	call	__ZNK6loguru4Text5c_strEv
Ltmp27:
	mov	qword ptr [rbp - 376], rax 
	jmp	LBB46_23
LBB46_23:
Ltmp28:
	lea	rdi, [rbp - 240]
	call	__ZNK6loguru4Text5c_strEv
Ltmp29:
	mov	qword ptr [rbp - 384], rax 
	jmp	LBB46_24
LBB46_24:
Ltmp30:
	mov	rax, rsp
	mov	rcx, qword ptr [rbp - 384] 
	mov	qword ptr [rax + 8], rcx
	lea	rdx, [rip + L_.str.31]
	mov	qword ptr [rax], rdx
	lea	rsi, [rip + L_.str.23]
	lea	rax, [rip + L_.str.30]
	lea	r8, [rip + L_.str.32]
	xor	edi, edi
                                        
	lea	r9, [rbp - 248]
	mov	byte ptr [rbp - 385], dil 
	mov	rdi, r9
	mov	qword ptr [rbp - 400], rdx 
	mov	rdx, rax
	mov	rcx, qword ptr [rbp - 400] 
	mov	r9, qword ptr [rbp - 376] 
	mov	al, byte ptr [rbp - 385] 
	call	__ZN6loguru10textprintfEPKcz
Ltmp31:
	jmp	LBB46_25
LBB46_25:
Ltmp33:
	lea	rsi, [rip + L_.str.27]
	xor	eax, eax
                                        
	lea	rdi, [rbp - 256]
	call	__ZN6loguru10textprintfEPKcz
Ltmp34:
	jmp	LBB46_26
LBB46_26:
Ltmp36:
	lea	rdi, [rbp - 248]
	call	__ZNK6loguru4Text5c_strEv
Ltmp37:
	mov	qword ptr [rbp - 408], rax 
	jmp	LBB46_27
LBB46_27:
Ltmp38:
	lea	rdi, [rbp - 256]
	call	__ZNK6loguru4Text5c_strEv
Ltmp39:
	mov	qword ptr [rbp - 416], rax 
	jmp	LBB46_28
LBB46_28:
Ltmp40:
	lea	rdx, [rip + L_.str.28]
	lea	r8, [rip + L_.str.29]
	xor	eax, eax
	mov	cl, al
	mov	esi, 589
	mov	edi, eax
	mov	r9, qword ptr [rbp - 408] 
	mov	dword ptr [rbp - 420], esi 
	mov	rsi, r9
	mov	eax, dword ptr [rbp - 420] 
	mov	byte ptr [rbp - 421], cl 
	mov	ecx, eax
	mov	r9, qword ptr [rbp - 416] 
	mov	al, byte ptr [rbp - 421] 
	call	__ZN6loguru13log_and_abortEiPKcS1_jS1_z
Ltmp41:
	jmp	LBB46_29
LBB46_29:
	ud2
LBB46_30:
Ltmp25:
                                        
	mov	qword ptr [rbp - 184], rax
	mov	dword ptr [rbp - 188], edx
	jmp	LBB46_36
LBB46_31:
Ltmp32:
                                        
	mov	qword ptr [rbp - 184], rax
	mov	dword ptr [rbp - 188], edx
	jmp	LBB46_35
LBB46_32:
Ltmp35:
                                        
	mov	qword ptr [rbp - 184], rax
	mov	dword ptr [rbp - 188], edx
	jmp	LBB46_34
LBB46_33:
Ltmp42:
                                        
	mov	qword ptr [rbp - 184], rax
	mov	dword ptr [rbp - 188], edx
	lea	rdi, [rbp - 256]
	call	__ZN6loguru4TextD1Ev
LBB46_34:
	lea	rdi, [rbp - 248]
	call	__ZN6loguru4TextD1Ev
LBB46_35:
	lea	rdi, [rbp - 240]
	call	__ZN6loguru4TextD1Ev
LBB46_36:
	lea	rdi, [rbp - 232]
	call	__ZN6loguru4TextD1Ev
	jmp	LBB46_85
LBB46_37:
	jmp	LBB46_38
LBB46_38:
	mov	rax, qword ptr [rbp - 144]
	mov	rdi, qword ptr [rax]
	call	__ZN6loguru8filenameEPKc
	lea	rdi, [rip + __ZN6loguruL16s_argv0_filenameE]
	mov	rsi, rax
	call	__ZNSt3__112basic_stringIcNS_11char_traitsIcEENS_9allocatorIcEEEaSEPKc
	lea	rdi, [rip + __ZN6loguruL13s_current_dirE]
	mov	esi, 1024
	mov	qword ptr [rbp - 432], rax 
	call	_getcwd
	cmp	rax, 0
	jne	LBB46_47

	lea	rdi, [rbp - 264]
	call	__ZN6loguru13errno_as_textEv
Ltmp43:
	call	__ZN6loguru24current_verbosity_cutoffEv
Ltmp44:
	mov	dword ptr [rbp - 436], eax 
	jmp	LBB46_40
LBB46_40:
	mov	eax, 4294967295
	mov	ecx, dword ptr [rbp - 436] 
	cmp	eax, ecx
	jle	LBB46_42

	jmp	LBB46_45
LBB46_42:
Ltmp45:
	lea	rdi, [rbp - 264]
	call	__ZNK6loguru4Text5c_strEv
Ltmp46:
	mov	qword ptr [rbp - 448], rax 
	jmp	LBB46_43
LBB46_43:
Ltmp47:
	lea	rsi, [rip + L_.str.28]
	lea	rcx, [rip + L_.str.33]
	xor	eax, eax
                                        
	mov	edi, -1
	mov	edx, 599
	mov	r8, qword ptr [rbp - 448] 
	call	__ZN6loguru3logEiPKcjS1_z
Ltmp48:
	jmp	LBB46_44
LBB46_44:
	jmp	LBB46_45
LBB46_45:
	lea	rdi, [rbp - 264]
	call	__ZN6loguru4TextD1Ev
	jmp	LBB46_47
LBB46_46:
Ltmp49:
                                        
	mov	qword ptr [rbp - 184], rax
	mov	dword ptr [rbp - 188], edx
	lea	rdi, [rbp - 264]
	call	__ZN6loguru4TextD1Ev
	jmp	LBB46_85
LBB46_47:
	lea	rdi, [rip + __ZN6loguruL11s_argumentsE]
	lea	rsi, [rip + L_.str.8]
	call	__ZNSt3__112basic_stringIcNS_11char_traitsIcEENS_9allocatorIcEEEaSEPKc
	mov	dword ptr [rbp - 268], 0
LBB46_48:                               
	mov	eax, dword ptr [rbp - 268]
	mov	rcx, qword ptr [rbp - 136]
	cmp	eax, dword ptr [rcx]
	jge	LBB46_55

	mov	rax, qword ptr [rbp - 144]
	movsxd	rcx, dword ptr [rbp - 268]
	mov	rsi, qword ptr [rax + 8*rcx]
	lea	rax, [rbp - 296]
	mov	rdi, rax
	mov	qword ptr [rbp - 456], rax 
	call	__ZNSt3__112basic_stringIcNS_11char_traitsIcEENS_9allocatorIcEEEC1IDnEEPKc
Ltmp50:
	lea	rdi, [rip + __ZN6loguruL11s_argumentsE]
	mov	rsi, qword ptr [rbp - 456] 
	call	__ZN6loguruL6escapeERNSt3__112basic_stringIcNS0_11char_traitsIcEENS0_9allocatorIcEEEERKS6_
Ltmp51:
	jmp	LBB46_50
LBB46_50:                               
	lea	rdi, [rbp - 296]
	call	__ZNSt3__112basic_stringIcNS_11char_traitsIcEENS_9allocatorIcEEED1Ev
	mov	eax, dword ptr [rbp - 268]
	add	eax, 1
	mov	rcx, qword ptr [rbp - 136]
	cmp	eax, dword ptr [rcx]
	jge	LBB46_53

	lea	rdi, [rip + __ZN6loguruL11s_argumentsE]
	lea	rsi, [rip + L_.str.34]
	call	__ZNSt3__112basic_stringIcNS_11char_traitsIcEENS_9allocatorIcEEEpLEPKc
	jmp	LBB46_53
LBB46_52:
Ltmp52:
                                        
	mov	qword ptr [rbp - 184], rax
	mov	dword ptr [rbp - 188], edx
	lea	rdi, [rbp - 296]
	call	__ZNSt3__112basic_stringIcNS_11char_traitsIcEENS_9allocatorIcEEED1Ev
	jmp	LBB46_85
LBB46_53:                               
	jmp	LBB46_54
LBB46_54:                               
	mov	eax, dword ptr [rbp - 268]
	add	eax, 1
	mov	dword ptr [rbp - 268], eax
	jmp	LBB46_48
LBB46_55:
	mov	rax, qword ptr [rbp - 152]
	cmp	qword ptr [rax], 0
	je	LBB46_57

	mov	rdi, qword ptr [rbp - 136]
	mov	rsi, qword ptr [rbp - 144]
	mov	rax, qword ptr [rbp - 152]
	mov	rdx, qword ptr [rax]
	call	__ZN6loguruL10parse_argsERiPPcPKc
LBB46_57:
	mov	rax, qword ptr [rbp - 152]
	mov	rax, qword ptr [rax + 8]
	mov	qword ptr [rbp - 304], rax
	cmp	qword ptr [rbp - 304], 0
	je	LBB46_61

	xor	esi, esi
	lea	rax, [rbp - 32]
	mov	rdi, rax
	mov	edx, 16
	call	_memset
	call	_pthread_self
	lea	rsi, [rbp - 32]
	mov	qword ptr [rbp - 312], rax
	mov	rdi, qword ptr [rbp - 312]
	mov	edx, 16
	call	_pthread_getname_np
	movsx	ecx, byte ptr [rbp - 32]
	cmp	ecx, 0
	jne	LBB46_60

	mov	rdi, qword ptr [rbp - 304]
	call	_pthread_setname_np
LBB46_60:
	jmp	LBB46_61
LBB46_61:
	cmp	dword ptr [rip + __ZN6loguru18g_stderr_verbosityE], 0
	jl	LBB46_69

	test	byte ptr [rip + __ZN6loguru17g_preamble_headerE], 1
	je	LBB46_68

	lea	rdi, [rbp - 128]
	mov	esi, 92
	call	__ZN6loguruL21print_preamble_headerEPcm
	test	byte ptr [rip + __ZN6loguru18g_colorlogtostderrE], 1
	je	LBB46_66

	test	byte ptr [rip + __ZN6loguruL20s_terminal_has_colorE], 1
	je	LBB46_66

	mov	rax, qword ptr [rip + ___stderrp@GOTPCREL]
	mov	rdi, qword ptr [rax]
	mov	qword ptr [rbp - 464], rdi 
	call	__ZN6loguru14terminal_resetEv
	mov	qword ptr [rbp - 472], rax 
	call	__ZN6loguru12terminal_dimEv
	lea	r8, [rbp - 128]
	mov	rdi, qword ptr [rbp - 464] 
	lea	rsi, [rip + L_.str.35]
	mov	rdx, qword ptr [rbp - 472] 
	mov	rcx, rax
	mov	al, 0
	call	_fprintf
	jmp	LBB46_67
LBB46_66:
	lea	rdx, [rbp - 128]
	mov	rax, qword ptr [rip + ___stderrp@GOTPCREL]
	mov	rdi, qword ptr [rax]
	lea	rsi, [rip + L_.str.36]
	mov	al, 0
	call	_fprintf
LBB46_67:
	jmp	LBB46_68
LBB46_68:
	mov	rax, qword ptr [rip + ___stderrp@GOTPCREL]
	mov	rdi, qword ptr [rax]
	call	_fflush
LBB46_69:
	mov	eax, dword ptr [rip + __ZN6loguru20g_internal_verbosityE]
	mov	dword ptr [rbp - 476], eax 
	call	__ZN6loguru24current_verbosity_cutoffEv
	mov	ecx, dword ptr [rbp - 476] 
	cmp	ecx, eax
	jle	LBB46_71

	jmp	LBB46_72
LBB46_71:
	mov	edi, dword ptr [rip + __ZN6loguru20g_internal_verbosityE]
	lea	rax, [rip + __ZN6loguruL11s_argumentsE]
	mov	dword ptr [rbp - 480], edi 
	mov	rdi, rax
	call	__ZNKSt3__112basic_stringIcNS_11char_traitsIcEENS_9allocatorIcEEE5c_strEv
	mov	edi, dword ptr [rbp - 480] 
	lea	rsi, [rip + L_.str.28]
	mov	edx, 647
	lea	rcx, [rip + L_.str.37]
	mov	r8, rax
	mov	al, 0
	call	__ZN6loguru3logEiPKcjS1_z
LBB46_72:
	lea	rdi, [rip + __ZN6loguruL13s_current_dirE]
	call	_strlen
	cmp	rax, 0
	je	LBB46_77

	mov	eax, dword ptr [rip + __ZN6loguru20g_internal_verbosityE]
	mov	dword ptr [rbp - 484], eax 
	call	__ZN6loguru24current_verbosity_cutoffEv
	mov	ecx, dword ptr [rbp - 484] 
	cmp	ecx, eax
	jle	LBB46_75

	jmp	LBB46_76
LBB46_75:
	mov	edi, dword ptr [rip + __ZN6loguru20g_internal_verbosityE]
	lea	rsi, [rip + L_.str.28]
	mov	edx, 650
	lea	rcx, [rip + L_.str.38]
	lea	r8, [rip + __ZN6loguruL13s_current_dirE]
	mov	al, 0
	call	__ZN6loguru3logEiPKcjS1_z
LBB46_76:
	jmp	LBB46_77
LBB46_77:
	mov	eax, dword ptr [rip + __ZN6loguru20g_internal_verbosityE]
	mov	dword ptr [rbp - 488], eax 
	call	__ZN6loguru24current_verbosity_cutoffEv
	mov	ecx, dword ptr [rbp - 488] 
	cmp	ecx, eax
	jle	LBB46_79

	jmp	LBB46_80
LBB46_79:
	mov	edi, dword ptr [rip + __ZN6loguru20g_internal_verbosityE]
	mov	r8d, dword ptr [rip + __ZN6loguru18g_stderr_verbosityE]
	lea	rsi, [rip + L_.str.28]
	mov	edx, 652
	lea	rcx, [rip + L_.str.39]
	mov	al, 0
	call	__ZN6loguru3logEiPKcjS1_z
LBB46_80:
	mov	eax, dword ptr [rip + __ZN6loguru20g_internal_verbosityE]
	mov	dword ptr [rbp - 492], eax 
	call	__ZN6loguru24current_verbosity_cutoffEv
	mov	ecx, dword ptr [rbp - 492] 
	cmp	ecx, eax
	jle	LBB46_82

	jmp	LBB46_83
LBB46_82:
	mov	edi, dword ptr [rip + __ZN6loguru20g_internal_verbosityE]
	lea	rsi, [rip + L_.str.28]
	mov	edx, 653
	lea	rcx, [rip + L_.str.40]
	mov	al, 0
	call	__ZN6loguru3logEiPKcjS1_z
LBB46_83:
	mov	rax, qword ptr [rbp - 152]
	add	rax, 16
	mov	rdi, rax
	call	__ZN6loguruL23install_signal_handlersERKNS_13SignalOptionsE
	lea	rdi, [rip + __ZN6loguruL9on_atexitEv]
	call	_atexit
	mov	rcx, qword ptr [rip + ___stack_chk_guard@GOTPCREL]
	mov	rcx, qword ptr [rcx]
	mov	rdx, qword ptr [rbp - 8]
	cmp	rcx, rdx
	jne	LBB46_86

	add	rsp, 512
	pop	rbp
	ret
LBB46_85:
	mov	rdi, qword ptr [rbp - 184]
	call	__Unwind_Resume
	ud2
LBB46_86:
	call	___stack_chk_fail
	ud2
Lfunc_end1:
	.cfi_endproc
	.section	__TEXT,__gcc_except_tab
	.p2align	2
GCC_except_table46:
Lexception1:
	.byte	255                     
	.byte	255                     
	.byte	1                       
	.uleb128 Lcst_end1-Lcst_begin1
Lcst_begin1:
	.uleb128 Lfunc_begin1-Lfunc_begin1 
	.uleb128 Ltmp3-Lfunc_begin1     
	.byte	0                       
	.byte	0                       
	.uleb128 Ltmp3-Lfunc_begin1     
	.uleb128 Ltmp4-Ltmp3            
	.uleb128 Ltmp5-Lfunc_begin1     
	.byte	0                       
	.uleb128 Ltmp6-Lfunc_begin1     
	.uleb128 Ltmp11-Ltmp6           
	.uleb128 Ltmp12-Lfunc_begin1    
	.byte	0                       
	.uleb128 Ltmp13-Lfunc_begin1    
	.uleb128 Ltmp14-Ltmp13          
	.uleb128 Ltmp15-Lfunc_begin1    
	.byte	0                       
	.uleb128 Ltmp16-Lfunc_begin1    
	.uleb128 Ltmp21-Ltmp16          
	.uleb128 Ltmp22-Lfunc_begin1    
	.byte	0                       
	.uleb128 Ltmp21-Lfunc_begin1    
	.uleb128 Ltmp23-Ltmp21          
	.byte	0                       
	.byte	0                       
	.uleb128 Ltmp23-Lfunc_begin1    
	.uleb128 Ltmp24-Ltmp23          
	.uleb128 Ltmp25-Lfunc_begin1    
	.byte	0                       
	.uleb128 Ltmp26-Lfunc_begin1    
	.uleb128 Ltmp31-Ltmp26          
	.uleb128 Ltmp32-Lfunc_begin1    
	.byte	0                       
	.uleb128 Ltmp33-Lfunc_begin1    
	.uleb128 Ltmp34-Ltmp33          
	.uleb128 Ltmp35-Lfunc_begin1    
	.byte	0                       
	.uleb128 Ltmp36-Lfunc_begin1    
	.uleb128 Ltmp41-Ltmp36          
	.uleb128 Ltmp42-Lfunc_begin1    
	.byte	0                       
	.uleb128 Ltmp41-Lfunc_begin1    
	.uleb128 Ltmp43-Ltmp41          
	.byte	0                       
	.byte	0                       
	.uleb128 Ltmp43-Lfunc_begin1    
	.uleb128 Ltmp48-Ltmp43          
	.uleb128 Ltmp49-Lfunc_begin1    
	.byte	0                       
	.uleb128 Ltmp48-Lfunc_begin1    
	.uleb128 Ltmp50-Ltmp48          
	.byte	0                       
	.byte	0                       
	.uleb128 Ltmp50-Lfunc_begin1    
	.uleb128 Ltmp51-Ltmp50          
	.uleb128 Ltmp52-Lfunc_begin1    
	.byte	0                       
	.uleb128 Ltmp51-Lfunc_begin1    
	.uleb128 Lfunc_end1-Ltmp51      
	.byte	0                       
	.byte	0                       
Lcst_end1:
	.p2align	2
                                        
	.section	__TEXT,__text,regular,pure_instructions
	.globl	__ZN6loguru12format_valueIiEENS_4TextERKT_ 
	.weak_definition	__ZN6loguru12format_valueIiEENS_4TextERKT_
	.p2align	4, 0x90
__ZN6loguru12format_valueIiEENS_4TextERKT_: 
	.cfi_startproc

	push	rbp
	.cfi_def_cfa_offset 16
	.cfi_offset rbp, -16
	mov	rbp, rsp
	.cfi_def_cfa_register rbp
	sub	rsp, 32
	mov	rax, rdi
	mov	rcx, rdi
	mov	qword ptr [rbp - 8], rcx
	mov	qword ptr [rbp - 16], rsi
	mov	rcx, qword ptr [rbp - 16]
	mov	edx, dword ptr [rcx]
	lea	rsi, [rip + L_.str.147]
	mov	qword ptr [rbp - 24], rax 
	mov	al, 0
	call	__ZN6loguru10textprintfEPKcz
	mov	rax, qword ptr [rbp - 24] 
	add	rsp, 32
	pop	rbp
	ret
	.cfi_endproc
                                        
	.globl	__ZNK6loguru4Text5c_strEv 
	.weak_definition	__ZNK6loguru4Text5c_strEv
	.p2align	4, 0x90
__ZNK6loguru4Text5c_strEv:              

	push	rbp
	mov	rbp, rsp
	mov	qword ptr [rbp - 8], rdi
	mov	rax, qword ptr [rbp - 8]
	mov	rax, qword ptr [rax]
	pop	rbp
	ret
                                        
	.globl	__ZN6loguru13log_and_abortEiPKcS1_jS1_z 
	.p2align	4, 0x90
__ZN6loguru13log_and_abortEiPKcS1_jS1_z: 
Lfunc_begin2:
	.cfi_startproc
	.cfi_personality 155, ___gxx_personality_v0
	.cfi_lsda 16, Lexception2

	push	rbp
	.cfi_def_cfa_offset 16
	.cfi_offset rbp, -16
	mov	rbp, rsp
	.cfi_def_cfa_register rbp
	sub	rsp, 496
	test	al, al
	movaps	xmmword ptr [rbp - 288], xmm7 
	movaps	xmmword ptr [rbp - 304], xmm6 
	movaps	xmmword ptr [rbp - 320], xmm5 
	movaps	xmmword ptr [rbp - 336], xmm4 
	movaps	xmmword ptr [rbp - 352], xmm3 
	movaps	xmmword ptr [rbp - 368], xmm2 
	movaps	xmmword ptr [rbp - 384], xmm1 
	movaps	xmmword ptr [rbp - 400], xmm0 
	mov	qword ptr [rbp - 408], r9 
	mov	qword ptr [rbp - 416], r8 
	mov	dword ptr [rbp - 420], ecx 
	mov	qword ptr [rbp - 432], rdx 
	mov	qword ptr [rbp - 440], rsi 
	mov	dword ptr [rbp - 444], edi 
	je	LBB49_7

	movaps	xmm0, xmmword ptr [rbp - 400] 
	movaps	xmmword ptr [rbp - 224], xmm0
	movaps	xmm1, xmmword ptr [rbp - 384] 
	movaps	xmmword ptr [rbp - 208], xmm1
	movaps	xmm2, xmmword ptr [rbp - 368] 
	movaps	xmmword ptr [rbp - 192], xmm2
	movaps	xmm3, xmmword ptr [rbp - 352] 
	movaps	xmmword ptr [rbp - 176], xmm3
	movaps	xmm4, xmmword ptr [rbp - 336] 
	movaps	xmmword ptr [rbp - 160], xmm4
	movaps	xmm5, xmmword ptr [rbp - 320] 
	movaps	xmmword ptr [rbp - 144], xmm5
	movaps	xmm6, xmmword ptr [rbp - 304] 
	movaps	xmmword ptr [rbp - 128], xmm6
	movaps	xmm7, xmmword ptr [rbp - 288] 
	movaps	xmmword ptr [rbp - 112], xmm7
LBB49_7:
	mov	rax, qword ptr [rbp - 408] 
	mov	qword ptr [rbp - 232], rax
	mov	ecx, dword ptr [rbp - 444] 
	mov	dword ptr [rbp - 4], ecx
	mov	rdx, qword ptr [rbp - 440] 
	mov	qword ptr [rbp - 16], rdx
	mov	rsi, qword ptr [rbp - 432] 
	mov	qword ptr [rbp - 24], rsi
	mov	edi, dword ptr [rbp - 420] 
	mov	dword ptr [rbp - 28], edi
	mov	r8, qword ptr [rbp - 416] 
	mov	qword ptr [rbp - 40], r8
	lea	r9, [rbp - 272]
	mov	qword ptr [rbp - 48], r9
	lea	r9, [rbp + 16]
	mov	qword ptr [rbp - 56], r9
	mov	dword ptr [rbp - 60], 48
	mov	dword ptr [rbp - 64], 40
	mov	rsi, qword ptr [rbp - 40]
	lea	r9, [rbp - 72]
	lea	rdx, [rbp - 64]
	mov	rdi, r9
	mov	qword ptr [rbp - 456], r9 
	call	__ZN6loguruL11vtextprintfEPKcP13__va_list_tag
	mov	ecx, dword ptr [rbp - 4]
	inc	ecx
	mov	rdx, qword ptr [rbp - 24]
	mov	r10d, dword ptr [rbp - 28]
	mov	r8, qword ptr [rbp - 16]
Ltmp53:
	mov	rdi, qword ptr [rbp - 456] 
	mov	dword ptr [rbp - 460], ecx 
	mov	qword ptr [rbp - 472], rdx 
	mov	dword ptr [rbp - 476], r10d 
	mov	qword ptr [rbp - 488], r8 
	call	__ZNK6loguru4Text5c_strEv
Ltmp54:
	mov	qword ptr [rbp - 496], rax 
	jmp	LBB49_1
LBB49_1:
Ltmp55:
	mov	esi, -3
	mov	edi, dword ptr [rbp - 460] 
	mov	rdx, qword ptr [rbp - 472] 
	mov	ecx, dword ptr [rbp - 476] 
	mov	r8, qword ptr [rbp - 488] 
	mov	r9, qword ptr [rbp - 496] 
	call	__ZN6loguru17log_to_everywhereEiiPKcjS1_S1_
Ltmp56:
	jmp	LBB49_2
LBB49_2:
Ltmp57:
	call	_abort
Ltmp58:
	jmp	LBB49_3
LBB49_3:
	ud2
LBB49_4:
Ltmp59:
                                        
	mov	qword ptr [rbp - 80], rax
	mov	dword ptr [rbp - 84], edx
	lea	rdi, [rbp - 72]
	call	__ZN6loguru4TextD1Ev

	mov	rdi, qword ptr [rbp - 80]
	call	__Unwind_Resume
	ud2
Lfunc_end2:
	.cfi_endproc
	.section	__TEXT,__gcc_except_tab
	.p2align	2
GCC_except_table49:
Lexception2:
	.byte	255                     
	.byte	255                     
	.byte	1                       
	.uleb128 Lcst_end2-Lcst_begin2
Lcst_begin2:
	.uleb128 Lfunc_begin2-Lfunc_begin2 
	.uleb128 Ltmp53-Lfunc_begin2    
	.byte	0                       
	.byte	0                       
	.uleb128 Ltmp53-Lfunc_begin2    
	.uleb128 Ltmp58-Ltmp53          
	.uleb128 Ltmp59-Lfunc_begin2    
	.byte	0                       
	.uleb128 Ltmp58-Lfunc_begin2    
	.uleb128 Lfunc_end2-Ltmp58      
	.byte	0                       
	.byte	0                       
Lcst_end2:
	.p2align	2
                                        
	.section	__TEXT,__text,regular,pure_instructions
	.globl	__ZN6loguru12format_valueIPcEENS_4TextERKT_ 
	.weak_definition	__ZN6loguru12format_valueIPcEENS_4TextERKT_
	.p2align	4, 0x90
__ZN6loguru12format_valueIPcEENS_4TextERKT_: 
	.cfi_startproc

	push	rbp
	.cfi_def_cfa_offset 16
	.cfi_offset rbp, -16
	mov	rbp, rsp
	.cfi_def_cfa_register rbp
	sub	rsp, 32
	mov	rax, rdi
	mov	rcx, rdi
	mov	qword ptr [rbp - 8], rcx
	mov	qword ptr [rbp - 16], rsi
	lea	rsi, [rip + L_.str.196]
	mov	qword ptr [rbp - 24], rax 
	mov	al, 0
	call	__ZN6loguru10textprintfEPKcz
	mov	rax, qword ptr [rbp - 24] 
	add	rsp, 32
	pop	rbp
	ret
	.cfi_endproc
                                        
	.globl	__ZN6loguru12format_valueIDnEENS_4TextERKT_ 
	.weak_definition	__ZN6loguru12format_valueIDnEENS_4TextERKT_
	.p2align	4, 0x90
__ZN6loguru12format_valueIDnEENS_4TextERKT_: 
	.cfi_startproc

	push	rbp
	.cfi_def_cfa_offset 16
	.cfi_offset rbp, -16
	mov	rbp, rsp
	.cfi_def_cfa_register rbp
	sub	rsp, 32
	mov	rax, rdi
	mov	rcx, rdi
	mov	qword ptr [rbp - 8], rcx
	mov	qword ptr [rbp - 16], rsi
	lea	rsi, [rip + L_.str.196]
	mov	qword ptr [rbp - 24], rax 
	mov	al, 0
	call	__ZN6loguru10textprintfEPKcz
	mov	rax, qword ptr [rbp - 24] 
	add	rsp, 32
	pop	rbp
	ret
	.cfi_endproc
                                        
	.p2align	4, 0x90         
__ZNSt3__112basic_stringIcNS_11char_traitsIcEENS_9allocatorIcEEEaSEPKc: 
	.cfi_startproc

	push	rbp
	.cfi_def_cfa_offset 16
	.cfi_offset rbp, -16
	mov	rbp, rsp
	.cfi_def_cfa_register rbp
	sub	rsp, 16
	mov	qword ptr [rbp - 8], rdi
	mov	qword ptr [rbp - 16], rsi
	mov	rdi, qword ptr [rbp - 8]
	mov	rsi, qword ptr [rbp - 16]
	call	__ZNSt3__112basic_stringIcNS_11char_traitsIcEENS_9allocatorIcEEE6assignEPKc
	add	rsp, 16
	pop	rbp
	ret
	.cfi_endproc
                                        
	.globl	__ZN6loguru24current_verbosity_cutoffEv 
	.p2align	4, 0x90
__ZN6loguru24current_verbosity_cutoffEv: 

	push	rbp
	mov	rbp, rsp
	mov	eax, dword ptr [rip + __ZN6loguru18g_stderr_verbosityE]
	cmp	eax, dword ptr [rip + __ZN6loguruL19s_max_out_verbosityE]
	jle	LBB53_2

	mov	eax, dword ptr [rip + __ZN6loguru18g_stderr_verbosityE]
	mov	dword ptr [rbp - 4], eax 
	jmp	LBB53_3
LBB53_2:
	mov	eax, dword ptr [rip + __ZN6loguruL19s_max_out_verbosityE]
	mov	dword ptr [rbp - 4], eax 
LBB53_3:
	mov	eax, dword ptr [rbp - 4] 
	pop	rbp
	ret
                                        
	.globl	__ZN6loguru3logEiPKcjS1_z 
	.p2align	4, 0x90
__ZN6loguru3logEiPKcjS1_z:              
Lfunc_begin3:
	.cfi_startproc
	.cfi_personality 155, ___gxx_personality_v0
	.cfi_lsda 16, Lexception3

	push	rbp
	.cfi_def_cfa_offset 16
	.cfi_offset rbp, -16
	mov	rbp, rsp
	.cfi_def_cfa_register rbp
	sub	rsp, 496
	test	al, al
	movaps	xmmword ptr [rbp - 288], xmm7 
	movaps	xmmword ptr [rbp - 304], xmm6 
	movaps	xmmword ptr [rbp - 320], xmm5 
	movaps	xmmword ptr [rbp - 336], xmm4 
	movaps	xmmword ptr [rbp - 352], xmm3 
	movaps	xmmword ptr [rbp - 368], xmm2 
	movaps	xmmword ptr [rbp - 384], xmm1 
	movaps	xmmword ptr [rbp - 400], xmm0 
	mov	qword ptr [rbp - 408], r9 
	mov	qword ptr [rbp - 416], r8 
	mov	qword ptr [rbp - 424], rcx 
	mov	dword ptr [rbp - 428], edx 
	mov	qword ptr [rbp - 440], rsi 
	mov	dword ptr [rbp - 444], edi 
	je	LBB54_8

	movaps	xmm0, xmmword ptr [rbp - 400] 
	movaps	xmmword ptr [rbp - 224], xmm0
	movaps	xmm1, xmmword ptr [rbp - 384] 
	movaps	xmmword ptr [rbp - 208], xmm1
	movaps	xmm2, xmmword ptr [rbp - 368] 
	movaps	xmmword ptr [rbp - 192], xmm2
	movaps	xmm3, xmmword ptr [rbp - 352] 
	movaps	xmmword ptr [rbp - 176], xmm3
	movaps	xmm4, xmmword ptr [rbp - 336] 
	movaps	xmmword ptr [rbp - 160], xmm4
	movaps	xmm5, xmmword ptr [rbp - 320] 
	movaps	xmmword ptr [rbp - 144], xmm5
	movaps	xmm6, xmmword ptr [rbp - 304] 
	movaps	xmmword ptr [rbp - 128], xmm6
	movaps	xmm7, xmmword ptr [rbp - 288] 
	movaps	xmmword ptr [rbp - 112], xmm7
LBB54_8:
	mov	rax, qword ptr [rbp - 408] 
	mov	qword ptr [rbp - 232], rax
	mov	rcx, qword ptr [rbp - 416] 
	mov	qword ptr [rbp - 240], rcx
	mov	rdx, qword ptr [rip + ___stack_chk_guard@GOTPCREL]
	mov	rdx, qword ptr [rdx]
	mov	qword ptr [rbp - 8], rdx
	mov	esi, dword ptr [rbp - 444] 
	mov	dword ptr [rbp - 36], esi
	mov	rdx, qword ptr [rbp - 440] 
	mov	qword ptr [rbp - 48], rdx
	mov	edi, dword ptr [rbp - 428] 
	mov	dword ptr [rbp - 52], edi
	mov	r8, qword ptr [rbp - 424] 
	mov	qword ptr [rbp - 64], r8
	lea	r9, [rbp - 272]
	mov	qword ptr [rbp - 16], r9
	lea	r9, [rbp + 16]
	mov	qword ptr [rbp - 24], r9
	mov	dword ptr [rbp - 28], 48
	mov	dword ptr [rbp - 32], 32
	mov	r9, qword ptr [rbp - 64]
	lea	r10, [rbp - 72]
	lea	rdx, [rbp - 32]
	mov	rdi, r10
	mov	rsi, r9
	mov	qword ptr [rbp - 456], r10 
	call	__ZN6loguruL11vtextprintfEPKcP13__va_list_tag
	mov	esi, dword ptr [rbp - 36]
	mov	rdx, qword ptr [rbp - 48]
	mov	ecx, dword ptr [rbp - 52]
Ltmp60:
	mov	rdi, qword ptr [rbp - 456] 
	mov	dword ptr [rbp - 460], esi 
	mov	qword ptr [rbp - 472], rdx 
	mov	dword ptr [rbp - 476], ecx 
	call	__ZNK6loguru4Text5c_strEv
Ltmp61:
	mov	qword ptr [rbp - 488], rax 
	jmp	LBB54_1
LBB54_1:
Ltmp62:
	lea	r8, [rip + L_.str.8]
	mov	edi, 1
	mov	esi, dword ptr [rbp - 460] 
	mov	rdx, qword ptr [rbp - 472] 
	mov	ecx, dword ptr [rbp - 476] 
	mov	r9, qword ptr [rbp - 488] 
	call	__ZN6loguru17log_to_everywhereEiiPKcjS1_S1_
Ltmp63:
	jmp	LBB54_2
LBB54_2:
	lea	rax, [rbp - 32]
	lea	rdi, [rbp - 72]
	mov	qword ptr [rbp - 496], rax 
	call	__ZN6loguru4TextD1Ev
	mov	rax, qword ptr [rip + ___stack_chk_guard@GOTPCREL]
	mov	rax, qword ptr [rax]
	mov	rcx, qword ptr [rbp - 8]
	cmp	rax, rcx
	jne	LBB54_6

	add	rsp, 496
	pop	rbp
	ret
LBB54_4:
Ltmp64:
                                        
	mov	qword ptr [rbp - 80], rax
	mov	dword ptr [rbp - 84], edx
	lea	rdi, [rbp - 72]
	call	__ZN6loguru4TextD1Ev

	mov	rdi, qword ptr [rbp - 80]
	call	__Unwind_Resume
	ud2
LBB54_6:
	call	___stack_chk_fail
	ud2
Lfunc_end3:
	.cfi_endproc
	.section	__TEXT,__gcc_except_tab
	.p2align	2
GCC_except_table54:
Lexception3:
	.byte	255                     
	.byte	255                     
	.byte	1                       
	.uleb128 Lcst_end3-Lcst_begin3
Lcst_begin3:
	.uleb128 Lfunc_begin3-Lfunc_begin3 
	.uleb128 Ltmp60-Lfunc_begin3    
	.byte	0                       
	.byte	0                       
	.uleb128 Ltmp60-Lfunc_begin3    
	.uleb128 Ltmp63-Ltmp60          
	.uleb128 Ltmp64-Lfunc_begin3    
	.byte	0                       
	.uleb128 Ltmp63-Lfunc_begin3    
	.uleb128 Lfunc_end3-Ltmp63      
	.byte	0                       
	.byte	0                       
Lcst_end3:
	.p2align	2
                                        
	.section	__TEXT,__text,regular,pure_instructions
	.p2align	4, 0x90         
__ZN6loguruL6escapeERNSt3__112basic_stringIcNS0_11char_traitsIcEENS0_9allocatorIcEEEERKS6_: 
	.cfi_startproc

	push	rbp
	.cfi_def_cfa_offset 16
	.cfi_offset rbp, -16
	mov	rbp, rsp
	.cfi_def_cfa_register rbp
	sub	rsp, 64
	mov	qword ptr [rbp - 8], rdi
	mov	qword ptr [rbp - 16], rsi
	mov	rax, qword ptr [rbp - 16]
	mov	qword ptr [rbp - 24], rax
	mov	rdi, qword ptr [rbp - 24]
	call	__ZNKSt3__112basic_stringIcNS_11char_traitsIcEENS_9allocatorIcEEE5beginEv
	mov	qword ptr [rbp - 32], rax
	mov	rdi, qword ptr [rbp - 24]
	call	__ZNKSt3__112basic_stringIcNS_11char_traitsIcEENS_9allocatorIcEEE3endEv
	mov	qword ptr [rbp - 40], rax
LBB55_1:                                
	lea	rdi, [rbp - 32]
	lea	rsi, [rbp - 40]
	call	__ZNSt3__1neIPKcEEbRKNS_11__wrap_iterIT_EES7_
	test	al, 1
	jne	LBB55_2
	jmp	LBB55_41
LBB55_2:                                
	lea	rdi, [rbp - 32]
	call	__ZNKSt3__111__wrap_iterIPKcEdeEv
	mov	cl, byte ptr [rax]
	mov	byte ptr [rbp - 41], cl
	movsx	edx, byte ptr [rbp - 41]
	cmp	edx, 7
	jne	LBB55_4

	mov	rdi, qword ptr [rbp - 8]
	lea	rsi, [rip + L_.str.148]
	call	__ZNSt3__112basic_stringIcNS_11char_traitsIcEENS_9allocatorIcEEEpLEPKc
	jmp	LBB55_39
LBB55_4:                                
	movsx	eax, byte ptr [rbp - 41]
	cmp	eax, 8
	jne	LBB55_6

	mov	rdi, qword ptr [rbp - 8]
	lea	rsi, [rip + L_.str.116]
	call	__ZNSt3__112basic_stringIcNS_11char_traitsIcEENS_9allocatorIcEEEpLEPKc
	jmp	LBB55_38
LBB55_6:                                
	movsx	eax, byte ptr [rbp - 41]
	cmp	eax, 12
	jne	LBB55_8

	mov	rdi, qword ptr [rbp - 8]
	lea	rsi, [rip + L_.str.117]
	call	__ZNSt3__112basic_stringIcNS_11char_traitsIcEENS_9allocatorIcEEEpLEPKc
	jmp	LBB55_37
LBB55_8:                                
	movsx	eax, byte ptr [rbp - 41]
	cmp	eax, 10
	jne	LBB55_10

	mov	rdi, qword ptr [rbp - 8]
	lea	rsi, [rip + L_.str.118]
	call	__ZNSt3__112basic_stringIcNS_11char_traitsIcEENS_9allocatorIcEEEpLEPKc
	jmp	LBB55_36
LBB55_10:                               
	movsx	eax, byte ptr [rbp - 41]
	cmp	eax, 13
	jne	LBB55_12

	mov	rdi, qword ptr [rbp - 8]
	lea	rsi, [rip + L_.str.119]
	call	__ZNSt3__112basic_stringIcNS_11char_traitsIcEENS_9allocatorIcEEEpLEPKc
	jmp	LBB55_35
LBB55_12:                               
	movsx	eax, byte ptr [rbp - 41]
	cmp	eax, 9
	jne	LBB55_14

	mov	rdi, qword ptr [rbp - 8]
	lea	rsi, [rip + L_.str.120]
	call	__ZNSt3__112basic_stringIcNS_11char_traitsIcEENS_9allocatorIcEEEpLEPKc
	jmp	LBB55_34
LBB55_14:                               
	movsx	eax, byte ptr [rbp - 41]
	cmp	eax, 11
	jne	LBB55_16

	mov	rdi, qword ptr [rbp - 8]
	lea	rsi, [rip + L_.str.149]
	call	__ZNSt3__112basic_stringIcNS_11char_traitsIcEENS_9allocatorIcEEEpLEPKc
	jmp	LBB55_33
LBB55_16:                               
	movsx	eax, byte ptr [rbp - 41]
	cmp	eax, 92
	jne	LBB55_18

	mov	rdi, qword ptr [rbp - 8]
	lea	rsi, [rip + L_.str.112]
	call	__ZNSt3__112basic_stringIcNS_11char_traitsIcEENS_9allocatorIcEEEpLEPKc
	jmp	LBB55_32
LBB55_18:                               
	movsx	eax, byte ptr [rbp - 41]
	cmp	eax, 39
	jne	LBB55_20

	mov	rdi, qword ptr [rbp - 8]
	lea	rsi, [rip + L_.str.114]
	call	__ZNSt3__112basic_stringIcNS_11char_traitsIcEENS_9allocatorIcEEEpLEPKc
	jmp	LBB55_31
LBB55_20:                               
	movsx	eax, byte ptr [rbp - 41]
	cmp	eax, 34
	jne	LBB55_22

	mov	rdi, qword ptr [rbp - 8]
	lea	rsi, [rip + L_.str.113]
	call	__ZNSt3__112basic_stringIcNS_11char_traitsIcEENS_9allocatorIcEEEpLEPKc
	jmp	LBB55_30
LBB55_22:                               
	movsx	eax, byte ptr [rbp - 41]
	cmp	eax, 32
	jne	LBB55_24

	mov	rdi, qword ptr [rbp - 8]
	lea	rsi, [rip + L_.str.150]
	call	__ZNSt3__112basic_stringIcNS_11char_traitsIcEENS_9allocatorIcEEEpLEPKc
	jmp	LBB55_29
LBB55_24:                               
	xor	eax, eax
	movsx	ecx, byte ptr [rbp - 41]
	cmp	eax, ecx
	jg	LBB55_27

	movsx	eax, byte ptr [rbp - 41]
	cmp	eax, 32
	jge	LBB55_27

	mov	rdi, qword ptr [rbp - 8]
	lea	rsi, [rip + L_.str.151]
	call	__ZNSt3__112basic_stringIcNS_11char_traitsIcEENS_9allocatorIcEEEpLEPKc
	mov	rdi, qword ptr [rbp - 8]
	movzx	esi, byte ptr [rbp - 41]
	mov	qword ptr [rbp - 56], rax 
	call	__ZN6loguruL14write_hex_byteERNSt3__112basic_stringIcNS0_11char_traitsIcEENS0_9allocatorIcEEEEh
	jmp	LBB55_28
LBB55_27:                               
	mov	al, byte ptr [rbp - 41]
	mov	rdi, qword ptr [rbp - 8]
	movsx	esi, al
	call	__ZNSt3__112basic_stringIcNS_11char_traitsIcEENS_9allocatorIcEEEpLEc
LBB55_28:                               
	jmp	LBB55_29
LBB55_29:                               
	jmp	LBB55_30
LBB55_30:                               
	jmp	LBB55_31
LBB55_31:                               
	jmp	LBB55_32
LBB55_32:                               
	jmp	LBB55_33
LBB55_33:                               
	jmp	LBB55_34
LBB55_34:                               
	jmp	LBB55_35
LBB55_35:                               
	jmp	LBB55_36
LBB55_36:                               
	jmp	LBB55_37
LBB55_37:                               
	jmp	LBB55_38
LBB55_38:                               
	jmp	LBB55_39
LBB55_39:                               
	jmp	LBB55_40
LBB55_40:                               
	lea	rdi, [rbp - 32]
	call	__ZNSt3__111__wrap_iterIPKcEppEv
	jmp	LBB55_1
LBB55_41:
	add	rsp, 64
	pop	rbp
	ret
	.cfi_endproc
                                        
	.p2align	4, 0x90         
__ZNSt3__112basic_stringIcNS_11char_traitsIcEENS_9allocatorIcEEEC1IDnEEPKc: 
	.cfi_startproc

	push	rbp
	.cfi_def_cfa_offset 16
	.cfi_offset rbp, -16
	mov	rbp, rsp
	.cfi_def_cfa_register rbp
	sub	rsp, 16
	mov	qword ptr [rbp - 8], rdi
	mov	qword ptr [rbp - 16], rsi
	mov	rdi, qword ptr [rbp - 8]
	mov	rsi, qword ptr [rbp - 16]
	call	__ZNSt3__112basic_stringIcNS_11char_traitsIcEENS_9allocatorIcEEEC2IDnEEPKc
	add	rsp, 16
	pop	rbp
	ret
	.cfi_endproc
                                        
	.p2align	4, 0x90         
__ZNSt3__112basic_stringIcNS_11char_traitsIcEENS_9allocatorIcEEEpLEPKc: 
	.cfi_startproc

	push	rbp
	.cfi_def_cfa_offset 16
	.cfi_offset rbp, -16
	mov	rbp, rsp
	.cfi_def_cfa_register rbp
	sub	rsp, 16
	mov	qword ptr [rbp - 8], rdi
	mov	qword ptr [rbp - 16], rsi
	mov	rdi, qword ptr [rbp - 8]
	mov	rsi, qword ptr [rbp - 16]
	call	__ZNSt3__112basic_stringIcNS_11char_traitsIcEENS_9allocatorIcEEE6appendEPKc
	add	rsp, 16
	pop	rbp
	ret
	.cfi_endproc
                                        
	.p2align	4, 0x90         
__ZN6loguruL10parse_argsERiPPcPKc:      
Lfunc_begin4:
	.cfi_startproc
	.cfi_personality 155, ___gxx_personality_v0
	.cfi_lsda 16, Lexception4

	push	rbp
	.cfi_def_cfa_offset 16
	.cfi_offset rbp, -16
	mov	rbp, rsp
	.cfi_def_cfa_register rbp
	sub	rsp, 256
	mov	qword ptr [rbp - 8], rdi
	mov	qword ptr [rbp - 16], rsi
	mov	qword ptr [rbp - 24], rdx
	mov	dword ptr [rbp - 28], 1
	mov	rax, qword ptr [rbp - 8]
	mov	ecx, dword ptr [rax]
	mov	dword ptr [rbp - 32], ecx
	mov	dword ptr [rbp - 36], 1
LBB58_1:                                
	mov	eax, dword ptr [rbp - 36]
	mov	rcx, qword ptr [rbp - 8]
	cmp	eax, dword ptr [rcx]
	jge	LBB58_46

	mov	rax, qword ptr [rbp - 16]
	movsxd	rcx, dword ptr [rbp - 36]
	mov	rax, qword ptr [rax + 8*rcx]
	mov	qword ptr [rbp - 48], rax
	mov	rdi, qword ptr [rbp - 24]
	call	_strlen
	mov	qword ptr [rbp - 56], rax
	mov	rdi, qword ptr [rbp - 48]
	mov	rsi, qword ptr [rbp - 24]
	mov	rdx, qword ptr [rbp - 56]
	call	_strncmp
	xor	r8d, r8d
                                        
	mov	byte ptr [rbp - 65], 0
	cmp	eax, 0
	mov	byte ptr [rbp - 153], r8b 
	jne	LBB58_5

	mov	rax, qword ptr [rbp - 48]
	mov	rcx, qword ptr [rbp - 56]
	movsx	edi, byte ptr [rax + rcx]
	lea	rsi, [rip + L_.str.8]
	lea	rax, [rbp - 64]
	mov	dword ptr [rbp - 160], edi 
	mov	rdi, rax
	mov	qword ptr [rbp - 168], rax 
	call	__ZNSt3__16localeC1EPKc
	mov	byte ptr [rbp - 65], 1
Ltmp65:
	mov	edi, dword ptr [rbp - 160] 
	mov	rsi, qword ptr [rbp - 168] 
	call	__ZNSt3__1L7isalphaIcEEbT_RKNS_6localeE
Ltmp66:
	mov	byte ptr [rbp - 169], al 
	jmp	LBB58_4
LBB58_4:                                
	mov	al, byte ptr [rbp - 169] 
	xor	al, -1
	mov	byte ptr [rbp - 153], al 
LBB58_5:                                
	mov	al, byte ptr [rbp - 153] 
	test	byte ptr [rbp - 65], 1
	mov	byte ptr [rbp - 170], al 
	jne	LBB58_6
	jmp	LBB58_7
LBB58_6:                                
	lea	rdi, [rbp - 64]
	call	__ZNSt3__16localeD1Ev
LBB58_7:                                
	mov	al, byte ptr [rbp - 170] 
	test	al, 1
	jne	LBB58_8
	jmp	LBB58_43
LBB58_8:                                
	mov	eax, dword ptr [rbp - 32]
	sub	eax, 1
	mov	dword ptr [rbp - 32], eax
	mov	rcx, qword ptr [rbp - 48]
	add	rcx, qword ptr [rbp - 56]
	mov	qword ptr [rbp - 96], rcx
	mov	rcx, qword ptr [rbp - 96]
	movsx	eax, byte ptr [rcx]
	cmp	eax, 0
	jne	LBB58_32

	mov	eax, dword ptr [rbp - 36]
	add	eax, 1
	mov	dword ptr [rbp - 36], eax

	mov	eax, dword ptr [rbp - 36]
	mov	dword ptr [rbp - 100], eax
	mov	rcx, qword ptr [rbp - 8]
	mov	eax, dword ptr [rcx]
	mov	dword ptr [rbp - 104], eax
	mov	eax, dword ptr [rbp - 100]
	cmp	eax, dword ptr [rbp - 104]
	setl	dl
	xor	dl, -1
	xor	dl, -1
	test	dl, 1
	jne	LBB58_30

	lea	rdi, [rbp - 112]
	lea	rsi, [rbp - 100]
	call	__ZN6loguru12format_valueIiEENS_4TextERKT_
Ltmp68:
	lea	rdi, [rbp - 120]
	lea	rsi, [rbp - 104]
	call	__ZN6loguru12format_valueIiEENS_4TextERKT_
Ltmp69:
	jmp	LBB58_12
LBB58_12:
Ltmp71:
	lea	rdi, [rbp - 112]
	call	__ZNK6loguru4Text5c_strEv
Ltmp72:
	mov	qword ptr [rbp - 184], rax 
	jmp	LBB58_13
LBB58_13:
Ltmp73:
	lea	rdi, [rbp - 120]
	call	__ZNK6loguru4Text5c_strEv
Ltmp74:
	mov	qword ptr [rbp - 192], rax 
	jmp	LBB58_14
LBB58_14:
Ltmp75:
	mov	rax, rsp
	mov	rcx, qword ptr [rbp - 192] 
	mov	qword ptr [rax + 8], rcx
	lea	rdx, [rip + L_.str.153]
	mov	qword ptr [rax], rdx
	lea	rsi, [rip + L_.str.23]
	lea	rax, [rip + L_.str.155]
	lea	r8, [rip + L_.str.24]
	xor	edi, edi
                                        
	lea	r9, [rbp - 128]
	mov	byte ptr [rbp - 193], dil 
	mov	rdi, r9
	mov	qword ptr [rbp - 208], rdx 
	mov	rdx, rax
	mov	rcx, qword ptr [rbp - 208] 
	mov	r9, qword ptr [rbp - 184] 
	mov	al, byte ptr [rbp - 193] 
	call	__ZN6loguru10textprintfEPKcz
Ltmp76:
	jmp	LBB58_15
LBB58_15:
	mov	rdx, qword ptr [rbp - 24]
Ltmp78:
	lea	rsi, [rip + L_.str.156]
	xor	eax, eax
                                        
	lea	rdi, [rbp - 136]
	call	__ZN6loguru10textprintfEPKcz
Ltmp79:
	jmp	LBB58_16
LBB58_16:
Ltmp81:
	lea	rdi, [rbp - 128]
	call	__ZNK6loguru4Text5c_strEv
Ltmp82:
	mov	qword ptr [rbp - 216], rax 
	jmp	LBB58_17
LBB58_17:
Ltmp83:
	lea	rdi, [rbp - 136]
	call	__ZNK6loguru4Text5c_strEv
Ltmp84:
	mov	qword ptr [rbp - 224], rax 
	jmp	LBB58_18
LBB58_18:
Ltmp85:
	lea	rdx, [rip + L_.str.28]
	lea	r8, [rip + L_.str.29]
	xor	eax, eax
	mov	cl, al
	mov	esi, 482
	mov	edi, eax
	mov	r9, qword ptr [rbp - 216] 
	mov	dword ptr [rbp - 228], esi 
	mov	rsi, r9
	mov	eax, dword ptr [rbp - 228] 
	mov	byte ptr [rbp - 229], cl 
	mov	ecx, eax
	mov	r9, qword ptr [rbp - 224] 
	mov	al, byte ptr [rbp - 229] 
	call	__ZN6loguru13log_and_abortEiPKcS1_jS1_z
Ltmp86:
	jmp	LBB58_19
LBB58_19:
	ud2
LBB58_20:
Ltmp67:
                                        
	mov	qword ptr [rbp - 80], rax
	mov	dword ptr [rbp - 84], edx
	test	byte ptr [rbp - 65], 1
	jne	LBB58_21
	jmp	LBB58_22
LBB58_21:
	lea	rdi, [rbp - 64]
	call	__ZNSt3__16localeD1Ev
LBB58_22:
	jmp	LBB58_47
LBB58_23:
Ltmp70:
                                        
	mov	qword ptr [rbp - 80], rax
	mov	dword ptr [rbp - 84], edx
	jmp	LBB58_29
LBB58_24:
Ltmp77:
                                        
	mov	qword ptr [rbp - 80], rax
	mov	dword ptr [rbp - 84], edx
	jmp	LBB58_28
LBB58_25:
Ltmp80:
                                        
	mov	qword ptr [rbp - 80], rax
	mov	dword ptr [rbp - 84], edx
	jmp	LBB58_27
LBB58_26:
Ltmp87:
                                        
	mov	qword ptr [rbp - 80], rax
	mov	dword ptr [rbp - 84], edx
	lea	rdi, [rbp - 136]
	call	__ZN6loguru4TextD1Ev
LBB58_27:
	lea	rdi, [rbp - 128]
	call	__ZN6loguru4TextD1Ev
LBB58_28:
	lea	rdi, [rbp - 120]
	call	__ZN6loguru4TextD1Ev
LBB58_29:
	lea	rdi, [rbp - 112]
	call	__ZN6loguru4TextD1Ev
	jmp	LBB58_47
LBB58_30:                               
	jmp	LBB58_31
LBB58_31:                               
	mov	rax, qword ptr [rbp - 16]
	movsxd	rcx, dword ptr [rbp - 36]
	mov	rax, qword ptr [rax + 8*rcx]
	mov	qword ptr [rbp - 96], rax
	mov	edx, dword ptr [rbp - 32]
	sub	edx, 1
	mov	dword ptr [rbp - 32], edx
LBB58_32:                               
	mov	rax, qword ptr [rbp - 96]
	movsx	ecx, byte ptr [rax]
	cmp	ecx, 61
	jne	LBB58_34

	mov	rax, qword ptr [rbp - 96]
	add	rax, 1
	mov	qword ptr [rbp - 96], rax
LBB58_34:                               
	mov	rdi, qword ptr [rbp - 96]
	call	__ZN6loguru23get_verbosity_from_nameEPKc
	mov	dword ptr [rbp - 140], eax
	cmp	dword ptr [rbp - 140], -10
	je	LBB58_36

	mov	eax, dword ptr [rbp - 140]
	mov	dword ptr [rip + __ZN6loguru18g_stderr_verbosityE], eax
	jmp	LBB58_42
LBB58_36:                               
	mov	qword ptr [rbp - 152], 0
	mov	rdi, qword ptr [rbp - 96]
	lea	rsi, [rbp - 152]
	mov	edx, 10
	call	_strtol
	xor	ecx, ecx
                                        
                                        
	mov	dword ptr [rip + __ZN6loguru18g_stderr_verbosityE], eax
	cmp	qword ptr [rbp - 152], 0
	mov	byte ptr [rbp - 230], cl 
	je	LBB58_38

	mov	rax, qword ptr [rbp - 152]
	movsx	ecx, byte ptr [rax]
	cmp	ecx, 0
	sete	dl
	mov	byte ptr [rbp - 230], dl 
LBB58_38:                               
	mov	al, byte ptr [rbp - 230] 
	and	al, 1
	movzx	ecx, al
	cmp	ecx, 1
	sete	al
	xor	al, -1
	xor	al, -1
	test	al, 1
	jne	LBB58_39
	jmp	LBB58_40
LBB58_39:                               
	jmp	LBB58_41
LBB58_40:
	mov	r9, qword ptr [rbp - 96]
	lea	rsi, [rip + L_.str.157]
	lea	rdx, [rip + L_.str.28]
	lea	r8, [rip + L_.str.158]
	xor	eax, eax
	mov	cl, al
	mov	edi, 495
	mov	dword ptr [rbp - 236], edi 
	mov	edi, eax
	mov	eax, dword ptr [rbp - 236] 
	mov	byte ptr [rbp - 237], cl 
	mov	ecx, eax
	mov	al, byte ptr [rbp - 237] 
	call	__ZN6loguru13log_and_abortEiPKcS1_jS1_z
LBB58_41:                               
	jmp	LBB58_42
LBB58_42:                               
	jmp	LBB58_44
LBB58_43:                               
	mov	rax, qword ptr [rbp - 16]
	movsxd	rcx, dword ptr [rbp - 36]
	mov	rax, qword ptr [rax + 8*rcx]
	mov	rcx, qword ptr [rbp - 16]
	mov	edx, dword ptr [rbp - 28]
	mov	esi, edx
	add	esi, 1
	mov	dword ptr [rbp - 28], esi
	movsxd	rdi, edx
	mov	qword ptr [rcx + 8*rdi], rax
LBB58_44:                               
	jmp	LBB58_45
LBB58_45:                               
	mov	eax, dword ptr [rbp - 36]
	add	eax, 1
	mov	dword ptr [rbp - 36], eax
	jmp	LBB58_1
LBB58_46:
	mov	eax, dword ptr [rbp - 32]
	mov	rcx, qword ptr [rbp - 8]
	mov	dword ptr [rcx], eax
	mov	rcx, qword ptr [rbp - 16]
	mov	rdx, qword ptr [rbp - 8]
	movsxd	rdx, dword ptr [rdx]
	mov	qword ptr [rcx + 8*rdx], 0
	add	rsp, 256
	pop	rbp
	ret
LBB58_47:
	mov	rdi, qword ptr [rbp - 80]
	call	__Unwind_Resume
	ud2
Lfunc_end4:
	.cfi_endproc
	.section	__TEXT,__gcc_except_tab
	.p2align	2
GCC_except_table58:
Lexception4:
	.byte	255                     
	.byte	255                     
	.byte	1                       
	.uleb128 Lcst_end4-Lcst_begin4
Lcst_begin4:
	.uleb128 Lfunc_begin4-Lfunc_begin4 
	.uleb128 Ltmp65-Lfunc_begin4    
	.byte	0                       
	.byte	0                       
	.uleb128 Ltmp65-Lfunc_begin4    
	.uleb128 Ltmp66-Ltmp65          
	.uleb128 Ltmp67-Lfunc_begin4    
	.byte	0                       
	.uleb128 Ltmp66-Lfunc_begin4    
	.uleb128 Ltmp68-Ltmp66          
	.byte	0                       
	.byte	0                       
	.uleb128 Ltmp68-Lfunc_begin4    
	.uleb128 Ltmp69-Ltmp68          
	.uleb128 Ltmp70-Lfunc_begin4    
	.byte	0                       
	.uleb128 Ltmp71-Lfunc_begin4    
	.uleb128 Ltmp76-Ltmp71          
	.uleb128 Ltmp77-Lfunc_begin4    
	.byte	0                       
	.uleb128 Ltmp78-Lfunc_begin4    
	.uleb128 Ltmp79-Ltmp78          
	.uleb128 Ltmp80-Lfunc_begin4    
	.byte	0                       
	.uleb128 Ltmp81-Lfunc_begin4    
	.uleb128 Ltmp86-Ltmp81          
	.uleb128 Ltmp87-Lfunc_begin4    
	.byte	0                       
	.uleb128 Ltmp86-Lfunc_begin4    
	.uleb128 Lfunc_end4-Ltmp86      
	.byte	0                       
	.byte	0                       
Lcst_end4:
	.p2align	2
                                        
	.section	__TEXT,__text,regular,pure_instructions
	.p2align	4, 0x90         
__ZN6loguruL21print_preamble_headerEPcm: 
	.cfi_startproc

	push	rbp
	.cfi_def_cfa_offset 16
	.cfi_offset rbp, -16
	mov	rbp, rsp
	.cfi_def_cfa_register rbp
	sub	rsp, 32
	mov	qword ptr [rbp - 8], rdi
	mov	qword ptr [rbp - 16], rsi
	cmp	qword ptr [rbp - 16], 0
	jne	LBB59_2

	jmp	LBB59_23
LBB59_2:
	mov	rax, qword ptr [rbp - 8]
	mov	byte ptr [rax], 0
	mov	qword ptr [rbp - 24], 0
	test	byte ptr [rip + __ZN6loguru15g_preamble_dateE], 1
	je	LBB59_5

	mov	rax, qword ptr [rbp - 24]
	cmp	rax, qword ptr [rbp - 16]
	jae	LBB59_5

	mov	rax, qword ptr [rbp - 8]
	add	rax, qword ptr [rbp - 24]
	mov	rcx, qword ptr [rbp - 16]
	sub	rcx, qword ptr [rbp - 24]
	mov	rdi, rax
	mov	rsi, rcx
	lea	rdx, [rip + L_.str.162]
	mov	al, 0
	call	_snprintf
	movsxd	rcx, eax
	add	rcx, qword ptr [rbp - 24]
	mov	qword ptr [rbp - 24], rcx
LBB59_5:
	test	byte ptr [rip + __ZN6loguru15g_preamble_timeE], 1
	je	LBB59_8

	mov	rax, qword ptr [rbp - 24]
	cmp	rax, qword ptr [rbp - 16]
	jae	LBB59_8

	mov	rax, qword ptr [rbp - 8]
	add	rax, qword ptr [rbp - 24]
	mov	rcx, qword ptr [rbp - 16]
	sub	rcx, qword ptr [rbp - 24]
	mov	rdi, rax
	mov	rsi, rcx
	lea	rdx, [rip + L_.str.163]
	mov	al, 0
	call	_snprintf
	movsxd	rcx, eax
	add	rcx, qword ptr [rbp - 24]
	mov	qword ptr [rbp - 24], rcx
LBB59_8:
	test	byte ptr [rip + __ZN6loguru17g_preamble_uptimeE], 1
	je	LBB59_11

	mov	rax, qword ptr [rbp - 24]
	cmp	rax, qword ptr [rbp - 16]
	jae	LBB59_11

	mov	rax, qword ptr [rbp - 8]
	add	rax, qword ptr [rbp - 24]
	mov	rcx, qword ptr [rbp - 16]
	sub	rcx, qword ptr [rbp - 24]
	mov	rdi, rax
	mov	rsi, rcx
	lea	rdx, [rip + L_.str.164]
	mov	al, 0
	call	_snprintf
	movsxd	rcx, eax
	add	rcx, qword ptr [rbp - 24]
	mov	qword ptr [rbp - 24], rcx
LBB59_11:
	test	byte ptr [rip + __ZN6loguru17g_preamble_threadE], 1
	je	LBB59_14

	mov	rax, qword ptr [rbp - 24]
	cmp	rax, qword ptr [rbp - 16]
	jae	LBB59_14

	mov	rax, qword ptr [rbp - 8]
	add	rax, qword ptr [rbp - 24]
	mov	rcx, qword ptr [rbp - 16]
	sub	rcx, qword ptr [rbp - 24]
	mov	rdi, rax
	mov	rsi, rcx
	lea	rdx, [rip + L_.str.165]
	mov	ecx, 16
	lea	r8, [rip + L_.str.166]
	mov	al, 0
	call	_snprintf
	movsxd	rdx, eax
	add	rdx, qword ptr [rbp - 24]
	mov	qword ptr [rbp - 24], rdx
LBB59_14:
	test	byte ptr [rip + __ZN6loguru15g_preamble_fileE], 1
	je	LBB59_17

	mov	rax, qword ptr [rbp - 24]
	cmp	rax, qword ptr [rbp - 16]
	jae	LBB59_17

	mov	rax, qword ptr [rbp - 8]
	add	rax, qword ptr [rbp - 24]
	mov	rcx, qword ptr [rbp - 16]
	sub	rcx, qword ptr [rbp - 24]
	mov	rdi, rax
	mov	rsi, rcx
	lea	rdx, [rip + L_.str.167]
	mov	ecx, 23
	lea	r8, [rip + L_.str.168]
	mov	al, 0
	call	_snprintf
	movsxd	rdx, eax
	add	rdx, qword ptr [rbp - 24]
	mov	qword ptr [rbp - 24], rdx
LBB59_17:
	test	byte ptr [rip + __ZN6loguru18g_preamble_verboseE], 1
	je	LBB59_20

	mov	rax, qword ptr [rbp - 24]
	cmp	rax, qword ptr [rbp - 16]
	jae	LBB59_20

	mov	rax, qword ptr [rbp - 8]
	add	rax, qword ptr [rbp - 24]
	mov	rcx, qword ptr [rbp - 16]
	sub	rcx, qword ptr [rbp - 24]
	mov	rdi, rax
	mov	rsi, rcx
	lea	rdx, [rip + L_.str.169]
	mov	al, 0
	call	_snprintf
	movsxd	rcx, eax
	add	rcx, qword ptr [rbp - 24]
	mov	qword ptr [rbp - 24], rcx
LBB59_20:
	test	byte ptr [rip + __ZN6loguru15g_preamble_pipeE], 1
	je	LBB59_23

	mov	rax, qword ptr [rbp - 24]
	cmp	rax, qword ptr [rbp - 16]
	jae	LBB59_23

	mov	rax, qword ptr [rbp - 8]
	add	rax, qword ptr [rbp - 24]
	mov	rcx, qword ptr [rbp - 16]
	sub	rcx, qword ptr [rbp - 24]
	mov	rdi, rax
	mov	rsi, rcx
	lea	rdx, [rip + L_.str.170]
	mov	al, 0
	call	_snprintf
	movsxd	rcx, eax
	add	rcx, qword ptr [rbp - 24]
	mov	qword ptr [rbp - 24], rcx
LBB59_23:
	add	rsp, 32
	pop	rbp
	ret
	.cfi_endproc
                                        
	.p2align	4, 0x90         
__ZNKSt3__112basic_stringIcNS_11char_traitsIcEENS_9allocatorIcEEE5c_strEv: 

	push	rbp
	mov	rbp, rsp
	sub	rsp, 16
	mov	qword ptr [rbp - 8], rdi
	mov	rdi, qword ptr [rbp - 8]
	call	__ZNKSt3__112basic_stringIcNS_11char_traitsIcEENS_9allocatorIcEEE4dataEv
	add	rsp, 16
	pop	rbp
	ret
                                        
	.p2align	4, 0x90         
__ZN6loguruL23install_signal_handlersERKNS_13SignalOptionsE: 
	.cfi_startproc

	push	rbp
	.cfi_def_cfa_offset 16
	.cfi_offset rbp, -16
	mov	rbp, rsp
	.cfi_def_cfa_register rbp
	sub	rsp, 80
	xor	esi, esi
	mov	qword ptr [rbp - 8], rdi
	mov	rax, qword ptr [rbp - 8]
	mov	rax, qword ptr [rax]
	mov	qword ptr [rip + __ZN6loguruL16s_signal_optionsE], rax
	lea	rax, [rbp - 24]
	mov	rdi, rax
	mov	edx, 16
	call	_memset
	mov	dword ptr [rbp - 16], 0
	mov	ecx, dword ptr [rbp - 12]
	or	ecx, 64
	mov	dword ptr [rbp - 12], ecx
	lea	rax, [rip + __ZN6loguru14signal_handlerEiP9__siginfoPv]
	mov	qword ptr [rbp - 24], rax
	mov	rax, qword ptr [rbp - 8]
	test	byte ptr [rax + 1], 1
	je	LBB61_5

	xor	eax, eax
	mov	edx, eax
	mov	edi, 6
	lea	rsi, [rbp - 24]
	call	_sigaction
	cmp	eax, -1
	setne	cl
	and	cl, 1
	movzx	eax, cl
	cmp	eax, 1
	sete	cl
	xor	cl, -1
	xor	cl, -1
	test	cl, 1
	jne	LBB61_2
	jmp	LBB61_3
LBB61_2:
	jmp	LBB61_4
LBB61_3:
	lea	rsi, [rip + L_.str.182]
	lea	rdx, [rip + L_.str.28]
	lea	r8, [rip + L_.str.183]
	xor	eax, eax
	mov	cl, al
	mov	edi, 1934
	mov	dword ptr [rbp - 28], edi 
	mov	edi, eax
	mov	eax, dword ptr [rbp - 28] 
	mov	byte ptr [rbp - 29], cl 
	mov	ecx, eax
	mov	al, byte ptr [rbp - 29] 
	call	__ZN6loguru13log_and_abortEiPKcS1_jS1_z
LBB61_4:
	jmp	LBB61_5
LBB61_5:
	mov	rax, qword ptr [rbp - 8]
	test	byte ptr [rax + 2], 1
	je	LBB61_10

	xor	eax, eax
	mov	edx, eax
	mov	edi, 10
	lea	rsi, [rbp - 24]
	call	_sigaction
	cmp	eax, -1
	setne	cl
	and	cl, 1
	movzx	eax, cl
	cmp	eax, 1
	sete	cl
	xor	cl, -1
	xor	cl, -1
	test	cl, 1
	jne	LBB61_7
	jmp	LBB61_8
LBB61_7:
	jmp	LBB61_9
LBB61_8:
	lea	rsi, [rip + L_.str.184]
	lea	rdx, [rip + L_.str.28]
	lea	r8, [rip + L_.str.185]
	xor	eax, eax
	mov	cl, al
	mov	edi, 1937
	mov	dword ptr [rbp - 36], edi 
	mov	edi, eax
	mov	eax, dword ptr [rbp - 36] 
	mov	byte ptr [rbp - 37], cl 
	mov	ecx, eax
	mov	al, byte ptr [rbp - 37] 
	call	__ZN6loguru13log_and_abortEiPKcS1_jS1_z
LBB61_9:
	jmp	LBB61_10
LBB61_10:
	mov	rax, qword ptr [rbp - 8]
	test	byte ptr [rax + 3], 1
	je	LBB61_15

	xor	eax, eax
	mov	edx, eax
	mov	edi, 8
	lea	rsi, [rbp - 24]
	call	_sigaction
	cmp	eax, -1
	setne	cl
	and	cl, 1
	movzx	eax, cl
	cmp	eax, 1
	sete	cl
	xor	cl, -1
	xor	cl, -1
	test	cl, 1
	jne	LBB61_12
	jmp	LBB61_13
LBB61_12:
	jmp	LBB61_14
LBB61_13:
	lea	rsi, [rip + L_.str.186]
	lea	rdx, [rip + L_.str.28]
	lea	r8, [rip + L_.str.187]
	xor	eax, eax
	mov	cl, al
	mov	edi, 1940
	mov	dword ptr [rbp - 44], edi 
	mov	edi, eax
	mov	eax, dword ptr [rbp - 44] 
	mov	byte ptr [rbp - 45], cl 
	mov	ecx, eax
	mov	al, byte ptr [rbp - 45] 
	call	__ZN6loguru13log_and_abortEiPKcS1_jS1_z
LBB61_14:
	jmp	LBB61_15
LBB61_15:
	mov	rax, qword ptr [rbp - 8]
	test	byte ptr [rax + 4], 1
	je	LBB61_20

	xor	eax, eax
	mov	edx, eax
	mov	edi, 4
	lea	rsi, [rbp - 24]
	call	_sigaction
	cmp	eax, -1
	setne	cl
	and	cl, 1
	movzx	eax, cl
	cmp	eax, 1
	sete	cl
	xor	cl, -1
	xor	cl, -1
	test	cl, 1
	jne	LBB61_17
	jmp	LBB61_18
LBB61_17:
	jmp	LBB61_19
LBB61_18:
	lea	rsi, [rip + L_.str.188]
	lea	rdx, [rip + L_.str.28]
	lea	r8, [rip + L_.str.189]
	xor	eax, eax
	mov	cl, al
	mov	edi, 1943
	mov	dword ptr [rbp - 52], edi 
	mov	edi, eax
	mov	eax, dword ptr [rbp - 52] 
	mov	byte ptr [rbp - 53], cl 
	mov	ecx, eax
	mov	al, byte ptr [rbp - 53] 
	call	__ZN6loguru13log_and_abortEiPKcS1_jS1_z
LBB61_19:
	jmp	LBB61_20
LBB61_20:
	mov	rax, qword ptr [rbp - 8]
	test	byte ptr [rax + 5], 1
	je	LBB61_25

	xor	eax, eax
	mov	edx, eax
	mov	edi, 2
	lea	rsi, [rbp - 24]
	call	_sigaction
	cmp	eax, -1
	setne	cl
	and	cl, 1
	movzx	eax, cl
	cmp	eax, 1
	sete	cl
	xor	cl, -1
	xor	cl, -1
	test	cl, 1
	jne	LBB61_22
	jmp	LBB61_23
LBB61_22:
	jmp	LBB61_24
LBB61_23:
	lea	rsi, [rip + L_.str.190]
	lea	rdx, [rip + L_.str.28]
	lea	r8, [rip + L_.str.191]
	xor	eax, eax
	mov	cl, al
	mov	edi, 1946
	mov	dword ptr [rbp - 60], edi 
	mov	edi, eax
	mov	eax, dword ptr [rbp - 60] 
	mov	byte ptr [rbp - 61], cl 
	mov	ecx, eax
	mov	al, byte ptr [rbp - 61] 
	call	__ZN6loguru13log_and_abortEiPKcS1_jS1_z
LBB61_24:
	jmp	LBB61_25
LBB61_25:
	mov	rax, qword ptr [rbp - 8]
	test	byte ptr [rax + 6], 1
	je	LBB61_30

	xor	eax, eax
	mov	edx, eax
	mov	edi, 11
	lea	rsi, [rbp - 24]
	call	_sigaction
	cmp	eax, -1
	setne	cl
	and	cl, 1
	movzx	eax, cl
	cmp	eax, 1
	sete	cl
	xor	cl, -1
	xor	cl, -1
	test	cl, 1
	jne	LBB61_27
	jmp	LBB61_28
LBB61_27:
	jmp	LBB61_29
LBB61_28:
	lea	rsi, [rip + L_.str.192]
	lea	rdx, [rip + L_.str.28]
	lea	r8, [rip + L_.str.193]
	xor	eax, eax
	mov	cl, al
	mov	edi, 1949
	mov	dword ptr [rbp - 68], edi 
	mov	edi, eax
	mov	eax, dword ptr [rbp - 68] 
	mov	byte ptr [rbp - 69], cl 
	mov	ecx, eax
	mov	al, byte ptr [rbp - 69] 
	call	__ZN6loguru13log_and_abortEiPKcS1_jS1_z
LBB61_29:
	jmp	LBB61_30
LBB61_30:
	mov	rax, qword ptr [rbp - 8]
	test	byte ptr [rax + 7], 1
	je	LBB61_35

	xor	eax, eax
	mov	edx, eax
	mov	edi, 15
	lea	rsi, [rbp - 24]
	call	_sigaction
	cmp	eax, -1
	setne	cl
	and	cl, 1
	movzx	eax, cl
	cmp	eax, 1
	sete	cl
	xor	cl, -1
	xor	cl, -1
	test	cl, 1
	jne	LBB61_32
	jmp	LBB61_33
LBB61_32:
	jmp	LBB61_34
LBB61_33:
	lea	rsi, [rip + L_.str.194]
	lea	rdx, [rip + L_.str.28]
	lea	r8, [rip + L_.str.195]
	xor	eax, eax
	mov	cl, al
	mov	edi, 1952
	mov	dword ptr [rbp - 76], edi 
	mov	edi, eax
	mov	eax, dword ptr [rbp - 76] 
	mov	byte ptr [rbp - 77], cl 
	mov	ecx, eax
	mov	al, byte ptr [rbp - 77] 
	call	__ZN6loguru13log_and_abortEiPKcS1_jS1_z
LBB61_34:
	jmp	LBB61_35
LBB61_35:
	add	rsp, 80
	pop	rbp
	ret
	.cfi_endproc
                                        
	.p2align	4, 0x90         
__ZN6loguruL9on_atexitEv:               
	.cfi_startproc

	push	rbp
	.cfi_def_cfa_offset 16
	.cfi_offset rbp, -16
	mov	rbp, rsp
	.cfi_def_cfa_register rbp
	sub	rsp, 16
	mov	eax, dword ptr [rip + __ZN6loguru20g_internal_verbosityE]
	mov	dword ptr [rbp - 4], eax 
	call	__ZN6loguru24current_verbosity_cutoffEv
	mov	ecx, dword ptr [rbp - 4] 
	cmp	ecx, eax
	jle	LBB62_2

	jmp	LBB62_3
LBB62_2:
	mov	edi, dword ptr [rip + __ZN6loguru20g_internal_verbosityE]
	lea	rsi, [rip + L_.str.28]
	mov	edx, 526
	lea	rcx, [rip + L_.str.159]
	mov	al, 0
	call	__ZN6loguru3logEiPKcjS1_z
LBB62_3:
	call	__ZN6loguru5flushEv
	add	rsp, 16
	pop	rbp
	ret
	.cfi_endproc
                                        
	.globl	__ZN6loguru8shutdownEv  
	.p2align	4, 0x90
__ZN6loguru8shutdownEv:                 
	.cfi_startproc

	push	rbp
	.cfi_def_cfa_offset 16
	.cfi_offset rbp, -16
	mov	rbp, rsp
	.cfi_def_cfa_register rbp
	sub	rsp, 16
	mov	eax, dword ptr [rip + __ZN6loguru20g_internal_verbosityE]
	mov	dword ptr [rbp - 4], eax 
	call	__ZN6loguru24current_verbosity_cutoffEv
	mov	ecx, dword ptr [rbp - 4] 
	cmp	ecx, eax
	jle	LBB63_2

	jmp	LBB63_3
LBB63_2:
	mov	edi, dword ptr [rip + __ZN6loguru20g_internal_verbosityE]
	lea	rsi, [rip + L_.str.28]
	mov	edx, 662
	lea	rcx, [rip + L_.str.41]
	mov	al, 0
	call	__ZN6loguru3logEiPKcjS1_z
LBB63_3:
	call	__ZN6loguru20remove_all_callbacksEv
	xor	eax, eax
	mov	edi, eax
	call	__ZN6loguru17set_fatal_handlerEPFvRKNS_7MessageEE
	xor	eax, eax
	mov	edi, eax
	call	__ZN6loguru30set_verbosity_to_name_callbackEPFPKciE
	xor	eax, eax
	mov	edi, eax
	call	__ZN6loguru30set_name_to_verbosity_callbackEPFiPKcE
	add	rsp, 16
	pop	rbp
	ret
	.cfi_endproc
                                        
	.globl	__ZN6loguru20remove_all_callbacksEv 
	.p2align	4, 0x90
__ZN6loguru20remove_all_callbacksEv:    
Lfunc_begin5:
	.cfi_startproc
	.cfi_personality 155, ___gxx_personality_v0
	.cfi_lsda 16, Lexception5

	push	rbp
	.cfi_def_cfa_offset 16
	.cfi_offset rbp, -16
	mov	rbp, rsp
	.cfi_def_cfa_register rbp
	sub	rsp, 64
	lea	rdi, [rbp - 8]
	lea	rsi, [rip + __ZN6loguruL7s_mutexE]
	call	__ZNSt3__110lock_guardINS_15recursive_mutexEEC1ERS1_
	lea	rax, [rip + __ZN6loguruL11s_callbacksE]
	mov	qword ptr [rbp - 16], rax
	mov	rdi, rax
	call	__ZNSt3__16vectorIN6loguru8CallbackENS_9allocatorIS2_EEE5beginEv
	mov	qword ptr [rbp - 24], rax
	lea	rdi, [rip + __ZN6loguruL11s_callbacksE]
	call	__ZNSt3__16vectorIN6loguru8CallbackENS_9allocatorIS2_EEE3endEv
	mov	qword ptr [rbp - 32], rax
LBB64_1:                                
	lea	rdi, [rbp - 24]
	lea	rsi, [rbp - 32]
	call	__ZNSt3__1neIPN6loguru8CallbackEEEbRKNS_11__wrap_iterIT_EES8_
	test	al, 1
	jne	LBB64_2
	jmp	LBB64_8
LBB64_2:                                
	lea	rdi, [rbp - 24]
	call	__ZNKSt3__111__wrap_iterIPN6loguru8CallbackEEdeEv
	mov	qword ptr [rbp - 40], rax
	mov	rax, qword ptr [rbp - 40]
	cmp	qword ptr [rax + 48], 0
	je	LBB64_6

	mov	rax, qword ptr [rbp - 40]
	mov	rdi, qword ptr [rax + 32]
	mov	rax, qword ptr [rax + 48]
Ltmp90:
	call	rax
Ltmp91:
	jmp	LBB64_4
LBB64_4:                                
	jmp	LBB64_6
LBB64_5:
Ltmp92:
                                        
	mov	qword ptr [rbp - 48], rax
	mov	dword ptr [rbp - 52], edx
	lea	rdi, [rbp - 8]
	call	__ZNSt3__110lock_guardINS_15recursive_mutexEED1Ev
	jmp	LBB64_10
LBB64_6:                                
	jmp	LBB64_7
LBB64_7:                                
	lea	rdi, [rbp - 24]
	call	__ZNSt3__111__wrap_iterIPN6loguru8CallbackEEppEv
	jmp	LBB64_1
LBB64_8:
	lea	rdi, [rip + __ZN6loguruL11s_callbacksE]
	call	__ZNSt3__16vectorIN6loguru8CallbackENS_9allocatorIS2_EEE5clearEv
Ltmp88:
	call	__ZN6loguruL18on_callback_changeEv
Ltmp89:
	jmp	LBB64_9
LBB64_9:
	lea	rdi, [rbp - 8]
	call	__ZNSt3__110lock_guardINS_15recursive_mutexEED1Ev
	add	rsp, 64
	pop	rbp
	ret
LBB64_10:
	mov	rdi, qword ptr [rbp - 48]
	call	__Unwind_Resume
	ud2
Lfunc_end5:
	.cfi_endproc
	.section	__TEXT,__gcc_except_tab
	.p2align	2
GCC_except_table64:
Lexception5:
	.byte	255                     
	.byte	255                     
	.byte	1                       
	.uleb128 Lcst_end5-Lcst_begin5
Lcst_begin5:
	.uleb128 Lfunc_begin5-Lfunc_begin5 
	.uleb128 Ltmp90-Lfunc_begin5    
	.byte	0                       
	.byte	0                       
	.uleb128 Ltmp90-Lfunc_begin5    
	.uleb128 Ltmp89-Ltmp90          
	.uleb128 Ltmp92-Lfunc_begin5    
	.byte	0                       
	.uleb128 Ltmp89-Lfunc_begin5    
	.uleb128 Lfunc_end5-Ltmp89      
	.byte	0                       
	.byte	0                       
Lcst_end5:
	.p2align	2
                                        
	.section	__TEXT,__text,regular,pure_instructions
	.globl	__ZN6loguru17set_fatal_handlerEPFvRKNS_7MessageEE 
	.p2align	4, 0x90
__ZN6loguru17set_fatal_handlerEPFvRKNS_7MessageEE: 

	push	rbp
	mov	rbp, rsp
	mov	qword ptr [rbp - 8], rdi
	mov	rax, qword ptr [rbp - 8]
	mov	qword ptr [rip + __ZN6loguruL15s_fatal_handlerE], rax
	pop	rbp
	ret
                                        
	.globl	__ZN6loguru30set_verbosity_to_name_callbackEPFPKciE 
	.p2align	4, 0x90
__ZN6loguru30set_verbosity_to_name_callbackEPFPKciE: 

	push	rbp
	mov	rbp, rsp
	mov	qword ptr [rbp - 8], rdi
	mov	rax, qword ptr [rbp - 8]
	mov	qword ptr [rip + __ZN6loguruL28s_verbosity_to_name_callbackE], rax
	pop	rbp
	ret
                                        
	.globl	__ZN6loguru30set_name_to_verbosity_callbackEPFiPKcE 
	.p2align	4, 0x90
__ZN6loguru30set_name_to_verbosity_callbackEPFiPKcE: 

	push	rbp
	mov	rbp, rsp
	mov	qword ptr [rbp - 8], rdi
	mov	rax, qword ptr [rbp - 8]
	mov	qword ptr [rip + __ZN6loguruL28s_name_to_verbosity_callbackE], rax
	pop	rbp
	ret
                                        
	.globl	__ZN6loguru15write_date_timeEPcm 
	.p2align	4, 0x90
__ZN6loguru15write_date_timeEPcm:       
	.cfi_startproc

	push	rbp
	.cfi_def_cfa_offset 16
	.cfi_offset rbp, -16
	mov	rbp, rsp
	.cfi_def_cfa_register rbp
	push	r15
	push	r14
	push	rbx
	sub	rsp, 168
	.cfi_offset rbx, -40
	.cfi_offset r14, -32
	.cfi_offset r15, -24
	mov	qword ptr [rbp - 32], rdi
	mov	qword ptr [rbp - 40], rsi
	call	__ZNSt3__16chrono12system_clock3nowEv
	mov	qword ptr [rbp - 48], rax
	lea	rdi, [rbp - 48]
	call	__ZNKSt3__16chrono10time_pointINS0_12system_clockENS0_8durationIxNS_5ratioILl1ELl1000000EEEEEE16time_since_epochEv
	mov	qword ptr [rbp - 72], rax
	lea	rdi, [rbp - 72]
	call	__ZNSt3__16chronoL13duration_castINS0_8durationIxNS_5ratioILl1ELl1000EEEEExNS3_ILl1ELl1000000EEEEENS_9enable_ifIXsr13__is_durationIT_EE5valueES8_E4typeERKNS2_IT0_T1_EE
	mov	qword ptr [rbp - 64], rax
	lea	rdi, [rbp - 64]
	call	__ZNKSt3__16chrono8durationIxNS_5ratioILl1ELl1000EEEE5countEv
	mov	qword ptr [rbp - 56], rax
	mov	rax, qword ptr [rbp - 56]
	cqo
	mov	ecx, 1000
	idiv	rcx
	mov	qword ptr [rbp - 80], rax
	lea	rdi, [rbp - 80]
	lea	rsi, [rbp - 136]
	call	_localtime_r
	mov	rdi, qword ptr [rbp - 32]
	mov	rsi, qword ptr [rbp - 40]
	mov	r8d, dword ptr [rbp - 116]
	add	r8d, 1900
	mov	r9d, dword ptr [rbp - 120]
	add	r9d, 1
	mov	r10d, dword ptr [rbp - 124]
	mov	r11d, dword ptr [rbp - 128]
	mov	ebx, dword ptr [rbp - 132]
	mov	r14d, dword ptr [rbp - 136]
	mov	rcx, qword ptr [rbp - 56]
	mov	qword ptr [rbp - 144], rax 
	mov	rax, rcx
	cqo
	mov	ecx, 1000
	idiv	rcx
	lea	rcx, [rip + L_.str.42]
	mov	qword ptr [rbp - 152], rdx 
	mov	rdx, rcx
	mov	ecx, r8d
	mov	r8d, r9d
	mov	r9d, r10d
	mov	dword ptr [rsp], r11d
	mov	dword ptr [rsp + 8], ebx
	mov	dword ptr [rsp + 16], r14d
	mov	r15, qword ptr [rbp - 152] 
	mov	qword ptr [rsp + 24], r15
	mov	al, 0
	call	_snprintf
	add	rsp, 168
	pop	rbx
	pop	r14
	pop	r15
	pop	rbp
	ret
	.cfi_endproc
                                        
	.p2align	4, 0x90         
__ZNSt3__16chronoL13duration_castINS0_8durationIxNS_5ratioILl1ELl1000EEEEExNS3_ILl1ELl1000000EEEEENS_9enable_ifIXsr13__is_durationIT_EE5valueES8_E4typeERKNS2_IT0_T1_EE: 
	.cfi_startproc

	push	rbp
	.cfi_def_cfa_offset 16
	.cfi_offset rbp, -16
	mov	rbp, rsp
	.cfi_def_cfa_register rbp
	sub	rsp, 32
	mov	qword ptr [rbp - 16], rdi
	mov	rsi, qword ptr [rbp - 16]
	lea	rdi, [rbp - 24]
	call	__ZNKSt3__16chrono15__duration_castINS0_8durationIxNS_5ratioILl1ELl1000000EEEEENS2_IxNS3_ILl1ELl1000EEEEES6_Lb1ELb0EEclERKS5_
	mov	qword ptr [rbp - 8], rax
	mov	rax, qword ptr [rbp - 8]
	add	rsp, 32
	pop	rbp
	ret
	.cfi_endproc
                                        
	.p2align	4, 0x90         
__ZNKSt3__16chrono10time_pointINS0_12system_clockENS0_8durationIxNS_5ratioILl1ELl1000000EEEEEE16time_since_epochEv: 

	push	rbp
	mov	rbp, rsp
	mov	qword ptr [rbp - 16], rdi
	mov	rax, qword ptr [rbp - 16]
	mov	rax, qword ptr [rax]
	mov	qword ptr [rbp - 8], rax
	mov	rax, qword ptr [rbp - 8]
	pop	rbp
	ret
                                        
	.p2align	4, 0x90         
__ZNKSt3__16chrono8durationIxNS_5ratioILl1ELl1000EEEE5countEv: 

	push	rbp
	mov	rbp, rsp
	mov	qword ptr [rbp - 8], rdi
	mov	rax, qword ptr [rbp - 8]
	mov	rax, qword ptr [rax]
	pop	rbp
	ret
                                        
	.globl	__ZN6loguru14argv0_filenameEv 
	.p2align	4, 0x90
__ZN6loguru14argv0_filenameEv:          

	push	rbp
	mov	rbp, rsp
	lea	rdi, [rip + __ZN6loguruL16s_argv0_filenameE]
	call	__ZNKSt3__112basic_stringIcNS_11char_traitsIcEENS_9allocatorIcEEE5c_strEv
	pop	rbp
	ret
                                        
	.globl	__ZN6loguru9argumentsEv 
	.p2align	4, 0x90
__ZN6loguru9argumentsEv:                

	push	rbp
	mov	rbp, rsp
	lea	rdi, [rip + __ZN6loguruL11s_argumentsE]
	call	__ZNKSt3__112basic_stringIcNS_11char_traitsIcEENS_9allocatorIcEEE5c_strEv
	pop	rbp
	ret
                                        
	.globl	__ZN6loguru11current_dirEv 
	.p2align	4, 0x90
__ZN6loguru11current_dirEv:             

	push	rbp
	mov	rbp, rsp
	lea	rax, [rip + __ZN6loguruL13s_current_dirE]
	pop	rbp
	ret
                                        
	.globl	__ZN6loguru8home_dirEv  
	.p2align	4, 0x90
__ZN6loguru8home_dirEv:                 
	.cfi_startproc

	push	rbp
	.cfi_def_cfa_offset 16
	.cfi_offset rbp, -16
	mov	rbp, rsp
	.cfi_def_cfa_register rbp
	sub	rsp, 16
	lea	rdi, [rip + L_.str.43]
	call	_getenv
	mov	qword ptr [rbp - 8], rax
	cmp	qword ptr [rbp - 8], 0
	setne	cl
	and	cl, 1
	movzx	edx, cl
	cmp	edx, 1
	sete	cl
	xor	cl, -1
	xor	cl, -1
	test	cl, 1
	jne	LBB75_1
	jmp	LBB75_2
LBB75_1:
	jmp	LBB75_3
LBB75_2:
	lea	rsi, [rip + L_.str.44]
	lea	rdx, [rip + L_.str.28]
	lea	r8, [rip + L_.str.45]
	xor	eax, eax
	mov	cl, al
	mov	edi, 710
	mov	dword ptr [rbp - 12], edi 
	mov	edi, eax
	mov	eax, dword ptr [rbp - 12] 
	mov	byte ptr [rbp - 13], cl 
	mov	ecx, eax
	mov	al, byte ptr [rbp - 13] 
	call	__ZN6loguru13log_and_abortEiPKcS1_jS1_z
LBB75_3:
	mov	rax, qword ptr [rbp - 8]
	add	rsp, 16
	pop	rbp
	ret
	.cfi_endproc
                                        
	.globl	__ZN6loguru16suggest_log_pathEPKcPcj 
	.p2align	4, 0x90
__ZN6loguru16suggest_log_pathEPKcPcj:   
	.cfi_startproc

	push	rbp
	.cfi_def_cfa_offset 16
	.cfi_offset rbp, -16
	mov	rbp, rsp
	.cfi_def_cfa_register rbp
	sub	rsp, 160
	mov	qword ptr [rbp - 8], rdi
	mov	qword ptr [rbp - 16], rsi
	mov	dword ptr [rbp - 20], edx
	mov	rax, qword ptr [rbp - 8]
	movsx	ecx, byte ptr [rax]
	cmp	ecx, 126
	jne	LBB76_2

	mov	rdi, qword ptr [rbp - 16]
	mov	eax, dword ptr [rbp - 20]
	sub	eax, 1
	mov	eax, eax
	mov	esi, eax
	mov	qword ptr [rbp - 40], rdi 
	mov	qword ptr [rbp - 48], rsi 
	call	__ZN6loguru8home_dirEv
	mov	rcx, qword ptr [rbp - 8]
	add	rcx, 1
	mov	rdi, qword ptr [rbp - 40] 
	mov	rsi, qword ptr [rbp - 48] 
	lea	rdx, [rip + L_.str.46]
	mov	qword ptr [rbp - 56], rcx 
	mov	rcx, rax
	mov	r8, qword ptr [rbp - 56] 
	mov	al, 0
	call	_snprintf
	jmp	LBB76_3
LBB76_2:
	mov	rdi, qword ptr [rbp - 16]
	mov	eax, dword ptr [rbp - 20]
	sub	eax, 1
	mov	eax, eax
	mov	esi, eax
	mov	rcx, qword ptr [rbp - 8]
	lea	rdx, [rip + L_.str.29]
	mov	al, 0
	call	_snprintf
LBB76_3:
	mov	rdi, qword ptr [rbp - 16]
	call	_strlen
	mov	qword ptr [rbp - 32], rax
	cmp	qword ptr [rbp - 32], 0
	je	LBB76_10

	mov	rax, qword ptr [rbp - 16]
	mov	rcx, qword ptr [rbp - 32]
	sub	rcx, 1
	movsx	edx, byte ptr [rax + rcx]
	cmp	edx, 47
	je	LBB76_9

	mov	rax, qword ptr [rbp - 32]
	add	rax, 2
	mov	ecx, dword ptr [rbp - 20]
	mov	edx, ecx
	cmp	rax, rdx
	setb	sil
	and	sil, 1
	movzx	ecx, sil
	cmp	ecx, 1
	sete	sil
	xor	sil, -1
	xor	sil, -1
	test	sil, 1
	jne	LBB76_6
	jmp	LBB76_7
LBB76_6:
	jmp	LBB76_8
LBB76_7:
	lea	rsi, [rip + L_.str.47]
	lea	rdx, [rip + L_.str.28]
	lea	r8, [rip + L_.str.48]
	xor	eax, eax
	mov	cl, al
	mov	edi, 727
	mov	dword ptr [rbp - 60], edi 
	mov	edi, eax
	mov	eax, dword ptr [rbp - 60] 
	mov	byte ptr [rbp - 61], cl 
	mov	ecx, eax
	mov	al, byte ptr [rbp - 61] 
	call	__ZN6loguru13log_and_abortEiPKcS1_jS1_z
LBB76_8:
	mov	rax, qword ptr [rbp - 16]
	mov	rcx, qword ptr [rbp - 32]
	mov	byte ptr [rax + rcx], 47
	mov	rax, qword ptr [rbp - 16]
	mov	rcx, qword ptr [rbp - 32]
	mov	byte ptr [rax + rcx + 1], 0
LBB76_9:
	jmp	LBB76_10
LBB76_10:
	mov	rdi, qword ptr [rbp - 16]
	lea	rax, [rip + __ZN6loguruL16s_argv0_filenameE]
	mov	qword ptr [rbp - 72], rdi 
	mov	rdi, rax
	call	__ZNKSt3__112basic_stringIcNS_11char_traitsIcEENS_9allocatorIcEEE5c_strEv
	mov	ecx, dword ptr [rbp - 20]
	mov	edx, ecx
	mov	rdi, qword ptr [rbp - 16]
	mov	qword ptr [rbp - 80], rax 
	mov	qword ptr [rbp - 88], rdx 
	call	_strlen
	mov	rdx, qword ptr [rbp - 88] 
	sub	rdx, rax
	sub	rdx, 1
	mov	rdi, qword ptr [rbp - 72] 
	mov	rsi, qword ptr [rbp - 80] 
	call	_strncat
	mov	rdi, qword ptr [rbp - 16]
	mov	ecx, dword ptr [rbp - 20]
	mov	edx, ecx
	mov	rsi, qword ptr [rbp - 16]
	mov	qword ptr [rbp - 96], rdi 
	mov	rdi, rsi
	mov	qword ptr [rbp - 104], rax 
	mov	qword ptr [rbp - 112], rdx 
	call	_strlen
	mov	rdx, qword ptr [rbp - 112] 
	sub	rdx, rax
	sub	rdx, 1
	mov	rdi, qword ptr [rbp - 96] 
	lea	rsi, [rip + L_.str.49]
	call	_strncat
	mov	rdx, qword ptr [rbp - 16]
	mov	rdi, qword ptr [rbp - 16]
	mov	qword ptr [rbp - 120], rax 
	mov	qword ptr [rbp - 128], rdx 
	call	_strlen
	mov	rdx, qword ptr [rbp - 128] 
	add	rdx, rax
	mov	ecx, dword ptr [rbp - 20]
	mov	eax, ecx
	mov	rdi, qword ptr [rbp - 16]
	mov	qword ptr [rbp - 136], rdx 
	mov	qword ptr [rbp - 144], rax 
	call	_strlen
	mov	rdx, qword ptr [rbp - 144] 
	sub	rdx, rax
	mov	rdi, qword ptr [rbp - 136] 
	mov	rsi, rdx
	call	__ZN6loguru15write_date_timeEPcm
	mov	rdi, qword ptr [rbp - 16]
	mov	ecx, dword ptr [rbp - 20]
	mov	eax, ecx
	mov	rdx, qword ptr [rbp - 16]
	mov	qword ptr [rbp - 152], rdi 
	mov	rdi, rdx
	mov	qword ptr [rbp - 160], rax 
	call	_strlen
	mov	rdx, qword ptr [rbp - 160] 
	sub	rdx, rax
	sub	rdx, 1
	mov	rdi, qword ptr [rbp - 152] 
	lea	rsi, [rip + L_.str.50]
	call	_strncat
	add	rsp, 160
	pop	rbp
	ret
	.cfi_endproc
                                        
	.globl	__ZN6loguru18create_directoriesEPKc 
	.p2align	4, 0x90
__ZN6loguru18create_directoriesEPKc:    
	.cfi_startproc

	push	rbp
	.cfi_def_cfa_offset 16
	.cfi_offset rbp, -16
	mov	rbp, rsp
	.cfi_def_cfa_register rbp
	sub	rsp, 48
	xor	eax, eax
                                        
	mov	qword ptr [rbp - 16], rdi
	cmp	qword ptr [rbp - 16], 0
	mov	byte ptr [rbp - 33], al 
	je	LBB77_2

	mov	rax, qword ptr [rbp - 16]
	cmp	byte ptr [rax], 0
	setne	cl
	mov	byte ptr [rbp - 33], cl 
LBB77_2:
	mov	al, byte ptr [rbp - 33] 
	and	al, 1
	movzx	ecx, al
	cmp	ecx, 1
	sete	al
	xor	al, -1
	xor	al, -1
	test	al, 1
	jne	LBB77_3
	jmp	LBB77_4
LBB77_3:
	jmp	LBB77_5
LBB77_4:
	lea	rsi, [rip + L_.str.51]
	lea	rdx, [rip + L_.str.28]
	xor	edi, edi
	mov	ecx, 748
	call	__ZN6loguru13log_and_abortEiPKcS1_j
LBB77_5:
	mov	rdi, qword ptr [rbp - 16]
	call	_strdup
	mov	qword ptr [rbp - 24], rax
	mov	rax, qword ptr [rbp - 24]
	add	rax, 1
	mov	rdi, rax
	mov	esi, 47
	call	__ZL6strchrUa9enable_ifIXLb1EEEPci
	mov	qword ptr [rbp - 32], rax
LBB77_6:                                
	cmp	qword ptr [rbp - 32], 0
	je	LBB77_36

	mov	rax, qword ptr [rbp - 32]
	mov	byte ptr [rax], 0
	mov	rdi, qword ptr [rbp - 24]
	mov	esi, 493
	call	_mkdir
	cmp	eax, -1
	jne	LBB77_34

	call	___error
	cmp	dword ptr [rax], 17
	je	LBB77_33

	call	__ZN6loguru24current_verbosity_cutoffEv
	mov	ecx, 4294967294
	cmp	ecx, eax
	jle	LBB77_11

	jmp	LBB77_12
LBB77_11:
	mov	r8, qword ptr [rbp - 24]
	mov	edi, 4294967294
	lea	rsi, [rip + L_.str.28]
	mov	edx, 759
	lea	rcx, [rip + L_.str.52]
	mov	al, 0
	call	__ZN6loguru3logEiPKcjS1_z
LBB77_12:
	call	__ZN6loguru24current_verbosity_cutoffEv
	mov	ecx, 4294967294
	cmp	ecx, eax
	jg	LBB77_14

	call	___error
	cmp	dword ptr [rax], 13
	sete	cl
	and	cl, 1
	movzx	edx, cl
	cmp	edx, 0
	jne	LBB77_15
LBB77_14:
	jmp	LBB77_16
LBB77_15:
	mov	edi, 4294967294
	lea	rsi, [rip + L_.str.28]
	mov	edx, 760
	lea	rcx, [rip + L_.str.53]
	mov	al, 0
	call	__ZN6loguru3logEiPKcjS1_z
LBB77_16:
	call	__ZN6loguru24current_verbosity_cutoffEv
	mov	ecx, 4294967294
	cmp	ecx, eax
	jg	LBB77_18

	call	___error
	cmp	dword ptr [rax], 63
	sete	cl
	and	cl, 1
	movzx	edx, cl
	cmp	edx, 0
	jne	LBB77_19
LBB77_18:
	jmp	LBB77_20
LBB77_19:
	mov	edi, 4294967294
	lea	rsi, [rip + L_.str.28]
	mov	edx, 761
	lea	rcx, [rip + L_.str.54]
	mov	al, 0
	call	__ZN6loguru3logEiPKcjS1_z
LBB77_20:
	call	__ZN6loguru24current_verbosity_cutoffEv
	mov	ecx, 4294967294
	cmp	ecx, eax
	jg	LBB77_22

	call	___error
	cmp	dword ptr [rax], 2
	sete	cl
	and	cl, 1
	movzx	edx, cl
	cmp	edx, 0
	jne	LBB77_23
LBB77_22:
	jmp	LBB77_24
LBB77_23:
	mov	edi, 4294967294
	lea	rsi, [rip + L_.str.28]
	mov	edx, 762
	lea	rcx, [rip + L_.str.55]
	mov	al, 0
	call	__ZN6loguru3logEiPKcjS1_z
LBB77_24:
	call	__ZN6loguru24current_verbosity_cutoffEv
	mov	ecx, 4294967294
	cmp	ecx, eax
	jg	LBB77_26

	call	___error
	cmp	dword ptr [rax], 20
	sete	cl
	and	cl, 1
	movzx	edx, cl
	cmp	edx, 0
	jne	LBB77_27
LBB77_26:
	jmp	LBB77_28
LBB77_27:
	mov	edi, 4294967294
	lea	rsi, [rip + L_.str.28]
	mov	edx, 763
	lea	rcx, [rip + L_.str.56]
	mov	al, 0
	call	__ZN6loguru3logEiPKcjS1_z
LBB77_28:
	call	__ZN6loguru24current_verbosity_cutoffEv
	mov	ecx, 4294967294
	cmp	ecx, eax
	jg	LBB77_30

	call	___error
	cmp	dword ptr [rax], 62
	sete	cl
	and	cl, 1
	movzx	edx, cl
	cmp	edx, 0
	jne	LBB77_31
LBB77_30:
	jmp	LBB77_32
LBB77_31:
	mov	edi, 4294967294
	lea	rsi, [rip + L_.str.28]
	mov	edx, 764
	lea	rcx, [rip + L_.str.57]
	mov	al, 0
	call	__ZN6loguru3logEiPKcjS1_z
LBB77_32:
	mov	rax, qword ptr [rbp - 32]
	mov	byte ptr [rax], 47
	mov	rdi, qword ptr [rbp - 24]
	call	_free
	mov	byte ptr [rbp - 1], 0
	jmp	LBB77_37
LBB77_33:                               
	jmp	LBB77_34
LBB77_34:                               
	mov	rax, qword ptr [rbp - 32]
	mov	byte ptr [rax], 47

	mov	rax, qword ptr [rbp - 32]
	add	rax, 1
	mov	rdi, rax
	mov	esi, 47
	call	__ZL6strchrUa9enable_ifIXLb1EEEPci
	mov	qword ptr [rbp - 32], rax
	jmp	LBB77_6
LBB77_36:
	mov	rdi, qword ptr [rbp - 24]
	call	_free
	mov	byte ptr [rbp - 1], 1
LBB77_37:
	mov	al, byte ptr [rbp - 1]
	and	al, 1
	movzx	eax, al
	add	rsp, 48
	pop	rbp
	ret
	.cfi_endproc
                                        
	.globl	__ZN6loguru13log_and_abortEiPKcS1_j 
	.p2align	4, 0x90
__ZN6loguru13log_and_abortEiPKcS1_j:    
	.cfi_startproc

	push	rbp
	.cfi_def_cfa_offset 16
	.cfi_offset rbp, -16
	mov	rbp, rsp
	.cfi_def_cfa_register rbp
	sub	rsp, 32
	mov	dword ptr [rbp - 4], edi
	mov	qword ptr [rbp - 16], rsi
	mov	qword ptr [rbp - 24], rdx
	mov	dword ptr [rbp - 28], ecx
	mov	eax, dword ptr [rbp - 4]
	inc	eax
	mov	rsi, qword ptr [rbp - 16]
	mov	rdx, qword ptr [rbp - 24]
	mov	ecx, dword ptr [rbp - 28]
	lea	r8, [rip + L_.str.34]
	xor	edi, edi
                                        
	mov	byte ptr [rbp - 29], dil 
	mov	edi, eax
	mov	al, byte ptr [rbp - 29] 
	call	__ZN6loguru13log_and_abortEiPKcS1_jS1_z
	.cfi_endproc
                                        
	.p2align	4, 0x90         
__ZL6strchrUa9enable_ifIXLb1EEEPci:     
	.cfi_startproc

	push	rbp
	.cfi_def_cfa_offset 16
	.cfi_offset rbp, -16
	mov	rbp, rsp
	.cfi_def_cfa_register rbp
	sub	rsp, 16
	mov	qword ptr [rbp - 8], rdi
	mov	dword ptr [rbp - 12], esi
	mov	rdi, qword ptr [rbp - 8]
	mov	esi, dword ptr [rbp - 12]
	call	__ZL15__libcpp_strchrPKci
	add	rsp, 16
	pop	rbp
	ret
	.cfi_endproc
                                        
	.globl	__ZN6loguru8add_fileEPKcNS_8FileModeEi 
	.p2align	4, 0x90
__ZN6loguru8add_fileEPKcNS_8FileModeEi: 
	.cfi_startproc

	push	rbp
	.cfi_def_cfa_offset 16
	.cfi_offset rbp, -16
	mov	rbp, rsp
	.cfi_def_cfa_register rbp
	sub	rsp, 1232
	mov	rax, qword ptr [rip + ___stack_chk_guard@GOTPCREL]
	mov	rax, qword ptr [rax]
	mov	qword ptr [rbp - 8], rax
	mov	qword ptr [rbp - 1152], rdi
	mov	dword ptr [rbp - 1156], esi
	mov	dword ptr [rbp - 1160], edx
	mov	rax, qword ptr [rbp - 1152]
	movsx	ecx, byte ptr [rax]
	cmp	ecx, 126
	jne	LBB80_2

	lea	rdi, [rbp - 1040]
	mov	qword ptr [rbp - 1184], rdi 
	call	__ZN6loguru8home_dirEv
	mov	rcx, qword ptr [rbp - 1152]
	add	rcx, 1
	mov	rdi, qword ptr [rbp - 1184] 
	mov	esi, 1023
	lea	rdx, [rip + L_.str.46]
	mov	qword ptr [rbp - 1192], rcx 
	mov	rcx, rax
	mov	r8, qword ptr [rbp - 1192] 
	mov	al, 0
	call	_snprintf
	jmp	LBB80_3
LBB80_2:
	lea	rdi, [rbp - 1040]
	mov	rcx, qword ptr [rbp - 1152]
	mov	esi, 1023
	lea	rdx, [rip + L_.str.29]
	mov	al, 0
	call	_snprintf
LBB80_3:
	lea	rdi, [rbp - 1040]
	call	__ZN6loguru18create_directoriesEPKc
	test	al, 1
	jne	LBB80_8

	call	__ZN6loguru24current_verbosity_cutoffEv
	mov	ecx, 4294967294
	cmp	ecx, eax
	jle	LBB80_6

	jmp	LBB80_7
LBB80_6:
	lea	r8, [rbp - 1040]
	mov	edi, 4294967294
	lea	rsi, [rip + L_.str.28]
	mov	edx, 786
	lea	rcx, [rip + L_.str.58]
	mov	al, 0
	call	__ZN6loguru3logEiPKcjS1_z
LBB80_7:
	jmp	LBB80_8
LBB80_8:
	cmp	dword ptr [rbp - 1156], 0
	jne	LBB80_10

	lea	rax, [rip + L_.str.59]
	mov	qword ptr [rbp - 1200], rax 
	jmp	LBB80_11
LBB80_10:
	lea	rax, [rip + L_.str.60]
	mov	qword ptr [rbp - 1200], rax 
	jmp	LBB80_11
LBB80_11:
	mov	rax, qword ptr [rbp - 1200] 
	lea	rdi, [rbp - 1040]
	mov	qword ptr [rbp - 1168], rax
	mov	rsi, qword ptr [rbp - 1168]
	call	_fopen
	mov	qword ptr [rbp - 1176], rax
	cmp	qword ptr [rbp - 1176], 0
	jne	LBB80_16

	call	__ZN6loguru24current_verbosity_cutoffEv
	mov	ecx, 4294967294
	cmp	ecx, eax
	jle	LBB80_14

	jmp	LBB80_15
LBB80_14:
	lea	r8, [rbp - 1040]
	mov	edi, 4294967294
	lea	rsi, [rip + L_.str.28]
	mov	edx, 798
	lea	rcx, [rip + L_.str.61]
	mov	al, 0
	call	__ZN6loguru3logEiPKcjS1_z
LBB80_15:
	mov	byte ptr [rbp - 1137], 0
	jmp	LBB80_28
LBB80_16:
	mov	rdi, qword ptr [rbp - 1152]
	mov	rax, qword ptr [rbp - 1176]
	mov	ecx, dword ptr [rbp - 1160]
	lea	rsi, [rip + __ZN6loguru8file_logEPvRKNS_7MessageE]
	mov	rdx, rax
	lea	r8, [rip + __ZN6loguru10file_closeEPv]
	lea	r9, [rip + __ZN6loguru10file_flushEPv]
	call	__ZN6loguru12add_callbackEPKcPFvPvRKNS_7MessageEES2_iPFvS2_ES9_
	cmp	dword ptr [rbp - 1156], 1
	jne	LBB80_18

	mov	rdi, qword ptr [rbp - 1176]
	lea	rsi, [rip + L_.str.62]
	mov	al, 0
	call	_fprintf
LBB80_18:
	lea	rdi, [rip + __ZN6loguruL11s_argumentsE]
	call	__ZNKSt3__112basic_stringIcNS_11char_traitsIcEENS_9allocatorIcEEE5emptyEv
	test	al, 1
	jne	LBB80_20

	mov	rdi, qword ptr [rbp - 1176]
	lea	rax, [rip + __ZN6loguruL11s_argumentsE]
	mov	qword ptr [rbp - 1208], rdi 
	mov	rdi, rax
	call	__ZNKSt3__112basic_stringIcNS_11char_traitsIcEENS_9allocatorIcEEE5c_strEv
	mov	rdi, qword ptr [rbp - 1208] 
	lea	rsi, [rip + L_.str.63]
	mov	rdx, rax
	mov	al, 0
	call	_fprintf
LBB80_20:
	lea	rdi, [rip + __ZN6loguruL13s_current_dirE]
	call	_strlen
	cmp	rax, 0
	je	LBB80_22

	mov	rdi, qword ptr [rbp - 1176]
	lea	rsi, [rip + L_.str.64]
	lea	rdx, [rip + __ZN6loguruL13s_current_dirE]
	mov	al, 0
	call	_fprintf
LBB80_22:
	mov	rdi, qword ptr [rbp - 1176]
	mov	edx, dword ptr [rbp - 1160]
	lea	rsi, [rip + L_.str.65]
	mov	al, 0
	call	_fprintf
	test	byte ptr [rip + __ZN6loguru17g_preamble_headerE], 1
	je	LBB80_24

	lea	rdi, [rbp - 1136]
	mov	esi, 92
	call	__ZN6loguruL21print_preamble_headerEPcm
	lea	rdx, [rbp - 1136]
	mov	rdi, qword ptr [rbp - 1176]
	lea	rsi, [rip + L_.str.36]
	mov	al, 0
	call	_fprintf
LBB80_24:
	mov	rdi, qword ptr [rbp - 1176]
	call	_fflush
	mov	ecx, dword ptr [rip + __ZN6loguru20g_internal_verbosityE]
	mov	dword ptr [rbp - 1212], eax 
	mov	dword ptr [rbp - 1216], ecx 
	call	__ZN6loguru24current_verbosity_cutoffEv
	mov	ecx, dword ptr [rbp - 1216] 
	cmp	ecx, eax
	jle	LBB80_26

	jmp	LBB80_27
LBB80_26:
	lea	r8, [rbp - 1040]
	mov	edi, dword ptr [rip + __ZN6loguru20g_internal_verbosityE]
	mov	r9, qword ptr [rbp - 1168]
	mov	eax, dword ptr [rbp - 1160]
	lea	rsi, [rip + L_.str.28]
	mov	edx, 830
	lea	rcx, [rip + L_.str.66]
	mov	dword ptr [rsp], eax
	mov	al, 0
	call	__ZN6loguru3logEiPKcjS1_z
LBB80_27:
	mov	byte ptr [rbp - 1137], 1
LBB80_28:
	mov	al, byte ptr [rbp - 1137]
	mov	rcx, qword ptr [rip + ___stack_chk_guard@GOTPCREL]
	mov	rcx, qword ptr [rcx]
	mov	rdx, qword ptr [rbp - 8]
	cmp	rcx, rdx
	mov	byte ptr [rbp - 1217], al 
	jne	LBB80_30

	mov	al, byte ptr [rbp - 1217] 
	and	al, 1
	movzx	eax, al
	add	rsp, 1232
	pop	rbp
	ret
LBB80_30:
	call	___stack_chk_fail
	ud2
	.cfi_endproc
                                        
	.globl	__ZN6loguru12add_callbackEPKcPFvPvRKNS_7MessageEES2_iPFvS2_ES9_ 
	.p2align	4, 0x90
__ZN6loguru12add_callbackEPKcPFvPvRKNS_7MessageEES2_iPFvS2_ES9_: 
Lfunc_begin6:
	.cfi_startproc
	.cfi_personality 155, ___gxx_personality_v0
	.cfi_lsda 16, Lexception6

	push	rbp
	.cfi_def_cfa_offset 16
	.cfi_offset rbp, -16
	mov	rbp, rsp
	.cfi_def_cfa_register rbp
	sub	rsp, 144
	mov	qword ptr [rbp - 8], rdi
	mov	qword ptr [rbp - 16], rsi
	mov	qword ptr [rbp - 24], rdx
	mov	dword ptr [rbp - 28], ecx
	mov	qword ptr [rbp - 40], r8
	mov	qword ptr [rbp - 48], r9
	lea	rsi, [rip + __ZN6loguruL7s_mutexE]
	lea	rdi, [rbp - 56]
	call	__ZNSt3__110lock_guardINS_15recursive_mutexEEC1ERS1_
	mov	rsi, qword ptr [rbp - 8]
Ltmp93:
	lea	rdi, [rbp - 128]
	call	__ZNSt3__112basic_stringIcNS_11char_traitsIcEENS_9allocatorIcEEEC1IDnEEPKc
Ltmp94:
	jmp	LBB81_1
LBB81_1:
	mov	rax, qword ptr [rbp - 16]
	mov	qword ptr [rbp - 104], rax
	mov	rax, qword ptr [rbp - 24]
	mov	qword ptr [rbp - 96], rax
	mov	ecx, dword ptr [rbp - 28]
	mov	dword ptr [rbp - 88], ecx
	mov	rax, qword ptr [rbp - 40]
	mov	qword ptr [rbp - 80], rax
	mov	rax, qword ptr [rbp - 48]
	mov	qword ptr [rbp - 72], rax
	mov	dword ptr [rbp - 64], 0
Ltmp95:
	lea	rdi, [rip + __ZN6loguruL11s_callbacksE]
	lea	rsi, [rbp - 128]
	call	__ZNSt3__16vectorIN6loguru8CallbackENS_9allocatorIS2_EEE9push_backEOS2_
Ltmp96:
	jmp	LBB81_2
LBB81_2:
	lea	rdi, [rbp - 128]
	call	__ZN6loguru8CallbackD1Ev
Ltmp98:
	call	__ZN6loguruL18on_callback_changeEv
Ltmp99:
	jmp	LBB81_3
LBB81_3:
	lea	rdi, [rbp - 56]
	call	__ZNSt3__110lock_guardINS_15recursive_mutexEED1Ev
	add	rsp, 144
	pop	rbp
	ret
LBB81_4:
Ltmp100:
                                        
	mov	qword ptr [rbp - 136], rax
	mov	dword ptr [rbp - 140], edx
	jmp	LBB81_6
LBB81_5:
Ltmp97:
                                        
	mov	qword ptr [rbp - 136], rax
	mov	dword ptr [rbp - 140], edx
	lea	rdi, [rbp - 128]
	call	__ZN6loguru8CallbackD1Ev
LBB81_6:
	lea	rdi, [rbp - 56]
	call	__ZNSt3__110lock_guardINS_15recursive_mutexEED1Ev

	mov	rdi, qword ptr [rbp - 136]
	call	__Unwind_Resume
	ud2
Lfunc_end6:
	.cfi_endproc
	.section	__TEXT,__gcc_except_tab
	.p2align	2
GCC_except_table81:
Lexception6:
	.byte	255                     
	.byte	255                     
	.byte	1                       
	.uleb128 Lcst_end6-Lcst_begin6
Lcst_begin6:
	.uleb128 Lfunc_begin6-Lfunc_begin6 
	.uleb128 Ltmp93-Lfunc_begin6    
	.byte	0                       
	.byte	0                       
	.uleb128 Ltmp93-Lfunc_begin6    
	.uleb128 Ltmp94-Ltmp93          
	.uleb128 Ltmp100-Lfunc_begin6   
	.byte	0                       
	.uleb128 Ltmp95-Lfunc_begin6    
	.uleb128 Ltmp96-Ltmp95          
	.uleb128 Ltmp97-Lfunc_begin6    
	.byte	0                       
	.uleb128 Ltmp98-Lfunc_begin6    
	.uleb128 Ltmp99-Ltmp98          
	.uleb128 Ltmp100-Lfunc_begin6   
	.byte	0                       
	.uleb128 Ltmp99-Lfunc_begin6    
	.uleb128 Lfunc_end6-Ltmp99      
	.byte	0                       
	.byte	0                       
Lcst_end6:
	.p2align	2
                                        
	.section	__TEXT,__text,regular,pure_instructions
	.p2align	4, 0x90         
__ZNKSt3__112basic_stringIcNS_11char_traitsIcEENS_9allocatorIcEEE5emptyEv: 

	push	rbp
	mov	rbp, rsp
	sub	rsp, 16
	mov	qword ptr [rbp - 8], rdi
	mov	rdi, qword ptr [rbp - 8]
	call	__ZNKSt3__112basic_stringIcNS_11char_traitsIcEENS_9allocatorIcEEE4sizeEv
	cmp	rax, 0
	sete	cl
	and	cl, 1
	movzx	eax, cl
	add	rsp, 16
	pop	rbp
	ret
                                        
	.globl	__ZN6loguru10add_syslogEPKci 
	.p2align	4, 0x90
__ZN6loguru10add_syslogEPKci:           
	.cfi_startproc

	push	rbp
	.cfi_def_cfa_offset 16
	.cfi_offset rbp, -16
	mov	rbp, rsp
	.cfi_def_cfa_register rbp
	sub	rsp, 16
	mov	qword ptr [rbp - 8], rdi
	mov	dword ptr [rbp - 12], esi
	mov	rdi, qword ptr [rbp - 8]
	mov	esi, dword ptr [rbp - 12]
	mov	edx, 8
	call	__ZN6loguru10add_syslogEPKcii
	and	al, 1
	movzx	eax, al
	add	rsp, 16
	pop	rbp
	ret
	.cfi_endproc
                                        
	.globl	__ZN6loguru10add_syslogEPKcii 
	.p2align	4, 0x90
__ZN6loguru10add_syslogEPKcii:          
	.cfi_startproc

	push	rbp
	.cfi_def_cfa_offset 16
	.cfi_offset rbp, -16
	mov	rbp, rsp
	.cfi_def_cfa_register rbp
	sub	rsp, 32
	mov	qword ptr [rbp - 8], rdi
	mov	dword ptr [rbp - 12], esi
	mov	dword ptr [rbp - 16], edx
	cmp	qword ptr [rbp - 8], 0
	jne	LBB84_2

	call	__ZN6loguru14argv0_filenameEv
	mov	qword ptr [rbp - 8], rax
LBB84_2:
	xor	esi, esi
	mov	rdi, qword ptr [rbp - 8]
	mov	edx, dword ptr [rbp - 16]
	call	_openlog
	xor	eax, eax
	mov	edx, eax
	mov	ecx, dword ptr [rbp - 12]
	lea	rdi, [rip + L_.str.67]
	lea	rsi, [rip + __ZN6loguru10syslog_logEPvRKNS_7MessageE]
	lea	r8, [rip + __ZN6loguru12syslog_closeEPv]
	lea	r9, [rip + __ZN6loguru12syslog_flushEPv]
	call	__ZN6loguru12add_callbackEPKcPFvPvRKNS_7MessageEES2_iPFvS2_ES9_
	mov	eax, dword ptr [rip + __ZN6loguru20g_internal_verbosityE]
	mov	dword ptr [rbp - 20], eax 
	call	__ZN6loguru24current_verbosity_cutoffEv
	mov	ecx, dword ptr [rbp - 20] 
	cmp	ecx, eax
	jle	LBB84_4

	jmp	LBB84_5
LBB84_4:
	mov	edi, dword ptr [rip + __ZN6loguru20g_internal_verbosityE]
	mov	r8d, dword ptr [rbp - 12]
	lea	rsi, [rip + L_.str.28]
	mov	edx, 862
	lea	rcx, [rip + L_.str.68]
	mov	al, 0
	call	__ZN6loguru3logEiPKcjS1_z
LBB84_5:
	mov	al, 1
	and	al, 1
	movzx	eax, al
	add	rsp, 32
	pop	rbp
	ret
	.cfi_endproc
                                        
	.globl	__ZN6loguru17get_fatal_handlerEv 
	.p2align	4, 0x90
__ZN6loguru17get_fatal_handlerEv:       

	push	rbp
	mov	rbp, rsp
	mov	rax, qword ptr [rip + __ZN6loguruL15s_fatal_handlerE]
	pop	rbp
	ret
                                        
	.globl	__ZN6loguru17add_stack_cleanupEPKcS1_ 
	.p2align	4, 0x90
__ZN6loguru17add_stack_cleanupEPKcS1_:  
Lfunc_begin7:
	.cfi_startproc
	.cfi_personality 155, ___gxx_personality_v0
	.cfi_lsda 16, Lexception7

	push	rbp
	.cfi_def_cfa_offset 16
	.cfi_offset rbp, -16
	mov	rbp, rsp
	.cfi_def_cfa_register rbp
	sub	rsp, 96
	mov	qword ptr [rbp - 8], rdi
	mov	qword ptr [rbp - 16], rsi
	mov	rdi, qword ptr [rbp - 8]
	call	_strlen
	mov	rdi, qword ptr [rbp - 16]
	mov	qword ptr [rbp - 88], rax 
	call	_strlen
	mov	rcx, qword ptr [rbp - 88] 
	cmp	rcx, rax
	ja	LBB86_5

	call	__ZN6loguru24current_verbosity_cutoffEv
	mov	ecx, 4294967295
	cmp	ecx, eax
	jle	LBB86_3

	jmp	LBB86_4
LBB86_3:
	mov	edi, 4294967295
	lea	rsi, [rip + L_.str.28]
	mov	edx, 896
	lea	rcx, [rip + L_.str.69]
	mov	al, 0
	call	__ZN6loguru3logEiPKcjS1_z
LBB86_4:
	jmp	LBB86_7
LBB86_5:
	lea	rax, [rbp - 64]
	lea	rsi, [rbp - 8]
	lea	rdx, [rbp - 16]
	mov	rdi, rax
	mov	qword ptr [rbp - 96], rax 
	call	__ZNSt3__14pairINS_12basic_stringIcNS_11char_traitsIcEENS_9allocatorIcEEEES6_EC1IRPKcSB_Lb0EEEOT_OT0_
Ltmp101:
	lea	rdi, [rip + __ZN6loguruL21s_user_stack_cleanupsE]
	mov	rsi, qword ptr [rbp - 96] 
	call	__ZNSt3__16vectorINS_4pairINS_12basic_stringIcNS_11char_traitsIcEENS_9allocatorIcEEEES7_EENS5_IS8_EEE9push_backEOS8_
Ltmp102:
	jmp	LBB86_6
LBB86_6:
	lea	rdi, [rbp - 64]
	call	__ZNSt3__14pairINS_12basic_stringIcNS_11char_traitsIcEENS_9allocatorIcEEEES6_ED1Ev
LBB86_7:
	add	rsp, 96
	pop	rbp
	ret
LBB86_8:
Ltmp103:
                                        
	mov	qword ptr [rbp - 72], rax
	mov	dword ptr [rbp - 76], edx
	lea	rdi, [rbp - 64]
	call	__ZNSt3__14pairINS_12basic_stringIcNS_11char_traitsIcEENS_9allocatorIcEEEES6_ED1Ev

	mov	rdi, qword ptr [rbp - 72]
	call	__Unwind_Resume
	ud2
Lfunc_end7:
	.cfi_endproc
	.section	__TEXT,__gcc_except_tab
	.p2align	2
GCC_except_table86:
Lexception7:
	.byte	255                     
	.byte	255                     
	.byte	1                       
	.uleb128 Lcst_end7-Lcst_begin7
Lcst_begin7:
	.uleb128 Lfunc_begin7-Lfunc_begin7 
	.uleb128 Ltmp101-Lfunc_begin7   
	.byte	0                       
	.byte	0                       
	.uleb128 Ltmp101-Lfunc_begin7   
	.uleb128 Ltmp102-Ltmp101        
	.uleb128 Ltmp103-Lfunc_begin7   
	.byte	0                       
	.uleb128 Ltmp102-Lfunc_begin7   
	.uleb128 Lfunc_end7-Ltmp102     
	.byte	0                       
	.byte	0                       
Lcst_end7:
	.p2align	2
                                        
	.section	__TEXT,__text,regular,pure_instructions
	.p2align	4, 0x90         
__ZNSt3__16vectorINS_4pairINS_12basic_stringIcNS_11char_traitsIcEENS_9allocatorIcEEEES7_EENS5_IS8_EEE9push_backEOS8_: 
	.cfi_startproc

	push	rbp
	.cfi_def_cfa_offset 16
	.cfi_offset rbp, -16
	mov	rbp, rsp
	.cfi_def_cfa_register rbp
	sub	rsp, 32
	mov	qword ptr [rbp - 8], rdi
	mov	qword ptr [rbp - 16], rsi
	mov	rax, qword ptr [rbp - 8]
	mov	rcx, qword ptr [rax + 8]
	mov	rdx, rax
	mov	rdi, rdx
	mov	qword ptr [rbp - 24], rax 
	mov	qword ptr [rbp - 32], rcx 
	call	__ZNSt3__113__vector_baseINS_4pairINS_12basic_stringIcNS_11char_traitsIcEENS_9allocatorIcEEEES7_EENS5_IS8_EEE9__end_capEv
	mov	rcx, qword ptr [rbp - 32] 
	cmp	rcx, qword ptr [rax]
	jae	LBB87_2

	mov	rdi, qword ptr [rbp - 16]
	call	__ZNSt3__1L4moveIRNS_4pairINS_12basic_stringIcNS_11char_traitsIcEENS_9allocatorIcEEEES7_EEEEONS_16remove_referenceIT_E4typeEOSB_
	mov	rdi, qword ptr [rbp - 24] 
	mov	rsi, rax
	call	__ZNSt3__16vectorINS_4pairINS_12basic_stringIcNS_11char_traitsIcEENS_9allocatorIcEEEES7_EENS5_IS8_EEE22__construct_one_at_endIJS8_EEEvDpOT_
	jmp	LBB87_3
LBB87_2:
	mov	rdi, qword ptr [rbp - 16]
	call	__ZNSt3__1L4moveIRNS_4pairINS_12basic_stringIcNS_11char_traitsIcEENS_9allocatorIcEEEES7_EEEEONS_16remove_referenceIT_E4typeEOSB_
	mov	rdi, qword ptr [rbp - 24] 
	mov	rsi, rax
	call	__ZNSt3__16vectorINS_4pairINS_12basic_stringIcNS_11char_traitsIcEENS_9allocatorIcEEEES7_EENS5_IS8_EEE21__push_back_slow_pathIS8_EEvOT_
LBB87_3:
	add	rsp, 32
	pop	rbp
	ret
	.cfi_endproc
                                        
	.p2align	4, 0x90         
__ZNSt3__14pairINS_12basic_stringIcNS_11char_traitsIcEENS_9allocatorIcEEEES6_EC1IRPKcSB_Lb0EEEOT_OT0_: 
	.cfi_startproc

	push	rbp
	.cfi_def_cfa_offset 16
	.cfi_offset rbp, -16
	mov	rbp, rsp
	.cfi_def_cfa_register rbp
	sub	rsp, 32
	mov	qword ptr [rbp - 8], rdi
	mov	qword ptr [rbp - 16], rsi
	mov	qword ptr [rbp - 24], rdx
	mov	rdi, qword ptr [rbp - 8]
	mov	rsi, qword ptr [rbp - 16]
	mov	rdx, qword ptr [rbp - 24]
	call	__ZNSt3__14pairINS_12basic_stringIcNS_11char_traitsIcEENS_9allocatorIcEEEES6_EC2IRPKcSB_Lb0EEEOT_OT0_
	add	rsp, 32
	pop	rbp
	ret
	.cfi_endproc
                                        
	.globl	__ZNSt3__14pairINS_12basic_stringIcNS_11char_traitsIcEENS_9allocatorIcEEEES6_ED1Ev 
	.weak_def_can_be_hidden	__ZNSt3__14pairINS_12basic_stringIcNS_11char_traitsIcEENS_9allocatorIcEEEES6_ED1Ev
	.p2align	4, 0x90
__ZNSt3__14pairINS_12basic_stringIcNS_11char_traitsIcEENS_9allocatorIcEEEES6_ED1Ev: 

	push	rbp
	mov	rbp, rsp
	sub	rsp, 16
	mov	qword ptr [rbp - 8], rdi
	mov	rdi, qword ptr [rbp - 8]
	call	__ZNSt3__14pairINS_12basic_stringIcNS_11char_traitsIcEENS_9allocatorIcEEEES6_ED2Ev
	add	rsp, 16
	pop	rbp
	ret
                                        
	.p2align	4, 0x90         
__ZNSt3__110lock_guardINS_15recursive_mutexEEC1ERS1_: 
	.cfi_startproc

	push	rbp
	.cfi_def_cfa_offset 16
	.cfi_offset rbp, -16
	mov	rbp, rsp
	.cfi_def_cfa_register rbp
	sub	rsp, 16
	mov	qword ptr [rbp - 8], rdi
	mov	qword ptr [rbp - 16], rsi
	mov	rdi, qword ptr [rbp - 8]
	mov	rsi, qword ptr [rbp - 16]
	call	__ZNSt3__110lock_guardINS_15recursive_mutexEEC2ERS1_
	add	rsp, 16
	pop	rbp
	ret
	.cfi_endproc
                                        
	.p2align	4, 0x90         
__ZNSt3__16vectorIN6loguru8CallbackENS_9allocatorIS2_EEE9push_backEOS2_: 
	.cfi_startproc

	push	rbp
	.cfi_def_cfa_offset 16
	.cfi_offset rbp, -16
	mov	rbp, rsp
	.cfi_def_cfa_register rbp
	sub	rsp, 32
	mov	qword ptr [rbp - 8], rdi
	mov	qword ptr [rbp - 16], rsi
	mov	rax, qword ptr [rbp - 8]
	mov	rcx, qword ptr [rax + 8]
	mov	rdx, rax
	mov	rdi, rdx
	mov	qword ptr [rbp - 24], rax 
	mov	qword ptr [rbp - 32], rcx 
	call	__ZNSt3__113__vector_baseIN6loguru8CallbackENS_9allocatorIS2_EEE9__end_capEv
	mov	rcx, qword ptr [rbp - 32] 
	cmp	rcx, qword ptr [rax]
	jae	LBB91_2

	mov	rdi, qword ptr [rbp - 16]
	call	__ZNSt3__1L4moveIRN6loguru8CallbackEEEONS_16remove_referenceIT_E4typeEOS5_
	mov	rdi, qword ptr [rbp - 24] 
	mov	rsi, rax
	call	__ZNSt3__16vectorIN6loguru8CallbackENS_9allocatorIS2_EEE22__construct_one_at_endIJS2_EEEvDpOT_
	jmp	LBB91_3
LBB91_2:
	mov	rdi, qword ptr [rbp - 16]
	call	__ZNSt3__1L4moveIRN6loguru8CallbackEEEONS_16remove_referenceIT_E4typeEOS5_
	mov	rdi, qword ptr [rbp - 24] 
	mov	rsi, rax
	call	__ZNSt3__16vectorIN6loguru8CallbackENS_9allocatorIS2_EEE21__push_back_slow_pathIS2_EEvOT_
LBB91_3:
	add	rsp, 32
	pop	rbp
	ret
	.cfi_endproc
                                        
	.globl	__ZN6loguru8CallbackD1Ev 
	.weak_def_can_be_hidden	__ZN6loguru8CallbackD1Ev
	.p2align	4, 0x90
__ZN6loguru8CallbackD1Ev:               

	push	rbp
	mov	rbp, rsp
	sub	rsp, 16
	mov	qword ptr [rbp - 8], rdi
	mov	rdi, qword ptr [rbp - 8]
	call	__ZN6loguru8CallbackD2Ev
	add	rsp, 16
	pop	rbp
	ret
                                        
	.p2align	4, 0x90         
__ZN6loguruL18on_callback_changeEv:     
	.cfi_startproc

	push	rbp
	.cfi_def_cfa_offset 16
	.cfi_offset rbp, -16
	mov	rbp, rsp
	.cfi_def_cfa_register rbp
	sub	rsp, 32
	mov	dword ptr [rip + __ZN6loguruL19s_max_out_verbosityE], -9
	lea	rax, [rip + __ZN6loguruL11s_callbacksE]
	mov	qword ptr [rbp - 8], rax
	mov	rdi, rax
	call	__ZNSt3__16vectorIN6loguru8CallbackENS_9allocatorIS2_EEE5beginEv
	mov	qword ptr [rbp - 16], rax
	lea	rdi, [rip + __ZN6loguruL11s_callbacksE]
	call	__ZNSt3__16vectorIN6loguru8CallbackENS_9allocatorIS2_EEE3endEv
	mov	qword ptr [rbp - 24], rax
LBB93_1:                                
	lea	rdi, [rbp - 16]
	lea	rsi, [rbp - 24]
	call	__ZNSt3__1neIPN6loguru8CallbackEEEbRKNS_11__wrap_iterIT_EES8_
	test	al, 1
	jne	LBB93_2
	jmp	LBB93_4
LBB93_2:                                
	lea	rdi, [rbp - 16]
	call	__ZNKSt3__111__wrap_iterIPN6loguru8CallbackEEdeEv
	mov	qword ptr [rbp - 32], rax
	mov	rax, qword ptr [rbp - 32]
	add	rax, 40
	lea	rdi, [rip + __ZN6loguruL19s_max_out_verbosityE]
	mov	rsi, rax
	call	__ZNSt3__1L3maxIiEERKT_S3_S3_
	mov	ecx, dword ptr [rax]
	mov	dword ptr [rip + __ZN6loguruL19s_max_out_verbosityE], ecx

	lea	rdi, [rbp - 16]
	call	__ZNSt3__111__wrap_iterIPN6loguru8CallbackEEppEv
	jmp	LBB93_1
LBB93_4:
	add	rsp, 32
	pop	rbp
	ret
	.cfi_endproc
                                        
	.p2align	4, 0x90         
__ZNSt3__110lock_guardINS_15recursive_mutexEED1Ev: 

	push	rbp
	mov	rbp, rsp
	sub	rsp, 16
	mov	qword ptr [rbp - 8], rdi
	mov	rdi, qword ptr [rbp - 8]
	call	__ZNSt3__110lock_guardINS_15recursive_mutexEED2Ev
	add	rsp, 16
	pop	rbp
	ret
                                        
	.globl	__ZN6loguru18get_verbosity_nameEi 
	.p2align	4, 0x90
__ZN6loguru18get_verbosity_nameEi:      
	.cfi_startproc

	push	rbp
	.cfi_def_cfa_offset 16
	.cfi_offset rbp, -16
	mov	rbp, rsp
	.cfi_def_cfa_register rbp
	sub	rsp, 32
	mov	dword ptr [rbp - 4], edi
	cmp	qword ptr [rip + __ZN6loguruL28s_verbosity_to_name_callbackE], 0
	je	LBB95_2

	mov	rax, qword ptr [rip + __ZN6loguruL28s_verbosity_to_name_callbackE]
	mov	edi, dword ptr [rbp - 4]
	call	rax
	mov	qword ptr [rbp - 24], rax 
	jmp	LBB95_3
LBB95_2:
	xor	eax, eax
	mov	ecx, eax
	mov	qword ptr [rbp - 24], rcx 
	jmp	LBB95_3
LBB95_3:
	mov	rax, qword ptr [rbp - 24] 
	mov	qword ptr [rbp - 16], rax
	cmp	qword ptr [rbp - 16], 0
	jne	LBB95_16

	cmp	dword ptr [rbp - 4], -3
	jg	LBB95_6

	lea	rax, [rip + L_.str.70]
	mov	qword ptr [rbp - 16], rax
	jmp	LBB95_15
LBB95_6:
	cmp	dword ptr [rbp - 4], -2
	jne	LBB95_8

	lea	rax, [rip + L_.str.71]
	mov	qword ptr [rbp - 16], rax
	jmp	LBB95_14
LBB95_8:
	cmp	dword ptr [rbp - 4], -1
	jne	LBB95_10

	lea	rax, [rip + L_.str.72]
	mov	qword ptr [rbp - 16], rax
	jmp	LBB95_13
LBB95_10:
	cmp	dword ptr [rbp - 4], 0
	jne	LBB95_12

	lea	rax, [rip + L_.str.73]
	mov	qword ptr [rbp - 16], rax
LBB95_12:
	jmp	LBB95_13
LBB95_13:
	jmp	LBB95_14
LBB95_14:
	jmp	LBB95_15
LBB95_15:
	jmp	LBB95_16
LBB95_16:
	mov	rax, qword ptr [rbp - 16]
	add	rsp, 32
	pop	rbp
	ret
	.cfi_endproc
                                        
	.globl	__ZN6loguru23get_verbosity_from_nameEPKc 
	.p2align	4, 0x90
__ZN6loguru23get_verbosity_from_nameEPKc: 
	.cfi_startproc

	push	rbp
	.cfi_def_cfa_offset 16
	.cfi_offset rbp, -16
	mov	rbp, rsp
	.cfi_def_cfa_register rbp
	sub	rsp, 16
	mov	qword ptr [rbp - 8], rdi
	cmp	qword ptr [rip + __ZN6loguruL28s_name_to_verbosity_callbackE], 0
	je	LBB96_2

	mov	rax, qword ptr [rip + __ZN6loguruL28s_name_to_verbosity_callbackE]
	mov	rdi, qword ptr [rbp - 8]
	call	rax
	mov	dword ptr [rbp - 16], eax 
	jmp	LBB96_3
LBB96_2:
	mov	eax, 4294967286
	mov	dword ptr [rbp - 16], eax 
	jmp	LBB96_3
LBB96_3:
	mov	eax, dword ptr [rbp - 16] 
	mov	dword ptr [rbp - 12], eax
	cmp	dword ptr [rbp - 12], -10
	jne	LBB96_19

	mov	rdi, qword ptr [rbp - 8]
	lea	rsi, [rip + L_.str.74]
	call	_strcmp
	cmp	eax, 0
	jne	LBB96_6

	mov	dword ptr [rbp - 12], -9
	jmp	LBB96_18
LBB96_6:
	mov	rdi, qword ptr [rbp - 8]
	lea	rsi, [rip + L_.str.73]
	call	_strcmp
	cmp	eax, 0
	jne	LBB96_8

	mov	dword ptr [rbp - 12], 0
	jmp	LBB96_17
LBB96_8:
	mov	rdi, qword ptr [rbp - 8]
	lea	rsi, [rip + L_.str.75]
	call	_strcmp
	cmp	eax, 0
	jne	LBB96_10

	mov	dword ptr [rbp - 12], -1
	jmp	LBB96_16
LBB96_10:
	mov	rdi, qword ptr [rbp - 8]
	lea	rsi, [rip + L_.str.76]
	call	_strcmp
	cmp	eax, 0
	jne	LBB96_12

	mov	dword ptr [rbp - 12], -2
	jmp	LBB96_15
LBB96_12:
	mov	rdi, qword ptr [rbp - 8]
	lea	rsi, [rip + L_.str.77]
	call	_strcmp
	cmp	eax, 0
	jne	LBB96_14

	mov	dword ptr [rbp - 12], -3
LBB96_14:
	jmp	LBB96_15
LBB96_15:
	jmp	LBB96_16
LBB96_16:
	jmp	LBB96_17
LBB96_17:
	jmp	LBB96_18
LBB96_18:
	jmp	LBB96_19
LBB96_19:
	mov	eax, dword ptr [rbp - 12]
	add	rsp, 16
	pop	rbp
	ret
	.cfi_endproc
                                        
	.globl	__ZN6loguru15remove_callbackEPKc 
	.p2align	4, 0x90
__ZN6loguru15remove_callbackEPKc:       
Lfunc_begin8:
	.cfi_startproc
	.cfi_personality 155, ___gxx_personality_v0
	.cfi_lsda 16, Lexception8

	push	rbp
	.cfi_def_cfa_offset 16
	.cfi_offset rbp, -16
	mov	rbp, rsp
	.cfi_def_cfa_register rbp
	sub	rsp, 160
	mov	qword ptr [rbp - 16], rdi
	lea	rsi, [rip + __ZN6loguruL7s_mutexE]
	lea	rdi, [rbp - 24]
	call	__ZNSt3__110lock_guardINS_15recursive_mutexEEC1ERS1_
Ltmp104:
	lea	rdi, [rip + __ZN6loguruL11s_callbacksE]
	call	__ZNSt3__1L5beginINS_6vectorIN6loguru8CallbackENS_9allocatorIS3_EEEEEEDTcldtfp_5beginEERT_
Ltmp105:
	mov	qword ptr [rbp - 112], rax 
	jmp	LBB97_1
LBB97_1:
	mov	rax, qword ptr [rbp - 112] 
	mov	qword ptr [rbp - 40], rax
Ltmp106:
	lea	rdi, [rip + __ZN6loguruL11s_callbacksE]
	call	__ZNSt3__1L3endINS_6vectorIN6loguru8CallbackENS_9allocatorIS3_EEEEEEDTcldtfp_3endEERT_
Ltmp107:
	mov	qword ptr [rbp - 120], rax 
	jmp	LBB97_2
LBB97_2:
	mov	rax, qword ptr [rbp - 120] 
	mov	qword ptr [rbp - 64], rax
	lea	rcx, [rbp - 16]
	mov	qword ptr [rbp - 72], rcx
	mov	rdi, qword ptr [rbp - 40]
	mov	rsi, qword ptr [rbp - 64]
	mov	rdx, qword ptr [rbp - 72]
Ltmp108:
	call	__ZNSt3__1L7find_ifINS_11__wrap_iterIPN6loguru8CallbackEEEZNS2_15remove_callbackEPKcE3$_1EET_S9_S9_T0_
Ltmp109:
	mov	qword ptr [rbp - 128], rax 
	jmp	LBB97_3
LBB97_3:
	mov	rax, qword ptr [rbp - 128] 
	mov	qword ptr [rbp - 32], rax
	lea	rdi, [rip + __ZN6loguruL11s_callbacksE]
	call	__ZNSt3__16vectorIN6loguru8CallbackENS_9allocatorIS2_EEE3endEv
	mov	qword ptr [rbp - 80], rax
	lea	rdi, [rbp - 32]
	lea	rsi, [rbp - 80]
	call	__ZNSt3__1neIPN6loguru8CallbackEEEbRKNS_11__wrap_iterIT_EES8_
	test	al, 1
	jne	LBB97_4
	jmp	LBB97_11
LBB97_4:
	lea	rdi, [rbp - 32]
	call	__ZNKSt3__111__wrap_iterIPN6loguru8CallbackEEptEv
	cmp	qword ptr [rax + 48], 0
	je	LBB97_8

	lea	rax, [rbp - 32]
	mov	rdi, rax
	mov	qword ptr [rbp - 136], rax 
	call	__ZNKSt3__111__wrap_iterIPN6loguru8CallbackEEptEv
	mov	rax, qword ptr [rax + 48]
	mov	rdi, qword ptr [rbp - 136] 
	mov	qword ptr [rbp - 144], rax 
	call	__ZNKSt3__111__wrap_iterIPN6loguru8CallbackEEptEv
	mov	rdi, qword ptr [rax + 32]
Ltmp114:
	mov	rax, qword ptr [rbp - 144] 
	call	rax
Ltmp115:
	jmp	LBB97_6
LBB97_6:
	jmp	LBB97_8
LBB97_7:
Ltmp120:
                                        
	mov	qword ptr [rbp - 48], rax
	mov	dword ptr [rbp - 52], edx
	lea	rdi, [rbp - 24]
	call	__ZNSt3__110lock_guardINS_15recursive_mutexEED1Ev
	jmp	LBB97_18
LBB97_8:
	xor	eax, eax
	mov	edx, eax
	lea	rdi, [rbp - 88]
	lea	rsi, [rbp - 32]
	call	__ZNSt3__111__wrap_iterIPKN6loguru8CallbackEEC1IPS2_EERKNS0_IT_EEPNS_9enable_ifIXsr14is_convertibleIS8_S4_EE5valueEvE4typeE
	mov	rsi, qword ptr [rbp - 88]
Ltmp116:
	lea	rdi, [rip + __ZN6loguruL11s_callbacksE]
	call	__ZNSt3__16vectorIN6loguru8CallbackENS_9allocatorIS2_EEE5eraseENS_11__wrap_iterIPKS2_EE
Ltmp117:
	mov	qword ptr [rbp - 152], rax 
	jmp	LBB97_9
LBB97_9:
	mov	rax, qword ptr [rbp - 152] 
	mov	qword ptr [rbp - 96], rax
Ltmp118:
	call	__ZN6loguruL18on_callback_changeEv
Ltmp119:
	jmp	LBB97_10
LBB97_10:
	mov	byte ptr [rbp - 1], 1
	mov	dword ptr [rbp - 100], 1
	jmp	LBB97_17
LBB97_11:
Ltmp110:
	call	__ZN6loguru24current_verbosity_cutoffEv
Ltmp111:
	mov	dword ptr [rbp - 156], eax 
	jmp	LBB97_12
LBB97_12:
	mov	eax, 4294967294
	mov	ecx, dword ptr [rbp - 156] 
	cmp	eax, ecx
	jle	LBB97_14

	jmp	LBB97_16
LBB97_14:
	mov	r8, qword ptr [rbp - 16]
Ltmp112:
	lea	rsi, [rip + L_.str.28]
	lea	rcx, [rip + L_.str.78]
	xor	eax, eax
                                        
	mov	edi, -2
	mov	edx, 985
	call	__ZN6loguru3logEiPKcjS1_z
Ltmp113:
	jmp	LBB97_15
LBB97_15:
	jmp	LBB97_16
LBB97_16:
	mov	byte ptr [rbp - 1], 0
	mov	dword ptr [rbp - 100], 1
LBB97_17:
	lea	rdi, [rbp - 24]
	call	__ZNSt3__110lock_guardINS_15recursive_mutexEED1Ev
	mov	al, byte ptr [rbp - 1]
	and	al, 1
	movzx	eax, al
	add	rsp, 160
	pop	rbp
	ret
LBB97_18:
	mov	rdi, qword ptr [rbp - 48]
	call	__Unwind_Resume
	ud2
Lfunc_end8:
	.cfi_endproc
	.section	__TEXT,__gcc_except_tab
	.p2align	2
GCC_except_table97:
Lexception8:
	.byte	255                     
	.byte	255                     
	.byte	1                       
	.uleb128 Lcst_end8-Lcst_begin8
Lcst_begin8:
	.uleb128 Lfunc_begin8-Lfunc_begin8 
	.uleb128 Ltmp104-Lfunc_begin8   
	.byte	0                       
	.byte	0                       
	.uleb128 Ltmp104-Lfunc_begin8   
	.uleb128 Ltmp113-Ltmp104        
	.uleb128 Ltmp120-Lfunc_begin8   
	.byte	0                       
	.uleb128 Ltmp113-Lfunc_begin8   
	.uleb128 Lfunc_end8-Ltmp113     
	.byte	0                       
	.byte	0                       
Lcst_end8:
	.p2align	2
                                        
	.section	__TEXT,__text,regular,pure_instructions
	.p2align	4, 0x90         
__ZNSt3__1L7find_ifINS_11__wrap_iterIPN6loguru8CallbackEEEZNS2_15remove_callbackEPKcE3$_1EET_S9_S9_T0_: 
	.cfi_startproc

	push	rbp
	.cfi_def_cfa_offset 16
	.cfi_offset rbp, -16
	mov	rbp, rsp
	.cfi_def_cfa_register rbp
	sub	rsp, 32
	mov	qword ptr [rbp - 16], rdi
	mov	qword ptr [rbp - 24], rsi
	mov	qword ptr [rbp - 32], rdx
LBB98_1:                                
	lea	rdi, [rbp - 16]
	lea	rsi, [rbp - 24]
	call	__ZNSt3__1neIPN6loguru8CallbackEEEbRKNS_11__wrap_iterIT_EES8_
	test	al, 1
	jne	LBB98_2
	jmp	LBB98_6
LBB98_2:                                
	lea	rdi, [rbp - 16]
	call	__ZNKSt3__111__wrap_iterIPN6loguru8CallbackEEdeEv
	lea	rdi, [rbp - 32]
	mov	rsi, rax
	call	__ZZN6loguru15remove_callbackEPKcENK3$_1clERKNS_8CallbackE
	test	al, 1
	jne	LBB98_3
	jmp	LBB98_4
LBB98_3:
	jmp	LBB98_6
LBB98_4:                                
	jmp	LBB98_5
LBB98_5:                                
	lea	rdi, [rbp - 16]
	call	__ZNSt3__111__wrap_iterIPN6loguru8CallbackEEppEv
	jmp	LBB98_1
LBB98_6:
	mov	rax, qword ptr [rbp - 16]
	mov	qword ptr [rbp - 8], rax
	mov	rax, qword ptr [rbp - 8]
	add	rsp, 32
	pop	rbp
	ret
	.cfi_endproc
                                        
	.p2align	4, 0x90         
__ZNSt3__1L5beginINS_6vectorIN6loguru8CallbackENS_9allocatorIS3_EEEEEEDTcldtfp_5beginEERT_: 

	push	rbp
	mov	rbp, rsp
	sub	rsp, 16
	mov	qword ptr [rbp - 16], rdi
	mov	rdi, qword ptr [rbp - 16]
	call	__ZNSt3__16vectorIN6loguru8CallbackENS_9allocatorIS2_EEE5beginEv
	mov	qword ptr [rbp - 8], rax
	mov	rax, qword ptr [rbp - 8]
	add	rsp, 16
	pop	rbp
	ret
                                        
	.p2align	4, 0x90         
__ZNSt3__1L3endINS_6vectorIN6loguru8CallbackENS_9allocatorIS3_EEEEEEDTcldtfp_3endEERT_: 

	push	rbp
	mov	rbp, rsp
	sub	rsp, 16
	mov	qword ptr [rbp - 16], rdi
	mov	rdi, qword ptr [rbp - 16]
	call	__ZNSt3__16vectorIN6loguru8CallbackENS_9allocatorIS2_EEE3endEv
	mov	qword ptr [rbp - 8], rax
	mov	rax, qword ptr [rbp - 8]
	add	rsp, 16
	pop	rbp
	ret
                                        
	.p2align	4, 0x90         
__ZNSt3__1neIPN6loguru8CallbackEEEbRKNS_11__wrap_iterIT_EES8_: 

	push	rbp
	mov	rbp, rsp
	sub	rsp, 16
	mov	qword ptr [rbp - 8], rdi
	mov	qword ptr [rbp - 16], rsi
	mov	rdi, qword ptr [rbp - 8]
	mov	rsi, qword ptr [rbp - 16]
	call	__ZNSt3__1eqIPN6loguru8CallbackES3_EEbRKNS_11__wrap_iterIT_EERKNS4_IT0_EE
	xor	al, -1
	and	al, 1
	movzx	eax, al
	add	rsp, 16
	pop	rbp
	ret
                                        
	.p2align	4, 0x90         
__ZNSt3__16vectorIN6loguru8CallbackENS_9allocatorIS2_EEE3endEv: 

	push	rbp
	mov	rbp, rsp
	sub	rsp, 16
	mov	qword ptr [rbp - 16], rdi
	mov	rax, qword ptr [rbp - 16]
	mov	rsi, qword ptr [rax + 8]
	mov	rdi, rax
	call	__ZNSt3__16vectorIN6loguru8CallbackENS_9allocatorIS2_EEE11__make_iterEPS2_
	mov	qword ptr [rbp - 8], rax
	mov	rax, qword ptr [rbp - 8]
	add	rsp, 16
	pop	rbp
	ret
                                        
	.p2align	4, 0x90         
__ZNKSt3__111__wrap_iterIPN6loguru8CallbackEEptEv: 

	push	rbp
	mov	rbp, rsp
	sub	rsp, 16
	mov	qword ptr [rbp - 8], rdi
	mov	rax, qword ptr [rbp - 8]
	mov	rdi, qword ptr [rax]
	call	__ZNSt3__1L9addressofIN6loguru8CallbackEEEPT_RS3_
	add	rsp, 16
	pop	rbp
	ret
                                        
	.p2align	4, 0x90         
__ZNSt3__16vectorIN6loguru8CallbackENS_9allocatorIS2_EEE5eraseENS_11__wrap_iterIPKS2_EE: 
	.cfi_startproc

	push	rbp
	.cfi_def_cfa_offset 16
	.cfi_offset rbp, -16
	mov	rbp, rsp
	.cfi_def_cfa_register rbp
	sub	rsp, 64
	mov	qword ptr [rbp - 16], rsi
	mov	qword ptr [rbp - 24], rdi
	mov	rax, qword ptr [rbp - 24]
	mov	rdi, rax
	mov	qword ptr [rbp - 56], rax 
	call	__ZNKSt3__16vectorIN6loguru8CallbackENS_9allocatorIS2_EEE6cbeginEv
	mov	qword ptr [rbp - 40], rax
	lea	rdi, [rbp - 16]
	lea	rsi, [rbp - 40]
	call	__ZNSt3__1miIPKN6loguru8CallbackES4_EEDTmicldtfp_4baseEcldtfp0_4baseEERKNS_11__wrap_iterIT_EERKNS6_IT0_EE
	mov	qword ptr [rbp - 32], rax
	mov	rax, qword ptr [rbp - 56] 
	mov	rcx, qword ptr [rax]
	imul	rdx, qword ptr [rbp - 32], 72
	add	rcx, rdx
	mov	qword ptr [rbp - 48], rcx
	mov	rcx, qword ptr [rbp - 48]
	add	rcx, 72
	mov	rsi, qword ptr [rax + 8]
	mov	rdx, qword ptr [rbp - 48]
	mov	rdi, rcx
	call	__ZNSt3__1L4moveIPN6loguru8CallbackES3_EET0_T_S5_S4_
	mov	rdi, qword ptr [rbp - 56] 
	mov	rsi, rax
	call	__ZNSt3__16vectorIN6loguru8CallbackENS_9allocatorIS2_EEE17__destruct_at_endEPS2_
	mov	rax, qword ptr [rbp - 48]
	add	rax, -72
	mov	rdi, qword ptr [rbp - 56] 
	mov	rsi, rax
	call	__ZNSt3__16vectorIN6loguru8CallbackENS_9allocatorIS2_EEE27__invalidate_iterators_pastEPS2_
	mov	rsi, qword ptr [rbp - 48]
	mov	rdi, qword ptr [rbp - 56] 
	call	__ZNSt3__16vectorIN6loguru8CallbackENS_9allocatorIS2_EEE11__make_iterEPS2_
	mov	qword ptr [rbp - 8], rax
	mov	rax, qword ptr [rbp - 8]
	add	rsp, 64
	pop	rbp
	ret
	.cfi_endproc
                                        
	.p2align	4, 0x90         
__ZNSt3__111__wrap_iterIPKN6loguru8CallbackEEC1IPS2_EERKNS0_IT_EEPNS_9enable_ifIXsr14is_convertibleIS8_S4_EE5valueEvE4typeE: 

	push	rbp
	mov	rbp, rsp
	sub	rsp, 32
	mov	qword ptr [rbp - 8], rdi
	mov	qword ptr [rbp - 16], rsi
	mov	qword ptr [rbp - 24], rdx
	mov	rdi, qword ptr [rbp - 8]
	mov	rsi, qword ptr [rbp - 16]
	mov	rdx, qword ptr [rbp - 24]
	call	__ZNSt3__111__wrap_iterIPKN6loguru8CallbackEEC2IPS2_EERKNS0_IT_EEPNS_9enable_ifIXsr14is_convertibleIS8_S4_EE5valueEvE4typeE
	add	rsp, 32
	pop	rbp
	ret
                                        
	.p2align	4, 0x90         
__ZNSt3__16vectorIN6loguru8CallbackENS_9allocatorIS2_EEE5beginEv: 

	push	rbp
	mov	rbp, rsp
	sub	rsp, 16
	mov	qword ptr [rbp - 16], rdi
	mov	rax, qword ptr [rbp - 16]
	mov	rsi, qword ptr [rax]
	mov	rdi, rax
	call	__ZNSt3__16vectorIN6loguru8CallbackENS_9allocatorIS2_EEE11__make_iterEPS2_
	mov	qword ptr [rbp - 8], rax
	mov	rax, qword ptr [rbp - 8]
	add	rsp, 16
	pop	rbp
	ret
                                        
	.p2align	4, 0x90         
__ZNKSt3__111__wrap_iterIPN6loguru8CallbackEEdeEv: 

	push	rbp
	mov	rbp, rsp
	mov	qword ptr [rbp - 8], rdi
	mov	rax, qword ptr [rbp - 8]
	mov	rax, qword ptr [rax]
	pop	rbp
	ret
                                        
	.p2align	4, 0x90         
__ZNSt3__111__wrap_iterIPN6loguru8CallbackEEppEv: 

	push	rbp
	mov	rbp, rsp
	mov	qword ptr [rbp - 8], rdi
	mov	rax, qword ptr [rbp - 8]
	mov	rcx, qword ptr [rax]
	add	rcx, 72
	mov	qword ptr [rax], rcx
	pop	rbp
	ret
                                        
	.p2align	4, 0x90         
__ZNSt3__16vectorIN6loguru8CallbackENS_9allocatorIS2_EEE5clearEv: 
Lfunc_begin9:
	.cfi_startproc
	.cfi_personality 155, ___gxx_personality_v0
	.cfi_lsda 16, Lexception9

	push	rbp
	.cfi_def_cfa_offset 16
	.cfi_offset rbp, -16
	mov	rbp, rsp
	.cfi_def_cfa_register rbp
	sub	rsp, 32
	mov	qword ptr [rbp - 8], rdi
	mov	rax, qword ptr [rbp - 8]
	mov	rdi, rax
	mov	qword ptr [rbp - 24], rax 
	call	__ZNKSt3__16vectorIN6loguru8CallbackENS_9allocatorIS2_EEE4sizeEv
	mov	qword ptr [rbp - 16], rax
	mov	rdi, qword ptr [rbp - 24] 
	call	__ZNSt3__113__vector_baseIN6loguru8CallbackENS_9allocatorIS2_EEE5clearEv
	mov	rsi, qword ptr [rbp - 16]
	mov	rdi, qword ptr [rbp - 24] 
	call	__ZNKSt3__16vectorIN6loguru8CallbackENS_9allocatorIS2_EEE17__annotate_shrinkEm
Ltmp121:
	mov	rdi, qword ptr [rbp - 24] 
	call	__ZNSt3__16vectorIN6loguru8CallbackENS_9allocatorIS2_EEE26__invalidate_all_iteratorsEv
Ltmp122:
	jmp	LBB109_1
LBB109_1:
	add	rsp, 32
	pop	rbp
	ret
LBB109_2:
Ltmp123:
	mov	rdi, rax
	mov	qword ptr [rbp - 32], rdx 
	call	___clang_call_terminate
Lfunc_end9:
	.cfi_endproc
	.section	__TEXT,__gcc_except_tab
	.p2align	2
GCC_except_table109:
Lexception9:
	.byte	255                     
	.byte	155                     
	.uleb128 Lttbase1-Lttbaseref1
Lttbaseref1:
	.byte	1                       
	.uleb128 Lcst_end9-Lcst_begin9
Lcst_begin9:
	.uleb128 Ltmp121-Lfunc_begin9   
	.uleb128 Ltmp122-Ltmp121        
	.uleb128 Ltmp123-Lfunc_begin9   
	.byte	1                       
Lcst_end9:
	.byte	1                       
                                        
	.byte	0                       
	.p2align	2
                                        
	.long	0                       
Lttbase1:
	.p2align	2
                                        
	.section	__TEXT,__text,regular,pure_instructions
	.globl	__ZN6loguru15set_thread_nameEPKc 
	.p2align	4, 0x90
__ZN6loguru15set_thread_nameEPKc:       
	.cfi_startproc

	push	rbp
	.cfi_def_cfa_offset 16
	.cfi_offset rbp, -16
	mov	rbp, rsp
	.cfi_def_cfa_register rbp
	sub	rsp, 16
	mov	qword ptr [rbp - 8], rdi
	mov	rdi, qword ptr [rbp - 8]
	call	_pthread_setname_np
	add	rsp, 16
	pop	rbp
	ret
	.cfi_endproc
                                        
	.globl	__ZN6loguru15get_thread_nameEPcyb 
	.p2align	4, 0x90
__ZN6loguru15get_thread_nameEPcyb:      
Lfunc_begin10:
	.cfi_startproc
	.cfi_personality 155, ___gxx_personality_v0
	.cfi_lsda 16, Lexception10

	push	rbp
	.cfi_def_cfa_offset 16
	.cfi_offset rbp, -16
	mov	rbp, rsp
	.cfi_def_cfa_register rbp
	sub	rsp, 192
                                        
	mov	qword ptr [rbp - 8], rdi
	mov	qword ptr [rbp - 16], rsi
	and	dl, 1
	mov	byte ptr [rbp - 17], dl

	mov	rax, qword ptr [rbp - 16]
	mov	qword ptr [rbp - 32], rax
	mov	dword ptr [rbp - 36], 0
	mov	rax, qword ptr [rbp - 32]
	mov	ecx, dword ptr [rbp - 36]
	mov	edx, ecx
	cmp	rax, rdx
	setne	sil
	xor	sil, -1
	xor	sil, -1
	test	sil, 1
	jne	LBB111_18

	lea	rdi, [rbp - 48]
	lea	rsi, [rbp - 32]
	call	__ZN6loguru12format_valueIyEENS_4TextERKT_
Ltmp124:
	lea	rdi, [rbp - 56]
	lea	rsi, [rbp - 36]
	call	__ZN6loguru12format_valueIjEENS_4TextERKT_
Ltmp125:
	jmp	LBB111_3
LBB111_3:
Ltmp127:
	lea	rdi, [rbp - 48]
	call	__ZNK6loguru4Text5c_strEv
Ltmp128:
	mov	qword ptr [rbp - 104], rax 
	jmp	LBB111_4
LBB111_4:
Ltmp129:
	lea	rdi, [rbp - 56]
	call	__ZNK6loguru4Text5c_strEv
Ltmp130:
	mov	qword ptr [rbp - 112], rax 
	jmp	LBB111_5
LBB111_5:
Ltmp131:
	mov	rax, rsp
	mov	rcx, qword ptr [rbp - 112] 
	mov	qword ptr [rax + 8], rcx
	lea	rdx, [rip + L_.str.80]
	mov	qword ptr [rax], rdx
	lea	rsi, [rip + L_.str.23]
	lea	rax, [rip + L_.str.79]
	lea	r8, [rip + L_.str.81]
	xor	edi, edi
                                        
	lea	r9, [rbp - 80]
	mov	byte ptr [rbp - 113], dil 
	mov	rdi, r9
	mov	qword ptr [rbp - 128], rdx 
	mov	rdx, rax
	mov	rcx, qword ptr [rbp - 128] 
	mov	r9, qword ptr [rbp - 104] 
	mov	al, byte ptr [rbp - 113] 
	call	__ZN6loguru10textprintfEPKcz
Ltmp132:
	jmp	LBB111_6
LBB111_6:
Ltmp134:
	lea	rsi, [rip + L_.str.82]
	xor	eax, eax
                                        
	lea	rdi, [rbp - 88]
	call	__ZN6loguru10textprintfEPKcz
Ltmp135:
	jmp	LBB111_7
LBB111_7:
Ltmp137:
	lea	rdi, [rbp - 80]
	call	__ZNK6loguru4Text5c_strEv
Ltmp138:
	mov	qword ptr [rbp - 136], rax 
	jmp	LBB111_8
LBB111_8:
Ltmp139:
	lea	rdi, [rbp - 88]
	call	__ZNK6loguru4Text5c_strEv
Ltmp140:
	mov	qword ptr [rbp - 144], rax 
	jmp	LBB111_9
LBB111_9:
Ltmp141:
	lea	rdx, [rip + L_.str.28]
	lea	r8, [rip + L_.str.29]
	xor	eax, eax
	mov	cl, al
	mov	esi, 1058
	mov	edi, eax
	mov	r9, qword ptr [rbp - 136] 
	mov	dword ptr [rbp - 148], esi 
	mov	rsi, r9
	mov	eax, dword ptr [rbp - 148] 
	mov	byte ptr [rbp - 149], cl 
	mov	ecx, eax
	mov	r9, qword ptr [rbp - 144] 
	mov	al, byte ptr [rbp - 149] 
	call	__ZN6loguru13log_and_abortEiPKcS1_jS1_z
Ltmp142:
	jmp	LBB111_10
LBB111_10:
	ud2
LBB111_11:
Ltmp126:
                                        
	mov	qword ptr [rbp - 64], rax
	mov	dword ptr [rbp - 68], edx
	jmp	LBB111_17
LBB111_12:
Ltmp133:
                                        
	mov	qword ptr [rbp - 64], rax
	mov	dword ptr [rbp - 68], edx
	jmp	LBB111_16
LBB111_13:
Ltmp136:
                                        
	mov	qword ptr [rbp - 64], rax
	mov	dword ptr [rbp - 68], edx
	jmp	LBB111_15
LBB111_14:
Ltmp143:
                                        
	mov	qword ptr [rbp - 64], rax
	mov	dword ptr [rbp - 68], edx
	lea	rdi, [rbp - 88]
	call	__ZN6loguru4TextD1Ev
LBB111_15:
	lea	rdi, [rbp - 80]
	call	__ZN6loguru4TextD1Ev
LBB111_16:
	lea	rdi, [rbp - 56]
	call	__ZN6loguru4TextD1Ev
LBB111_17:
	lea	rdi, [rbp - 48]
	call	__ZN6loguru4TextD1Ev
	jmp	LBB111_28
LBB111_18:
	jmp	LBB111_19
LBB111_19:
	cmp	qword ptr [rbp - 8], 0
	setne	al
	and	al, 1
	movzx	ecx, al
	cmp	ecx, 1
	sete	al
	xor	al, -1
	xor	al, -1
	test	al, 1
	jne	LBB111_20
	jmp	LBB111_21
LBB111_20:
	jmp	LBB111_22
LBB111_21:
	lea	rsi, [rip + L_.str.83]
	lea	rdx, [rip + L_.str.28]
	lea	r8, [rip + L_.str.84]
	xor	eax, eax
	mov	cl, al
	mov	edi, 1059
	mov	dword ptr [rbp - 156], edi 
	mov	edi, eax
	mov	eax, dword ptr [rbp - 156] 
	mov	byte ptr [rbp - 157], cl 
	mov	ecx, eax
	mov	al, byte ptr [rbp - 157] 
	call	__ZN6loguru13log_and_abortEiPKcS1_jS1_z
LBB111_22:
	call	_pthread_self
	mov	rsi, qword ptr [rbp - 8]
	mov	rdx, qword ptr [rbp - 16]
	mov	rdi, rax
	call	_pthread_getname_np
	mov	rcx, qword ptr [rbp - 8]
	movsx	r8d, byte ptr [rcx]
	cmp	r8d, 0
	jne	LBB111_27

	call	_pthread_self
	mov	rdi, rax
	lea	rsi, [rbp - 96]
	call	_pthread_threadid_np
	test	byte ptr [rbp - 17], 1
	je	LBB111_25

	mov	rdi, qword ptr [rbp - 8]
	mov	rsi, qword ptr [rbp - 16]
	mov	rax, qword ptr [rbp - 16]
	sub	rax, 1
                                        
	mov	rcx, qword ptr [rbp - 96]
                                        
	lea	rdx, [rip + L_.str.85]
	mov	dword ptr [rbp - 164], ecx 
	mov	ecx, eax
	mov	r8d, dword ptr [rbp - 164] 
	mov	al, 0
	call	_snprintf
	jmp	LBB111_26
LBB111_25:
	mov	rdi, qword ptr [rbp - 8]
	mov	rsi, qword ptr [rbp - 16]
	mov	rax, qword ptr [rbp - 96]
                                        
	lea	rdx, [rip + L_.str.86]
	mov	ecx, eax
	mov	al, 0
	call	_snprintf
LBB111_26:
	jmp	LBB111_27
LBB111_27:
	add	rsp, 192
	pop	rbp
	ret
LBB111_28:
	mov	rdi, qword ptr [rbp - 64]
	call	__Unwind_Resume
	ud2
Lfunc_end10:
	.cfi_endproc
	.section	__TEXT,__gcc_except_tab
	.p2align	2
GCC_except_table111:
Lexception10:
	.byte	255                     
	.byte	255                     
	.byte	1                       
	.uleb128 Lcst_end10-Lcst_begin10
Lcst_begin10:
	.uleb128 Lfunc_begin10-Lfunc_begin10 
	.uleb128 Ltmp124-Lfunc_begin10  
	.byte	0                       
	.byte	0                       
	.uleb128 Ltmp124-Lfunc_begin10  
	.uleb128 Ltmp125-Ltmp124        
	.uleb128 Ltmp126-Lfunc_begin10  
	.byte	0                       
	.uleb128 Ltmp127-Lfunc_begin10  
	.uleb128 Ltmp132-Ltmp127        
	.uleb128 Ltmp133-Lfunc_begin10  
	.byte	0                       
	.uleb128 Ltmp134-Lfunc_begin10  
	.uleb128 Ltmp135-Ltmp134        
	.uleb128 Ltmp136-Lfunc_begin10  
	.byte	0                       
	.uleb128 Ltmp137-Lfunc_begin10  
	.uleb128 Ltmp142-Ltmp137        
	.uleb128 Ltmp143-Lfunc_begin10  
	.byte	0                       
	.uleb128 Ltmp142-Lfunc_begin10  
	.uleb128 Lfunc_end10-Ltmp142    
	.byte	0                       
	.byte	0                       
Lcst_end10:
	.p2align	2
                                        
	.section	__TEXT,__text,regular,pure_instructions
	.globl	__ZN6loguru12format_valueIyEENS_4TextERKT_ 
	.weak_definition	__ZN6loguru12format_valueIyEENS_4TextERKT_
	.p2align	4, 0x90
__ZN6loguru12format_valueIyEENS_4TextERKT_: 
	.cfi_startproc

	push	rbp
	.cfi_def_cfa_offset 16
	.cfi_offset rbp, -16
	mov	rbp, rsp
	.cfi_def_cfa_register rbp
	sub	rsp, 32
	mov	rax, rdi
	mov	rcx, rdi
	mov	qword ptr [rbp - 8], rcx
	mov	qword ptr [rbp - 16], rsi
	mov	rcx, qword ptr [rbp - 16]
	mov	rdx, qword ptr [rcx]
	lea	rsi, [rip + L_.str.160]
	mov	qword ptr [rbp - 24], rax 
	mov	al, 0
	call	__ZN6loguru10textprintfEPKcz
	mov	rax, qword ptr [rbp - 24] 
	add	rsp, 32
	pop	rbp
	ret
	.cfi_endproc
                                        
	.globl	__ZN6loguru12format_valueIjEENS_4TextERKT_ 
	.weak_definition	__ZN6loguru12format_valueIjEENS_4TextERKT_
	.p2align	4, 0x90
__ZN6loguru12format_valueIjEENS_4TextERKT_: 
	.cfi_startproc

	push	rbp
	.cfi_def_cfa_offset 16
	.cfi_offset rbp, -16
	mov	rbp, rsp
	.cfi_def_cfa_register rbp
	sub	rsp, 32
	mov	rax, rdi
	mov	rcx, rdi
	mov	qword ptr [rbp - 8], rcx
	mov	qword ptr [rbp - 16], rsi
	mov	rcx, qword ptr [rbp - 16]
	mov	edx, dword ptr [rcx]
	lea	rsi, [rip + L_.str.161]
	mov	qword ptr [rbp - 24], rax 
	mov	al, 0
	call	__ZN6loguru10textprintfEPKcz
	mov	rax, qword ptr [rbp - 24] 
	add	rsp, 32
	pop	rbp
	ret
	.cfi_endproc
                                        
	.globl	__ZN6loguru8demangleEPKc 
	.p2align	4, 0x90
__ZN6loguru8demangleEPKc:               
	.cfi_startproc

	push	rbp
	.cfi_def_cfa_offset 16
	.cfi_offset rbp, -16
	mov	rbp, rsp
	.cfi_def_cfa_register rbp
	sub	rsp, 64
	mov	rax, rdi
	xor	ecx, ecx
	mov	edx, ecx
	mov	r8, rdi
	mov	qword ptr [rbp - 8], r8
	mov	qword ptr [rbp - 16], rsi
	mov	dword ptr [rbp - 20], -1
	mov	rsi, qword ptr [rbp - 16]
	mov	qword ptr [rbp - 48], rdi 
	mov	rdi, rsi
	mov	rsi, rdx
	lea	rcx, [rbp - 20]
	mov	qword ptr [rbp - 56], rax 
	call	___cxa_demangle
	mov	qword ptr [rbp - 32], rax
	mov	byte ptr [rbp - 33], 0
	cmp	dword ptr [rbp - 20], 0
	jne	LBB114_2

	mov	rax, qword ptr [rbp - 32]
	mov	qword ptr [rbp - 64], rax 
	jmp	LBB114_3
LBB114_2:
	mov	rdi, qword ptr [rbp - 16]
	call	_strdup
	mov	qword ptr [rbp - 64], rax 
LBB114_3:
	mov	rax, qword ptr [rbp - 64] 
	mov	rdi, qword ptr [rbp - 48] 
	mov	rsi, rax
	call	__ZN6loguru4TextC1EPc
	mov	byte ptr [rbp - 33], 1
	test	byte ptr [rbp - 33], 1
	jne	LBB114_5

	mov	rdi, qword ptr [rbp - 48] 
	call	__ZN6loguru4TextD1Ev
LBB114_5:
	mov	rax, qword ptr [rbp - 56] 
	add	rsp, 64
	pop	rbp
	ret
	.cfi_endproc
                                        
	.section	__TEXT,__StaticInit,regular,pure_instructions
	.p2align	4, 0x90         
___cxx_global_var_init.87:              
Lfunc_begin11:
	.cfi_startproc
	.cfi_personality 155, ___gxx_personality_v0
	.cfi_lsda 16, Lexception11

	push	rbp
	.cfi_def_cfa_offset 16
	.cfi_offset rbp, -16
	mov	rbp, rsp
	.cfi_def_cfa_register rbp
	sub	rsp, 608
	mov	rax, qword ptr [rip + ___stack_chk_guard@GOTPCREL]
	mov	rax, qword ptr [rax]
	mov	qword ptr [rbp - 8], rax
	lea	rax, [rbp - 344]
	mov	byte ptr [rbp - 481], 1
	mov	qword ptr [rbp - 368], rax
Ltmp144:
	lea	rdi, [rbp - 392]
	mov	qword ptr [rbp - 496], rax 
	call	__ZN6loguru9type_nameINSt3__112basic_stringIcNS1_11char_traitsIcEENS1_9allocatorIcEEEEEES7_v
Ltmp145:
	jmp	LBB115_1
LBB115_1:
Ltmp147:
	lea	rdx, [rip + L_.str.88]
	lea	rsi, [rbp - 392]
	mov	rdi, qword ptr [rbp - 496] 
	call	__ZNSt3__14pairINS_12basic_stringIcNS_11char_traitsIcEENS_9allocatorIcEEEES6_EC1IS6_RA12_KcLb0EEEOT_OT0_
Ltmp148:
	jmp	LBB115_2
LBB115_2:
	mov	rax, qword ptr [rbp - 496] 
	add	rax, 48
	mov	qword ptr [rbp - 368], rax
Ltmp149:
	lea	rdi, [rbp - 432]
	mov	qword ptr [rbp - 504], rax 
	call	__ZN6loguru9type_nameINSt3__112basic_stringIwNS1_11char_traitsIwEENS1_9allocatorIwEEEEEENS2_IcNS3_IcEENS5_IcEEEEv
Ltmp150:
	jmp	LBB115_3
LBB115_3:
Ltmp152:
	lea	rdx, [rip + L_.str.89]
	lea	rsi, [rbp - 432]
	mov	rdi, qword ptr [rbp - 504] 
	call	__ZNSt3__14pairINS_12basic_stringIcNS_11char_traitsIcEENS_9allocatorIcEEEES6_EC1IS6_RA13_KcLb0EEEOT_OT0_
Ltmp153:
	jmp	LBB115_4
LBB115_4:
	mov	rax, qword ptr [rbp - 504] 
	add	rax, 48
	mov	qword ptr [rbp - 368], rax
Ltmp154:
	lea	rdi, [rbp - 456]
	mov	qword ptr [rbp - 512], rax 
	call	__ZN6loguru9type_nameINSt3__112basic_stringIDsNS1_11char_traitsIDsEENS1_9allocatorIDsEEEEEENS2_IcNS3_IcEENS5_IcEEEEv
Ltmp155:
	jmp	LBB115_5
LBB115_5:
Ltmp157:
	lea	rdx, [rip + L_.str.90]
	lea	rsi, [rbp - 456]
	mov	rdi, qword ptr [rbp - 512] 
	call	__ZNSt3__14pairINS_12basic_stringIcNS_11char_traitsIcEENS_9allocatorIcEEEES6_EC1IS6_RA15_KcLb0EEEOT_OT0_
Ltmp158:
	jmp	LBB115_6
LBB115_6:
	mov	rax, qword ptr [rbp - 512] 
	add	rax, 48
	mov	qword ptr [rbp - 368], rax
Ltmp159:
	lea	rdi, [rbp - 480]
	mov	qword ptr [rbp - 520], rax 
	call	__ZN6loguru9type_nameINSt3__112basic_stringIDiNS1_11char_traitsIDiEENS1_9allocatorIDiEEEEEENS2_IcNS3_IcEENS5_IcEEEEv
Ltmp160:
	jmp	LBB115_7
LBB115_7:
Ltmp162:
	lea	rdx, [rip + L_.str.91]
	lea	rsi, [rbp - 480]
	mov	rdi, qword ptr [rbp - 520] 
	call	__ZNSt3__14pairINS_12basic_stringIcNS_11char_traitsIcEENS_9allocatorIcEEEES6_EC1IS6_RA15_KcLb0EEEOT_OT0_
Ltmp163:
	jmp	LBB115_8
LBB115_8:
	mov	rax, qword ptr [rbp - 520] 
	add	rax, 48
	mov	qword ptr [rbp - 368], rax
Ltmp164:
	lea	rsi, [rip + L_.str.92]
	lea	rdx, [rip + L_.str.93]
	mov	rdi, rax
	mov	qword ptr [rbp - 528], rax 
	call	__ZNSt3__14pairINS_12basic_stringIcNS_11char_traitsIcEENS_9allocatorIcEEEES6_EC1IRA11_KcRA6_S9_Lb0EEEOT_OT0_
Ltmp165:
	jmp	LBB115_9
LBB115_9:
	mov	rax, qword ptr [rbp - 528] 
	add	rax, 48
	mov	qword ptr [rbp - 368], rax
Ltmp166:
	lea	rsi, [rip + L_.str.94]
	lea	rdx, [rip + L_.str.8]
	mov	rdi, rax
	mov	qword ptr [rbp - 536], rax 
	call	__ZNSt3__14pairINS_12basic_stringIcNS_11char_traitsIcEENS_9allocatorIcEEEES6_EC1IRA12_KcRA1_S9_Lb0EEEOT_OT0_
Ltmp167:
	jmp	LBB115_10
LBB115_10:
	mov	rax, qword ptr [rbp - 536] 
	add	rax, 48
	mov	qword ptr [rbp - 368], rax
Ltmp168:
	lea	rsi, [rip + L_.str.95]
	lea	rdx, [rip + L_.str.8]
	mov	rdi, rax
	call	__ZNSt3__14pairINS_12basic_stringIcNS_11char_traitsIcEENS_9allocatorIcEEEES6_EC1IRA9_KcRA1_S9_Lb0EEEOT_OT0_
Ltmp169:
	jmp	LBB115_11
LBB115_11:
	mov	byte ptr [rbp - 481], 0
	lea	rax, [rbp - 344]
	mov	qword ptr [rbp - 360], rax
	mov	qword ptr [rbp - 352], 7
	mov	rsi, qword ptr [rbp - 360]
	mov	rdx, qword ptr [rbp - 352]
Ltmp171:
	lea	rdi, [rip + __ZN6loguruL12REPLACE_LISTE]
	call	__ZNSt3__16vectorINS_4pairINS_12basic_stringIcNS_11char_traitsIcEENS_9allocatorIcEEEES7_EENS5_IS8_EEEC1ESt16initializer_listIS8_E
Ltmp172:
	jmp	LBB115_12
LBB115_12:
	lea	rax, [rbp - 344]
	mov	rcx, rax
	add	rcx, 336
	mov	qword ptr [rbp - 544], rax 
	mov	qword ptr [rbp - 552], rcx 
LBB115_13:                              
	mov	rax, qword ptr [rbp - 552] 
	add	rax, -48
	mov	rdi, rax
	mov	qword ptr [rbp - 560], rax 
	call	__ZNSt3__14pairINS_12basic_stringIcNS_11char_traitsIcEENS_9allocatorIcEEEES6_ED1Ev
	mov	rax, qword ptr [rbp - 560] 
	mov	rcx, qword ptr [rbp - 544] 
	cmp	rax, rcx
	mov	qword ptr [rbp - 552], rax 
	jne	LBB115_13

	lea	rdi, [rbp - 480]
	call	__ZNSt3__112basic_stringIcNS_11char_traitsIcEENS_9allocatorIcEEED1Ev
	lea	rdi, [rbp - 456]
	call	__ZNSt3__112basic_stringIcNS_11char_traitsIcEENS_9allocatorIcEEED1Ev
	lea	rdi, [rbp - 432]
	call	__ZNSt3__112basic_stringIcNS_11char_traitsIcEENS_9allocatorIcEEED1Ev
	lea	rdi, [rbp - 392]
	call	__ZNSt3__112basic_stringIcNS_11char_traitsIcEENS_9allocatorIcEEED1Ev
	lea	rax, [rip + __ZNSt3__16vectorINS_4pairINS_12basic_stringIcNS_11char_traitsIcEENS_9allocatorIcEEEES7_EENS5_IS8_EEED1Ev]
	lea	rcx, [rip + __ZN6loguruL12REPLACE_LISTE]
	mov	rdi, rax
	mov	rsi, rcx
	lea	rdx, [rip + ___dso_handle]
	call	___cxa_atexit
	mov	rcx, qword ptr [rip + ___stack_chk_guard@GOTPCREL]
	mov	rcx, qword ptr [rcx]
	mov	rdx, qword ptr [rbp - 8]
	cmp	rcx, rdx
	jne	LBB115_34

	add	rsp, 608
	pop	rbp
	ret
LBB115_16:
Ltmp146:
                                        
	mov	qword ptr [rbp - 400], rax
	mov	dword ptr [rbp - 404], edx
	jmp	LBB115_28
LBB115_17:
Ltmp151:
                                        
	mov	qword ptr [rbp - 400], rax
	mov	dword ptr [rbp - 404], edx
	jmp	LBB115_27
LBB115_18:
Ltmp156:
                                        
	mov	qword ptr [rbp - 400], rax
	mov	dword ptr [rbp - 404], edx
	jmp	LBB115_26
LBB115_19:
Ltmp161:
                                        
	mov	qword ptr [rbp - 400], rax
	mov	dword ptr [rbp - 404], edx
	jmp	LBB115_25
LBB115_20:
Ltmp170:
                                        
	mov	qword ptr [rbp - 400], rax
	mov	dword ptr [rbp - 404], edx
	jmp	LBB115_24
LBB115_21:
Ltmp173:
	lea	rcx, [rbp - 344]
                                        
	mov	qword ptr [rbp - 400], rax
	mov	dword ptr [rbp - 404], edx
	mov	rax, rcx
	add	rax, 336
	mov	qword ptr [rbp - 568], rcx 
	mov	qword ptr [rbp - 576], rax 
LBB115_22:                              
	mov	rax, qword ptr [rbp - 576] 
	add	rax, -48
	mov	rdi, rax
	mov	qword ptr [rbp - 584], rax 
	call	__ZNSt3__14pairINS_12basic_stringIcNS_11char_traitsIcEENS_9allocatorIcEEEES6_ED1Ev
	mov	rax, qword ptr [rbp - 584] 
	mov	rcx, qword ptr [rbp - 568] 
	cmp	rax, rcx
	mov	qword ptr [rbp - 576], rax 
	jne	LBB115_22

	jmp	LBB115_24
LBB115_24:
	lea	rdi, [rbp - 480]
	call	__ZNSt3__112basic_stringIcNS_11char_traitsIcEENS_9allocatorIcEEED1Ev
LBB115_25:
	lea	rdi, [rbp - 456]
	call	__ZNSt3__112basic_stringIcNS_11char_traitsIcEENS_9allocatorIcEEED1Ev
LBB115_26:
	lea	rdi, [rbp - 432]
	call	__ZNSt3__112basic_stringIcNS_11char_traitsIcEENS_9allocatorIcEEED1Ev
LBB115_27:
	lea	rdi, [rbp - 392]
	call	__ZNSt3__112basic_stringIcNS_11char_traitsIcEENS_9allocatorIcEEED1Ev
LBB115_28:
	test	byte ptr [rbp - 481], 1
	jne	LBB115_29
	jmp	LBB115_32
LBB115_29:
	mov	rax, qword ptr [rbp - 368]
	mov	rcx, qword ptr [rbp - 496] 
	cmp	rcx, rax
	mov	qword ptr [rbp - 592], rax 
	je	LBB115_31
LBB115_30:                              
	mov	rax, qword ptr [rbp - 592] 
	add	rax, -48
	mov	rdi, rax
	mov	qword ptr [rbp - 600], rax 
	call	__ZNSt3__14pairINS_12basic_stringIcNS_11char_traitsIcEENS_9allocatorIcEEEES6_ED1Ev
	mov	rax, qword ptr [rbp - 600] 
	mov	rcx, qword ptr [rbp - 496] 
	cmp	rax, rcx
	mov	qword ptr [rbp - 592], rax 
	jne	LBB115_30
LBB115_31:
	jmp	LBB115_32
LBB115_32:
	jmp	LBB115_33
LBB115_33:
	mov	rdi, qword ptr [rbp - 400]
	call	__Unwind_Resume
	ud2
LBB115_34:
	call	___stack_chk_fail
	ud2
Lfunc_end11:
	.cfi_endproc
	.section	__TEXT,__gcc_except_tab
	.p2align	2
GCC_except_table115:
Lexception11:
	.byte	255                     
	.byte	255                     
	.byte	1                       
	.uleb128 Lcst_end11-Lcst_begin11
Lcst_begin11:
	.uleb128 Ltmp144-Lfunc_begin11  
	.uleb128 Ltmp145-Ltmp144        
	.uleb128 Ltmp146-Lfunc_begin11  
	.byte	0                       
	.uleb128 Ltmp147-Lfunc_begin11  
	.uleb128 Ltmp150-Ltmp147        
	.uleb128 Ltmp151-Lfunc_begin11  
	.byte	0                       
	.uleb128 Ltmp152-Lfunc_begin11  
	.uleb128 Ltmp155-Ltmp152        
	.uleb128 Ltmp156-Lfunc_begin11  
	.byte	0                       
	.uleb128 Ltmp157-Lfunc_begin11  
	.uleb128 Ltmp160-Ltmp157        
	.uleb128 Ltmp161-Lfunc_begin11  
	.byte	0                       
	.uleb128 Ltmp162-Lfunc_begin11  
	.uleb128 Ltmp169-Ltmp162        
	.uleb128 Ltmp170-Lfunc_begin11  
	.byte	0                       
	.uleb128 Ltmp171-Lfunc_begin11  
	.uleb128 Ltmp172-Ltmp171        
	.uleb128 Ltmp173-Lfunc_begin11  
	.byte	0                       
	.uleb128 Ltmp172-Lfunc_begin11  
	.uleb128 Lfunc_end11-Ltmp172    
	.byte	0                       
	.byte	0                       
Lcst_end11:
	.p2align	2
                                        
	.section	__TEXT,__text,regular,pure_instructions
	.globl	__ZN6loguru9type_nameINSt3__112basic_stringIcNS1_11char_traitsIcEENS1_9allocatorIcEEEEEES7_v 
	.weak_definition	__ZN6loguru9type_nameINSt3__112basic_stringIcNS1_11char_traitsIcEENS1_9allocatorIcEEEEEES7_v
	.p2align	4, 0x90
__ZN6loguru9type_nameINSt3__112basic_stringIcNS1_11char_traitsIcEENS1_9allocatorIcEEEEEES7_v: 
Lfunc_begin12:
	.cfi_startproc
	.cfi_personality 155, ___gxx_personality_v0
	.cfi_lsda 16, Lexception12

	push	rbp
	.cfi_def_cfa_offset 16
	.cfi_offset rbp, -16
	mov	rbp, rsp
	.cfi_def_cfa_register rbp
	sub	rsp, 64
	mov	rax, rdi
	mov	qword ptr [rbp - 8], rdi
	mov	rcx, qword ptr [rip + __ZTINSt3__112basic_stringIcNS_11char_traitsIcEENS_9allocatorIcEEEE@GOTPCREL]
	mov	qword ptr [rbp - 40], rdi 
	mov	rdi, rcx
	mov	qword ptr [rbp - 48], rax 
	call	__ZNKSt9type_info4nameEv
	lea	rcx, [rbp - 16]
	mov	rdi, rcx
	mov	rsi, rax
	mov	qword ptr [rbp - 56], rcx 
	call	__ZN6loguru8demangleEPKc
Ltmp174:
	mov	rdi, qword ptr [rbp - 56] 
	call	__ZNK6loguru4Text5c_strEv
Ltmp175:
	mov	qword ptr [rbp - 64], rax 
	jmp	LBB116_1
LBB116_1:
Ltmp176:
	mov	rdi, qword ptr [rbp - 40] 
	mov	rsi, qword ptr [rbp - 64] 
	call	__ZNSt3__112basic_stringIcNS_11char_traitsIcEENS_9allocatorIcEEEC1IDnEEPKc
Ltmp177:
	jmp	LBB116_2
LBB116_2:
	lea	rdi, [rbp - 16]
	call	__ZN6loguru4TextD1Ev
	mov	rax, qword ptr [rbp - 48] 
	add	rsp, 64
	pop	rbp
	ret
LBB116_3:
Ltmp178:
                                        
	mov	qword ptr [rbp - 24], rax
	mov	dword ptr [rbp - 28], edx
	lea	rdi, [rbp - 16]
	call	__ZN6loguru4TextD1Ev

	mov	rdi, qword ptr [rbp - 24]
	call	__Unwind_Resume
	ud2
Lfunc_end12:
	.cfi_endproc
	.section	__TEXT,__gcc_except_tab
	.p2align	2
GCC_except_table116:
Lexception12:
	.byte	255                     
	.byte	255                     
	.byte	1                       
	.uleb128 Lcst_end12-Lcst_begin12
Lcst_begin12:
	.uleb128 Lfunc_begin12-Lfunc_begin12 
	.uleb128 Ltmp174-Lfunc_begin12  
	.byte	0                       
	.byte	0                       
	.uleb128 Ltmp174-Lfunc_begin12  
	.uleb128 Ltmp177-Ltmp174        
	.uleb128 Ltmp178-Lfunc_begin12  
	.byte	0                       
	.uleb128 Ltmp177-Lfunc_begin12  
	.uleb128 Lfunc_end12-Ltmp177    
	.byte	0                       
	.byte	0                       
Lcst_end12:
	.p2align	2
                                        
	.section	__TEXT,__text,regular,pure_instructions
	.p2align	4, 0x90         
__ZNSt3__14pairINS_12basic_stringIcNS_11char_traitsIcEENS_9allocatorIcEEEES6_EC1IS6_RA12_KcLb0EEEOT_OT0_: 
	.cfi_startproc

	push	rbp
	.cfi_def_cfa_offset 16
	.cfi_offset rbp, -16
	mov	rbp, rsp
	.cfi_def_cfa_register rbp
	sub	rsp, 32
	mov	qword ptr [rbp - 8], rdi
	mov	qword ptr [rbp - 16], rsi
	mov	qword ptr [rbp - 24], rdx
	mov	rdi, qword ptr [rbp - 8]
	mov	rsi, qword ptr [rbp - 16]
	mov	rdx, qword ptr [rbp - 24]
	call	__ZNSt3__14pairINS_12basic_stringIcNS_11char_traitsIcEENS_9allocatorIcEEEES6_EC2IS6_RA12_KcLb0EEEOT_OT0_
	add	rsp, 32
	pop	rbp
	ret
	.cfi_endproc
                                        
	.globl	__ZN6loguru9type_nameINSt3__112basic_stringIwNS1_11char_traitsIwEENS1_9allocatorIwEEEEEENS2_IcNS3_IcEENS5_IcEEEEv 
	.weak_definition	__ZN6loguru9type_nameINSt3__112basic_stringIwNS1_11char_traitsIwEENS1_9allocatorIwEEEEEENS2_IcNS3_IcEENS5_IcEEEEv
	.p2align	4, 0x90
__ZN6loguru9type_nameINSt3__112basic_stringIwNS1_11char_traitsIwEENS1_9allocatorIwEEEEEENS2_IcNS3_IcEENS5_IcEEEEv: 
Lfunc_begin13:
	.cfi_startproc
	.cfi_personality 155, ___gxx_personality_v0
	.cfi_lsda 16, Lexception13

	push	rbp
	.cfi_def_cfa_offset 16
	.cfi_offset rbp, -16
	mov	rbp, rsp
	.cfi_def_cfa_register rbp
	sub	rsp, 64
	mov	rax, rdi
	mov	qword ptr [rbp - 8], rdi
	mov	rcx, qword ptr [rip + __ZTINSt3__112basic_stringIwNS_11char_traitsIwEENS_9allocatorIwEEEE@GOTPCREL]
	mov	qword ptr [rbp - 40], rdi 
	mov	rdi, rcx
	mov	qword ptr [rbp - 48], rax 
	call	__ZNKSt9type_info4nameEv
	lea	rcx, [rbp - 16]
	mov	rdi, rcx
	mov	rsi, rax
	mov	qword ptr [rbp - 56], rcx 
	call	__ZN6loguru8demangleEPKc
Ltmp179:
	mov	rdi, qword ptr [rbp - 56] 
	call	__ZNK6loguru4Text5c_strEv
Ltmp180:
	mov	qword ptr [rbp - 64], rax 
	jmp	LBB118_1
LBB118_1:
Ltmp181:
	mov	rdi, qword ptr [rbp - 40] 
	mov	rsi, qword ptr [rbp - 64] 
	call	__ZNSt3__112basic_stringIcNS_11char_traitsIcEENS_9allocatorIcEEEC1IDnEEPKc
Ltmp182:
	jmp	LBB118_2
LBB118_2:
	lea	rdi, [rbp - 16]
	call	__ZN6loguru4TextD1Ev
	mov	rax, qword ptr [rbp - 48] 
	add	rsp, 64
	pop	rbp
	ret
LBB118_3:
Ltmp183:
                                        
	mov	qword ptr [rbp - 24], rax
	mov	dword ptr [rbp - 28], edx
	lea	rdi, [rbp - 16]
	call	__ZN6loguru4TextD1Ev

	mov	rdi, qword ptr [rbp - 24]
	call	__Unwind_Resume
	ud2
Lfunc_end13:
	.cfi_endproc
	.section	__TEXT,__gcc_except_tab
	.p2align	2
GCC_except_table118:
Lexception13:
	.byte	255                     
	.byte	255                     
	.byte	1                       
	.uleb128 Lcst_end13-Lcst_begin13
Lcst_begin13:
	.uleb128 Lfunc_begin13-Lfunc_begin13 
	.uleb128 Ltmp179-Lfunc_begin13  
	.byte	0                       
	.byte	0                       
	.uleb128 Ltmp179-Lfunc_begin13  
	.uleb128 Ltmp182-Ltmp179        
	.uleb128 Ltmp183-Lfunc_begin13  
	.byte	0                       
	.uleb128 Ltmp182-Lfunc_begin13  
	.uleb128 Lfunc_end13-Ltmp182    
	.byte	0                       
	.byte	0                       
Lcst_end13:
	.p2align	2
                                        
	.section	__TEXT,__text,regular,pure_instructions
	.p2align	4, 0x90         
__ZNSt3__14pairINS_12basic_stringIcNS_11char_traitsIcEENS_9allocatorIcEEEES6_EC1IS6_RA13_KcLb0EEEOT_OT0_: 
	.cfi_startproc

	push	rbp
	.cfi_def_cfa_offset 16
	.cfi_offset rbp, -16
	mov	rbp, rsp
	.cfi_def_cfa_register rbp
	sub	rsp, 32
	mov	qword ptr [rbp - 8], rdi
	mov	qword ptr [rbp - 16], rsi
	mov	qword ptr [rbp - 24], rdx
	mov	rdi, qword ptr [rbp - 8]
	mov	rsi, qword ptr [rbp - 16]
	mov	rdx, qword ptr [rbp - 24]
	call	__ZNSt3__14pairINS_12basic_stringIcNS_11char_traitsIcEENS_9allocatorIcEEEES6_EC2IS6_RA13_KcLb0EEEOT_OT0_
	add	rsp, 32
	pop	rbp
	ret
	.cfi_endproc
                                        
	.globl	__ZN6loguru9type_nameINSt3__112basic_stringIDsNS1_11char_traitsIDsEENS1_9allocatorIDsEEEEEENS2_IcNS3_IcEENS5_IcEEEEv 
	.weak_definition	__ZN6loguru9type_nameINSt3__112basic_stringIDsNS1_11char_traitsIDsEENS1_9allocatorIDsEEEEEENS2_IcNS3_IcEENS5_IcEEEEv
	.p2align	4, 0x90
__ZN6loguru9type_nameINSt3__112basic_stringIDsNS1_11char_traitsIDsEENS1_9allocatorIDsEEEEEENS2_IcNS3_IcEENS5_IcEEEEv: 
Lfunc_begin14:
	.cfi_startproc
	.cfi_personality 155, ___gxx_personality_v0
	.cfi_lsda 16, Lexception14

	push	rbp
	.cfi_def_cfa_offset 16
	.cfi_offset rbp, -16
	mov	rbp, rsp
	.cfi_def_cfa_register rbp
	sub	rsp, 64
	mov	rax, rdi
	mov	qword ptr [rbp - 8], rdi
	mov	rcx, qword ptr [rip + __ZTINSt3__112basic_stringIDsNS_11char_traitsIDsEENS_9allocatorIDsEEEE@GOTPCREL]
	mov	qword ptr [rbp - 40], rdi 
	mov	rdi, rcx
	mov	qword ptr [rbp - 48], rax 
	call	__ZNKSt9type_info4nameEv
	lea	rcx, [rbp - 16]
	mov	rdi, rcx
	mov	rsi, rax
	mov	qword ptr [rbp - 56], rcx 
	call	__ZN6loguru8demangleEPKc
Ltmp184:
	mov	rdi, qword ptr [rbp - 56] 
	call	__ZNK6loguru4Text5c_strEv
Ltmp185:
	mov	qword ptr [rbp - 64], rax 
	jmp	LBB120_1
LBB120_1:
Ltmp186:
	mov	rdi, qword ptr [rbp - 40] 
	mov	rsi, qword ptr [rbp - 64] 
	call	__ZNSt3__112basic_stringIcNS_11char_traitsIcEENS_9allocatorIcEEEC1IDnEEPKc
Ltmp187:
	jmp	LBB120_2
LBB120_2:
	lea	rdi, [rbp - 16]
	call	__ZN6loguru4TextD1Ev
	mov	rax, qword ptr [rbp - 48] 
	add	rsp, 64
	pop	rbp
	ret
LBB120_3:
Ltmp188:
                                        
	mov	qword ptr [rbp - 24], rax
	mov	dword ptr [rbp - 28], edx
	lea	rdi, [rbp - 16]
	call	__ZN6loguru4TextD1Ev

	mov	rdi, qword ptr [rbp - 24]
	call	__Unwind_Resume
	ud2
Lfunc_end14:
	.cfi_endproc
	.section	__TEXT,__gcc_except_tab
	.p2align	2
GCC_except_table120:
Lexception14:
	.byte	255                     
	.byte	255                     
	.byte	1                       
	.uleb128 Lcst_end14-Lcst_begin14
Lcst_begin14:
	.uleb128 Lfunc_begin14-Lfunc_begin14 
	.uleb128 Ltmp184-Lfunc_begin14  
	.byte	0                       
	.byte	0                       
	.uleb128 Ltmp184-Lfunc_begin14  
	.uleb128 Ltmp187-Ltmp184        
	.uleb128 Ltmp188-Lfunc_begin14  
	.byte	0                       
	.uleb128 Ltmp187-Lfunc_begin14  
	.uleb128 Lfunc_end14-Ltmp187    
	.byte	0                       
	.byte	0                       
Lcst_end14:
	.p2align	2
                                        
	.section	__TEXT,__text,regular,pure_instructions
	.p2align	4, 0x90         
__ZNSt3__14pairINS_12basic_stringIcNS_11char_traitsIcEENS_9allocatorIcEEEES6_EC1IS6_RA15_KcLb0EEEOT_OT0_: 
	.cfi_startproc

	push	rbp
	.cfi_def_cfa_offset 16
	.cfi_offset rbp, -16
	mov	rbp, rsp
	.cfi_def_cfa_register rbp
	sub	rsp, 32
	mov	qword ptr [rbp - 8], rdi
	mov	qword ptr [rbp - 16], rsi
	mov	qword ptr [rbp - 24], rdx
	mov	rdi, qword ptr [rbp - 8]
	mov	rsi, qword ptr [rbp - 16]
	mov	rdx, qword ptr [rbp - 24]
	call	__ZNSt3__14pairINS_12basic_stringIcNS_11char_traitsIcEENS_9allocatorIcEEEES6_EC2IS6_RA15_KcLb0EEEOT_OT0_
	add	rsp, 32
	pop	rbp
	ret
	.cfi_endproc
                                        
	.globl	__ZN6loguru9type_nameINSt3__112basic_stringIDiNS1_11char_traitsIDiEENS1_9allocatorIDiEEEEEENS2_IcNS3_IcEENS5_IcEEEEv 
	.weak_definition	__ZN6loguru9type_nameINSt3__112basic_stringIDiNS1_11char_traitsIDiEENS1_9allocatorIDiEEEEEENS2_IcNS3_IcEENS5_IcEEEEv
	.p2align	4, 0x90
__ZN6loguru9type_nameINSt3__112basic_stringIDiNS1_11char_traitsIDiEENS1_9allocatorIDiEEEEEENS2_IcNS3_IcEENS5_IcEEEEv: 
Lfunc_begin15:
	.cfi_startproc
	.cfi_personality 155, ___gxx_personality_v0
	.cfi_lsda 16, Lexception15

	push	rbp
	.cfi_def_cfa_offset 16
	.cfi_offset rbp, -16
	mov	rbp, rsp
	.cfi_def_cfa_register rbp
	sub	rsp, 64
	mov	rax, rdi
	mov	qword ptr [rbp - 8], rdi
	mov	rcx, qword ptr [rip + __ZTINSt3__112basic_stringIDiNS_11char_traitsIDiEENS_9allocatorIDiEEEE@GOTPCREL]
	mov	qword ptr [rbp - 40], rdi 
	mov	rdi, rcx
	mov	qword ptr [rbp - 48], rax 
	call	__ZNKSt9type_info4nameEv
	lea	rcx, [rbp - 16]
	mov	rdi, rcx
	mov	rsi, rax
	mov	qword ptr [rbp - 56], rcx 
	call	__ZN6loguru8demangleEPKc
Ltmp189:
	mov	rdi, qword ptr [rbp - 56] 
	call	__ZNK6loguru4Text5c_strEv
Ltmp190:
	mov	qword ptr [rbp - 64], rax 
	jmp	LBB122_1
LBB122_1:
Ltmp191:
	mov	rdi, qword ptr [rbp - 40] 
	mov	rsi, qword ptr [rbp - 64] 
	call	__ZNSt3__112basic_stringIcNS_11char_traitsIcEENS_9allocatorIcEEEC1IDnEEPKc
Ltmp192:
	jmp	LBB122_2
LBB122_2:
	lea	rdi, [rbp - 16]
	call	__ZN6loguru4TextD1Ev
	mov	rax, qword ptr [rbp - 48] 
	add	rsp, 64
	pop	rbp
	ret
LBB122_3:
Ltmp193:
                                        
	mov	qword ptr [rbp - 24], rax
	mov	dword ptr [rbp - 28], edx
	lea	rdi, [rbp - 16]
	call	__ZN6loguru4TextD1Ev

	mov	rdi, qword ptr [rbp - 24]
	call	__Unwind_Resume
	ud2
Lfunc_end15:
	.cfi_endproc
	.section	__TEXT,__gcc_except_tab
	.p2align	2
GCC_except_table122:
Lexception15:
	.byte	255                     
	.byte	255                     
	.byte	1                       
	.uleb128 Lcst_end15-Lcst_begin15
Lcst_begin15:
	.uleb128 Lfunc_begin15-Lfunc_begin15 
	.uleb128 Ltmp189-Lfunc_begin15  
	.byte	0                       
	.byte	0                       
	.uleb128 Ltmp189-Lfunc_begin15  
	.uleb128 Ltmp192-Ltmp189        
	.uleb128 Ltmp193-Lfunc_begin15  
	.byte	0                       
	.uleb128 Ltmp192-Lfunc_begin15  
	.uleb128 Lfunc_end15-Ltmp192    
	.byte	0                       
	.byte	0                       
Lcst_end15:
	.p2align	2
                                        
	.section	__TEXT,__text,regular,pure_instructions
	.p2align	4, 0x90         
__ZNSt3__14pairINS_12basic_stringIcNS_11char_traitsIcEENS_9allocatorIcEEEES6_EC1IRA11_KcRA6_S9_Lb0EEEOT_OT0_: 
	.cfi_startproc

	push	rbp
	.cfi_def_cfa_offset 16
	.cfi_offset rbp, -16
	mov	rbp, rsp
	.cfi_def_cfa_register rbp
	sub	rsp, 32
	mov	qword ptr [rbp - 8], rdi
	mov	qword ptr [rbp - 16], rsi
	mov	qword ptr [rbp - 24], rdx
	mov	rdi, qword ptr [rbp - 8]
	mov	rsi, qword ptr [rbp - 16]
	mov	rdx, qword ptr [rbp - 24]
	call	__ZNSt3__14pairINS_12basic_stringIcNS_11char_traitsIcEENS_9allocatorIcEEEES6_EC2IRA11_KcRA6_S9_Lb0EEEOT_OT0_
	add	rsp, 32
	pop	rbp
	ret
	.cfi_endproc
                                        
	.p2align	4, 0x90         
__ZNSt3__14pairINS_12basic_stringIcNS_11char_traitsIcEENS_9allocatorIcEEEES6_EC1IRA12_KcRA1_S9_Lb0EEEOT_OT0_: 
	.cfi_startproc

	push	rbp
	.cfi_def_cfa_offset 16
	.cfi_offset rbp, -16
	mov	rbp, rsp
	.cfi_def_cfa_register rbp
	sub	rsp, 32
	mov	qword ptr [rbp - 8], rdi
	mov	qword ptr [rbp - 16], rsi
	mov	qword ptr [rbp - 24], rdx
	mov	rdi, qword ptr [rbp - 8]
	mov	rsi, qword ptr [rbp - 16]
	mov	rdx, qword ptr [rbp - 24]
	call	__ZNSt3__14pairINS_12basic_stringIcNS_11char_traitsIcEENS_9allocatorIcEEEES6_EC2IRA12_KcRA1_S9_Lb0EEEOT_OT0_
	add	rsp, 32
	pop	rbp
	ret
	.cfi_endproc
                                        
	.p2align	4, 0x90         
__ZNSt3__14pairINS_12basic_stringIcNS_11char_traitsIcEENS_9allocatorIcEEEES6_EC1IRA9_KcRA1_S9_Lb0EEEOT_OT0_: 
	.cfi_startproc

	push	rbp
	.cfi_def_cfa_offset 16
	.cfi_offset rbp, -16
	mov	rbp, rsp
	.cfi_def_cfa_register rbp
	sub	rsp, 32
	mov	qword ptr [rbp - 8], rdi
	mov	qword ptr [rbp - 16], rsi
	mov	qword ptr [rbp - 24], rdx
	mov	rdi, qword ptr [rbp - 8]
	mov	rsi, qword ptr [rbp - 16]
	mov	rdx, qword ptr [rbp - 24]
	call	__ZNSt3__14pairINS_12basic_stringIcNS_11char_traitsIcEENS_9allocatorIcEEEES6_EC2IRA9_KcRA1_S9_Lb0EEEOT_OT0_
	add	rsp, 32
	pop	rbp
	ret
	.cfi_endproc
                                        
	.p2align	4, 0x90         
__ZNSt3__16vectorINS_4pairINS_12basic_stringIcNS_11char_traitsIcEENS_9allocatorIcEEEES7_EENS5_IS8_EEEC1ESt16initializer_listIS8_E: 
	.cfi_startproc

	push	rbp
	.cfi_def_cfa_offset 16
	.cfi_offset rbp, -16
	mov	rbp, rsp
	.cfi_def_cfa_register rbp
	sub	rsp, 32
	mov	qword ptr [rbp - 16], rsi
	mov	qword ptr [rbp - 8], rdx
	mov	qword ptr [rbp - 24], rdi
	mov	rdi, qword ptr [rbp - 24]
	mov	rsi, qword ptr [rbp - 16]
	mov	rdx, qword ptr [rbp - 8]
	call	__ZNSt3__16vectorINS_4pairINS_12basic_stringIcNS_11char_traitsIcEENS_9allocatorIcEEEES7_EENS5_IS8_EEEC2ESt16initializer_listIS8_E
	add	rsp, 32
	pop	rbp
	ret
	.cfi_endproc
                                        
	.globl	__ZN6loguru15do_replacementsERKNSt3__16vectorINS0_4pairINS0_12basic_stringIcNS0_11char_traitsIcEENS0_9allocatorIcEEEES8_EENS6_IS9_EEEERS8_ 
	.p2align	4, 0x90
__ZN6loguru15do_replacementsERKNSt3__16vectorINS0_4pairINS0_12basic_stringIcNS0_11char_traitsIcEENS0_9allocatorIcEEEES8_EENS6_IS9_EEEERS8_: 
	.cfi_startproc

	push	rbp
	.cfi_def_cfa_offset 16
	.cfi_offset rbp, -16
	mov	rbp, rsp
	.cfi_def_cfa_register rbp
	sub	rsp, 80
	mov	qword ptr [rbp - 8], rdi
	mov	qword ptr [rbp - 16], rsi
	mov	rax, qword ptr [rbp - 8]
	mov	qword ptr [rbp - 24], rax
	mov	rdi, qword ptr [rbp - 24]
	call	__ZNKSt3__16vectorINS_4pairINS_12basic_stringIcNS_11char_traitsIcEENS_9allocatorIcEEEES7_EENS5_IS8_EEE5beginEv
	mov	qword ptr [rbp - 32], rax
	mov	rdi, qword ptr [rbp - 24]
	call	__ZNKSt3__16vectorINS_4pairINS_12basic_stringIcNS_11char_traitsIcEENS_9allocatorIcEEEES7_EENS5_IS8_EEE3endEv
	mov	qword ptr [rbp - 40], rax
LBB127_1:                               
                                        
	lea	rdi, [rbp - 32]
	lea	rsi, [rbp - 40]
	call	__ZNSt3__1neIPKNS_4pairINS_12basic_stringIcNS_11char_traitsIcEENS_9allocatorIcEEEES7_EEEEbRKNS_11__wrap_iterIT_EESF_
	test	al, 1
	jne	LBB127_2
	jmp	LBB127_9
LBB127_2:                               
	lea	rdi, [rbp - 32]
	call	__ZNKSt3__111__wrap_iterIPKNS_4pairINS_12basic_stringIcNS_11char_traitsIcEENS_9allocatorIcEEEES7_EEEdeEv
	mov	qword ptr [rbp - 48], rax
	mov	rdi, qword ptr [rbp - 48]
	call	__ZNKSt3__112basic_stringIcNS_11char_traitsIcEENS_9allocatorIcEEE4sizeEv
	mov	rcx, qword ptr [rbp - 48]
	add	rcx, 24
	mov	rdi, rcx
	mov	qword ptr [rbp - 64], rax 
	call	__ZNKSt3__112basic_stringIcNS_11char_traitsIcEENS_9allocatorIcEEE4sizeEv
	mov	rcx, qword ptr [rbp - 64] 
	cmp	rcx, rax
	ja	LBB127_4

	jmp	LBB127_8
LBB127_4:                               
	jmp	LBB127_5
LBB127_5:                               
                                        
	xor	eax, eax
	mov	edx, eax
	mov	rdi, qword ptr [rbp - 16]
	mov	rsi, qword ptr [rbp - 48]
	call	__ZNKSt3__112basic_stringIcNS_11char_traitsIcEENS_9allocatorIcEEE4findERKS5_m
	mov	qword ptr [rbp - 56], rax
	cmp	rax, -1
	je	LBB127_7

	mov	rdi, qword ptr [rbp - 16]
	mov	rsi, qword ptr [rbp - 56]
	mov	rax, qword ptr [rbp - 48]
	mov	qword ptr [rbp - 72], rdi 
	mov	rdi, rax
	mov	qword ptr [rbp - 80], rsi 
	call	__ZNKSt3__112basic_stringIcNS_11char_traitsIcEENS_9allocatorIcEEE4sizeEv
	mov	rcx, qword ptr [rbp - 48]
	add	rcx, 24
	mov	rdi, qword ptr [rbp - 72] 
	mov	rsi, qword ptr [rbp - 80] 
	mov	rdx, rax
	call	__ZNSt3__112basic_stringIcNS_11char_traitsIcEENS_9allocatorIcEEE7replaceEmmRKS5_
	jmp	LBB127_5
LBB127_7:                               
	jmp	LBB127_8
LBB127_8:                               
	lea	rdi, [rbp - 32]
	call	__ZNSt3__111__wrap_iterIPKNS_4pairINS_12basic_stringIcNS_11char_traitsIcEENS_9allocatorIcEEEES7_EEEppEv
	jmp	LBB127_1
LBB127_9:
	add	rsp, 80
	pop	rbp
	ret
	.cfi_endproc
                                        
	.p2align	4, 0x90         
__ZNKSt3__16vectorINS_4pairINS_12basic_stringIcNS_11char_traitsIcEENS_9allocatorIcEEEES7_EENS5_IS8_EEE5beginEv: 

	push	rbp
	mov	rbp, rsp
	sub	rsp, 16
	mov	qword ptr [rbp - 16], rdi
	mov	rax, qword ptr [rbp - 16]
	mov	rsi, qword ptr [rax]
	mov	rdi, rax
	call	__ZNKSt3__16vectorINS_4pairINS_12basic_stringIcNS_11char_traitsIcEENS_9allocatorIcEEEES7_EENS5_IS8_EEE11__make_iterEPKS8_
	mov	qword ptr [rbp - 8], rax
	mov	rax, qword ptr [rbp - 8]
	add	rsp, 16
	pop	rbp
	ret
                                        
	.p2align	4, 0x90         
__ZNKSt3__16vectorINS_4pairINS_12basic_stringIcNS_11char_traitsIcEENS_9allocatorIcEEEES7_EENS5_IS8_EEE3endEv: 

	push	rbp
	mov	rbp, rsp
	sub	rsp, 16
	mov	qword ptr [rbp - 16], rdi
	mov	rax, qword ptr [rbp - 16]
	mov	rsi, qword ptr [rax + 8]
	mov	rdi, rax
	call	__ZNKSt3__16vectorINS_4pairINS_12basic_stringIcNS_11char_traitsIcEENS_9allocatorIcEEEES7_EENS5_IS8_EEE11__make_iterEPKS8_
	mov	qword ptr [rbp - 8], rax
	mov	rax, qword ptr [rbp - 8]
	add	rsp, 16
	pop	rbp
	ret
                                        
	.p2align	4, 0x90         
__ZNSt3__1neIPKNS_4pairINS_12basic_stringIcNS_11char_traitsIcEENS_9allocatorIcEEEES7_EEEEbRKNS_11__wrap_iterIT_EESF_: 

	push	rbp
	mov	rbp, rsp
	sub	rsp, 16
	mov	qword ptr [rbp - 8], rdi
	mov	qword ptr [rbp - 16], rsi
	mov	rdi, qword ptr [rbp - 8]
	mov	rsi, qword ptr [rbp - 16]
	call	__ZNSt3__1eqIPKNS_4pairINS_12basic_stringIcNS_11char_traitsIcEENS_9allocatorIcEEEES7_EESA_EEbRKNS_11__wrap_iterIT_EERKNSB_IT0_EE
	xor	al, -1
	and	al, 1
	movzx	eax, al
	add	rsp, 16
	pop	rbp
	ret
                                        
	.p2align	4, 0x90         
__ZNKSt3__111__wrap_iterIPKNS_4pairINS_12basic_stringIcNS_11char_traitsIcEENS_9allocatorIcEEEES7_EEEdeEv: 

	push	rbp
	mov	rbp, rsp
	mov	qword ptr [rbp - 8], rdi
	mov	rax, qword ptr [rbp - 8]
	mov	rax, qword ptr [rax]
	pop	rbp
	ret
                                        
	.p2align	4, 0x90         
__ZNKSt3__112basic_stringIcNS_11char_traitsIcEENS_9allocatorIcEEE4sizeEv: 

	push	rbp
	mov	rbp, rsp
	sub	rsp, 32
	mov	qword ptr [rbp - 8], rdi
	mov	rax, qword ptr [rbp - 8]
	mov	rdi, rax
	mov	qword ptr [rbp - 16], rax 
	call	__ZNKSt3__112basic_stringIcNS_11char_traitsIcEENS_9allocatorIcEEE9__is_longEv
	test	al, 1
	jne	LBB132_1
	jmp	LBB132_2
LBB132_1:
	mov	rdi, qword ptr [rbp - 16] 
	call	__ZNKSt3__112basic_stringIcNS_11char_traitsIcEENS_9allocatorIcEEE15__get_long_sizeEv
	mov	qword ptr [rbp - 24], rax 
	jmp	LBB132_3
LBB132_2:
	mov	rdi, qword ptr [rbp - 16] 
	call	__ZNKSt3__112basic_stringIcNS_11char_traitsIcEENS_9allocatorIcEEE16__get_short_sizeEv
	mov	qword ptr [rbp - 24], rax 
LBB132_3:
	mov	rax, qword ptr [rbp - 24] 
	add	rsp, 32
	pop	rbp
	ret
                                        
	.p2align	4, 0x90         
__ZNKSt3__112basic_stringIcNS_11char_traitsIcEENS_9allocatorIcEEE4findERKS5_m: 

	push	rbp
	mov	rbp, rsp
	sub	rsp, 64
	mov	qword ptr [rbp - 8], rdi
	mov	qword ptr [rbp - 16], rsi
	mov	qword ptr [rbp - 24], rdx
	mov	rax, qword ptr [rbp - 8]
	mov	rdi, rax
	mov	qword ptr [rbp - 32], rax 
	call	__ZNKSt3__112basic_stringIcNS_11char_traitsIcEENS_9allocatorIcEEE4dataEv
	mov	rdi, qword ptr [rbp - 32] 
	mov	qword ptr [rbp - 40], rax 
	call	__ZNKSt3__112basic_stringIcNS_11char_traitsIcEENS_9allocatorIcEEE4sizeEv
	mov	rdi, qword ptr [rbp - 16]
	mov	qword ptr [rbp - 48], rax 
	call	__ZNKSt3__112basic_stringIcNS_11char_traitsIcEENS_9allocatorIcEEE4dataEv
	mov	rcx, qword ptr [rbp - 24]
	mov	rdi, qword ptr [rbp - 16]
	mov	qword ptr [rbp - 56], rax 
	mov	qword ptr [rbp - 64], rcx 
	call	__ZNKSt3__112basic_stringIcNS_11char_traitsIcEENS_9allocatorIcEEE4sizeEv
	mov	rdi, qword ptr [rbp - 40] 
	mov	rsi, qword ptr [rbp - 48] 
	mov	rdx, qword ptr [rbp - 56] 
	mov	rcx, qword ptr [rbp - 64] 
	mov	r8, rax
	call	__ZNSt3__1L10__str_findIcmNS_11char_traitsIcEELm18446744073709551615EEET0_PKT_S3_S6_S3_S3_
	add	rsp, 64
	pop	rbp
	ret
                                        
	.p2align	4, 0x90         
__ZNSt3__112basic_stringIcNS_11char_traitsIcEENS_9allocatorIcEEE7replaceEmmRKS5_: 
	.cfi_startproc

	push	rbp
	.cfi_def_cfa_offset 16
	.cfi_offset rbp, -16
	mov	rbp, rsp
	.cfi_def_cfa_register rbp
	sub	rsp, 64
	mov	qword ptr [rbp - 8], rdi
	mov	qword ptr [rbp - 16], rsi
	mov	qword ptr [rbp - 24], rdx
	mov	qword ptr [rbp - 32], rcx
	mov	rdi, qword ptr [rbp - 8]
	mov	rsi, qword ptr [rbp - 16]
	mov	rdx, qword ptr [rbp - 24]
	mov	rax, qword ptr [rbp - 32]
	mov	qword ptr [rbp - 40], rdi 
	mov	rdi, rax
	mov	qword ptr [rbp - 48], rsi 
	mov	qword ptr [rbp - 56], rdx 
	call	__ZNKSt3__112basic_stringIcNS_11char_traitsIcEENS_9allocatorIcEEE4dataEv
	mov	rdi, qword ptr [rbp - 32]
	mov	qword ptr [rbp - 64], rax 
	call	__ZNKSt3__112basic_stringIcNS_11char_traitsIcEENS_9allocatorIcEEE4sizeEv
	mov	rdi, qword ptr [rbp - 40] 
	mov	rsi, qword ptr [rbp - 48] 
	mov	rdx, qword ptr [rbp - 56] 
	mov	rcx, qword ptr [rbp - 64] 
	mov	r8, rax
	call	__ZNSt3__112basic_stringIcNS_11char_traitsIcEENS_9allocatorIcEEE7replaceEmmPKcm
	add	rsp, 64
	pop	rbp
	ret
	.cfi_endproc
                                        
	.p2align	4, 0x90         
__ZNSt3__111__wrap_iterIPKNS_4pairINS_12basic_stringIcNS_11char_traitsIcEENS_9allocatorIcEEEES7_EEEppEv: 

	push	rbp
	mov	rbp, rsp
	mov	qword ptr [rbp - 8], rdi
	mov	rax, qword ptr [rbp - 8]
	mov	rcx, qword ptr [rax]
	add	rcx, 48
	mov	qword ptr [rax], rcx
	pop	rbp
	ret
                                        
	.globl	__ZN6loguru19prettify_stacktraceERKNSt3__112basic_stringIcNS0_11char_traitsIcEENS0_9allocatorIcEEEE 
	.p2align	4, 0x90
__ZN6loguru19prettify_stacktraceERKNSt3__112basic_stringIcNS0_11char_traitsIcEENS0_9allocatorIcEEEE: 
Lfunc_begin16:
	.cfi_startproc
	.cfi_personality 155, ___gxx_personality_v0
	.cfi_lsda 16, Lexception16

	push	rbp
	.cfi_def_cfa_offset 16
	.cfi_offset rbp, -16
	mov	rbp, rsp
	.cfi_def_cfa_register rbp
	sub	rsp, 320
	mov	rax, rdi
	mov	qword ptr [rbp - 8], rdi
	mov	qword ptr [rbp - 16], rsi
	mov	byte ptr [rbp - 17], 0
	mov	rsi, qword ptr [rbp - 16]
	mov	qword ptr [rbp - 280], rdi 
	mov	qword ptr [rbp - 288], rax 
	call	__ZNSt3__112basic_stringIcNS_11char_traitsIcEENS_9allocatorIcEEEC1ERKS5_
Ltmp194:
	lea	rdi, [rip + __ZN6loguruL21s_user_stack_cleanupsE]
	mov	rsi, qword ptr [rbp - 280] 
	call	__ZN6loguru15do_replacementsERKNSt3__16vectorINS0_4pairINS0_12basic_stringIcNS0_11char_traitsIcEENS0_9allocatorIcEEEES8_EENS6_IS9_EEEERS8_
Ltmp195:
	jmp	LBB136_1
LBB136_1:
Ltmp196:
	lea	rdi, [rip + __ZN6loguruL12REPLACE_LISTE]
	mov	rsi, qword ptr [rbp - 280] 
	call	__ZN6loguru15do_replacementsERKNSt3__16vectorINS0_4pairINS0_12basic_stringIcNS0_11char_traitsIcEENS0_9allocatorIcEEEES8_EENS6_IS9_EEEERS8_
Ltmp197:
	jmp	LBB136_2
LBB136_2:
Ltmp198:
	lea	rsi, [rip + L_.str.96]
	lea	rdi, [rbp - 104]
	xor	edx, edx
	call	__ZNSt3__111basic_regexIcNS_12regex_traitsIcEEEC1EPKcNS_15regex_constants18syntax_option_typeE
Ltmp199:
	jmp	LBB136_3
LBB136_3:
Ltmp201:
	lea	rsi, [rip + L_.str.8]
	lea	rdi, [rbp - 152]
	call	__ZNSt3__112basic_stringIcNS_11char_traitsIcEENS_9allocatorIcEEEC1IDnEEPKc
Ltmp202:
	jmp	LBB136_4
LBB136_4:
Ltmp203:
	lea	rdi, [rbp - 128]
	lea	rdx, [rbp - 104]
	lea	rcx, [rbp - 152]
	xor	r8d, r8d
	mov	rsi, qword ptr [rbp - 280] 
	call	__ZNSt3__1L13regex_replaceINS_12regex_traitsIcEEcNS_11char_traitsIcEENS_9allocatorIcEES4_S6_EENS_12basic_stringIT0_T1_T2_EERKSB_RKNS_11basic_regexIS8_T_EERKNS7_IS8_T3_T4_EENS_15regex_constants15match_flag_typeE
Ltmp204:
	jmp	LBB136_5
LBB136_5:
	lea	rax, [rbp - 128]
	mov	rdi, qword ptr [rbp - 280] 
	mov	rsi, rax
	mov	qword ptr [rbp - 296], rax 
	call	__ZNSt3__112basic_stringIcNS_11char_traitsIcEENS_9allocatorIcEEEaSEOS5_
	mov	rdi, qword ptr [rbp - 296] 
	mov	qword ptr [rbp - 304], rax 
	call	__ZNSt3__112basic_stringIcNS_11char_traitsIcEENS_9allocatorIcEEED1Ev
	lea	rdi, [rbp - 152]
	call	__ZNSt3__112basic_stringIcNS_11char_traitsIcEENS_9allocatorIcEEED1Ev
Ltmp206:
	lea	rsi, [rip + L_.str.97]
	lea	rdi, [rbp - 216]
	xor	edx, edx
	call	__ZNSt3__111basic_regexIcNS_12regex_traitsIcEEEC1EPKcNS_15regex_constants18syntax_option_typeE
Ltmp207:
	jmp	LBB136_6
LBB136_6:
Ltmp209:
	lea	rsi, [rip + L_.str.98]
	lea	rdi, [rbp - 264]
	call	__ZNSt3__112basic_stringIcNS_11char_traitsIcEENS_9allocatorIcEEEC1IDnEEPKc
Ltmp210:
	jmp	LBB136_7
LBB136_7:
Ltmp212:
	lea	rdi, [rbp - 240]
	lea	rdx, [rbp - 216]
	lea	rcx, [rbp - 264]
	xor	r8d, r8d
	mov	rsi, qword ptr [rbp - 280] 
	call	__ZNSt3__1L13regex_replaceINS_12regex_traitsIcEEcNS_11char_traitsIcEENS_9allocatorIcEES4_S6_EENS_12basic_stringIT0_T1_T2_EERKSB_RKNS_11basic_regexIS8_T_EERKNS7_IS8_T3_T4_EENS_15regex_constants15match_flag_typeE
Ltmp213:
	jmp	LBB136_8
LBB136_8:
	mov	rdi, qword ptr [rbp - 280] 
	lea	rsi, [rbp - 240]
	call	__ZNSt3__112basic_stringIcNS_11char_traitsIcEENS_9allocatorIcEEEaSEOS5_
	lea	rdi, [rbp - 240]
	mov	qword ptr [rbp - 312], rax 
	call	__ZNSt3__112basic_stringIcNS_11char_traitsIcEENS_9allocatorIcEEED1Ev
	lea	rdi, [rbp - 264]
	call	__ZNSt3__112basic_stringIcNS_11char_traitsIcEENS_9allocatorIcEEED1Ev
	lea	rdi, [rbp - 216]
	call	__ZNSt3__111basic_regexIcNS_12regex_traitsIcEEED1Ev
	lea	rdi, [rbp - 104]
	call	__ZNSt3__111basic_regexIcNS_12regex_traitsIcEEED1Ev
	jmp	LBB136_20
LBB136_9:
Ltmp217:
                                        
	mov	qword ptr [rbp - 32], rax
	mov	dword ptr [rbp - 36], edx
	jmp	LBB136_23
LBB136_10:
Ltmp200:
                                        
	mov	qword ptr [rbp - 32], rax
	mov	dword ptr [rbp - 36], edx
	jmp	LBB136_17
LBB136_11:
Ltmp208:
                                        
	mov	qword ptr [rbp - 32], rax
	mov	dword ptr [rbp - 36], edx
	jmp	LBB136_16
LBB136_12:
Ltmp205:
                                        
	mov	qword ptr [rbp - 32], rax
	mov	dword ptr [rbp - 36], edx
	lea	rdi, [rbp - 152]
	call	__ZNSt3__112basic_stringIcNS_11char_traitsIcEENS_9allocatorIcEEED1Ev
	jmp	LBB136_16
LBB136_13:
Ltmp211:
                                        
	mov	qword ptr [rbp - 32], rax
	mov	dword ptr [rbp - 36], edx
	jmp	LBB136_15
LBB136_14:
Ltmp214:
                                        
	mov	qword ptr [rbp - 32], rax
	mov	dword ptr [rbp - 36], edx
	lea	rdi, [rbp - 264]
	call	__ZNSt3__112basic_stringIcNS_11char_traitsIcEENS_9allocatorIcEEED1Ev
LBB136_15:
	lea	rdi, [rbp - 216]
	call	__ZNSt3__111basic_regexIcNS_12regex_traitsIcEEED1Ev
LBB136_16:
	lea	rdi, [rbp - 104]
	call	__ZNSt3__111basic_regexIcNS_12regex_traitsIcEEED1Ev
LBB136_17:
	mov	eax, dword ptr [rbp - 36]
	mov	ecx, 1
	cmp	eax, ecx
	jne	LBB136_23

	mov	rdi, qword ptr [rbp - 32]
	call	___cxa_begin_catch
	mov	qword ptr [rbp - 272], rax
Ltmp215:
	call	___cxa_end_catch
Ltmp216:
	jmp	LBB136_19
LBB136_19:
	jmp	LBB136_20
LBB136_20:
	mov	byte ptr [rbp - 17], 1
	test	byte ptr [rbp - 17], 1
	jne	LBB136_22

	mov	rdi, qword ptr [rbp - 280] 
	call	__ZNSt3__112basic_stringIcNS_11char_traitsIcEENS_9allocatorIcEEED1Ev
LBB136_22:
	mov	rax, qword ptr [rbp - 288] 
	add	rsp, 320
	pop	rbp
	ret
LBB136_23:
	mov	rdi, qword ptr [rbp - 280] 
	call	__ZNSt3__112basic_stringIcNS_11char_traitsIcEENS_9allocatorIcEEED1Ev

	mov	rdi, qword ptr [rbp - 32]
	call	__Unwind_Resume
	ud2
Lfunc_end16:
	.cfi_endproc
	.section	__TEXT,__gcc_except_tab
	.p2align	2
GCC_except_table136:
Lexception16:
	.byte	255                     
	.byte	155                     
	.uleb128 Lttbase2-Lttbaseref2
Lttbaseref2:
	.byte	1                       
	.uleb128 Lcst_end16-Lcst_begin16
Lcst_begin16:
	.uleb128 Lfunc_begin16-Lfunc_begin16 
	.uleb128 Ltmp194-Lfunc_begin16  
	.byte	0                       
	.byte	0                       
	.uleb128 Ltmp194-Lfunc_begin16  
	.uleb128 Ltmp197-Ltmp194        
	.uleb128 Ltmp217-Lfunc_begin16  
	.byte	0                       
	.uleb128 Ltmp198-Lfunc_begin16  
	.uleb128 Ltmp199-Ltmp198        
	.uleb128 Ltmp200-Lfunc_begin16  
	.byte	3                       
	.uleb128 Ltmp201-Lfunc_begin16  
	.uleb128 Ltmp202-Ltmp201        
	.uleb128 Ltmp208-Lfunc_begin16  
	.byte	3                       
	.uleb128 Ltmp203-Lfunc_begin16  
	.uleb128 Ltmp204-Ltmp203        
	.uleb128 Ltmp205-Lfunc_begin16  
	.byte	3                       
	.uleb128 Ltmp206-Lfunc_begin16  
	.uleb128 Ltmp207-Ltmp206        
	.uleb128 Ltmp208-Lfunc_begin16  
	.byte	3                       
	.uleb128 Ltmp209-Lfunc_begin16  
	.uleb128 Ltmp210-Ltmp209        
	.uleb128 Ltmp211-Lfunc_begin16  
	.byte	3                       
	.uleb128 Ltmp212-Lfunc_begin16  
	.uleb128 Ltmp213-Ltmp212        
	.uleb128 Ltmp214-Lfunc_begin16  
	.byte	3                       
	.uleb128 Ltmp213-Lfunc_begin16  
	.uleb128 Ltmp215-Ltmp213        
	.byte	0                       
	.byte	0                       
	.uleb128 Ltmp215-Lfunc_begin16  
	.uleb128 Ltmp216-Ltmp215        
	.uleb128 Ltmp217-Lfunc_begin16  
	.byte	0                       
	.uleb128 Ltmp216-Lfunc_begin16  
	.uleb128 Lfunc_end16-Ltmp216    
	.byte	0                       
	.byte	0                       
Lcst_end16:
	.byte	0                       
                                        
	.byte	0                       
	.byte	1                       
                                        
	.byte	125                     
	.p2align	2
                                        
	.long	__ZTINSt3__111regex_errorE@GOTPCREL+4 
Lttbase2:
	.p2align	2
                                        
	.section	__TEXT,__text,regular,pure_instructions
	.p2align	4, 0x90         
__ZNSt3__111basic_regexIcNS_12regex_traitsIcEEEC1EPKcNS_15regex_constants18syntax_option_typeE: 
	.cfi_startproc

	push	rbp
	.cfi_def_cfa_offset 16
	.cfi_offset rbp, -16
	mov	rbp, rsp
	.cfi_def_cfa_register rbp
	sub	rsp, 32
	mov	qword ptr [rbp - 8], rdi
	mov	qword ptr [rbp - 16], rsi
	mov	dword ptr [rbp - 20], edx
	mov	rdi, qword ptr [rbp - 8]
	mov	rsi, qword ptr [rbp - 16]
	mov	edx, dword ptr [rbp - 20]
	call	__ZNSt3__111basic_regexIcNS_12regex_traitsIcEEEC2EPKcNS_15regex_constants18syntax_option_typeE
	add	rsp, 32
	pop	rbp
	ret
	.cfi_endproc
                                        
	.p2align	4, 0x90         
__ZNSt3__1L13regex_replaceINS_12regex_traitsIcEEcNS_11char_traitsIcEENS_9allocatorIcEES4_S6_EENS_12basic_stringIT0_T1_T2_EERKSB_RKNS_11basic_regexIS8_T_EERKNS7_IS8_T3_T4_EENS_15regex_constants15match_flag_typeE: 
Lfunc_begin17:
	.cfi_startproc
	.cfi_personality 155, ___gxx_personality_v0
	.cfi_lsda 16, Lexception17

	push	rbp
	.cfi_def_cfa_offset 16
	.cfi_offset rbp, -16
	mov	rbp, rsp
	.cfi_def_cfa_register rbp
	sub	rsp, 128
	mov	rax, rdi
	mov	qword ptr [rbp - 8], rdi
	mov	qword ptr [rbp - 16], rsi
	mov	qword ptr [rbp - 24], rdx
	mov	qword ptr [rbp - 32], rcx
	mov	dword ptr [rbp - 36], r8d
	mov	byte ptr [rbp - 37], 0
	mov	qword ptr [rbp - 96], rdi 
	mov	qword ptr [rbp - 104], rax 
	call	__ZNSt3__112basic_stringIcNS_11char_traitsIcEENS_9allocatorIcEEEC1Ev
Ltmp218:
	mov	rdi, qword ptr [rbp - 96] 
	call	__ZNSt3__1L13back_inserterINS_12basic_stringIcNS_11char_traitsIcEENS_9allocatorIcEEEEEENS_20back_insert_iteratorIT_EERS8_
Ltmp219:
	mov	qword ptr [rbp - 112], rax 
	jmp	LBB138_1
LBB138_1:
	mov	rax, qword ptr [rbp - 112] 
	mov	qword ptr [rbp - 48], rax
	mov	rdi, qword ptr [rbp - 16]
	call	__ZNKSt3__112basic_stringIcNS_11char_traitsIcEENS_9allocatorIcEEE5beginEv
	mov	qword ptr [rbp - 72], rax
	mov	rdi, qword ptr [rbp - 16]
	call	__ZNKSt3__112basic_stringIcNS_11char_traitsIcEENS_9allocatorIcEEE3endEv
	mov	qword ptr [rbp - 80], rax
	mov	rcx, qword ptr [rbp - 24]
	mov	rdi, qword ptr [rbp - 32]
	mov	qword ptr [rbp - 120], rcx 
	call	__ZNKSt3__112basic_stringIcNS_11char_traitsIcEENS_9allocatorIcEEE5c_strEv
	mov	r9d, dword ptr [rbp - 36]
	mov	rdi, qword ptr [rbp - 48]
	mov	rsi, qword ptr [rbp - 72]
	mov	rdx, qword ptr [rbp - 80]
Ltmp220:
	mov	rcx, qword ptr [rbp - 120] 
	mov	r8, rax
	call	__ZNSt3__113regex_replaceINS_20back_insert_iteratorINS_12basic_stringIcNS_11char_traitsIcEENS_9allocatorIcEEEEEENS_11__wrap_iterIPKcEENS_12regex_traitsIcEEcEET_SF_T0_SG_RKNS_11basic_regexIT2_T1_EEPKSI_NS_15regex_constants15match_flag_typeE
Ltmp221:
	mov	qword ptr [rbp - 128], rax 
	jmp	LBB138_2
LBB138_2:
	mov	rax, qword ptr [rbp - 128] 
	mov	qword ptr [rbp - 88], rax
	mov	byte ptr [rbp - 37], 1
	test	byte ptr [rbp - 37], 1
	jne	LBB138_5
	jmp	LBB138_4
LBB138_3:
Ltmp222:
                                        
	mov	qword ptr [rbp - 56], rax
	mov	dword ptr [rbp - 60], edx
	mov	rdi, qword ptr [rbp - 96] 
	call	__ZNSt3__112basic_stringIcNS_11char_traitsIcEENS_9allocatorIcEEED1Ev
	jmp	LBB138_6
LBB138_4:
	mov	rdi, qword ptr [rbp - 96] 
	call	__ZNSt3__112basic_stringIcNS_11char_traitsIcEENS_9allocatorIcEEED1Ev
LBB138_5:
	mov	rax, qword ptr [rbp - 104] 
	add	rsp, 128
	pop	rbp
	ret
LBB138_6:
	mov	rdi, qword ptr [rbp - 56]
	call	__Unwind_Resume
	ud2
Lfunc_end17:
	.cfi_endproc
	.section	__TEXT,__gcc_except_tab
	.p2align	2
GCC_except_table138:
Lexception17:
	.byte	255                     
	.byte	255                     
	.byte	1                       
	.uleb128 Lcst_end17-Lcst_begin17
Lcst_begin17:
	.uleb128 Ltmp218-Lfunc_begin17  
	.uleb128 Ltmp221-Ltmp218        
	.uleb128 Ltmp222-Lfunc_begin17  
	.byte	0                       
	.uleb128 Ltmp221-Lfunc_begin17  
	.uleb128 Lfunc_end17-Ltmp221    
	.byte	0                       
	.byte	0                       
Lcst_end17:
	.p2align	2
                                        
	.section	__TEXT,__text,regular,pure_instructions
	.p2align	4, 0x90         
__ZNSt3__112basic_stringIcNS_11char_traitsIcEENS_9allocatorIcEEEaSEOS5_: 

	push	rbp
	mov	rbp, rsp
	sub	rsp, 32
	mov	qword ptr [rbp - 8], rdi
	mov	qword ptr [rbp - 16], rsi
	mov	rax, qword ptr [rbp - 8]
	mov	rsi, qword ptr [rbp - 16]
	mov	rdi, rax
	mov	qword ptr [rbp - 32], rax 
	call	__ZNSt3__112basic_stringIcNS_11char_traitsIcEENS_9allocatorIcEEE13__move_assignERS5_NS_17integral_constantIbLb1EEE
	mov	rax, qword ptr [rbp - 32] 
	add	rsp, 32
	pop	rbp
	ret
                                        
	.globl	__ZNSt3__111basic_regexIcNS_12regex_traitsIcEEED1Ev 
	.weak_def_can_be_hidden	__ZNSt3__111basic_regexIcNS_12regex_traitsIcEEED1Ev
	.p2align	4, 0x90
__ZNSt3__111basic_regexIcNS_12regex_traitsIcEEED1Ev: 

	push	rbp
	mov	rbp, rsp
	sub	rsp, 16
	mov	qword ptr [rbp - 8], rdi
	mov	rdi, qword ptr [rbp - 8]
	call	__ZNSt3__111basic_regexIcNS_12regex_traitsIcEEED2Ev
	add	rsp, 16
	pop	rbp
	ret
                                        
	.globl	__ZN6loguru23stacktrace_as_stdstringEi 
	.p2align	4, 0x90
__ZN6loguru23stacktrace_as_stdstringEi: 
Lfunc_begin18:
	.cfi_startproc
	.cfi_personality 155, ___gxx_personality_v0
	.cfi_lsda 16, Lexception18

	push	rbp
	.cfi_def_cfa_offset 16
	.cfi_offset rbp, -16
	mov	rbp, rsp
	.cfi_def_cfa_register rbp
	sub	rsp, 2352
	mov	rax, rdi
	lea	rcx, [rbp - 1040]
	mov	rdx, qword ptr [rip + ___stack_chk_guard@GOTPCREL]
	mov	rdx, qword ptr [rdx]
	mov	qword ptr [rbp - 8], rdx
	mov	rdx, rdi
	mov	qword ptr [rbp - 2072], rdx
	mov	dword ptr [rbp - 2076], esi
	mov	qword ptr [rbp - 2088], 128
	mov	qword ptr [rbp - 2232], rdi 
	mov	rdi, rcx
	mov	esi, 128
	mov	qword ptr [rbp - 2240], rax 
	call	_backtrace
	lea	rdi, [rbp - 1040]
	mov	dword ptr [rbp - 2092], eax
	mov	esi, dword ptr [rbp - 2092]
	call	_backtrace_symbols
	mov	qword ptr [rbp - 2104], rax
	lea	rdi, [rbp - 2128]
	call	__ZNSt3__112basic_stringIcNS_11char_traitsIcEENS_9allocatorIcEEEC1Ev
	mov	esi, dword ptr [rbp - 2092]
	sub	esi, 1
	mov	dword ptr [rbp - 2132], esi
LBB141_1:                               
	mov	eax, dword ptr [rbp - 2132]
	cmp	eax, dword ptr [rbp - 2076]
	jl	LBB141_23

	movsxd	rax, dword ptr [rbp - 2132]
	mov	rdi, qword ptr [rbp + 8*rax - 1040]
Ltmp231:
	lea	rsi, [rbp - 2168]
	call	_dladdr
Ltmp232:
	mov	dword ptr [rbp - 2244], eax 
	jmp	LBB141_3
LBB141_3:                               
	mov	eax, dword ptr [rbp - 2244] 
	cmp	eax, 0
	je	LBB141_18

	cmp	qword ptr [rbp - 2152], 0
	je	LBB141_18

	mov	qword ptr [rbp - 2192], 0
	mov	dword ptr [rbp - 2196], -1
	mov	rax, qword ptr [rbp - 2152]
	movsx	ecx, byte ptr [rax]
	cmp	ecx, 95
	jne	LBB141_9

	mov	rdi, qword ptr [rbp - 2152]
Ltmp235:
	xor	eax, eax
	mov	ecx, eax
	lea	rdx, [rbp - 2196]
	mov	rsi, rcx
	mov	qword ptr [rbp - 2256], rdx 
	mov	rdx, rcx
	mov	rcx, qword ptr [rbp - 2256] 
	call	___cxa_demangle
Ltmp236:
	mov	qword ptr [rbp - 2264], rax 
	jmp	LBB141_7
LBB141_7:                               
	mov	rax, qword ptr [rbp - 2264] 
	mov	qword ptr [rbp - 2192], rax
	jmp	LBB141_9
LBB141_8:
Ltmp243:
                                        
	mov	qword ptr [rbp - 2176], rax
	mov	dword ptr [rbp - 2180], edx
	lea	rdi, [rbp - 2128]
	call	__ZNSt3__112basic_stringIcNS_11char_traitsIcEENS_9allocatorIcEEED1Ev
	jmp	LBB141_34
LBB141_9:                               
	lea	rdi, [rbp - 2064]
	mov	eax, dword ptr [rbp - 2132]
	sub	eax, dword ptr [rbp - 2076]
	movsxd	rcx, dword ptr [rbp - 2132]
	mov	r9, qword ptr [rbp + 8*rcx - 1040]
	cmp	dword ptr [rbp - 2196], 0
	mov	qword ptr [rbp - 2272], rdi 
	mov	dword ptr [rbp - 2276], eax 
	mov	qword ptr [rbp - 2288], r9 
	jne	LBB141_11

	mov	rax, qword ptr [rbp - 2192]
	mov	qword ptr [rbp - 2296], rax 
	jmp	LBB141_15
LBB141_11:                              
	cmp	qword ptr [rbp - 2152], 0
	jne	LBB141_13

	mov	rax, qword ptr [rbp - 2104]
	movsxd	rcx, dword ptr [rbp - 2132]
	mov	rax, qword ptr [rax + 8*rcx]
	mov	qword ptr [rbp - 2304], rax 
	jmp	LBB141_14
LBB141_13:                              
	mov	rax, qword ptr [rbp - 2152]
	mov	qword ptr [rbp - 2304], rax 
LBB141_14:                              
	mov	rax, qword ptr [rbp - 2304] 
	mov	qword ptr [rbp - 2296], rax 
LBB141_15:                              
	mov	rax, qword ptr [rbp - 2296] 
	movsxd	rcx, dword ptr [rbp - 2132]
	mov	rcx, qword ptr [rbp + 8*rcx - 1040]
	mov	rdx, qword ptr [rbp - 2144]
	sub	rcx, rdx
Ltmp237:
	mov	rdx, rsp
	mov	qword ptr [rdx + 8], rcx
	mov	qword ptr [rdx], rax
	lea	rdx, [rip + L_.str.99]
	xor	esi, esi
                                        
	mov	eax, 1024
	mov	r8d, 18
	mov	rdi, qword ptr [rbp - 2272] 
	mov	byte ptr [rbp - 2305], sil 
	mov	rsi, rax
	mov	ecx, dword ptr [rbp - 2276] 
	mov	r9, qword ptr [rbp - 2288] 
	mov	al, byte ptr [rbp - 2305] 
	call	_snprintf
Ltmp238:
	jmp	LBB141_16
LBB141_16:                              
	mov	rdi, qword ptr [rbp - 2192]
Ltmp239:
	call	_free
Ltmp240:
	jmp	LBB141_17
LBB141_17:                              
	jmp	LBB141_20
LBB141_18:                              
	movsxd	rax, dword ptr [rbp - 2132]
	mov	ecx, eax
	mov	edx, dword ptr [rbp - 2076]
	sub	ecx, edx
	mov	r9, qword ptr [rbp + 8*rax - 1040]
	mov	rsi, qword ptr [rbp - 2104]
	mov	rax, qword ptr [rsi + 8*rax]
Ltmp233:
	mov	rsi, rsp
	mov	qword ptr [rsi], rax
	lea	rdx, [rip + L_.str.100]
	xor	edi, edi
                                        
	lea	rax, [rbp - 2064]
	mov	esi, 1024
	mov	r8d, 18
	mov	byte ptr [rbp - 2306], dil 
	mov	rdi, rax
	mov	al, byte ptr [rbp - 2306] 
	call	_snprintf
Ltmp234:
	jmp	LBB141_19
LBB141_19:                              
	jmp	LBB141_20
LBB141_20:                              
Ltmp241:
	lea	rdi, [rbp - 2128]
	lea	rsi, [rbp - 2064]
	call	__ZNSt3__112basic_stringIcNS_11char_traitsIcEENS_9allocatorIcEEEpLEPKc
Ltmp242:
	jmp	LBB141_21
LBB141_21:                              
	jmp	LBB141_22
LBB141_22:                              
	mov	eax, dword ptr [rbp - 2132]
	add	eax, -1
	mov	dword ptr [rbp - 2132], eax
	jmp	LBB141_1
LBB141_23:
	mov	rdi, qword ptr [rbp - 2104]
Ltmp223:
	call	_free
Ltmp224:
	jmp	LBB141_24
LBB141_24:
	movsxd	rax, dword ptr [rbp - 2092]
	cmp	rax, 128
	jne	LBB141_27

Ltmp225:
	lea	rsi, [rip + L_.str.101]
	lea	rdi, [rbp - 2224]
	lea	rdx, [rbp - 2128]
	call	__ZNSt3__1plIcNS_11char_traitsIcEENS_9allocatorIcEEEENS_12basic_stringIT_T0_T1_EEPKS6_RKS9_
Ltmp226:
	jmp	LBB141_26
LBB141_26:
	lea	rdi, [rbp - 2128]
	lea	rsi, [rbp - 2224]
	call	__ZNSt3__112basic_stringIcNS_11char_traitsIcEENS_9allocatorIcEEEaSEOS5_
	lea	rdi, [rbp - 2224]
	mov	qword ptr [rbp - 2320], rax 
	call	__ZNSt3__112basic_stringIcNS_11char_traitsIcEENS_9allocatorIcEEED1Ev
LBB141_27:
	lea	rdi, [rbp - 2128]
	call	__ZNKSt3__112basic_stringIcNS_11char_traitsIcEENS_9allocatorIcEEE5emptyEv
	test	al, 1
	jne	LBB141_31

	lea	rdi, [rbp - 2128]
	call	__ZNKSt3__112basic_stringIcNS_11char_traitsIcEENS_9allocatorIcEEE4sizeEv
	sub	rax, 1
	lea	rdi, [rbp - 2128]
	mov	rsi, rax
	call	__ZNSt3__112basic_stringIcNS_11char_traitsIcEENS_9allocatorIcEEEixEm
	movsx	ecx, byte ptr [rax]
	cmp	ecx, 10
	jne	LBB141_31

	lea	rax, [rbp - 2128]
	mov	rdi, rax
	mov	qword ptr [rbp - 2328], rax 
	call	__ZNKSt3__112basic_stringIcNS_11char_traitsIcEENS_9allocatorIcEEE4sizeEv
	dec	rax
Ltmp227:
	mov	rdi, qword ptr [rbp - 2328] 
	mov	rsi, rax
	call	__ZNSt3__112basic_stringIcNS_11char_traitsIcEENS_9allocatorIcEEE6resizeEm
Ltmp228:
	jmp	LBB141_30
LBB141_30:
	jmp	LBB141_31
LBB141_31:
Ltmp229:
	lea	rsi, [rbp - 2128]
	mov	rdi, qword ptr [rbp - 2232] 
	call	__ZN6loguru19prettify_stacktraceERKNSt3__112basic_stringIcNS0_11char_traitsIcEENS0_9allocatorIcEEEE
Ltmp230:
	jmp	LBB141_32
LBB141_32:
	lea	rdi, [rbp - 2128]
	call	__ZNSt3__112basic_stringIcNS_11char_traitsIcEENS_9allocatorIcEEED1Ev
	mov	rax, qword ptr [rip + ___stack_chk_guard@GOTPCREL]
	mov	rax, qword ptr [rax]
	mov	rcx, qword ptr [rbp - 8]
	cmp	rax, rcx
	jne	LBB141_35

	mov	rax, qword ptr [rbp - 2240] 
	add	rsp, 2352
	pop	rbp
	ret
LBB141_34:
	mov	rdi, qword ptr [rbp - 2176]
	call	__Unwind_Resume
	ud2
LBB141_35:
	call	___stack_chk_fail
	ud2
Lfunc_end18:
	.cfi_endproc
	.section	__TEXT,__gcc_except_tab
	.p2align	2
GCC_except_table141:
Lexception18:
	.byte	255                     
	.byte	255                     
	.byte	1                       
	.uleb128 Lcst_end18-Lcst_begin18
Lcst_begin18:
	.uleb128 Lfunc_begin18-Lfunc_begin18 
	.uleb128 Ltmp231-Lfunc_begin18  
	.byte	0                       
	.byte	0                       
	.uleb128 Ltmp231-Lfunc_begin18  
	.uleb128 Ltmp230-Ltmp231        
	.uleb128 Ltmp243-Lfunc_begin18  
	.byte	0                       
	.uleb128 Ltmp230-Lfunc_begin18  
	.uleb128 Lfunc_end18-Ltmp230    
	.byte	0                       
	.byte	0                       
Lcst_end18:
	.p2align	2
                                        
	.section	__TEXT,__text,regular,pure_instructions
	.p2align	4, 0x90         
__ZNSt3__112basic_stringIcNS_11char_traitsIcEENS_9allocatorIcEEEixEm: 

	push	rbp
	mov	rbp, rsp
	sub	rsp, 16
	mov	qword ptr [rbp - 8], rdi
	mov	qword ptr [rbp - 16], rsi
	mov	rdi, qword ptr [rbp - 8]
	call	__ZNSt3__112basic_stringIcNS_11char_traitsIcEENS_9allocatorIcEEE13__get_pointerEv
	add	rax, qword ptr [rbp - 16]
	add	rsp, 16
	pop	rbp
	ret
                                        
	.p2align	4, 0x90         
__ZNSt3__112basic_stringIcNS_11char_traitsIcEENS_9allocatorIcEEE6resizeEm: 
	.cfi_startproc

	push	rbp
	.cfi_def_cfa_offset 16
	.cfi_offset rbp, -16
	mov	rbp, rsp
	.cfi_def_cfa_register rbp
	sub	rsp, 16
	xor	edx, edx
	mov	qword ptr [rbp - 8], rdi
	mov	qword ptr [rbp - 16], rsi
	mov	rdi, qword ptr [rbp - 8]
	mov	rsi, qword ptr [rbp - 16]
	call	__ZNSt3__112basic_stringIcNS_11char_traitsIcEENS_9allocatorIcEEE6resizeEmc
	add	rsp, 16
	pop	rbp
	ret
	.cfi_endproc
                                        
	.globl	__ZN6loguru10stacktraceEi 
	.p2align	4, 0x90
__ZN6loguru10stacktraceEi:              
Lfunc_begin19:
	.cfi_startproc
	.cfi_personality 155, ___gxx_personality_v0
	.cfi_lsda 16, Lexception19

	push	rbp
	.cfi_def_cfa_offset 16
	.cfi_offset rbp, -16
	mov	rbp, rsp
	.cfi_def_cfa_register rbp
	sub	rsp, 96
	mov	rax, rdi
	mov	qword ptr [rbp - 8], rdi
	mov	dword ptr [rbp - 12], esi
	mov	ecx, dword ptr [rbp - 12]
	inc	ecx
	lea	rdx, [rbp - 40]
	mov	qword ptr [rbp - 64], rdi 
	mov	rdi, rdx
	mov	esi, ecx
	mov	qword ptr [rbp - 72], rax 
	mov	qword ptr [rbp - 80], rdx 
	call	__ZN6loguru23stacktrace_as_stdstringEi
	mov	rdi, qword ptr [rbp - 80] 
	call	__ZNKSt3__112basic_stringIcNS_11char_traitsIcEENS_9allocatorIcEEE5c_strEv
Ltmp244:
	mov	rdi, rax
	call	_strdup
Ltmp245:
	mov	qword ptr [rbp - 88], rax 
	jmp	LBB144_1
LBB144_1:
Ltmp246:
	mov	rdi, qword ptr [rbp - 64] 
	mov	rsi, qword ptr [rbp - 88] 
	call	__ZN6loguru4TextC1EPc
Ltmp247:
	jmp	LBB144_2
LBB144_2:
	lea	rdi, [rbp - 40]
	call	__ZNSt3__112basic_stringIcNS_11char_traitsIcEENS_9allocatorIcEEED1Ev
	mov	rax, qword ptr [rbp - 72] 
	add	rsp, 96
	pop	rbp
	ret
LBB144_3:
Ltmp248:
                                        
	mov	qword ptr [rbp - 48], rax
	mov	dword ptr [rbp - 52], edx
	lea	rdi, [rbp - 40]
	call	__ZNSt3__112basic_stringIcNS_11char_traitsIcEENS_9allocatorIcEEED1Ev

	mov	rdi, qword ptr [rbp - 48]
	call	__Unwind_Resume
	ud2
Lfunc_end19:
	.cfi_endproc
	.section	__TEXT,__gcc_except_tab
	.p2align	2
GCC_except_table144:
Lexception19:
	.byte	255                     
	.byte	255                     
	.byte	1                       
	.uleb128 Lcst_end19-Lcst_begin19
Lcst_begin19:
	.uleb128 Lfunc_begin19-Lfunc_begin19 
	.uleb128 Ltmp244-Lfunc_begin19  
	.byte	0                       
	.byte	0                       
	.uleb128 Ltmp244-Lfunc_begin19  
	.uleb128 Ltmp247-Ltmp244        
	.uleb128 Ltmp248-Lfunc_begin19  
	.byte	0                       
	.uleb128 Ltmp247-Lfunc_begin19  
	.uleb128 Lfunc_end19-Ltmp247    
	.byte	0                       
	.byte	0                       
Lcst_end19:
	.p2align	2
                                        
	.section	__TEXT,__text,regular,pure_instructions
	.globl	__ZN6loguru17log_to_everywhereEiiPKcjS1_S1_ 
	.p2align	4, 0x90
__ZN6loguru17log_to_everywhereEiiPKcjS1_S1_: 
	.cfi_startproc

	push	rbp
	.cfi_def_cfa_offset 16
	.cfi_offset rbp, -16
	mov	rbp, rsp
	.cfi_def_cfa_register rbp
	sub	rsp, 224
	lea	rax, [rbp - 112]
	mov	r10, qword ptr [rip + ___stack_chk_guard@GOTPCREL]
	mov	r10, qword ptr [r10]
	mov	qword ptr [rbp - 8], r10
	mov	dword ptr [rbp - 116], edi
	mov	dword ptr [rbp - 120], esi
	mov	qword ptr [rbp - 128], rdx
	mov	dword ptr [rbp - 132], ecx
	mov	qword ptr [rbp - 144], r8
	mov	qword ptr [rbp - 152], r9
	mov	edx, dword ptr [rbp - 120]
	mov	rcx, qword ptr [rbp - 128]
	mov	r8d, dword ptr [rbp - 132]
	mov	rdi, rax
	mov	esi, 92
	call	__ZN6loguruL14print_preambleEPcmiPKcj
	lea	rax, [rbp - 112]
	mov	edx, dword ptr [rbp - 120]
	mov	dword ptr [rbp - 208], edx
	mov	rcx, qword ptr [rbp - 128]
	mov	qword ptr [rbp - 200], rcx
	mov	edx, dword ptr [rbp - 132]
	mov	dword ptr [rbp - 192], edx
	mov	qword ptr [rbp - 184], rax
	lea	rax, [rip + L_.str.8]
	mov	qword ptr [rbp - 176], rax
	mov	rax, qword ptr [rbp - 144]
	mov	qword ptr [rbp - 168], rax
	mov	rax, qword ptr [rbp - 152]
	mov	qword ptr [rbp - 160], rax
	mov	edx, dword ptr [rbp - 116]
	add	edx, 1
	mov	edi, edx
	lea	rsi, [rbp - 208]
	mov	edx, 1
	mov	dword ptr [rbp - 212], edx 
	mov	ecx, dword ptr [rbp - 212] 
	call	__ZN6loguruL11log_messageEiRNS_7MessageEbb
	mov	rax, qword ptr [rip + ___stack_chk_guard@GOTPCREL]
	mov	rax, qword ptr [rax]
	mov	rsi, qword ptr [rbp - 8]
	cmp	rax, rsi
	jne	LBB145_2

	add	rsp, 224
	pop	rbp
	ret
LBB145_2:
	call	___stack_chk_fail
	ud2
	.cfi_endproc
                                        
	.section	__TEXT,__literal8,8byte_literals
	.p2align	3               
LCPI146_0:
	.quad	4652007308841189376     
	.section	__TEXT,__text,regular,pure_instructions
	.p2align	4, 0x90
__ZN6loguruL14print_preambleEPcmiPKcj:  
	.cfi_startproc

	push	rbp
	.cfi_def_cfa_offset 16
	.cfi_offset rbp, -16
	mov	rbp, rsp
	.cfi_def_cfa_register rbp
	sub	rsp, 336
	mov	rax, qword ptr [rip + ___stack_chk_guard@GOTPCREL]
	mov	rax, qword ptr [rax]
	mov	qword ptr [rbp - 8], rax
	mov	qword ptr [rbp - 72], rdi
	mov	qword ptr [rbp - 80], rsi
	mov	dword ptr [rbp - 84], edx
	mov	qword ptr [rbp - 96], rcx
	mov	dword ptr [rbp - 100], r8d
	cmp	qword ptr [rbp - 80], 0
	jne	LBB146_2

	jmp	LBB146_30
LBB146_2:
	mov	rax, qword ptr [rbp - 72]
	mov	byte ptr [rax], 0
	test	byte ptr [rip + __ZN6loguru10g_preambleE], 1
	jne	LBB146_4

	jmp	LBB146_30
LBB146_4:
	call	__ZNSt3__16chrono12system_clock3nowEv
	mov	qword ptr [rbp - 136], rax
	lea	rdi, [rbp - 136]
	call	__ZNKSt3__16chrono10time_pointINS0_12system_clockENS0_8durationIxNS_5ratioILl1ELl1000000EEEEEE16time_since_epochEv
	mov	qword ptr [rbp - 128], rax
	lea	rdi, [rbp - 128]
	call	__ZNSt3__16chronoL13duration_castINS0_8durationIxNS_5ratioILl1ELl1000EEEEExNS3_ILl1ELl1000000EEEEENS_9enable_ifIXsr13__is_durationIT_EE5valueES8_E4typeERKNS2_IT0_T1_EE
	mov	qword ptr [rbp - 120], rax
	lea	rdi, [rbp - 120]
	call	__ZNKSt3__16chrono8durationIxNS_5ratioILl1ELl1000EEEE5countEv
	mov	qword ptr [rbp - 112], rax
	mov	rax, qword ptr [rbp - 112]
	cqo
	mov	ecx, 1000
	idiv	rcx
	mov	qword ptr [rbp - 144], rax
	lea	rdi, [rbp - 144]
	lea	rsi, [rbp - 200]
	call	_localtime_r
	mov	qword ptr [rbp - 272], rax 
	call	__ZNSt3__16chrono12steady_clock3nowEv
	mov	qword ptr [rbp - 232], rax
	lea	rdi, [rbp - 232]
	lea	rsi, [rip + __ZN6loguruL12s_start_timeE]
	call	__ZNSt3__16chronomiINS0_12steady_clockENS0_8durationIxNS_5ratioILl1ELl1000000000EEEEES6_EENS_11common_typeIJT0_T1_EE4typeERKNS0_10time_pointIT_S8_EERKNSC_ISD_S9_EE
	mov	qword ptr [rbp - 224], rax
	lea	rdi, [rbp - 224]
	call	__ZNSt3__16chronoL13duration_castINS0_8durationIxNS_5ratioILl1ELl1000EEEEExNS3_ILl1ELl1000000000EEEEENS_9enable_ifIXsr13__is_durationIT_EE5valueES8_E4typeERKNS2_IT0_T1_EE
	mov	qword ptr [rbp - 216], rax
	lea	rdi, [rbp - 216]
	call	__ZNKSt3__16chrono8durationIxNS_5ratioILl1ELl1000EEEE5countEv
	lea	rcx, [rbp - 32]
	xor	esi, esi
	movsd	xmm0, qword ptr [rip + LCPI146_0] 
	mov	qword ptr [rbp - 208], rax
	cvtsi2sd	xmm1, qword ptr [rbp - 208]
	divsd	xmm1, xmm0
	movsd	qword ptr [rbp - 240], xmm1
	mov	rax, rcx
	mov	rdi, rax
	mov	eax, 17
	mov	rdx, rax
	mov	qword ptr [rbp - 280], rcx 
	mov	qword ptr [rbp - 288], rax 
	call	_memset
	mov	rdi, qword ptr [rbp - 280] 
	mov	rsi, qword ptr [rbp - 288] 
	mov	edx, 1
	call	__ZN6loguru15get_thread_nameEPcyb
	test	byte ptr [rip + __ZN6loguruL17s_strip_file_pathE], 1
	je	LBB146_6

	mov	rdi, qword ptr [rbp - 96]
	call	__ZN6loguru8filenameEPKc
	mov	qword ptr [rbp - 96], rax
LBB146_6:
	mov	edi, dword ptr [rbp - 84]
	call	__ZN6loguru18get_verbosity_nameEi
	mov	qword ptr [rbp - 256], rax
	cmp	qword ptr [rbp - 256], 0
	je	LBB146_8

	lea	rdi, [rbp - 246]
	mov	rcx, qword ptr [rbp - 256]
	mov	esi, 5
	lea	rdx, [rip + L_.str.29]
	mov	al, 0
	call	_snprintf
	jmp	LBB146_9
LBB146_8:
	lea	rdi, [rbp - 246]
	mov	ecx, dword ptr [rbp - 84]
	mov	esi, 5
	lea	rdx, [rip + L_.str.171]
	mov	al, 0
	call	_snprintf
LBB146_9:
	mov	qword ptr [rbp - 264], 0
	test	byte ptr [rip + __ZN6loguru15g_preamble_dateE], 1
	je	LBB146_12

	mov	rax, qword ptr [rbp - 264]
	cmp	rax, qword ptr [rbp - 80]
	jae	LBB146_12

	mov	rax, qword ptr [rbp - 72]
	add	rax, qword ptr [rbp - 264]
	mov	rcx, qword ptr [rbp - 80]
	sub	rcx, qword ptr [rbp - 264]
	mov	edx, dword ptr [rbp - 180]
	add	edx, 1900
	mov	esi, dword ptr [rbp - 184]
	add	esi, 1
	mov	r9d, dword ptr [rbp - 188]
	mov	rdi, rax
	mov	dword ptr [rbp - 292], esi 
	mov	rsi, rcx
	lea	rax, [rip + L_.str.172]
	mov	dword ptr [rbp - 296], edx 
	mov	rdx, rax
	mov	ecx, dword ptr [rbp - 296] 
	mov	r8d, dword ptr [rbp - 292] 
	mov	al, 0
	call	_snprintf
	movsxd	rdx, eax
	add	rdx, qword ptr [rbp - 264]
	mov	qword ptr [rbp - 264], rdx
LBB146_12:
	test	byte ptr [rip + __ZN6loguru15g_preamble_timeE], 1
	je	LBB146_15

	mov	rax, qword ptr [rbp - 264]
	cmp	rax, qword ptr [rbp - 80]
	jae	LBB146_15

	mov	rax, qword ptr [rbp - 72]
	add	rax, qword ptr [rbp - 264]
	mov	rcx, qword ptr [rbp - 80]
	sub	rcx, qword ptr [rbp - 264]
	mov	edx, dword ptr [rbp - 192]
	mov	r8d, dword ptr [rbp - 196]
	mov	r9d, dword ptr [rbp - 200]
	mov	rsi, qword ptr [rbp - 112]
	mov	qword ptr [rbp - 304], rax 
	mov	rax, rsi
	mov	dword ptr [rbp - 308], edx 
	cqo
	mov	esi, 1000
	idiv	rsi
	mov	rdi, qword ptr [rbp - 304] 
	mov	rsi, rcx
	lea	rcx, [rip + L_.str.173]
	mov	qword ptr [rbp - 320], rdx 
	mov	rdx, rcx
	mov	ecx, dword ptr [rbp - 308] 
	mov	r10, qword ptr [rbp - 320] 
	mov	qword ptr [rsp], r10
	mov	al, 0
	call	_snprintf
	movsxd	rdx, eax
	add	rdx, qword ptr [rbp - 264]
	mov	qword ptr [rbp - 264], rdx
LBB146_15:
	test	byte ptr [rip + __ZN6loguru17g_preamble_uptimeE], 1
	je	LBB146_18

	mov	rax, qword ptr [rbp - 264]
	cmp	rax, qword ptr [rbp - 80]
	jae	LBB146_18

	mov	rax, qword ptr [rbp - 72]
	add	rax, qword ptr [rbp - 264]
	mov	rcx, qword ptr [rbp - 80]
	sub	rcx, qword ptr [rbp - 264]
	movsd	xmm0, qword ptr [rbp - 240] 
	mov	rdi, rax
	mov	rsi, rcx
	lea	rdx, [rip + L_.str.174]
	mov	al, 1
	call	_snprintf
	movsxd	rcx, eax
	add	rcx, qword ptr [rbp - 264]
	mov	qword ptr [rbp - 264], rcx
LBB146_18:
	test	byte ptr [rip + __ZN6loguru17g_preamble_threadE], 1
	je	LBB146_21

	mov	rax, qword ptr [rbp - 264]
	cmp	rax, qword ptr [rbp - 80]
	jae	LBB146_21

	lea	r8, [rbp - 32]
	mov	rax, qword ptr [rbp - 72]
	add	rax, qword ptr [rbp - 264]
	mov	rcx, qword ptr [rbp - 80]
	sub	rcx, qword ptr [rbp - 264]
	mov	rdi, rax
	mov	rsi, rcx
	lea	rdx, [rip + L_.str.165]
	mov	ecx, 16
	mov	al, 0
	call	_snprintf
	movsxd	rdx, eax
	add	rdx, qword ptr [rbp - 264]
	mov	qword ptr [rbp - 264], rdx
LBB146_21:
	test	byte ptr [rip + __ZN6loguru15g_preamble_fileE], 1
	je	LBB146_24

	mov	rax, qword ptr [rbp - 264]
	cmp	rax, qword ptr [rbp - 80]
	jae	LBB146_24

	lea	rdi, [rbp - 64]
	mov	rcx, qword ptr [rbp - 96]
	mov	esi, 24
	lea	rdx, [rip + L_.str.29]
	mov	al, 0
	call	_snprintf
	lea	r8, [rbp - 64]
	mov	rcx, qword ptr [rbp - 72]
	add	rcx, qword ptr [rbp - 264]
	mov	rdx, qword ptr [rbp - 80]
	sub	rdx, qword ptr [rbp - 264]
	mov	r9d, dword ptr [rbp - 100]
	mov	rdi, rcx
	mov	rsi, rdx
	lea	rdx, [rip + L_.str.175]
	mov	ecx, 23
	mov	dword ptr [rbp - 324], eax 
	mov	al, 0
	call	_snprintf
	movsxd	rdx, eax
	add	rdx, qword ptr [rbp - 264]
	mov	qword ptr [rbp - 264], rdx
LBB146_24:
	test	byte ptr [rip + __ZN6loguru18g_preamble_verboseE], 1
	je	LBB146_27

	mov	rax, qword ptr [rbp - 264]
	cmp	rax, qword ptr [rbp - 80]
	jae	LBB146_27

	lea	rcx, [rbp - 246]
	mov	rax, qword ptr [rbp - 72]
	add	rax, qword ptr [rbp - 264]
	mov	rdx, qword ptr [rbp - 80]
	sub	rdx, qword ptr [rbp - 264]
	mov	rdi, rax
	mov	rsi, rdx
	lea	rdx, [rip + L_.str.176]
	mov	al, 0
	call	_snprintf
	movsxd	rcx, eax
	add	rcx, qword ptr [rbp - 264]
	mov	qword ptr [rbp - 264], rcx
LBB146_27:
	test	byte ptr [rip + __ZN6loguru15g_preamble_pipeE], 1
	je	LBB146_30

	mov	rax, qword ptr [rbp - 264]
	cmp	rax, qword ptr [rbp - 80]
	jae	LBB146_30

	mov	rax, qword ptr [rbp - 72]
	add	rax, qword ptr [rbp - 264]
	mov	rcx, qword ptr [rbp - 80]
	sub	rcx, qword ptr [rbp - 264]
	mov	rdi, rax
	mov	rsi, rcx
	lea	rdx, [rip + L_.str.170]
	mov	al, 0
	call	_snprintf
	movsxd	rcx, eax
	add	rcx, qword ptr [rbp - 264]
	mov	qword ptr [rbp - 264], rcx
LBB146_30:
	mov	rax, qword ptr [rip + ___stack_chk_guard@GOTPCREL]
	mov	rax, qword ptr [rax]
	mov	rcx, qword ptr [rbp - 8]
	cmp	rax, rcx
	jne	LBB146_32

	add	rsp, 336
	pop	rbp
	ret
LBB146_32:
	call	___stack_chk_fail
	ud2
	.cfi_endproc
                                        
	.p2align	4, 0x90         
__ZN6loguruL11log_messageEiRNS_7MessageEbb: 
Lfunc_begin20:
	.cfi_startproc
	.cfi_personality 155, ___gxx_personality_v0
	.cfi_lsda 16, Lexception20

	push	rbp
	.cfi_def_cfa_offset 16
	.cfi_offset rbp, -16
	mov	rbp, rsp
	.cfi_def_cfa_register rbp
	sub	rsp, 400
                                        
                                        
	mov	dword ptr [rbp - 4], edi
	mov	qword ptr [rbp - 16], rsi
	and	dl, 1
	mov	byte ptr [rbp - 17], dl
	and	cl, 1
	mov	byte ptr [rbp - 18], cl
	mov	rax, qword ptr [rbp - 16]
	mov	edi, dword ptr [rax]
	mov	dword ptr [rbp - 24], edi
	lea	rdi, [rbp - 32]
	lea	rsi, [rip + __ZN6loguruL7s_mutexE]
	call	__ZNSt3__110lock_guardINS_15recursive_mutexEEC1ERS1_
	mov	rax, qword ptr [rbp - 16]
	cmp	dword ptr [rax], -3
	jne	LBB147_26

	mov	eax, dword ptr [rbp - 4]
	add	eax, 2
Ltmp249:
	lea	rdi, [rbp - 40]
	mov	esi, eax
	call	__ZN6loguru10stacktraceEi
Ltmp250:
	jmp	LBB147_2
LBB147_2:
Ltmp251:
	lea	rdi, [rbp - 40]
	call	__ZNK6loguru4Text5emptyEv
Ltmp252:
	mov	byte ptr [rbp - 105], al 
	jmp	LBB147_3
LBB147_3:
	mov	al, byte ptr [rbp - 105] 
	test	al, 1
	jne	LBB147_13
	jmp	LBB147_4
LBB147_4:
Ltmp253:
	call	__ZN6loguru24current_verbosity_cutoffEv
Ltmp254:
	mov	dword ptr [rbp - 112], eax 
	jmp	LBB147_5
LBB147_5:
	mov	eax, 4294967294
	mov	ecx, dword ptr [rbp - 112] 
	cmp	eax, ecx
	jle	LBB147_7

	jmp	LBB147_10
LBB147_7:
Ltmp255:
	lea	rdi, [rbp - 40]
	call	__ZNK6loguru4Text5c_strEv
Ltmp256:
	mov	qword ptr [rbp - 120], rax 
	jmp	LBB147_8
LBB147_8:
Ltmp257:
	lea	rsi, [rip + L_.str.28]
	lea	rcx, [rip + L_.str.177]
	xor	eax, eax
                                        
	mov	edi, -2
	mov	edx, 1341
	mov	r8, qword ptr [rbp - 120] 
	call	__ZN6loguru7raw_logEiPKcjS1_z
Ltmp258:
	jmp	LBB147_9
LBB147_9:
	jmp	LBB147_10
LBB147_10:
	jmp	LBB147_13
LBB147_11:
Ltmp318:
                                        
	mov	qword ptr [rbp - 48], rax
	mov	dword ptr [rbp - 52], edx
	jmp	LBB147_95
LBB147_12:
Ltmp261:
                                        
	mov	qword ptr [rbp - 48], rax
	mov	dword ptr [rbp - 52], edx
	jmp	LBB147_25
LBB147_13:
Ltmp259:
	lea	rdi, [rbp - 64]
	call	__ZN6loguru17get_error_contextEv
Ltmp260:
	jmp	LBB147_14
LBB147_14:
Ltmp262:
	lea	rdi, [rbp - 64]
	call	__ZNK6loguru4Text5emptyEv
Ltmp263:
	mov	byte ptr [rbp - 121], al 
	jmp	LBB147_15
LBB147_15:
	mov	al, byte ptr [rbp - 121] 
	test	al, 1
	jne	LBB147_24
	jmp	LBB147_16
LBB147_16:
Ltmp264:
	call	__ZN6loguru24current_verbosity_cutoffEv
Ltmp265:
	mov	dword ptr [rbp - 128], eax 
	jmp	LBB147_17
LBB147_17:
	mov	eax, 4294967294
	mov	ecx, dword ptr [rbp - 128] 
	cmp	eax, ecx
	jle	LBB147_19

	jmp	LBB147_22
LBB147_19:
Ltmp266:
	lea	rdi, [rbp - 64]
	call	__ZNK6loguru4Text5c_strEv
Ltmp267:
	mov	qword ptr [rbp - 136], rax 
	jmp	LBB147_20
LBB147_20:
Ltmp268:
	lea	rsi, [rip + L_.str.28]
	lea	rcx, [rip + L_.str.29]
	xor	eax, eax
                                        
	mov	edi, -2
	mov	edx, 1346
	mov	r8, qword ptr [rbp - 136] 
	call	__ZN6loguru7raw_logEiPKcjS1_z
Ltmp269:
	jmp	LBB147_21
LBB147_21:
	jmp	LBB147_22
LBB147_22:
	jmp	LBB147_24
LBB147_23:
Ltmp270:
                                        
	mov	qword ptr [rbp - 48], rax
	mov	dword ptr [rbp - 52], edx
	lea	rdi, [rbp - 64]
	call	__ZN6loguru4TextD1Ev
	jmp	LBB147_25
LBB147_24:
	lea	rdi, [rbp - 64]
	call	__ZN6loguru4TextD1Ev
	lea	rdi, [rbp - 40]
	call	__ZN6loguru4TextD1Ev
	jmp	LBB147_26
LBB147_25:
	lea	rdi, [rbp - 40]
	call	__ZN6loguru4TextD1Ev
	jmp	LBB147_95
LBB147_26:
	test	byte ptr [rbp - 17], 1
	je	LBB147_29

	lea	rdi, [rip + __ZN6loguruL20s_stderr_indentationE]
	call	__ZNKSt3__113__atomic_baseIjLb0EEcvjEv
Ltmp271:
	mov	edi, eax
	call	__ZN6loguruL11indentationEj
Ltmp272:
	mov	qword ptr [rbp - 144], rax 
	jmp	LBB147_28
LBB147_28:
	mov	rax, qword ptr [rbp - 16]
	mov	rcx, qword ptr [rbp - 144] 
	mov	qword ptr [rax + 32], rcx
LBB147_29:
	mov	eax, dword ptr [rbp - 24]
	cmp	eax, dword ptr [rip + __ZN6loguru18g_stderr_verbosityE]
	jg	LBB147_59

	test	byte ptr [rip + __ZN6loguru18g_colorlogtostderrE], 1
	je	LBB147_52

	test	byte ptr [rip + __ZN6loguruL20s_terminal_has_colorE], 1
	je	LBB147_52

	cmp	dword ptr [rbp - 24], -1
	jle	LBB147_42

	mov	rax, qword ptr [rip + ___stderrp@GOTPCREL]
	mov	rdi, qword ptr [rax]
Ltmp285:
	mov	qword ptr [rbp - 152], rdi 
	call	__ZN6loguru14terminal_resetEv
Ltmp286:
	mov	qword ptr [rbp - 160], rax 
	jmp	LBB147_34
LBB147_34:
Ltmp287:
	call	__ZN6loguru12terminal_dimEv
Ltmp288:
	mov	qword ptr [rbp - 168], rax 
	jmp	LBB147_35
LBB147_35:
	mov	rax, qword ptr [rbp - 16]
	mov	r8, qword ptr [rax + 24]
	mov	rax, qword ptr [rbp - 16]
	mov	r9, qword ptr [rax + 32]
	cmp	dword ptr [rbp - 24], 0
	mov	qword ptr [rbp - 176], r8 
	mov	qword ptr [rbp - 184], r9 
	jne	LBB147_38

Ltmp289:
	call	__ZN6loguru14terminal_resetEv
Ltmp290:
	mov	qword ptr [rbp - 192], rax 
	jmp	LBB147_37
LBB147_37:
	mov	rax, qword ptr [rbp - 192] 
	mov	qword ptr [rbp - 200], rax 
	jmp	LBB147_39
LBB147_38:
	lea	rax, [rip + L_.str.8]
	mov	qword ptr [rbp - 200], rax 
	jmp	LBB147_39
LBB147_39:
	mov	rax, qword ptr [rbp - 200] 
	mov	rcx, qword ptr [rbp - 16]
	mov	rdx, qword ptr [rcx + 40]
	mov	rcx, qword ptr [rcx + 48]
Ltmp291:
	mov	qword ptr [rbp - 208], rax 
	mov	qword ptr [rbp - 216], rdx 
	mov	qword ptr [rbp - 224], rcx 
	call	__ZN6loguru14terminal_resetEv
Ltmp292:
	mov	qword ptr [rbp - 232], rax 
	jmp	LBB147_40
LBB147_40:
Ltmp293:
	mov	rax, rsp
	mov	rcx, qword ptr [rbp - 232] 
	mov	qword ptr [rax + 24], rcx
	mov	rdx, qword ptr [rbp - 224] 
	mov	qword ptr [rax + 16], rdx
	mov	rsi, qword ptr [rbp - 216] 
	mov	qword ptr [rax + 8], rsi
	mov	rdi, qword ptr [rbp - 208] 
	mov	qword ptr [rax], rdi
	lea	rsi, [rip + L_.str.178]
	xor	r8d, r8d
                                        
	mov	rdi, qword ptr [rbp - 152] 
	mov	rdx, qword ptr [rbp - 160] 
	mov	rcx, qword ptr [rbp - 168] 
	mov	rax, qword ptr [rbp - 176] 
	mov	byte ptr [rbp - 233], r8b 
	mov	r8, rax
	mov	r9, qword ptr [rbp - 184] 
	mov	al, byte ptr [rbp - 233] 
	call	_fprintf
Ltmp294:
	jmp	LBB147_41
LBB147_41:
	jmp	LBB147_51
LBB147_42:
	mov	rax, qword ptr [rip + ___stderrp@GOTPCREL]
	mov	rdi, qword ptr [rax]
Ltmp275:
	mov	qword ptr [rbp - 248], rdi 
	call	__ZN6loguru14terminal_resetEv
Ltmp276:
	mov	qword ptr [rbp - 256], rax 
	jmp	LBB147_43
LBB147_43:
	cmp	dword ptr [rbp - 24], -1
	jne	LBB147_46

Ltmp279:
	call	__ZN6loguru15terminal_yellowEv
Ltmp280:
	mov	qword ptr [rbp - 264], rax 
	jmp	LBB147_45
LBB147_45:
	mov	rax, qword ptr [rbp - 264] 
	mov	qword ptr [rbp - 272], rax 
	jmp	LBB147_48
LBB147_46:
Ltmp277:
	call	__ZN6loguru12terminal_redEv
Ltmp278:
	mov	qword ptr [rbp - 280], rax 
	jmp	LBB147_47
LBB147_47:
	mov	rax, qword ptr [rbp - 280] 
	mov	qword ptr [rbp - 272], rax 
	jmp	LBB147_48
LBB147_48:
	mov	rax, qword ptr [rbp - 272] 
	mov	rcx, qword ptr [rbp - 16]
	mov	r8, qword ptr [rcx + 24]
	mov	r9, qword ptr [rcx + 32]
	mov	rdx, qword ptr [rcx + 40]
	mov	rcx, qword ptr [rcx + 48]
Ltmp281:
	mov	qword ptr [rbp - 288], rax 
	mov	qword ptr [rbp - 296], r8 
	mov	qword ptr [rbp - 304], r9 
	mov	qword ptr [rbp - 312], rdx 
	mov	qword ptr [rbp - 320], rcx 
	call	__ZN6loguru14terminal_resetEv
Ltmp282:
	mov	qword ptr [rbp - 328], rax 
	jmp	LBB147_49
LBB147_49:
Ltmp283:
	mov	rax, rsp
	mov	rcx, qword ptr [rbp - 328] 
	mov	qword ptr [rax + 16], rcx
	mov	rdx, qword ptr [rbp - 320] 
	mov	qword ptr [rax + 8], rdx
	mov	rsi, qword ptr [rbp - 312] 
	mov	qword ptr [rax], rsi
	lea	rsi, [rip + L_.str.179]
	xor	edi, edi
                                        
	mov	rax, qword ptr [rbp - 248] 
	mov	byte ptr [rbp - 329], dil 
	mov	rdi, rax
	mov	rdx, qword ptr [rbp - 256] 
	mov	rcx, qword ptr [rbp - 288] 
	mov	r8, qword ptr [rbp - 296] 
	mov	r9, qword ptr [rbp - 304] 
	mov	al, byte ptr [rbp - 329] 
	call	_fprintf
Ltmp284:
	jmp	LBB147_50
LBB147_50:
	jmp	LBB147_51
LBB147_51:
	jmp	LBB147_54
LBB147_52:
	mov	rax, qword ptr [rip + ___stderrp@GOTPCREL]
	mov	rdi, qword ptr [rax]
	mov	rax, qword ptr [rbp - 16]
	mov	rdx, qword ptr [rax + 24]
	mov	rcx, qword ptr [rax + 32]
	mov	r8, qword ptr [rax + 40]
	mov	r9, qword ptr [rax + 48]
Ltmp273:
	lea	rsi, [rip + L_.str.21]
	xor	r10d, r10d
                                        
	mov	al, r10b
	call	_fprintf
Ltmp274:
	jmp	LBB147_53
LBB147_53:
	jmp	LBB147_54
LBB147_54:
	cmp	dword ptr [rip + __ZN6loguru19g_flush_interval_msE], 0
	jne	LBB147_57

	mov	rax, qword ptr [rip + ___stderrp@GOTPCREL]
	mov	rdi, qword ptr [rax]
Ltmp295:
	call	_fflush
Ltmp296:
	jmp	LBB147_56
LBB147_56:
	jmp	LBB147_58
LBB147_57:
	mov	byte ptr [rip + __ZN6loguruL16s_needs_flushingE], 1
LBB147_58:
	jmp	LBB147_59
LBB147_59:
	lea	rax, [rip + __ZN6loguruL11s_callbacksE]
	mov	qword ptr [rbp - 72], rax
	mov	rdi, rax
	call	__ZNSt3__16vectorIN6loguru8CallbackENS_9allocatorIS2_EEE5beginEv
	mov	qword ptr [rbp - 80], rax
	lea	rdi, [rip + __ZN6loguruL11s_callbacksE]
	call	__ZNSt3__16vectorIN6loguru8CallbackENS_9allocatorIS2_EEE3endEv
	mov	qword ptr [rbp - 88], rax
LBB147_60:                              
	lea	rdi, [rbp - 80]
	lea	rsi, [rbp - 88]
	call	__ZNSt3__1neIPN6loguru8CallbackEEEbRKNS_11__wrap_iterIT_EES8_
	test	al, 1
	jne	LBB147_61
	jmp	LBB147_75
LBB147_61:                              
	lea	rdi, [rbp - 80]
	call	__ZNKSt3__111__wrap_iterIPN6loguru8CallbackEEdeEv
	mov	qword ptr [rbp - 96], rax
	mov	ecx, dword ptr [rbp - 24]
	mov	rax, qword ptr [rbp - 96]
	cmp	ecx, dword ptr [rax + 40]
	jg	LBB147_73

	test	byte ptr [rbp - 17], 1
	je	LBB147_65

	mov	rax, qword ptr [rbp - 96]
	mov	edi, dword ptr [rax + 64]
Ltmp312:
	call	__ZN6loguruL11indentationEj
Ltmp313:
	mov	qword ptr [rbp - 344], rax 
	jmp	LBB147_64
LBB147_64:                              
	mov	rax, qword ptr [rbp - 16]
	mov	rcx, qword ptr [rbp - 344] 
	mov	qword ptr [rax + 32], rcx
LBB147_65:                              
	mov	rax, qword ptr [rbp - 96]
	mov	rcx, qword ptr [rax + 24]
	mov	rdi, qword ptr [rax + 32]
	mov	rsi, qword ptr [rbp - 16]
Ltmp314:
	call	rcx
Ltmp315:
	jmp	LBB147_66
LBB147_66:                              
	cmp	dword ptr [rip + __ZN6loguru19g_flush_interval_msE], 0
	jne	LBB147_71

	mov	rax, qword ptr [rbp - 96]
	cmp	qword ptr [rax + 56], 0
	je	LBB147_70

	mov	rax, qword ptr [rbp - 96]
	mov	rdi, qword ptr [rax + 32]
	mov	rax, qword ptr [rax + 56]
Ltmp316:
	call	rax
Ltmp317:
	jmp	LBB147_69
LBB147_69:                              
	jmp	LBB147_70
LBB147_70:                              
	jmp	LBB147_72
LBB147_71:                              
	mov	byte ptr [rip + __ZN6loguruL16s_needs_flushingE], 1
LBB147_72:                              
	jmp	LBB147_73
LBB147_73:                              
	jmp	LBB147_74
LBB147_74:                              
	lea	rdi, [rbp - 80]
	call	__ZNSt3__111__wrap_iterIPN6loguru8CallbackEEppEv
	jmp	LBB147_60
LBB147_75:
	cmp	dword ptr [rip + __ZN6loguru19g_flush_interval_msE], 0
	jbe	LBB147_81

	cmp	qword ptr [rip + __ZN6loguruL14s_flush_threadE], 0
	jne	LBB147_81

Ltmp297:
	mov	edi, 8
	call	__Znwm
Ltmp298:
	mov	qword ptr [rbp - 352], rax 
	jmp	LBB147_78
LBB147_78:
	mov	rax, qword ptr [rbp - 352] 
Ltmp299:
	lea	rsi, [rbp - 104]
	mov	rdi, qword ptr [rbp - 352] 
	mov	qword ptr [rbp - 360], rax 
	call	__ZNSt3__16threadC1IZN6loguruL11log_messageEiRNS2_7MessageEbbE3$_3JEvEEOT_DpOT0_
Ltmp300:
	jmp	LBB147_79
LBB147_79:
	mov	rax, qword ptr [rbp - 360] 
	mov	qword ptr [rip + __ZN6loguruL14s_flush_threadE], rax
	jmp	LBB147_81
LBB147_80:
Ltmp301:
                                        
	mov	qword ptr [rbp - 48], rax
	mov	dword ptr [rbp - 52], edx
	mov	rdi, qword ptr [rbp - 352] 
	call	__ZdlPv
	jmp	LBB147_95
LBB147_81:
	mov	rax, qword ptr [rbp - 16]
	cmp	dword ptr [rax], -3
	jne	LBB147_94

Ltmp302:
	call	__ZN6loguru5flushEv
Ltmp303:
	jmp	LBB147_83
LBB147_83:
	cmp	qword ptr [rip + __ZN6loguruL15s_fatal_handlerE], 0
	je	LBB147_87

	mov	rax, qword ptr [rip + __ZN6loguruL15s_fatal_handlerE]
	mov	rdi, qword ptr [rbp - 16]
Ltmp304:
	call	rax
Ltmp305:
	jmp	LBB147_85
LBB147_85:
Ltmp306:
	call	__ZN6loguru5flushEv
Ltmp307:
	jmp	LBB147_86
LBB147_86:
	jmp	LBB147_87
LBB147_87:
	test	byte ptr [rbp - 18], 1
	je	LBB147_93

	test	byte ptr [rip + __ZN6loguruL16s_signal_optionsE+1], 1
	je	LBB147_91

Ltmp308:
	xor	eax, eax
	mov	esi, eax
	mov	edi, 6
	call	_signal
Ltmp309:
	jmp	LBB147_90
LBB147_90:
	jmp	LBB147_91
LBB147_91:
Ltmp310:
	call	_abort
Ltmp311:
	jmp	LBB147_92
LBB147_92:
	ud2
LBB147_93:
	jmp	LBB147_94
LBB147_94:
	lea	rdi, [rbp - 32]
	call	__ZNSt3__110lock_guardINS_15recursive_mutexEED1Ev
	add	rsp, 400
	pop	rbp
	ret
LBB147_95:
	lea	rdi, [rbp - 32]
	call	__ZNSt3__110lock_guardINS_15recursive_mutexEED1Ev

	mov	rdi, qword ptr [rbp - 48]
	call	__Unwind_Resume
	ud2
Lfunc_end20:
	.cfi_endproc
	.section	__TEXT,__gcc_except_tab
	.p2align	2
GCC_except_table147:
Lexception20:
	.byte	255                     
	.byte	255                     
	.byte	1                       
	.uleb128 Lcst_end20-Lcst_begin20
Lcst_begin20:
	.uleb128 Lfunc_begin20-Lfunc_begin20 
	.uleb128 Ltmp249-Lfunc_begin20  
	.byte	0                       
	.byte	0                       
	.uleb128 Ltmp249-Lfunc_begin20  
	.uleb128 Ltmp250-Ltmp249        
	.uleb128 Ltmp318-Lfunc_begin20  
	.byte	0                       
	.uleb128 Ltmp251-Lfunc_begin20  
	.uleb128 Ltmp260-Ltmp251        
	.uleb128 Ltmp261-Lfunc_begin20  
	.byte	0                       
	.uleb128 Ltmp262-Lfunc_begin20  
	.uleb128 Ltmp269-Ltmp262        
	.uleb128 Ltmp270-Lfunc_begin20  
	.byte	0                       
	.uleb128 Ltmp271-Lfunc_begin20  
	.uleb128 Ltmp298-Ltmp271        
	.uleb128 Ltmp318-Lfunc_begin20  
	.byte	0                       
	.uleb128 Ltmp299-Lfunc_begin20  
	.uleb128 Ltmp300-Ltmp299        
	.uleb128 Ltmp301-Lfunc_begin20  
	.byte	0                       
	.uleb128 Ltmp302-Lfunc_begin20  
	.uleb128 Ltmp311-Ltmp302        
	.uleb128 Ltmp318-Lfunc_begin20  
	.byte	0                       
	.uleb128 Ltmp311-Lfunc_begin20  
	.uleb128 Lfunc_end20-Ltmp311    
	.byte	0                       
	.byte	0                       
Lcst_end20:
	.p2align	2
                                        
	.section	__TEXT,__text,regular,pure_instructions
	.globl	__ZN6loguru7raw_logEiPKcjS1_z 
	.p2align	4, 0x90
__ZN6loguru7raw_logEiPKcjS1_z:          
Lfunc_begin21:
	.cfi_startproc
	.cfi_personality 155, ___gxx_personality_v0
	.cfi_lsda 16, Lexception21

	push	rbp
	.cfi_def_cfa_offset 16
	.cfi_offset rbp, -16
	mov	rbp, rsp
	.cfi_def_cfa_register rbp
	sub	rsp, 544
	test	al, al
	movaps	xmmword ptr [rbp - 336], xmm7 
	movaps	xmmword ptr [rbp - 352], xmm6 
	movaps	xmmword ptr [rbp - 368], xmm5 
	movaps	xmmword ptr [rbp - 384], xmm4 
	movaps	xmmword ptr [rbp - 400], xmm3 
	movaps	xmmword ptr [rbp - 416], xmm2 
	movaps	xmmword ptr [rbp - 432], xmm1 
	movaps	xmmword ptr [rbp - 448], xmm0 
	mov	qword ptr [rbp - 456], r9 
	mov	qword ptr [rbp - 464], r8 
	mov	qword ptr [rbp - 472], rcx 
	mov	dword ptr [rbp - 476], edx 
	mov	qword ptr [rbp - 488], rsi 
	mov	dword ptr [rbp - 492], edi 
	je	LBB148_8

	movaps	xmm0, xmmword ptr [rbp - 448] 
	movaps	xmmword ptr [rbp - 272], xmm0
	movaps	xmm1, xmmword ptr [rbp - 432] 
	movaps	xmmword ptr [rbp - 256], xmm1
	movaps	xmm2, xmmword ptr [rbp - 416] 
	movaps	xmmword ptr [rbp - 240], xmm2
	movaps	xmm3, xmmword ptr [rbp - 400] 
	movaps	xmmword ptr [rbp - 224], xmm3
	movaps	xmm4, xmmword ptr [rbp - 384] 
	movaps	xmmword ptr [rbp - 208], xmm4
	movaps	xmm5, xmmword ptr [rbp - 368] 
	movaps	xmmword ptr [rbp - 192], xmm5
	movaps	xmm6, xmmword ptr [rbp - 352] 
	movaps	xmmword ptr [rbp - 176], xmm6
	movaps	xmm7, xmmword ptr [rbp - 336] 
	movaps	xmmword ptr [rbp - 160], xmm7
LBB148_8:
	mov	rax, qword ptr [rbp - 456] 
	mov	qword ptr [rbp - 280], rax
	mov	rcx, qword ptr [rbp - 464] 
	mov	qword ptr [rbp - 288], rcx
	mov	rdx, qword ptr [rip + ___stack_chk_guard@GOTPCREL]
	mov	rdx, qword ptr [rdx]
	mov	qword ptr [rbp - 8], rdx
	mov	esi, dword ptr [rbp - 492] 
	mov	dword ptr [rbp - 36], esi
	mov	rdx, qword ptr [rbp - 488] 
	mov	qword ptr [rbp - 48], rdx
	mov	edi, dword ptr [rbp - 476] 
	mov	dword ptr [rbp - 52], edi
	mov	r8, qword ptr [rbp - 472] 
	mov	qword ptr [rbp - 64], r8
	lea	r9, [rbp - 320]
	mov	qword ptr [rbp - 16], r9
	lea	r9, [rbp + 16]
	mov	qword ptr [rbp - 24], r9
	mov	dword ptr [rbp - 28], 48
	mov	dword ptr [rbp - 32], 32
	mov	r9, qword ptr [rbp - 64]
	lea	r10, [rbp - 72]
	lea	rdx, [rbp - 32]
	mov	rdi, r10
	mov	rsi, r9
	mov	qword ptr [rbp - 504], r10 
	call	__ZN6loguruL11vtextprintfEPKcP13__va_list_tag
	mov	r11d, dword ptr [rbp - 36]
	mov	dword ptr [rbp - 128], r11d
	mov	rax, qword ptr [rbp - 48]
	mov	qword ptr [rbp - 120], rax
	mov	r11d, dword ptr [rbp - 52]
	mov	dword ptr [rbp - 112], r11d
	lea	rax, [rip + L_.str.8]
	mov	qword ptr [rbp - 104], rax
	mov	qword ptr [rbp - 96], rax
	mov	qword ptr [rbp - 88], rax
	lea	rax, [rbp - 80]
Ltmp319:
	mov	rdi, qword ptr [rbp - 504] 
	mov	qword ptr [rbp - 512], rax 
	call	__ZNK6loguru4Text5c_strEv
Ltmp320:
	mov	qword ptr [rbp - 520], rax 
	jmp	LBB148_1
LBB148_1:
	mov	rax, qword ptr [rbp - 512] 
	mov	rcx, qword ptr [rbp - 520] 
	mov	qword ptr [rax], rcx
Ltmp321:
	lea	rsi, [rbp - 128]
	xor	edx, edx
	mov	edi, 1
	mov	dword ptr [rbp - 524], edi 
	mov	r8d, dword ptr [rbp - 524] 
	mov	ecx, r8d
	call	__ZN6loguruL11log_messageEiRNS_7MessageEbb
Ltmp322:
	jmp	LBB148_2
LBB148_2:
	lea	rax, [rbp - 32]
	lea	rdi, [rbp - 72]
	mov	qword ptr [rbp - 536], rax 
	call	__ZN6loguru4TextD1Ev
	mov	rax, qword ptr [rip + ___stack_chk_guard@GOTPCREL]
	mov	rax, qword ptr [rax]
	mov	rcx, qword ptr [rbp - 8]
	cmp	rax, rcx
	jne	LBB148_6

	add	rsp, 544
	pop	rbp
	ret
LBB148_4:
Ltmp323:
                                        
	mov	qword ptr [rbp - 136], rax
	mov	dword ptr [rbp - 140], edx
	lea	rdi, [rbp - 72]
	call	__ZN6loguru4TextD1Ev

	mov	rdi, qword ptr [rbp - 136]
	call	__Unwind_Resume
	ud2
LBB148_6:
	call	___stack_chk_fail
	ud2
Lfunc_end21:
	.cfi_endproc
	.section	__TEXT,__gcc_except_tab
	.p2align	2
GCC_except_table148:
Lexception21:
	.byte	255                     
	.byte	255                     
	.byte	1                       
	.uleb128 Lcst_end21-Lcst_begin21
Lcst_begin21:
	.uleb128 Lfunc_begin21-Lfunc_begin21 
	.uleb128 Ltmp319-Lfunc_begin21  
	.byte	0                       
	.byte	0                       
	.uleb128 Ltmp319-Lfunc_begin21  
	.uleb128 Ltmp322-Ltmp319        
	.uleb128 Ltmp323-Lfunc_begin21  
	.byte	0                       
	.uleb128 Ltmp322-Lfunc_begin21  
	.uleb128 Lfunc_end21-Ltmp322    
	.byte	0                       
	.byte	0                       
Lcst_end21:
	.p2align	2
                                        
	.section	__TEXT,__text,regular,pure_instructions
	.globl	__ZN6loguru5flushEv     
	.p2align	4, 0x90
__ZN6loguru5flushEv:                    
Lfunc_begin22:
	.cfi_startproc
	.cfi_personality 155, ___gxx_personality_v0
	.cfi_lsda 16, Lexception22

	push	rbp
	.cfi_def_cfa_offset 16
	.cfi_offset rbp, -16
	mov	rbp, rsp
	.cfi_def_cfa_register rbp
	sub	rsp, 64
	lea	rsi, [rip + __ZN6loguruL7s_mutexE]
	lea	rdi, [rbp - 8]
	call	__ZNSt3__110lock_guardINS_15recursive_mutexEEC1ERS1_
	mov	rax, qword ptr [rip + ___stderrp@GOTPCREL]
	mov	rdi, qword ptr [rax]
Ltmp324:
	call	_fflush
Ltmp325:
	jmp	LBB149_1
LBB149_1:
	lea	rax, [rip + __ZN6loguruL11s_callbacksE]
	mov	qword ptr [rbp - 32], rax
	mov	rdi, rax
	call	__ZNSt3__16vectorIN6loguru8CallbackENS_9allocatorIS2_EEE5beginEv
	mov	qword ptr [rbp - 40], rax
	lea	rdi, [rip + __ZN6loguruL11s_callbacksE]
	call	__ZNSt3__16vectorIN6loguru8CallbackENS_9allocatorIS2_EEE3endEv
	mov	qword ptr [rbp - 48], rax
LBB149_2:                               
	lea	rdi, [rbp - 40]
	lea	rsi, [rbp - 48]
	call	__ZNSt3__1neIPN6loguru8CallbackEEEbRKNS_11__wrap_iterIT_EES8_
	test	al, 1
	jne	LBB149_3
	jmp	LBB149_9
LBB149_3:                               
	lea	rdi, [rbp - 40]
	call	__ZNKSt3__111__wrap_iterIPN6loguru8CallbackEEdeEv
	mov	qword ptr [rbp - 56], rax
	mov	rax, qword ptr [rbp - 56]
	cmp	qword ptr [rax + 56], 0
	je	LBB149_7

	mov	rax, qword ptr [rbp - 56]
	mov	rdi, qword ptr [rax + 32]
	mov	rax, qword ptr [rax + 56]
Ltmp326:
	call	rax
Ltmp327:
	jmp	LBB149_5
LBB149_5:                               
	jmp	LBB149_7
LBB149_6:
Ltmp328:
                                        
	mov	qword ptr [rbp - 16], rax
	mov	dword ptr [rbp - 20], edx
	lea	rdi, [rbp - 8]
	call	__ZNSt3__110lock_guardINS_15recursive_mutexEED1Ev
	jmp	LBB149_10
LBB149_7:                               
	jmp	LBB149_8
LBB149_8:                               
	lea	rdi, [rbp - 40]
	call	__ZNSt3__111__wrap_iterIPN6loguru8CallbackEEppEv
	jmp	LBB149_2
LBB149_9:
	mov	byte ptr [rip + __ZN6loguruL16s_needs_flushingE], 0
	lea	rdi, [rbp - 8]
	call	__ZNSt3__110lock_guardINS_15recursive_mutexEED1Ev
	add	rsp, 64
	pop	rbp
	ret
LBB149_10:
	mov	rdi, qword ptr [rbp - 16]
	call	__Unwind_Resume
	ud2
Lfunc_end22:
	.cfi_endproc
	.section	__TEXT,__gcc_except_tab
	.p2align	2
GCC_except_table149:
Lexception22:
	.byte	255                     
	.byte	255                     
	.byte	1                       
	.uleb128 Lcst_end22-Lcst_begin22
Lcst_begin22:
	.uleb128 Lfunc_begin22-Lfunc_begin22 
	.uleb128 Ltmp324-Lfunc_begin22  
	.byte	0                       
	.byte	0                       
	.uleb128 Ltmp324-Lfunc_begin22  
	.uleb128 Ltmp327-Ltmp324        
	.uleb128 Ltmp328-Lfunc_begin22  
	.byte	0                       
	.uleb128 Ltmp327-Lfunc_begin22  
	.uleb128 Lfunc_end22-Ltmp327    
	.byte	0                       
	.byte	0                       
Lcst_end22:
	.p2align	2
                                        
	.section	__TEXT,__text,regular,pure_instructions
	.globl	__ZN6loguru12LogScopeRAIIC2EiPKcjS2_z 
	.p2align	4, 0x90
__ZN6loguru12LogScopeRAIIC2EiPKcjS2_z:  
Lfunc_begin23:
	.cfi_startproc
	.cfi_personality 155, ___gxx_personality_v0
	.cfi_lsda 16, Lexception23

	push	rbp
	.cfi_def_cfa_offset 16
	.cfi_offset rbp, -16
	mov	rbp, rsp
	.cfi_def_cfa_register rbp
	sub	rsp, 512
	test	al, al
	movaps	xmmword ptr [rbp - 320], xmm7 
	movaps	xmmword ptr [rbp - 336], xmm6 
	movaps	xmmword ptr [rbp - 352], xmm5 
	movaps	xmmword ptr [rbp - 368], xmm4 
	movaps	xmmword ptr [rbp - 384], xmm3 
	movaps	xmmword ptr [rbp - 400], xmm2 
	movaps	xmmword ptr [rbp - 416], xmm1 
	movaps	xmmword ptr [rbp - 432], xmm0 
	mov	qword ptr [rbp - 440], r9 
	mov	qword ptr [rbp - 448], r8 
	mov	dword ptr [rbp - 452], ecx 
	mov	qword ptr [rbp - 464], rdx 
	mov	dword ptr [rbp - 468], esi 
	mov	qword ptr [rbp - 480], rdi 
	je	LBB150_20

	movaps	xmm0, xmmword ptr [rbp - 432] 
	movaps	xmmword ptr [rbp - 256], xmm0
	movaps	xmm1, xmmword ptr [rbp - 416] 
	movaps	xmmword ptr [rbp - 240], xmm1
	movaps	xmm2, xmmword ptr [rbp - 400] 
	movaps	xmmword ptr [rbp - 224], xmm2
	movaps	xmm3, xmmword ptr [rbp - 384] 
	movaps	xmmword ptr [rbp - 208], xmm3
	movaps	xmm4, xmmword ptr [rbp - 368] 
	movaps	xmmword ptr [rbp - 192], xmm4
	movaps	xmm5, xmmword ptr [rbp - 352] 
	movaps	xmmword ptr [rbp - 176], xmm5
	movaps	xmm6, xmmword ptr [rbp - 336] 
	movaps	xmmword ptr [rbp - 160], xmm6
	movaps	xmm7, xmmword ptr [rbp - 320] 
	movaps	xmmword ptr [rbp - 144], xmm7
LBB150_20:
	mov	rax, qword ptr [rbp - 440] 
	mov	qword ptr [rbp - 264], rax
	mov	rcx, qword ptr [rip + ___stack_chk_guard@GOTPCREL]
	mov	rcx, qword ptr [rcx]
	mov	qword ptr [rbp - 8], rcx
	mov	rcx, qword ptr [rbp - 480] 
	mov	qword ptr [rbp - 40], rcx
	mov	edx, dword ptr [rbp - 468] 
	mov	dword ptr [rbp - 44], edx
	mov	rsi, qword ptr [rbp - 464] 
	mov	qword ptr [rbp - 56], rsi
	mov	edi, dword ptr [rbp - 452] 
	mov	dword ptr [rbp - 60], edi
	mov	r8, qword ptr [rbp - 448] 
	mov	qword ptr [rbp - 72], r8
	mov	r9, qword ptr [rbp - 40]
	mov	r10d, dword ptr [rbp - 44]
	mov	dword ptr [r9], r10d
	mov	r11, qword ptr [rbp - 56]
	mov	qword ptr [r9 + 8], r11
	mov	r10d, dword ptr [rbp - 60]
	mov	dword ptr [r9 + 16], r10d
	mov	r10d, dword ptr [rbp - 44]
	mov	qword ptr [rbp - 488], r9 
	mov	dword ptr [rbp - 492], r10d 
	call	__ZN6loguru24current_verbosity_cutoffEv
	mov	edx, dword ptr [rbp - 492] 
	cmp	edx, eax
	jg	LBB150_14

	lea	rsi, [rip + __ZN6loguruL7s_mutexE]
	lea	rdi, [rbp - 80]
	call	__ZNSt3__110lock_guardINS_15recursive_mutexEEC1ERS1_
	mov	eax, dword ptr [rbp - 44]
	mov	ecx, dword ptr [rip + __ZN6loguru18g_stderr_verbosityE]
	sub	eax, ecx
	mov	rdx, qword ptr [rbp - 488] 
	setle	byte ptr [rdx + 20]
Ltmp329:
	mov	dword ptr [rbp - 496], eax 
	call	__ZN6loguruL6now_nsEv
Ltmp330:
	mov	qword ptr [rbp - 504], rax 
	jmp	LBB150_2
LBB150_2:
	mov	rax, qword ptr [rbp - 488] 
	mov	rcx, qword ptr [rbp - 504] 
	mov	qword ptr [rax + 24], rcx
	lea	rdx, [rbp - 304]
	mov	qword ptr [rbp - 16], rdx
	lea	rdx, [rbp + 16]
	mov	qword ptr [rbp - 24], rdx
	mov	dword ptr [rbp - 28], 48
	mov	dword ptr [rbp - 32], 40
	add	rax, 32
	mov	rdx, qword ptr [rbp - 72]
Ltmp331:
	mov	esi, 196
	lea	rcx, [rbp - 32]
	mov	rdi, rax
	call	_vsnprintf
Ltmp332:
	jmp	LBB150_3
LBB150_3:
	mov	rax, qword ptr [rbp - 488] 
	mov	esi, dword ptr [rax]
	mov	rdx, qword ptr [rbp - 56]
	mov	ecx, dword ptr [rbp - 60]
	add	rax, 32
Ltmp333:
	lea	r8, [rip + L_.str.102]
	mov	edi, 1
	mov	r9, rax
	call	__ZN6loguru17log_to_everywhereEiiPKcjS1_S1_
Ltmp334:
	jmp	LBB150_4
LBB150_4:
	lea	rax, [rbp - 32]
	mov	rcx, qword ptr [rbp - 488] 
	test	byte ptr [rcx + 20], 1
	je	LBB150_7

	lea	rax, [rip + __ZN6loguruL20s_stderr_indentationE]
	mov	rdi, rax
	call	__ZNSt3__113__atomic_baseIjLb1EEppEv
	jmp	LBB150_7
LBB150_6:
Ltmp335:
                                        
	mov	qword ptr [rbp - 88], rax
	mov	dword ptr [rbp - 92], edx
	lea	rdi, [rbp - 80]
	call	__ZNSt3__110lock_guardINS_15recursive_mutexEED1Ev
	jmp	LBB150_17
LBB150_7:
	lea	rax, [rip + __ZN6loguruL11s_callbacksE]
	mov	qword ptr [rbp - 104], rax
	mov	rdi, rax
	call	__ZNSt3__16vectorIN6loguru8CallbackENS_9allocatorIS2_EEE5beginEv
	mov	qword ptr [rbp - 112], rax
	lea	rdi, [rip + __ZN6loguruL11s_callbacksE]
	call	__ZNSt3__16vectorIN6loguru8CallbackENS_9allocatorIS2_EEE3endEv
	mov	qword ptr [rbp - 120], rax
LBB150_8:                               
	lea	rdi, [rbp - 112]
	lea	rsi, [rbp - 120]
	call	__ZNSt3__1neIPN6loguru8CallbackEEEbRKNS_11__wrap_iterIT_EES8_
	test	al, 1
	jne	LBB150_9
	jmp	LBB150_13
LBB150_9:                               
	lea	rdi, [rbp - 112]
	call	__ZNKSt3__111__wrap_iterIPN6loguru8CallbackEEdeEv
	mov	qword ptr [rbp - 128], rax
	mov	ecx, dword ptr [rbp - 44]
	mov	rax, qword ptr [rbp - 128]
	cmp	ecx, dword ptr [rax + 40]
	jg	LBB150_11

	mov	rax, qword ptr [rbp - 128]
	mov	ecx, dword ptr [rax + 64]
	add	ecx, 1
	mov	dword ptr [rax + 64], ecx
LBB150_11:                              
	jmp	LBB150_12
LBB150_12:                              
	lea	rdi, [rbp - 112]
	call	__ZNSt3__111__wrap_iterIPN6loguru8CallbackEEppEv
	jmp	LBB150_8
LBB150_13:
	lea	rdi, [rbp - 80]
	call	__ZNSt3__110lock_guardINS_15recursive_mutexEED1Ev
	jmp	LBB150_15
LBB150_14:
	mov	rax, qword ptr [rbp - 488] 
	mov	qword ptr [rax + 8], 0
LBB150_15:
	mov	rax, qword ptr [rip + ___stack_chk_guard@GOTPCREL]
	mov	rax, qword ptr [rax]
	mov	rcx, qword ptr [rbp - 8]
	cmp	rax, rcx
	jne	LBB150_18

	add	rsp, 512
	pop	rbp
	ret
LBB150_17:
	mov	rdi, qword ptr [rbp - 88]
	call	__Unwind_Resume
	ud2
LBB150_18:
	call	___stack_chk_fail
	ud2
Lfunc_end23:
	.cfi_endproc
	.section	__TEXT,__gcc_except_tab
	.p2align	2
GCC_except_table150:
Lexception23:
	.byte	255                     
	.byte	255                     
	.byte	1                       
	.uleb128 Lcst_end23-Lcst_begin23
Lcst_begin23:
	.uleb128 Lfunc_begin23-Lfunc_begin23 
	.uleb128 Ltmp329-Lfunc_begin23  
	.byte	0                       
	.byte	0                       
	.uleb128 Ltmp329-Lfunc_begin23  
	.uleb128 Ltmp334-Ltmp329        
	.uleb128 Ltmp335-Lfunc_begin23  
	.byte	0                       
	.uleb128 Ltmp334-Lfunc_begin23  
	.uleb128 Lfunc_end23-Ltmp334    
	.byte	0                       
	.byte	0                       
Lcst_end23:
	.p2align	2
                                        
	.section	__TEXT,__text,regular,pure_instructions
	.p2align	4, 0x90         
__ZN6loguruL6now_nsEv:                  
	.cfi_startproc

	push	rbp
	.cfi_def_cfa_offset 16
	.cfi_offset rbp, -16
	mov	rbp, rsp
	.cfi_def_cfa_register rbp
	sub	rsp, 32
	call	__ZNSt3__16chrono12steady_clock3nowEv
	mov	qword ptr [rbp - 24], rax
	lea	rdi, [rbp - 24]
	call	__ZNKSt3__16chrono10time_pointINS0_12steady_clockENS0_8durationIxNS_5ratioILl1ELl1000000000EEEEEE16time_since_epochEv
	mov	qword ptr [rbp - 16], rax
	lea	rdi, [rbp - 16]
	call	__ZNSt3__16chronoL13duration_castINS0_8durationIxNS_5ratioILl1ELl1000000000EEEEExS4_EENS_9enable_ifIXsr13__is_durationIT_EE5valueES7_E4typeERKNS2_IT0_T1_EE
	mov	qword ptr [rbp - 8], rax
	lea	rdi, [rbp - 8]
	call	__ZNKSt3__16chrono8durationIxNS_5ratioILl1ELl1000000000EEEE5countEv
	add	rsp, 32
	pop	rbp
	ret
	.cfi_endproc
                                        
	.p2align	4, 0x90         
__ZNSt3__113__atomic_baseIjLb1EEppEv:   

	push	rbp
	mov	rbp, rsp
	sub	rsp, 16
	mov	qword ptr [rbp - 8], rdi
	mov	rdi, qword ptr [rbp - 8]
	mov	esi, 1
	mov	edx, 5
	call	__ZNSt3__113__atomic_baseIjLb1EE9fetch_addEjNS_12memory_orderE
	add	eax, 1
	add	rsp, 16
	pop	rbp
	ret
                                        
	.globl	__ZN6loguru12LogScopeRAIIC1EiPKcjS2_z 
	.p2align	4, 0x90
__ZN6loguru12LogScopeRAIIC1EiPKcjS2_z:  
Lfunc_begin24:
	.cfi_startproc
	.cfi_personality 155, ___gxx_personality_v0
	.cfi_lsda 16, Lexception24

	push	rbp
	.cfi_def_cfa_offset 16
	.cfi_offset rbp, -16
	mov	rbp, rsp
	.cfi_def_cfa_register rbp
	sub	rsp, 512
	test	al, al
	movaps	xmmword ptr [rbp - 320], xmm7 
	movaps	xmmword ptr [rbp - 336], xmm6 
	movaps	xmmword ptr [rbp - 352], xmm5 
	movaps	xmmword ptr [rbp - 368], xmm4 
	movaps	xmmword ptr [rbp - 384], xmm3 
	movaps	xmmword ptr [rbp - 400], xmm2 
	movaps	xmmword ptr [rbp - 416], xmm1 
	movaps	xmmword ptr [rbp - 432], xmm0 
	mov	qword ptr [rbp - 440], r9 
	mov	qword ptr [rbp - 448], r8 
	mov	dword ptr [rbp - 452], ecx 
	mov	qword ptr [rbp - 464], rdx 
	mov	dword ptr [rbp - 468], esi 
	mov	qword ptr [rbp - 480], rdi 
	je	LBB153_20

	movaps	xmm0, xmmword ptr [rbp - 432] 
	movaps	xmmword ptr [rbp - 256], xmm0
	movaps	xmm1, xmmword ptr [rbp - 416] 
	movaps	xmmword ptr [rbp - 240], xmm1
	movaps	xmm2, xmmword ptr [rbp - 400] 
	movaps	xmmword ptr [rbp - 224], xmm2
	movaps	xmm3, xmmword ptr [rbp - 384] 
	movaps	xmmword ptr [rbp - 208], xmm3
	movaps	xmm4, xmmword ptr [rbp - 368] 
	movaps	xmmword ptr [rbp - 192], xmm4
	movaps	xmm5, xmmword ptr [rbp - 352] 
	movaps	xmmword ptr [rbp - 176], xmm5
	movaps	xmm6, xmmword ptr [rbp - 336] 
	movaps	xmmword ptr [rbp - 160], xmm6
	movaps	xmm7, xmmword ptr [rbp - 320] 
	movaps	xmmword ptr [rbp - 144], xmm7
LBB153_20:
	mov	rax, qword ptr [rbp - 440] 
	mov	qword ptr [rbp - 264], rax
	mov	rcx, qword ptr [rip + ___stack_chk_guard@GOTPCREL]
	mov	rcx, qword ptr [rcx]
	mov	qword ptr [rbp - 8], rcx
	mov	rcx, qword ptr [rbp - 480] 
	mov	qword ptr [rbp - 40], rcx
	mov	edx, dword ptr [rbp - 468] 
	mov	dword ptr [rbp - 44], edx
	mov	rsi, qword ptr [rbp - 464] 
	mov	qword ptr [rbp - 56], rsi
	mov	edi, dword ptr [rbp - 452] 
	mov	dword ptr [rbp - 60], edi
	mov	r8, qword ptr [rbp - 448] 
	mov	qword ptr [rbp - 72], r8
	mov	r9, qword ptr [rbp - 40]
	mov	r10d, dword ptr [rbp - 44]
	mov	dword ptr [r9], r10d
	mov	r11, qword ptr [rbp - 56]
	mov	qword ptr [r9 + 8], r11
	mov	r10d, dword ptr [rbp - 60]
	mov	dword ptr [r9 + 16], r10d
	mov	r10d, dword ptr [rbp - 44]
	mov	qword ptr [rbp - 488], r9 
	mov	dword ptr [rbp - 492], r10d 
	call	__ZN6loguru24current_verbosity_cutoffEv
	mov	edx, dword ptr [rbp - 492] 
	cmp	edx, eax
	jg	LBB153_14

	lea	rsi, [rip + __ZN6loguruL7s_mutexE]
	lea	rdi, [rbp - 80]
	call	__ZNSt3__110lock_guardINS_15recursive_mutexEEC1ERS1_
	mov	eax, dword ptr [rbp - 44]
	mov	ecx, dword ptr [rip + __ZN6loguru18g_stderr_verbosityE]
	sub	eax, ecx
	mov	rdx, qword ptr [rbp - 488] 
	setle	byte ptr [rdx + 20]
Ltmp336:
	mov	dword ptr [rbp - 496], eax 
	call	__ZN6loguruL6now_nsEv
Ltmp337:
	mov	qword ptr [rbp - 504], rax 
	jmp	LBB153_2
LBB153_2:
	mov	rax, qword ptr [rbp - 488] 
	mov	rcx, qword ptr [rbp - 504] 
	mov	qword ptr [rax + 24], rcx
	lea	rdx, [rbp - 304]
	mov	qword ptr [rbp - 16], rdx
	lea	rdx, [rbp + 16]
	mov	qword ptr [rbp - 24], rdx
	mov	dword ptr [rbp - 28], 48
	mov	dword ptr [rbp - 32], 40
	add	rax, 32
	mov	rdx, qword ptr [rbp - 72]
Ltmp338:
	mov	esi, 196
	lea	rcx, [rbp - 32]
	mov	rdi, rax
	call	_vsnprintf
Ltmp339:
	jmp	LBB153_3
LBB153_3:
	mov	rax, qword ptr [rbp - 488] 
	mov	esi, dword ptr [rax]
	mov	rdx, qword ptr [rbp - 56]
	mov	ecx, dword ptr [rbp - 60]
	add	rax, 32
Ltmp340:
	lea	r8, [rip + L_.str.102]
	mov	edi, 1
	mov	r9, rax
	call	__ZN6loguru17log_to_everywhereEiiPKcjS1_S1_
Ltmp341:
	jmp	LBB153_4
LBB153_4:
	lea	rax, [rbp - 32]
	mov	rcx, qword ptr [rbp - 488] 
	test	byte ptr [rcx + 20], 1
	je	LBB153_7

	lea	rax, [rip + __ZN6loguruL20s_stderr_indentationE]
	mov	rdi, rax
	call	__ZNSt3__113__atomic_baseIjLb1EEppEv
	jmp	LBB153_7
LBB153_6:
Ltmp342:
                                        
	mov	qword ptr [rbp - 88], rax
	mov	dword ptr [rbp - 92], edx
	lea	rdi, [rbp - 80]
	call	__ZNSt3__110lock_guardINS_15recursive_mutexEED1Ev
	jmp	LBB153_17
LBB153_7:
	lea	rax, [rip + __ZN6loguruL11s_callbacksE]
	mov	qword ptr [rbp - 104], rax
	mov	rdi, rax
	call	__ZNSt3__16vectorIN6loguru8CallbackENS_9allocatorIS2_EEE5beginEv
	mov	qword ptr [rbp - 112], rax
	lea	rdi, [rip + __ZN6loguruL11s_callbacksE]
	call	__ZNSt3__16vectorIN6loguru8CallbackENS_9allocatorIS2_EEE3endEv
	mov	qword ptr [rbp - 120], rax
LBB153_8:                               
	lea	rdi, [rbp - 112]
	lea	rsi, [rbp - 120]
	call	__ZNSt3__1neIPN6loguru8CallbackEEEbRKNS_11__wrap_iterIT_EES8_
	test	al, 1
	jne	LBB153_9
	jmp	LBB153_13
LBB153_9:                               
	lea	rdi, [rbp - 112]
	call	__ZNKSt3__111__wrap_iterIPN6loguru8CallbackEEdeEv
	mov	qword ptr [rbp - 128], rax
	mov	ecx, dword ptr [rbp - 44]
	mov	rax, qword ptr [rbp - 128]
	cmp	ecx, dword ptr [rax + 40]
	jg	LBB153_11

	mov	rax, qword ptr [rbp - 128]
	mov	ecx, dword ptr [rax + 64]
	add	ecx, 1
	mov	dword ptr [rax + 64], ecx
LBB153_11:                              
	jmp	LBB153_12
LBB153_12:                              
	lea	rdi, [rbp - 112]
	call	__ZNSt3__111__wrap_iterIPN6loguru8CallbackEEppEv
	jmp	LBB153_8
LBB153_13:
	lea	rdi, [rbp - 80]
	call	__ZNSt3__110lock_guardINS_15recursive_mutexEED1Ev
	jmp	LBB153_15
LBB153_14:
	mov	rax, qword ptr [rbp - 488] 
	mov	qword ptr [rax + 8], 0
LBB153_15:
	mov	rax, qword ptr [rip + ___stack_chk_guard@GOTPCREL]
	mov	rax, qword ptr [rax]
	mov	rcx, qword ptr [rbp - 8]
	cmp	rax, rcx
	jne	LBB153_18

	add	rsp, 512
	pop	rbp
	ret
LBB153_17:
	mov	rdi, qword ptr [rbp - 88]
	call	__Unwind_Resume
	ud2
LBB153_18:
	call	___stack_chk_fail
	ud2
Lfunc_end24:
	.cfi_endproc
	.section	__TEXT,__gcc_except_tab
	.p2align	2
GCC_except_table153:
Lexception24:
	.byte	255                     
	.byte	255                     
	.byte	1                       
	.uleb128 Lcst_end24-Lcst_begin24
Lcst_begin24:
	.uleb128 Lfunc_begin24-Lfunc_begin24 
	.uleb128 Ltmp336-Lfunc_begin24  
	.byte	0                       
	.byte	0                       
	.uleb128 Ltmp336-Lfunc_begin24  
	.uleb128 Ltmp341-Ltmp336        
	.uleb128 Ltmp342-Lfunc_begin24  
	.byte	0                       
	.uleb128 Ltmp341-Lfunc_begin24  
	.uleb128 Lfunc_end24-Ltmp341    
	.byte	0                       
	.byte	0                       
Lcst_end24:
	.p2align	2
                                        
	.section	__TEXT,__literal8,8byte_literals
	.p2align	3               
LCPI154_0:
	.quad	4741671816366391296     
	.section	__TEXT,__text,regular,pure_instructions
	.globl	__ZN6loguru12LogScopeRAIID2Ev
	.p2align	4, 0x90
__ZN6loguru12LogScopeRAIID2Ev:          
Lfunc_begin25:
	.cfi_startproc
	.cfi_personality 155, ___gxx_personality_v0
	.cfi_lsda 16, Lexception25

	push	rbp
	.cfi_def_cfa_offset 16
	.cfi_offset rbp, -16
	mov	rbp, rsp
	.cfi_def_cfa_register rbp
	sub	rsp, 144
	mov	qword ptr [rbp - 8], rdi
	mov	rax, qword ptr [rbp - 8]
	cmp	qword ptr [rax + 8], 0
	mov	qword ptr [rbp - 88], rax 
	je	LBB154_21

Ltmp343:
	lea	rsi, [rip + __ZN6loguruL7s_mutexE]
	lea	rdi, [rbp - 16]
	call	__ZNSt3__110lock_guardINS_15recursive_mutexEEC1ERS1_
Ltmp344:
	jmp	LBB154_2
LBB154_2:
	mov	rax, qword ptr [rbp - 88] 
	test	byte ptr [rax + 20], 1
	je	LBB154_5

	lea	rax, [rip + __ZN6loguruL20s_stderr_indentationE]
	mov	rdi, rax
	call	__ZNKSt3__113__atomic_baseIjLb0EEcvjEv
	cmp	eax, 0
	jbe	LBB154_5

	lea	rax, [rip + __ZN6loguruL20s_stderr_indentationE]
	mov	rdi, rax
	call	__ZNSt3__113__atomic_baseIjLb1EEmmEv
LBB154_5:
	lea	rax, [rip + __ZN6loguruL11s_callbacksE]
	mov	qword ptr [rbp - 24], rax
	mov	rdi, rax
	call	__ZNSt3__16vectorIN6loguru8CallbackENS_9allocatorIS2_EEE5beginEv
	mov	qword ptr [rbp - 32], rax
	lea	rdi, [rip + __ZN6loguruL11s_callbacksE]
	call	__ZNSt3__16vectorIN6loguru8CallbackENS_9allocatorIS2_EEE3endEv
	mov	qword ptr [rbp - 40], rax
LBB154_6:                               
	lea	rdi, [rbp - 32]
	lea	rsi, [rbp - 40]
	call	__ZNSt3__1neIPN6loguru8CallbackEEEbRKNS_11__wrap_iterIT_EES8_
	test	al, 1
	jne	LBB154_7
	jmp	LBB154_13
LBB154_7:                               
	lea	rdi, [rbp - 32]
	call	__ZNKSt3__111__wrap_iterIPN6loguru8CallbackEEdeEv
	mov	qword ptr [rbp - 48], rax
	mov	rax, qword ptr [rbp - 88] 
	mov	ecx, dword ptr [rax]
	mov	rdx, qword ptr [rbp - 48]
	cmp	ecx, dword ptr [rdx + 40]
	jg	LBB154_11

	mov	rax, qword ptr [rbp - 48]
	cmp	dword ptr [rax + 64], 0
	jbe	LBB154_10

	mov	rax, qword ptr [rbp - 48]
	mov	ecx, dword ptr [rax + 64]
	add	ecx, -1
	mov	dword ptr [rax + 64], ecx
LBB154_10:                              
	jmp	LBB154_11
LBB154_11:                              
	jmp	LBB154_12
LBB154_12:                              
	lea	rdi, [rbp - 32]
	call	__ZNSt3__111__wrap_iterIPN6loguru8CallbackEEppEv
	jmp	LBB154_6
LBB154_13:
Ltmp346:
	call	__ZN6loguruL6now_nsEv
Ltmp347:
	mov	qword ptr [rbp - 96], rax 
	jmp	LBB154_14
LBB154_14:
	mov	rax, qword ptr [rbp - 88] 
	mov	rcx, qword ptr [rax + 24]
	mov	rdx, qword ptr [rbp - 96] 
	sub	rdx, rcx
	cvtsi2sd	xmm0, rdx
	movsd	xmm1, qword ptr [rip + LCPI154_0] 
	divsd	xmm0, xmm1
	movsd	qword ptr [rbp - 56], xmm0
	movsd	xmm0, qword ptr [rbp - 56] 
	add	rax, 32
Ltmp348:
	lea	rsi, [rip + L_.str.103]
	lea	rdi, [rbp - 80]
	mov	edx, 3
	mov	r8b, 1
	mov	rcx, rax
	mov	al, r8b
	call	__ZN6loguru10textprintfEPKcz
Ltmp349:
	jmp	LBB154_15
LBB154_15:
	mov	rax, qword ptr [rbp - 88] 
	mov	esi, dword ptr [rax]
	mov	rdx, qword ptr [rax + 8]
	mov	ecx, dword ptr [rax + 16]
Ltmp351:
	lea	rdi, [rbp - 80]
	mov	dword ptr [rbp - 100], esi 
	mov	qword ptr [rbp - 112], rdx 
	mov	dword ptr [rbp - 116], ecx 
	call	__ZNK6loguru4Text5c_strEv
Ltmp352:
	mov	qword ptr [rbp - 128], rax 
	jmp	LBB154_16
LBB154_16:
Ltmp353:
	lea	r8, [rip + L_.str.104]
	mov	edi, 1
	mov	esi, dword ptr [rbp - 100] 
	mov	rdx, qword ptr [rbp - 112] 
	mov	ecx, dword ptr [rbp - 116] 
	mov	r9, qword ptr [rbp - 128] 
	call	__ZN6loguru17log_to_everywhereEiiPKcjS1_S1_
Ltmp354:
	jmp	LBB154_17
LBB154_17:
	lea	rdi, [rbp - 80]
	call	__ZN6loguru4TextD1Ev
	lea	rdi, [rbp - 16]
	call	__ZNSt3__110lock_guardINS_15recursive_mutexEED1Ev
	jmp	LBB154_21
LBB154_18:
Ltmp350:
                                        
	mov	qword ptr [rbp - 64], rax
	mov	dword ptr [rbp - 68], edx
	jmp	LBB154_20
LBB154_19:
Ltmp355:
                                        
	mov	qword ptr [rbp - 64], rax
	mov	dword ptr [rbp - 68], edx
	lea	rdi, [rbp - 80]
	call	__ZN6loguru4TextD1Ev
LBB154_20:
	lea	rdi, [rbp - 16]
	call	__ZNSt3__110lock_guardINS_15recursive_mutexEED1Ev
	jmp	LBB154_23
LBB154_21:
	add	rsp, 144
	pop	rbp
	ret
LBB154_22:
Ltmp345:
	mov	rdi, rax
	mov	qword ptr [rbp - 136], rdx 
	call	___clang_call_terminate
LBB154_23:
	mov	rdi, qword ptr [rbp - 64]
	call	___clang_call_terminate
Lfunc_end25:
	.cfi_endproc
	.section	__TEXT,__gcc_except_tab
	.p2align	2
GCC_except_table154:
Lexception25:
	.byte	255                     
	.byte	155                     
	.uleb128 Lttbase3-Lttbaseref3
Lttbaseref3:
	.byte	1                       
	.uleb128 Lcst_end25-Lcst_begin25
Lcst_begin25:
	.uleb128 Ltmp343-Lfunc_begin25  
	.uleb128 Ltmp344-Ltmp343        
	.uleb128 Ltmp345-Lfunc_begin25  
	.byte	1                       
	.uleb128 Ltmp346-Lfunc_begin25  
	.uleb128 Ltmp349-Ltmp346        
	.uleb128 Ltmp350-Lfunc_begin25  
	.byte	1                       
	.uleb128 Ltmp351-Lfunc_begin25  
	.uleb128 Ltmp354-Ltmp351        
	.uleb128 Ltmp355-Lfunc_begin25  
	.byte	1                       
