	.section	__TEXT,__text,regular,pure_instructions
	.build_version macos, 11, 0	sdk_version 11, 1
	.intel_syntax noprefix
	.p2align	4, 0x90         
__ZNSt3__16vectorIN6loguru8CallbackENS_9allocatorIS2_EEED1Ev: 
	.cfi_startproc

	push	rbp
	.cfi_def_cfa_offset 16
	.cfi_offset rbp, -16
	mov	rbp, rsp
	.cfi_def_cfa_register rbp
	push	r15
	push	r14
	push	rbx
	push	rax
	.cfi_offset rbx, -40
	.cfi_offset r14, -32
	.cfi_offset r15, -24
	mov	r15, qword ptr [rdi]
	test	r15, r15
	je	LBB0_8

	mov	r14, rdi
	mov	rax, qword ptr [rdi + 8]
	cmp	rax, r15
	jne	LBB0_3

	mov	rdi, r15
	jmp	LBB0_7
	.p2align	4, 0x90
LBB0_5:                                 
	mov	rax, rbx
	cmp	r15, rbx
	je	LBB0_6
LBB0_3:                                 
	lea	rbx, [rax - 72]
	test	byte ptr [rax - 72], 1
	je	LBB0_5

	mov	rdi, qword ptr [rax - 56]
	call	__ZdlPv
	jmp	LBB0_5
LBB0_6:
	mov	rdi, qword ptr [r14]
LBB0_7:
	mov	qword ptr [r14 + 8], r15
	add	rsp, 8
	pop	rbx
	pop	r14
	pop	r15
	pop	rbp
	jmp	__ZdlPv                 
LBB0_8:
	add	rsp, 8
	pop	rbx
	pop	r14
	pop	r15
	pop	rbp
	ret
	.cfi_endproc
                                        
	.p2align	4, 0x90         
__ZNSt3__16vectorINS_4pairINS_12basic_stringIcNS_11char_traitsIcEENS_9allocatorIcEEEES7_EENS5_IS8_EEED1Ev: 
	.cfi_startproc

	push	rbp
	.cfi_def_cfa_offset 16
	.cfi_offset rbp, -16
	mov	rbp, rsp
	.cfi_def_cfa_register rbp
	push	r15
	push	r14
	push	r12
	push	rbx
	.cfi_offset rbx, -48
	.cfi_offset r12, -40
	.cfi_offset r14, -32
	.cfi_offset r15, -24
	mov	r15, qword ptr [rdi]
	test	r15, r15
	je	LBB1_10

	mov	r14, rdi
	mov	rbx, qword ptr [rdi + 8]
	cmp	rbx, r15
	jne	LBB1_3

	mov	rdi, r15
	jmp	LBB1_9
	.p2align	4, 0x90
LBB1_7:                                 
	mov	rbx, r12
	cmp	r15, r12
	je	LBB1_8
LBB1_3:                                 
	test	byte ptr [rbx - 24], 1
	je	LBB1_5

	mov	rdi, qword ptr [rbx - 8]
	call	__ZdlPv
LBB1_5:                                 
	lea	r12, [rbx - 48]
	test	byte ptr [rbx - 48], 1
	je	LBB1_7

	mov	rdi, qword ptr [rbx - 32]
	call	__ZdlPv
	jmp	LBB1_7
LBB1_8:
	mov	rdi, qword ptr [r14]
LBB1_9:
	mov	qword ptr [r14 + 8], r15
	pop	rbx
	pop	r12
	pop	r14
	pop	r15
	pop	rbp
	jmp	__ZdlPv                 
LBB1_10:
	pop	rbx
	pop	r12
	pop	r14
	pop	r15
	pop	rbp
	ret
	.cfi_endproc
                                        
	.globl	__ZN6loguru18terminal_has_colorEv 
	.p2align	4, 0x90
__ZN6loguru18terminal_has_colorEv:      

	push	rbp
	mov	rbp, rsp
	mov	al, byte ptr [rip + __ZN6loguruL20s_terminal_has_colorE]
	pop	rbp
	ret
                                        
	.globl	__ZN6loguru14terminal_blackEv 
	.p2align	4, 0x90
__ZN6loguru14terminal_blackEv:          

	push	rbp
	mov	rbp, rsp
	cmp	byte ptr [rip + __ZN6loguruL20s_terminal_has_colorE], 0
	lea	rcx, [rip + L_.str.8]
	lea	rax, [rip + L_.str]
	cmove	rax, rcx
	pop	rbp
	ret
                                        
	.globl	__ZN6loguru12terminal_redEv 
	.p2align	4, 0x90
__ZN6loguru12terminal_redEv:            

	push	rbp
	mov	rbp, rsp
	cmp	byte ptr [rip + __ZN6loguruL20s_terminal_has_colorE], 0
	lea	rcx, [rip + L_.str.8]
	lea	rax, [rip + L_.str.9]
	cmove	rax, rcx
	pop	rbp
	ret
                                        
	.globl	__ZN6loguru14terminal_greenEv 
	.p2align	4, 0x90
__ZN6loguru14terminal_greenEv:          

	push	rbp
	mov	rbp, rsp
	cmp	byte ptr [rip + __ZN6loguruL20s_terminal_has_colorE], 0
	lea	rcx, [rip + L_.str.8]
	lea	rax, [rip + L_.str.10]
	cmove	rax, rcx
	pop	rbp
	ret
                                        
	.globl	__ZN6loguru15terminal_yellowEv 
	.p2align	4, 0x90
__ZN6loguru15terminal_yellowEv:         

	push	rbp
	mov	rbp, rsp
	cmp	byte ptr [rip + __ZN6loguruL20s_terminal_has_colorE], 0
	lea	rcx, [rip + L_.str.8]
	lea	rax, [rip + L_.str.11]
	cmove	rax, rcx
	pop	rbp
	ret
                                        
	.globl	__ZN6loguru13terminal_blueEv 
	.p2align	4, 0x90
__ZN6loguru13terminal_blueEv:           

	push	rbp
	mov	rbp, rsp
	cmp	byte ptr [rip + __ZN6loguruL20s_terminal_has_colorE], 0
	lea	rcx, [rip + L_.str.8]
	lea	rax, [rip + L_.str.12]
	cmove	rax, rcx
	pop	rbp
	ret
                                        
	.globl	__ZN6loguru15terminal_purpleEv 
	.p2align	4, 0x90
__ZN6loguru15terminal_purpleEv:         

	push	rbp
	mov	rbp, rsp
	cmp	byte ptr [rip + __ZN6loguruL20s_terminal_has_colorE], 0
	lea	rcx, [rip + L_.str.8]
	lea	rax, [rip + L_.str.13]
	cmove	rax, rcx
	pop	rbp
	ret
                                        
	.globl	__ZN6loguru13terminal_cyanEv 
	.p2align	4, 0x90
__ZN6loguru13terminal_cyanEv:           

	push	rbp
	mov	rbp, rsp
	cmp	byte ptr [rip + __ZN6loguruL20s_terminal_has_colorE], 0
	lea	rcx, [rip + L_.str.8]
	lea	rax, [rip + L_.str.14]
	cmove	rax, rcx
	pop	rbp
	ret
                                        
	.globl	__ZN6loguru19terminal_light_grayEv 
	.p2align	4, 0x90
__ZN6loguru19terminal_light_grayEv:     

	push	rbp
	mov	rbp, rsp
	cmp	byte ptr [rip + __ZN6loguruL20s_terminal_has_colorE], 0
	lea	rcx, [rip + L_.str.8]
	lea	rax, [rip + L_.str.15]
	cmove	rax, rcx
	pop	rbp
	ret
                                        
	.globl	__ZN6loguru14terminal_whiteEv 
	.p2align	4, 0x90
__ZN6loguru14terminal_whiteEv:          

	push	rbp
	mov	rbp, rsp
	cmp	byte ptr [rip + __ZN6loguruL20s_terminal_has_colorE], 0
	lea	rcx, [rip + L_.str.8]
	lea	rax, [rip + L_.str.15]
	cmove	rax, rcx
	pop	rbp
	ret
                                        
	.globl	__ZN6loguru18terminal_light_redEv 
	.p2align	4, 0x90
__ZN6loguru18terminal_light_redEv:      

	push	rbp
	mov	rbp, rsp
	cmp	byte ptr [rip + __ZN6loguruL20s_terminal_has_colorE], 0
	lea	rcx, [rip + L_.str.8]
	lea	rax, [rip + L_.str.16]
	cmove	rax, rcx
	pop	rbp
	ret
                                        
	.globl	__ZN6loguru12terminal_dimEv 
	.p2align	4, 0x90
__ZN6loguru12terminal_dimEv:            

	push	rbp
	mov	rbp, rsp
	cmp	byte ptr [rip + __ZN6loguruL20s_terminal_has_colorE], 0
	lea	rcx, [rip + L_.str.8]
	lea	rax, [rip + L_.str.17]
	cmove	rax, rcx
	pop	rbp
	ret
                                        
	.globl	__ZN6loguru13terminal_boldEv 
	.p2align	4, 0x90
__ZN6loguru13terminal_boldEv:           

	push	rbp
	mov	rbp, rsp
	cmp	byte ptr [rip + __ZN6loguruL20s_terminal_has_colorE], 0
	lea	rcx, [rip + L_.str.8]
	lea	rax, [rip + L_.str.18]
	cmove	rax, rcx
	pop	rbp
	ret
                                        
	.globl	__ZN6loguru18terminal_underlineEv 
	.p2align	4, 0x90
__ZN6loguru18terminal_underlineEv:      

	push	rbp
	mov	rbp, rsp
	cmp	byte ptr [rip + __ZN6loguruL20s_terminal_has_colorE], 0
	lea	rcx, [rip + L_.str.8]
	lea	rax, [rip + L_.str.19]
	cmove	rax, rcx
	pop	rbp
	ret
                                        
	.globl	__ZN6loguru14terminal_resetEv 
	.p2align	4, 0x90
__ZN6loguru14terminal_resetEv:          

	push	rbp
	mov	rbp, rsp
	cmp	byte ptr [rip + __ZN6loguruL20s_terminal_has_colorE], 0
	lea	rcx, [rip + L_.str.8]
	lea	rax, [rip + L_.str.20]
	cmove	rax, rcx
	pop	rbp
	ret
                                        
	.globl	__ZN6loguru8file_logEPvRKNS_7MessageE 
	.p2align	4, 0x90
__ZN6loguru8file_logEPvRKNS_7MessageE:  

	push	rbp
	mov	rbp, rsp
	push	rbx
	push	rax
	mov	rbx, rdi
	mov	rdx, qword ptr [rsi + 24]
	mov	rcx, qword ptr [rsi + 32]
	mov	r8, qword ptr [rsi + 40]
	mov	r9, qword ptr [rsi + 48]
	lea	rsi, [rip + L_.str.21]
	xor	eax, eax
	call	_fprintf
	cmp	dword ptr [rip + __ZN6loguru19g_flush_interval_msE], 0
	je	LBB17_2

	add	rsp, 8
	pop	rbx
	pop	rbp
	ret
LBB17_2:
	mov	rdi, rbx
	add	rsp, 8
	pop	rbx
	pop	rbp
	jmp	_fflush                 
                                        
	.globl	__ZN6loguru10file_closeEPv 
	.p2align	4, 0x90
__ZN6loguru10file_closeEPv:             

	push	rbp
	mov	rbp, rsp
	test	rdi, rdi
	je	LBB18_1

	pop	rbp
	jmp	_fclose                 
LBB18_1:
	pop	rbp
	ret
                                        
	.globl	__ZN6loguru10file_flushEPv 
	.p2align	4, 0x90
__ZN6loguru10file_flushEPv:             

	push	rbp
	mov	rbp, rsp
	pop	rbp
	jmp	_fflush                 
                                        
	.globl	__ZN6loguru10syslog_logEPvRKNS_7MessageE 
	.p2align	4, 0x90
__ZN6loguru10syslog_logEPvRKNS_7MessageE: 
	.cfi_startproc

	push	rbp
	.cfi_def_cfa_offset 16
	.cfi_offset rbp, -16
	mov	rbp, rsp
	.cfi_def_cfa_register rbp
	mov	eax, dword ptr [rsi]
	lea	ecx, [rax + 3]
	lea	edx, [rax + 5]
	cmp	ecx, 5
	mov	ecx, 7
	cmovb	ecx, edx
	cmp	eax, -3
	mov	edi, 1
	cmovge	edi, ecx
	mov	rdx, qword ptr [rsi + 32]
	mov	rcx, qword ptr [rsi + 40]
	mov	r8, qword ptr [rsi + 48]
	lea	rsi, [rip + L_.str.22]
	xor	eax, eax
	call	_syslog$DARWIN_EXTSN
	pop	rbp
	ret
	.cfi_endproc
                                        
	.globl	__ZN6loguru12syslog_closeEPv 
	.p2align	4, 0x90
__ZN6loguru12syslog_closeEPv:           
	.cfi_startproc

	push	rbp
	.cfi_def_cfa_offset 16
	.cfi_offset rbp, -16
	mov	rbp, rsp
	.cfi_def_cfa_register rbp
	pop	rbp
	jmp	_closelog               
	.cfi_endproc
                                        
	.globl	__ZN6loguru12syslog_flushEPv 
	.p2align	4, 0x90
__ZN6loguru12syslog_flushEPv:           

	push	rbp
	mov	rbp, rsp
	pop	rbp
	ret
                                        
	.globl	__ZN6loguru4TextD2Ev    
	.p2align	4, 0x90
__ZN6loguru4TextD2Ev:                   
	.cfi_startproc

	push	rbp
	.cfi_def_cfa_offset 16
	.cfi_offset rbp, -16
	mov	rbp, rsp
	.cfi_def_cfa_register rbp
	mov	rdi, qword ptr [rdi]
	pop	rbp
	jmp	_free                   
	.cfi_endproc
                                        
	.private_extern	___clang_call_terminate 
	.globl	___clang_call_terminate
	.weak_def_can_be_hidden	___clang_call_terminate
	.p2align	4, 0x90
___clang_call_terminate:                

	push	rax
	call	___cxa_begin_catch
	call	__ZSt9terminatev
                                        
	.globl	__ZN6loguru4TextD1Ev    
	.p2align	4, 0x90
__ZN6loguru4TextD1Ev:                   
	.cfi_startproc

	push	rbp
	.cfi_def_cfa_offset 16
	.cfi_offset rbp, -16
	mov	rbp, rsp
	.cfi_def_cfa_register rbp
	mov	rdi, qword ptr [rdi]
	pop	rbp
	jmp	_free                   
	.cfi_endproc
                                        
	.globl	__ZN6loguru10textprintfEPKcz 
	.p2align	4, 0x90
__ZN6loguru10textprintfEPKcz:           
	.cfi_startproc

	push	rbp
	.cfi_def_cfa_offset 16
	.cfi_offset rbp, -16
	mov	rbp, rsp
	.cfi_def_cfa_register rbp
	push	r14
	push	rbx
	sub	rsp, 224
	.cfi_offset rbx, -32
	.cfi_offset r14, -24
	mov	r14, rsi
	mov	rbx, rdi
	test	al, al
	je	LBB26_2

	movaps	xmmword ptr [rbp - 192], xmm0
	movaps	xmmword ptr [rbp - 176], xmm1
	movaps	xmmword ptr [rbp - 160], xmm2
	movaps	xmmword ptr [rbp - 144], xmm3
	movaps	xmmword ptr [rbp - 128], xmm4
	movaps	xmmword ptr [rbp - 112], xmm5
	movaps	xmmword ptr [rbp - 96], xmm6
	movaps	xmmword ptr [rbp - 80], xmm7
LBB26_2:
	mov	qword ptr [rbp - 224], rdx
	mov	qword ptr [rbp - 216], rcx
	mov	qword ptr [rbp - 208], r8
	mov	qword ptr [rbp - 200], r9
	mov	rax, qword ptr [rip + ___stack_chk_guard@GOTPCREL]
	mov	rax, qword ptr [rax]
	mov	qword ptr [rbp - 24], rax
	lea	rax, [rbp - 240]
	mov	qword ptr [rbp - 32], rax
	lea	rax, [rbp + 16]
	mov	qword ptr [rbp - 40], rax
	movabs	rax, 206158430224
	mov	qword ptr [rbp - 48], rax
	mov	qword ptr [rbp - 56], 0
	lea	rdi, [rbp - 56]
	lea	rdx, [rbp - 48]
	mov	rsi, r14
	call	_vasprintf
	test	eax, eax
	js	LBB26_5

	mov	rax, qword ptr [rbp - 56]
	mov	qword ptr [rbx], rax
	mov	rax, qword ptr [rip + ___stack_chk_guard@GOTPCREL]
	mov	rax, qword ptr [rax]
	cmp	rax, qword ptr [rbp - 24]
	jne	LBB26_6

	mov	rax, rbx
	add	rsp, 224
	pop	rbx
	pop	r14
	pop	rbp
	ret
LBB26_6:
	call	___stack_chk_fail
LBB26_5:
	lea	rsi, [rip + L_.str.145]
	lea	rdx, [rip + L_.str.28]
	lea	r8, [rip + L_.str.146]
	xor	edi, edi
	mov	ecx, 433
	mov	r9, r14
	xor	eax, eax
	call	__ZN6loguru13log_and_abortEiPKcS1_jS1_z
	.cfi_endproc
                                        
	.globl	__ZN6loguru10textprintfEv 
	.p2align	4, 0x90
__ZN6loguru10textprintfEv:              

	push	rbp
	mov	rbp, rsp
	push	rbx
	push	rax
	mov	rbx, rdi
	mov	edi, 1
	mov	esi, 1
	call	_calloc
	mov	qword ptr [rbx], rax
	mov	rax, rbx
	add	rsp, 8
	pop	rbx
	pop	rbp
	ret
                                        
	.globl	__ZN6loguru8filenameEPKc 
	.p2align	4, 0x90
__ZN6loguru8filenameEPKc:               

	push	rbp
	mov	rbp, rsp
	mov	rax, rdi
	lea	rcx, [rdi + 1]
	jmp	LBB28_1
	.p2align	4, 0x90
LBB28_5:                                
	mov	rax, rcx
LBB28_6:                                
	inc	rcx
LBB28_1:                                
	movzx	edx, byte ptr [rcx - 1]
	cmp	dl, 47
	je	LBB28_5

	cmp	dl, 92
	je	LBB28_5

	test	dl, dl
	jne	LBB28_6

	pop	rbp
	ret
                                        
	.globl	__ZN6loguru13errno_as_textEv 
	.p2align	4, 0x90
__ZN6loguru13errno_as_textEv:           
	.cfi_startproc

	push	rbp
	.cfi_def_cfa_offset 16
	.cfi_offset rbp, -16
	mov	rbp, rsp
	.cfi_def_cfa_register rbp
	push	r14
	push	rbx
	sub	rsp, 272
	.cfi_offset rbx, -32
	.cfi_offset r14, -24
	mov	rbx, rdi
	mov	rax, qword ptr [rip + ___stack_chk_guard@GOTPCREL]
	mov	rax, qword ptr [rax]
	mov	qword ptr [rbp - 24], rax
	call	___error
	mov	edi, dword ptr [rax]
	lea	r14, [rbp - 288]
	mov	edx, 256
	mov	rsi, r14
	call	_strerror_r
	mov	rdi, r14
	call	_strdup
	mov	qword ptr [rbx], rax
	mov	rax, qword ptr [rip + ___stack_chk_guard@GOTPCREL]
	mov	rax, qword ptr [rax]
	cmp	rax, qword ptr [rbp - 24]
	jne	LBB29_2

	mov	rax, rbx
	add	rsp, 272
	pop	rbx
	pop	r14
	pop	rbp
	ret
LBB29_2:
	call	___stack_chk_fail
	.cfi_endproc
                                        
	.globl	__ZN6loguru4initERiPPcRKNS_7OptionsE 
	.p2align	4, 0x90
__ZN6loguru4initERiPPcRKNS_7OptionsE:   
Lfunc_begin0:
	.cfi_startproc
	.cfi_personality 155, ___gxx_personality_v0
	.cfi_lsda 16, Lexception0

	push	rbp
	.cfi_def_cfa_offset 16
	.cfi_offset rbp, -16
	mov	rbp, rsp
	.cfi_def_cfa_register rbp
	push	r15
	push	r14
	push	r13
	push	r12
	push	rbx
	sub	rsp, 360
	.cfi_offset rbx, -56
	.cfi_offset r12, -48
	.cfi_offset r13, -40
	.cfi_offset r14, -32
	.cfi_offset r15, -24
	mov	r14, rdx
	mov	rax, qword ptr [rip + ___stack_chk_guard@GOTPCREL]
	mov	rax, qword ptr [rax]
	mov	qword ptr [rbp - 48], rax
	mov	qword ptr [rbp - 320], rdi 
	mov	edx, dword ptr [rdi]
	test	edx, edx
	jle	LBB30_115

	cmp	qword ptr [rsi + 8*rdx], 0
	jne	LBB30_119

	mov	qword ptr [rbp - 328], rsi 
	mov	rsi, qword ptr [rsi]
	lea	rax, [rsi + 1]
	jmp	LBB30_5
	.p2align	4, 0x90
LBB30_3:                                
	mov	rsi, rax
LBB30_4:                                
	inc	rax
LBB30_5:                                
	movzx	ecx, byte ptr [rax - 1]
	cmp	cl, 47
	je	LBB30_3

	cmp	cl, 92
	je	LBB30_3

	test	cl, cl
	jne	LBB30_4

	lea	rdi, [rip + __ZN6loguruL16s_argv0_filenameE]
	call	__ZNSt3__112basic_stringIcNS_11char_traitsIcEENS_9allocatorIcEEE6assignEPKc
	lea	rdi, [rip + __ZN6loguruL13s_current_dirE]
	mov	esi, 1024
	call	_getcwd
	test	rax, rax
	jne	LBB30_12

	call	___error
	mov	edi, dword ptr [rax]
	lea	rbx, [rbp - 304]
	mov	edx, 256
	mov	rsi, rbx
	call	_strerror_r
	mov	rdi, rbx
	call	_strdup
	mov	rbx, rax
	mov	eax, dword ptr [rip + __ZN6loguru18g_stderr_verbosityE]
	mov	ecx, dword ptr [rip + __ZN6loguruL19s_max_out_verbosityE]
	cmp	eax, ecx
	cmovge	ecx, eax
	cmp	ecx, -1
	jl	LBB30_11

Ltmp24:
	lea	rsi, [rip + L_.str.28]
	lea	rcx, [rip + L_.str.33]
	mov	edi, -1
	mov	edx, 599
	mov	r8, rbx
	xor	eax, eax
	call	__ZN6loguru3logEiPKcjS1_z
Ltmp25:
LBB30_11:
	mov	rdi, rbx
	call	_free
LBB30_12:
	mov	qword ptr [rbp - 368], r14 
	lea	rdi, [rip + __ZN6loguruL11s_argumentsE]
	lea	rsi, [rip + L_.str.8]
	call	__ZNSt3__112basic_stringIcNS_11char_traitsIcEENS_9allocatorIcEEE6assignEPKc
	mov	rax, qword ptr [rbp - 320] 
	mov	r12d, dword ptr [rax]
	test	r12d, r12d
	mov	r13, qword ptr [rbp - 328] 
	jle	LBB30_48

	xor	ebx, ebx
	lea	r15, [rip + LJTI30_0]
	jmp	LBB30_15
	.p2align	4, 0x90
LBB30_14:                               
	cmp	rbx, rax
	jge	LBB30_48
LBB30_15:                               
                                        
	mov	r14, r13
	mov	r14, qword ptr [r13 + 8*rbx]
	mov	rdi, r14
	call	_strlen
	cmp	rax, -16
	jae	LBB30_110

	mov	r12, rax
	cmp	rax, 23
	mov	qword ptr [rbp - 336], rbx 
	jae	LBB30_18

	lea	eax, [r12 + r12]
	mov	byte ptr [rbp - 304], al
	lea	r13, [rbp - 303]
	test	r12, r12
	jne	LBB30_19
	jmp	LBB30_20
	.p2align	4, 0x90
LBB30_18:                               
	mov	rbx, r12
	add	rbx, 16
	and	rbx, -16
	mov	rdi, rbx
	call	__Znwm
	mov	r13, rax
	mov	qword ptr [rbp - 288], rax
	or	rbx, 1
	mov	qword ptr [rbp - 304], rbx
	mov	rbx, qword ptr [rbp - 336] 
	mov	qword ptr [rbp - 296], r12
LBB30_19:                               
	mov	rdi, r13
	mov	rsi, r14
	mov	rdx, r12
	call	_memcpy
LBB30_20:                               
	mov	byte ptr [r13 + r12], 0
	movzx	r14d, byte ptr [rbp - 304]
	mov	eax, r14d
	and	al, 1
	je	LBB30_22

	mov	r12, qword ptr [rbp - 288]
	mov	r14, qword ptr [rbp - 296]
	test	r14, r14
	jne	LBB30_23
	jmp	LBB30_44
	.p2align	4, 0x90
LBB30_22:                               
	shr	r14
	lea	r12, [rbp - 303]
	test	r14, r14
	je	LBB30_44
LBB30_23:                               
	xor	ebx, ebx
	jmp	LBB30_26
LBB30_24:                               
Ltmp33:
	lea	rdi, [rip + __ZN6loguruL11s_argumentsE]
	lea	rsi, [rip + L_.str.112]
	call	__ZNSt3__112basic_stringIcNS_11char_traitsIcEENS_9allocatorIcEEE6appendEPKc
Ltmp34:
	.p2align	4, 0x90
LBB30_25:                               
	inc	rbx
	cmp	r14, rbx
	je	LBB30_43
LBB30_26:                               
                                        
	movzx	r13d, byte ptr [r12 + rbx]
	lea	eax, [r13 - 7]
	cmp	al, 85
	ja	LBB30_38

	movzx	eax, al
	movsxd	rax, dword ptr [r15 + 4*rax]
	add	rax, r15
	jmp	rax
LBB30_28:                               
Ltmp47:
	lea	rdi, [rip + __ZN6loguruL11s_argumentsE]
	lea	rsi, [rip + L_.str.148]
	call	__ZNSt3__112basic_stringIcNS_11char_traitsIcEENS_9allocatorIcEEE6appendEPKc
Ltmp48:
	jmp	LBB30_25
LBB30_29:                               
Ltmp35:
	lea	rdi, [rip + __ZN6loguruL11s_argumentsE]
	lea	rsi, [rip + L_.str.149]
	call	__ZNSt3__112basic_stringIcNS_11char_traitsIcEENS_9allocatorIcEEE6appendEPKc
Ltmp36:
	jmp	LBB30_25
LBB30_30:                               
Ltmp43:
	lea	rdi, [rip + __ZN6loguruL11s_argumentsE]
	lea	rsi, [rip + L_.str.117]
	call	__ZNSt3__112basic_stringIcNS_11char_traitsIcEENS_9allocatorIcEEE6appendEPKc
Ltmp44:
	jmp	LBB30_25
LBB30_31:                               
Ltmp41:
	lea	rdi, [rip + __ZN6loguruL11s_argumentsE]
	lea	rsi, [rip + L_.str.118]
	call	__ZNSt3__112basic_stringIcNS_11char_traitsIcEENS_9allocatorIcEEE6appendEPKc
Ltmp42:
	jmp	LBB30_25
LBB30_32:                               
Ltmp37:
	lea	rdi, [rip + __ZN6loguruL11s_argumentsE]
	lea	rsi, [rip + L_.str.120]
	call	__ZNSt3__112basic_stringIcNS_11char_traitsIcEENS_9allocatorIcEEE6appendEPKc
Ltmp38:
	jmp	LBB30_25
LBB30_33:                               
Ltmp45:
	lea	rdi, [rip + __ZN6loguruL11s_argumentsE]
	lea	rsi, [rip + L_.str.116]
	call	__ZNSt3__112basic_stringIcNS_11char_traitsIcEENS_9allocatorIcEEE6appendEPKc
Ltmp46:
	jmp	LBB30_25
LBB30_34:                               
Ltmp39:
	lea	rdi, [rip + __ZN6loguruL11s_argumentsE]
	lea	rsi, [rip + L_.str.119]
	call	__ZNSt3__112basic_stringIcNS_11char_traitsIcEENS_9allocatorIcEEE6appendEPKc
Ltmp40:
	jmp	LBB30_25
LBB30_35:                               
Ltmp27:
	lea	rdi, [rip + __ZN6loguruL11s_argumentsE]
	lea	rsi, [rip + L_.str.150]
	call	__ZNSt3__112basic_stringIcNS_11char_traitsIcEENS_9allocatorIcEEE6appendEPKc
Ltmp28:
	jmp	LBB30_25
LBB30_36:                               
Ltmp31:
	lea	rdi, [rip + __ZN6loguruL11s_argumentsE]
	lea	rsi, [rip + L_.str.114]
	call	__ZNSt3__112basic_stringIcNS_11char_traitsIcEENS_9allocatorIcEEE6appendEPKc
Ltmp32:
	jmp	LBB30_25
LBB30_37:                               
Ltmp29:
	lea	rdi, [rip + __ZN6loguruL11s_argumentsE]
	lea	rsi, [rip + L_.str.113]
	call	__ZNSt3__112basic_stringIcNS_11char_traitsIcEENS_9allocatorIcEEE6appendEPKc
Ltmp30:
	jmp	LBB30_25
LBB30_38:                               
	cmp	r13b, 31
	ja	LBB30_42

Ltmp51:
	lea	rdi, [rip + __ZN6loguruL11s_argumentsE]
	lea	rsi, [rip + L_.str.151]
	call	__ZNSt3__112basic_stringIcNS_11char_traitsIcEENS_9allocatorIcEEE6appendEPKc
Ltmp52:

	mov	edi, r13d
	shr	edi, 4
Ltmp53:
	call	__ZN6loguruL15write_hex_digitERNSt3__112basic_stringIcNS0_11char_traitsIcEENS0_9allocatorIcEEEEj
Ltmp54:

	and	r13d, 15
Ltmp55:
	mov	edi, r13d
	call	__ZN6loguruL15write_hex_digitERNSt3__112basic_stringIcNS0_11char_traitsIcEENS0_9allocatorIcEEEEj
Ltmp56:
	jmp	LBB30_25
LBB30_42:                               
Ltmp49:
	movsx	esi, r13b
	lea	rdi, [rip + __ZN6loguruL11s_argumentsE]
	call	__ZNSt3__112basic_stringIcNS_11char_traitsIcEENS_9allocatorIcEEE9push_backEc
Ltmp50:
	jmp	LBB30_25
	.p2align	4, 0x90
LBB30_43:                               
	mov	al, byte ptr [rbp - 304]
	and	al, 1
	mov	rbx, qword ptr [rbp - 336] 
LBB30_44:                               
	test	al, al
	je	LBB30_46

	mov	rdi, qword ptr [rbp - 288]
	call	__ZdlPv
LBB30_46:                               
	inc	rbx
	mov	rax, qword ptr [rbp - 320] 
	mov	r12d, dword ptr [rax]
	movsxd	rax, r12d
	cmp	rbx, rax
	mov	r13, qword ptr [rbp - 328] 
	jge	LBB30_14

	lea	rdi, [rip + __ZN6loguruL11s_argumentsE]
	lea	rsi, [rip + L_.str.34]
	call	__ZNSt3__112basic_stringIcNS_11char_traitsIcEENS_9allocatorIcEEE6appendEPKc
	mov	rax, qword ptr [rbp - 320] 
	mov	r12d, dword ptr [rax]
	movsxd	rax, r12d
	jmp	LBB30_14
LBB30_48:
	mov	rax, qword ptr [rbp - 368] 
	mov	rax, qword ptr [rax]
	mov	qword ptr [rbp - 376], rax 
	test	rax, rax
	je	LBB30_71

	cmp	r12d, 2
	jl	LBB30_70

	mov	dword ptr [rbp - 356], 1 
	mov	ebx, 1
	jmp	LBB30_54
LBB30_51:                               
	mov	dword ptr [rip + __ZN6loguru18g_stderr_verbosityE], eax
LBB30_52:                               
	mov	r13, r14
LBB30_53:                               
	inc	ebx
	mov	rax, qword ptr [rbp - 320] 
	cmp	ebx, dword ptr [rax]
	jge	LBB30_70
LBB30_54:                               
	mov	dword ptr [rbp - 336], r12d 
	movsxd	r14, ebx
	mov	r13, qword ptr [r13 + 8*r14]
	mov	r12, qword ptr [rbp - 376] 
	mov	rdi, r12
	call	_strlen
	mov	r15, rax
	mov	rdi, r13
	mov	rsi, r12
	mov	rdx, rax
	call	_strncmp
	test	eax, eax
	je	LBB30_57

	mov	r12d, dword ptr [rbp - 336] 
LBB30_56:                               
	mov	ecx, dword ptr [rbp - 356] 
	movsxd	rax, ecx
	inc	ecx
	mov	dword ptr [rbp - 356], ecx 
	mov	r15, qword ptr [rbp - 328] 
	mov	qword ptr [r15 + 8*rax], r13
	mov	r13, r15
	jmp	LBB30_53
	.p2align	4, 0x90
LBB30_57:                               
	mov	qword ptr [rbp - 384], r14 
	movzx	r14d, byte ptr [r13 + r15]
	lea	r12, [rbp - 304]
	mov	rdi, r12
	lea	rsi, [rip + L_.str.8]
	call	__ZNSt3__16localeC1EPKc
Ltmp58:
	mov	rdi, r12
	mov	rsi, qword ptr [rip + __ZNSt3__15ctypeIcE2idE@GOTPCREL]
	call	__ZNKSt3__16locale9use_facetERNS0_2idE
Ltmp59:

	test	r14b, r14b
	mov	r12d, dword ptr [rbp - 336] 
	js	LBB30_61

	mov	rax, qword ptr [rax + 16]
	mov	r14d, dword ptr [rax + 4*r14]
	lea	rdi, [rbp - 304]
	call	__ZNSt3__16localeD1Ev
	test	r14d, 256
	je	LBB30_62

	mov	rax, qword ptr [rbp - 384] 
	mov	rcx, qword ptr [rbp - 328] 
	mov	r13, qword ptr [rcx + 8*rax]
	jmp	LBB30_56
LBB30_61:                               
	lea	rdi, [rbp - 304]
	call	__ZNSt3__16localeD1Ev
LBB30_62:                               
	add	r13, r15
	movzx	eax, byte ptr [r13]
	test	al, al
	mov	r14, qword ptr [rbp - 328] 
	je	LBB30_64

	dec	r12d
	jmp	LBB30_66
LBB30_64:                               
	inc	ebx
	mov	rax, qword ptr [rbp - 320] 
	mov	r15d, dword ptr [rax]
	cmp	ebx, r15d
	jge	LBB30_111

	movsxd	rax, ebx
	mov	r13, qword ptr [r14 + 8*rax]
	add	r12d, -2
	movzx	eax, byte ptr [r13]
LBB30_66:                               
	lea	r15, [r13 + 1]
	cmp	al, 61
	cmovne	r15, r13
	mov	rdi, r15
	call	__ZN6loguru23get_verbosity_from_nameEPKc
	cmp	eax, -10
	jne	LBB30_51

	mov	qword ptr [rbp - 304], 0
	mov	rdi, r15
	lea	rsi, [rbp - 304]
	mov	edx, 10
	call	_strtol
	mov	dword ptr [rip + __ZN6loguru18g_stderr_verbosityE], eax
	mov	rax, qword ptr [rbp - 304]
	test	rax, rax
	je	LBB30_69

	cmp	byte ptr [rax], 0
	je	LBB30_52
LBB30_69:
	lea	rsi, [rip + L_.str.157]
	lea	rdx, [rip + L_.str.28]
	lea	r8, [rip + L_.str.158]
	xor	edi, edi
	mov	ecx, 495
	mov	r9, r15
	xor	eax, eax
	call	__ZN6loguru13log_and_abortEiPKcS1_jS1_z
LBB30_70:
	mov	rax, qword ptr [rbp - 320] 
	mov	dword ptr [rax], r12d
	movsxd	rax, r12d
	mov	qword ptr [r13 + 8*rax], 0
LBB30_71:
	mov	r14, qword ptr [rbp - 368] 
	mov	rbx, qword ptr [r14 + 8]
	test	rbx, rbx
	je	LBB30_74

	xorps	xmm0, xmm0
	movaps	xmmword ptr [rbp - 304], xmm0
	call	_pthread_self
	lea	rsi, [rbp - 304]
	mov	edx, 16
	mov	rdi, rax
	call	_pthread_getname_np
	cmp	byte ptr [rbp - 304], 0
	jne	LBB30_74

	mov	rdi, rbx
	call	_pthread_setname_np
LBB30_74:
	mov	eax, dword ptr [rip + __ZN6loguru18g_stderr_verbosityE]
	test	eax, eax
	js	LBB30_81

	cmp	byte ptr [rip + __ZN6loguru17g_preamble_headerE], 0
	je	LBB30_80

	lea	rdi, [rbp - 304]
	call	__ZN6loguruL21print_preamble_headerEPcm
	cmp	byte ptr [rip + __ZN6loguru18g_colorlogtostderrE], 0
	mov	rax, qword ptr [rip + ___stderrp@GOTPCREL]
	mov	rdi, qword ptr [rax]
	je	LBB30_79

	cmp	byte ptr [rip + __ZN6loguruL20s_terminal_has_colorE], 0
	je	LBB30_79

	lea	rsi, [rip + L_.str.35]
	lea	rdx, [rip + L_.str.20]
	lea	rcx, [rip + L_.str.17]
	lea	r8, [rbp - 304]
	xor	eax, eax
	call	_fprintf
	jmp	LBB30_80
LBB30_79:
	lea	rsi, [rip + L_.str.36]
	lea	rdx, [rbp - 304]
	xor	eax, eax
	call	_fprintf
LBB30_80:
	mov	rax, qword ptr [rip + ___stderrp@GOTPCREL]
	mov	rdi, qword ptr [rax]
	call	_fflush
	mov	eax, dword ptr [rip + __ZN6loguru18g_stderr_verbosityE]
LBB30_81:
	mov	edi, dword ptr [rip + __ZN6loguru20g_internal_verbosityE]
	mov	ecx, dword ptr [rip + __ZN6loguruL19s_max_out_verbosityE]
	cmp	eax, ecx
	cmovge	ecx, eax
	cmp	edi, ecx
	jg	LBB30_86

	test	byte ptr [rip + __ZN6loguruL11s_argumentsE], 1
	je	LBB30_84

	mov	r8, qword ptr [rip + __ZN6loguruL11s_argumentsE+16]
	jmp	LBB30_85
LBB30_84:
	lea	r8, [rip + __ZN6loguruL11s_argumentsE+1]
LBB30_85:
	lea	rsi, [rip + L_.str.28]
	lea	rcx, [rip + L_.str.37]
	mov	edx, 647
	xor	eax, eax
	call	__ZN6loguru3logEiPKcjS1_z
LBB30_86:
	lea	rdi, [rip + __ZN6loguruL13s_current_dirE]
	call	_strlen
	test	rax, rax
	je	LBB30_89

	mov	edi, dword ptr [rip + __ZN6loguru20g_internal_verbosityE]
	mov	eax, dword ptr [rip + __ZN6loguru18g_stderr_verbosityE]
	mov	ecx, dword ptr [rip + __ZN6loguruL19s_max_out_verbosityE]
	cmp	eax, ecx
	cmovge	ecx, eax
	cmp	edi, ecx
	jg	LBB30_89

	lea	rsi, [rip + L_.str.28]
	lea	rcx, [rip + L_.str.38]
	lea	r8, [rip + __ZN6loguruL13s_current_dirE]
	mov	edx, 650
	xor	eax, eax
	call	__ZN6loguru3logEiPKcjS1_z
LBB30_89:
	mov	edi, dword ptr [rip + __ZN6loguru20g_internal_verbosityE]
	mov	r8d, dword ptr [rip + __ZN6loguru18g_stderr_verbosityE]
	mov	eax, dword ptr [rip + __ZN6loguruL19s_max_out_verbosityE]
	cmp	r8d, eax
	mov	ecx, eax
	cmovge	ecx, r8d
	cmp	edi, ecx
	jg	LBB30_91

	lea	rsi, [rip + L_.str.28]
	lea	rcx, [rip + L_.str.39]
	mov	edx, 652
	xor	eax, eax
	call	__ZN6loguru3logEiPKcjS1_z
	mov	edi, dword ptr [rip + __ZN6loguru20g_internal_verbosityE]
	mov	r8d, dword ptr [rip + __ZN6loguru18g_stderr_verbosityE]
	mov	eax, dword ptr [rip + __ZN6loguruL19s_max_out_verbosityE]
LBB30_91:
	cmp	r8d, eax
	cmovge	eax, r8d
	cmp	edi, eax
	jg	LBB30_93

	lea	rsi, [rip + L_.str.28]
	lea	rcx, [rip + L_.str.40]
	mov	edx, 653
	xor	eax, eax
	call	__ZN6loguru3logEiPKcjS1_z
LBB30_93:
	mov	rax, qword ptr [r14 + 16]
	mov	qword ptr [rip + __ZN6loguruL16s_signal_optionsE], rax
	movabs	rax, 274877906944
	mov	qword ptr [rbp - 296], rax
	lea	rax, [rip + __ZN6loguru14signal_handlerEiP9__siginfoPv]
	mov	qword ptr [rbp - 304], rax
	cmp	byte ptr [r14 + 17], 0
	je	LBB30_95

	lea	rsi, [rbp - 304]
	mov	edi, 6
	xor	edx, edx
	call	_sigaction
	cmp	eax, -1
	je	LBB30_124
LBB30_95:
	cmp	byte ptr [r14 + 18], 0
	je	LBB30_97

	lea	rsi, [rbp - 304]
	mov	edi, 10
	xor	edx, edx
	call	_sigaction
	cmp	eax, -1
	je	LBB30_125
LBB30_97:
	cmp	byte ptr [r14 + 19], 0
	je	LBB30_99

	lea	rsi, [rbp - 304]
	mov	edi, 8
	xor	edx, edx
	call	_sigaction
	cmp	eax, -1
	je	LBB30_126
LBB30_99:
	cmp	byte ptr [r14 + 20], 0
	je	LBB30_101

	lea	rsi, [rbp - 304]
	mov	edi, 4
	xor	edx, edx
	call	_sigaction
	cmp	eax, -1
	je	LBB30_127
LBB30_101:
	cmp	byte ptr [r14 + 21], 0
	je	LBB30_103

	lea	rsi, [rbp - 304]
	mov	edi, 2
	xor	edx, edx
	call	_sigaction
	cmp	eax, -1
	je	LBB30_128
LBB30_103:
	cmp	byte ptr [r14 + 22], 0
	je	LBB30_105

	lea	rsi, [rbp - 304]
	mov	edi, 11
	xor	edx, edx
	call	_sigaction
	cmp	eax, -1
	je	LBB30_129
LBB30_105:
	cmp	byte ptr [r14 + 23], 0
	je	LBB30_107

	lea	rsi, [rbp - 304]
	mov	edi, 15
	xor	edx, edx
	call	_sigaction
	cmp	eax, -1
	je	LBB30_130
LBB30_107:
	lea	rdi, [rip + __ZN6loguruL9on_atexitEv]
	call	_atexit
	mov	rax, qword ptr [rip + ___stack_chk_guard@GOTPCREL]
	mov	rax, qword ptr [rax]
	cmp	rax, qword ptr [rbp - 48]
	jne	LBB30_109

	add	rsp, 360
	pop	rbx
	pop	r12
	pop	r13
	pop	r14
	pop	r15
	pop	rbp
	ret
LBB30_109:
	call	___stack_chk_fail
LBB30_110:
	lea	rdi, [rbp - 304]
	call	__ZNKSt3__121__basic_string_commonILb1EE20__throw_length_errorEv
LBB30_111:
	lea	r12, [rip + L_.str.147]
	lea	rdi, [rbp - 304]
	mov	rsi, r12
	mov	edx, ebx
	xor	eax, eax
	call	__ZN6loguru10textprintfEPKcz
Ltmp61:
	lea	rdi, [rbp - 352]
	mov	rsi, r12
	mov	edx, r15d
	xor	eax, eax
	call	__ZN6loguru10textprintfEPKcz
Ltmp62:

	mov	r15, qword ptr [rbp - 304]
	mov	r12, qword ptr [rbp - 352]
Ltmp64:
	mov	qword ptr [rsp + 8], r12
	lea	rcx, [rip + L_.str.153]
	mov	qword ptr [rsp], rcx
	lea	rsi, [rip + L_.str.23]
	lea	rdx, [rip + L_.str.155]
	lea	r8, [rip + L_.str.24]
	lea	rdi, [rbp - 312]
	mov	r9, r15
	xor	eax, eax
	call	__ZN6loguru10textprintfEPKcz
Ltmp65:

Ltmp67:
	lea	rsi, [rip + L_.str.156]
	lea	rdi, [rbp - 344]
	mov	rdx, qword ptr [rbp - 376] 
	xor	eax, eax
	call	__ZN6loguru10textprintfEPKcz
Ltmp68:

	mov	r14, qword ptr [rbp - 312]
	mov	rbx, qword ptr [rbp - 344]
Ltmp70:
	lea	rdx, [rip + L_.str.28]
	lea	r8, [rip + L_.str.29]
	xor	edi, edi
	mov	rsi, r14
	mov	ecx, 482
	mov	r9, rbx
	xor	eax, eax
	call	__ZN6loguru13log_and_abortEiPKcS1_jS1_z
Ltmp71:
	jmp	LBB30_123
LBB30_115:
	lea	rbx, [rip + L_.str.147]
	lea	rdi, [rbp - 304]
	mov	rsi, rbx
                                        
	xor	eax, eax
	call	__ZN6loguru10textprintfEPKcz
Ltmp0:
	lea	rdi, [rbp - 352]
	mov	rsi, rbx
	xor	edx, edx
	xor	eax, eax
	call	__ZN6loguru10textprintfEPKcz
Ltmp1:

	mov	r14, qword ptr [rbp - 304]
	mov	r15, qword ptr [rbp - 352]
Ltmp3:
	mov	qword ptr [rsp + 8], r15
	lea	rcx, [rip + L_.str.25]
	mov	qword ptr [rsp], rcx
	lea	rsi, [rip + L_.str.23]
	lea	rdx, [rip + L_.str.24]
	lea	r8, [rip + L_.str.26]
	lea	rdi, [rbp - 312]
	mov	r9, r14
	xor	eax, eax
	call	__ZN6loguru10textprintfEPKcz
Ltmp4:

Ltmp6:
	lea	rsi, [rip + L_.str.27]
	lea	rdi, [rbp - 344]
	xor	eax, eax
	call	__ZN6loguru10textprintfEPKcz
Ltmp7:

	mov	r12, qword ptr [rbp - 312]
	mov	rbx, qword ptr [rbp - 344]
Ltmp9:
	lea	rdx, [rip + L_.str.28]
	lea	r8, [rip + L_.str.29]
	xor	edi, edi
	mov	rsi, r12
	mov	ecx, 588
	mov	r9, rbx
	xor	eax, eax
	call	__ZN6loguru13log_and_abortEiPKcS1_jS1_z
Ltmp10:
	jmp	LBB30_123
LBB30_119:
	lea	rbx, [rip + L_.str.196]
	lea	rdi, [rbp - 304]
	mov	rsi, rbx
	xor	eax, eax
	call	__ZN6loguru10textprintfEPKcz
Ltmp12:
	lea	rdi, [rbp - 352]
	mov	rsi, rbx
	xor	eax, eax
	call	__ZN6loguru10textprintfEPKcz
Ltmp13:

	mov	r14, qword ptr [rbp - 304]
	mov	r15, qword ptr [rbp - 352]
Ltmp15:
	mov	qword ptr [rsp + 8], r15
	lea	rcx, [rip + L_.str.31]
	mov	qword ptr [rsp], rcx
	lea	rsi, [rip + L_.str.23]
	lea	rdx, [rip + L_.str.30]
	lea	r8, [rip + L_.str.32]
	lea	rdi, [rbp - 312]
	mov	r9, r14
	xor	eax, eax
	call	__ZN6loguru10textprintfEPKcz
Ltmp16:

Ltmp18:
	lea	rsi, [rip + L_.str.27]
	lea	rdi, [rbp - 344]
	xor	eax, eax
	call	__ZN6loguru10textprintfEPKcz
Ltmp19:

	mov	r12, qword ptr [rbp - 312]
	mov	rbx, qword ptr [rbp - 344]
Ltmp21:
	lea	rdx, [rip + L_.str.28]
	lea	r8, [rip + L_.str.29]
	xor	edi, edi
	mov	rsi, r12
	mov	ecx, 589
	mov	r9, rbx
	xor	eax, eax
	call	__ZN6loguru13log_and_abortEiPKcS1_jS1_z
Ltmp22:
LBB30_123:
	ud2
LBB30_124:
	lea	rsi, [rip + L_.str.182]
	lea	rdx, [rip + L_.str.28]
	lea	r8, [rip + L_.str.183]
	xor	edi, edi
	mov	ecx, 1934
	xor	eax, eax
	call	__ZN6loguru13log_and_abortEiPKcS1_jS1_z
LBB30_125:
	lea	rsi, [rip + L_.str.184]
	lea	rdx, [rip + L_.str.28]
	lea	r8, [rip + L_.str.185]
	xor	edi, edi
	mov	ecx, 1937
	xor	eax, eax
	call	__ZN6loguru13log_and_abortEiPKcS1_jS1_z
LBB30_126:
	lea	rsi, [rip + L_.str.186]
	lea	rdx, [rip + L_.str.28]
	lea	r8, [rip + L_.str.187]
	xor	edi, edi
	mov	ecx, 1940
	xor	eax, eax
	call	__ZN6loguru13log_and_abortEiPKcS1_jS1_z
LBB30_127:
	lea	rsi, [rip + L_.str.188]
	lea	rdx, [rip + L_.str.28]
	lea	r8, [rip + L_.str.189]
	xor	edi, edi
	mov	ecx, 1943
	xor	eax, eax
	call	__ZN6loguru13log_and_abortEiPKcS1_jS1_z
LBB30_128:
	lea	rsi, [rip + L_.str.190]
	lea	rdx, [rip + L_.str.28]
	lea	r8, [rip + L_.str.191]
	xor	edi, edi
	mov	ecx, 1946
	xor	eax, eax
	call	__ZN6loguru13log_and_abortEiPKcS1_jS1_z
LBB30_129:
	lea	rsi, [rip + L_.str.192]
	lea	rdx, [rip + L_.str.28]
	lea	r8, [rip + L_.str.193]
	xor	edi, edi
	mov	ecx, 1949
	xor	eax, eax
	call	__ZN6loguru13log_and_abortEiPKcS1_jS1_z
LBB30_130:
	lea	rsi, [rip + L_.str.194]
	lea	rdx, [rip + L_.str.28]
	lea	r8, [rip + L_.str.195]
	xor	edi, edi
	mov	ecx, 1952
	xor	eax, eax
	call	__ZN6loguru13log_and_abortEiPKcS1_jS1_z
LBB30_131:
Ltmp23:
	jmp	LBB30_136
LBB30_132:
Ltmp20:
	jmp	LBB30_138
LBB30_133:
Ltmp17:
	jmp	LBB30_141
LBB30_134:
Ltmp14:
	jmp	LBB30_144
LBB30_135:
Ltmp11:
LBB30_136:
	mov	r13, rax
	mov	rdi, rbx
	call	_free
	jmp	LBB30_139
LBB30_137:
Ltmp8:
LBB30_138:
	mov	r13, rax
	mov	r12, qword ptr [rbp - 312]
LBB30_139:
	mov	rdi, r12
	call	_free
	jmp	LBB30_142
LBB30_140:
Ltmp5:
LBB30_141:
	mov	r13, rax
LBB30_142:
	mov	rdi, r15
	call	_free
	mov	rdi, r14
	jmp	LBB30_152
LBB30_143:
Ltmp2:
	jmp	LBB30_144
LBB30_145:
Ltmp72:
	mov	r13, rax
	mov	rdi, rbx
	call	_free
	jmp	LBB30_147
LBB30_146:
Ltmp69:
	mov	r13, rax
	mov	r14, qword ptr [rbp - 312]
LBB30_147:
	mov	rdi, r14
	call	_free
	jmp	LBB30_149
LBB30_148:
Ltmp66:
	mov	r13, rax
LBB30_149:
	mov	rdi, r12
	call	_free
	mov	rdi, r15
	jmp	LBB30_152
LBB30_150:
Ltmp63:
LBB30_144:
	mov	r13, rax
	mov	rdi, qword ptr [rbp - 304]
	jmp	LBB30_152
LBB30_151:
Ltmp26:
	mov	r13, rax
	mov	rdi, rbx
LBB30_152:
	call	_free
	jmp	LBB30_156
LBB30_153:
Ltmp60:
	mov	r13, rax
	lea	rdi, [rbp - 304]
	call	__ZNSt3__16localeD1Ev
	jmp	LBB30_156
LBB30_154:
Ltmp57:
	mov	r13, rax
	test	byte ptr [rbp - 304], 1
	je	LBB30_156

	mov	rdi, qword ptr [rbp - 288]
	call	__ZdlPv
LBB30_156:
	mov	rdi, r13
	call	__Unwind_Resume
	ud2
Lfunc_end0:
	.cfi_endproc
	.p2align	2, 0x90
	.data_region jt32












LJTI30_0:
	.long	L30_0_set_28
	.long	L30_0_set_33
	.long	L30_0_set_32
	.long	L30_0_set_31
	.long	L30_0_set_29
	.long	L30_0_set_30
	.long	L30_0_set_34
	.long	L30_0_set_38
	.long	L30_0_set_38
	.long	L30_0_set_38
	.long	L30_0_set_38
	.long	L30_0_set_38
	.long	L30_0_set_38
	.long	L30_0_set_38
	.long	L30_0_set_38
	.long	L30_0_set_38
	.long	L30_0_set_38
	.long	L30_0_set_38
	.long	L30_0_set_38
	.long	L30_0_set_38
	.long	L30_0_set_38
	.long	L30_0_set_38
	.long	L30_0_set_38
	.long	L30_0_set_38
	.long	L30_0_set_38
	.long	L30_0_set_35
	.long	L30_0_set_38
	.long	L30_0_set_37
	.long	L30_0_set_38
	.long	L30_0_set_38
	.long	L30_0_set_38
	.long	L30_0_set_38
	.long	L30_0_set_36
	.long	L30_0_set_38
	.long	L30_0_set_38
	.long	L30_0_set_38
	.long	L30_0_set_38
	.long	L30_0_set_38
	.long	L30_0_set_38
	.long	L30_0_set_38
	.long	L30_0_set_38
	.long	L30_0_set_38
	.long	L30_0_set_38
	.long	L30_0_set_38
	.long	L30_0_set_38
	.long	L30_0_set_38
	.long	L30_0_set_38
	.long	L30_0_set_38
	.long	L30_0_set_38
	.long	L30_0_set_38
	.long	L30_0_set_38
	.long	L30_0_set_38
	.long	L30_0_set_38
	.long	L30_0_set_38
	.long	L30_0_set_38
	.long	L30_0_set_38
	.long	L30_0_set_38
	.long	L30_0_set_38
	.long	L30_0_set_38
	.long	L30_0_set_38
	.long	L30_0_set_38
	.long	L30_0_set_38
	.long	L30_0_set_38
	.long	L30_0_set_38
	.long	L30_0_set_38
	.long	L30_0_set_38
	.long	L30_0_set_38
	.long	L30_0_set_38
	.long	L30_0_set_38
	.long	L30_0_set_38
	.long	L30_0_set_38
	.long	L30_0_set_38
	.long	L30_0_set_38
	.long	L30_0_set_38
	.long	L30_0_set_38
	.long	L30_0_set_38
	.long	L30_0_set_38
	.long	L30_0_set_38
	.long	L30_0_set_38
	.long	L30_0_set_38
	.long	L30_0_set_38
	.long	L30_0_set_38
	.long	L30_0_set_38
	.long	L30_0_set_38
	.long	L30_0_set_38
	.long	L30_0_set_24
	.end_data_region
	.section	__TEXT,__gcc_except_tab
	.p2align	2
GCC_except_table30:
Lexception0:
	.byte	255                     
	.byte	255                     
	.byte	1                       
	.uleb128 Lcst_end0-Lcst_begin0
Lcst_begin0:
	.uleb128 Lfunc_begin0-Lfunc_begin0 
	.uleb128 Ltmp24-Lfunc_begin0    
	.byte	0                       
	.byte	0                       
	.uleb128 Ltmp24-Lfunc_begin0    
	.uleb128 Ltmp25-Ltmp24          
	.uleb128 Ltmp26-Lfunc_begin0    
	.byte	0                       
	.uleb128 Ltmp25-Lfunc_begin0    
	.uleb128 Ltmp33-Ltmp25          
	.byte	0                       
	.byte	0                       
	.uleb128 Ltmp33-Lfunc_begin0    
	.uleb128 Ltmp50-Ltmp33          
	.uleb128 Ltmp57-Lfunc_begin0    
	.byte	0                       
	.uleb128 Ltmp50-Lfunc_begin0    
	.uleb128 Ltmp58-Ltmp50          
	.byte	0                       
	.byte	0                       
	.uleb128 Ltmp58-Lfunc_begin0    
	.uleb128 Ltmp59-Ltmp58          
	.uleb128 Ltmp60-Lfunc_begin0    
	.byte	0                       
	.uleb128 Ltmp59-Lfunc_begin0    
	.uleb128 Ltmp61-Ltmp59          
	.byte	0                       
	.byte	0                       
	.uleb128 Ltmp61-Lfunc_begin0    
	.uleb128 Ltmp62-Ltmp61          
	.uleb128 Ltmp63-Lfunc_begin0    
	.byte	0                       
	.uleb128 Ltmp64-Lfunc_begin0    
	.uleb128 Ltmp65-Ltmp64          
	.uleb128 Ltmp66-Lfunc_begin0    
	.byte	0                       
	.uleb128 Ltmp67-Lfunc_begin0    
	.uleb128 Ltmp68-Ltmp67          
	.uleb128 Ltmp69-Lfunc_begin0    
	.byte	0                       
	.uleb128 Ltmp70-Lfunc_begin0    
	.uleb128 Ltmp71-Ltmp70          
	.uleb128 Ltmp72-Lfunc_begin0    
	.byte	0                       
	.uleb128 Ltmp71-Lfunc_begin0    
	.uleb128 Ltmp0-Ltmp71           
	.byte	0                       
	.byte	0                       
	.uleb128 Ltmp0-Lfunc_begin0     
	.uleb128 Ltmp1-Ltmp0            
	.uleb128 Ltmp2-Lfunc_begin0     
	.byte	0                       
	.uleb128 Ltmp3-Lfunc_begin0     
	.uleb128 Ltmp4-Ltmp3            
	.uleb128 Ltmp5-Lfunc_begin0     
	.byte	0                       
	.uleb128 Ltmp6-Lfunc_begin0     
	.uleb128 Ltmp7-Ltmp6            
	.uleb128 Ltmp8-Lfunc_begin0     
	.byte	0                       
	.uleb128 Ltmp9-Lfunc_begin0     
	.uleb128 Ltmp10-Ltmp9           
	.uleb128 Ltmp11-Lfunc_begin0    
	.byte	0                       
	.uleb128 Ltmp10-Lfunc_begin0    
	.uleb128 Ltmp12-Ltmp10          
	.byte	0                       
	.byte	0                       
	.uleb128 Ltmp12-Lfunc_begin0    
	.uleb128 Ltmp13-Ltmp12          
	.uleb128 Ltmp14-Lfunc_begin0    
	.byte	0                       
	.uleb128 Ltmp15-Lfunc_begin0    
	.uleb128 Ltmp16-Ltmp15          
	.uleb128 Ltmp17-Lfunc_begin0    
	.byte	0                       
	.uleb128 Ltmp18-Lfunc_begin0    
	.uleb128 Ltmp19-Ltmp18          
	.uleb128 Ltmp20-Lfunc_begin0    
	.byte	0                       
	.uleb128 Ltmp21-Lfunc_begin0    
	.uleb128 Ltmp22-Ltmp21          
	.uleb128 Ltmp23-Lfunc_begin0    
	.byte	0                       
	.uleb128 Ltmp22-Lfunc_begin0    
	.uleb128 Lfunc_end0-Ltmp22      
	.byte	0                       
	.byte	0                       
Lcst_end0:
	.p2align	2
                                        
	.section	__TEXT,__text,regular,pure_instructions
	.globl	__ZN6loguru13log_and_abortEiPKcS1_jS1_z 
	.p2align	4, 0x90
__ZN6loguru13log_and_abortEiPKcS1_jS1_z: 
Lfunc_begin1:
	.cfi_startproc
	.cfi_personality 155, ___gxx_personality_v0
	.cfi_lsda 16, Lexception1

	push	rbp
	.cfi_def_cfa_offset 16
	.cfi_offset rbp, -16
	mov	rbp, rsp
	.cfi_def_cfa_register rbp
	push	r15
	push	r14
	push	r13
	push	r12
	push	rbx
	sub	rsp, 376
	.cfi_offset rbx, -56
	.cfi_offset r12, -48
	.cfi_offset r13, -40
	.cfi_offset r14, -32
	.cfi_offset r15, -24
	mov	rbx, r8
	mov	r15d, ecx
	mov	r12, rdx
	mov	r14, rsi
	mov	r13d, edi
	test	al, al
	je	LBB31_2

	movaps	xmmword ptr [rbp - 272], xmm0
	movaps	xmmword ptr [rbp - 256], xmm1
	movaps	xmmword ptr [rbp - 240], xmm2
	movaps	xmmword ptr [rbp - 224], xmm3
	movaps	xmmword ptr [rbp - 208], xmm4
	movaps	xmmword ptr [rbp - 192], xmm5
	movaps	xmmword ptr [rbp - 176], xmm6
	movaps	xmmword ptr [rbp - 160], xmm7
LBB31_2:
	mov	qword ptr [rbp - 280], r9
	lea	rax, [rbp - 320]
	mov	qword ptr [rbp - 64], rax
	lea	rax, [rbp + 16]
	mov	qword ptr [rbp - 72], rax
	movabs	rax, 206158430248
	mov	qword ptr [rbp - 80], rax
	mov	qword ptr [rbp - 416], 0
	lea	rdi, [rbp - 416]
	lea	rdx, [rbp - 80]
	mov	rsi, rbx
	call	_vasprintf
	test	eax, eax
	js	LBB31_8

	mov	rax, qword ptr [rbp - 416]
	mov	qword ptr [rbp - 48], rax 
Ltmp73:
	lea	rbx, [rbp - 416]
	mov	rdi, rbx
	mov	esi, -3
	mov	rdx, r12
	mov	ecx, r15d
	call	__ZN6loguruL14print_preambleEPcmiPKcj
Ltmp74:

	mov	dword ptr [rbp - 136], -3
	mov	qword ptr [rbp - 128], r12
	mov	dword ptr [rbp - 120], r15d
	mov	qword ptr [rbp - 112], rbx
	lea	rax, [rip + L_.str.8]
	mov	qword ptr [rbp - 104], rax
	mov	qword ptr [rbp - 96], r14
	mov	rax, qword ptr [rbp - 48] 
	mov	qword ptr [rbp - 88], rax
	add	r13d, 2
Ltmp75:
	lea	rsi, [rbp - 136]
	mov	edi, r13d
	mov	edx, 1
	mov	ecx, 1
	call	__ZN6loguruL11log_messageEiRNS_7MessageEbb
Ltmp76:

Ltmp77:
	call	_abort
Ltmp78:

	ud2
LBB31_8:
	lea	rsi, [rip + L_.str.145]
	lea	rdx, [rip + L_.str.28]
	lea	r8, [rip + L_.str.146]
	xor	edi, edi
	mov	ecx, 433
	mov	r9, rbx
	xor	eax, eax
	call	__ZN6loguru13log_and_abortEiPKcS1_jS1_z
LBB31_7:
Ltmp79:
	mov	rbx, rax
	mov	rdi, qword ptr [rbp - 48] 
	call	_free
	mov	rdi, rbx
	call	__Unwind_Resume
	ud2
Lfunc_end1:
	.cfi_endproc
	.section	__TEXT,__gcc_except_tab
	.p2align	2
GCC_except_table31:
Lexception1:
	.byte	255                     
	.byte	255                     
	.byte	1                       
	.uleb128 Lcst_end1-Lcst_begin1
Lcst_begin1:
	.uleb128 Lfunc_begin1-Lfunc_begin1 
	.uleb128 Ltmp73-Lfunc_begin1    
	.byte	0                       
	.byte	0                       
	.uleb128 Ltmp73-Lfunc_begin1    
	.uleb128 Ltmp78-Ltmp73          
	.uleb128 Ltmp79-Lfunc_begin1    
	.byte	0                       
	.uleb128 Ltmp78-Lfunc_begin1    
	.uleb128 Lfunc_end1-Ltmp78      
	.byte	0                       
	.byte	0                       
Lcst_end1:
	.p2align	2
                                        
	.section	__TEXT,__text,regular,pure_instructions
	.globl	__ZN6loguru24current_verbosity_cutoffEv 
	.p2align	4, 0x90
__ZN6loguru24current_verbosity_cutoffEv: 

	push	rbp
	mov	rbp, rsp
	mov	ecx, dword ptr [rip + __ZN6loguru18g_stderr_verbosityE]
	mov	eax, dword ptr [rip + __ZN6loguruL19s_max_out_verbosityE]
	cmp	ecx, eax
	cmovge	eax, ecx
	pop	rbp
	ret
                                        
	.globl	__ZN6loguru3logEiPKcjS1_z 
	.p2align	4, 0x90
__ZN6loguru3logEiPKcjS1_z:              
Lfunc_begin2:
	.cfi_startproc
	.cfi_personality 155, ___gxx_personality_v0
	.cfi_lsda 16, Lexception2

	push	rbp
	.cfi_def_cfa_offset 16
	.cfi_offset rbp, -16
	mov	rbp, rsp
	.cfi_def_cfa_register rbp
	push	r15
	push	r14
	push	r13
	push	r12
	push	rbx
	sub	rsp, 376
	.cfi_offset rbx, -56
	.cfi_offset r12, -48
	.cfi_offset r13, -40
	.cfi_offset r14, -32
	.cfi_offset r15, -24
	mov	r15, rcx
	mov	r14d, edx
	mov	r12, rsi
	mov	r13d, edi
	test	al, al
	je	LBB33_2

	movaps	xmmword ptr [rbp - 368], xmm0
	movaps	xmmword ptr [rbp - 352], xmm1
	movaps	xmmword ptr [rbp - 336], xmm2
	movaps	xmmword ptr [rbp - 320], xmm3
	movaps	xmmword ptr [rbp - 304], xmm4
	movaps	xmmword ptr [rbp - 288], xmm5
	movaps	xmmword ptr [rbp - 272], xmm6
	movaps	xmmword ptr [rbp - 256], xmm7
LBB33_2:
	mov	qword ptr [rbp - 384], r8
	mov	qword ptr [rbp - 376], r9
	mov	rax, qword ptr [rip + ___stack_chk_guard@GOTPCREL]
	mov	rax, qword ptr [rax]
	mov	qword ptr [rbp - 48], rax
	lea	rax, [rbp - 416]
	mov	qword ptr [rbp - 160], rax
	lea	rax, [rbp + 16]
	mov	qword ptr [rbp - 168], rax
	movabs	rax, 206158430240
	mov	qword ptr [rbp - 176], rax
	mov	qword ptr [rbp - 144], 0
	lea	rdi, [rbp - 144]
	lea	rdx, [rbp - 176]
	mov	rsi, r15
	call	_vasprintf
	test	eax, eax
	js	LBB33_8

	mov	rbx, qword ptr [rbp - 144]
Ltmp80:
	lea	r15, [rbp - 144]
	mov	rdi, r15
	mov	esi, r13d
	mov	rdx, r12
	mov	ecx, r14d
	call	__ZN6loguruL14print_preambleEPcmiPKcj
Ltmp81:

	mov	dword ptr [rbp - 232], r13d
	mov	qword ptr [rbp - 224], r12
	mov	dword ptr [rbp - 216], r14d
	mov	qword ptr [rbp - 208], r15
	lea	rax, [rip + L_.str.8]
	mov	qword ptr [rbp - 200], rax
	mov	qword ptr [rbp - 192], rax
	mov	qword ptr [rbp - 184], rbx
Ltmp82:
	lea	rsi, [rbp - 232]
	mov	edi, 2
	mov	edx, 1
	mov	ecx, 1
	call	__ZN6loguruL11log_messageEiRNS_7MessageEbb
Ltmp83:

	mov	rdi, rbx
	call	_free
	mov	rax, qword ptr [rip + ___stack_chk_guard@GOTPCREL]
	mov	rax, qword ptr [rax]
	cmp	rax, qword ptr [rbp - 48]
	jne	LBB33_9

	add	rsp, 376
	pop	rbx
	pop	r12
	pop	r13
	pop	r14
	pop	r15
	pop	rbp
	ret
LBB33_9:
	call	___stack_chk_fail
LBB33_8:
	lea	rsi, [rip + L_.str.145]
	lea	rdx, [rip + L_.str.28]
	lea	r8, [rip + L_.str.146]
	xor	edi, edi
	mov	ecx, 433
	mov	r9, r15
	xor	eax, eax
	call	__ZN6loguru13log_and_abortEiPKcS1_jS1_z
LBB33_7:
Ltmp84:
	mov	r14, rax
	mov	rdi, rbx
	call	_free
	mov	rdi, r14
	call	__Unwind_Resume
	ud2
Lfunc_end2:
	.cfi_endproc
	.section	__TEXT,__gcc_except_tab
	.p2align	2
GCC_except_table33:
Lexception2:
	.byte	255                     
	.byte	255                     
	.byte	1                       
	.uleb128 Lcst_end2-Lcst_begin2
Lcst_begin2:
	.uleb128 Lfunc_begin2-Lfunc_begin2 
	.uleb128 Ltmp80-Lfunc_begin2    
	.byte	0                       
	.byte	0                       
	.uleb128 Ltmp80-Lfunc_begin2    
	.uleb128 Ltmp83-Ltmp80          
	.uleb128 Ltmp84-Lfunc_begin2    
	.byte	0                       
	.uleb128 Ltmp83-Lfunc_begin2    
	.uleb128 Lfunc_end2-Ltmp83      
	.byte	0                       
	.byte	0                       
Lcst_end2:
	.p2align	2
                                        
	.section	__TEXT,__text,regular,pure_instructions
	.p2align	4, 0x90         
__ZN6loguruL21print_preamble_headerEPcm: 

	push	rbp
	mov	rbp, rsp
	push	r14
	push	rbx
	mov	r14, rdi
	mov	byte ptr [rdi], 0
	cmp	byte ptr [rip + __ZN6loguru15g_preamble_dateE], 0
	je	LBB34_1

	movabs	rax, 2314885531981603172
	mov	qword ptr [r14], rax
	mov	dword ptr [r14 + 8], 2105376
	mov	ebx, 11
	cmp	byte ptr [rip + __ZN6loguru15g_preamble_timeE], 0
	je	LBB34_5
LBB34_4:
	lea	rdi, [r14 + rbx]
	mov	esi, 92
	sub	rsi, rbx
	lea	rdx, [rip + L_.str.163]
	xor	eax, eax
	call	_snprintf
	cdqe
	add	rbx, rax
LBB34_5:
	cmp	rbx, 91
	ja	LBB34_8

	cmp	byte ptr [rip + __ZN6loguru17g_preamble_uptimeE], 0
	je	LBB34_8

	lea	rdi, [r14 + rbx]
	mov	esi, 92
	sub	rsi, rbx
	lea	rdx, [rip + L_.str.164]
	xor	eax, eax
	call	_snprintf
	cdqe
	add	rbx, rax
LBB34_8:
	cmp	rbx, 91
	ja	LBB34_11

	cmp	byte ptr [rip + __ZN6loguru17g_preamble_threadE], 0
	je	LBB34_11

	lea	rdi, [r14 + rbx]
	mov	esi, 92
	sub	rsi, rbx
	lea	rdx, [rip + L_.str.165]
	lea	r8, [rip + L_.str.166]
	mov	ecx, 16
	xor	eax, eax
	call	_snprintf
	cdqe
	add	rbx, rax
LBB34_11:
	cmp	rbx, 91
	ja	LBB34_14

	cmp	byte ptr [rip + __ZN6loguru15g_preamble_fileE], 0
	je	LBB34_14

	lea	rdi, [r14 + rbx]
	mov	esi, 92
	sub	rsi, rbx
	lea	rdx, [rip + L_.str.167]
	lea	r8, [rip + L_.str.168]
	mov	ecx, 23
	xor	eax, eax
	call	_snprintf
	cdqe
	add	rbx, rax
LBB34_14:
	cmp	rbx, 91
	ja	LBB34_17

	cmp	byte ptr [rip + __ZN6loguru18g_preamble_verboseE], 0
	je	LBB34_17

	lea	rdi, [r14 + rbx]
	mov	esi, 92
	sub	rsi, rbx
	lea	rdx, [rip + L_.str.169]
	xor	eax, eax
	call	_snprintf
	cdqe
	add	rbx, rax
LBB34_17:
	cmp	rbx, 91
	ja	LBB34_19

	cmp	byte ptr [rip + __ZN6loguru15g_preamble_pipeE], 0
	je	LBB34_19

	add	r14, rbx
	mov	esi, 92
	sub	rsi, rbx
	lea	rdx, [rip + L_.str.170]
	mov	rdi, r14
	xor	eax, eax
	pop	rbx
	pop	r14
	pop	rbp
	jmp	_snprintf               
LBB34_19:
	pop	rbx
	pop	r14
	pop	rbp
	ret
LBB34_1:
	xor	ebx, ebx
	cmp	byte ptr [rip + __ZN6loguru15g_preamble_timeE], 0
	jne	LBB34_4
	jmp	LBB34_5
                                        
	.p2align	4, 0x90         
__ZN6loguruL9on_atexitEv:               
Lfunc_begin3:
	.cfi_startproc
	.cfi_personality 155, ___gxx_personality_v0
	.cfi_lsda 16, Lexception3

	push	rbp
	.cfi_def_cfa_offset 16
	.cfi_offset rbp, -16
	mov	rbp, rsp
	.cfi_def_cfa_register rbp
	push	r14
	push	rbx
	.cfi_offset rbx, -32
	.cfi_offset r14, -24
	mov	edi, dword ptr [rip + __ZN6loguru20g_internal_verbosityE]
	mov	eax, dword ptr [rip + __ZN6loguru18g_stderr_verbosityE]
	mov	ecx, dword ptr [rip + __ZN6loguruL19s_max_out_verbosityE]
	cmp	eax, ecx
	cmovge	ecx, eax
	cmp	edi, ecx
	jg	LBB35_2

	lea	rsi, [rip + L_.str.28]
	lea	rcx, [rip + L_.str.159]
	mov	edx, 526
	xor	eax, eax
	call	__ZN6loguru3logEiPKcjS1_z
LBB35_2:
	lea	rdi, [rip + __ZN6loguruL7s_mutexE]
	call	__ZNSt3__115recursive_mutex4lockEv
	mov	rax, qword ptr [rip + ___stderrp@GOTPCREL]
	mov	rdi, qword ptr [rax]
	call	_fflush
	mov	rbx, qword ptr [rip + __ZN6loguruL11s_callbacksE]
	mov	r14, qword ptr [rip + __ZN6loguruL11s_callbacksE+8]
	cmp	rbx, r14
	jne	LBB35_3
LBB35_6:
	mov	byte ptr [rip + __ZN6loguruL16s_needs_flushingE], 0
	lea	rdi, [rip + __ZN6loguruL7s_mutexE]
	pop	rbx
	pop	r14
	pop	rbp
	jmp	__ZNSt3__115recursive_mutex6unlockEv 
	.p2align	4, 0x90
LBB35_5:                                
	add	rbx, 72
	cmp	r14, rbx
	je	LBB35_6
LBB35_3:                                
	mov	rax, qword ptr [rbx + 56]
	test	rax, rax
	je	LBB35_5

	mov	rdi, qword ptr [rbx + 32]
Ltmp85:
	call	rax
Ltmp86:
	jmp	LBB35_5
LBB35_7:
Ltmp87:
	mov	rbx, rax
	lea	rdi, [rip + __ZN6loguruL7s_mutexE]
	call	__ZNSt3__115recursive_mutex6unlockEv
	mov	rdi, rbx
	call	__Unwind_Resume
	ud2
Lfunc_end3:
	.cfi_endproc
	.section	__TEXT,__gcc_except_tab
	.p2align	2
GCC_except_table35:
Lexception3:
	.byte	255                     
	.byte	255                     
	.byte	1                       
	.uleb128 Lcst_end3-Lcst_begin3
Lcst_begin3:
	.uleb128 Lfunc_begin3-Lfunc_begin3 
	.uleb128 Ltmp85-Lfunc_begin3    
	.byte	0                       
	.byte	0                       
	.uleb128 Ltmp85-Lfunc_begin3    
	.uleb128 Ltmp86-Ltmp85          
	.uleb128 Ltmp87-Lfunc_begin3    
	.byte	0                       
	.uleb128 Ltmp86-Lfunc_begin3    
	.uleb128 Lfunc_end3-Ltmp86      
	.byte	0                       
	.byte	0                       
Lcst_end3:
	.p2align	2
                                        
	.section	__TEXT,__text,regular,pure_instructions
	.globl	__ZN6loguru8shutdownEv  
	.p2align	4, 0x90
__ZN6loguru8shutdownEv:                 
	.cfi_startproc

	push	rbp
	.cfi_def_cfa_offset 16
	.cfi_offset rbp, -16
	mov	rbp, rsp
	.cfi_def_cfa_register rbp
	mov	edi, dword ptr [rip + __ZN6loguru20g_internal_verbosityE]
	mov	eax, dword ptr [rip + __ZN6loguru18g_stderr_verbosityE]
	mov	ecx, dword ptr [rip + __ZN6loguruL19s_max_out_verbosityE]
	cmp	eax, ecx
	cmovge	ecx, eax
	cmp	edi, ecx
	jg	LBB36_2

	lea	rsi, [rip + L_.str.28]
	lea	rcx, [rip + L_.str.41]
	mov	edx, 662
	xor	eax, eax
	call	__ZN6loguru3logEiPKcjS1_z
LBB36_2:
	call	__ZN6loguru20remove_all_callbacksEv
	mov	qword ptr [rip + __ZN6loguruL15s_fatal_handlerE], 0
	mov	qword ptr [rip + __ZN6loguruL28s_verbosity_to_name_callbackE], 0
	mov	qword ptr [rip + __ZN6loguruL28s_name_to_verbosity_callbackE], 0
	pop	rbp
	ret
	.cfi_endproc
                                        
	.globl	__ZN6loguru20remove_all_callbacksEv 
	.p2align	4, 0x90
__ZN6loguru20remove_all_callbacksEv:    
Lfunc_begin4:
	.cfi_startproc
	.cfi_personality 155, ___gxx_personality_v0
	.cfi_lsda 16, Lexception4

	push	rbp
	.cfi_def_cfa_offset 16
	.cfi_offset rbp, -16
	mov	rbp, rsp
	.cfi_def_cfa_register rbp
	push	r14
	push	rbx
	.cfi_offset rbx, -32
	.cfi_offset r14, -24
	lea	rdi, [rip + __ZN6loguruL7s_mutexE]
	call	__ZNSt3__115recursive_mutex4lockEv
	mov	rbx, qword ptr [rip + __ZN6loguruL11s_callbacksE]
	mov	r14, qword ptr [rip + __ZN6loguruL11s_callbacksE+8]
	cmp	rbx, r14
	jne	LBB37_12

	mov	qword ptr [rip + __ZN6loguruL11s_callbacksE+8], rbx
	mov	ecx, -9
	jmp	LBB37_10
	.p2align	4, 0x90
LBB37_14:                               
	add	rbx, 72
	cmp	r14, rbx
	je	LBB37_2
LBB37_12:                               
	mov	rax, qword ptr [rbx + 48]
	test	rax, rax
	je	LBB37_14

	mov	rdi, qword ptr [rbx + 32]
Ltmp88:
	call	rax
Ltmp89:
	jmp	LBB37_14
LBB37_2:
	mov	r14, qword ptr [rip + __ZN6loguruL11s_callbacksE]
	mov	rax, qword ptr [rip + __ZN6loguruL11s_callbacksE+8]
	cmp	rax, r14
	jne	LBB37_3
	jmp	LBB37_7
	.p2align	4, 0x90
LBB37_5:                                
	mov	rax, rbx
	cmp	r14, rbx
	je	LBB37_6
LBB37_3:                                
	lea	rbx, [rax - 72]
	test	byte ptr [rax - 72], 1
	je	LBB37_5

	mov	rdi, qword ptr [rax - 56]
	call	__ZdlPv
	jmp	LBB37_5
LBB37_6:
	mov	rax, qword ptr [rip + __ZN6loguruL11s_callbacksE]
LBB37_7:
	mov	qword ptr [rip + __ZN6loguruL11s_callbacksE+8], r14
	mov	dword ptr [rip + __ZN6loguruL19s_max_out_verbosityE], -9
	cmp	rax, r14
	je	LBB37_11

	mov	ecx, -9
	.p2align	4, 0x90
LBB37_9:                                
	mov	edx, dword ptr [rax + 40]
	cmp	ecx, edx
	cmovl	ecx, edx
	add	rax, 72
	cmp	r14, rax
	jne	LBB37_9
LBB37_10:
	mov	dword ptr [rip + __ZN6loguruL19s_max_out_verbosityE], ecx
LBB37_11:
	lea	rdi, [rip + __ZN6loguruL7s_mutexE]
	pop	rbx
	pop	r14
	pop	rbp
	jmp	__ZNSt3__115recursive_mutex6unlockEv 
LBB37_15:
Ltmp90:
	mov	rbx, rax
	lea	rdi, [rip + __ZN6loguruL7s_mutexE]
	call	__ZNSt3__115recursive_mutex6unlockEv
	mov	rdi, rbx
	call	__Unwind_Resume
	ud2
Lfunc_end4:
	.cfi_endproc
	.section	__TEXT,__gcc_except_tab
	.p2align	2
GCC_except_table37:
Lexception4:
	.byte	255                     
	.byte	255                     
	.byte	1                       
	.uleb128 Lcst_end4-Lcst_begin4
Lcst_begin4:
	.uleb128 Lfunc_begin4-Lfunc_begin4 
	.uleb128 Ltmp88-Lfunc_begin4    
	.byte	0                       
	.byte	0                       
	.uleb128 Ltmp88-Lfunc_begin4    
	.uleb128 Ltmp89-Ltmp88          
	.uleb128 Ltmp90-Lfunc_begin4    
	.byte	0                       
	.uleb128 Ltmp89-Lfunc_begin4    
	.uleb128 Lfunc_end4-Ltmp89      
	.byte	0                       
	.byte	0                       
Lcst_end4:
	.p2align	2
                                        
	.section	__TEXT,__text,regular,pure_instructions
	.globl	__ZN6loguru17set_fatal_handlerEPFvRKNS_7MessageEE 
	.p2align	4, 0x90
__ZN6loguru17set_fatal_handlerEPFvRKNS_7MessageEE: 

	push	rbp
	mov	rbp, rsp
	mov	qword ptr [rip + __ZN6loguruL15s_fatal_handlerE], rdi
	pop	rbp
	ret
                                        
	.globl	__ZN6loguru30set_verbosity_to_name_callbackEPFPKciE 
	.p2align	4, 0x90
__ZN6loguru30set_verbosity_to_name_callbackEPFPKciE: 

	push	rbp
	mov	rbp, rsp
	mov	qword ptr [rip + __ZN6loguruL28s_verbosity_to_name_callbackE], rdi
	pop	rbp
	ret
                                        
	.globl	__ZN6loguru30set_name_to_verbosity_callbackEPFiPKcE 
	.p2align	4, 0x90
__ZN6loguru30set_name_to_verbosity_callbackEPFiPKcE: 

	push	rbp
	mov	rbp, rsp
	mov	qword ptr [rip + __ZN6loguruL28s_name_to_verbosity_callbackE], rdi
	pop	rbp
	ret
                                        
	.globl	__ZN6loguru15write_date_timeEPcm 
	.p2align	4, 0x90
__ZN6loguru15write_date_timeEPcm:       
	.cfi_startproc

	push	rbp
	.cfi_def_cfa_offset 16
	.cfi_offset rbp, -16
	mov	rbp, rsp
	.cfi_def_cfa_register rbp
	push	r15
	push	r14
	push	r13
	push	r12
	push	rbx
	sub	rsp, 72
	.cfi_offset rbx, -56
	.cfi_offset r12, -48
	.cfi_offset r13, -40
	.cfi_offset r14, -32
	.cfi_offset r15, -24
	mov	r14, rsi
	mov	r15, rdi
	call	__ZNSt3__16chrono12system_clock3nowEv
	mov	rcx, rax
	movabs	r12, 2361183241434822607
	imul	r12
	mov	rbx, rdx
	mov	rax, rdx
	shr	rax, 63
	sar	rbx, 7
	add	rbx, rax
	movabs	rdx, 4835703278458516699
	mov	rax, rcx
	imul	rdx
	mov	rax, rdx
	shr	rax, 63
	sar	rdx, 18
	add	rdx, rax
	mov	qword ptr [rbp - 48], rdx
	lea	rdi, [rbp - 48]
	lea	rsi, [rbp - 104]
	call	_localtime_r
	mov	ecx, 1900
	add	ecx, dword ptr [rbp - 84]
	mov	r8d, dword ptr [rbp - 88]
	inc	r8d
	mov	r9d, dword ptr [rbp - 92]
	mov	r10d, dword ptr [rbp - 96]
	mov	r11d, dword ptr [rbp - 104]
	mov	r13d, dword ptr [rbp - 100]
	mov	rax, rbx
	imul	r12
	mov	rax, rdx
	shr	rax, 63
	sar	rdx, 7
	add	rdx, rax
	imul	rax, rdx, 1000
	sub	rbx, rax
	lea	rdx, [rip + L_.str.42]
	mov	rdi, r15
	mov	rsi, r14
	mov	eax, 0
	push	rbx
	push	r11
	push	r13
	push	r10
	call	_snprintf
	add	rsp, 104
	pop	rbx
	pop	r12
	pop	r13
	pop	r14
	pop	r15
	pop	rbp
	ret
	.cfi_endproc
                                        
	.globl	__ZN6loguru14argv0_filenameEv 
	.p2align	4, 0x90
__ZN6loguru14argv0_filenameEv:          

	push	rbp
	mov	rbp, rsp
	test	byte ptr [rip + __ZN6loguruL16s_argv0_filenameE], 1
	je	LBB42_1

	mov	rax, qword ptr [rip + __ZN6loguruL16s_argv0_filenameE+16]
	pop	rbp
	ret
LBB42_1:
	lea	rax, [rip + __ZN6loguruL16s_argv0_filenameE+1]
	pop	rbp
	ret
                                        
	.globl	__ZN6loguru9argumentsEv 
	.p2align	4, 0x90
__ZN6loguru9argumentsEv:                

	push	rbp
	mov	rbp, rsp
	test	byte ptr [rip + __ZN6loguruL11s_argumentsE], 1
	je	LBB43_1

	mov	rax, qword ptr [rip + __ZN6loguruL11s_argumentsE+16]
	pop	rbp
	ret
LBB43_1:
	lea	rax, [rip + __ZN6loguruL11s_argumentsE+1]
	pop	rbp
	ret
                                        
	.globl	__ZN6loguru11current_dirEv 
	.p2align	4, 0x90
__ZN6loguru11current_dirEv:             

	push	rbp
	mov	rbp, rsp
	lea	rax, [rip + __ZN6loguruL13s_current_dirE]
	pop	rbp
	ret
                                        
	.globl	__ZN6loguru8home_dirEv  
	.p2align	4, 0x90
__ZN6loguru8home_dirEv:                 
	.cfi_startproc

	push	rbp
	.cfi_def_cfa_offset 16
	.cfi_offset rbp, -16
	mov	rbp, rsp
	.cfi_def_cfa_register rbp
	lea	rdi, [rip + L_.str.43]
	call	_getenv
	test	rax, rax
	je	LBB45_2

	pop	rbp
	ret
LBB45_2:
	lea	rsi, [rip + L_.str.44]
	lea	rdx, [rip + L_.str.28]
	lea	r8, [rip + L_.str.45]
	xor	edi, edi
	mov	ecx, 710
	xor	eax, eax
	call	__ZN6loguru13log_and_abortEiPKcS1_jS1_z
	.cfi_endproc
                                        
	.globl	__ZN6loguru16suggest_log_pathEPKcPcj 
	.p2align	4, 0x90
__ZN6loguru16suggest_log_pathEPKcPcj:   
	.cfi_startproc

	push	rbp
	.cfi_def_cfa_offset 16
	.cfi_offset rbp, -16
	mov	rbp, rsp
	.cfi_def_cfa_register rbp
	push	r15
	push	r14
	push	r13
	push	r12
	push	rbx
	sub	rsp, 72
	.cfi_offset rbx, -56
	.cfi_offset r12, -48
	.cfi_offset r13, -40
	.cfi_offset r14, -32
	.cfi_offset r15, -24
	mov	r14d, edx
	mov	r13, rsi
	mov	rbx, rdi
	lea	r15d, [r14 - 1]
	cmp	byte ptr [rdi], 126
	jne	LBB46_3

	lea	rdi, [rip + L_.str.43]
	call	_getenv
	test	rax, rax
	je	LBB46_12

	inc	rbx
	lea	rdx, [rip + L_.str.46]
	mov	rdi, r13
	mov	rsi, r15
	mov	rcx, rax
	mov	r8, rbx
	xor	eax, eax
	call	_snprintf
	jmp	LBB46_4
LBB46_3:
	lea	rdx, [rip + L_.str.29]
	mov	rdi, r13
	mov	rsi, r15
	mov	rcx, rbx
	xor	eax, eax
	call	_snprintf
LBB46_4:
	mov	rdi, r13
	call	_strlen
	mov	r14d, r14d
	test	rax, rax
	je	LBB46_8

	cmp	byte ptr [rax + r13 - 1], 47
	je	LBB46_8

	mov	rcx, rax
	add	rcx, 2
	cmp	rcx, r14
	jae	LBB46_13

	mov	word ptr [r13 + rax], 47
LBB46_8:
	test	byte ptr [rip + __ZN6loguruL16s_argv0_filenameE], 1
	je	LBB46_9

	mov	rbx, qword ptr [rip + __ZN6loguruL16s_argv0_filenameE+16]
	jmp	LBB46_11
LBB46_9:
	lea	rbx, [rip + __ZN6loguruL16s_argv0_filenameE+1]
LBB46_11:
	mov	rdi, r13
	call	_strlen
	not	rax
	lea	rdx, [rax + r14]
	mov	rdi, r13
	mov	rsi, rbx
	call	_strncat
	mov	rdi, r13
	call	_strlen
	not	rax
	lea	rdx, [rax + r14]
	lea	rsi, [rip + L_.str.49]
	mov	rdi, r13
	call	_strncat
	mov	rdi, r13
	call	_strlen
	lea	rcx, [r13 + rax]
	mov	qword ptr [rbp - 48], rcx 
	mov	r12, r14
	sub	r12, rax
	call	__ZNSt3__16chrono12system_clock3nowEv
	mov	rcx, rax
	movabs	rdx, 2361183241434822607
	imul	rdx
	mov	rbx, rdx
	mov	rax, rdx
	shr	rax, 63
	sar	rbx, 7
	add	rbx, rax
	movabs	rdx, 4835703278458516699
	mov	rax, rcx
	imul	rdx
	mov	rax, rdx
	shr	rax, 63
	sar	rdx, 18
	add	rdx, rax
	mov	qword ptr [rbp - 56], rdx
	lea	rdi, [rbp - 56]
	lea	rsi, [rbp - 112]
	call	_localtime_r
	mov	ecx, 1900
	add	ecx, dword ptr [rbp - 92]
	mov	r8d, dword ptr [rbp - 96]
	inc	r8d
	mov	r9d, dword ptr [rbp - 100]
	mov	r15d, dword ptr [rbp - 104]
	mov	r11d, dword ptr [rbp - 112]
	mov	r10d, dword ptr [rbp - 108]
	mov	rax, rbx
	movabs	rdx, 2361183241434822607
	imul	rdx
	mov	rax, rdx
	shr	rax, 63
	sar	rdx, 7
	add	rdx, rax
	imul	rax, rdx, 1000
	sub	rbx, rax
	lea	rdx, [rip + L_.str.42]
	mov	rdi, qword ptr [rbp - 48] 
	mov	rsi, r12
	mov	eax, 0
	push	rbx
	push	r11
	push	r10
	push	r15
	call	_snprintf
	add	rsp, 32
	mov	rdi, r13
	call	_strlen
	not	rax
	add	r14, rax
	lea	rsi, [rip + L_.str.50]
	mov	rdi, r13
	mov	rdx, r14
	call	_strncat
	add	rsp, 72
	pop	rbx
	pop	r12
	pop	r13
	pop	r14
	pop	r15
	pop	rbp
	ret
LBB46_12:
	lea	rsi, [rip + L_.str.44]
	lea	rdx, [rip + L_.str.28]
	lea	r8, [rip + L_.str.45]
	xor	edi, edi
	mov	ecx, 710
	xor	eax, eax
	call	__ZN6loguru13log_and_abortEiPKcS1_jS1_z
LBB46_13:
	lea	rsi, [rip + L_.str.47]
	lea	rdx, [rip + L_.str.28]
	lea	r8, [rip + L_.str.48]
	xor	edi, edi
	mov	ecx, 727
	xor	eax, eax
	call	__ZN6loguru13log_and_abortEiPKcS1_jS1_z
	.cfi_endproc
                                        
	.globl	__ZN6loguru18create_directoriesEPKc 
	.p2align	4, 0x90
__ZN6loguru18create_directoriesEPKc:    
	.cfi_startproc

	push	rbp
	.cfi_def_cfa_offset 16
	.cfi_offset rbp, -16
	mov	rbp, rsp
	.cfi_def_cfa_register rbp
	push	r15
	push	r14
	push	rbx
	push	rax
	.cfi_offset rbx, -40
	.cfi_offset r14, -32
	.cfi_offset r15, -24
	test	rdi, rdi
	je	LBB47_26

	cmp	byte ptr [rdi], 0
	je	LBB47_26

	call	_strdup
	mov	r14, rax
	lea	rdi, [rax + 1]
	mov	esi, 47
	call	_strchr
	mov	r15b, 1
	test	rax, rax
	je	LBB47_25

	mov	rbx, rax
	jmp	LBB47_4
	.p2align	4, 0x90
LBB47_24:                               
	mov	byte ptr [rbx], 47
	inc	rbx
	mov	rdi, rbx
	mov	esi, 47
	call	_strchr
	mov	rbx, rax
	test	rax, rax
	je	LBB47_25
LBB47_4:                                
	mov	byte ptr [rbx], 0
	mov	rdi, r14
	mov	esi, 493
	call	_mkdir
	cmp	eax, -1
	jne	LBB47_24

	call	___error
	cmp	dword ptr [rax], 17
	je	LBB47_24

	mov	eax, dword ptr [rip + __ZN6loguru18g_stderr_verbosityE]
	mov	ecx, dword ptr [rip + __ZN6loguruL19s_max_out_verbosityE]
	cmp	eax, ecx
	mov	edx, ecx
	cmovge	edx, eax
	cmp	edx, -2
	jl	LBB47_8

	lea	rsi, [rip + L_.str.28]
	lea	rcx, [rip + L_.str.52]
	mov	edi, -2
	mov	edx, 759
	mov	r8, r14
	xor	eax, eax
	call	__ZN6loguru3logEiPKcjS1_z
	mov	eax, dword ptr [rip + __ZN6loguru18g_stderr_verbosityE]
	mov	ecx, dword ptr [rip + __ZN6loguruL19s_max_out_verbosityE]
LBB47_8:
	cmp	eax, ecx
	cmovge	ecx, eax
	cmp	ecx, -2
	jl	LBB47_11

	call	___error
	cmp	dword ptr [rax], 13
	jne	LBB47_11

	lea	rsi, [rip + L_.str.28]
	lea	rcx, [rip + L_.str.53]
	mov	edi, -2
	mov	edx, 760
	xor	eax, eax
	call	__ZN6loguru3logEiPKcjS1_z
LBB47_11:
	mov	eax, dword ptr [rip + __ZN6loguru18g_stderr_verbosityE]
	mov	ecx, dword ptr [rip + __ZN6loguruL19s_max_out_verbosityE]
	cmp	eax, ecx
	cmovge	ecx, eax
	cmp	ecx, -2
	jl	LBB47_14

	call	___error
	cmp	dword ptr [rax], 63
	jne	LBB47_14

	lea	rsi, [rip + L_.str.28]
	lea	rcx, [rip + L_.str.54]
	mov	edi, -2
	mov	edx, 761
	xor	eax, eax
	call	__ZN6loguru3logEiPKcjS1_z
LBB47_14:
	mov	eax, dword ptr [rip + __ZN6loguru18g_stderr_verbosityE]
	mov	ecx, dword ptr [rip + __ZN6loguruL19s_max_out_verbosityE]
	cmp	eax, ecx
	cmovge	ecx, eax
	cmp	ecx, -2
	jl	LBB47_17

	call	___error
	cmp	dword ptr [rax], 2
	jne	LBB47_17

	lea	rsi, [rip + L_.str.28]
	lea	rcx, [rip + L_.str.55]
	mov	edi, -2
	mov	edx, 762
	xor	eax, eax
	call	__ZN6loguru3logEiPKcjS1_z
LBB47_17:
	mov	eax, dword ptr [rip + __ZN6loguru18g_stderr_verbosityE]
	mov	ecx, dword ptr [rip + __ZN6loguruL19s_max_out_verbosityE]
	cmp	eax, ecx
	cmovge	ecx, eax
	cmp	ecx, -2
	jl	LBB47_20

	call	___error
	cmp	dword ptr [rax], 20
	jne	LBB47_20

	lea	rsi, [rip + L_.str.28]
	lea	rcx, [rip + L_.str.56]
	mov	edi, -2
	mov	edx, 763
	xor	eax, eax
	call	__ZN6loguru3logEiPKcjS1_z
LBB47_20:
	mov	eax, dword ptr [rip + __ZN6loguru18g_stderr_verbosityE]
	mov	ecx, dword ptr [rip + __ZN6loguruL19s_max_out_verbosityE]
	cmp	eax, ecx
	cmovge	ecx, eax
	cmp	ecx, -2
	jl	LBB47_23

	call	___error
	cmp	dword ptr [rax], 62
	jne	LBB47_23

	lea	rsi, [rip + L_.str.28]
	lea	rcx, [rip + L_.str.57]
	mov	edi, -2
	mov	edx, 764
	xor	eax, eax
	call	__ZN6loguru3logEiPKcjS1_z
LBB47_23:
	mov	byte ptr [rbx], 47
	xor	r15d, r15d
LBB47_25:
	mov	rdi, r14
	call	_free
	mov	eax, r15d
	add	rsp, 8
	pop	rbx
	pop	r14
	pop	r15
	pop	rbp
	ret
LBB47_26:
	lea	rsi, [rip + L_.str.51]
	lea	rdx, [rip + L_.str.28]
	xor	edi, edi
	mov	ecx, 748
	call	__ZN6loguru13log_and_abortEiPKcS1_j
	.cfi_endproc
                                        
	.globl	__ZN6loguru13log_and_abortEiPKcS1_j 
	.p2align	4, 0x90
__ZN6loguru13log_and_abortEiPKcS1_j:    
	.cfi_startproc

	push	rbp
	.cfi_def_cfa_offset 16
	.cfi_offset rbp, -16
	mov	rbp, rsp
	.cfi_def_cfa_register rbp
	inc	edi
	lea	r8, [rip + L_.str.34]
	xor	eax, eax
	call	__ZN6loguru13log_and_abortEiPKcS1_jS1_z
	.cfi_endproc
                                        
	.globl	__ZN6loguru8add_fileEPKcNS_8FileModeEi 
	.p2align	4, 0x90
__ZN6loguru8add_fileEPKcNS_8FileModeEi: 
	.cfi_startproc

	push	rbp
	.cfi_def_cfa_offset 16
	.cfi_offset rbp, -16
	mov	rbp, rsp
	.cfi_def_cfa_register rbp
	push	r15
	push	r14
	push	r13
	push	r12
	push	rbx
	sub	rsp, 1144
	.cfi_offset rbx, -56
	.cfi_offset r12, -48
	.cfi_offset r13, -40
	.cfi_offset r14, -32
	.cfi_offset r15, -24
	mov	r14d, edx
	mov	r12d, esi
	mov	r13, rdi
	mov	rax, qword ptr [rip + ___stack_chk_guard@GOTPCREL]
	mov	rax, qword ptr [rax]
	mov	qword ptr [rbp - 48], rax
	cmp	byte ptr [rdi], 126
	jne	LBB49_3

	lea	rdi, [rip + L_.str.43]
	call	_getenv
	test	rax, rax
	je	LBB49_29

	lea	r8, [r13 + 1]
	lea	rdx, [rip + L_.str.46]
	lea	rdi, [rbp - 1072]
	mov	esi, 1023
	mov	rcx, rax
	xor	eax, eax
	call	_snprintf
	jmp	LBB49_4
LBB49_3:
	lea	rdx, [rip + L_.str.29]
	lea	rdi, [rbp - 1072]
	mov	esi, 1023
	mov	rcx, r13
	xor	eax, eax
	call	_snprintf
LBB49_4:
	lea	rdi, [rbp - 1072]
	call	__ZN6loguru18create_directoriesEPKc
	test	al, al
	jne	LBB49_7

	mov	eax, dword ptr [rip + __ZN6loguru18g_stderr_verbosityE]
	mov	ecx, dword ptr [rip + __ZN6loguruL19s_max_out_verbosityE]
	cmp	eax, ecx
	cmovge	ecx, eax
	cmp	ecx, -2
	jl	LBB49_7

	lea	rsi, [rip + L_.str.28]
	lea	rcx, [rip + L_.str.58]
	lea	r8, [rbp - 1072]
	mov	edi, -2
	mov	edx, 786
	xor	eax, eax
	call	__ZN6loguru3logEiPKcjS1_z
LBB49_7:
	test	r12d, r12d
	lea	rax, [rip + L_.str.59]
	lea	r15, [rip + L_.str.60]
	cmove	r15, rax
	lea	rdi, [rbp - 1072]
	mov	rsi, r15
	call	_fopen
	test	rax, rax
	je	LBB49_8

	mov	rbx, rax
	lea	rsi, [rip + __ZN6loguru8file_logEPvRKNS_7MessageE]
	lea	r8, [rip + __ZN6loguru10file_closeEPv]
	lea	r9, [rip + __ZN6loguru10file_flushEPv]
	mov	rdi, r13
	mov	rdx, rax
	mov	ecx, r14d
	call	__ZN6loguru12add_callbackEPKcPFvPvRKNS_7MessageEES2_iPFvS2_ES9_
	cmp	r12d, 1
	jne	LBB49_13

	lea	rdi, [rip + L_.str.62]
	mov	esi, 5
	mov	edx, 1
	mov	rcx, rbx
	call	_fwrite
LBB49_13:
	movzx	eax, byte ptr [rip + __ZN6loguruL11s_argumentsE]
	test	al, 1
	je	LBB49_14

	mov	rcx, qword ptr [rip + __ZN6loguruL11s_argumentsE+8]
	test	rcx, rcx
	jne	LBB49_17
	jmp	LBB49_21
LBB49_8:
	mov	eax, dword ptr [rip + __ZN6loguru18g_stderr_verbosityE]
	mov	ecx, dword ptr [rip + __ZN6loguruL19s_max_out_verbosityE]
	cmp	eax, ecx
	cmovge	ecx, eax
	cmp	ecx, -2
	jge	LBB49_10

	xor	ebx, ebx
	jmp	LBB49_27
LBB49_14:
	mov	rcx, rax
	shr	rcx
	test	rcx, rcx
	je	LBB49_21
LBB49_17:
	test	al, 1
	je	LBB49_18

	mov	rdx, qword ptr [rip + __ZN6loguruL11s_argumentsE+16]
	jmp	LBB49_20
LBB49_18:
	lea	rdx, [rip + __ZN6loguruL11s_argumentsE+1]
LBB49_20:
	lea	rsi, [rip + L_.str.63]
	mov	rdi, rbx
	xor	eax, eax
	call	_fprintf
LBB49_21:
	lea	rdi, [rip + __ZN6loguruL13s_current_dirE]
	call	_strlen
	test	rax, rax
	je	LBB49_23

	lea	rsi, [rip + L_.str.64]
	lea	rdx, [rip + __ZN6loguruL13s_current_dirE]
	mov	rdi, rbx
	xor	eax, eax
	call	_fprintf
LBB49_23:
	lea	rsi, [rip + L_.str.65]
	mov	rdi, rbx
	mov	edx, r14d
	xor	eax, eax
	call	_fprintf
	cmp	byte ptr [rip + __ZN6loguru17g_preamble_headerE], 0
	je	LBB49_25

	lea	r12, [rbp - 1168]
	mov	rdi, r12
	call	__ZN6loguruL21print_preamble_headerEPcm
	lea	rsi, [rip + L_.str.36]
	mov	rdi, rbx
	mov	rdx, r12
	xor	eax, eax
	call	_fprintf
LBB49_25:
	mov	rdi, rbx
	call	_fflush
	mov	edi, dword ptr [rip + __ZN6loguru20g_internal_verbosityE]
	mov	eax, dword ptr [rip + __ZN6loguru18g_stderr_verbosityE]
	mov	ecx, dword ptr [rip + __ZN6loguruL19s_max_out_verbosityE]
	cmp	eax, ecx
	cmovge	ecx, eax
	mov	bl, 1
	cmp	edi, ecx
	jg	LBB49_27

	mov	dword ptr [rsp], r14d
	lea	rsi, [rip + L_.str.28]
	lea	rcx, [rip + L_.str.66]
	lea	r8, [rbp - 1072]
	mov	edx, 830
	mov	r9, r15
	xor	eax, eax
	call	__ZN6loguru3logEiPKcjS1_z
	jmp	LBB49_27
LBB49_10:
	lea	rsi, [rip + L_.str.28]
	lea	rcx, [rip + L_.str.61]
	xor	ebx, ebx
	lea	r8, [rbp - 1072]
	mov	edi, -2
	mov	edx, 798
	xor	eax, eax
	call	__ZN6loguru3logEiPKcjS1_z
LBB49_27:
	mov	rax, qword ptr [rip + ___stack_chk_guard@GOTPCREL]
	mov	rax, qword ptr [rax]
	cmp	rax, qword ptr [rbp - 48]
	jne	LBB49_30

	mov	eax, ebx
	add	rsp, 1144
	pop	rbx
	pop	r12
	pop	r13
	pop	r14
	pop	r15
	pop	rbp
	ret
LBB49_30:
	call	___stack_chk_fail
LBB49_29:
	lea	rsi, [rip + L_.str.44]
	lea	rdx, [rip + L_.str.28]
	lea	r8, [rip + L_.str.45]
	xor	edi, edi
	mov	ecx, 710
	xor	eax, eax
	call	__ZN6loguru13log_and_abortEiPKcS1_jS1_z
	.cfi_endproc
                                        
	.globl	__ZN6loguru12add_callbackEPKcPFvPvRKNS_7MessageEES2_iPFvS2_ES9_ 
	.p2align	4, 0x90
__ZN6loguru12add_callbackEPKcPFvPvRKNS_7MessageEES2_iPFvS2_ES9_: 
Lfunc_begin5:
	.cfi_startproc
	.cfi_personality 155, ___gxx_personality_v0
	.cfi_lsda 16, Lexception5

	push	rbp
	.cfi_def_cfa_offset 16
	.cfi_offset rbp, -16
	mov	rbp, rsp
	.cfi_def_cfa_register rbp
	push	r15
	push	r14
	push	r13
	push	r12
	push	rbx
	sub	rsp, 104
	.cfi_offset rbx, -56
	.cfi_offset r12, -48
	.cfi_offset r13, -40
	.cfi_offset r14, -32
	.cfi_offset r15, -24
	mov	r15, r9
	mov	r12, r8
	mov	ebx, ecx
	mov	qword ptr [rbp - 128], rdx 
	mov	qword ptr [rbp - 120], rsi 
	mov	r14, rdi
	lea	rdi, [rip + __ZN6loguruL7s_mutexE]
	call	__ZNSt3__115recursive_mutex4lockEv
	mov	rdi, r14
	call	_strlen
	cmp	rax, -16
	jae	LBB50_1

	mov	r13, rax
	mov	qword ptr [rbp - 136], r12 
	mov	qword ptr [rbp - 144], r15 
	cmp	rax, 23
	jae	LBB50_4

	lea	eax, [r13 + r13]
	mov	byte ptr [rbp - 112], al
	lea	r12, [rbp - 111]
	test	r13, r13
	jne	LBB50_7
	jmp	LBB50_8
LBB50_4:
	mov	r15, r13
	add	r15, 16
	and	r15, -16
Ltmp91:
	mov	rdi, r15
	call	__Znwm
Ltmp92:

	mov	r12, rax
	mov	qword ptr [rbp - 96], rax
	or	r15, 1
	mov	qword ptr [rbp - 112], r15
	mov	qword ptr [rbp - 104], r13
LBB50_7:
	mov	rdi, r12
	mov	rsi, r14
	mov	rdx, r13
	call	_memcpy
LBB50_8:
	mov	byte ptr [r12 + r13], 0
	lea	r15, [rbp - 88]
	mov	rax, qword ptr [rbp - 120] 
	mov	qword ptr [rbp - 88], rax
	mov	rax, qword ptr [rbp - 128] 
	mov	qword ptr [rbp - 80], rax
	mov	dword ptr [rbp - 72], ebx
	mov	rax, qword ptr [rbp - 136] 
	mov	qword ptr [rbp - 64], rax
	mov	rax, qword ptr [rbp - 144] 
	mov	qword ptr [rbp - 56], rax
	mov	dword ptr [rbp - 48], 0
	mov	rbx, qword ptr [rip + __ZN6loguruL11s_callbacksE+8]
	mov	rcx, qword ptr [rip + __ZN6loguruL11s_callbacksE+16]
	cmp	rbx, rcx
	jae	LBB50_10

	mov	rax, qword ptr [rbp - 96]
	mov	qword ptr [rbx + 16], rax
	mov	rax, qword ptr [rbp - 112]
	mov	rcx, qword ptr [rbp - 104]
	mov	qword ptr [rbx + 8], rcx
	mov	qword ptr [rbx], rax
	xorps	xmm0, xmm0
	movaps	xmmword ptr [rbp - 112], xmm0
	mov	qword ptr [rbp - 96], 0
	mov	eax, dword ptr [r15 + 40]
	mov	dword ptr [rbx + 64], eax
	mov	rax, qword ptr [r15 + 32]
	mov	qword ptr [rbx + 56], rax
	mov	rax, qword ptr [r15 + 24]
	mov	qword ptr [rbx + 48], rax
	mov	rax, qword ptr [r15 + 16]
	mov	qword ptr [rbx + 40], rax
	mov	rax, qword ptr [r15]
	mov	rcx, qword ptr [r15 + 8]
	mov	qword ptr [rbx + 32], rcx
	mov	qword ptr [rbx + 24], rax
	add	rbx, 72
	mov	qword ptr [rip + __ZN6loguruL11s_callbacksE+8], rbx
	jmp	LBB50_26
LBB50_10:
	movabs	rax, 256204778801521550
	mov	r14, qword ptr [rip + __ZN6loguruL11s_callbacksE]
	mov	r12, rbx
	sub	r12, r14
	sar	r12, 3
	movabs	rsi, -8198552921648689607
	imul	r12, rsi
	lea	rdx, [r12 + 1]
	cmp	rdx, rax
	ja	LBB50_11

	sub	rcx, r14
	sar	rcx, 3
	imul	rcx, rsi
	lea	r13, [rcx + rcx]
	cmp	r13, rdx
	cmovb	r13, rdx
	movabs	rdx, 128102389400760775
	cmp	rcx, rdx
	cmovae	r13, rax
	test	r13, r13
	je	LBB50_13

	cmp	r13, rax
	ja	LBB50_15

	lea	rax, [8*r13]
	lea	rdi, [rax + 8*rax]
Ltmp93:
	call	__Znwm
Ltmp94:
	jmp	LBB50_17
LBB50_13:
	xor	eax, eax
LBB50_17:
	lea	rsi, [r12 + 8*r12]
	lea	rdx, [rax + 8*rsi]
	lea	rcx, [r13 + 8*r13]
	lea	r8, [rax + 8*rcx]
	mov	rdi, qword ptr [rbp - 96]
	mov	qword ptr [rax + 8*rsi + 16], rdi
	mov	rdi, qword ptr [rbp - 112]
	mov	rcx, qword ptr [rbp - 104]
	mov	qword ptr [rax + 8*rsi + 8], rcx
	mov	qword ptr [rax + 8*rsi], rdi
	xorps	xmm0, xmm0
	movaps	xmmword ptr [rbp - 112], xmm0
	mov	qword ptr [rbp - 96], 0
	mov	ecx, dword ptr [r15 + 40]
	mov	dword ptr [rax + 8*rsi + 64], ecx
	mov	rcx, qword ptr [r15 + 32]
	mov	qword ptr [rax + 8*rsi + 56], rcx
	mov	rcx, qword ptr [r15 + 24]
	mov	qword ptr [rax + 8*rsi + 48], rcx
	mov	rcx, qword ptr [r15 + 16]
	mov	qword ptr [rax + 8*rsi + 40], rcx
	mov	rcx, qword ptr [r15]
	mov	rdi, qword ptr [r15 + 8]
	mov	qword ptr [rax + 8*rsi + 32], rdi
	mov	qword ptr [rax + 8*rsi + 24], rcx
	lea	rax, [rax + 8*rsi + 72]
	cmp	rbx, r14
	je	LBB50_18
	.p2align	4, 0x90
LBB50_19:                               
	mov	rcx, qword ptr [rbx - 56]
	mov	qword ptr [rdx - 56], rcx
	mov	rcx, qword ptr [rbx - 72]
	mov	rsi, qword ptr [rbx - 64]
	mov	qword ptr [rdx - 64], rsi
	mov	qword ptr [rdx - 72], rcx
	mov	qword ptr [rbx - 72], 0
	mov	qword ptr [rbx - 64], 0
	mov	qword ptr [rbx - 56], 0
	mov	ecx, dword ptr [rbx - 8]
	mov	dword ptr [rdx - 8], ecx
	mov	rcx, qword ptr [rbx - 16]
	mov	qword ptr [rdx - 16], rcx
	mov	rcx, qword ptr [rbx - 24]
	mov	qword ptr [rdx - 24], rcx
	mov	rcx, qword ptr [rbx - 32]
	mov	qword ptr [rdx - 32], rcx
	mov	rcx, qword ptr [rbx - 48]
	mov	rsi, qword ptr [rbx - 40]
	add	rbx, -72
	mov	qword ptr [rdx - 40], rsi
	mov	qword ptr [rdx - 48], rcx
	add	rdx, -72
	cmp	r14, rbx
	jne	LBB50_19

	mov	rbx, qword ptr [rip + __ZN6loguruL11s_callbacksE]
	mov	rsi, qword ptr [rip + __ZN6loguruL11s_callbacksE+8]
	mov	qword ptr [rip + __ZN6loguruL11s_callbacksE], rdx
	mov	qword ptr [rip + __ZN6loguruL11s_callbacksE+8], rax
	mov	qword ptr [rip + __ZN6loguruL11s_callbacksE+16], r8
	cmp	rsi, rbx
	jne	LBB50_21
	jmp	LBB50_24
	.p2align	4, 0x90
LBB50_23:                               
	mov	rsi, r14
	cmp	rbx, r14
	je	LBB50_24
LBB50_21:                               
	lea	r14, [rsi - 72]
	test	byte ptr [rsi - 72], 1
	je	LBB50_23

	mov	rdi, qword ptr [rsi - 56]
	call	__ZdlPv
	jmp	LBB50_23
LBB50_18:
	mov	qword ptr [rip + __ZN6loguruL11s_callbacksE], rdx
	mov	qword ptr [rip + __ZN6loguruL11s_callbacksE+8], rax
	mov	qword ptr [rip + __ZN6loguruL11s_callbacksE+16], r8
LBB50_24:
	test	rbx, rbx
	je	LBB50_26

	mov	rdi, rbx
	call	__ZdlPv
LBB50_26:
	mov	rax, qword ptr [rip + __ZN6loguruL11s_callbacksE]
	mov	rcx, qword ptr [rip + __ZN6loguruL11s_callbacksE+8]
	mov	dword ptr [rip + __ZN6loguruL19s_max_out_verbosityE], -9
	cmp	rax, rcx
	je	LBB50_30

	mov	edx, -9
	.p2align	4, 0x90
LBB50_28:                               
	mov	esi, dword ptr [rax + 40]
	cmp	edx, esi
	cmovl	edx, esi
	add	rax, 72
	cmp	rcx, rax
	jne	LBB50_28

	mov	dword ptr [rip + __ZN6loguruL19s_max_out_verbosityE], edx
LBB50_30:
	lea	rdi, [rip + __ZN6loguruL7s_mutexE]
	add	rsp, 104
	pop	rbx
	pop	r12
	pop	r13
	pop	r14
	pop	r15
	pop	rbp
	jmp	__ZNSt3__115recursive_mutex6unlockEv 
LBB50_1:
Ltmp100:
	lea	rdi, [rbp - 112]
	call	__ZNKSt3__121__basic_string_commonILb1EE20__throw_length_errorEv
Ltmp101:
	jmp	LBB50_2
LBB50_11:
Ltmp97:
	lea	rdi, [rip + __ZN6loguruL11s_callbacksE]
	call	__ZNKSt3__120__vector_base_commonILb1EE20__throw_length_errorEv
Ltmp98:
	jmp	LBB50_2
LBB50_15:
Ltmp95:
	call	__ZNSt3__1L20__throw_length_errorEPKc
Ltmp96:
LBB50_2:
	ud2
LBB50_32:
Ltmp99:
	mov	rbx, rax
	test	byte ptr [rbp - 112], 1
	je	LBB50_34

	mov	rdi, qword ptr [rbp - 96]
	call	__ZdlPv
	jmp	LBB50_34
LBB50_31:
Ltmp102:
	mov	rbx, rax
LBB50_34:
	lea	rdi, [rip + __ZN6loguruL7s_mutexE]
	call	__ZNSt3__115recursive_mutex6unlockEv
	mov	rdi, rbx
	call	__Unwind_Resume
	ud2
Lfunc_end5:
	.cfi_endproc
	.section	__TEXT,__gcc_except_tab
	.p2align	2
GCC_except_table50:
Lexception5:
	.byte	255                     
	.byte	255                     
	.byte	1                       
	.uleb128 Lcst_end5-Lcst_begin5
Lcst_begin5:
	.uleb128 Lfunc_begin5-Lfunc_begin5 
	.uleb128 Ltmp91-Lfunc_begin5    
	.byte	0                       
	.byte	0                       
	.uleb128 Ltmp91-Lfunc_begin5    
	.uleb128 Ltmp92-Ltmp91          
	.uleb128 Ltmp102-Lfunc_begin5   
	.byte	0                       
	.uleb128 Ltmp92-Lfunc_begin5    
	.uleb128 Ltmp93-Ltmp92          
	.byte	0                       
	.byte	0                       
	.uleb128 Ltmp93-Lfunc_begin5    
	.uleb128 Ltmp94-Ltmp93          
	.uleb128 Ltmp99-Lfunc_begin5    
	.byte	0                       
	.uleb128 Ltmp100-Lfunc_begin5   
	.uleb128 Ltmp101-Ltmp100        
	.uleb128 Ltmp102-Lfunc_begin5   
	.byte	0                       
	.uleb128 Ltmp97-Lfunc_begin5    
	.uleb128 Ltmp96-Ltmp97          
	.uleb128 Ltmp99-Lfunc_begin5    
	.byte	0                       
	.uleb128 Ltmp96-Lfunc_begin5    
	.uleb128 Lfunc_end5-Ltmp96      
	.byte	0                       
	.byte	0                       
Lcst_end5:
	.p2align	2
                                        
	.section	__TEXT,__text,regular,pure_instructions
	.globl	__ZN6loguru10add_syslogEPKci 
	.p2align	4, 0x90
__ZN6loguru10add_syslogEPKci:           
	.cfi_startproc

	push	rbp
	.cfi_def_cfa_offset 16
	.cfi_offset rbp, -16
	mov	rbp, rsp
	.cfi_def_cfa_register rbp
	push	rbx
	push	rax
	.cfi_offset rbx, -24
	mov	ebx, esi
	test	rdi, rdi
	jne	LBB51_4

	test	byte ptr [rip + __ZN6loguruL16s_argv0_filenameE], 1
	je	LBB51_2

	mov	rdi, qword ptr [rip + __ZN6loguruL16s_argv0_filenameE+16]
	jmp	LBB51_4
LBB51_2:
	lea	rdi, [rip + __ZN6loguruL16s_argv0_filenameE+1]
LBB51_4:
	xor	esi, esi
	mov	edx, 8
	call	_openlog
	lea	rdi, [rip + L_.str.67]
	lea	rsi, [rip + __ZN6loguru10syslog_logEPvRKNS_7MessageE]
	lea	r8, [rip + __ZN6loguru12syslog_closeEPv]
	lea	r9, [rip + __ZN6loguru12syslog_flushEPv]
	xor	edx, edx
	mov	ecx, ebx
	call	__ZN6loguru12add_callbackEPKcPFvPvRKNS_7MessageEES2_iPFvS2_ES9_
	mov	edi, dword ptr [rip + __ZN6loguru20g_internal_verbosityE]
	mov	eax, dword ptr [rip + __ZN6loguru18g_stderr_verbosityE]
	mov	ecx, dword ptr [rip + __ZN6loguruL19s_max_out_verbosityE]
	cmp	eax, ecx
	cmovge	ecx, eax
	cmp	edi, ecx
	jg	LBB51_6

	lea	rsi, [rip + L_.str.28]
	lea	rcx, [rip + L_.str.68]
	mov	edx, 862
	mov	r8d, ebx
	xor	eax, eax
	call	__ZN6loguru3logEiPKcjS1_z
LBB51_6:
	mov	al, 1
	add	rsp, 8
	pop	rbx
	pop	rbp
	ret
	.cfi_endproc
                                        
	.globl	__ZN6loguru10add_syslogEPKcii 
	.p2align	4, 0x90
__ZN6loguru10add_syslogEPKcii:          
	.cfi_startproc

	push	rbp
	.cfi_def_cfa_offset 16
	.cfi_offset rbp, -16
	mov	rbp, rsp
	.cfi_def_cfa_register rbp
	push	rbx
	push	rax
	.cfi_offset rbx, -24
	mov	ebx, esi
	test	rdi, rdi
	jne	LBB52_4

	test	byte ptr [rip + __ZN6loguruL16s_argv0_filenameE], 1
	je	LBB52_2

	mov	rdi, qword ptr [rip + __ZN6loguruL16s_argv0_filenameE+16]
	jmp	LBB52_4
LBB52_2:
	lea	rdi, [rip + __ZN6loguruL16s_argv0_filenameE+1]
LBB52_4:
	xor	esi, esi
	call	_openlog
	lea	rdi, [rip + L_.str.67]
	lea	rsi, [rip + __ZN6loguru10syslog_logEPvRKNS_7MessageE]
	lea	r8, [rip + __ZN6loguru12syslog_closeEPv]
	lea	r9, [rip + __ZN6loguru12syslog_flushEPv]
	xor	edx, edx
	mov	ecx, ebx
	call	__ZN6loguru12add_callbackEPKcPFvPvRKNS_7MessageEES2_iPFvS2_ES9_
	mov	edi, dword ptr [rip + __ZN6loguru20g_internal_verbosityE]
	mov	eax, dword ptr [rip + __ZN6loguru18g_stderr_verbosityE]
	mov	ecx, dword ptr [rip + __ZN6loguruL19s_max_out_verbosityE]
	cmp	eax, ecx
	cmovge	ecx, eax
	cmp	edi, ecx
	jg	LBB52_6

	lea	rsi, [rip + L_.str.28]
	lea	rcx, [rip + L_.str.68]
	mov	edx, 862
	mov	r8d, ebx
	xor	eax, eax
	call	__ZN6loguru3logEiPKcjS1_z
LBB52_6:
	mov	al, 1
	add	rsp, 8
	pop	rbx
	pop	rbp
	ret
	.cfi_endproc
                                        
	.globl	__ZN6loguru17get_fatal_handlerEv 
	.p2align	4, 0x90
__ZN6loguru17get_fatal_handlerEv:       

	push	rbp
	mov	rbp, rsp
	mov	rax, qword ptr [rip + __ZN6loguruL15s_fatal_handlerE]
	pop	rbp
	ret
                                        
	.globl	__ZN6loguru17add_stack_cleanupEPKcS1_ 
	.p2align	4, 0x90
__ZN6loguru17add_stack_cleanupEPKcS1_:  
Lfunc_begin6:
	.cfi_startproc
	.cfi_personality 155, ___gxx_personality_v0
	.cfi_lsda 16, Lexception6

	push	rbp
	.cfi_def_cfa_offset 16
	.cfi_offset rbp, -16
	mov	rbp, rsp
	.cfi_def_cfa_register rbp
	push	r15
	push	r14
	push	r13
	push	r12
	push	rbx
	sub	rsp, 56
	.cfi_offset rbx, -56
	.cfi_offset r12, -48
	.cfi_offset r13, -40
	.cfi_offset r14, -32
	.cfi_offset r15, -24
	mov	r14, rsi
	mov	r15, rdi
	call	_strlen
	mov	rbx, rax
	mov	rdi, r14
	call	_strlen
	cmp	rbx, rax
	jbe	LBB54_1

	mov	rdi, r15
	call	_strlen
	cmp	rax, -16
	jae	LBB54_28

	mov	r13, rax
	cmp	rax, 23
	jae	LBB54_5

	lea	eax, [r13 + r13]
	mov	byte ptr [rbp - 88], al
	lea	r12, [rbp - 87]
	test	r13, r13
	jne	LBB54_7
	jmp	LBB54_8
LBB54_1:
	mov	eax, dword ptr [rip + __ZN6loguru18g_stderr_verbosityE]
	mov	ecx, dword ptr [rip + __ZN6loguruL19s_max_out_verbosityE]
	cmp	eax, ecx
	cmovge	ecx, eax
	cmp	ecx, -1
	jl	LBB54_21

	lea	rsi, [rip + L_.str.28]
	lea	rcx, [rip + L_.str.69]
	mov	edi, -1
	mov	edx, 896
	xor	eax, eax
	add	rsp, 56
	pop	rbx
	pop	r12
	pop	r13
	pop	r14
	pop	r15
	pop	rbp
	jmp	__ZN6loguru3logEiPKcjS1_z 
LBB54_5:
	mov	rbx, r13
	add	rbx, 16
	and	rbx, -16
	mov	rdi, rbx
	call	__Znwm
	mov	r12, rax
	mov	qword ptr [rbp - 72], rax
	or	rbx, 1
	mov	qword ptr [rbp - 88], rbx
	mov	qword ptr [rbp - 80], r13
LBB54_7:
	mov	rdi, r12
	mov	rsi, r15
	mov	rdx, r13
	call	_memcpy
LBB54_8:
	mov	byte ptr [r12 + r13], 0
	lea	r15, [rbp - 64]
	mov	rdi, r14
	call	_strlen
	cmp	rax, -16
	jae	LBB54_9

	mov	r12, rax
	cmp	rax, 23
	jae	LBB54_12

	lea	eax, [r12 + r12]
	mov	byte ptr [rbp - 64], al
	inc	r15
	test	r12, r12
	jne	LBB54_15
	jmp	LBB54_16
LBB54_12:
	mov	rbx, r12
	add	rbx, 16
	and	rbx, -16
Ltmp103:
	mov	rdi, rbx
	call	__Znwm
Ltmp104:

	mov	r15, rax
	mov	qword ptr [rbp - 48], rax
	or	rbx, 1
	mov	qword ptr [rbp - 64], rbx
	mov	qword ptr [rbp - 56], r12
LBB54_15:
	mov	rdi, r15
	mov	rsi, r14
	mov	rdx, r12
	call	_memcpy
LBB54_16:
	mov	byte ptr [r15 + r12], 0
Ltmp105:
	lea	rdi, [rip + __ZN6loguruL21s_user_stack_cleanupsE]
	lea	rsi, [rbp - 88]
	call	__ZNSt3__16vectorINS_4pairINS_12basic_stringIcNS_11char_traitsIcEENS_9allocatorIcEEEES7_EENS5_IS8_EEE9push_backEOS8_
Ltmp106:

	test	byte ptr [rbp - 64], 1
	je	LBB54_19

	mov	rdi, qword ptr [rbp - 48]
	call	__ZdlPv
LBB54_19:
	test	byte ptr [rbp - 88], 1
	je	LBB54_21

	mov	rdi, qword ptr [rbp - 72]
	call	__ZdlPv
LBB54_21:
	add	rsp, 56
	pop	rbx
	pop	r12
	pop	r13
	pop	r14
	pop	r15
	pop	rbp
	ret
LBB54_28:
	lea	rdi, [rbp - 88]
	call	__ZNKSt3__121__basic_string_commonILb1EE20__throw_length_errorEv
LBB54_9:
Ltmp108:
	mov	rdi, r15
	call	__ZNKSt3__121__basic_string_commonILb1EE20__throw_length_errorEv
Ltmp109:

	ud2
LBB54_22:
Ltmp110:
	mov	rbx, rax
	jmp	LBB54_25
LBB54_23:
Ltmp107:
	mov	rbx, rax
	test	byte ptr [rbp - 64], 1
	je	LBB54_25

	mov	rdi, qword ptr [rbp - 48]
	call	__ZdlPv
LBB54_25:
	test	byte ptr [rbp - 88], 1
	je	LBB54_27

	mov	rdi, qword ptr [rbp - 72]
	call	__ZdlPv
LBB54_27:
	mov	rdi, rbx
	call	__Unwind_Resume
	ud2
Lfunc_end6:
	.cfi_endproc
	.section	__TEXT,__gcc_except_tab
	.p2align	2
GCC_except_table54:
Lexception6:
	.byte	255                     
	.byte	255                     
	.byte	1                       
	.uleb128 Lcst_end6-Lcst_begin6
Lcst_begin6:
	.uleb128 Lfunc_begin6-Lfunc_begin6 
	.uleb128 Ltmp103-Lfunc_begin6   
	.byte	0                       
	.byte	0                       
	.uleb128 Ltmp103-Lfunc_begin6   
	.uleb128 Ltmp104-Ltmp103        
	.uleb128 Ltmp110-Lfunc_begin6   
	.byte	0                       
	.uleb128 Ltmp104-Lfunc_begin6   
	.uleb128 Ltmp105-Ltmp104        
	.byte	0                       
	.byte	0                       
	.uleb128 Ltmp105-Lfunc_begin6   
	.uleb128 Ltmp106-Ltmp105        
	.uleb128 Ltmp107-Lfunc_begin6   
	.byte	0                       
	.uleb128 Ltmp106-Lfunc_begin6   
	.uleb128 Ltmp108-Ltmp106        
	.byte	0                       
	.byte	0                       
	.uleb128 Ltmp108-Lfunc_begin6   
	.uleb128 Ltmp109-Ltmp108        
	.uleb128 Ltmp110-Lfunc_begin6   
	.byte	0                       
	.uleb128 Ltmp109-Lfunc_begin6   
	.uleb128 Lfunc_end6-Ltmp109     
	.byte	0                       
	.byte	0                       
Lcst_end6:
	.p2align	2
                                        
	.section	__TEXT,__text,regular,pure_instructions
	.p2align	4, 0x90         
__ZNSt3__16vectorINS_4pairINS_12basic_stringIcNS_11char_traitsIcEENS_9allocatorIcEEEES7_EENS5_IS8_EEE9push_backEOS8_: 
	.cfi_startproc

	push	rbp
	.cfi_def_cfa_offset 16
	.cfi_offset rbp, -16
	mov	rbp, rsp
	.cfi_def_cfa_register rbp
	push	r15
	push	r14
	push	r12
	push	rbx
	.cfi_offset rbx, -48
	.cfi_offset r12, -40
	.cfi_offset r14, -32
	.cfi_offset r15, -24
	mov	rbx, rsi
	mov	r14, rdi
	mov	r15, qword ptr [rdi + 8]
	mov	rcx, qword ptr [rdi + 16]
	cmp	r15, rcx
	jae	LBB55_2

	mov	rax, qword ptr [rbx + 16]
	mov	qword ptr [r15 + 16], rax
	mov	rax, qword ptr [rbx]
	mov	rcx, qword ptr [rbx + 8]
	mov	qword ptr [r15 + 8], rcx
	mov	qword ptr [r15], rax
	mov	qword ptr [rbx], 0
	mov	qword ptr [rbx + 8], 0
	mov	qword ptr [rbx + 16], 0
	mov	rax, qword ptr [rbx + 40]
	mov	qword ptr [r15 + 40], rax
	mov	rax, qword ptr [rbx + 24]
	mov	rcx, qword ptr [rbx + 32]
	mov	qword ptr [r15 + 32], rcx
	mov	qword ptr [r15 + 24], rax
	mov	qword ptr [rbx + 24], 0
	mov	qword ptr [rbx + 32], 0
	mov	qword ptr [rbx + 40], 0
	add	r15, 48
	mov	qword ptr [r14 + 8], r15
	jmp	LBB55_18
LBB55_2:
	movabs	rax, 384307168202282325
	mov	rdx, qword ptr [r14]
	sub	r15, rdx
	sar	r15, 4
	movabs	rdi, -6148914691236517205
	imul	r15, rdi
	lea	rsi, [r15 + 1]
	cmp	rsi, rax
	ja	LBB55_19

	sub	rcx, rdx
	sar	rcx, 4
	imul	rcx, rdi
	lea	r12, [rcx + rcx]
	cmp	r12, rsi
	cmovb	r12, rsi
	movabs	rdx, 192153584101141162
	cmp	rcx, rdx
	cmovae	r12, rax
	test	r12, r12
	je	LBB55_4

	cmp	r12, rax
	ja	LBB55_20

	mov	rax, r12
	shl	rax, 4
	lea	rdi, [rax + 2*rax]
	call	__Znwm
	jmp	LBB55_7
LBB55_4:
	xor	eax, eax
LBB55_7:
	lea	rsi, [r15 + 2*r15]
	shl	rsi, 4
	lea	rdx, [rax + rsi]
	lea	r8, [r12 + 2*r12]
	shl	r8, 4
	add	r8, rax
	mov	rdi, qword ptr [rbx + 16]
	mov	qword ptr [rax + rsi + 16], rdi
	mov	rdi, qword ptr [rbx]
	mov	rcx, qword ptr [rbx + 8]
	mov	qword ptr [rax + rsi + 8], rcx
	mov	qword ptr [rax + rsi], rdi
	mov	qword ptr [rbx], 0
	mov	qword ptr [rbx + 8], 0
	mov	qword ptr [rbx + 16], 0
	mov	rcx, qword ptr [rbx + 40]
	mov	qword ptr [rax + rsi + 40], rcx
	mov	rcx, qword ptr [rbx + 24]
	mov	rdi, qword ptr [rbx + 32]
	mov	qword ptr [rax + rsi + 32], rdi
	mov	qword ptr [rax + rsi + 24], rcx
	mov	qword ptr [rbx + 24], 0
	mov	qword ptr [rbx + 32], 0
	mov	qword ptr [rbx + 40], 0
	lea	rax, [rax + rsi + 48]
	mov	r12, qword ptr [r14]
	mov	rsi, qword ptr [r14 + 8]
	cmp	rsi, r12
	je	LBB55_8
	.p2align	4, 0x90
LBB55_9:                                
	mov	rcx, qword ptr [rsi - 32]
	mov	qword ptr [rdx - 32], rcx
	mov	rcx, qword ptr [rsi - 48]
	mov	rdi, qword ptr [rsi - 40]
	mov	qword ptr [rdx - 40], rdi
	mov	qword ptr [rdx - 48], rcx
	mov	qword ptr [rsi - 48], 0
	mov	qword ptr [rsi - 40], 0
	mov	qword ptr [rsi - 32], 0
	mov	rcx, qword ptr [rsi - 8]
	mov	qword ptr [rdx - 8], rcx
	mov	rcx, qword ptr [rsi - 24]
	mov	rdi, qword ptr [rsi - 16]
	mov	qword ptr [rdx - 16], rdi
	mov	qword ptr [rdx - 24], rcx
	mov	qword ptr [rsi - 24], 0
	mov	qword ptr [rsi - 16], 0
	mov	qword ptr [rsi - 8], 0
	add	rsi, -48
	add	rdx, -48
	cmp	r12, rsi
	jne	LBB55_9

	mov	r15, qword ptr [r14]
	mov	r12, qword ptr [r14 + 8]
	jmp	LBB55_11
LBB55_8:
	mov	r15, r12
LBB55_11:
	mov	qword ptr [r14], rdx
	mov	qword ptr [r14 + 8], rax
	mov	qword ptr [r14 + 16], r8
	cmp	r12, r15
	jne	LBB55_12
LBB55_17:
	test	r15, r15
	je	LBB55_18

	mov	rdi, r15
	pop	rbx
	pop	r12
	pop	r14
	pop	r15
	pop	rbp
	jmp	__ZdlPv                 
	.p2align	4, 0x90
LBB55_16:                               
	mov	r12, rbx
	cmp	r15, rbx
	je	LBB55_17
LBB55_12:                               
	test	byte ptr [r12 - 24], 1
	je	LBB55_14

	mov	rdi, qword ptr [r12 - 8]
	call	__ZdlPv
LBB55_14:                               
	lea	rbx, [r12 - 48]
	test	byte ptr [r12 - 48], 1
	je	LBB55_16

	mov	rdi, qword ptr [r12 - 32]
	call	__ZdlPv
	jmp	LBB55_16
LBB55_18:
	pop	rbx
	pop	r12
	pop	r14
	pop	r15
	pop	rbp
	ret
LBB55_19:
	mov	rdi, r14
	call	__ZNKSt3__120__vector_base_commonILb1EE20__throw_length_errorEv
LBB55_20:
	call	__ZNSt3__1L20__throw_length_errorEPKc
	.cfi_endproc
                                        
	.globl	__ZN6loguru18get_verbosity_nameEi 
	.p2align	4, 0x90
__ZN6loguru18get_verbosity_nameEi:      
	.cfi_startproc

	push	rbp
	.cfi_def_cfa_offset 16
	.cfi_offset rbp, -16
	mov	rbp, rsp
	.cfi_def_cfa_register rbp
	push	rbx
	push	rax
	.cfi_offset rbx, -24
	mov	ebx, edi
	mov	rax, qword ptr [rip + __ZN6loguruL28s_verbosity_to_name_callbackE]
	test	rax, rax
	je	LBB56_2

	mov	edi, ebx
	call	rax
	test	rax, rax
	jne	LBB56_7
LBB56_2:
	cmp	ebx, -2
	jge	LBB56_4

	lea	rax, [rip + L_.str.70]
	jmp	LBB56_7
LBB56_4:
	add	ebx, 2
	cmp	ebx, 2
	ja	LBB56_5

	movsxd	rax, ebx
	lea	rcx, [rip + l_switch.table._ZN6loguruL14print_preambleEPcmiPKcj]
	mov	rax, qword ptr [rcx + 8*rax]
	jmp	LBB56_7
LBB56_5:
	xor	eax, eax
LBB56_7:
	add	rsp, 8
	pop	rbx
	pop	rbp
	ret
	.cfi_endproc
                                        
	.globl	__ZN6loguru23get_verbosity_from_nameEPKc 
	.p2align	4, 0x90
__ZN6loguru23get_verbosity_from_nameEPKc: 
	.cfi_startproc

	push	rbp
	.cfi_def_cfa_offset 16
	.cfi_offset rbp, -16
	mov	rbp, rsp
	.cfi_def_cfa_register rbp
	push	rbx
	push	rax
	.cfi_offset rbx, -24
	mov	rbx, rdi
	mov	rax, qword ptr [rip + __ZN6loguruL28s_name_to_verbosity_callbackE]
	test	rax, rax
	je	LBB57_2

	mov	rdi, rbx
	call	rax
	cmp	eax, -10
	jne	LBB57_11
LBB57_2:
	lea	rsi, [rip + L_.str.74]
	mov	rdi, rbx
	call	_strcmp
	test	eax, eax
	je	LBB57_3

	lea	rsi, [rip + L_.str.73]
	mov	rdi, rbx
	call	_strcmp
	test	eax, eax
	je	LBB57_5

	lea	rsi, [rip + L_.str.75]
	mov	rdi, rbx
	call	_strcmp
	test	eax, eax
	je	LBB57_7

	lea	rsi, [rip + L_.str.76]
	mov	rdi, rbx
	call	_strcmp
	test	eax, eax
	je	LBB57_9

	lea	rsi, [rip + L_.str.77]
	mov	rdi, rbx
	call	_strcmp
	test	eax, eax
	mov	ecx, -3
	mov	eax, -10
	cmove	eax, ecx
	jmp	LBB57_11
LBB57_3:
	mov	eax, -9
	jmp	LBB57_11
LBB57_5:
	xor	eax, eax
	jmp	LBB57_11
LBB57_7:
	mov	eax, -1
	jmp	LBB57_11
LBB57_9:
	mov	eax, -2
LBB57_11:
	add	rsp, 8
	pop	rbx
	pop	rbp
	ret
	.cfi_endproc
                                        
	.globl	__ZN6loguru15remove_callbackEPKc 
	.p2align	4, 0x90
__ZN6loguru15remove_callbackEPKc:       
Lfunc_begin7:
	.cfi_startproc
	.cfi_personality 155, ___gxx_personality_v0
	.cfi_lsda 16, Lexception7

	push	rbp
	.cfi_def_cfa_offset 16
	.cfi_offset rbp, -16
	mov	rbp, rsp
	.cfi_def_cfa_register rbp
	push	r15
	push	r14
	push	rbx
	push	rax
	.cfi_offset rbx, -40
	.cfi_offset r14, -32
	.cfi_offset r15, -24
	mov	r14, rdi
	lea	rdi, [rip + __ZN6loguruL7s_mutexE]
	call	__ZNSt3__115recursive_mutex4lockEv
	mov	rbx, qword ptr [rip + __ZN6loguruL11s_callbacksE]
	mov	r15, qword ptr [rip + __ZN6loguruL11s_callbacksE+8]
	cmp	rbx, r15
	jne	LBB58_1
	jmp	LBB58_25
	.p2align	4, 0x90
LBB58_7:                                
	add	rbx, 72
	cmp	rbx, r15
	je	LBB58_8
LBB58_1:                                
	mov	rdi, r14
	call	_strlen
	movzx	ecx, byte ptr [rbx]
	test	cl, 1
	je	LBB58_2

	mov	rcx, qword ptr [rbx + 8]
	cmp	rax, rcx
	jne	LBB58_7
	jmp	LBB58_5
	.p2align	4, 0x90
LBB58_2:                                
	shr	rcx
	cmp	rax, rcx
	jne	LBB58_7
LBB58_5:                                
Ltmp111:
	mov	rdi, rbx
	xor	esi, esi
	mov	rdx, -1
	mov	rcx, r14
	mov	r8, rax
	call	__ZNKSt3__112basic_stringIcNS_11char_traitsIcEENS_9allocatorIcEEE7compareEmmPKcm
Ltmp112:

	test	eax, eax
	jne	LBB58_7
	jmp	LBB58_9
LBB58_8:
	mov	rbx, r15
LBB58_9:
	mov	r15, qword ptr [rip + __ZN6loguruL11s_callbacksE+8]
	cmp	rbx, r15
	je	LBB58_25

	mov	rax, qword ptr [rbx + 48]
	test	rax, rax
	je	LBB58_13

	mov	rdi, qword ptr [rbx + 32]
Ltmp114:
	call	rax
Ltmp115:

	mov	r15, qword ptr [rip + __ZN6loguruL11s_callbacksE+8]
LBB58_13:
	lea	rax, [rbx + 72]
	cmp	rax, r15
	jne	LBB58_14
	jmp	LBB58_18
	.p2align	4, 0x90
LBB58_16:                               
	mov	rax, qword ptr [rbx + 88]
	mov	qword ptr [rbx + 16], rax
	mov	rax, qword ptr [rbx + 72]
	mov	rcx, qword ptr [rbx + 80]
	mov	qword ptr [rbx + 8], rcx
	mov	qword ptr [rbx], rax
	mov	word ptr [rbx + 72], 0
	mov	rax, qword ptr [rbx + 96]
	mov	qword ptr [rbx + 24], rax
	mov	rax, qword ptr [rbx + 104]
	mov	qword ptr [rbx + 32], rax
	mov	rax, qword ptr [rbx + 112]
	mov	qword ptr [rbx + 40], rax
	mov	rax, qword ptr [rbx + 120]
	mov	qword ptr [rbx + 48], rax
	mov	rax, qword ptr [rbx + 128]
	mov	qword ptr [rbx + 56], rax
	mov	eax, dword ptr [rbx + 136]
	mov	dword ptr [rbx + 64], eax
	lea	rax, [rbx + 72]
	add	rbx, 144
	cmp	rbx, r15
	mov	rbx, rax
	je	LBB58_17
LBB58_14:                               
	test	byte ptr [rbx], 1
	je	LBB58_16

	mov	rdi, qword ptr [rbx + 16]
	call	__ZdlPv
	jmp	LBB58_16
LBB58_25:
	mov	eax, dword ptr [rip + __ZN6loguru18g_stderr_verbosityE]
	mov	ecx, dword ptr [rip + __ZN6loguruL19s_max_out_verbosityE]
	cmp	eax, ecx
	cmovge	ecx, eax
	xor	r15d, r15d
	cmp	ecx, -2
	jl	LBB58_27

Ltmp116:
	lea	rsi, [rip + L_.str.28]
	lea	rcx, [rip + L_.str.78]
	mov	edi, -2
	mov	edx, 985
	mov	r8, r14
	xor	eax, eax
	call	__ZN6loguru3logEiPKcjS1_z
Ltmp117:
	jmp	LBB58_27
LBB58_17:
	mov	r15, qword ptr [rip + __ZN6loguruL11s_callbacksE+8]
	mov	rbx, rax
	cmp	r15, rax
	jne	LBB58_18
LBB58_21:
	mov	qword ptr [rip + __ZN6loguruL11s_callbacksE+8], rbx
	mov	dword ptr [rip + __ZN6loguruL19s_max_out_verbosityE], -9
	mov	rax, qword ptr [rip + __ZN6loguruL11s_callbacksE]
	mov	r15b, 1
	cmp	rax, rbx
	je	LBB58_27

	mov	ecx, -9
	.p2align	4, 0x90
LBB58_23:                               
	mov	edx, dword ptr [rax + 40]
	cmp	ecx, edx
	cmovl	ecx, edx
	add	rax, 72
	cmp	rbx, rax
	jne	LBB58_23

	mov	dword ptr [rip + __ZN6loguruL19s_max_out_verbosityE], ecx
LBB58_27:
	lea	rdi, [rip + __ZN6loguruL7s_mutexE]
	call	__ZNSt3__115recursive_mutex6unlockEv
	mov	eax, r15d
	add	rsp, 8
	pop	rbx
	pop	r14
	pop	r15
	pop	rbp
	ret
	.p2align	4, 0x90
LBB58_20:                               
	mov	r15, r14
	cmp	rbx, r14
	je	LBB58_21
LBB58_18:                               
	lea	r14, [r15 - 72]
	test	byte ptr [r15 - 72], 1
	je	LBB58_20

	mov	rdi, qword ptr [r15 - 56]
	call	__ZdlPv
	jmp	LBB58_20
LBB58_29:
Ltmp118:
	mov	rbx, rax
	lea	rdi, [rip + __ZN6loguruL7s_mutexE]
	call	__ZNSt3__115recursive_mutex6unlockEv
	mov	rdi, rbx
	call	__Unwind_Resume
	ud2
LBB58_28:
Ltmp113:
	mov	rdi, rax
	call	___clang_call_terminate
Lfunc_end7:
	.cfi_endproc
	.section	__TEXT,__gcc_except_tab
	.p2align	2
GCC_except_table58:
Lexception7:
	.byte	255                     
	.byte	155                     
	.uleb128 Lttbase0-Lttbaseref0
Lttbaseref0:
	.byte	1                       
	.uleb128 Lcst_end7-Lcst_begin7
Lcst_begin7:
	.uleb128 Lfunc_begin7-Lfunc_begin7 
	.uleb128 Ltmp111-Lfunc_begin7   
	.byte	0                       
	.byte	0                       
	.uleb128 Ltmp111-Lfunc_begin7   
	.uleb128 Ltmp112-Ltmp111        
	.uleb128 Ltmp113-Lfunc_begin7   
	.byte	1                       
	.uleb128 Ltmp114-Lfunc_begin7   
	.uleb128 Ltmp117-Ltmp114        
	.uleb128 Ltmp118-Lfunc_begin7   
	.byte	0                       
	.uleb128 Ltmp117-Lfunc_begin7   
	.uleb128 Lfunc_end7-Ltmp117     
	.byte	0                       
	.byte	0                       
Lcst_end7:
	.byte	1                       
                                        
	.byte	0                       
	.p2align	2
                                        
	.long	0                       
Lttbase0:
	.p2align	2
                                        
	.section	__TEXT,__text,regular,pure_instructions
	.globl	__ZN6loguru15set_thread_nameEPKc 
	.p2align	4, 0x90
__ZN6loguru15set_thread_nameEPKc:       
	.cfi_startproc

	push	rbp
	.cfi_def_cfa_offset 16
	.cfi_offset rbp, -16
	mov	rbp, rsp
	.cfi_def_cfa_register rbp
	pop	rbp
	jmp	_pthread_setname_np     
	.cfi_endproc
                                        
	.globl	__ZN6loguru15get_thread_nameEPcyb 
	.p2align	4, 0x90
__ZN6loguru15get_thread_nameEPcyb:      
Lfunc_begin8:
	.cfi_startproc
	.cfi_personality 155, ___gxx_personality_v0
	.cfi_lsda 16, Lexception8

	push	rbp
	.cfi_def_cfa_offset 16
	.cfi_offset rbp, -16
	mov	rbp, rsp
	.cfi_def_cfa_register rbp
	push	r15
	push	r14
	push	r13
	push	r12
	push	rbx
	sub	rsp, 56
	.cfi_offset rbx, -56
	.cfi_offset r12, -48
	.cfi_offset r13, -40
	.cfi_offset r14, -32
	.cfi_offset r15, -24
	test	rsi, rsi
	je	LBB60_1

	mov	rbx, rdi
	test	rdi, rdi
	je	LBB60_19

	mov	r15d, edx
	mov	r14, rsi
	call	_pthread_self
	mov	rdi, rax
	mov	rsi, rbx
	mov	rdx, r14
	call	_pthread_getname_np
	cmp	byte ptr [rbx], 0
	jne	LBB60_18

	call	_pthread_self
	lea	rsi, [rbp - 48]
	mov	rdi, rax
	call	_pthread_threadid_np
	test	r15b, r15b
	je	LBB60_17

	lea	ecx, [r14 - 1]
	mov	r8d, dword ptr [rbp - 48]
	lea	rdx, [rip + L_.str.85]
	mov	rdi, rbx
	mov	rsi, r14
	xor	eax, eax
	call	_snprintf
	jmp	LBB60_18
LBB60_17:
	mov	ecx, dword ptr [rbp - 48]
	lea	rdx, [rip + L_.str.86]
	mov	rdi, rbx
	mov	rsi, r14
	xor	eax, eax
	call	_snprintf
LBB60_18:
	add	rsp, 56
	pop	rbx
	pop	r12
	pop	r13
	pop	r14
	pop	r15
	pop	rbp
	ret
LBB60_1:
	lea	rsi, [rip + L_.str.160]
	lea	rdi, [rbp - 48]
	xor	edx, edx
	xor	eax, eax
	call	__ZN6loguru10textprintfEPKcz
Ltmp119:
	lea	rsi, [rip + L_.str.161]
	lea	rdi, [rbp - 72]
	xor	edx, edx
	xor	eax, eax
	call	__ZN6loguru10textprintfEPKcz
Ltmp120:

	mov	r14, qword ptr [rbp - 48]
	mov	r12, qword ptr [rbp - 72]
Ltmp122:
	mov	qword ptr [rsp + 8], r12
	lea	rcx, [rip + L_.str.80]
	mov	qword ptr [rsp], rcx
	lea	rsi, [rip + L_.str.23]
	lea	rdx, [rip + L_.str.79]
	lea	r8, [rip + L_.str.81]
	lea	rdi, [rbp - 56]
	mov	r9, r14
	xor	eax, eax
	call	__ZN6loguru10textprintfEPKcz
Ltmp123:

Ltmp125:
	lea	rsi, [rip + L_.str.82]
	lea	rdi, [rbp - 64]
	xor	eax, eax
	call	__ZN6loguru10textprintfEPKcz
Ltmp126:

	mov	r13, qword ptr [rbp - 56]
	mov	rbx, qword ptr [rbp - 64]
Ltmp128:
	lea	rdx, [rip + L_.str.28]
	lea	r8, [rip + L_.str.29]
	xor	edi, edi
	mov	rsi, r13
	mov	ecx, 1058
	mov	r9, rbx
	xor	eax, eax
	call	__ZN6loguru13log_and_abortEiPKcS1_jS1_z
Ltmp129:

	ud2
LBB60_19:
	lea	rsi, [rip + L_.str.83]
	lea	rdx, [rip + L_.str.28]
	lea	r8, [rip + L_.str.84]
	xor	edi, edi
	mov	ecx, 1059
	xor	eax, eax
	call	__ZN6loguru13log_and_abortEiPKcS1_jS1_z
LBB60_9:
Ltmp130:
	mov	r15, rax
	mov	rdi, rbx
	call	_free
	jmp	LBB60_10
LBB60_8:
Ltmp127:
	mov	r15, rax
	mov	r13, qword ptr [rbp - 56]
LBB60_10:
	mov	rdi, r13
	call	_free
	jmp	LBB60_11
LBB60_7:
Ltmp124:
	mov	r15, rax
LBB60_11:
	mov	rdi, r12
	call	_free
	jmp	LBB60_12
LBB60_6:
Ltmp121:
	mov	r15, rax
	mov	r14, qword ptr [rbp - 48]
LBB60_12:
	mov	rdi, r14
	call	_free
	mov	rdi, r15
	call	__Unwind_Resume
	ud2
Lfunc_end8:
	.cfi_endproc
	.section	__TEXT,__gcc_except_tab
	.p2align	2
GCC_except_table60:
Lexception8:
	.byte	255                     
	.byte	255                     
	.byte	1                       
	.uleb128 Lcst_end8-Lcst_begin8
Lcst_begin8:
	.uleb128 Lfunc_begin8-Lfunc_begin8 
	.uleb128 Ltmp119-Lfunc_begin8   
	.byte	0                       
	.byte	0                       
	.uleb128 Ltmp119-Lfunc_begin8   
	.uleb128 Ltmp120-Ltmp119        
	.uleb128 Ltmp121-Lfunc_begin8   
	.byte	0                       
	.uleb128 Ltmp122-Lfunc_begin8   
	.uleb128 Ltmp123-Ltmp122        
	.uleb128 Ltmp124-Lfunc_begin8   
	.byte	0                       
	.uleb128 Ltmp125-Lfunc_begin8   
	.uleb128 Ltmp126-Ltmp125        
	.uleb128 Ltmp127-Lfunc_begin8   
	.byte	0                       
	.uleb128 Ltmp128-Lfunc_begin8   
	.uleb128 Ltmp129-Ltmp128        
	.uleb128 Ltmp130-Lfunc_begin8   
	.byte	0                       
	.uleb128 Ltmp129-Lfunc_begin8   
	.uleb128 Lfunc_end8-Ltmp129     
	.byte	0                       
	.byte	0                       
Lcst_end8:
	.p2align	2
                                        
	.section	__TEXT,__text,regular,pure_instructions
	.globl	__ZN6loguru8demangleEPKc 
	.p2align	4, 0x90
__ZN6loguru8demangleEPKc:               
	.cfi_startproc

	push	rbp
	.cfi_def_cfa_offset 16
	.cfi_offset rbp, -16
	mov	rbp, rsp
	.cfi_def_cfa_register rbp
	push	r14
	push	rbx
	sub	rsp, 16
	.cfi_offset rbx, -32
	.cfi_offset r14, -24
	mov	rbx, rsi
	mov	r14, rdi
	mov	dword ptr [rbp - 20], -1
	lea	rcx, [rbp - 20]
	mov	rdi, rsi
	xor	esi, esi
	xor	edx, edx
	call	___cxa_demangle
	cmp	dword ptr [rbp - 20], 0
	je	LBB61_2

	mov	rdi, rbx
	call	_strdup
LBB61_2:
	mov	qword ptr [r14], rax
	mov	rax, r14
	add	rsp, 16
	pop	rbx
	pop	r14
	pop	rbp
	ret
	.cfi_endproc
                                        
	.globl	__ZN6loguru9type_nameINSt3__112basic_stringIcNS1_11char_traitsIcEENS1_9allocatorIcEEEEEES7_v 
	.weak_def_can_be_hidden	__ZN6loguru9type_nameINSt3__112basic_stringIcNS1_11char_traitsIcEENS1_9allocatorIcEEEEEES7_v
	.p2align	4, 0x90
__ZN6loguru9type_nameINSt3__112basic_stringIcNS1_11char_traitsIcEENS1_9allocatorIcEEEEEES7_v: 
Lfunc_begin9:
	.cfi_startproc
	.cfi_personality 155, ___gxx_personality_v0
	.cfi_lsda 16, Lexception9

	push	rbp
	.cfi_def_cfa_offset 16
	.cfi_offset rbp, -16
	mov	rbp, rsp
	.cfi_def_cfa_register rbp
	push	r15
	push	r14
	push	r13
	push	r12
	push	rbx
	push	rax
	.cfi_offset rbx, -56
	.cfi_offset r12, -48
	.cfi_offset r13, -40
	.cfi_offset r14, -32
	.cfi_offset r15, -24
	mov	r14, rdi
	mov	dword ptr [rbp - 44], -1
	mov	rdi, qword ptr [rip + __ZTSNSt3__112basic_stringIcNS_11char_traitsIcEENS_9allocatorIcEEEE@GOTPCREL]
	lea	rcx, [rbp - 44]
	xor	esi, esi
	xor	edx, edx
	call	___cxa_demangle
	cmp	dword ptr [rbp - 44], 0
	je	LBB62_2

	mov	rdi, qword ptr [rip + __ZTSNSt3__112basic_stringIcNS_11char_traitsIcEENS_9allocatorIcEEEE@GOTPCREL]
	call	_strdup
LBB62_2:
	mov	r15, rax
	mov	rdi, rax
	call	_strlen
	cmp	rax, -16
	jae	LBB62_3

	mov	r13, rax
	cmp	rax, 23
	jae	LBB62_6

	lea	eax, [r13 + r13]
	mov	byte ptr [r14], al
	lea	r12, [r14 + 1]
	test	r13, r13
	jne	LBB62_9
	jmp	LBB62_10
LBB62_6:
	mov	rbx, r13
	add	rbx, 16
	and	rbx, -16
Ltmp131:
	mov	rdi, rbx
	call	__Znwm
Ltmp132:

	mov	r12, rax
	mov	qword ptr [r14 + 16], rax
	or	rbx, 1
	mov	qword ptr [r14], rbx
	mov	qword ptr [r14 + 8], r13
LBB62_9:
	mov	rdi, r12
	mov	rsi, r15
	mov	rdx, r13
	call	_memcpy
LBB62_10:
	mov	byte ptr [r12 + r13], 0
	mov	rdi, r15
	call	_free
	mov	rax, r14
	add	rsp, 8
	pop	rbx
	pop	r12
	pop	r13
	pop	r14
	pop	r15
	pop	rbp
	ret
LBB62_3:
Ltmp133:
	mov	rdi, r14
	call	__ZNKSt3__121__basic_string_commonILb1EE20__throw_length_errorEv
Ltmp134:

	ud2
LBB62_11:
Ltmp135:
	mov	rbx, rax
	mov	rdi, r15
	call	_free
	mov	rdi, rbx
	call	__Unwind_Resume
	ud2
Lfunc_end9:
	.cfi_endproc
	.section	__TEXT,__gcc_except_tab
	.p2align	2
GCC_except_table62:
Lexception9:
	.byte	255                     
	.byte	255                     
	.byte	1                       
	.uleb128 Lcst_end9-Lcst_begin9
Lcst_begin9:
	.uleb128 Lfunc_begin9-Lfunc_begin9 
	.uleb128 Ltmp131-Lfunc_begin9   
	.byte	0                       
	.byte	0                       
	.uleb128 Ltmp131-Lfunc_begin9   
	.uleb128 Ltmp132-Ltmp131        
	.uleb128 Ltmp135-Lfunc_begin9   
	.byte	0                       
	.uleb128 Ltmp132-Lfunc_begin9   
	.uleb128 Ltmp133-Ltmp132        
	.byte	0                       
	.byte	0                       
	.uleb128 Ltmp133-Lfunc_begin9   
	.uleb128 Ltmp134-Ltmp133        
	.uleb128 Ltmp135-Lfunc_begin9   
	.byte	0                       
	.uleb128 Ltmp134-Lfunc_begin9   
	.uleb128 Lfunc_end9-Ltmp134     
	.byte	0                       
	.byte	0                       
Lcst_end9:
	.p2align	2
                                        
	.section	__TEXT,__text,regular,pure_instructions
	.globl	__ZN6loguru9type_nameINSt3__112basic_stringIwNS1_11char_traitsIwEENS1_9allocatorIwEEEEEENS2_IcNS3_IcEENS5_IcEEEEv 
	.weak_def_can_be_hidden	__ZN6loguru9type_nameINSt3__112basic_stringIwNS1_11char_traitsIwEENS1_9allocatorIwEEEEEENS2_IcNS3_IcEENS5_IcEEEEv
	.p2align	4, 0x90
__ZN6loguru9type_nameINSt3__112basic_stringIwNS1_11char_traitsIwEENS1_9allocatorIwEEEEEENS2_IcNS3_IcEENS5_IcEEEEv: 
Lfunc_begin10:
	.cfi_startproc
	.cfi_personality 155, ___gxx_personality_v0
	.cfi_lsda 16, Lexception10

	push	rbp
	.cfi_def_cfa_offset 16
	.cfi_offset rbp, -16
	mov	rbp, rsp
	.cfi_def_cfa_register rbp
	push	r15
	push	r14
	push	r13
	push	r12
	push	rbx
	push	rax
	.cfi_offset rbx, -56
	.cfi_offset r12, -48
	.cfi_offset r13, -40
	.cfi_offset r14, -32
	.cfi_offset r15, -24
	mov	r14, rdi
	mov	dword ptr [rbp - 44], -1
	mov	rdi, qword ptr [rip + __ZTSNSt3__112basic_stringIwNS_11char_traitsIwEENS_9allocatorIwEEEE@GOTPCREL]
	lea	rcx, [rbp - 44]
	xor	esi, esi
	xor	edx, edx
	call	___cxa_demangle
	cmp	dword ptr [rbp - 44], 0
	je	LBB63_2

	mov	rdi, qword ptr [rip + __ZTSNSt3__112basic_stringIwNS_11char_traitsIwEENS_9allocatorIwEEEE@GOTPCREL]
	call	_strdup
LBB63_2:
	mov	r15, rax
	mov	rdi, rax
	call	_strlen
	cmp	rax, -16
	jae	LBB63_3

	mov	r13, rax
	cmp	rax, 23
	jae	LBB63_6

	lea	eax, [r13 + r13]
	mov	byte ptr [r14], al
	lea	r12, [r14 + 1]
	test	r13, r13
	jne	LBB63_9
	jmp	LBB63_10
LBB63_6:
	mov	rbx, r13
	add	rbx, 16
	and	rbx, -16
Ltmp136:
	mov	rdi, rbx
	call	__Znwm
Ltmp137:

	mov	r12, rax
	mov	qword ptr [r14 + 16], rax
	or	rbx, 1
	mov	qword ptr [r14], rbx
	mov	qword ptr [r14 + 8], r13
LBB63_9:
	mov	rdi, r12
	mov	rsi, r15
	mov	rdx, r13
	call	_memcpy
LBB63_10:
	mov	byte ptr [r12 + r13], 0
	mov	rdi, r15
	call	_free
	mov	rax, r14
	add	rsp, 8
	pop	rbx
	pop	r12
	pop	r13
	pop	r14
	pop	r15
	pop	rbp
	ret
LBB63_3:
Ltmp138:
	mov	rdi, r14
	call	__ZNKSt3__121__basic_string_commonILb1EE20__throw_length_errorEv
Ltmp139:

	ud2
LBB63_11:
Ltmp140:
	mov	rbx, rax
	mov	rdi, r15
	call	_free
	mov	rdi, rbx
	call	__Unwind_Resume
	ud2
Lfunc_end10:
	.cfi_endproc
	.section	__TEXT,__gcc_except_tab
	.p2align	2
GCC_except_table63:
Lexception10:
	.byte	255                     
	.byte	255                     
	.byte	1                       
	.uleb128 Lcst_end10-Lcst_begin10
Lcst_begin10:
	.uleb128 Lfunc_begin10-Lfunc_begin10 
	.uleb128 Ltmp136-Lfunc_begin10  
	.byte	0                       
	.byte	0                       
	.uleb128 Ltmp136-Lfunc_begin10  
	.uleb128 Ltmp137-Ltmp136        
	.uleb128 Ltmp140-Lfunc_begin10  
	.byte	0                       
	.uleb128 Ltmp137-Lfunc_begin10  
	.uleb128 Ltmp138-Ltmp137        
	.byte	0                       
	.byte	0                       
	.uleb128 Ltmp138-Lfunc_begin10  
	.uleb128 Ltmp139-Ltmp138        
	.uleb128 Ltmp140-Lfunc_begin10  
	.byte	0                       
	.uleb128 Ltmp139-Lfunc_begin10  
	.uleb128 Lfunc_end10-Ltmp139    
	.byte	0                       
	.byte	0                       
Lcst_end10:
	.p2align	2
                                        
	.section	__TEXT,__text,regular,pure_instructions
	.globl	__ZN6loguru9type_nameINSt3__112basic_stringIDsNS1_11char_traitsIDsEENS1_9allocatorIDsEEEEEENS2_IcNS3_IcEENS5_IcEEEEv 
	.weak_def_can_be_hidden	__ZN6loguru9type_nameINSt3__112basic_stringIDsNS1_11char_traitsIDsEENS1_9allocatorIDsEEEEEENS2_IcNS3_IcEENS5_IcEEEEv
	.p2align	4, 0x90
__ZN6loguru9type_nameINSt3__112basic_stringIDsNS1_11char_traitsIDsEENS1_9allocatorIDsEEEEEENS2_IcNS3_IcEENS5_IcEEEEv: 
Lfunc_begin11:
	.cfi_startproc
	.cfi_personality 155, ___gxx_personality_v0
	.cfi_lsda 16, Lexception11

	push	rbp
	.cfi_def_cfa_offset 16
	.cfi_offset rbp, -16
	mov	rbp, rsp
	.cfi_def_cfa_register rbp
	push	r15
	push	r14
	push	r13
	push	r12
	push	rbx
	push	rax
	.cfi_offset rbx, -56
	.cfi_offset r12, -48
	.cfi_offset r13, -40
	.cfi_offset r14, -32
	.cfi_offset r15, -24
	mov	r14, rdi
	mov	dword ptr [rbp - 44], -1
	mov	rdi, qword ptr [rip + __ZTSNSt3__112basic_stringIDsNS_11char_traitsIDsEENS_9allocatorIDsEEEE@GOTPCREL]
	lea	rcx, [rbp - 44]
	xor	esi, esi
	xor	edx, edx
	call	___cxa_demangle
	cmp	dword ptr [rbp - 44], 0
	je	LBB64_2

	mov	rdi, qword ptr [rip + __ZTSNSt3__112basic_stringIDsNS_11char_traitsIDsEENS_9allocatorIDsEEEE@GOTPCREL]
	call	_strdup
LBB64_2:
	mov	r15, rax
	mov	rdi, rax
	call	_strlen
	cmp	rax, -16
	jae	LBB64_3

	mov	r13, rax
	cmp	rax, 23
	jae	LBB64_6

	lea	eax, [r13 + r13]
	mov	byte ptr [r14], al
	lea	r12, [r14 + 1]
	test	r13, r13
	jne	LBB64_9
	jmp	LBB64_10
LBB64_6:
	mov	rbx, r13
	add	rbx, 16
	and	rbx, -16
Ltmp141:
	mov	rdi, rbx
	call	__Znwm
Ltmp142:

	mov	r12, rax
	mov	qword ptr [r14 + 16], rax
	or	rbx, 1
	mov	qword ptr [r14], rbx
	mov	qword ptr [r14 + 8], r13
LBB64_9:
	mov	rdi, r12
	mov	rsi, r15
	mov	rdx, r13
	call	_memcpy
LBB64_10:
	mov	byte ptr [r12 + r13], 0
	mov	rdi, r15
	call	_free
	mov	rax, r14
	add	rsp, 8
	pop	rbx
	pop	r12
	pop	r13
	pop	r14
	pop	r15
	pop	rbp
	ret
LBB64_3:
Ltmp143:
	mov	rdi, r14
	call	__ZNKSt3__121__basic_string_commonILb1EE20__throw_length_errorEv
Ltmp144:

	ud2
LBB64_11:
Ltmp145:
	mov	rbx, rax
	mov	rdi, r15
	call	_free
	mov	rdi, rbx
	call	__Unwind_Resume
	ud2
Lfunc_end11:
	.cfi_endproc
	.section	__TEXT,__gcc_except_tab
	.p2align	2
GCC_except_table64:
Lexception11:
	.byte	255                     
	.byte	255                     
	.byte	1                       
	.uleb128 Lcst_end11-Lcst_begin11
Lcst_begin11:
	.uleb128 Lfunc_begin11-Lfunc_begin11 
	.uleb128 Ltmp141-Lfunc_begin11  
	.byte	0                       
	.byte	0                       
	.uleb128 Ltmp141-Lfunc_begin11  
	.uleb128 Ltmp142-Ltmp141        
	.uleb128 Ltmp145-Lfunc_begin11  
	.byte	0                       
	.uleb128 Ltmp142-Lfunc_begin11  
	.uleb128 Ltmp143-Ltmp142        
	.byte	0                       
	.byte	0                       
	.uleb128 Ltmp143-Lfunc_begin11  
	.uleb128 Ltmp144-Ltmp143        
	.uleb128 Ltmp145-Lfunc_begin11  
	.byte	0                       
	.uleb128 Ltmp144-Lfunc_begin11  
	.uleb128 Lfunc_end11-Ltmp144    
	.byte	0                       
	.byte	0                       
Lcst_end11:
	.p2align	2
                                        
	.section	__TEXT,__text,regular,pure_instructions
	.globl	__ZN6loguru9type_nameINSt3__112basic_stringIDiNS1_11char_traitsIDiEENS1_9allocatorIDiEEEEEENS2_IcNS3_IcEENS5_IcEEEEv 
	.weak_def_can_be_hidden	__ZN6loguru9type_nameINSt3__112basic_stringIDiNS1_11char_traitsIDiEENS1_9allocatorIDiEEEEEENS2_IcNS3_IcEENS5_IcEEEEv
	.p2align	4, 0x90
__ZN6loguru9type_nameINSt3__112basic_stringIDiNS1_11char_traitsIDiEENS1_9allocatorIDiEEEEEENS2_IcNS3_IcEENS5_IcEEEEv: 
Lfunc_begin12:
	.cfi_startproc
	.cfi_personality 155, ___gxx_personality_v0
	.cfi_lsda 16, Lexception12

	push	rbp
	.cfi_def_cfa_offset 16
	.cfi_offset rbp, -16
	mov	rbp, rsp
	.cfi_def_cfa_register rbp
	push	r15
	push	r14
	push	r13
	push	r12
	push	rbx
	push	rax
	.cfi_offset rbx, -56
	.cfi_offset r12, -48
	.cfi_offset r13, -40
	.cfi_offset r14, -32
	.cfi_offset r15, -24
	mov	r14, rdi
	mov	dword ptr [rbp - 44], -1
	mov	rdi, qword ptr [rip + __ZTSNSt3__112basic_stringIDiNS_11char_traitsIDiEENS_9allocatorIDiEEEE@GOTPCREL]
	lea	rcx, [rbp - 44]
	xor	esi, esi
	xor	edx, edx
	call	___cxa_demangle
	cmp	dword ptr [rbp - 44], 0
	je	LBB65_2

	mov	rdi, qword ptr [rip + __ZTSNSt3__112basic_stringIDiNS_11char_traitsIDiEENS_9allocatorIDiEEEE@GOTPCREL]
	call	_strdup
LBB65_2:
	mov	r15, rax
	mov	rdi, rax
	call	_strlen
	cmp	rax, -16
	jae	LBB65_3

	mov	r13, rax
	cmp	rax, 23
	jae	LBB65_6

	lea	eax, [r13 + r13]
	mov	byte ptr [r14], al
	lea	r12, [r14 + 1]
	test	r13, r13
	jne	LBB65_9
	jmp	LBB65_10
LBB65_6:
	mov	rbx, r13
	add	rbx, 16
	and	rbx, -16
Ltmp146:
	mov	rdi, rbx
	call	__Znwm
Ltmp147:

	mov	r12, rax
	mov	qword ptr [r14 + 16], rax
	or	rbx, 1
	mov	qword ptr [r14], rbx
	mov	qword ptr [r14 + 8], r13
LBB65_9:
	mov	rdi, r12
	mov	rsi, r15
	mov	rdx, r13
	call	_memcpy
LBB65_10:
	mov	byte ptr [r12 + r13], 0
	mov	rdi, r15
	call	_free
	mov	rax, r14
	add	rsp, 8
	pop	rbx
	pop	r12
	pop	r13
	pop	r14
	pop	r15
	pop	rbp
	ret
LBB65_3:
Ltmp148:
	mov	rdi, r14
	call	__ZNKSt3__121__basic_string_commonILb1EE20__throw_length_errorEv
Ltmp149:

	ud2
LBB65_11:
Ltmp150:
	mov	rbx, rax
	mov	rdi, r15
	call	_free
	mov	rdi, rbx
	call	__Unwind_Resume
	ud2
Lfunc_end12:
	.cfi_endproc
	.section	__TEXT,__gcc_except_tab
	.p2align	2
GCC_except_table65:
Lexception12:
	.byte	255                     
	.byte	255                     
	.byte	1                       
	.uleb128 Lcst_end12-Lcst_begin12
Lcst_begin12:
	.uleb128 Lfunc_begin12-Lfunc_begin12 
	.uleb128 Ltmp146-Lfunc_begin12  
	.byte	0                       
	.byte	0                       
	.uleb128 Ltmp146-Lfunc_begin12  
	.uleb128 Ltmp147-Ltmp146        
	.uleb128 Ltmp150-Lfunc_begin12  
	.byte	0                       
	.uleb128 Ltmp147-Lfunc_begin12  
	.uleb128 Ltmp148-Ltmp147        
	.byte	0                       
	.byte	0                       
	.uleb128 Ltmp148-Lfunc_begin12  
	.uleb128 Ltmp149-Ltmp148        
	.uleb128 Ltmp150-Lfunc_begin12  
	.byte	0                       
	.uleb128 Ltmp149-Lfunc_begin12  
	.uleb128 Lfunc_end12-Ltmp149    
	.byte	0                       
	.byte	0                       
Lcst_end12:
	.p2align	2
                                        
	.section	__TEXT,__text,regular,pure_instructions
	.globl	__ZN6loguru15do_replacementsERKNSt3__16vectorINS0_4pairINS0_12basic_stringIcNS0_11char_traitsIcEENS0_9allocatorIcEEEES8_EENS6_IS9_EEEERS8_ 
	.p2align	4, 0x90
__ZN6loguru15do_replacementsERKNSt3__16vectorINS0_4pairINS0_12basic_stringIcNS0_11char_traitsIcEENS0_9allocatorIcEEEES8_EENS6_IS9_EEEERS8_: 
	.cfi_startproc

	push	rbp
	.cfi_def_cfa_offset 16
	.cfi_offset rbp, -16
	mov	rbp, rsp
	.cfi_def_cfa_register rbp
	push	r15
	push	r14
	push	r13
	push	r12
	push	rbx
	sub	rsp, 56
	.cfi_offset rbx, -56
	.cfi_offset r12, -48
	.cfi_offset r13, -40
	.cfi_offset r14, -32
	.cfi_offset r15, -24
	mov	rbx, qword ptr [rdi]
	mov	rax, qword ptr [rdi + 8]
	mov	qword ptr [rbp - 96], rax 
	cmp	rbx, rax
	je	LBB66_25

	lea	rax, [rsi + 1]
	mov	qword ptr [rbp - 72], rax 
	mov	qword ptr [rbp - 48], rsi 
	jmp	LBB66_2
	.p2align	4, 0x90
LBB66_24:                               
	mov	rbx, qword ptr [rbp - 64] 
	add	rbx, 48
	cmp	rbx, qword ptr [rbp - 96] 
	je	LBB66_25
LBB66_2:                                
                                        
                                        
	mov	al, byte ptr [rbx]
	test	al, 1
	jne	LBB66_3

	movzx	ecx, al
	shr	rcx
	jmp	LBB66_5
	.p2align	4, 0x90
LBB66_3:                                
	mov	rcx, qword ptr [rbx + 8]
LBB66_5:                                
	movzx	edx, byte ptr [rbx + 24]
	test	dl, 1
	mov	qword ptr [rbp - 64], rbx 
	jne	LBB66_6

	shr	rdx
	cmp	rcx, rdx
	jbe	LBB66_24
	jmp	LBB66_9
	.p2align	4, 0x90
LBB66_6:                                
	mov	rdx, qword ptr [rbx + 32]
	cmp	rcx, rdx
	jbe	LBB66_24
LBB66_9:                                
	mov	r13, qword ptr [rbp - 64] 
	lea	rcx, [r13 + 24]
	lea	rdx, [r13 + 1]
	mov	qword ptr [rbp - 88], rdx 
	inc	rcx
	mov	qword ptr [rbp - 80], rcx 
	mov	r14, qword ptr [rbp - 48] 
LBB66_10:                               
                                        
                                        
	movzx	edx, byte ptr [r14]
	test	dl, 1
	je	LBB66_11

	mov	rcx, qword ptr [r14 + 16]
	mov	qword ptr [rbp - 56], rcx 
	mov	rdx, qword ptr [r14 + 8]
	test	al, 1
	jne	LBB66_15
LBB66_14:                               
	shr	al
	movzx	r15d, al
	mov	r12, qword ptr [rbp - 88] 
	test	r15, r15
	je	LBB66_17
LBB66_18:                               
	cmp	rdx, r15
	jl	LBB66_24

	mov	rbx, qword ptr [rbp - 56] 
	lea	r14, [rbx + rdx]
	movzx	r13d, byte ptr [r12]
	.p2align	4, 0x90
LBB66_20:                               
                                        
                                        
	sub	rdx, r15
	inc	rdx
	je	LBB66_24

	mov	rdi, rbx
	mov	esi, r13d
	call	_memchr
	test	rax, rax
	je	LBB66_24

	mov	rbx, rax
	mov	rdi, rax
	mov	rsi, r12
	mov	rdx, r15
	call	_memcmp
	test	eax, eax
	je	LBB66_26

	inc	rbx
	mov	rdx, r14
	sub	rdx, rbx
	cmp	rdx, r15
	jge	LBB66_20
	jmp	LBB66_24
	.p2align	4, 0x90
LBB66_11:                               
	shr	rdx
	mov	rcx, qword ptr [rbp - 72] 
	mov	qword ptr [rbp - 56], rcx 
	test	al, 1
	je	LBB66_14
LBB66_15:                               
	mov	r12, qword ptr [r13 + 16]
	mov	r15, qword ptr [r13 + 8]
	test	r15, r15
	jne	LBB66_18
LBB66_17:                               
	xor	ebx, ebx
	jmp	LBB66_28
LBB66_26:                               
	cmp	rbx, r14
	je	LBB66_24

	sub	rbx, qword ptr [rbp - 56] 
	cmp	rbx, -1
	je	LBB66_24
LBB66_28:                               
	mov	r13, qword ptr [rbp - 64] 
	movzx	r8d, byte ptr [r13 + 24]
	test	r8b, 1
	je	LBB66_29

	mov	rcx, qword ptr [r13 + 40]
	mov	r8, qword ptr [r13 + 32]
	jmp	LBB66_31
	.p2align	4, 0x90
LBB66_29:                               
	shr	r8
	mov	rcx, qword ptr [rbp - 80] 
LBB66_31:                               
	mov	r14, qword ptr [rbp - 48] 
	mov	rdi, r14
	mov	rsi, rbx
	mov	rdx, r15
	call	__ZNSt3__112basic_stringIcNS_11char_traitsIcEENS_9allocatorIcEEE7replaceEmmPKcm
	mov	al, byte ptr [r13]
	jmp	LBB66_10
LBB66_25:
	add	rsp, 56
	pop	rbx
	pop	r12
	pop	r13
	pop	r14
	pop	r15
	pop	rbp
	ret
	.cfi_endproc
                                        
	.globl	__ZN6loguru19prettify_stacktraceERKNSt3__112basic_stringIcNS0_11char_traitsIcEENS0_9allocatorIcEEEE 
	.p2align	4, 0x90
__ZN6loguru19prettify_stacktraceERKNSt3__112basic_stringIcNS0_11char_traitsIcEENS0_9allocatorIcEEEE: 
Lfunc_begin13:
	.cfi_startproc
	.cfi_personality 155, ___gxx_personality_v0
	.cfi_lsda 16, Lexception13

	push	rbp
	.cfi_def_cfa_offset 16
	.cfi_offset rbp, -16
	mov	rbp, rsp
	.cfi_def_cfa_register rbp
	push	r15
	push	r14
	push	r12
	push	rbx
	sub	rsp, 192
	.cfi_offset rbx, -48
	.cfi_offset r12, -40
	.cfi_offset r14, -32
	.cfi_offset r15, -24
	mov	r12, rdi
	call	__ZNSt3__112basic_stringIcNS_11char_traitsIcEENS_9allocatorIcEEEC1ERKS5_
Ltmp151:
	lea	rdi, [rip + __ZN6loguruL21s_user_stack_cleanupsE]
	mov	rsi, r12
	call	__ZN6loguru15do_replacementsERKNSt3__16vectorINS0_4pairINS0_12basic_stringIcNS0_11char_traitsIcEENS0_9allocatorIcEEEES8_EENS6_IS9_EEEERS8_
Ltmp152:

Ltmp153:
	lea	rdi, [rip + __ZN6loguruL12REPLACE_LISTE]
	mov	rsi, r12
	call	__ZN6loguru15do_replacementsERKNSt3__16vectorINS0_4pairINS0_12basic_stringIcNS0_11char_traitsIcEENS0_9allocatorIcEEEES8_EENS6_IS9_EEEERS8_
Ltmp154:

Ltmp156:
	lea	rsi, [rip + L_.str.96]
	lea	rdi, [rbp - 224]
	call	__ZNSt3__111basic_regexIcNS_12regex_traitsIcEEEC1EPKcNS_15regex_constants18syntax_option_typeE
Ltmp157:

	mov	word ptr [rbp - 64], 0
	lea	r8, [rbp - 63]
	xorps	xmm0, xmm0
	movaps	xmmword ptr [rbp - 160], xmm0
	mov	qword ptr [rbp - 144], 0
	movzx	edx, byte ptr [r12]
	lea	r14, [r12 + 1]
	test	dl, 1
	je	LBB67_4

	mov	rsi, qword ptr [r12 + 16]
	mov	rdx, qword ptr [r12 + 8]
	jmp	LBB67_6
LBB67_4:
	shr	rdx
	mov	rsi, r14
LBB67_6:
	add	rdx, rsi
Ltmp159:
	lea	rdi, [rbp - 160]
	lea	rcx, [rbp - 224]
	xor	r9d, r9d
	call	__ZNSt3__113regex_replaceINS_20back_insert_iteratorINS_12basic_stringIcNS_11char_traitsIcEENS_9allocatorIcEEEEEENS_11__wrap_iterIPKcEENS_12regex_traitsIcEEcEET_SF_T0_SG_RKNS_11basic_regexIT2_T1_EEPKSI_NS_15regex_constants15match_flag_typeE
Ltmp160:

	test	byte ptr [r12], 1
	je	LBB67_9

	mov	rdi, qword ptr [r12 + 16]
	call	__ZdlPv
LBB67_9:
	mov	rax, qword ptr [rbp - 144]
	mov	qword ptr [r12 + 16], rax
	mov	rax, qword ptr [rbp - 160]
	mov	rcx, qword ptr [rbp - 152]
	mov	qword ptr [r12 + 8], rcx
	mov	qword ptr [r12], rax
	mov	word ptr [rbp - 160], 0
	test	byte ptr [rbp - 64], 1
	je	LBB67_11

	mov	rdi, qword ptr [rbp - 48]
	call	__ZdlPv
LBB67_11:
Ltmp162:
	lea	rsi, [rip + L_.str.97]
	lea	rdi, [rbp - 160]
	call	__ZNSt3__111basic_regexIcNS_12regex_traitsIcEEEC1EPKcNS_15regex_constants18syntax_option_typeE
Ltmp163:

	mov	byte ptr [rbp - 88], 8
	lea	r8, [rbp - 87]
	mov	dword ptr [rbp - 87], 1043407932
	mov	byte ptr [rbp - 83], 0
	xorps	xmm0, xmm0
	movaps	xmmword ptr [rbp - 64], xmm0
	mov	qword ptr [rbp - 48], 0
	movzx	edx, byte ptr [r12]
	test	dl, 1
	je	LBB67_13

	mov	r14, qword ptr [r12 + 16]
	mov	rdx, qword ptr [r12 + 8]
	jmp	LBB67_19
LBB67_13:
	shr	rdx
LBB67_19:
	add	rdx, r14
Ltmp165:
	lea	rdi, [rbp - 64]
	lea	rcx, [rbp - 160]
	mov	rsi, r14
	xor	r9d, r9d
	call	__ZNSt3__113regex_replaceINS_20back_insert_iteratorINS_12basic_stringIcNS_11char_traitsIcEENS_9allocatorIcEEEEEENS_11__wrap_iterIPKcEENS_12regex_traitsIcEEcEET_SF_T0_SG_RKNS_11basic_regexIT2_T1_EEPKSI_NS_15regex_constants15match_flag_typeE
Ltmp166:

	test	byte ptr [r12], 1
	je	LBB67_22

	mov	rdi, qword ptr [r12 + 16]
	call	__ZdlPv
LBB67_22:
	mov	rax, qword ptr [rbp - 48]
	mov	qword ptr [r12 + 16], rax
	mov	rax, qword ptr [rbp - 64]
	mov	rcx, qword ptr [rbp - 56]
	mov	qword ptr [r12 + 8], rcx
	mov	qword ptr [r12], rax
	mov	word ptr [rbp - 64], 0
	test	byte ptr [rbp - 88], 1
	je	LBB67_24

	mov	rdi, qword ptr [rbp - 72]
	call	__ZdlPv
LBB67_24:
	mov	rbx, qword ptr [rbp - 112]
	test	rbx, rbx
	je	LBB67_27

	mov	rax, -1
	lock		xadd	qword ptr [rbx + 8], rax
	test	rax, rax
	jne	LBB67_27

	mov	rax, qword ptr [rbx]
	mov	rdi, rbx
	call	qword ptr [rax + 16]
	mov	rdi, rbx
	call	__ZNSt3__119__shared_weak_count14__release_weakEv
LBB67_27:
	lea	rdi, [rbp - 160]
	call	__ZNSt3__16localeD1Ev
	mov	rbx, qword ptr [rbp - 176]
	test	rbx, rbx
	je	LBB67_30

	mov	rax, -1
	lock		xadd	qword ptr [rbx + 8], rax
	test	rax, rax
	jne	LBB67_30

	mov	rax, qword ptr [rbx]
	mov	rdi, rbx
	call	qword ptr [rax + 16]
	mov	rdi, rbx
	call	__ZNSt3__119__shared_weak_count14__release_weakEv
LBB67_30:
	lea	rdi, [rbp - 224]
	call	__ZNSt3__16localeD1Ev
LBB67_47:
	mov	rax, r12
	add	rsp, 192
	pop	rbx
	pop	r12
	pop	r14
	pop	r15
	pop	rbp
	ret
LBB67_31:
Ltmp167:
	mov	r15, rdx
	mov	r14, rax
	test	byte ptr [rbp - 64], 1
	je	LBB67_33

	mov	rdi, qword ptr [rbp - 48]
	call	__ZdlPv
LBB67_33:
	test	byte ptr [rbp - 88], 1
	je	LBB67_35

	mov	rdi, qword ptr [rbp - 72]
	call	__ZdlPv
LBB67_35:
	mov	rbx, qword ptr [rbp - 112]
	test	rbx, rbx
	je	LBB67_38

	mov	rax, -1
	lock		xadd	qword ptr [rbx + 8], rax
	test	rax, rax
	jne	LBB67_38

	mov	rax, qword ptr [rbx]
	mov	rdi, rbx
	call	qword ptr [rax + 16]
	mov	rdi, rbx
	call	__ZNSt3__119__shared_weak_count14__release_weakEv
LBB67_38:
	lea	rdi, [rbp - 160]
	call	__ZNSt3__16localeD1Ev
	jmp	LBB67_41
LBB67_40:
Ltmp164:
	mov	r15, rdx
	mov	r14, rax
	jmp	LBB67_41
LBB67_14:
Ltmp161:
	mov	r15, rdx
	mov	r14, rax
	test	byte ptr [rbp - 160], 1
	je	LBB67_16

	mov	rdi, qword ptr [rbp - 144]
	call	__ZdlPv
LBB67_16:
	test	byte ptr [rbp - 64], 1
	je	LBB67_41

	mov	rdi, qword ptr [rbp - 48]
	call	__ZdlPv
LBB67_41:
	mov	rbx, qword ptr [rbp - 176]
	test	rbx, rbx
	je	LBB67_44

	mov	rax, -1
	lock		xadd	qword ptr [rbx + 8], rax
	test	rax, rax
	jne	LBB67_44

	mov	rax, qword ptr [rbx]
	mov	rdi, rbx
	call	qword ptr [rax + 16]
	mov	rdi, rbx
	call	__ZNSt3__119__shared_weak_count14__release_weakEv
LBB67_44:
	lea	rdi, [rbp - 224]
	call	__ZNSt3__16localeD1Ev
	jmp	LBB67_45
LBB67_39:
Ltmp158:
	mov	r15, rdx
	mov	r14, rax
LBB67_45:
	cmp	r15d, 1
	jne	LBB67_50

	mov	rdi, r14
	call	___cxa_begin_catch
Ltmp168:
	call	___cxa_end_catch
Ltmp169:
	jmp	LBB67_47
LBB67_53:
Ltmp170:
	jmp	LBB67_49
LBB67_48:
Ltmp155:
LBB67_49:
	mov	r14, rax
LBB67_50:
	test	byte ptr [r12], 1
	je	LBB67_52

	mov	rdi, qword ptr [r12 + 16]
	call	__ZdlPv
LBB67_52:
	mov	rdi, r14
	call	__Unwind_Resume
	ud2
Lfunc_end13:
	.cfi_endproc
	.section	__TEXT,__gcc_except_tab
	.p2align	2
GCC_except_table67:
Lexception13:
	.byte	255                     
	.byte	155                     
	.uleb128 Lttbase1-Lttbaseref1
Lttbaseref1:
	.byte	1                       
	.uleb128 Lcst_end13-Lcst_begin13
Lcst_begin13:
	.uleb128 Lfunc_begin13-Lfunc_begin13 
	.uleb128 Ltmp151-Lfunc_begin13  
	.byte	0                       
	.byte	0                       
	.uleb128 Ltmp151-Lfunc_begin13  
	.uleb128 Ltmp154-Ltmp151        
	.uleb128 Ltmp155-Lfunc_begin13  
	.byte	0                       
	.uleb128 Ltmp156-Lfunc_begin13  
	.uleb128 Ltmp157-Ltmp156        
	.uleb128 Ltmp158-Lfunc_begin13  
	.byte	3                       
	.uleb128 Ltmp159-Lfunc_begin13  
	.uleb128 Ltmp160-Ltmp159        
	.uleb128 Ltmp161-Lfunc_begin13  
	.byte	3                       
	.uleb128 Ltmp162-Lfunc_begin13  
	.uleb128 Ltmp163-Ltmp162        
	.uleb128 Ltmp164-Lfunc_begin13  
	.byte	3                       
	.uleb128 Ltmp165-Lfunc_begin13  
	.uleb128 Ltmp166-Ltmp165        
	.uleb128 Ltmp167-Lfunc_begin13  
	.byte	3                       
	.uleb128 Ltmp166-Lfunc_begin13  
	.uleb128 Ltmp168-Ltmp166        
	.byte	0                       
	.byte	0                       
	.uleb128 Ltmp168-Lfunc_begin13  
	.uleb128 Ltmp169-Ltmp168        
	.uleb128 Ltmp170-Lfunc_begin13  
	.byte	0                       
	.uleb128 Ltmp169-Lfunc_begin13  
	.uleb128 Lfunc_end13-Ltmp169    
	.byte	0                       
	.byte	0                       
Lcst_end13:
	.byte	0                       
                                        
	.byte	0                       
	.byte	1                       
                                        
	.byte	125                     
	.p2align	2
                                        
	.long	__ZTINSt3__111regex_errorE@GOTPCREL+4 
Lttbase1:
	.p2align	2
                                        
	.section	__TEXT,__text,regular,pure_instructions
	.p2align	4, 0x90         
__ZNSt3__111basic_regexIcNS_12regex_traitsIcEEEC1EPKcNS_15regex_constants18syntax_option_typeE: 
Lfunc_begin14:
	.cfi_startproc
	.cfi_personality 155, ___gxx_personality_v0
	.cfi_lsda 16, Lexception14

	push	rbp
	.cfi_def_cfa_offset 16
	.cfi_offset rbp, -16
	mov	rbp, rsp
	.cfi_def_cfa_register rbp
	push	r15
	push	r14
	push	rbx
	push	rax
	.cfi_offset rbx, -40
	.cfi_offset r14, -32
	.cfi_offset r15, -24
	mov	r14, rsi
	mov	r15, rdi
	call	__ZNSt3__16localeC1Ev
Ltmp171:
	mov	rsi, qword ptr [rip + __ZNSt3__15ctypeIcE2idE@GOTPCREL]
	mov	rdi, r15
	call	__ZNKSt3__16locale9use_facetERNS0_2idE
Ltmp172:

	mov	qword ptr [r15 + 8], rax
Ltmp173:
	mov	rsi, qword ptr [rip + __ZNSt3__17collateIcE2idE@GOTPCREL]
	mov	rdi, r15
	call	__ZNKSt3__16locale9use_facetERNS0_2idE
Ltmp174:

	mov	qword ptr [r15 + 16], rax
	mov	qword ptr [r15 + 24], 0
	mov	qword ptr [r15 + 32], 0
	mov	qword ptr [r15 + 40], 0
	mov	qword ptr [r15 + 48], 0
	mov	qword ptr [r15 + 56], 0
	mov	rdi, r14
	call	_strlen
	mov	rbx, rax
	add	rbx, r14
Ltmp176:
	mov	rdi, r15
	mov	rsi, r14
	mov	rdx, rbx
	call	__ZNSt3__111basic_regexIcNS_12regex_traitsIcEEE7__parseIPKcEET_S7_S7_
Ltmp177:

	cmp	rax, rbx
	jne	LBB68_4

	add	rsp, 8
	pop	rbx
	pop	r14
	pop	r15
	pop	rbp
	ret
LBB68_4:
Ltmp178:
	call	__ZNSt3__1L19__throw_regex_errorILNS_15regex_constants10error_typeE17EEEvv
Ltmp179:

	ud2
LBB68_6:
Ltmp180:
	mov	r14, rax
	mov	rdi, qword ptr [r15 + 48]
	test	rdi, rdi
	je	LBB68_8

	call	__ZNSt3__111basic_regexIcNS_12regex_traitsIcEEEC1EPKcNS_15regex_constants18syntax_option_typeE.cold.1
	jmp	LBB68_8
LBB68_9:
Ltmp175:
	mov	r14, rax
LBB68_8:
	mov	rdi, r15
	call	__ZNSt3__16localeD1Ev
	mov	rdi, r14
	call	__Unwind_Resume
	ud2
Lfunc_end14:
	.cfi_endproc
	.section	__TEXT,__gcc_except_tab
	.p2align	2
GCC_except_table68:
Lexception14:
	.byte	255                     
	.byte	255                     
	.byte	1                       
	.uleb128 Lcst_end14-Lcst_begin14
Lcst_begin14:
	.uleb128 Ltmp171-Lfunc_begin14  
	.uleb128 Ltmp174-Ltmp171        
	.uleb128 Ltmp175-Lfunc_begin14  
	.byte	0                       
	.uleb128 Ltmp176-Lfunc_begin14  
	.uleb128 Ltmp179-Ltmp176        
	.uleb128 Ltmp180-Lfunc_begin14  
	.byte	0                       
	.uleb128 Ltmp179-Lfunc_begin14  
	.uleb128 Lfunc_end14-Ltmp179    
	.byte	0                       
	.byte	0                       
Lcst_end14:
	.p2align	2
                                        
	.section	__TEXT,__text,regular,pure_instructions
	.globl	__ZN6loguru23stacktrace_as_stdstringEi 
	.p2align	4, 0x90
__ZN6loguru23stacktrace_as_stdstringEi: 
Lfunc_begin15:
	.cfi_startproc
	.cfi_personality 155, ___gxx_personality_v0
	.cfi_lsda 16, Lexception15

	push	rbp
	.cfi_def_cfa_offset 16
	.cfi_offset rbp, -16
	mov	rbp, rsp
	.cfi_def_cfa_register rbp
	push	r15
	push	r14
	push	r13
	push	r12
	push	rbx
	sub	rsp, 2184
	.cfi_offset rbx, -56
	.cfi_offset r12, -48
	.cfi_offset r13, -40
	.cfi_offset r14, -32
	.cfi_offset r15, -24
	mov	r15d, esi
	mov	qword ptr [rbp - 2160], rdi 
	mov	rax, qword ptr [rip + ___stack_chk_guard@GOTPCREL]
	mov	rax, qword ptr [rax]
	mov	qword ptr [rbp - 48], rax
	lea	r14, [rbp - 1072]
	mov	rdi, r14
	mov	esi, 128
	call	_backtrace
	mov	ebx, eax
	mov	rdi, r14
	mov	esi, eax
	call	_backtrace_symbols
	mov	qword ptr [rbp - 2152], rax 
	xorps	xmm0, xmm0
	movaps	xmmword ptr [rbp - 2128], xmm0
	mov	qword ptr [rbp - 2112], 0
	mov	dword ptr [rbp - 2136], r15d 
	mov	dword ptr [rbp - 2132], ebx 
	cmp	ebx, r15d
	jle	LBB69_18

	movsxd	r12, dword ptr [rbp - 2132] 
	mov	eax, dword ptr [rbp - 2136] 
	movsxd	r14, eax
                                        
	not	eax
	mov	qword ptr [rbp - 2168], rax 
	lea	r15, [rbp - 2096]
	.p2align	4, 0x90
LBB69_2:                                
	mov	rdi, qword ptr [rbp + 8*r12 - 1080]
Ltmp181:
	lea	rsi, [rbp - 2200]
	call	_dladdr
Ltmp182:

	lea	rbx, [r12 - 1]
	test	eax, eax
	je	LBB69_15

	mov	rdi, qword ptr [rbp - 2184]
	test	rdi, rdi
	je	LBB69_15

	mov	dword ptr [rbp - 2140], -1
	cmp	byte ptr [rdi], 95
	jne	LBB69_6

Ltmp183:
	xor	esi, esi
	xor	edx, edx
	lea	rcx, [rbp - 2140]
	call	___cxa_demangle
Ltmp184:

	mov	r13, rax
	mov	r9, qword ptr [rbp + 8*r12 - 1080]
	mov	rax, qword ptr [rbp - 2168] 
	lea	rcx, [rax + r12]
	cmp	dword ptr [rbp - 2140], 0
	je	LBB69_10

	mov	rdi, qword ptr [rbp - 2184]
	test	rdi, rdi
	jne	LBB69_13

	mov	rax, qword ptr [rbp - 2152] 
	mov	rdi, qword ptr [rax + 8*r12 - 8]
LBB69_13:                               
	mov	rax, r9
	jmp	LBB69_14
	.p2align	4, 0x90
LBB69_15:                               
	mov	r9, qword ptr [rbp + 8*r12 - 1080]
	mov	rax, qword ptr [rbp - 2152] 
	mov	rax, qword ptr [rax + 8*r12 - 8]
	add	r12d, dword ptr [rbp - 2168] 
	mov	qword ptr [rsp], rax
	mov	esi, 1024
	mov	rdi, r15
	lea	rdx, [rip + L_.str.100]
	mov	ecx, r12d
	mov	r8d, 18
	xor	eax, eax
	call	_snprintf
	jmp	LBB69_16
LBB69_6:                                
	mov	ecx, ebx
	sub	ecx, dword ptr [rbp - 2136] 
	mov	rax, qword ptr [rbp + 8*r12 - 1080]
	mov	r9, rax
	xor	r13d, r13d
	jmp	LBB69_14
LBB69_10:                               
	mov	rax, r9
	mov	rdi, r13
	.p2align	4, 0x90
LBB69_14:                               
	sub	rax, qword ptr [rbp - 2176]
	mov	qword ptr [rsp + 8], rax
	mov	qword ptr [rsp], rdi
	mov	esi, 1024
	mov	rdi, r15
	lea	rdx, [rip + L_.str.99]
                                        
	mov	r8d, 18
	xor	eax, eax
	call	_snprintf
	mov	rdi, r13
	call	_free
LBB69_16:                               
Ltmp186:
	lea	rdi, [rbp - 2128]
	mov	rsi, r15
	call	__ZNSt3__112basic_stringIcNS_11char_traitsIcEENS_9allocatorIcEEE6appendEPKc
Ltmp187:

	mov	r12, rbx
	cmp	rbx, r14
	jg	LBB69_2
LBB69_18:
	mov	rdi, qword ptr [rbp - 2152] 
	call	_free
	cmp	dword ptr [rbp - 2132], 128 
	jne	LBB69_23

Ltmp189:
	lea	rsi, [rip + L_.str.101]
	lea	rdi, [rbp - 2096]
	lea	rdx, [rbp - 2128]
	call	__ZNSt3__1plIcNS_11char_traitsIcEENS_9allocatorIcEEEENS_12basic_stringIT_T0_T1_EEPKS6_RKS9_
Ltmp190:

	test	byte ptr [rbp - 2128], 1
	je	LBB69_22

	mov	rdi, qword ptr [rbp - 2112]
	call	__ZdlPv
LBB69_22:
	mov	rax, qword ptr [rbp - 2080]
	mov	qword ptr [rbp - 2112], rax
	mov	rax, qword ptr [rbp - 2096]
	mov	rcx, qword ptr [rbp - 2088]
	mov	qword ptr [rbp - 2120], rcx
	mov	qword ptr [rbp - 2128], rax
LBB69_23:
	movzx	eax, byte ptr [rbp - 2128]
	test	al, 1
	je	LBB69_24

	mov	rsi, qword ptr [rbp - 2120]
	jmp	LBB69_28
LBB69_24:
	mov	rsi, rax
	shr	rsi
LBB69_28:
	mov	rbx, qword ptr [rbp - 2160] 
	test	rsi, rsi
	je	LBB69_34

	test	al, 1
	je	LBB69_30

	mov	rax, qword ptr [rbp - 2112]
	cmp	byte ptr [rax + rsi - 1], 10
	je	LBB69_33
	jmp	LBB69_34
LBB69_30:
	lea	rax, [rbp - 2127]
	cmp	byte ptr [rax + rsi - 1], 10
	jne	LBB69_34
LBB69_33:
	dec	rsi
Ltmp192:
	lea	rdi, [rbp - 2128]
	xor	edx, edx
	call	__ZNSt3__112basic_stringIcNS_11char_traitsIcEENS_9allocatorIcEEE6resizeEmc
Ltmp193:
LBB69_34:
Ltmp194:
	lea	rsi, [rbp - 2128]
	mov	rdi, rbx
	call	__ZN6loguru19prettify_stacktraceERKNSt3__112basic_stringIcNS0_11char_traitsIcEENS0_9allocatorIcEEEE
Ltmp195:

	test	byte ptr [rbp - 2128], 1
	je	LBB69_37

	mov	rdi, qword ptr [rbp - 2112]
	call	__ZdlPv
LBB69_37:
	mov	rax, qword ptr [rip + ___stack_chk_guard@GOTPCREL]
	mov	rax, qword ptr [rax]
	cmp	rax, qword ptr [rbp - 48]
	jne	LBB69_43

	mov	rax, rbx
	add	rsp, 2184
	pop	rbx
	pop	r12
	pop	r13
	pop	r14
	pop	r15
	pop	rbp
	ret
LBB69_43:
	call	___stack_chk_fail
LBB69_26:
Ltmp191:
	jmp	LBB69_40
LBB69_25:
Ltmp196:
	jmp	LBB69_40
LBB69_7:
Ltmp185:
	jmp	LBB69_40
LBB69_39:
Ltmp188:
LBB69_40:
	mov	rbx, rax
	test	byte ptr [rbp - 2128], 1
	je	LBB69_42

	mov	rdi, qword ptr [rbp - 2112]
	call	__ZdlPv
LBB69_42:
	mov	rdi, rbx
	call	__Unwind_Resume
	ud2
Lfunc_end15:
	.cfi_endproc
	.section	__TEXT,__gcc_except_tab
	.p2align	2
GCC_except_table69:
Lexception15:
	.byte	255                     
	.byte	255                     
	.byte	1                       
	.uleb128 Lcst_end15-Lcst_begin15
Lcst_begin15:
	.uleb128 Lfunc_begin15-Lfunc_begin15 
	.uleb128 Ltmp181-Lfunc_begin15  
	.byte	0                       
	.byte	0                       
	.uleb128 Ltmp181-Lfunc_begin15  
	.uleb128 Ltmp182-Ltmp181        
	.uleb128 Ltmp188-Lfunc_begin15  
	.byte	0                       
	.uleb128 Ltmp183-Lfunc_begin15  
	.uleb128 Ltmp184-Ltmp183        
	.uleb128 Ltmp185-Lfunc_begin15  
	.byte	0                       
	.uleb128 Ltmp186-Lfunc_begin15  
	.uleb128 Ltmp187-Ltmp186        
	.uleb128 Ltmp188-Lfunc_begin15  
	.byte	0                       
	.uleb128 Ltmp189-Lfunc_begin15  
	.uleb128 Ltmp190-Ltmp189        
	.uleb128 Ltmp191-Lfunc_begin15  
	.byte	0                       
	.uleb128 Ltmp192-Lfunc_begin15  
	.uleb128 Ltmp195-Ltmp192        
	.uleb128 Ltmp196-Lfunc_begin15  
	.byte	0                       
	.uleb128 Ltmp195-Lfunc_begin15  
	.uleb128 Lfunc_end15-Ltmp195    
	.byte	0                       
	.byte	0                       
Lcst_end15:
	.p2align	2
                                        
	.section	__TEXT,__text,regular,pure_instructions
	.globl	__ZN6loguru10stacktraceEi 
	.p2align	4, 0x90
__ZN6loguru10stacktraceEi:              
	.cfi_startproc

	push	rbp
	.cfi_def_cfa_offset 16
	.cfi_offset rbp, -16
	mov	rbp, rsp
	.cfi_def_cfa_register rbp
	push	rbx
	sub	rsp, 24
	.cfi_offset rbx, -24
	mov	rbx, rdi
	inc	esi
	lea	rdi, [rbp - 32]
	call	__ZN6loguru23stacktrace_as_stdstringEi
	test	byte ptr [rbp - 32], 1
	je	LBB70_1

	mov	rdi, qword ptr [rbp - 16]
	jmp	LBB70_3
LBB70_1:
	lea	rdi, [rbp - 31]
LBB70_3:
	call	_strdup
	mov	qword ptr [rbx], rax
	test	byte ptr [rbp - 32], 1
	je	LBB70_5

	mov	rdi, qword ptr [rbp - 16]
	call	__ZdlPv
LBB70_5:
	mov	rax, rbx
	add	rsp, 24
	pop	rbx
	pop	rbp
	ret
	.cfi_endproc
                                        
	.globl	__ZN6loguru17log_to_everywhereEiiPKcjS1_S1_ 
	.p2align	4, 0x90
__ZN6loguru17log_to_everywhereEiiPKcjS1_S1_: 
	.cfi_startproc

	push	rbp
	.cfi_def_cfa_offset 16
	.cfi_offset rbp, -16
	mov	rbp, rsp
	.cfi_def_cfa_register rbp
	push	r15
	push	r14
	push	r13
	push	r12
	push	rbx
	sub	rsp, 168
	.cfi_offset rbx, -56
	.cfi_offset r12, -48
	.cfi_offset r13, -40
	.cfi_offset r14, -32
	.cfi_offset r15, -24
	mov	qword ptr [rbp - 152], r9 
	mov	r15, r8
	mov	r12d, ecx
	mov	r13, rdx
	mov	ebx, esi
	mov	r14d, edi
	mov	rax, qword ptr [rip + ___stack_chk_guard@GOTPCREL]
	mov	rax, qword ptr [rax]
	mov	qword ptr [rbp - 48], rax
	lea	rdi, [rbp - 144]
	call	__ZN6loguruL14print_preambleEPcmiPKcj
	mov	dword ptr [rbp - 208], ebx
	mov	qword ptr [rbp - 200], r13
	mov	dword ptr [rbp - 192], r12d
	lea	rax, [rbp - 144]
	mov	qword ptr [rbp - 184], rax
	lea	rax, [rip + L_.str.8]
	mov	qword ptr [rbp - 176], rax
	mov	qword ptr [rbp - 168], r15
	mov	rax, qword ptr [rbp - 152] 
	mov	qword ptr [rbp - 160], rax
	inc	r14d
	lea	rsi, [rbp - 208]
	mov	edi, r14d
	mov	edx, 1
	mov	ecx, 1
	call	__ZN6loguruL11log_messageEiRNS_7MessageEbb
	mov	rax, qword ptr [rip + ___stack_chk_guard@GOTPCREL]
	mov	rax, qword ptr [rax]
	cmp	rax, qword ptr [rbp - 48]
	jne	LBB71_2

	add	rsp, 168
	pop	rbx
	pop	r12
	pop	r13
	pop	r14
	pop	r15
	pop	rbp
	ret
LBB71_2:
	call	___stack_chk_fail
	.cfi_endproc
                                        
	.section	__TEXT,__literal8,8byte_literals
	.p2align	3               
LCPI72_0:
	.quad	4652007308841189376     
	.section	__TEXT,__text,regular,pure_instructions
	.p2align	4, 0x90
__ZN6loguruL14print_preambleEPcmiPKcj:  
	.cfi_startproc

	push	rbp
	.cfi_def_cfa_offset 16
	.cfi_offset rbp, -16
	mov	rbp, rsp
	.cfi_def_cfa_register rbp
	push	r15
	push	r14
	push	r13
	push	r12
	push	rbx
	sub	rsp, 184
	.cfi_offset rbx, -56
	.cfi_offset r12, -48
	.cfi_offset r13, -40
	.cfi_offset r14, -32
	.cfi_offset r15, -24
	mov	rax, qword ptr [rip + ___stack_chk_guard@GOTPCREL]
	mov	rax, qword ptr [rax]
	mov	qword ptr [rbp - 48], rax
	mov	byte ptr [rdi], 0
	cmp	byte ptr [rip + __ZN6loguru10g_preambleE], 0
	je	LBB72_38

	mov	r14, rdx
	mov	r13d, esi
	mov	dword ptr [rbp - 124], ecx 
	mov	qword ptr [rbp - 144], rdi 
	call	__ZNSt3__16chrono12system_clock3nowEv
	mov	rcx, rax
	movabs	rdx, 2361183241434822607
	imul	rdx
	mov	r12, rdx
	mov	rbx, rdx
	shr	rbx, 63
	sar	r12, 7
	movabs	r15, 4835703278458516699
	mov	rax, rcx
	imul	r15
	mov	rax, rdx
	shr	rax, 63
	sar	rdx, 18
	add	rdx, rax
	mov	qword ptr [rbp - 152], rdx
	lea	rdi, [rbp - 152]
	lea	rsi, [rbp - 208]
	call	_localtime_r
	call	__ZNSt3__16chrono12steady_clock3nowEv
	sub	rax, qword ptr [rip + __ZN6loguruL12s_start_timeE]
	imul	r15
	mov	rax, rdx
	shr	rax, 63
	sar	rdx, 18
	add	rdx, rax
	cvtsi2sd	xmm0, rdx
	movsd	qword ptr [rbp - 120], xmm0 
	xorpd	xmm0, xmm0
	movapd	xmmword ptr [rbp - 80], xmm0
	mov	byte ptr [rbp - 64], 0
	call	_pthread_self
	lea	rsi, [rbp - 80]
	mov	edx, 17
	mov	rdi, rax
	call	_pthread_getname_np
	cmp	byte ptr [rbp - 80], 0
	jne	LBB72_3

	call	_pthread_self
	lea	rsi, [rbp - 112]
	mov	rdi, rax
	call	_pthread_threadid_np
	mov	r8d, dword ptr [rbp - 112]
	lea	rdx, [rip + L_.str.85]
	lea	rdi, [rbp - 80]
	mov	esi, 17
	mov	ecx, 16
	xor	eax, eax
	call	_snprintf
LBB72_3:
	add	r12, rbx
	movsd	xmm0, qword ptr [rbp - 120] 
                                        
	divsd	xmm0, qword ptr [rip + LCPI72_0]
	lea	rax, [r14 + 1]
	mov	r15, qword ptr [rbp - 144] 
	jmp	LBB72_4
	.p2align	4, 0x90
LBB72_11:                               
	mov	r14, rax
LBB72_12:                               
	inc	rax
LBB72_4:                                
	movzx	ecx, byte ptr [rax - 1]
	cmp	cl, 47
	je	LBB72_11

	cmp	cl, 92
	je	LBB72_11

	test	cl, cl
	jne	LBB72_12

	movsd	qword ptr [rbp - 120], xmm0 
	mov	rax, qword ptr [rip + __ZN6loguruL28s_verbosity_to_name_callbackE]
	test	rax, rax
	je	LBB72_9

	mov	edi, r13d
	call	rax
	mov	rcx, rax
	test	rax, rax
	jne	LBB72_15
LBB72_9:
	cmp	r13d, -2
	jge	LBB72_13

	lea	rcx, [rip + L_.str.70]
	jmp	LBB72_15
LBB72_13:
	lea	eax, [r13 + 2]
	cmp	eax, 2
	ja	LBB72_16

	cdqe
	lea	rcx, [rip + l_switch.table._ZN6loguruL14print_preambleEPcmiPKcj]
	mov	rcx, qword ptr [rcx + 8*rax]
LBB72_15:
	lea	rdx, [rip + L_.str.29]
	lea	rdi, [rbp - 130]
	mov	esi, 5
	xor	eax, eax
	call	_snprintf
	cmp	byte ptr [rip + __ZN6loguru15g_preamble_dateE], 0
	je	LBB72_18
LBB72_19:
	mov	ecx, 1900
	add	ecx, dword ptr [rbp - 188]
	mov	r9d, dword ptr [rbp - 196]
	mov	r8d, dword ptr [rbp - 192]
	inc	r8d
	lea	rdx, [rip + L_.str.172]
	mov	esi, 92
	mov	rdi, r15
	xor	eax, eax
	call	_snprintf
	movsxd	rbx, eax
	jmp	LBB72_20
LBB72_16:
	lea	rdx, [rip + L_.str.171]
	lea	rdi, [rbp - 130]
	mov	esi, 5
	mov	ecx, r13d
	xor	eax, eax
	call	_snprintf
	cmp	byte ptr [rip + __ZN6loguru15g_preamble_dateE], 0
	jne	LBB72_19
LBB72_18:
	xor	ebx, ebx
LBB72_20:
	movsd	xmm0, qword ptr [rbp - 120] 
                                        
	cmp	rbx, 91
	ja	LBB72_23

	cmp	byte ptr [rip + __ZN6loguru15g_preamble_timeE], 0
	je	LBB72_23

	lea	rdi, [r15 + rbx]
	mov	esi, 92
	sub	rsi, rbx
	mov	ecx, dword ptr [rbp - 200]
	mov	r9d, dword ptr [rbp - 208]
	mov	r8d, dword ptr [rbp - 204]
	mov	rax, r12
	movabs	rdx, 2361183241434822607
	imul	rdx
	mov	rax, rdx
	shr	rax, 63
	sar	rdx, 7
	add	rdx, rax
	imul	rax, rdx, 1000
	sub	r12, rax
	mov	qword ptr [rsp], r12
	lea	rdx, [rip + L_.str.173]
	xor	eax, eax
	call	_snprintf
	movsd	xmm0, qword ptr [rbp - 120] 
                                        
	cdqe
	add	rbx, rax
LBB72_23:
	cmp	rbx, 91
	ja	LBB72_26

	cmp	byte ptr [rip + __ZN6loguru17g_preamble_uptimeE], 0
	je	LBB72_26

	lea	rdi, [r15 + rbx]
	mov	esi, 92
	sub	rsi, rbx
	lea	rdx, [rip + L_.str.174]
	mov	al, 1
	call	_snprintf
	cdqe
	add	rbx, rax
LBB72_26:
	cmp	rbx, 91
	ja	LBB72_29

	cmp	byte ptr [rip + __ZN6loguru17g_preamble_threadE], 0
	je	LBB72_29

	lea	rdi, [r15 + rbx]
	mov	esi, 92
	sub	rsi, rbx
	lea	rdx, [rip + L_.str.165]
	lea	r8, [rbp - 80]
	mov	ecx, 16
	xor	eax, eax
	call	_snprintf
	cdqe
	add	rbx, rax
LBB72_29:
	cmp	rbx, 91
	ja	LBB72_32

	cmp	byte ptr [rip + __ZN6loguru15g_preamble_fileE], 0
	je	LBB72_32

	lea	rdx, [rip + L_.str.29]
	lea	r12, [rbp - 112]
	mov	esi, 24
	mov	rdi, r12
	mov	rcx, r14
	xor	eax, eax
	call	_snprintf
	lea	rdi, [r15 + rbx]
	mov	esi, 92
	sub	rsi, rbx
	lea	rdx, [rip + L_.str.175]
	mov	ecx, 23
	mov	r8, r12
	mov	r9d, dword ptr [rbp - 124] 
	xor	eax, eax
	call	_snprintf
	cdqe
	add	rbx, rax
LBB72_32:
	cmp	rbx, 91
	ja	LBB72_35

	cmp	byte ptr [rip + __ZN6loguru18g_preamble_verboseE], 0
	je	LBB72_35

	lea	rdi, [r15 + rbx]
	mov	esi, 92
	sub	rsi, rbx
	lea	rdx, [rip + L_.str.176]
	lea	rcx, [rbp - 130]
	xor	eax, eax
	call	_snprintf
	cdqe
	add	rbx, rax
LBB72_35:
	cmp	rbx, 91
	ja	LBB72_38

	cmp	byte ptr [rip + __ZN6loguru15g_preamble_pipeE], 0
	je	LBB72_38

	add	r15, rbx
	mov	esi, 92
	sub	rsi, rbx
	lea	rdx, [rip + L_.str.170]
	mov	rdi, r15
	xor	eax, eax
	call	_snprintf
LBB72_38:
	mov	rax, qword ptr [rip + ___stack_chk_guard@GOTPCREL]
	mov	rax, qword ptr [rax]
	cmp	rax, qword ptr [rbp - 48]
	jne	LBB72_40

	add	rsp, 184
	pop	rbx
	pop	r12
	pop	r13
	pop	r14
	pop	r15
	pop	rbp
	ret
LBB72_40:
	call	___stack_chk_fail
	.cfi_endproc
                                        
	.p2align	4, 0x90         
__ZN6loguruL11log_messageEiRNS_7MessageEbb: 
Lfunc_begin16:
	.cfi_startproc
	.cfi_personality 155, ___gxx_personality_v0
	.cfi_lsda 16, Lexception16

	push	rbp
	.cfi_def_cfa_offset 16
	.cfi_offset rbp, -16
	mov	rbp, rsp
	.cfi_def_cfa_register rbp
	push	r15
	push	r14
	push	r13
	push	r12
	push	rbx
	sub	rsp, 72
	.cfi_offset rbx, -56
	.cfi_offset r12, -48
	.cfi_offset r13, -40
	.cfi_offset r14, -32
	.cfi_offset r15, -24
	mov	dword ptr [rbp - 48], ecx 
	mov	dword ptr [rbp - 44], edx 
	mov	r14, rsi
	mov	ebx, edi
	mov	r12d, dword ptr [rsi]
	lea	rdi, [rip + __ZN6loguruL7s_mutexE]
	call	__ZNSt3__115recursive_mutex4lockEv
	cmp	dword ptr [r14], -3
	jne	LBB73_17

	add	ebx, 3
Ltmp197:
	lea	rdi, [rbp - 72]
	mov	esi, ebx
	call	__ZN6loguru23stacktrace_as_stdstringEi
Ltmp198:

	test	byte ptr [rbp - 72], 1
	je	LBB73_3

	mov	rdi, qword ptr [rbp - 56]
	jmp	LBB73_5
LBB73_3:
	lea	rdi, [rbp - 71]
LBB73_5:
	call	_strdup
	mov	rbx, rax
	test	byte ptr [rbp - 72], 1
	je	LBB73_7

	mov	rdi, qword ptr [rbp - 56]
	call	__ZdlPv
LBB73_7:
	test	rbx, rbx
	je	LBB73_11

	cmp	byte ptr [rbx], 0
	je	LBB73_11

	mov	eax, dword ptr [rip + __ZN6loguru18g_stderr_verbosityE]
	mov	ecx, dword ptr [rip + __ZN6loguruL19s_max_out_verbosityE]
	cmp	eax, ecx
	cmovge	ecx, eax
	cmp	ecx, -2
	jl	LBB73_11

Ltmp200:
	lea	rsi, [rip + L_.str.28]
	lea	rcx, [rip + L_.str.177]
	mov	edi, -2
	mov	edx, 1341
	mov	r8, rbx
	xor	eax, eax
	call	__ZN6loguru7raw_logEiPKcjS1_z
Ltmp201:
LBB73_11:
	mov	rdi, qword ptr [rip + __ZN6loguruL13thread_ec_ptrE@TLVP]
	call	qword ptr [rdi]
	mov	rsi, qword ptr [rax]
Ltmp203:
	lea	rdi, [rbp - 72]
	call	__ZN6loguru21get_error_context_forEPKNS_11EcEntryBaseE
Ltmp204:

	mov	r13, qword ptr [rbp - 72]
	test	r13, r13
	je	LBB73_16

	cmp	byte ptr [r13], 0
	je	LBB73_16

	mov	eax, dword ptr [rip + __ZN6loguru18g_stderr_verbosityE]
	mov	ecx, dword ptr [rip + __ZN6loguruL19s_max_out_verbosityE]
	cmp	eax, ecx
	cmovge	ecx, eax
	cmp	ecx, -2
	jl	LBB73_16

Ltmp206:
	lea	rsi, [rip + L_.str.28]
	lea	rcx, [rip + L_.str.29]
	mov	edi, -2
	mov	edx, 1346
	mov	r8, r13
	xor	eax, eax
	call	__ZN6loguru7raw_logEiPKcjS1_z
Ltmp207:
LBB73_16:
	mov	rdi, r13
	call	_free
	mov	rdi, rbx
	call	_free
LBB73_17:
	cmp	byte ptr [rbp - 44], 0  
	je	LBB73_19

	mov	eax, dword ptr [rip + __ZN6loguruL20s_stderr_indentationE]
	cmp	eax, 100
	mov	ecx, 100
	cmovb	ecx, eax
	shl	ecx, 2
	lea	rax, [rip + __ZZN6loguruL11indentationEjE4buff]
	sub	rax, rcx
	add	rax, 400
	mov	qword ptr [r14 + 32], rax
LBB73_19:
	cmp	r12d, dword ptr [rip + __ZN6loguru18g_stderr_verbosityE]
	jg	LBB73_33

	cmp	byte ptr [rip + __ZN6loguru18g_colorlogtostderrE], 0
	je	LBB73_29

	cmp	byte ptr [rip + __ZN6loguruL20s_terminal_has_colorE], 0
	je	LBB73_29

	mov	rax, qword ptr [rip + ___stderrp@GOTPCREL]
	mov	rdi, qword ptr [rax]
	test	r12d, r12d
	js	LBB73_28

	mov	r8, qword ptr [r14 + 24]
	mov	r9, qword ptr [r14 + 32]
	test	r12d, r12d
	lea	rdx, [rip + L_.str.20]
	lea	rax, [rip + L_.str.8]
	cmove	rax, rdx
	mov	rcx, qword ptr [r14 + 40]
	mov	rsi, qword ptr [r14 + 48]
	mov	qword ptr [rsp + 24], rdx
	mov	qword ptr [rsp + 16], rsi
	mov	qword ptr [rsp + 8], rcx
	mov	qword ptr [rsp], rax
	lea	rsi, [rip + L_.str.178]
	lea	rcx, [rip + L_.str.17]
	jmp	LBB73_30
LBB73_29:
	mov	rax, qword ptr [rip + ___stderrp@GOTPCREL]
	mov	rdi, qword ptr [rax]
	mov	rdx, qword ptr [r14 + 24]
	mov	rcx, qword ptr [r14 + 32]
	mov	r8, qword ptr [r14 + 40]
	mov	r9, qword ptr [r14 + 48]
	lea	rsi, [rip + L_.str.21]
	jmp	LBB73_30
LBB73_28:
	cmp	r12d, -1
	lea	rax, [rip + L_.str.11]
	lea	rcx, [rip + L_.str.9]
	cmove	rcx, rax
	mov	r8, qword ptr [r14 + 24]
	mov	r9, qword ptr [r14 + 32]
	mov	rax, qword ptr [r14 + 40]
	mov	rsi, qword ptr [r14 + 48]
	lea	rdx, [rip + L_.str.20]
	mov	qword ptr [rsp + 16], rdx
	mov	qword ptr [rsp + 8], rsi
	mov	qword ptr [rsp], rax
	lea	rsi, [rip + L_.str.179]
LBB73_30:
	xor	eax, eax
	call	_fprintf
	cmp	dword ptr [rip + __ZN6loguru19g_flush_interval_msE], 0
	je	LBB73_31

	mov	byte ptr [rip + __ZN6loguruL16s_needs_flushingE], 1
	jmp	LBB73_33
LBB73_31:
	mov	rax, qword ptr [rip + ___stderrp@GOTPCREL]
	mov	rdi, qword ptr [rax]
	call	_fflush
LBB73_33:
	mov	rbx, qword ptr [rip + __ZN6loguruL11s_callbacksE]
	mov	r13, qword ptr [rip + __ZN6loguruL11s_callbacksE+8]
	cmp	rbx, r13
	je	LBB73_42

	lea	r15, [rip + __ZZN6loguruL11indentationEjE4buff]
	jmp	LBB73_35
	.p2align	4, 0x90
LBB73_53:                               
	mov	byte ptr [rip + __ZN6loguruL16s_needs_flushingE], 1
LBB73_54:                               
	add	rbx, 72
	cmp	r13, rbx
	je	LBB73_42
LBB73_35:                               
	cmp	r12d, dword ptr [rbx + 40]
	jg	LBB73_54

	cmp	byte ptr [rbp - 44], 0  
	je	LBB73_38

	mov	eax, dword ptr [rbx + 64]
	cmp	eax, 100
	mov	ecx, 100
	cmovae	eax, ecx
	shl	eax, 2
	mov	rcx, r15
	sub	rcx, rax
	add	rcx, 400
	mov	qword ptr [r14 + 32], rcx
LBB73_38:                               
	mov	rdi, qword ptr [rbx + 32]
Ltmp209:
	mov	rsi, r14
	call	qword ptr [rbx + 24]
Ltmp210:

	cmp	dword ptr [rip + __ZN6loguru19g_flush_interval_msE], 0
	jne	LBB73_53

	mov	rax, qword ptr [rbx + 56]
	test	rax, rax
	je	LBB73_54

	mov	rdi, qword ptr [rbx + 32]
Ltmp211:
	call	rax
Ltmp212:
	jmp	LBB73_54
LBB73_42:
	cmp	dword ptr [rip + __ZN6loguru19g_flush_interval_msE], 0
	je	LBB73_64

	cmp	qword ptr [rip + __ZN6loguruL14s_flush_threadE], 0
	jne	LBB73_64

Ltmp214:
	mov	edi, 8
	call	__Znwm
Ltmp215:

	mov	r15, rax
Ltmp216:
	mov	edi, 8
	call	__Znwm
Ltmp217:

	mov	r13, rax
Ltmp219:
	mov	rdi, rax
	call	__ZNSt3__115__thread_structC1Ev
Ltmp220:

Ltmp222:
	mov	edi, 8
	call	__Znwm
Ltmp223:

	mov	r12, rax
	mov	qword ptr [rax], r13
Ltmp225:
	lea	rdx, [rip + __ZNSt3__1L14__thread_proxyINS_5tupleIJNS_10unique_ptrINS_15__thread_structENS_14default_deleteIS3_EEEEZN6loguruL11log_messageEiRNS7_7MessageEbbE3$_4EEEEEPvSC_]
	mov	rdi, r15
	xor	esi, esi
	mov	rcx, rax
	call	_pthread_create
Ltmp226:

	test	eax, eax
	jne	LBB73_50

	mov	qword ptr [rip + __ZN6loguruL14s_flush_threadE], r15
LBB73_64:
	cmp	dword ptr [r14], -3
	jne	LBB73_85

Ltmp230:
	lea	rdi, [rip + __ZN6loguruL7s_mutexE]
	call	__ZNSt3__115recursive_mutex4lockEv
Ltmp231:

	mov	r15, qword ptr [rip + ___stderrp@GOTPCREL]
	mov	rdi, qword ptr [r15]
	call	_fflush
	mov	rbx, qword ptr [rip + __ZN6loguruL11s_callbacksE]
	mov	r12, qword ptr [rip + __ZN6loguruL11s_callbacksE+8]
	cmp	rbx, r12
	jne	LBB73_67
LBB73_70:
	mov	byte ptr [rip + __ZN6loguruL16s_needs_flushingE], 0
	lea	rdi, [rip + __ZN6loguruL7s_mutexE]
	call	__ZNSt3__115recursive_mutex6unlockEv
	mov	rax, qword ptr [rip + __ZN6loguruL15s_fatal_handlerE]
	test	rax, rax
	je	LBB73_78

Ltmp235:
	mov	rdi, r14
	call	rax
Ltmp236:

Ltmp237:
	lea	rdi, [rip + __ZN6loguruL7s_mutexE]
	call	__ZNSt3__115recursive_mutex4lockEv
Ltmp238:

	mov	rdi, qword ptr [r15]
	call	_fflush
	mov	rbx, qword ptr [rip + __ZN6loguruL11s_callbacksE]
	mov	r14, qword ptr [rip + __ZN6loguruL11s_callbacksE+8]
	cmp	rbx, r14
	jne	LBB73_74
LBB73_77:
	mov	byte ptr [rip + __ZN6loguruL16s_needs_flushingE], 0
	lea	rdi, [rip + __ZN6loguruL7s_mutexE]
	call	__ZNSt3__115recursive_mutex6unlockEv
LBB73_78:
	cmp	byte ptr [rbp - 48], 0  
	jne	LBB73_79
LBB73_85:
	lea	rdi, [rip + __ZN6loguruL7s_mutexE]
	call	__ZNSt3__115recursive_mutex6unlockEv
	add	rsp, 72
	pop	rbx
	pop	r12
	pop	r13
	pop	r14
	pop	r15
	pop	rbp
	ret
	.p2align	4, 0x90
LBB73_69:                               
	add	rbx, 72
	cmp	r12, rbx
	je	LBB73_70
LBB73_67:                               
	mov	rax, qword ptr [rbx + 56]
	test	rax, rax
	je	LBB73_69

	mov	rdi, qword ptr [rbx + 32]
Ltmp232:
	call	rax
Ltmp233:
	jmp	LBB73_69
	.p2align	4, 0x90
LBB73_76:                               
	add	rbx, 72
	cmp	r14, rbx
	je	LBB73_77
LBB73_74:                               
	mov	rax, qword ptr [rbx + 56]
	test	rax, rax
	je	LBB73_76

	mov	rdi, qword ptr [rbx + 32]
Ltmp239:
	call	rax
Ltmp240:
	jmp	LBB73_76
LBB73_50:
Ltmp227:
	lea	rsi, [rip + L_.str.180]
	mov	edi, eax
	call	__ZNSt3__120__throw_system_errorEiPKc
Ltmp228:
	jmp	LBB73_51
LBB73_79:
	cmp	byte ptr [rip + __ZN6loguruL16s_signal_optionsE+1], 0
	je	LBB73_81

Ltmp242:
	mov	edi, 6
	xor	esi, esi
	call	_signal
Ltmp243:
LBB73_81:
Ltmp244:
	call	_abort
Ltmp245:
LBB73_51:
	ud2
LBB73_90:
Ltmp208:
	mov	r14, rax
	mov	rdi, r13
	call	_free
	jmp	LBB73_26
LBB73_89:
Ltmp202:
	jmp	LBB73_25
LBB73_56:
Ltmp229:
	mov	r14, rax
	mov	rbx, qword ptr [r12]
	mov	qword ptr [r12], 0
	test	rbx, rbx
	jne	LBB73_58

	mov	r13, r12
	jmp	LBB73_60
LBB73_58:
	mov	rdi, rbx
	call	__ZNSt3__115__thread_structD1Ev
	mov	rdi, rbx
	call	__ZdlPv
	mov	r13, r12
	jmp	LBB73_60
LBB73_59:
Ltmp224:
	mov	r14, rax
	mov	rdi, r13
	call	__ZNSt3__115__thread_structD1Ev
	jmp	LBB73_60
LBB73_55:
Ltmp221:
	mov	r14, rax
LBB73_60:
	mov	rdi, r13
	call	__ZdlPv
	jmp	LBB73_62
LBB73_61:
Ltmp218:
	mov	r14, rax
LBB73_62:
	mov	rdi, r15
	call	__ZdlPv
	jmp	LBB73_88
LBB73_24:
Ltmp205:
LBB73_25:
	mov	r14, rax
LBB73_26:
	mov	rdi, rbx
	call	_free
	jmp	LBB73_88
LBB73_86:
Ltmp199:
	jmp	LBB73_87
LBB73_27:
Ltmp246:
	jmp	LBB73_87
LBB73_84:
Ltmp241:
	jmp	LBB73_83
LBB73_82:
Ltmp234:
LBB73_83:
	mov	r14, rax
	lea	rdi, [rip + __ZN6loguruL7s_mutexE]
	call	__ZNSt3__115recursive_mutex6unlockEv
	jmp	LBB73_88
LBB73_52:
Ltmp213:
LBB73_87:
	mov	r14, rax
LBB73_88:
	lea	rdi, [rip + __ZN6loguruL7s_mutexE]
	call	__ZNSt3__115recursive_mutex6unlockEv
	mov	rdi, r14
	call	__Unwind_Resume
	ud2
Lfunc_end16:
	.cfi_endproc
	.section	__TEXT,__gcc_except_tab
	.p2align	2
GCC_except_table73:
Lexception16:
	.byte	255                     
	.byte	255                     
	.byte	1                       
	.uleb128 Lcst_end16-Lcst_begin16
Lcst_begin16:
	.uleb128 Lfunc_begin16-Lfunc_begin16 
	.uleb128 Ltmp197-Lfunc_begin16  
	.byte	0                       
	.byte	0                       
	.uleb128 Ltmp197-Lfunc_begin16  
	.uleb128 Ltmp198-Ltmp197        
	.uleb128 Ltmp199-Lfunc_begin16  
	.byte	0                       
	.uleb128 Ltmp200-Lfunc_begin16  
	.uleb128 Ltmp201-Ltmp200        
	.uleb128 Ltmp202-Lfunc_begin16  
	.byte	0                       
	.uleb128 Ltmp201-Lfunc_begin16  
	.uleb128 Ltmp203-Ltmp201        
	.byte	0                       
	.byte	0                       
	.uleb128 Ltmp203-Lfunc_begin16  
	.uleb128 Ltmp204-Ltmp203        
	.uleb128 Ltmp205-Lfunc_begin16  
	.byte	0                       
	.uleb128 Ltmp206-Lfunc_begin16  
	.uleb128 Ltmp207-Ltmp206        
	.uleb128 Ltmp208-Lfunc_begin16  
	.byte	0                       
	.uleb128 Ltmp209-Lfunc_begin16  
	.uleb128 Ltmp212-Ltmp209        
	.uleb128 Ltmp213-Lfunc_begin16  
	.byte	0                       
	.uleb128 Ltmp214-Lfunc_begin16  
	.uleb128 Ltmp215-Ltmp214        
	.uleb128 Ltmp246-Lfunc_begin16  
	.byte	0                       
	.uleb128 Ltmp216-Lfunc_begin16  
	.uleb128 Ltmp217-Ltmp216        
	.uleb128 Ltmp218-Lfunc_begin16  
	.byte	0                       
	.uleb128 Ltmp219-Lfunc_begin16  
	.uleb128 Ltmp220-Ltmp219        
	.uleb128 Ltmp221-Lfunc_begin16  
	.byte	0                       
	.uleb128 Ltmp222-Lfunc_begin16  
	.uleb128 Ltmp223-Ltmp222        
	.uleb128 Ltmp224-Lfunc_begin16  
	.byte	0                       
	.uleb128 Ltmp225-Lfunc_begin16  
	.uleb128 Ltmp226-Ltmp225        
	.uleb128 Ltmp229-Lfunc_begin16  
	.byte	0                       
	.uleb128 Ltmp230-Lfunc_begin16  
	.uleb128 Ltmp238-Ltmp230        
	.uleb128 Ltmp246-Lfunc_begin16  
	.byte	0                       
	.uleb128 Ltmp232-Lfunc_begin16  
	.uleb128 Ltmp233-Ltmp232        
	.uleb128 Ltmp234-Lfunc_begin16  
	.byte	0                       
	.uleb128 Ltmp239-Lfunc_begin16  
	.uleb128 Ltmp240-Ltmp239        
	.uleb128 Ltmp241-Lfunc_begin16  
	.byte	0                       
	.uleb128 Ltmp227-Lfunc_begin16  
	.uleb128 Ltmp228-Ltmp227        
	.uleb128 Ltmp229-Lfunc_begin16  
	.byte	0                       
	.uleb128 Ltmp242-Lfunc_begin16  
	.uleb128 Ltmp245-Ltmp242        
	.uleb128 Ltmp246-Lfunc_begin16  
	.byte	0                       
	.uleb128 Ltmp245-Lfunc_begin16  
	.uleb128 Lfunc_end16-Ltmp245    
	.byte	0                       
	.byte	0                       
Lcst_end16:
	.p2align	2
                                        
	.section	__TEXT,__text,regular,pure_instructions
	.globl	__ZN6loguru7raw_logEiPKcjS1_z 
	.p2align	4, 0x90
__ZN6loguru7raw_logEiPKcjS1_z:          
Lfunc_begin17:
	.cfi_startproc
	.cfi_personality 155, ___gxx_personality_v0
	.cfi_lsda 16, Lexception17

	push	rbp
	.cfi_def_cfa_offset 16
	.cfi_offset rbp, -16
	mov	rbp, rsp
	.cfi_def_cfa_register rbp
	push	r15
	push	r14
	push	r13
	push	r12
	push	rbx
	sub	rsp, 280
	.cfi_offset rbx, -56
	.cfi_offset r12, -48
	.cfi_offset r13, -40
	.cfi_offset r14, -32
	.cfi_offset r15, -24
	mov	r14, rcx
	mov	r15d, edx
	mov	r12, rsi
	mov	r13d, edi
	test	al, al
	je	LBB74_2

	movaps	xmmword ptr [rbp - 272], xmm0
	movaps	xmmword ptr [rbp - 256], xmm1
	movaps	xmmword ptr [rbp - 240], xmm2
	movaps	xmmword ptr [rbp - 224], xmm3
	movaps	xmmword ptr [rbp - 208], xmm4
	movaps	xmmword ptr [rbp - 192], xmm5
	movaps	xmmword ptr [rbp - 176], xmm6
	movaps	xmmword ptr [rbp - 160], xmm7
LBB74_2:
	mov	qword ptr [rbp - 288], r8
	mov	qword ptr [rbp - 280], r9
	mov	rax, qword ptr [rip + ___stack_chk_guard@GOTPCREL]
	mov	rax, qword ptr [rax]
	mov	qword ptr [rbp - 48], rax
	lea	rax, [rbp - 320]
	mov	qword ptr [rbp - 64], rax
	lea	rax, [rbp + 16]
	mov	qword ptr [rbp - 72], rax
	movabs	rax, 206158430240
	mov	qword ptr [rbp - 80], rax
	mov	qword ptr [rbp - 136], 0
	lea	rdi, [rbp - 136]
	lea	rdx, [rbp - 80]
	mov	rsi, r14
	call	_vasprintf
	test	eax, eax
	js	LBB74_7

	mov	rbx, qword ptr [rbp - 136]
	mov	dword ptr [rbp - 136], r13d
	mov	qword ptr [rbp - 128], r12
	mov	dword ptr [rbp - 120], r15d
	lea	rax, [rip + L_.str.8]
	mov	qword ptr [rbp - 112], rax
	mov	qword ptr [rbp - 104], rax
	mov	qword ptr [rbp - 96], rax
	mov	qword ptr [rbp - 88], rbx
Ltmp247:
	lea	rsi, [rbp - 136]
	mov	edi, 1
	xor	edx, edx
	mov	ecx, 1
	call	__ZN6loguruL11log_messageEiRNS_7MessageEbb
Ltmp248:

	mov	rdi, rbx
	call	_free
	mov	rax, qword ptr [rip + ___stack_chk_guard@GOTPCREL]
	mov	rax, qword ptr [rax]
	cmp	rax, qword ptr [rbp - 48]
	jne	LBB74_8

	add	rsp, 280
	pop	rbx
	pop	r12
	pop	r13
	pop	r14
	pop	r15
	pop	rbp
	ret
LBB74_8:
	call	___stack_chk_fail
LBB74_7:
	lea	rsi, [rip + L_.str.145]
	lea	rdx, [rip + L_.str.28]
	lea	r8, [rip + L_.str.146]
	xor	edi, edi
	mov	ecx, 433
	mov	r9, r14
	xor	eax, eax
	call	__ZN6loguru13log_and_abortEiPKcS1_jS1_z
LBB74_6:
Ltmp249:
	mov	r14, rax
	mov	rdi, rbx
	call	_free
	mov	rdi, r14
	call	__Unwind_Resume
	ud2
Lfunc_end17:
	.cfi_endproc
	.section	__TEXT,__gcc_except_tab
	.p2align	2
GCC_except_table74:
Lexception17:
	.byte	255                     
	.byte	255                     
	.byte	1                       
	.uleb128 Lcst_end17-Lcst_begin17
Lcst_begin17:
	.uleb128 Lfunc_begin17-Lfunc_begin17 
	.uleb128 Ltmp247-Lfunc_begin17  
	.byte	0                       
	.byte	0                       
	.uleb128 Ltmp247-Lfunc_begin17  
	.uleb128 Ltmp248-Ltmp247        
	.uleb128 Ltmp249-Lfunc_begin17  
	.byte	0                       
	.uleb128 Ltmp248-Lfunc_begin17  
	.uleb128 Lfunc_end17-Ltmp248    
	.byte	0                       
	.byte	0                       
Lcst_end17:
	.p2align	2
                                        
	.section	__TEXT,__text,regular,pure_instructions
	.globl	__ZN6loguru5flushEv     
	.p2align	4, 0x90
__ZN6loguru5flushEv:                    
Lfunc_begin18:
	.cfi_startproc
	.cfi_personality 155, ___gxx_personality_v0
	.cfi_lsda 16, Lexception18

	push	rbp
	.cfi_def_cfa_offset 16
	.cfi_offset rbp, -16
	mov	rbp, rsp
	.cfi_def_cfa_register rbp
	push	r14
	push	rbx
	.cfi_offset rbx, -32
	.cfi_offset r14, -24
	lea	rdi, [rip + __ZN6loguruL7s_mutexE]
	call	__ZNSt3__115recursive_mutex4lockEv
	mov	rax, qword ptr [rip + ___stderrp@GOTPCREL]
	mov	rdi, qword ptr [rax]
	call	_fflush
	mov	rbx, qword ptr [rip + __ZN6loguruL11s_callbacksE]
	mov	r14, qword ptr [rip + __ZN6loguruL11s_callbacksE+8]
	cmp	rbx, r14
	jne	LBB75_1
LBB75_4:
	mov	byte ptr [rip + __ZN6loguruL16s_needs_flushingE], 0
	lea	rdi, [rip + __ZN6loguruL7s_mutexE]
	pop	rbx
	pop	r14
	pop	rbp
	jmp	__ZNSt3__115recursive_mutex6unlockEv 
	.p2align	4, 0x90
LBB75_3:                                
	add	rbx, 72
	cmp	r14, rbx
	je	LBB75_4
LBB75_1:                                
	mov	rax, qword ptr [rbx + 56]
	test	rax, rax
	je	LBB75_3

	mov	rdi, qword ptr [rbx + 32]
Ltmp250:
	call	rax
Ltmp251:
	jmp	LBB75_3
LBB75_5:
Ltmp252:
	mov	rbx, rax
	lea	rdi, [rip + __ZN6loguruL7s_mutexE]
	call	__ZNSt3__115recursive_mutex6unlockEv
	mov	rdi, rbx
	call	__Unwind_Resume
	ud2
Lfunc_end18:
	.cfi_endproc
	.section	__TEXT,__gcc_except_tab
	.p2align	2
GCC_except_table75:
Lexception18:
	.byte	255                     
	.byte	255                     
	.byte	1                       
	.uleb128 Lcst_end18-Lcst_begin18
Lcst_begin18:
	.uleb128 Lfunc_begin18-Lfunc_begin18 
	.uleb128 Ltmp250-Lfunc_begin18  
	.byte	0                       
	.byte	0                       
	.uleb128 Ltmp250-Lfunc_begin18  
	.uleb128 Ltmp251-Ltmp250        
	.uleb128 Ltmp252-Lfunc_begin18  
	.byte	0                       
	.uleb128 Ltmp251-Lfunc_begin18  
	.uleb128 Lfunc_end18-Ltmp251    
	.byte	0                       
	.byte	0                       
Lcst_end18:
	.p2align	2
                                        
	.section	__TEXT,__text,regular,pure_instructions
	.globl	__ZN6loguru12LogScopeRAIIC2EiPKcjS2_z 
	.p2align	4, 0x90
__ZN6loguru12LogScopeRAIIC2EiPKcjS2_z:  
Lfunc_begin19:
	.cfi_startproc
	.cfi_personality 155, ___gxx_personality_v0
	.cfi_lsda 16, Lexception19

	push	rbp
	.cfi_def_cfa_offset 16
	.cfi_offset rbp, -16
	mov	rbp, rsp
	.cfi_def_cfa_register rbp
	push	r15
	push	r14
	push	r13
	push	r12
	push	rbx
	sub	rsp, 376
	.cfi_offset rbx, -56
	.cfi_offset r12, -48
	.cfi_offset r13, -40
	.cfi_offset r14, -32
	.cfi_offset r15, -24
	mov	r13, r8
	mov	r15d, ecx
	mov	r12, rdx
	mov	ebx, esi
	mov	r14, rdi
	test	al, al
	je	LBB76_2

	movaps	xmmword ptr [rbp - 368], xmm0
	movaps	xmmword ptr [rbp - 352], xmm1
	movaps	xmmword ptr [rbp - 336], xmm2
	movaps	xmmword ptr [rbp - 320], xmm3
	movaps	xmmword ptr [rbp - 304], xmm4
	movaps	xmmword ptr [rbp - 288], xmm5
	movaps	xmmword ptr [rbp - 272], xmm6
	movaps	xmmword ptr [rbp - 256], xmm7
LBB76_2:
	mov	qword ptr [rbp - 376], r9
	mov	rax, qword ptr [rip + ___stack_chk_guard@GOTPCREL]
	mov	rax, qword ptr [rax]
	mov	qword ptr [rbp - 48], rax
	mov	dword ptr [r14], ebx
	mov	qword ptr [r14 + 8], r12
	mov	dword ptr [r14 + 16], r15d
	mov	eax, dword ptr [rip + __ZN6loguru18g_stderr_verbosityE]
	mov	ecx, dword ptr [rip + __ZN6loguruL19s_max_out_verbosityE]
	cmp	eax, ecx
	cmovge	ecx, eax
	cmp	ecx, ebx
	jge	LBB76_3

	mov	qword ptr [r14 + 8], 0
	jmp	LBB76_14
LBB76_3:
	lea	rdi, [rip + __ZN6loguruL7s_mutexE]
	call	__ZNSt3__115recursive_mutex4lockEv
	cmp	dword ptr [rip + __ZN6loguru18g_stderr_verbosityE], ebx
	setge	byte ptr [r14 + 20]
	call	__ZNSt3__16chrono12steady_clock3nowEv
	mov	qword ptr [r14 + 24], rax
	lea	rax, [rbp - 416]
	mov	qword ptr [rbp - 160], rax
	lea	rax, [rbp + 16]
	mov	qword ptr [rbp - 168], rax
	movabs	rax, 206158430248
	mov	qword ptr [rbp - 176], rax
	lea	rdi, [r14 + 32]
	lea	rcx, [rbp - 176]
	mov	esi, 196
	mov	qword ptr [rbp - 184], rdi 
	mov	rdx, r13
	call	_vsnprintf
	mov	r13d, dword ptr [r14]
Ltmp253:
	lea	rdi, [rbp - 144]
	mov	esi, r13d
	mov	rdx, r12
	mov	ecx, r15d
	call	__ZN6loguruL14print_preambleEPcmiPKcj
Ltmp254:

	mov	dword ptr [rbp - 240], r13d
	mov	qword ptr [rbp - 232], r12
	mov	dword ptr [rbp - 224], r15d
	lea	rax, [rbp - 144]
	mov	qword ptr [rbp - 216], rax
	lea	rax, [rip + L_.str.8]
	mov	qword ptr [rbp - 208], rax
	lea	rax, [rip + L_.str.102]
	mov	qword ptr [rbp - 200], rax
	mov	rax, qword ptr [rbp - 184] 
	mov	qword ptr [rbp - 192], rax
Ltmp255:
	lea	rsi, [rbp - 240]
	mov	edi, 2
	mov	edx, 1
	mov	ecx, 1
	call	__ZN6loguruL11log_messageEiRNS_7MessageEbb
Ltmp256:

	cmp	byte ptr [r14 + 20], 0
	je	LBB76_7

	lock		inc	dword ptr [rip + __ZN6loguruL20s_stderr_indentationE]
LBB76_7:
	mov	rcx, qword ptr [rip + __ZN6loguruL11s_callbacksE]
	mov	rsi, qword ptr [rip + __ZN6loguruL11s_callbacksE+8]
	cmp	rcx, rsi
	jne	LBB76_9
LBB76_8:
	lea	rdi, [rip + __ZN6loguruL7s_mutexE]
	call	__ZNSt3__115recursive_mutex6unlockEv
LBB76_14:
	mov	rax, qword ptr [rip + ___stack_chk_guard@GOTPCREL]
	mov	rax, qword ptr [rax]
	cmp	rax, qword ptr [rbp - 48]
	jne	LBB76_16

	add	rsp, 376
	pop	rbx
	pop	r12
	pop	r13
	pop	r14
	pop	r15
	pop	rbp
	ret
	.p2align	4, 0x90
LBB76_11:                               
	add	rcx, 72
	cmp	rsi, rcx
	je	LBB76_8
LBB76_9:                                
	cmp	dword ptr [rcx + 40], ebx
	jl	LBB76_11

	inc	dword ptr [rcx + 64]
	jmp	LBB76_11
LBB76_16:
	call	___stack_chk_fail
LBB76_12:
Ltmp257:
	mov	rbx, rax
	lea	rdi, [rip + __ZN6loguruL7s_mutexE]
	call	__ZNSt3__115recursive_mutex6unlockEv
	mov	rdi, rbx
	call	__Unwind_Resume
	ud2
Lfunc_end19:
	.cfi_endproc
	.section	__TEXT,__gcc_except_tab
	.p2align	2
GCC_except_table76:
Lexception19:
	.byte	255                     
	.byte	255                     
	.byte	1                       
	.uleb128 Lcst_end19-Lcst_begin19
Lcst_begin19:
	.uleb128 Lfunc_begin19-Lfunc_begin19 
	.uleb128 Ltmp253-Lfunc_begin19  
	.byte	0                       
	.byte	0                       
	.uleb128 Ltmp253-Lfunc_begin19  
	.uleb128 Ltmp256-Ltmp253        
	.uleb128 Ltmp257-Lfunc_begin19  
	.byte	0                       
	.uleb128 Ltmp256-Lfunc_begin19  
	.uleb128 Lfunc_end19-Ltmp256    
	.byte	0                       
	.byte	0                       
Lcst_end19:
	.p2align	2
                                        
	.section	__TEXT,__text,regular,pure_instructions
	.globl	__ZN6loguru12LogScopeRAIIC1EiPKcjS2_z 
	.p2align	4, 0x90
__ZN6loguru12LogScopeRAIIC1EiPKcjS2_z:  
Lfunc_begin20:
	.cfi_startproc
	.cfi_personality 155, ___gxx_personality_v0
	.cfi_lsda 16, Lexception20

	push	rbp
	.cfi_def_cfa_offset 16
	.cfi_offset rbp, -16
	mov	rbp, rsp
	.cfi_def_cfa_register rbp
	push	r15
	push	r14
	push	r13
	push	r12
	push	rbx
	sub	rsp, 376
	.cfi_offset rbx, -56
	.cfi_offset r12, -48
	.cfi_offset r13, -40
	.cfi_offset r14, -32
	.cfi_offset r15, -24
	mov	r13, r8
	mov	r15d, ecx
	mov	r12, rdx
	mov	ebx, esi
	mov	r14, rdi
	test	al, al
	je	LBB77_2

	movaps	xmmword ptr [rbp - 368], xmm0
	movaps	xmmword ptr [rbp - 352], xmm1
	movaps	xmmword ptr [rbp - 336], xmm2
	movaps	xmmword ptr [rbp - 320], xmm3
	movaps	xmmword ptr [rbp - 304], xmm4
	movaps	xmmword ptr [rbp - 288], xmm5
	movaps	xmmword ptr [rbp - 272], xmm6
	movaps	xmmword ptr [rbp - 256], xmm7
LBB77_2:
	mov	qword ptr [rbp - 376], r9
	mov	rax, qword ptr [rip + ___stack_chk_guard@GOTPCREL]
	mov	rax, qword ptr [rax]
	mov	qword ptr [rbp - 48], rax
	mov	dword ptr [r14], ebx
	mov	qword ptr [r14 + 8], r12
	mov	dword ptr [r14 + 16], r15d
	mov	eax, dword ptr [rip + __ZN6loguru18g_stderr_verbosityE]
	mov	ecx, dword ptr [rip + __ZN6loguruL19s_max_out_verbosityE]
	cmp	eax, ecx
	cmovge	ecx, eax
	cmp	ecx, ebx
	jge	LBB77_3

	mov	qword ptr [r14 + 8], 0
	jmp	LBB77_14
LBB77_3:
	lea	rdi, [rip + __ZN6loguruL7s_mutexE]
	call	__ZNSt3__115recursive_mutex4lockEv
	cmp	dword ptr [rip + __ZN6loguru18g_stderr_verbosityE], ebx
	setge	byte ptr [r14 + 20]
	call	__ZNSt3__16chrono12steady_clock3nowEv
	mov	qword ptr [r14 + 24], rax
	lea	rax, [rbp - 416]
	mov	qword ptr [rbp - 160], rax
	lea	rax, [rbp + 16]
	mov	qword ptr [rbp - 168], rax
	movabs	rax, 206158430248
	mov	qword ptr [rbp - 176], rax
	lea	rdi, [r14 + 32]
	lea	rcx, [rbp - 176]
	mov	esi, 196
	mov	qword ptr [rbp - 184], rdi 
	mov	rdx, r13
	call	_vsnprintf
	mov	r13d, dword ptr [r14]
Ltmp258:
	lea	rdi, [rbp - 144]
	mov	esi, r13d
	mov	rdx, r12
	mov	ecx, r15d
	call	__ZN6loguruL14print_preambleEPcmiPKcj
Ltmp259:

	mov	dword ptr [rbp - 240], r13d
	mov	qword ptr [rbp - 232], r12
	mov	dword ptr [rbp - 224], r15d
	lea	rax, [rbp - 144]
	mov	qword ptr [rbp - 216], rax
	lea	rax, [rip + L_.str.8]
	mov	qword ptr [rbp - 208], rax
	lea	rax, [rip + L_.str.102]
	mov	qword ptr [rbp - 200], rax
	mov	rax, qword ptr [rbp - 184] 
	mov	qword ptr [rbp - 192], rax
Ltmp260:
	lea	rsi, [rbp - 240]
	mov	edi, 2
	mov	edx, 1
	mov	ecx, 1
	call	__ZN6loguruL11log_messageEiRNS_7MessageEbb
Ltmp261:

	cmp	byte ptr [r14 + 20], 0
	je	LBB77_7

	lock		inc	dword ptr [rip + __ZN6loguruL20s_stderr_indentationE]
LBB77_7:
	mov	rcx, qword ptr [rip + __ZN6loguruL11s_callbacksE]
	mov	rsi, qword ptr [rip + __ZN6loguruL11s_callbacksE+8]
	cmp	rcx, rsi
	jne	LBB77_9
LBB77_8:
	lea	rdi, [rip + __ZN6loguruL7s_mutexE]
	call	__ZNSt3__115recursive_mutex6unlockEv
LBB77_14:
	mov	rax, qword ptr [rip + ___stack_chk_guard@GOTPCREL]
	mov	rax, qword ptr [rax]
	cmp	rax, qword ptr [rbp - 48]
	jne	LBB77_16

	add	rsp, 376
	pop	rbx
	pop	r12
	pop	r13
	pop	r14
	pop	r15
	pop	rbp
	ret
	.p2align	4, 0x90
LBB77_11:                               
	add	rcx, 72
	cmp	rsi, rcx
	je	LBB77_8
LBB77_9:                                
	cmp	dword ptr [rcx + 40], ebx
	jl	LBB77_11

	inc	dword ptr [rcx + 64]
	jmp	LBB77_11
LBB77_16:
	call	___stack_chk_fail
LBB77_12:
Ltmp262:
	mov	rbx, rax
	lea	rdi, [rip + __ZN6loguruL7s_mutexE]
	call	__ZNSt3__115recursive_mutex6unlockEv
	mov	rdi, rbx
	call	__Unwind_Resume
	ud2
Lfunc_end20:
	.cfi_endproc
	.section	__TEXT,__gcc_except_tab
	.p2align	2
GCC_except_table77:
Lexception20:
	.byte	255                     
	.byte	255                     
	.byte	1                       
	.uleb128 Lcst_end20-Lcst_begin20
Lcst_begin20:
	.uleb128 Lfunc_begin20-Lfunc_begin20 
	.uleb128 Ltmp258-Lfunc_begin20  
	.byte	0                       
	.byte	0                       
	.uleb128 Ltmp258-Lfunc_begin20  
	.uleb128 Ltmp261-Ltmp258        
	.uleb128 Ltmp262-Lfunc_begin20  
	.byte	0                       
	.uleb128 Ltmp261-Lfunc_begin20  
	.uleb128 Lfunc_end20-Ltmp261    
	.byte	0                       
	.byte	0                       
Lcst_end20:
	.p2align	2
                                        
	.section	__TEXT,__literal8,8byte_literals
	.p2align	3               
LCPI78_0:
	.quad	4741671816366391296     
	.section	__TEXT,__text,regular,pure_instructions
	.globl	__ZN6loguru12LogScopeRAIID2Ev
	.p2align	4, 0x90
__ZN6loguru12LogScopeRAIID2Ev:          
Lfunc_begin21:
	.cfi_startproc
	.cfi_personality 155, ___gxx_personality_v0
	.cfi_lsda 16, Lexception21

	push	rbp
	.cfi_def_cfa_offset 16
	.cfi_offset rbp, -16
	mov	rbp, rsp
	.cfi_def_cfa_register rbp
	push	r15
	push	r14
	push	r13
	push	r12
	push	rbx
	sub	rsp, 168
	.cfi_offset rbx, -56
	.cfi_offset r12, -48
	.cfi_offset r13, -40
	.cfi_offset r14, -32
	.cfi_offset r15, -24
	mov	rax, qword ptr [rip + ___stack_chk_guard@GOTPCREL]
	mov	rax, qword ptr [rax]
	mov	qword ptr [rbp - 48], rax
	cmp	qword ptr [rdi + 8], 0
	je	LBB78_15

	mov	rbx, rdi
Ltmp263:
	lea	rdi, [rip + __ZN6loguruL7s_mutexE]
	call	__ZNSt3__115recursive_mutex4lockEv
Ltmp264:

	cmp	byte ptr [rbx + 20], 0
	je	LBB78_5

	mov	eax, dword ptr [rip + __ZN6loguruL20s_stderr_indentationE]
	test	eax, eax
	je	LBB78_5

	lock		dec	dword ptr [rip + __ZN6loguruL20s_stderr_indentationE]
LBB78_5:
	mov	rax, qword ptr [rip + __ZN6loguruL11s_callbacksE]
	mov	rcx, qword ptr [rip + __ZN6loguruL11s_callbacksE+8]
	cmp	rax, rcx
	je	LBB78_11

	mov	edx, dword ptr [rbx]
	jmp	LBB78_7
	.p2align	4, 0x90
LBB78_10:                               
	add	rax, 72
	cmp	rcx, rax
	je	LBB78_11
LBB78_7:                                
	cmp	edx, dword ptr [rax + 40]
	jg	LBB78_10

	mov	esi, dword ptr [rax + 64]
	test	esi, esi
	je	LBB78_10

	dec	esi
	mov	dword ptr [rax + 64], esi
	jmp	LBB78_10
LBB78_11:
	call	__ZNSt3__16chrono12steady_clock3nowEv
	sub	rax, qword ptr [rbx + 24]
	cvtsi2sd	xmm0, rax
	divsd	xmm0, qword ptr [rip + LCPI78_0]
	lea	rcx, [rbx + 32]
Ltmp266:
	lea	rsi, [rip + L_.str.103]
	lea	rdi, [rbp - 152]
	mov	edx, 3
	mov	al, 1
	call	__ZN6loguru10textprintfEPKcz
Ltmp267:

	mov	r14d, dword ptr [rbx]
	mov	r15, qword ptr [rbx + 8]
	mov	ebx, dword ptr [rbx + 16]
	mov	r12, qword ptr [rbp - 152]
Ltmp269:
	lea	r13, [rbp - 144]
	mov	rdi, r13
	mov	esi, r14d
	mov	rdx, r15
	mov	ecx, ebx
	call	__ZN6loguruL14print_preambleEPcmiPKcj
Ltmp270:

	mov	dword ptr [rbp - 208], r14d
	mov	qword ptr [rbp - 200], r15
	mov	dword ptr [rbp - 192], ebx
	mov	qword ptr [rbp - 184], r13
	lea	rax, [rip + L_.str.8]
	mov	qword ptr [rbp - 176], rax
	lea	rax, [rip + L_.str.104]
	mov	qword ptr [rbp - 168], rax
	mov	qword ptr [rbp - 160], r12
Ltmp271:
	lea	rsi, [rbp - 208]
	mov	edi, 2
	mov	edx, 1
	mov	ecx, 1
	call	__ZN6loguruL11log_messageEiRNS_7MessageEbb
Ltmp272:

	mov	rdi, r12
	call	_free
	lea	rdi, [rip + __ZN6loguruL7s_mutexE]
	call	__ZNSt3__115recursive_mutex6unlockEv
LBB78_15:
	mov	rax, qword ptr [rip + ___stack_chk_guard@GOTPCREL]
	mov	rax, qword ptr [rax]
	cmp	rax, qword ptr [rbp - 48]
	jne	LBB78_16

	add	rsp, 168
	pop	rbx
	pop	r12
	pop	r13
	pop	r14
	pop	r15
	pop	rbp
	ret
LBB78_16:
	call	___stack_chk_fail
LBB78_17:
Ltmp268:
	mov	r14, rax
	jmp	LBB78_19
LBB78_22:
Ltmp265:
	mov	rdi, rax
	call	___clang_call_terminate
LBB78_18:
Ltmp273:
	mov	r14, rax
	mov	rdi, r12
	call	_free
LBB78_19:
	lea	rdi, [rip + __ZN6loguruL7s_mutexE]
	call	__ZNSt3__115recursive_mutex6unlockEv
	mov	rdi, r14
	call	___clang_call_terminate
Lfunc_end21:
	.cfi_endproc
	.section	__TEXT,__gcc_except_tab
	.p2align	2
GCC_except_table78:
Lexception21:
	.byte	255                     
	.byte	155                     
	.uleb128 Lttbase2-Lttbaseref2
Lttbaseref2:
	.byte	1                       
	.uleb128 Lcst_end21-Lcst_begin21
Lcst_begin21:
	.uleb128 Ltmp263-Lfunc_begin21  
	.uleb128 Ltmp264-Ltmp263        
	.uleb128 Ltmp265-Lfunc_begin21  
	.byte	1                       
	.uleb128 Ltmp266-Lfunc_begin21  
	.uleb128 Ltmp267-Ltmp266        
	.uleb128 Ltmp268-Lfunc_begin21  
	.byte	1                       
	.uleb128 Ltmp269-Lfunc_begin21  
	.uleb128 Ltmp272-Ltmp269        
	.uleb128 Ltmp273-Lfunc_begin21  
	.byte	1                       
	.uleb128 Ltmp272-Lfunc_begin21  
	.uleb128 Lfunc_end21-Ltmp272    
	.byte	0                       
	.byte	0                       
Lcst_end21:
	.byte	1                       
                                        
	.byte	0                       
	.p2align	2
                                        
	.long	0                       
Lttbase2:
	.p2align	2
                                        
	.section	__TEXT,__text,regular,pure_instructions
	.globl	__ZN6loguru12LogScopeRAIID1Ev 
	.p2align	4, 0x90
__ZN6loguru12LogScopeRAIID1Ev:          

	push	rbp
	mov	rbp, rsp
	pop	rbp
	jmp	__ZN6loguru12LogScopeRAIID2Ev 
                                        
	.globl	__ZN6loguru10vstrprintfEPKcP13__va_list_tag 
	.p2align	4, 0x90
__ZN6loguru10vstrprintfEPKcP13__va_list_tag: 
Lfunc_begin22:
	.cfi_startproc
	.cfi_personality 155, ___gxx_personality_v0
	.cfi_lsda 16, Lexception22

	push	rbp
	.cfi_def_cfa_offset 16
	.cfi_offset rbp, -16
	mov	rbp, rsp
	.cfi_def_cfa_register rbp
	push	r15
	push	r14
	push	r13
	push	r12
	push	rbx
	push	rax
	.cfi_offset rbx, -56
	.cfi_offset r12, -48
	.cfi_offset r13, -40
	.cfi_offset r14, -32
	.cfi_offset r15, -24
	mov	rbx, rsi
	mov	r15, rdi
	mov	qword ptr [rbp - 48], 0
	lea	rdi, [rbp - 48]
	call	_vasprintf
	test	eax, eax
	js	LBB80_10

	mov	r14, qword ptr [rbp - 48]
	mov	rdi, r14
	call	_strlen
	cmp	rax, -16
	jae	LBB80_2

	mov	r13, rax
	cmp	rax, 23
	jae	LBB80_5

	lea	eax, [r13 + r13]
	mov	byte ptr [r15], al
	lea	r12, [r15 + 1]
	test	r13, r13
	jne	LBB80_8
	jmp	LBB80_9
LBB80_5:
	mov	rbx, r13
	add	rbx, 16
	and	rbx, -16
Ltmp274:
	mov	rdi, rbx
	call	__Znwm
Ltmp275:

	mov	r12, rax
	mov	qword ptr [r15 + 16], rax
	or	rbx, 1
	mov	qword ptr [r15], rbx
	mov	qword ptr [r15 + 8], r13
LBB80_8:
	mov	rdi, r12
	mov	rsi, r14
	mov	rdx, r13
	call	_memcpy
LBB80_9:
	mov	byte ptr [r12 + r13], 0
	mov	rdi, r14
	call	_free
	mov	rax, r15
	add	rsp, 8
	pop	rbx
	pop	r12
	pop	r13
	pop	r14
	pop	r15
	pop	rbp
	ret
LBB80_10:
	lea	rsi, [rip + L_.str.145]
	lea	rdx, [rip + L_.str.28]
	lea	r8, [rip + L_.str.146]
	xor	edi, edi
	mov	ecx, 433
	mov	r9, rbx
	xor	eax, eax
	call	__ZN6loguru13log_and_abortEiPKcS1_jS1_z
LBB80_2:
Ltmp276:
	mov	rdi, r15
	call	__ZNKSt3__121__basic_string_commonILb1EE20__throw_length_errorEv
Ltmp277:

	ud2
LBB80_11:
Ltmp278:
	mov	rbx, rax
	mov	rdi, r14
	call	_free
	mov	rdi, rbx
	call	__Unwind_Resume
	ud2
Lfunc_end22:
	.cfi_endproc
	.section	__TEXT,__gcc_except_tab
	.p2align	2
GCC_except_table80:
Lexception22:
	.byte	255                     
	.byte	255                     
	.byte	1                       
	.uleb128 Lcst_end22-Lcst_begin22
Lcst_begin22:
	.uleb128 Lfunc_begin22-Lfunc_begin22 
	.uleb128 Ltmp274-Lfunc_begin22  
	.byte	0                       
	.byte	0                       
	.uleb128 Ltmp274-Lfunc_begin22  
	.uleb128 Ltmp275-Ltmp274        
	.uleb128 Ltmp278-Lfunc_begin22  
	.byte	0                       
	.uleb128 Ltmp275-Lfunc_begin22  
	.uleb128 Ltmp276-Ltmp275        
	.byte	0                       
	.byte	0                       
	.uleb128 Ltmp276-Lfunc_begin22  
	.uleb128 Ltmp277-Ltmp276        
	.uleb128 Ltmp278-Lfunc_begin22  
	.byte	0                       
	.uleb128 Ltmp277-Lfunc_begin22  
	.uleb128 Lfunc_end22-Ltmp277    
	.byte	0                       
	.byte	0                       
Lcst_end22:
	.p2align	2
                                        
	.section	__TEXT,__text,regular,pure_instructions
	.globl	__ZN6loguru9strprintfEPKcz 
	.p2align	4, 0x90
__ZN6loguru9strprintfEPKcz:             
	.cfi_startproc

	push	rbp
	.cfi_def_cfa_offset 16
	.cfi_offset rbp, -16
	mov	rbp, rsp
	.cfi_def_cfa_register rbp
	push	rbx
	sub	rsp, 216
	.cfi_offset rbx, -24
	mov	rbx, rdi
	test	al, al
	je	LBB81_2

	movaps	xmmword ptr [rbp - 176], xmm0
	movaps	xmmword ptr [rbp - 160], xmm1
	movaps	xmmword ptr [rbp - 144], xmm2
	movaps	xmmword ptr [rbp - 128], xmm3
	movaps	xmmword ptr [rbp - 112], xmm4
	movaps	xmmword ptr [rbp - 96], xmm5
	movaps	xmmword ptr [rbp - 80], xmm6
	movaps	xmmword ptr [rbp - 64], xmm7
LBB81_2:
	mov	qword ptr [rbp - 208], rdx
	mov	qword ptr [rbp - 200], rcx
	mov	qword ptr [rbp - 192], r8
	mov	qword ptr [rbp - 184], r9
	mov	rax, qword ptr [rip + ___stack_chk_guard@GOTPCREL]
	mov	rax, qword ptr [rax]
	mov	qword ptr [rbp - 16], rax
	lea	rax, [rbp - 224]
	mov	qword ptr [rbp - 32], rax
	lea	rax, [rbp + 16]
	mov	qword ptr [rbp - 40], rax
	movabs	rax, 206158430224
	mov	qword ptr [rbp - 48], rax
	lea	rdx, [rbp - 48]
	mov	rdi, rbx
	call	__ZN6loguru10vstrprintfEPKcP13__va_list_tag
	mov	rax, qword ptr [rip + ___stack_chk_guard@GOTPCREL]
	mov	rax, qword ptr [rax]
	cmp	rax, qword ptr [rbp - 16]
	jne	LBB81_4

	mov	rax, rbx
	add	rsp, 216
	pop	rbx
	pop	rbp
	ret
LBB81_4:
	call	___stack_chk_fail
	.cfi_endproc
                                        
	.globl	__ZN6loguru12stream_printERNS_12StringStreamEPKc 
	.p2align	4, 0x90
__ZN6loguru12stream_printERNS_12StringStreamEPKc: 
	.cfi_startproc

	push	rbp
	.cfi_def_cfa_offset 16
	.cfi_offset rbp, -16
	mov	rbp, rsp
	.cfi_def_cfa_register rbp
	pop	rbp
	jmp	__ZNSt3__112basic_stringIcNS_11char_traitsIcEENS_9allocatorIcEEE6appendEPKc 
	.cfi_endproc
                                        
	.globl	__ZN6loguru22get_thread_ec_head_refEv 
	.p2align	4, 0x90
__ZN6loguru22get_thread_ec_head_refEv:  

	push	rbp
	mov	rbp, rsp
	mov	rdi, qword ptr [rip + __ZN6loguruL13thread_ec_ptrE@TLVP]
	call	qword ptr [rdi]
	pop	rbp
	ret
                                        
	.globl	__ZN6loguru20get_thread_ec_handleEv 
	.p2align	4, 0x90
__ZN6loguru20get_thread_ec_handleEv:    

	push	rbp
	mov	rbp, rsp
	mov	rdi, qword ptr [rip + __ZN6loguruL13thread_ec_ptrE@TLVP]
	call	qword ptr [rdi]
	mov	rax, qword ptr [rax]
	pop	rbp
	ret
                                        
	.globl	__ZN6loguru17get_error_contextEv 
	.p2align	4, 0x90
__ZN6loguru17get_error_contextEv:       
	.cfi_startproc

	push	rbp
	.cfi_def_cfa_offset 16
	.cfi_offset rbp, -16
	mov	rbp, rsp
	.cfi_def_cfa_register rbp
	push	rbx
	push	rax
	.cfi_offset rbx, -24
	mov	rbx, rdi
	mov	rdi, qword ptr [rip + __ZN6loguruL13thread_ec_ptrE@TLVP]
	call	qword ptr [rdi]
	mov	rsi, qword ptr [rax]
	mov	rdi, rbx
	call	__ZN6loguru21get_error_context_forEPKNS_11EcEntryBaseE
	mov	rax, rbx
	add	rsp, 8
	pop	rbx
	pop	rbp
	ret
	.cfi_endproc
                                        
	.globl	__ZN6loguru21get_error_context_forEPKNS_11EcEntryBaseE 
	.p2align	4, 0x90
__ZN6loguru21get_error_context_forEPKNS_11EcEntryBaseE: 
Lfunc_begin23:
	.cfi_startproc
	.cfi_personality 155, ___gxx_personality_v0
	.cfi_lsda 16, Lexception23

	push	rbp
	.cfi_def_cfa_offset 16
	.cfi_offset rbp, -16
	mov	rbp, rsp
	.cfi_def_cfa_register rbp
	push	r15
	push	r14
	push	r13
	push	r12
	push	rbx
	sub	rsp, 136
	.cfi_offset rbx, -56
	.cfi_offset r12, -48
	.cfi_offset r13, -40
	.cfi_offset r14, -32
	.cfi_offset r15, -24
	mov	qword ptr [rbp - 72], rdi 
	xorps	xmm0, xmm0
	movaps	xmmword ptr [rbp - 64], xmm0
	mov	qword ptr [rbp - 48], 0
	test	rsi, rsi
	je	LBB86_20

	mov	r15, rsi
	lea	rax, [rbp - 56]
	mov	qword ptr [rbp - 160], rax 
	xor	r14d, r14d
	xor	r12d, r12d
	xor	r13d, r13d
	cmp	r13, r12
	jne	LBB86_2
	jmp	LBB86_3
	.p2align	4, 0x90
LBB86_14:
	mov	r12, qword ptr [rbp - 48]
	cmp	r13, r12
	je	LBB86_3
LBB86_2:
	mov	qword ptr [r13], r15
	add	r13, 8
	mov	qword ptr [rbp - 56], r13
	jmp	LBB86_13
	.p2align	4, 0x90
LBB86_3:
	mov	rax, qword ptr [rbp - 64]
	mov	qword ptr [rbp - 104], rax 
	sub	r12, rax
	mov	rbx, r12
	sar	rbx, 3
	lea	rax, [rbx + 1]
	movabs	rcx, 2305843009213693951
	cmp	rax, rcx
	ja	LBB86_60

	mov	r13, r12
	sar	r13, 2
	cmp	r13, rax
	cmovb	r13, rax
	movabs	rax, 1152921504606846975
	cmp	rbx, rax
	cmovae	r13, rcx
	test	r13, r13
	je	LBB86_8

	cmp	r13, rcx
	ja	LBB86_61

	lea	rdi, [8*r13]
Ltmp279:
	call	__Znwm
Ltmp280:

	mov	r14, rax
	jmp	LBB86_9
	.p2align	4, 0x90
LBB86_8:
	xor	r14d, r14d
LBB86_9:
	lea	rax, [r14 + 8*r13]
	mov	qword ptr [r14 + 8*rbx], r15
	lea	r13, [r14 + 8*rbx + 8]
	test	r12, r12
	mov	rbx, qword ptr [rbp - 104] 
	jle	LBB86_11

	mov	rdi, r14
	mov	rsi, rbx
	mov	rdx, r12
	mov	r12, rax
	call	_memcpy
	mov	rax, r12
LBB86_11:
	mov	qword ptr [rbp - 64], r14
	mov	qword ptr [rbp - 56], r13
	mov	qword ptr [rbp - 48], rax
	test	rbx, rbx
	je	LBB86_13

	mov	rdi, rbx
	call	__ZdlPv
LBB86_13:
	mov	r15, qword ptr [r15 + 32]
	test	r15, r15
	jne	LBB86_14

	cmp	r14, r13
	je	LBB86_21

	lea	rax, [r13 - 8]
	cmp	rax, r14
	mov	rbx, qword ptr [rbp - 72] 
	jbe	LBB86_22

	add	r14, 8
	.p2align	4, 0x90
LBB86_18:                               
	mov	rcx, qword ptr [r14 - 8]
	mov	rdx, qword ptr [rax]
	mov	qword ptr [r14 - 8], rdx
	mov	qword ptr [rax], rcx
	add	rax, -8
	cmp	r14, rax
	lea	r14, [r14 + 8]
	jb	LBB86_18

	mov	r14, qword ptr [rbp - 64]
	mov	r13, qword ptr [rbp - 56]
	jmp	LBB86_22
LBB86_20:
	lea	rax, [rbp - 56]
	mov	qword ptr [rbp - 160], rax 
	movaps	xmmword ptr [rbp - 96], xmm0
	mov	qword ptr [rbp - 80], 0
	mov	rbx, qword ptr [rbp - 72] 
	jmp	LBB86_52
LBB86_21:
	mov	rbx, qword ptr [rbp - 72] 
LBB86_22:
	xorps	xmm0, xmm0
	movaps	xmmword ptr [rbp - 96], xmm0
	mov	qword ptr [rbp - 80], 0
	cmp	r14, r13
	je	LBB86_52

Ltmp284:
	lea	rsi, [rip + L_.str.105]
	lea	rdi, [rbp - 96]
	call	__ZNSt3__112basic_stringIcNS_11char_traitsIcEENS_9allocatorIcEEE6appendEPKc
Ltmp285:

	mov	r12, qword ptr [rbp - 64]
	mov	rax, qword ptr [rbp - 56]
	mov	qword ptr [rbp - 176], rax 
	cmp	r12, rax
	je	LBB86_50

	lea	r14, [rbp - 128]
	jmp	LBB86_27
	.p2align	4, 0x90
LBB86_26:                               
	add	r12, 8
	cmp	r12, qword ptr [rbp - 176] 
	je	LBB86_50
LBB86_27:                               
                                        
	mov	r15, r14
	mov	rax, qword ptr [r12]
	mov	qword ptr [rbp - 104], rax 
	mov	r14, qword ptr [rax + 24]
	mov	rdi, r14
	call	_strlen
	cmp	rax, -16
	jae	LBB86_59

	mov	r13, rax
	cmp	rax, 23
	jae	LBB86_30

	lea	eax, [r13 + r13]
	mov	byte ptr [rbp - 128], al
	lea	rbx, [rbp - 127]
	test	r13, r13
	jne	LBB86_32
	jmp	LBB86_33
	.p2align	4, 0x90
LBB86_30:                               
	mov	qword ptr [rbp - 168], r12 
	mov	r12, r13
	add	r12, 16
	and	r12, -16
Ltmp286:
	mov	rdi, r12
	call	__Znwm
Ltmp287:

	mov	rbx, rax
	mov	qword ptr [rbp - 112], rax
	or	r12, 1
	mov	qword ptr [rbp - 128], r12
	mov	qword ptr [rbp - 120], r13
	mov	r12, qword ptr [rbp - 168] 
LBB86_32:                               
	mov	rdi, rbx
	mov	rsi, r14
	mov	rdx, r13
	call	_memcpy
LBB86_33:                               
	mov	byte ptr [rbx + r13], 0
Ltmp289:
	mov	r14, r15
	mov	rdi, r15
	lea	rsi, [rip + L_.str.106]
	call	__ZNSt3__112basic_stringIcNS_11char_traitsIcEENS_9allocatorIcEEE6appendEPKc
Ltmp290:

	mov	rcx, qword ptr [rax + 16]
	mov	qword ptr [rbp - 136], rcx
	mov	rcx, qword ptr [rax]
	mov	rdx, qword ptr [rax + 8]
	mov	qword ptr [rbp - 144], rdx
	mov	qword ptr [rbp - 152], rcx
	mov	qword ptr [rax], 0
	mov	qword ptr [rax + 8], 0
	mov	qword ptr [rax + 16], 0
	test	byte ptr [rbp - 128], 1
	lea	r15, [rbp - 96]
	mov	r13, qword ptr [rbp - 104] 
	je	LBB86_36

	mov	rdi, qword ptr [rbp - 112]
	call	__ZdlPv
LBB86_36:                               
	mov	rcx, qword ptr [r13 + 8]
	lea	rax, [rcx + 1]
	jmp	LBB86_39
	.p2align	4, 0x90
LBB86_37:                               
	mov	rcx, rax
LBB86_38:                               
	inc	rax
LBB86_39:                               
                                        
	movzx	edx, byte ptr [rax - 1]
	cmp	dl, 47
	je	LBB86_37

	cmp	dl, 92
	je	LBB86_37

	test	dl, dl
	jne	LBB86_38

	mov	r8d, dword ptr [r13 + 16]
	test	byte ptr [rbp - 152], 1
	lea	r9, [rbp - 151]
	je	LBB86_44

	mov	r9, qword ptr [rbp - 136]
LBB86_44:                               
Ltmp292:
	mov	rdi, r14
	lea	rsi, [rip + L_.str.107]
	mov	edx, 23
	xor	eax, eax
	call	__ZN6loguru10textprintfEPKcz
Ltmp293:

	mov	rbx, qword ptr [rbp - 128]
Ltmp295:
	mov	rdi, r15
	mov	rsi, rbx
	call	__ZNSt3__112basic_stringIcNS_11char_traitsIcEENS_9allocatorIcEEE6appendEPKc
Ltmp296:

	mov	rax, qword ptr [r13]
Ltmp297:
	mov	rdi, r13
	mov	rsi, r15
	call	qword ptr [rax]
Ltmp298:

Ltmp299:
	mov	rdi, r15
	lea	rsi, [rip + L_.str.108]
	call	__ZNSt3__112basic_stringIcNS_11char_traitsIcEENS_9allocatorIcEEE6appendEPKc
Ltmp300:

	mov	rdi, rbx
	call	_free
	test	byte ptr [rbp - 152], 1
	je	LBB86_26

	mov	rdi, qword ptr [rbp - 136]
	call	__ZdlPv
	jmp	LBB86_26
LBB86_50:
Ltmp305:
	lea	rsi, [rip + L_.str.109]
	lea	rdi, [rbp - 96]
	call	__ZNSt3__112basic_stringIcNS_11char_traitsIcEENS_9allocatorIcEEE6appendEPKc
Ltmp306:

	test	byte ptr [rbp - 96], 1
	mov	rbx, qword ptr [rbp - 72] 
	jne	LBB86_58
LBB86_52:
	lea	rdi, [rbp - 95]
LBB86_53:
	call	_strdup
	mov	qword ptr [rbx], rax
	test	byte ptr [rbp - 96], 1
	je	LBB86_55

	mov	rdi, qword ptr [rbp - 80]
	call	__ZdlPv
LBB86_55:
	mov	rdi, qword ptr [rbp - 64]
	test	rdi, rdi
	je	LBB86_57

	mov	rax, qword ptr [rbp - 160] 
	mov	qword ptr [rax], rdi
	call	__ZdlPv
LBB86_57:
	mov	rax, rbx
	add	rsp, 136
	pop	rbx
	pop	r12
	pop	r13
	pop	r14
	pop	r15
	pop	rbp
	ret
LBB86_58:
	mov	rdi, qword ptr [rbp - 80]
	jmp	LBB86_53
LBB86_59:
Ltmp302:
	lea	rdi, [rbp - 128]
	call	__ZNKSt3__121__basic_string_commonILb1EE20__throw_length_errorEv
Ltmp303:
	jmp	LBB86_62
LBB86_60:
Ltmp308:
	lea	rdi, [rbp - 64]
	call	__ZNKSt3__120__vector_base_commonILb1EE20__throw_length_errorEv
Ltmp309:
	jmp	LBB86_62
LBB86_61:
Ltmp282:
	call	__ZNSt3__1L20__throw_length_errorEPKc
Ltmp283:
LBB86_62:
	ud2
LBB86_63:
Ltmp304:
	jmp	LBB86_67
LBB86_64:
Ltmp310:
	mov	r14, rax
	jmp	LBB86_78
LBB86_65:
Ltmp307:
	jmp	LBB86_67
LBB86_66:
Ltmp288:
LBB86_67:
	mov	r14, rax
	jmp	LBB86_76
LBB86_68:
Ltmp281:
	mov	r14, rax
	jmp	LBB86_78
LBB86_69:
Ltmp291:
	mov	r14, rax
	test	byte ptr [rbp - 128], 1
	je	LBB86_76

	mov	rdi, qword ptr [rbp - 112]
	jmp	LBB86_75
LBB86_71:
Ltmp294:
	mov	r14, rax
	jmp	LBB86_73
LBB86_72:
Ltmp301:
	mov	r14, rax
	mov	rdi, rbx
	call	_free
LBB86_73:
	test	byte ptr [rbp - 152], 1
	je	LBB86_76

	mov	rdi, qword ptr [rbp - 136]
LBB86_75:
	call	__ZdlPv
LBB86_76:
	test	byte ptr [rbp - 96], 1
	je	LBB86_78

	mov	rdi, qword ptr [rbp - 80]
	call	__ZdlPv
LBB86_78:
	mov	rdi, qword ptr [rbp - 64]
	test	rdi, rdi
	je	LBB86_80

	mov	qword ptr [rbp - 56], rdi
	call	__ZdlPv
LBB86_80:
	mov	rdi, r14
	call	__Unwind_Resume
	ud2
Lfunc_end23:
	.cfi_endproc
	.section	__TEXT,__gcc_except_tab
	.p2align	2
GCC_except_table86:
Lexception23:
	.byte	255                     
	.byte	255                     
	.byte	1                       
	.uleb128 Lcst_end23-Lcst_begin23
Lcst_begin23:
	.uleb128 Ltmp279-Lfunc_begin23  
	.uleb128 Ltmp280-Ltmp279        
	.uleb128 Ltmp281-Lfunc_begin23  
	.byte	0                       
	.uleb128 Ltmp280-Lfunc_begin23  
	.uleb128 Ltmp284-Ltmp280        
	.byte	0                       
	.byte	0                       
	.uleb128 Ltmp284-Lfunc_begin23  
	.uleb128 Ltmp285-Ltmp284        
	.uleb128 Ltmp307-Lfunc_begin23  
	.byte	0                       
	.uleb128 Ltmp286-Lfunc_begin23  
	.uleb128 Ltmp287-Ltmp286        
	.uleb128 Ltmp288-Lfunc_begin23  
	.byte	0                       
	.uleb128 Ltmp287-Lfunc_begin23  
	.uleb128 Ltmp289-Ltmp287        
	.byte	0                       
	.byte	0                       
	.uleb128 Ltmp289-Lfunc_begin23  
	.uleb128 Ltmp290-Ltmp289        
	.uleb128 Ltmp291-Lfunc_begin23  
	.byte	0                       
	.uleb128 Ltmp292-Lfunc_begin23  
	.uleb128 Ltmp293-Ltmp292        
	.uleb128 Ltmp294-Lfunc_begin23  
	.byte	0                       
	.uleb128 Ltmp295-Lfunc_begin23  
	.uleb128 Ltmp300-Ltmp295        
	.uleb128 Ltmp301-Lfunc_begin23  
	.byte	0                       
	.uleb128 Ltmp305-Lfunc_begin23  
	.uleb128 Ltmp306-Ltmp305        
	.uleb128 Ltmp307-Lfunc_begin23  
	.byte	0                       
	.uleb128 Ltmp302-Lfunc_begin23  
	.uleb128 Ltmp303-Ltmp302        
	.uleb128 Ltmp304-Lfunc_begin23  
	.byte	0                       
	.uleb128 Ltmp308-Lfunc_begin23  
	.uleb128 Ltmp283-Ltmp308        
	.uleb128 Ltmp310-Lfunc_begin23  
	.byte	0                       
	.uleb128 Ltmp283-Lfunc_begin23  
	.uleb128 Lfunc_end23-Ltmp283    
	.byte	0                       
	.byte	0                       
Lcst_end23:
	.p2align	2
                                        
	.section	__TEXT,__text,regular,pure_instructions
	.globl	__ZN6loguru11EcEntryBaseC2EPKcjS2_ 
	.p2align	4, 0x90
__ZN6loguru11EcEntryBaseC2EPKcjS2_:     

	push	rbp
	mov	rbp, rsp
	mov	r8, rdi
	mov	rax, qword ptr [rip + __ZTVN6loguru11EcEntryBaseE@GOTPCREL]
	add	rax, 16
	mov	qword ptr [rdi], rax
	mov	qword ptr [rdi + 8], rsi
	mov	dword ptr [rdi + 16], edx
	mov	qword ptr [rdi + 24], rcx
	mov	rdi, qword ptr [rip + __ZN6loguruL13thread_ec_ptrE@TLVP]
	call	qword ptr [rdi]
	mov	rcx, qword ptr [rax]
	mov	qword ptr [r8 + 32], rcx
	mov	qword ptr [rax], r8
	pop	rbp
	ret
                                        
	.globl	__ZN6loguru11EcEntryBaseD2Ev 
	.p2align	4, 0x90
__ZN6loguru11EcEntryBaseD2Ev:           
	.cfi_startproc

	push	rbp
	.cfi_def_cfa_offset 16
	.cfi_offset rbp, -16
	mov	rbp, rsp
	.cfi_def_cfa_register rbp
	mov	rax, qword ptr [rip + __ZTVN6loguru11EcEntryBaseE@GOTPCREL]
	add	rax, 16
	mov	qword ptr [rdi], rax
	mov	rcx, qword ptr [rdi + 32]
	mov	rdi, qword ptr [rip + __ZN6loguruL13thread_ec_ptrE@TLVP]
	call	qword ptr [rdi]
	mov	qword ptr [rax], rcx
	pop	rbp
	ret
	.cfi_endproc
                                        
	.globl	__ZN6loguru11EcEntryBaseD1Ev 
	.p2align	4, 0x90
__ZN6loguru11EcEntryBaseD1Ev:           

	push	rbp
	mov	rbp, rsp
	ud2
                                        
	.globl	__ZN6loguru10ec_to_textEPKc 
	.p2align	4, 0x90
__ZN6loguru10ec_to_textEPKc:            
Lfunc_begin24:
	.cfi_startproc
	.cfi_personality 155, ___gxx_personality_v0
	.cfi_lsda 16, Lexception24

	push	rbp
	.cfi_def_cfa_offset 16
	.cfi_offset rbp, -16
	mov	rbp, rsp
	.cfi_def_cfa_register rbp
	push	r15
	push	r14
	push	r13
	push	r12
	push	rbx
	sub	rsp, 72
	.cfi_offset rbx, -56
	.cfi_offset r12, -48
	.cfi_offset r13, -40
	.cfi_offset r14, -32
	.cfi_offset r15, -24
	mov	r15, rsi
	mov	r14, rdi
	mov	rdi, rsi
	call	_strlen
	cmp	rax, -16
	jae	LBB90_21

	mov	r13, rax
	cmp	rax, 23
	jae	LBB90_2

	lea	eax, [r13 + r13]
	mov	byte ptr [rbp - 64], al
	lea	r12, [rbp - 63]
	test	r13, r13
	jne	LBB90_4
	jmp	LBB90_5
LBB90_2:
	mov	rbx, r13
	add	rbx, 16
	and	rbx, -16
	mov	rdi, rbx
	call	__Znwm
	mov	r12, rax
	mov	qword ptr [rbp - 48], rax
	or	rbx, 1
	mov	qword ptr [rbp - 64], rbx
	mov	qword ptr [rbp - 56], r13
LBB90_4:
	mov	rdi, r12
	mov	rsi, r15
	mov	rdx, r13
	call	_memcpy
LBB90_5:
	mov	byte ptr [r12 + r13], 0
Ltmp311:
	lea	rdx, [rip + L_.str.110]
	lea	rdi, [rbp - 64]
	xor	esi, esi
	call	__ZNSt3__112basic_stringIcNS_11char_traitsIcEENS_9allocatorIcEEE6insertEmPKc
Ltmp312:

	mov	rcx, qword ptr [rax + 16]
	mov	qword ptr [rbp - 72], rcx
	mov	rcx, qword ptr [rax]
	mov	rdx, qword ptr [rax + 8]
	mov	qword ptr [rbp - 80], rdx
	mov	qword ptr [rbp - 88], rcx
	mov	qword ptr [rax], 0
	mov	qword ptr [rax + 8], 0
	mov	qword ptr [rax + 16], 0
Ltmp314:
	lea	rsi, [rip + L_.str.110]
	lea	rdi, [rbp - 88]
	call	__ZNSt3__112basic_stringIcNS_11char_traitsIcEENS_9allocatorIcEEE6appendEPKc
Ltmp315:

	mov	rcx, qword ptr [rax + 16]
	mov	qword ptr [rbp - 96], rcx
	mov	rcx, qword ptr [rax]
	mov	rdx, qword ptr [rax + 8]
	mov	qword ptr [rbp - 104], rdx
	mov	qword ptr [rbp - 112], rcx
	mov	qword ptr [rax], 0
	mov	qword ptr [rax + 8], 0
	mov	qword ptr [rax + 16], 0
	test	byte ptr [rbp - 88], 1
	jne	LBB90_8

	test	byte ptr [rbp - 64], 1
	jne	LBB90_10
LBB90_11:
	test	byte ptr [rbp - 112], 1
	jne	LBB90_13
LBB90_12:
	lea	rdi, [rbp - 111]
	call	_strdup
	mov	rbx, rax
	jmp	LBB90_14
LBB90_8:
	mov	rdi, qword ptr [rbp - 72]
	call	__ZdlPv
	test	byte ptr [rbp - 64], 1
	je	LBB90_11
LBB90_10:
	mov	rdi, qword ptr [rbp - 48]
	call	__ZdlPv
	test	byte ptr [rbp - 112], 1
	je	LBB90_12
LBB90_13:
	mov	r15, qword ptr [rbp - 96]
	mov	rdi, r15
	call	_strdup
	mov	rbx, rax
	mov	rdi, r15
	call	__ZdlPv
LBB90_14:
	mov	qword ptr [r14], rbx
	mov	rax, r14
	add	rsp, 72
	pop	rbx
	pop	r12
	pop	r13
	pop	r14
	pop	r15
	pop	rbp
	ret
LBB90_21:
	lea	rdi, [rbp - 64]
	call	__ZNKSt3__121__basic_string_commonILb1EE20__throw_length_errorEv
LBB90_16:
Ltmp316:
	mov	rbx, rax
	test	byte ptr [rbp - 88], 1
	je	LBB90_18

	mov	rdi, qword ptr [rbp - 72]
	call	__ZdlPv
	jmp	LBB90_18
LBB90_15:
Ltmp313:
	mov	rbx, rax
LBB90_18:
	test	byte ptr [rbp - 64], 1
	je	LBB90_20

	mov	rdi, qword ptr [rbp - 48]
	call	__ZdlPv
LBB90_20:
	mov	rdi, rbx
	call	__Unwind_Resume
	ud2
Lfunc_end24:
	.cfi_endproc
	.section	__TEXT,__gcc_except_tab
	.p2align	2
GCC_except_table90:
Lexception24:
	.byte	255                     
	.byte	255                     
	.byte	1                       
	.uleb128 Lcst_end24-Lcst_begin24
Lcst_begin24:
	.uleb128 Lfunc_begin24-Lfunc_begin24 
	.uleb128 Ltmp311-Lfunc_begin24  
	.byte	0                       
	.byte	0                       
	.uleb128 Ltmp311-Lfunc_begin24  
	.uleb128 Ltmp312-Ltmp311        
	.uleb128 Ltmp313-Lfunc_begin24  
	.byte	0                       
	.uleb128 Ltmp314-Lfunc_begin24  
	.uleb128 Ltmp315-Ltmp314        
	.uleb128 Ltmp316-Lfunc_begin24  
	.byte	0                       
	.uleb128 Ltmp315-Lfunc_begin24  
	.uleb128 Lfunc_end24-Ltmp315    
	.byte	0                       
	.byte	0                       
Lcst_end24:
	.p2align	2
                                        
	.section	__TEXT,__text,regular,pure_instructions
	.globl	__ZN6loguru10ec_to_textEc 
	.p2align	4, 0x90
__ZN6loguru10ec_to_textEc:              
Lfunc_begin25:
	.cfi_startproc
	.cfi_personality 155, ___gxx_personality_v0
	.cfi_lsda 16, Lexception25

	push	rbp
	.cfi_def_cfa_offset 16
	.cfi_offset rbp, -16
	mov	rbp, rsp
	.cfi_def_cfa_register rbp
	push	r14
	push	rbx
	sub	rsp, 32
	.cfi_offset rbx, -32
	.cfi_offset r14, -24
	mov	ebx, esi
	mov	r14, rdi
	mov	word ptr [rbp - 40], 9986
	mov	byte ptr [rbp - 38], 0
	cmp	bl, 39
	ja	LBB91_1

	movzx	eax, bl
	lea	rcx, [rip + LJTI91_0]
	movsxd	rax, dword ptr [rcx + 4*rax]
	add	rax, rcx
	jmp	rax
LBB91_8:
Ltmp327:
	lea	rsi, [rip + L_.str.115]
	lea	rdi, [rbp - 40]
	call	__ZNSt3__112basic_stringIcNS_11char_traitsIcEENS_9allocatorIcEEE6appendEPKc
Ltmp328:
	jmp	LBB91_23
LBB91_1:
	cmp	bl, 92
	jne	LBB91_14

Ltmp333:
	lea	rsi, [rip + L_.str.112]
	lea	rdi, [rbp - 40]
	call	__ZNSt3__112basic_stringIcNS_11char_traitsIcEENS_9allocatorIcEEE6appendEPKc
Ltmp334:
	jmp	LBB91_23
LBB91_14:
	cmp	bl, 31
	ja	LBB91_22

Ltmp337:
	lea	rsi, [rip + L_.str.121]
	lea	rdi, [rbp - 40]
	call	__ZNSt3__112basic_stringIcNS_11char_traitsIcEENS_9allocatorIcEEE6appendEPKc
Ltmp338:

Ltmp339:
	lea	rdi, [rbp - 40]
	mov	esi, 48
	call	__ZNSt3__112basic_stringIcNS_11char_traitsIcEENS_9allocatorIcEEE9push_backEc
Ltmp340:

Ltmp341:
	lea	rdi, [rbp - 40]
	mov	esi, 48
	call	__ZNSt3__112basic_stringIcNS_11char_traitsIcEENS_9allocatorIcEEE9push_backEc
Ltmp342:

	mov	eax, ebx
	shr	al, 4
	or	al, 48
Ltmp343:
	movzx	esi, al
	lea	rdi, [rbp - 40]
	call	__ZNSt3__112basic_stringIcNS_11char_traitsIcEENS_9allocatorIcEEE9push_backEc
Ltmp344:

	and	bl, 15
	cmp	bl, 9
	ja	LBB91_21

	or	bl, 48
Ltmp347:
	movzx	esi, bl
	lea	rdi, [rbp - 40]
	call	__ZNSt3__112basic_stringIcNS_11char_traitsIcEENS_9allocatorIcEEE9push_backEc
Ltmp348:
	jmp	LBB91_23
LBB91_9:
Ltmp325:
	lea	rsi, [rip + L_.str.116]
	lea	rdi, [rbp - 40]
	call	__ZNSt3__112basic_stringIcNS_11char_traitsIcEENS_9allocatorIcEEE6appendEPKc
Ltmp326:
	jmp	LBB91_23
LBB91_13:
Ltmp317:
	lea	rsi, [rip + L_.str.120]
	lea	rdi, [rbp - 40]
	call	__ZNSt3__112basic_stringIcNS_11char_traitsIcEENS_9allocatorIcEEE6appendEPKc
Ltmp318:
	jmp	LBB91_23
LBB91_11:
Ltmp321:
	lea	rsi, [rip + L_.str.118]
	lea	rdi, [rbp - 40]
	call	__ZNSt3__112basic_stringIcNS_11char_traitsIcEENS_9allocatorIcEEE6appendEPKc
Ltmp322:
	jmp	LBB91_23
LBB91_10:
Ltmp323:
	lea	rsi, [rip + L_.str.117]
	lea	rdi, [rbp - 40]
	call	__ZNSt3__112basic_stringIcNS_11char_traitsIcEENS_9allocatorIcEEE6appendEPKc
Ltmp324:
	jmp	LBB91_23
LBB91_12:
Ltmp319:
	lea	rsi, [rip + L_.str.119]
	lea	rdi, [rbp - 40]
	call	__ZNSt3__112basic_stringIcNS_11char_traitsIcEENS_9allocatorIcEEE6appendEPKc
Ltmp320:
	jmp	LBB91_23
LBB91_6:
Ltmp331:
	lea	rsi, [rip + L_.str.113]
	lea	rdi, [rbp - 40]
	call	__ZNSt3__112basic_stringIcNS_11char_traitsIcEENS_9allocatorIcEEE6appendEPKc
Ltmp332:
	jmp	LBB91_23
LBB91_7:
Ltmp329:
	lea	rsi, [rip + L_.str.114]
	lea	rdi, [rbp - 40]
	call	__ZNSt3__112basic_stringIcNS_11char_traitsIcEENS_9allocatorIcEEE6appendEPKc
Ltmp330:
	jmp	LBB91_23
LBB91_22:
Ltmp335:
	movsx	esi, bl
	lea	rdi, [rbp - 40]
	call	__ZNSt3__112basic_stringIcNS_11char_traitsIcEENS_9allocatorIcEEE9push_backEc
Ltmp336:
	jmp	LBB91_23
LBB91_21:
	add	bl, 87
Ltmp345:
	movzx	esi, bl
	lea	rdi, [rbp - 40]
	call	__ZNSt3__112basic_stringIcNS_11char_traitsIcEENS_9allocatorIcEEE9push_backEc
Ltmp346:
LBB91_23:
Ltmp349:
	lea	rsi, [rip + L_.str.111]
	lea	rdi, [rbp - 40]
	call	__ZNSt3__112basic_stringIcNS_11char_traitsIcEENS_9allocatorIcEEE6appendEPKc
Ltmp350:

	test	byte ptr [rbp - 40], 1
	je	LBB91_25

	mov	rdi, qword ptr [rbp - 24]
	jmp	LBB91_27
LBB91_25:
	lea	rdi, [rbp - 39]
LBB91_27:
	call	_strdup
	mov	qword ptr [r14], rax
	test	byte ptr [rbp - 40], 1
	je	LBB91_29

	mov	rdi, qword ptr [rbp - 24]
	call	__ZdlPv
LBB91_29:
	mov	rax, r14
	add	rsp, 32
	pop	rbx
	pop	r14
	pop	rbp
	ret
LBB91_3:
Ltmp351:
	mov	rbx, rax
	test	byte ptr [rbp - 40], 1
	je	LBB91_5

	mov	rdi, qword ptr [rbp - 24]
	call	__ZdlPv
LBB91_5:
	mov	rdi, rbx
	call	__Unwind_Resume
	ud2
Lfunc_end25:
	.cfi_endproc
	.p2align	2, 0x90
	.data_region jt32









LJTI91_0:
	.long	L91_0_set_8
	.long	L91_0_set_14
	.long	L91_0_set_14
	.long	L91_0_set_14
	.long	L91_0_set_14
	.long	L91_0_set_14
	.long	L91_0_set_14
	.long	L91_0_set_14
	.long	L91_0_set_9
	.long	L91_0_set_13
	.long	L91_0_set_11
	.long	L91_0_set_14
	.long	L91_0_set_10
	.long	L91_0_set_12
	.long	L91_0_set_14
	.long	L91_0_set_14
	.long	L91_0_set_14
	.long	L91_0_set_14
	.long	L91_0_set_14
	.long	L91_0_set_14
	.long	L91_0_set_14
	.long	L91_0_set_14
	.long	L91_0_set_14
	.long	L91_0_set_14
	.long	L91_0_set_14
	.long	L91_0_set_14
	.long	L91_0_set_14
	.long	L91_0_set_14
	.long	L91_0_set_14
	.long	L91_0_set_14
	.long	L91_0_set_14
	.long	L91_0_set_14
	.long	L91_0_set_14
	.long	L91_0_set_14
	.long	L91_0_set_6
	.long	L91_0_set_14
	.long	L91_0_set_14
	.long	L91_0_set_14
	.long	L91_0_set_14
	.long	L91_0_set_7
	.end_data_region
	.section	__TEXT,__gcc_except_tab
	.p2align	2
GCC_except_table91:
Lexception25:
	.byte	255                     
	.byte	255                     
	.byte	1                       
	.uleb128 Lcst_end25-Lcst_begin25
Lcst_begin25:
	.uleb128 Ltmp327-Lfunc_begin25  
	.uleb128 Ltmp350-Ltmp327        
	.uleb128 Ltmp351-Lfunc_begin25  
	.byte	0                       
	.uleb128 Ltmp350-Lfunc_begin25  
	.uleb128 Lfunc_end25-Ltmp350    
	.byte	0                       
	.byte	0                       
Lcst_end25:
	.p2align	2
                                        
	.section	__TEXT,__text,regular,pure_instructions
	.globl	__ZN6loguru10ec_to_textEi 
	.p2align	4, 0x90
__ZN6loguru10ec_to_textEi:              
	.cfi_startproc

	push	rbp
	.cfi_def_cfa_offset 16
	.cfi_offset rbp, -16
	mov	rbp, rsp
	.cfi_def_cfa_register rbp
	push	rbx
	sub	rsp, 24
	.cfi_offset rbx, -24
	mov	rbx, rdi
	lea	rdi, [rbp - 32]
	call	__ZNSt3__19to_stringEi
	test	byte ptr [rbp - 32], 1
	je	LBB92_1

	mov	rdi, qword ptr [rbp - 16]
	jmp	LBB92_3
LBB92_1:
	lea	rdi, [rbp - 31]
LBB92_3:
	call	_strdup
	mov	qword ptr [rbx], rax
	test	byte ptr [rbp - 32], 1
	je	LBB92_5

	mov	rdi, qword ptr [rbp - 16]
	call	__ZdlPv
LBB92_5:
	mov	rax, rbx
	add	rsp, 24
	pop	rbx
	pop	rbp
	ret
	.cfi_endproc
                                        
	.globl	__ZN6loguru10ec_to_textEj 
	.p2align	4, 0x90
__ZN6loguru10ec_to_textEj:              
	.cfi_startproc

	push	rbp
	.cfi_def_cfa_offset 16
	.cfi_offset rbp, -16
	mov	rbp, rsp
	.cfi_def_cfa_register rbp
	push	rbx
	sub	rsp, 24
	.cfi_offset rbx, -24
	mov	rbx, rdi
	lea	rdi, [rbp - 32]
	call	__ZNSt3__19to_stringEj
	test	byte ptr [rbp - 32], 1
	je	LBB93_1

	mov	rdi, qword ptr [rbp - 16]
	jmp	LBB93_3
LBB93_1:
	lea	rdi, [rbp - 31]
LBB93_3:
	call	_strdup
	mov	qword ptr [rbx], rax
	test	byte ptr [rbp - 32], 1
	je	LBB93_5

	mov	rdi, qword ptr [rbp - 16]
	call	__ZdlPv
LBB93_5:
	mov	rax, rbx
	add	rsp, 24
	pop	rbx
	pop	rbp
	ret
	.cfi_endproc
                                        
	.globl	__ZN6loguru10ec_to_textEl 
	.p2align	4, 0x90
__ZN6loguru10ec_to_textEl:              
	.cfi_startproc

	push	rbp
	.cfi_def_cfa_offset 16
	.cfi_offset rbp, -16
	mov	rbp, rsp
	.cfi_def_cfa_register rbp
	push	rbx
	sub	rsp, 24
	.cfi_offset rbx, -24
	mov	rbx, rdi
	lea	rdi, [rbp - 32]
	call	__ZNSt3__19to_stringEl
	test	byte ptr [rbp - 32], 1
	je	LBB94_1

	mov	rdi, qword ptr [rbp - 16]
	jmp	LBB94_3
LBB94_1:
	lea	rdi, [rbp - 31]
LBB94_3:
	call	_strdup
	mov	qword ptr [rbx], rax
	test	byte ptr [rbp - 32], 1
	je	LBB94_5

	mov	rdi, qword ptr [rbp - 16]
	call	__ZdlPv
LBB94_5:
	mov	rax, rbx
	add	rsp, 24
	pop	rbx
	pop	rbp
	ret
	.cfi_endproc
                                        
	.globl	__ZN6loguru10ec_to_textEm 
	.p2align	4, 0x90
__ZN6loguru10ec_to_textEm:              
	.cfi_startproc

	push	rbp
	.cfi_def_cfa_offset 16
	.cfi_offset rbp, -16
	mov	rbp, rsp
	.cfi_def_cfa_register rbp
	push	rbx
	sub	rsp, 24
	.cfi_offset rbx, -24
	mov	rbx, rdi
	lea	rdi, [rbp - 32]
	call	__ZNSt3__19to_stringEm
	test	byte ptr [rbp - 32], 1
	je	LBB95_1

	mov	rdi, qword ptr [rbp - 16]
	jmp	LBB95_3
LBB95_1:
	lea	rdi, [rbp - 31]
LBB95_3:
	call	_strdup
	mov	qword ptr [rbx], rax
	test	byte ptr [rbp - 32], 1
	je	LBB95_5

	mov	rdi, qword ptr [rbp - 16]
	call	__ZdlPv
LBB95_5:
	mov	rax, rbx
	add	rsp, 24
	pop	rbx
	pop	rbp
	ret
	.cfi_endproc
                                        
	.globl	__ZN6loguru10ec_to_textEx 
	.p2align	4, 0x90
__ZN6loguru10ec_to_textEx:              
	.cfi_startproc

	push	rbp
	.cfi_def_cfa_offset 16
	.cfi_offset rbp, -16
	mov	rbp, rsp
	.cfi_def_cfa_register rbp
	push	rbx
	sub	rsp, 24
	.cfi_offset rbx, -24
	mov	rbx, rdi
	lea	rdi, [rbp - 32]
	call	__ZNSt3__19to_stringEx
	test	byte ptr [rbp - 32], 1
	je	LBB96_1

	mov	rdi, qword ptr [rbp - 16]
	jmp	LBB96_3
LBB96_1:
	lea	rdi, [rbp - 31]
LBB96_3:
	call	_strdup
	mov	qword ptr [rbx], rax
	test	byte ptr [rbp - 32], 1
	je	LBB96_5

	mov	rdi, qword ptr [rbp - 16]
	call	__ZdlPv
LBB96_5:
	mov	rax, rbx
	add	rsp, 24
	pop	rbx
	pop	rbp
	ret
	.cfi_endproc
                                        
	.globl	__ZN6loguru10ec_to_textEy 
	.p2align	4, 0x90
__ZN6loguru10ec_to_textEy:              
	.cfi_startproc

	push	rbp
	.cfi_def_cfa_offset 16
	.cfi_offset rbp, -16
	mov	rbp, rsp
	.cfi_def_cfa_register rbp
	push	rbx
	sub	rsp, 24
	.cfi_offset rbx, -24
	mov	rbx, rdi
	lea	rdi, [rbp - 32]
	call	__ZNSt3__19to_stringEy
	test	byte ptr [rbp - 32], 1
	je	LBB97_1

	mov	rdi, qword ptr [rbp - 16]
	jmp	LBB97_3
LBB97_1:
	lea	rdi, [rbp - 31]
LBB97_3:
	call	_strdup
	mov	qword ptr [rbx], rax
	test	byte ptr [rbp - 32], 1
	je	LBB97_5

	mov	rdi, qword ptr [rbp - 16]
	call	__ZdlPv
LBB97_5:
	mov	rax, rbx
	add	rsp, 24
	pop	rbx
	pop	rbp
	ret
	.cfi_endproc
                                        
	.globl	__ZN6loguru10ec_to_textEf 
	.p2align	4, 0x90
__ZN6loguru10ec_to_textEf:              
	.cfi_startproc

	push	rbp
	.cfi_def_cfa_offset 16
	.cfi_offset rbp, -16
	mov	rbp, rsp
	.cfi_def_cfa_register rbp
	push	rbx
	sub	rsp, 24
	.cfi_offset rbx, -24
	mov	rbx, rdi
	lea	rdi, [rbp - 32]
	call	__ZNSt3__19to_stringEf
	test	byte ptr [rbp - 32], 1
	je	LBB98_1

	mov	rdi, qword ptr [rbp - 16]
	jmp	LBB98_3
LBB98_1:
	lea	rdi, [rbp - 31]
LBB98_3:
	call	_strdup
	mov	qword ptr [rbx], rax
	test	byte ptr [rbp - 32], 1
	je	LBB98_5

	mov	rdi, qword ptr [rbp - 16]
	call	__ZdlPv
LBB98_5:
	mov	rax, rbx
	add	rsp, 24
	pop	rbx
	pop	rbp
	ret
	.cfi_endproc
                                        
	.globl	__ZN6loguru10ec_to_textEd 
	.p2align	4, 0x90
__ZN6loguru10ec_to_textEd:              
	.cfi_startproc

	push	rbp
	.cfi_def_cfa_offset 16
	.cfi_offset rbp, -16
	mov	rbp, rsp
	.cfi_def_cfa_register rbp
	push	rbx
	sub	rsp, 24
	.cfi_offset rbx, -24
	mov	rbx, rdi
	lea	rdi, [rbp - 32]
	call	__ZNSt3__19to_stringEd
	test	byte ptr [rbp - 32], 1
	je	LBB99_1

	mov	rdi, qword ptr [rbp - 16]
	jmp	LBB99_3
LBB99_1:
	lea	rdi, [rbp - 31]
LBB99_3:
	call	_strdup
	mov	qword ptr [rbx], rax
	test	byte ptr [rbp - 32], 1
	je	LBB99_5

	mov	rdi, qword ptr [rbp - 16]
	call	__ZdlPv
LBB99_5:
	mov	rax, rbx
	add	rsp, 24
	pop	rbx
	pop	rbp
	ret
	.cfi_endproc
                                        
	.globl	__ZN6loguru10ec_to_textEe 
	.p2align	4, 0x90
__ZN6loguru10ec_to_textEe:              
	.cfi_startproc

	push	rbp
	.cfi_def_cfa_offset 16
	.cfi_offset rbp, -16
	mov	rbp, rsp
	.cfi_def_cfa_register rbp
	push	rbx
	sub	rsp, 40
	.cfi_offset rbx, -24
	mov	rbx, rdi
	fld	tbyte ptr [rbp + 16]
	fstp	tbyte ptr [rsp]
	lea	rdi, [rbp - 32]
	call	__ZNSt3__19to_stringEe
	test	byte ptr [rbp - 32], 1
	je	LBB100_1

	mov	rdi, qword ptr [rbp - 16]
	jmp	LBB100_3
LBB100_1:
	lea	rdi, [rbp - 31]
LBB100_3:
	call	_strdup
	mov	qword ptr [rbx], rax
	test	byte ptr [rbp - 32], 1
	je	LBB100_5

	mov	rdi, qword ptr [rbp - 16]
	call	__ZdlPv
LBB100_5:
	mov	rax, rbx
	add	rsp, 40
	pop	rbx
	pop	rbp
	ret
	.cfi_endproc
                                        
	.globl	__ZN6loguru10ec_to_textEPKNS_11EcEntryBaseE 
	.p2align	4, 0x90
__ZN6loguru10ec_to_textEPKNS_11EcEntryBaseE: 
	.cfi_startproc

	push	rbp
	.cfi_def_cfa_offset 16
	.cfi_offset rbp, -16
	mov	rbp, rsp
	.cfi_def_cfa_register rbp
	push	r15
	push	r14
	push	rbx
	push	rax
	.cfi_offset rbx, -40
	.cfi_offset r14, -32
	.cfi_offset r15, -24
	mov	r14, rdi
	lea	rdi, [rbp - 32]
	call	__ZN6loguru21get_error_context_forEPKNS_11EcEntryBaseE
	mov	r15, qword ptr [rbp - 32]
	mov	rdi, r15
	call	_strlen
	lea	rdi, [rax + 2]
	call	_malloc
	mov	rbx, rax
	mov	byte ptr [rax], 10
	lea	rdi, [rax + 1]
	mov	rsi, r15
	call	_strcpy
	mov	qword ptr [r14], rbx
	mov	rdi, r15
	call	_free
	mov	rax, r14
	add	rsp, 8
	pop	rbx
	pop	r14
	pop	r15
	pop	rbp
	ret
	.cfi_endproc
                                        
	.globl	__ZN6loguru15write_to_stderrEPKcm 
	.p2align	4, 0x90
__ZN6loguru15write_to_stderrEPKcm:      
	.cfi_startproc

	push	rbp
	.cfi_def_cfa_offset 16
	.cfi_offset rbp, -16
	mov	rbp, rsp
	.cfi_def_cfa_register rbp
	mov	rdx, rsi
	mov	rsi, rdi
	mov	edi, 2
	pop	rbp
	jmp	_write                  
	.cfi_endproc
                                        
	.globl	__ZN6loguru15write_to_stderrEPKc 
	.p2align	4, 0x90
__ZN6loguru15write_to_stderrEPKc:       
	.cfi_startproc

	push	rbp
	.cfi_def_cfa_offset 16
	.cfi_offset rbp, -16
	mov	rbp, rsp
	.cfi_def_cfa_register rbp
	push	rbx
	push	rax
	.cfi_offset rbx, -24
	mov	rbx, rdi
	call	_strlen
	mov	edi, 2
	mov	rsi, rbx
	mov	rdx, rax
	add	rsp, 8
	pop	rbx
	pop	rbp
	jmp	_write                  
	.cfi_endproc
                                        
	.globl	__ZN6loguru27call_default_signal_handlerEi 
	.p2align	4, 0x90
__ZN6loguru27call_default_signal_handlerEi: 
	.cfi_startproc

	push	rbp
	.cfi_def_cfa_offset 16
	.cfi_offset rbp, -16
	mov	rbp, rsp
	.cfi_def_cfa_register rbp
	push	rbx
	sub	rsp, 24
	.cfi_offset rbx, -24
	mov	ebx, edi
	xorps	xmm0, xmm0
	movaps	xmmword ptr [rbp - 32], xmm0
	lea	rsi, [rbp - 32]
	xor	edx, edx
	call	_sigaction
	call	_getpid
	mov	edi, eax
	mov	esi, ebx
	call	_kill
	add	rsp, 24
	pop	rbx
	pop	rbp
	ret
	.cfi_endproc
                                        
	.globl	__ZN6loguru14signal_handlerEiP9__siginfoPv 
	.p2align	4, 0x90
__ZN6loguru14signal_handlerEiP9__siginfoPv: 
Lfunc_begin26:
	.cfi_startproc
	.cfi_personality 155, ___gxx_personality_v0
	.cfi_lsda 16, Lexception26

	push	rbp
	.cfi_def_cfa_offset 16
	.cfi_offset rbp, -16
	mov	rbp, rsp
	.cfi_def_cfa_register rbp
	push	r15
	push	r14
	push	r13
	push	r12
	push	rbx
	sub	rsp, 168
	.cfi_offset rbx, -56
	.cfi_offset r12, -48
	.cfi_offset r13, -40
	.cfi_offset r14, -32
	.cfi_offset r15, -24
	mov	r12d, edi
	mov	rax, qword ptr [rip + ___stack_chk_guard@GOTPCREL]
	mov	rax, qword ptr [rax]
	mov	qword ptr [rbp - 48], rax
	cmp	edi, 6
	lea	rax, [rip + L_.str.123]
	lea	rcx, [rip + L_.str.122]
	cmove	rcx, rax
	cmp	edi, 10
	lea	rax, [rip + L_.str.124]
	cmovne	rax, rcx
	cmp	edi, 8
	lea	rcx, [rip + L_.str.125]
	cmovne	rcx, rax
	cmp	edi, 4
	lea	rax, [rip + L_.str.126]
	cmovne	rax, rcx
	cmp	edi, 2
	lea	rcx, [rip + L_.str.127]
	cmovne	rcx, rax
	cmp	edi, 11
	lea	rax, [rip + L_.str.128]
	cmovne	rax, rcx
	cmp	edi, 15
	lea	r14, [rip + L_.str.129]
	cmovne	r14, rax
	cmp	byte ptr [rip + __ZN6loguru18g_colorlogtostderrE], 0
	je	LBB105_3

	cmp	byte ptr [rip + __ZN6loguruL20s_terminal_has_colorE], 0
	je	LBB105_3

	lea	rsi, [rip + L_.str.20]
	mov	edx, 4
	mov	edi, 2
	call	_write
	movzx	edx, byte ptr [rip + __ZN6loguruL20s_terminal_has_colorE]
	test	rdx, rdx
	lea	rbx, [rip + L_.str.8]
	lea	rsi, [rip + L_.str.18]
	cmove	rsi, rbx
	shl	rdx, 2
	mov	edi, 2
	call	_write
	movzx	eax, byte ptr [rip + __ZN6loguruL20s_terminal_has_colorE]
	test	rax, rax
	lea	rsi, [rip + L_.str.16]
	cmove	rsi, rbx
	lea	rdx, [rax + 4*rax]
	mov	edi, 2
	call	_write
LBB105_3:
	lea	r15, [rip + L_.str.108]
	mov	edx, 1
	mov	edi, 2
	mov	rsi, r15
	call	_write
	lea	rsi, [rip + L_.str.130]
	mov	edx, 24
	mov	edi, 2
	call	_write
	mov	rdi, r14
	call	_strlen
	mov	edi, 2
	mov	rsi, r14
	mov	rdx, rax
	call	_write
	mov	edx, 1
	mov	edi, 2
	mov	rsi, r15
	call	_write
	cmp	byte ptr [rip + __ZN6loguru18g_colorlogtostderrE], 0
	je	LBB105_6

	cmp	byte ptr [rip + __ZN6loguruL20s_terminal_has_colorE], 0
	je	LBB105_6

	lea	rsi, [rip + L_.str.20]
	mov	edx, 4
	mov	edi, 2
	call	_write
LBB105_6:
	cmp	byte ptr [rip + __ZN6loguruL16s_signal_optionsE], 0
	je	LBB105_22

	lea	rdi, [rip + __ZN6loguruL7s_mutexE]
	call	__ZNSt3__115recursive_mutex4lockEv
	mov	r13, qword ptr [rip + ___stderrp@GOTPCREL]
	mov	rdi, qword ptr [r13]
	call	_fflush
	mov	rbx, qword ptr [rip + __ZN6loguruL11s_callbacksE]
	mov	r15, qword ptr [rip + __ZN6loguruL11s_callbacksE+8]
	cmp	rbx, r15
	jne	LBB105_8
LBB105_11:
	mov	byte ptr [rip + __ZN6loguruL16s_needs_flushingE], 0
	lea	rdi, [rip + __ZN6loguruL7s_mutexE]
	call	__ZNSt3__115recursive_mutex6unlockEv
	lea	rbx, [rip + L_.str.8]
	lea	r15, [rbp - 144]
	mov	rdi, r15
	mov	esi, -3
	mov	rdx, rbx
	xor	ecx, ecx
	call	__ZN6loguruL14print_preambleEPcmiPKcj
	mov	dword ptr [rbp - 200], -3
	mov	qword ptr [rbp - 192], rbx
	mov	dword ptr [rbp - 184], 0
	mov	qword ptr [rbp - 176], r15
	mov	qword ptr [rbp - 168], rbx
	lea	rax, [rip + L_.str.131]
	mov	qword ptr [rbp - 160], rax
	mov	qword ptr [rbp - 152], r14
Ltmp355:
	lea	rsi, [rbp - 200]
	mov	edi, 1
	xor	edx, edx
	xor	ecx, ecx
	call	__ZN6loguruL11log_messageEiRNS_7MessageEbb
Ltmp356:
LBB105_17:
	lea	rdi, [rip + __ZN6loguruL7s_mutexE]
	call	__ZNSt3__115recursive_mutex4lockEv
	mov	rdi, qword ptr [r13]
	call	_fflush
	mov	rbx, qword ptr [rip + __ZN6loguruL11s_callbacksE]
	mov	r14, qword ptr [rip + __ZN6loguruL11s_callbacksE+8]
	cmp	rbx, r14
	jne	LBB105_18
LBB105_21:
	mov	byte ptr [rip + __ZN6loguruL16s_needs_flushingE], 0
	lea	rdi, [rip + __ZN6loguruL7s_mutexE]
	call	__ZNSt3__115recursive_mutex6unlockEv
LBB105_22:
	xorps	xmm0, xmm0
	movaps	xmmword ptr [rbp - 144], xmm0
	lea	rsi, [rbp - 144]
	mov	edi, r12d
	xor	edx, edx
	call	_sigaction
	call	_getpid
	mov	edi, eax
	mov	esi, r12d
	call	_kill
	mov	rax, qword ptr [rip + ___stack_chk_guard@GOTPCREL]
	mov	rax, qword ptr [rax]
	cmp	rax, qword ptr [rbp - 48]
	jne	LBB105_23

	add	rsp, 168
	pop	rbx
	pop	r12
	pop	r13
	pop	r14
	pop	r15
	pop	rbp
	ret
	.p2align	4, 0x90
LBB105_10:                              
	add	rbx, 72
	cmp	r15, rbx
	je	LBB105_11
LBB105_8:                               
	mov	rax, qword ptr [rbx + 56]
	test	rax, rax
	je	LBB105_10

	mov	rdi, qword ptr [rbx + 32]
Ltmp352:
	call	rax
Ltmp353:
	jmp	LBB105_10
	.p2align	4, 0x90
LBB105_20:                              
	add	rbx, 72
	cmp	r14, rbx
	je	LBB105_21
LBB105_18:                              
	mov	rax, qword ptr [rbx + 56]
	test	rax, rax
	je	LBB105_20

	mov	rdi, qword ptr [rbx + 32]
Ltmp364:
	call	rax
Ltmp365:
	jmp	LBB105_20
LBB105_23:
	call	___stack_chk_fail
LBB105_15:
Ltmp357:
	mov	rdi, rax
	call	___cxa_begin_catch
Ltmp358:
	lea	rsi, [rip + L_.str.132]
	mov	edx, 55
	mov	edi, 2
	call	_write
Ltmp359:

	call	___cxa_end_catch
	jmp	LBB105_17
LBB105_24:
Ltmp360:
	mov	rbx, rax
Ltmp361:
	call	___cxa_end_catch
Ltmp362:
	jmp	LBB105_14
LBB105_26:
Ltmp363:
	mov	rdi, rax
	call	___clang_call_terminate
LBB105_27:
Ltmp366:
	jmp	LBB105_13
LBB105_12:
Ltmp354:
LBB105_13:
	mov	rbx, rax
	lea	rdi, [rip + __ZN6loguruL7s_mutexE]
	call	__ZNSt3__115recursive_mutex6unlockEv
LBB105_14:
	mov	rdi, rbx
	call	__Unwind_Resume
	ud2
Lfunc_end26:
	.cfi_endproc
	.section	__TEXT,__gcc_except_tab
	.p2align	2
GCC_except_table105:
Lexception26:
	.byte	255                     
	.byte	155                     
	.uleb128 Lttbase3-Lttbaseref3
Lttbaseref3:
	.byte	1                       
	.uleb128 Lcst_end26-Lcst_begin26
Lcst_begin26:
	.uleb128 Lfunc_begin26-Lfunc_begin26 
	.uleb128 Ltmp355-Lfunc_begin26  
	.byte	0                       
	.byte	0                       
	.uleb128 Ltmp355-Lfunc_begin26  
	.uleb128 Ltmp356-Ltmp355        
	.uleb128 Ltmp357-Lfunc_begin26  
	.byte	1                       
	.uleb128 Ltmp356-Lfunc_begin26  
	.uleb128 Ltmp352-Ltmp356        
	.byte	0                       
	.byte	0                       
	.uleb128 Ltmp352-Lfunc_begin26  
	.uleb128 Ltmp353-Ltmp352        
	.uleb128 Ltmp354-Lfunc_begin26  
	.byte	0                       
	.uleb128 Ltmp364-Lfunc_begin26  
	.uleb128 Ltmp365-Ltmp364        
	.uleb128 Ltmp366-Lfunc_begin26  
	.byte	0                       
	.uleb128 Ltmp365-Lfunc_begin26  
	.uleb128 Ltmp358-Ltmp365        
	.byte	0                       
	.byte	0                       
	.uleb128 Ltmp358-Lfunc_begin26  
	.uleb128 Ltmp359-Ltmp358        
	.uleb128 Ltmp360-Lfunc_begin26  
	.byte	0                       
	.uleb128 Ltmp359-Lfunc_begin26  
	.uleb128 Ltmp361-Ltmp359        
	.byte	0                       
	.byte	0                       
	.uleb128 Ltmp361-Lfunc_begin26  
	.uleb128 Ltmp362-Ltmp361        
	.uleb128 Ltmp363-Lfunc_begin26  
	.byte	1                       
	.uleb128 Ltmp362-Lfunc_begin26  
	.uleb128 Lfunc_end26-Ltmp362    
	.byte	0                       
	.byte	0                       
Lcst_end26:
	.byte	1                       
                                        
	.byte	0                       
	.p2align	2
                                        
	.long	0                       
Lttbase3:
	.p2align	2
                                        
	.section	__TEXT,__text,regular,pure_instructions
	.p2align	4, 0x90         
__ZN6loguruL15write_hex_digitERNSt3__112basic_stringIcNS0_11char_traitsIcEENS0_9allocatorIcEEEEj: 
Lfunc_begin27:
	.cfi_startproc
	.cfi_personality 155, ___gxx_personality_v0
	.cfi_lsda 16, Lexception27

	push	rbp
	.cfi_def_cfa_offset 16
	.cfi_offset rbp, -16
	mov	rbp, rsp
	.cfi_def_cfa_register rbp
	push	r15
	push	r14
	push	r13
	push	r12
	push	rbx
	sub	rsp, 40
	.cfi_offset rbx, -56
	.cfi_offset r12, -48
	.cfi_offset r13, -40
	.cfi_offset r14, -32
	.cfi_offset r15, -24
	mov	edx, edi
	cmp	edi, 16
	jae	LBB106_1

	cmp	edx, 10
	mov	eax, 48
	mov	ecx, 55
	cmovb	ecx, eax
	add	cl, dl
	movsx	esi, cl
	lea	rdi, [rip + __ZN6loguruL11s_argumentsE]
	add	rsp, 40
	pop	rbx
	pop	r12
	pop	r13
	pop	r14
	pop	r15
	pop	rbp
	jmp	__ZNSt3__112basic_stringIcNS_11char_traitsIcEENS_9allocatorIcEEE9push_backEc 
LBB106_1:
	lea	rbx, [rip + L_.str.161]
	lea	rdi, [rbp - 48]
	mov	rsi, rbx
	xor	eax, eax
	call	__ZN6loguru10textprintfEPKcz
Ltmp367:
	lea	rdi, [rbp - 64]
	mov	rsi, rbx
	mov	edx, 16
	xor	eax, eax
	call	__ZN6loguru10textprintfEPKcz
Ltmp368:

	mov	r14, qword ptr [rbp - 48]
	mov	r12, qword ptr [rbp - 64]
Ltmp370:
	mov	qword ptr [rsp + 8], r12
	lea	rcx, [rip + L_.str.153]
	mov	qword ptr [rsp], rcx
	lea	rsi, [rip + L_.str.23]
	lea	rdx, [rip + L_.str.152]
	lea	r8, [rip + L_.str.154]
	lea	rdi, [rbp - 56]
	mov	r9, r14
	xor	eax, eax
	call	__ZN6loguru10textprintfEPKcz
Ltmp371:

	mov	edi, 1
	mov	esi, 1
	call	_calloc
	mov	rbx, rax
	mov	r13, qword ptr [rbp - 56]
Ltmp373:
	lea	rdx, [rip + L_.str.28]
	lea	r8, [rip + L_.str.29]
	xor	edi, edi
	mov	rsi, r13
	mov	ecx, 534
	mov	r9, rax
	xor	eax, eax
	call	__ZN6loguru13log_and_abortEiPKcS1_jS1_z
Ltmp374:

	ud2
LBB106_7:
Ltmp375:
	mov	r15, rax
	mov	rdi, rbx
	call	_free
	mov	rdi, r13
	call	_free
	jmp	LBB106_8
LBB106_6:
Ltmp372:
	mov	r15, rax
LBB106_8:
	mov	rdi, r12
	call	_free
	jmp	LBB106_9
LBB106_5:
Ltmp369:
	mov	r15, rax
	mov	r14, qword ptr [rbp - 48]
LBB106_9:
	mov	rdi, r14
	call	_free
	mov	rdi, r15
	call	__Unwind_Resume
	ud2
Lfunc_end27:
	.cfi_endproc
	.section	__TEXT,__gcc_except_tab
	.p2align	2
GCC_except_table106:
Lexception27:
	.byte	255                     
	.byte	255                     
	.byte	1                       
	.uleb128 Lcst_end27-Lcst_begin27
Lcst_begin27:
	.uleb128 Lfunc_begin27-Lfunc_begin27 
	.uleb128 Ltmp367-Lfunc_begin27  
	.byte	0                       
	.byte	0                       
	.uleb128 Ltmp367-Lfunc_begin27  
	.uleb128 Ltmp368-Ltmp367        
	.uleb128 Ltmp369-Lfunc_begin27  
	.byte	0                       
	.uleb128 Ltmp370-Lfunc_begin27  
	.uleb128 Ltmp371-Ltmp370        
	.uleb128 Ltmp372-Lfunc_begin27  
	.byte	0                       
	.uleb128 Ltmp373-Lfunc_begin27  
	.uleb128 Ltmp374-Ltmp373        
	.uleb128 Ltmp375-Lfunc_begin27  
	.byte	0                       
	.uleb128 Ltmp374-Lfunc_begin27  
	.uleb128 Lfunc_end27-Ltmp374    
	.byte	0                       
	.byte	0                       
Lcst_end27:
	.p2align	2
                                        
	.section	__TEXT,__text,regular,pure_instructions
	.p2align	4, 0x90         
__ZNSt3__1L14__thread_proxyINS_5tupleIJNS_10unique_ptrINS_15__thread_structENS_14default_deleteIS3_EEEEZN6loguruL11log_messageEiRNS7_7MessageEbbE3$_4EEEEEPvSC_: 
Lfunc_begin28:
	.cfi_startproc
	.cfi_personality 155, ___gxx_personality_v0
	.cfi_lsda 16, Lexception28

	push	rbp
	.cfi_def_cfa_offset 16
	.cfi_offset rbp, -16
	mov	rbp, rsp
	.cfi_def_cfa_register rbp
	push	r15
	push	r14
	push	rbx
	push	rax
	.cfi_offset rbx, -40
	.cfi_offset r14, -32
	.cfi_offset r15, -24
	mov	rbx, rdi
Ltmp376:
	call	__ZNSt3__119__thread_local_dataEv
Ltmp377:

	mov	rsi, qword ptr [rbx]
	mov	qword ptr [rbx], 0
	mov	rdi, qword ptr [rax]
Ltmp379:
	call	_pthread_setspecific
Ltmp380:

Ltmp381:
	call	__ZNSt3__1L8__invokeIZN6loguruL11log_messageEiRNS1_7MessageEbbE3$_4JEEEDTclclsr3std3__1E7forwardIT_Efp_Espclsr3std3__1E7forwardIT0_Efp0_EEEOS5_DpOS6_
Ltmp382:

	ud2
LBB107_5:
Ltmp378:
	mov	r14, rax
	test	rbx, rbx
	jne	LBB107_6
	jmp	LBB107_9
LBB107_4:
Ltmp383:
	mov	r14, rax
LBB107_6:
	mov	r15, qword ptr [rbx]
	mov	qword ptr [rbx], 0
	test	r15, r15
	je	LBB107_8

	mov	rdi, r15
	call	__ZNSt3__115__thread_structD1Ev
	mov	rdi, r15
	call	__ZdlPv
LBB107_8:
	mov	rdi, rbx
	call	__ZdlPv
LBB107_9:
	mov	rdi, r14
	call	__Unwind_Resume
	ud2
Lfunc_end28:
	.cfi_endproc
	.section	__TEXT,__gcc_except_tab
	.p2align	2
GCC_except_table107:
Lexception28:
	.byte	255                     
	.byte	255                     
	.byte	1                       
	.uleb128 Lcst_end28-Lcst_begin28
Lcst_begin28:
	.uleb128 Ltmp376-Lfunc_begin28  
	.uleb128 Ltmp377-Ltmp376        
	.uleb128 Ltmp378-Lfunc_begin28  
	.byte	0                       
	.uleb128 Ltmp379-Lfunc_begin28  
	.uleb128 Ltmp382-Ltmp379        
	.uleb128 Ltmp383-Lfunc_begin28  
	.byte	0                       
	.uleb128 Ltmp382-Lfunc_begin28  
	.uleb128 Lfunc_end28-Ltmp382    
	.byte	0                       
	.byte	0                       
Lcst_end28:
	.p2align	2
                                        
	.section	__TEXT,__text,regular,pure_instructions
	.p2align	4, 0x90         
__ZNSt3__1L8__invokeIZN6loguruL11log_messageEiRNS1_7MessageEbbE3$_4JEEEDTclclsr3std3__1E7forwardIT_Efp_Espclsr3std3__1E7forwardIT0_Efp0_EEEOS5_DpOS6_: 
	.cfi_startproc

	push	rbp
	.cfi_def_cfa_offset 16
	.cfi_offset rbp, -16
	mov	rbp, rsp
	.cfi_def_cfa_register rbp
	call	__ZZN6loguruL11log_messageEiRNS_7MessageEbbENK3$_4clEv
	.cfi_endproc
                                        
	.p2align	4, 0x90         
__ZZN6loguruL11log_messageEiRNS_7MessageEbbENK3$_4clEv: 
Lfunc_begin29:
	.cfi_startproc
	.cfi_personality 155, ___gxx_personality_v0
	.cfi_lsda 16, Lexception29

	push	rbp
	.cfi_def_cfa_offset 16
	.cfi_offset rbp, -16
	mov	rbp, rsp
	.cfi_def_cfa_register rbp
	push	r15
	push	r14
	push	r13
	push	r12
	push	rbx
	push	rax
	.cfi_offset rbx, -56
	.cfi_offset r12, -48
	.cfi_offset r13, -40
	.cfi_offset r14, -32
	.cfi_offset r15, -24
	lea	r12, [rip + __ZN6loguruL7s_mutexE]
	mov	r15, qword ptr [rip + ___stderrp@GOTPCREL]
	lea	r14, [rbp - 48]
	.p2align	4, 0x90
LBB109_1:                               
                                        
	cmp	byte ptr [rip + __ZN6loguruL16s_needs_flushingE], 1
	jne	LBB109_7

	mov	rdi, r12
	call	__ZNSt3__115recursive_mutex4lockEv
	mov	rdi, qword ptr [r15]
	call	_fflush
	mov	rbx, qword ptr [rip + __ZN6loguruL11s_callbacksE]
	mov	r13, qword ptr [rip + __ZN6loguruL11s_callbacksE+8]
	cmp	rbx, r13
	je	LBB109_6
LBB109_3:                               
                                        
	mov	rax, qword ptr [rbx + 56]
	test	rax, rax
	je	LBB109_5

	mov	rdi, qword ptr [rbx + 32]
Ltmp384:
	call	rax
Ltmp385:
LBB109_5:                               
	add	rbx, 72
	cmp	r13, rbx
	jne	LBB109_3
LBB109_6:                               
	mov	byte ptr [rip + __ZN6loguruL16s_needs_flushingE], 0
	mov	rdi, r12
	call	__ZNSt3__115recursive_mutex6unlockEv
LBB109_7:                               
	mov	eax, dword ptr [rip + __ZN6loguru19g_flush_interval_msE]
	test	rax, rax
	je	LBB109_1

	imul	rax, rax, 1000000
	mov	qword ptr [rbp - 48], rax
	mov	rdi, r14
	call	__ZNSt3__111this_thread9sleep_forERKNS_6chrono8durationIxNS_5ratioILl1ELl1000000000EEEEE
	jmp	LBB109_1
LBB109_9:
Ltmp386:
	mov	rbx, rax
	lea	rdi, [rip + __ZN6loguruL7s_mutexE]
	call	__ZNSt3__115recursive_mutex6unlockEv
	mov	rdi, rbx
	call	__Unwind_Resume
	ud2
Lfunc_end29:
	.cfi_endproc
	.section	__TEXT,__gcc_except_tab
	.p2align	2
GCC_except_table109:
Lexception29:
	.byte	255                     
	.byte	255                     
	.byte	1                       
	.uleb128 Lcst_end29-Lcst_begin29
Lcst_begin29:
	.uleb128 Lfunc_begin29-Lfunc_begin29 
	.uleb128 Ltmp384-Lfunc_begin29  
	.byte	0                       
	.byte	0                       
	.uleb128 Ltmp384-Lfunc_begin29  
	.uleb128 Ltmp385-Ltmp384        
	.uleb128 Ltmp386-Lfunc_begin29  
	.byte	0                       
	.uleb128 Ltmp385-Lfunc_begin29  
	.uleb128 Lfunc_end29-Ltmp385    
	.byte	0                       
	.byte	0                       
Lcst_end29:
	.p2align	2
                                        
	.section	__TEXT,__text,regular,pure_instructions
	.p2align	4, 0x90         
__ZNSt3__1L20__throw_length_errorEPKc:  
Lfunc_begin30:
	.cfi_startproc
	.cfi_personality 155, ___gxx_personality_v0
	.cfi_lsda 16, Lexception30

	push	rbp
	.cfi_def_cfa_offset 16
	.cfi_offset rbp, -16
	mov	rbp, rsp
	.cfi_def_cfa_register rbp
	push	r14
	push	rbx
	.cfi_offset rbx, -32
	.cfi_offset r14, -24
	mov	edi, 16
	call	___cxa_allocate_exception
	mov	rbx, rax
Ltmp387:
	mov	rdi, rax
	call	__ZNSt12length_errorC1EPKc
Ltmp388:

	mov	rsi, qword ptr [rip + __ZTISt12length_error@GOTPCREL]
	mov	rdx, qword ptr [rip + __ZNSt12length_errorD1Ev@GOTPCREL]
	mov	rdi, rbx
	call	___cxa_throw
LBB110_2:
Ltmp389:
	mov	r14, rax
	mov	rdi, rbx
	call	___cxa_free_exception
	mov	rdi, r14
	call	__Unwind_Resume
	ud2
Lfunc_end30:
	.cfi_endproc
	.section	__TEXT,__gcc_except_tab
	.p2align	2
GCC_except_table110:
Lexception30:
	.byte	255                     
	.byte	255                     
	.byte	1                       
	.uleb128 Lcst_end30-Lcst_begin30
Lcst_begin30:
	.uleb128 Lfunc_begin30-Lfunc_begin30 
	.uleb128 Ltmp387-Lfunc_begin30  
	.byte	0                       
	.byte	0                       
	.uleb128 Ltmp387-Lfunc_begin30  
	.uleb128 Ltmp388-Ltmp387        
	.uleb128 Ltmp389-Lfunc_begin30  
	.byte	0                       
	.uleb128 Ltmp388-Lfunc_begin30  
	.uleb128 Lfunc_end30-Ltmp388    
	.byte	0                       
	.byte	0                       
Lcst_end30:
	.p2align	2
                                        
	.section	__TEXT,__text,regular,pure_instructions
	.p2align	4, 0x90         
__ZNSt12length_errorC1EPKc:             
	.cfi_startproc

	push	rbp
	.cfi_def_cfa_offset 16
	.cfi_offset rbp, -16
	mov	rbp, rsp
	.cfi_def_cfa_register rbp
	push	rbx
	push	rax
	.cfi_offset rbx, -24
	mov	rbx, rdi
	lea	rsi, [rip + L_.str.197]
	call	__ZNSt11logic_errorC2EPKc
	mov	rax, qword ptr [rip + __ZTVSt12length_error@GOTPCREL]
	add	rax, 16
	mov	qword ptr [rbx], rax
	add	rsp, 8
	pop	rbx
	pop	rbp
	ret
	.cfi_endproc
                                        
	.globl	__ZNSt3__111basic_regexIcNS_12regex_traitsIcEEE7__parseIPKcEET_S7_S7_ 
	.weak_def_can_be_hidden	__ZNSt3__111basic_regexIcNS_12regex_traitsIcEEE7__parseIPKcEET_S7_S7_
	.p2align	4, 0x90
__ZNSt3__111basic_regexIcNS_12regex_traitsIcEEE7__parseIPKcEET_S7_S7_: 
Lfunc_begin31:
	.cfi_startproc
	.cfi_personality 155, ___gxx_personality_v0
	.cfi_lsda 16, Lexception31

	push	rbp
	.cfi_def_cfa_offset 16
	.cfi_offset rbp, -16
	mov	rbp, rsp
	.cfi_def_cfa_register rbp
	push	r15
	push	r14
	push	r13
	push	r12
	push	rbx
	push	rax
	.cfi_offset rbx, -56
	.cfi_offset r12, -48
	.cfi_offset r13, -40
	.cfi_offset r14, -32
	.cfi_offset r15, -24
	mov	qword ptr [rbp - 48], rdx 
	mov	r15, rsi
	mov	r13, rdi
	mov	edi, 8
	call	__Znwm
	mov	r12, rax
	mov	r14, qword ptr [rip + __ZTVNSt3__111__end_stateIcEE@GOTPCREL]
	add	r14, 16
	mov	qword ptr [rax], r14
Ltmp390:
	mov	edi, 16
	call	__Znwm
Ltmp391:

	mov	rbx, rax
	mov	qword ptr [rax + 8], r12
	mov	rax, qword ptr [rip + __ZTVNSt3__113__empty_stateIcEE@GOTPCREL]
	add	rax, 16
	mov	qword ptr [rbx], rax
Ltmp393:
	mov	edi, 32
	call	__Znwm
Ltmp394:

	mov	qword ptr [rax + 16], 0
	mov	qword ptr [rax + 8], 0
	mov	rcx, qword ptr [rip + __ZTVNSt3__120__shared_ptr_pointerIPNS_13__empty_stateIcEENS_14default_deleteIS2_EENS_9allocatorIS2_EEEE@GOTPCREL]
	add	rcx, 16
	mov	qword ptr [rax], rcx
	mov	qword ptr [rax + 24], rbx
	mov	qword ptr [r13 + 40], rbx
	mov	rbx, qword ptr [r13 + 48]
	mov	qword ptr [r13 + 48], rax
	test	rbx, rbx
	je	LBB112_5

	mov	rax, -1
	lock		xadd	qword ptr [rbx + 8], rax
	test	rax, rax
	jne	LBB112_5

	mov	rax, qword ptr [rbx]
	mov	rdi, rbx
	call	qword ptr [rax + 16]
	mov	rdi, rbx
	call	__ZNSt3__119__shared_weak_count14__release_weakEv
LBB112_5:
	mov	rax, qword ptr [r13 + 40]
	mov	qword ptr [r13 + 56], rax
	mov	eax, 496
	and	eax, dword ptr [r13 + 24]
	cmp	eax, 63
	jg	LBB112_10

	test	eax, eax
	je	LBB112_16

	cmp	eax, 16
	jne	LBB112_8

	mov	rdi, r13
	mov	rsi, r15
	mov	rdx, qword ptr [rbp - 48] 
	add	rsp, 8
	pop	rbx
	pop	r12
	pop	r13
	pop	r14
	pop	r15
	pop	rbp
	jmp	__ZNSt3__111basic_regexIcNS_12regex_traitsIcEEE21__parse_basic_reg_expIPKcEET_S7_S7_ 
LBB112_10:
	cmp	eax, 64
	je	LBB112_9

	cmp	eax, 128
	jne	LBB112_12

	mov	rdi, r13
	mov	rsi, r15
	mov	rdx, qword ptr [rbp - 48] 
	add	rsp, 8
	pop	rbx
	pop	r12
	pop	r13
	pop	r14
	pop	r15
	pop	rbp
	jmp	__ZNSt3__111basic_regexIcNS_12regex_traitsIcEEE12__parse_grepIPKcEET_S7_S7_ 
LBB112_16:
	mov	rdi, r13
	mov	rsi, r15
	mov	rdx, qword ptr [rbp - 48] 
	add	rsp, 8
	pop	rbx
	pop	r12
	pop	r13
	pop	r14
	pop	r15
	pop	rbp
	jmp	__ZNSt3__111basic_regexIcNS_12regex_traitsIcEEE16__parse_ecma_expIPKcEET_S7_S7_ 
LBB112_8:
	cmp	eax, 32
	jne	LBB112_19
LBB112_9:
	mov	rdi, r13
	mov	rsi, r15
	mov	rdx, qword ptr [rbp - 48] 
	add	rsp, 8
	pop	rbx
	pop	r12
	pop	r13
	pop	r14
	pop	r15
	pop	rbp
	jmp	__ZNSt3__111basic_regexIcNS_12regex_traitsIcEEE24__parse_extended_reg_expIPKcEET_S7_S7_ 
LBB112_12:
	cmp	eax, 256
	jne	LBB112_19

	mov	rdi, r13
	mov	rsi, r15
	mov	rdx, qword ptr [rbp - 48] 
	add	rsp, 8
	pop	rbx
	pop	r12
	pop	r13
	pop	r14
	pop	r15
	pop	rbp
	jmp	__ZNSt3__111basic_regexIcNS_12regex_traitsIcEEE13__parse_egrepIPKcEET_S7_S7_ 
LBB112_19:
	call	__ZNSt3__1L19__throw_regex_errorILNS_15regex_constants10error_typeE14EEEvv
LBB112_20:
Ltmp395:
	mov	r15, rax
	mov	rax, qword ptr [rip + __ZTVNSt3__116__owns_one_stateIcEE@GOTPCREL]
	add	rax, 16
	mov	qword ptr [rbx], rax
	mov	rdi, r12
	call	__ZdlPv
	mov	rdi, rbx
	call	__ZdlPv
	mov	r14, qword ptr [r12]
	jmp	LBB112_15
LBB112_14:
Ltmp392:
	mov	r15, rax
LBB112_15:
	mov	rdi, r12
	call	qword ptr [r14 + 8]
	mov	rdi, r15
	call	__Unwind_Resume
	ud2
Lfunc_end31:
	.cfi_endproc
	.section	__TEXT,__gcc_except_tab
	.p2align	2
GCC_except_table112:
Lexception31:
	.byte	255                     
	.byte	255                     
	.byte	1                       
	.uleb128 Lcst_end31-Lcst_begin31
Lcst_begin31:
	.uleb128 Lfunc_begin31-Lfunc_begin31 
	.uleb128 Ltmp390-Lfunc_begin31  
	.byte	0                       
	.byte	0                       
	.uleb128 Ltmp390-Lfunc_begin31  
	.uleb128 Ltmp391-Ltmp390        
	.uleb128 Ltmp392-Lfunc_begin31  
	.byte	0                       
	.uleb128 Ltmp393-Lfunc_begin31  
	.uleb128 Ltmp394-Ltmp393        
	.uleb128 Ltmp395-Lfunc_begin31  
	.byte	0                       
	.uleb128 Ltmp394-Lfunc_begin31  
	.uleb128 Lfunc_end31-Ltmp394    
	.byte	0                       
	.byte	0                       
Lcst_end31:
	.p2align	2
                                        
	.section	__TEXT,__text,regular,pure_instructions
	.p2align	4, 0x90         
__ZNSt3__1L19__throw_regex_errorILNS_15regex_constants10error_typeE17EEEvv: 
Lfunc_begin32:
	.cfi_startproc
	.cfi_personality 155, ___gxx_personality_v0
	.cfi_lsda 16, Lexception32

	push	rbp
	.cfi_def_cfa_offset 16
	.cfi_offset rbp, -16
	mov	rbp, rsp
	.cfi_def_cfa_register rbp
	push	r14
	push	rbx
	.cfi_offset rbx, -32
	.cfi_offset r14, -24
	mov	edi, 24
	call	___cxa_allocate_exception
	mov	rbx, rax
Ltmp396:
	mov	rdi, rax
	mov	esi, 17
	call	__ZNSt3__111regex_errorC1ENS_15regex_constants10error_typeE
Ltmp397:

	mov	rsi, qword ptr [rip + __ZTINSt3__111regex_errorE@GOTPCREL]
	mov	rdx, qword ptr [rip + __ZNSt3__111regex_errorD1Ev@GOTPCREL]
	mov	rdi, rbx
	call	___cxa_throw
LBB113_2:
Ltmp398:
	mov	r14, rax
	mov	rdi, rbx
	call	___cxa_free_exception
	mov	rdi, r14
	call	__Unwind_Resume
	ud2
Lfunc_end32:
	.cfi_endproc
	.section	__TEXT,__gcc_except_tab
	.p2align	2
GCC_except_table113:
Lexception32:
	.byte	255                     
	.byte	255                     
	.byte	1                       
	.uleb128 Lcst_end32-Lcst_begin32
Lcst_begin32:
	.uleb128 Lfunc_begin32-Lfunc_begin32 
	.uleb128 Ltmp396-Lfunc_begin32  
	.byte	0                       
	.byte	0                       
	.uleb128 Ltmp396-Lfunc_begin32  
	.uleb128 Ltmp397-Ltmp396        
	.uleb128 Ltmp398-Lfunc_begin32  
	.byte	0                       
	.uleb128 Ltmp397-Lfunc_begin32  
	.uleb128 Lfunc_end32-Ltmp397    
	.byte	0                       
	.byte	0                       
Lcst_end32:
	.p2align	2
                                        
	.section	__TEXT,__text,regular,pure_instructions
	.globl	__ZNSt3__111basic_regexIcNS_12regex_traitsIcEEE16__parse_ecma_expIPKcEET_S7_S7_ 
	.weak_def_can_be_hidden	__ZNSt3__111basic_regexIcNS_12regex_traitsIcEEE16__parse_ecma_expIPKcEET_S7_S7_
	.p2align	4, 0x90
__ZNSt3__111basic_regexIcNS_12regex_traitsIcEEE16__parse_ecma_expIPKcEET_S7_S7_: 
	.cfi_startproc

	push	rbp
	.cfi_def_cfa_offset 16
	.cfi_offset rbp, -16
	mov	rbp, rsp
	.cfi_def_cfa_register rbp
	push	r15
	push	r14
	push	r13
	push	r12
	push	rbx
	sub	rsp, 56
	.cfi_offset rbx, -56
	.cfi_offset r12, -48
	.cfi_offset r13, -40
	.cfi_offset r14, -32
	.cfi_offset r15, -24
	mov	r12, rdx
	mov	r15, rdi
	mov	rax, qword ptr [rdi + 56]
	mov	qword ptr [rbp - 80], rax 
	mov	qword ptr [rbp - 48], rsi 
	mov	rax, rsi
	jmp	LBB114_1
	.p2align	4, 0x90
LBB114_4:                               
	cmp	rax, r14
	je	LBB114_5
LBB114_1:                               
	mov	r14, rax
	mov	rdi, r15
	mov	rsi, rax
	mov	rdx, r12
	call	__ZNSt3__111basic_regexIcNS_12regex_traitsIcEEE17__parse_assertionIPKcEET_S7_S7_
	cmp	rax, r14
	jne	LBB114_4

	mov	r13, qword ptr [r15 + 56]
	mov	ebx, dword ptr [r15 + 28]
	mov	rdi, r15
	mov	rsi, r14
	mov	rdx, r12
	call	__ZNSt3__111basic_regexIcNS_12regex_traitsIcEEE12__parse_atomIPKcEET_S7_S7_
	cmp	rax, r14
	je	LBB114_5

	inc	ebx
	mov	r9d, dword ptr [r15 + 28]
	inc	r9d
	mov	rdi, r15
	mov	rsi, rax
	mov	rdx, r12
	mov	rcx, r13
	mov	r8d, ebx
	call	__ZNSt3__111basic_regexIcNS_12regex_traitsIcEEE23__parse_ERE_dupl_symbolIPKcEET_S7_S7_PNS_16__owns_one_stateIcEEjj
	jmp	LBB114_4
LBB114_5:
	cmp	r14, qword ptr [rbp - 48] 
	jne	LBB114_7

	mov	edi, 16
	call	__Znwm
	mov	rcx, qword ptr [r15 + 56]
	mov	rdx, qword ptr [rcx + 8]
	mov	qword ptr [rax + 8], rdx
	mov	rdx, qword ptr [rip + __ZTVNSt3__113__empty_stateIcEE@GOTPCREL]
	add	rdx, 16
	mov	qword ptr [rax], rdx
	mov	qword ptr [rcx + 8], rax
	mov	rax, qword ptr [r15 + 56]
	mov	rax, qword ptr [rax + 8]
	mov	qword ptr [r15 + 56], rax
LBB114_7:
	cmp	r14, r12
	je	LBB114_19

	mov	rax, qword ptr [rip + __ZTVNSt3__113__empty_stateIcEE@GOTPCREL]
	add	rax, 16
	mov	qword ptr [rbp - 56], rax 
	mov	rax, qword ptr [rip + __ZTVNSt3__111__alternateIcEE@GOTPCREL]
	add	rax, 16
	mov	qword ptr [rbp - 72], rax 
	mov	rax, qword ptr [rip + __ZTVNSt3__121__empty_non_own_stateIcEE@GOTPCREL]
	add	rax, 16
	mov	qword ptr [rbp - 64], rax 
	jmp	LBB114_9
	.p2align	4, 0x90
LBB114_18:                              
	mov	edi, 24
	call	__Znwm
	mov	rsi, qword ptr [rbp - 80] 
	mov	rcx, qword ptr [rsi + 8]
	mov	rbx, qword ptr [rbp - 48] 
	mov	rdx, qword ptr [rbx + 8]
	mov	qword ptr [rax + 8], rcx
	mov	qword ptr [rax + 16], rdx
	mov	rcx, qword ptr [rbp - 72] 
	mov	qword ptr [rax], rcx
	mov	qword ptr [rsi + 8], rax
	mov	qword ptr [rbx + 8], 0
	mov	edi, 16
	call	__Znwm
	mov	rcx, qword ptr [r15 + 56]
	mov	rcx, qword ptr [rcx + 8]
	mov	qword ptr [rax + 8], rcx
	mov	rcx, qword ptr [rbp - 56] 
	mov	qword ptr [rax], rcx
	mov	qword ptr [rbx + 8], rax
	mov	rax, qword ptr [r15 + 56]
	mov	qword ptr [rax + 8], 0
	mov	edi, 16
	call	__Znwm
	mov	rcx, qword ptr [rbx + 8]
	mov	qword ptr [rax + 8], rcx
	mov	rcx, qword ptr [rbp - 64] 
	mov	qword ptr [rax], rcx
	mov	rcx, qword ptr [r15 + 56]
	mov	qword ptr [rcx + 8], rax
	mov	rax, qword ptr [rbx + 8]
	mov	qword ptr [r15 + 56], rax
	cmp	r14, r12
	je	LBB114_19
LBB114_9:                               
                                        
	cmp	byte ptr [r14], 124
	jne	LBB114_10

	mov	rax, qword ptr [r15 + 56]
	mov	qword ptr [rbp - 48], rax 
	inc	r14
	mov	qword ptr [rbp - 88], r14 
	mov	rax, r14
	jmp	LBB114_12
	.p2align	4, 0x90
LBB114_14:                              
	inc	ebx
	mov	r9d, dword ptr [r15 + 28]
	inc	r9d
	mov	rdi, r15
	mov	rsi, rax
	mov	rdx, r12
	mov	rcx, r13
	mov	r8d, ebx
	call	__ZNSt3__111basic_regexIcNS_12regex_traitsIcEEE23__parse_ERE_dupl_symbolIPKcEET_S7_S7_PNS_16__owns_one_stateIcEEjj
LBB114_15:                              
	cmp	rax, r14
	je	LBB114_16
LBB114_12:                              
                                        
	mov	r14, rax
	mov	rdi, r15
	mov	rsi, rax
	mov	rdx, r12
	call	__ZNSt3__111basic_regexIcNS_12regex_traitsIcEEE17__parse_assertionIPKcEET_S7_S7_
	cmp	rax, r14
	jne	LBB114_15

	mov	r13, qword ptr [r15 + 56]
	mov	ebx, dword ptr [r15 + 28]
	mov	rdi, r15
	mov	rsi, r14
	mov	rdx, r12
	call	__ZNSt3__111basic_regexIcNS_12regex_traitsIcEEE12__parse_atomIPKcEET_S7_S7_
	cmp	rax, r14
	jne	LBB114_14
LBB114_16:                              
	cmp	r14, qword ptr [rbp - 88] 
	jne	LBB114_18

	mov	edi, 16
	call	__Znwm
	mov	rcx, qword ptr [r15 + 56]
	mov	rdx, qword ptr [rcx + 8]
	mov	qword ptr [rax + 8], rdx
	mov	rdx, qword ptr [rbp - 56] 
	mov	qword ptr [rax], rdx
	mov	qword ptr [rcx + 8], rax
	mov	rax, qword ptr [r15 + 56]
	mov	rax, qword ptr [rax + 8]
	mov	qword ptr [r15 + 56], rax
	jmp	LBB114_18
LBB114_10:
	mov	r12, r14
LBB114_19:
	mov	rax, r12
	add	rsp, 56
	pop	rbx
	pop	r12
	pop	r13
	pop	r14
	pop	r15
	pop	rbp
	ret
	.cfi_endproc
                                        
	.globl	__ZNSt3__111basic_regexIcNS_12regex_traitsIcEEE21__parse_basic_reg_expIPKcEET_S7_S7_ 
	.weak_def_can_be_hidden	__ZNSt3__111basic_regexIcNS_12regex_traitsIcEEE21__parse_basic_reg_expIPKcEET_S7_S7_
	.p2align	4, 0x90
__ZNSt3__111basic_regexIcNS_12regex_traitsIcEEE21__parse_basic_reg_expIPKcEET_S7_S7_: 
	.cfi_startproc

	push	rbp
	.cfi_def_cfa_offset 16
	.cfi_offset rbp, -16
	mov	rbp, rsp
	.cfi_def_cfa_register rbp
	push	r15
	push	r14
	push	r13
	push	r12
	push	rbx
	push	rax
	.cfi_offset rbx, -56
	.cfi_offset r12, -48
	.cfi_offset r13, -40
	.cfi_offset r14, -32
	.cfi_offset r15, -24
	mov	r12, rsi
	cmp	rsi, rdx
	je	LBB115_1

	mov	r14, rdx
	mov	r15, rdi
	cmp	byte ptr [r12], 94
	jne	LBB115_4

	mov	edi, 16
	call	__Znwm
	mov	rcx, qword ptr [r15 + 56]
	mov	rdx, qword ptr [rcx + 8]
	mov	qword ptr [rax + 8], rdx
	mov	rdx, qword ptr [rip + __ZTVNSt3__110__l_anchorIcEE@GOTPCREL]
	add	rdx, 16
	mov	qword ptr [rax], rdx
	mov	qword ptr [rcx + 8], rax
	mov	rax, qword ptr [r15 + 56]
	mov	rax, qword ptr [rax + 8]
	mov	qword ptr [r15 + 56], rax
	inc	r12
LBB115_4:
	cmp	r12, r14
	je	LBB115_11
	.p2align	4, 0x90
LBB115_5:                               
	cmp	r12, r14
	je	LBB115_11

	mov	r13, r12
	mov	r12, qword ptr [r15 + 56]
	mov	ebx, dword ptr [r15 + 28]
	mov	rdi, r15
	mov	rsi, r13
	mov	rdx, r14
	call	__ZNSt3__111basic_regexIcNS_12regex_traitsIcEEE18__parse_nondupl_REIPKcEET_S7_S7_
	cmp	rax, r13
	je	LBB115_8

	inc	ebx
	mov	r9d, dword ptr [r15 + 28]
	inc	r9d
	mov	rdi, r15
	mov	rsi, rax
	mov	rdx, r14
	mov	rcx, r12
	mov	r8d, ebx
	call	__ZNSt3__111basic_regexIcNS_12regex_traitsIcEEE22__parse_RE_dupl_symbolIPKcEET_S7_S7_PNS_16__owns_one_stateIcEEjj
	mov	r12, rax
	cmp	rax, r13
	jne	LBB115_5
LBB115_8:
	lea	rax, [r13 + 1]
	cmp	rax, r14
	jne	LBB115_12

	cmp	byte ptr [r13], 36
	jne	LBB115_12

	mov	edi, 16
	call	__Znwm
	mov	rcx, qword ptr [r15 + 56]
	mov	rdx, qword ptr [rcx + 8]
	mov	qword ptr [rax + 8], rdx
	mov	rdx, qword ptr [rip + __ZTVNSt3__110__r_anchorIcEE@GOTPCREL]
	add	rdx, 16
	mov	qword ptr [rax], rdx
	mov	qword ptr [rcx + 8], rax
	mov	rax, qword ptr [r15 + 56]
	mov	rax, qword ptr [rax + 8]
	mov	qword ptr [r15 + 56], rax
	jmp	LBB115_11
LBB115_1:
	mov	r14, r12
LBB115_11:
	mov	rax, r14
	add	rsp, 8
	pop	rbx
	pop	r12
	pop	r13
	pop	r14
	pop	r15
	pop	rbp
	ret
LBB115_12:
	call	__ZNSt3__1L19__throw_regex_errorILNS_15regex_constants10error_typeE15EEEvv
	.cfi_endproc
                                        
	.globl	__ZNSt3__111basic_regexIcNS_12regex_traitsIcEEE24__parse_extended_reg_expIPKcEET_S7_S7_ 
	.weak_def_can_be_hidden	__ZNSt3__111basic_regexIcNS_12regex_traitsIcEEE24__parse_extended_reg_expIPKcEET_S7_S7_
	.p2align	4, 0x90
__ZNSt3__111basic_regexIcNS_12regex_traitsIcEEE24__parse_extended_reg_expIPKcEET_S7_S7_: 
	.cfi_startproc

	push	rbp
	.cfi_def_cfa_offset 16
	.cfi_offset rbp, -16
	mov	rbp, rsp
	.cfi_def_cfa_register rbp
	push	r15
	push	r14
	push	r13
	push	r12
	push	rbx
	sub	rsp, 40
	.cfi_offset rbx, -56
	.cfi_offset r12, -48
	.cfi_offset r13, -40
	.cfi_offset r14, -32
	.cfi_offset r15, -24
	mov	r14, rdx
	mov	rbx, rsi
	mov	r15, rdi
	mov	rax, qword ptr [rdi + 56]
	mov	qword ptr [rbp - 72], rax 
	call	__ZNSt3__111basic_regexIcNS_12regex_traitsIcEEE22__parse_ERE_expressionIPKcEET_S7_S7_
	cmp	rax, rbx
	je	LBB116_12
	.p2align	4, 0x90
LBB116_1:                               
	mov	r12, rax
	mov	rdi, r15
	mov	rsi, rax
	mov	rdx, r14
	call	__ZNSt3__111basic_regexIcNS_12regex_traitsIcEEE22__parse_ERE_expressionIPKcEET_S7_S7_
	cmp	rax, r12
	jne	LBB116_1

	cmp	r12, rbx
	je	LBB116_12

	cmp	r12, r14
	je	LBB116_11

	mov	rax, qword ptr [rip + __ZTVNSt3__111__alternateIcEE@GOTPCREL]
	add	rax, 16
	mov	qword ptr [rbp - 64], rax 
	mov	rax, qword ptr [rip + __ZTVNSt3__113__empty_stateIcEE@GOTPCREL]
	add	rax, 16
	mov	qword ptr [rbp - 56], rax 
	mov	rax, qword ptr [rip + __ZTVNSt3__121__empty_non_own_stateIcEE@GOTPCREL]
	add	rax, 16
	mov	qword ptr [rbp - 48], rax 
	.p2align	4, 0x90
LBB116_5:                               
                                        
	cmp	byte ptr [r12], 124
	jne	LBB116_6

	mov	r13, qword ptr [r15 + 56]
	inc	r12
	mov	rdi, r15
	mov	rsi, r12
	mov	rdx, r14
	call	__ZNSt3__111basic_regexIcNS_12regex_traitsIcEEE22__parse_ERE_expressionIPKcEET_S7_S7_
	cmp	rax, r12
	je	LBB116_12
	.p2align	4, 0x90
LBB116_8:                               
                                        
	mov	rbx, rax
	mov	rdi, r15
	mov	rsi, rax
	mov	rdx, r14
	call	__ZNSt3__111basic_regexIcNS_12regex_traitsIcEEE22__parse_ERE_expressionIPKcEET_S7_S7_
	cmp	rax, rbx
	jne	LBB116_8

	cmp	rbx, r12
	je	LBB116_12

	mov	edi, 24
	call	__Znwm
	mov	rsi, qword ptr [rbp - 72] 
	mov	rcx, qword ptr [rsi + 8]
	mov	rdx, qword ptr [r13 + 8]
	mov	qword ptr [rax + 8], rcx
	mov	qword ptr [rax + 16], rdx
	mov	rcx, qword ptr [rbp - 64] 
	mov	qword ptr [rax], rcx
	mov	qword ptr [rsi + 8], rax
	mov	qword ptr [r13 + 8], 0
	mov	edi, 16
	call	__Znwm
	mov	rcx, qword ptr [r15 + 56]
	mov	rcx, qword ptr [rcx + 8]
	mov	qword ptr [rax + 8], rcx
	mov	rcx, qword ptr [rbp - 56] 
	mov	qword ptr [rax], rcx
	mov	qword ptr [r13 + 8], rax
	mov	rax, qword ptr [r15 + 56]
	mov	qword ptr [rax + 8], 0
	mov	edi, 16
	call	__Znwm
	mov	rcx, qword ptr [r13 + 8]
	mov	qword ptr [rax + 8], rcx
	mov	rcx, qword ptr [rbp - 48] 
	mov	qword ptr [rax], rcx
	mov	rcx, qword ptr [r15 + 56]
	mov	qword ptr [rcx + 8], rax
	mov	rax, qword ptr [r13 + 8]
	mov	qword ptr [r15 + 56], rax
	mov	r12, rbx
	cmp	rbx, r14
	jne	LBB116_5
	jmp	LBB116_11
LBB116_6:
	mov	r14, r12
LBB116_11:
	mov	rax, r14
	add	rsp, 40
	pop	rbx
	pop	r12
	pop	r13
	pop	r14
	pop	r15
	pop	rbp
	ret
LBB116_12:
	call	__ZNSt3__1L19__throw_regex_errorILNS_15regex_constants10error_typeE15EEEvv
	.cfi_endproc
                                        
	.globl	__ZNSt3__111basic_regexIcNS_12regex_traitsIcEEE12__parse_grepIPKcEET_S7_S7_ 
	.weak_def_can_be_hidden	__ZNSt3__111basic_regexIcNS_12regex_traitsIcEEE12__parse_grepIPKcEET_S7_S7_
	.p2align	4, 0x90
__ZNSt3__111basic_regexIcNS_12regex_traitsIcEEE12__parse_grepIPKcEET_S7_S7_: 
	.cfi_startproc

	push	rbp
	.cfi_def_cfa_offset 16
	.cfi_offset rbp, -16
	mov	rbp, rsp
	.cfi_def_cfa_register rbp
	push	r15
	push	r14
	push	r13
	push	r12
	push	rbx
	sub	rsp, 24
	.cfi_offset rbx, -56
	.cfi_offset r12, -48
	.cfi_offset r13, -40
	.cfi_offset r14, -32
	.cfi_offset r15, -24
	mov	r15, rdx
	mov	r12, rsi
	mov	r14, rdi
	mov	rax, qword ptr [rdi + 56]
	mov	qword ptr [rbp - 48], rax 
	cmp	rsi, rdx
	je	LBB117_7

	mov	rbx, r12
	.p2align	4, 0x90
LBB117_2:                               
	cmp	byte ptr [rbx], 10
	je	LBB117_5

	inc	rbx
	cmp	r15, rbx
	jne	LBB117_2

	mov	rbx, r15
LBB117_5:
	cmp	rbx, r12
	je	LBB117_7

	mov	rdi, r14
	mov	rsi, r12
	mov	rdx, rbx
	call	__ZNSt3__111basic_regexIcNS_12regex_traitsIcEEE21__parse_basic_reg_expIPKcEET_S7_S7_
	mov	r12, rbx
	jmp	LBB117_8
LBB117_7:
	mov	edi, 16
	call	__Znwm
	mov	rdx, qword ptr [rbp - 48] 
	mov	rcx, qword ptr [rdx + 8]
	mov	qword ptr [rax + 8], rcx
	mov	rcx, qword ptr [rip + __ZTVNSt3__113__empty_stateIcEE@GOTPCREL]
	add	rcx, 16
	mov	qword ptr [rax], rcx
	mov	qword ptr [rdx + 8], rax
	mov	rax, qword ptr [r14 + 56]
	mov	rax, qword ptr [rax + 8]
	mov	qword ptr [r14 + 56], rax
LBB117_8:
	lea	rsi, [r12 + 1]
	cmp	r12, r15
	cmove	rsi, r12
	cmp	rsi, r15
	je	LBB117_18

	mov	r12, qword ptr [rip + __ZTVNSt3__113__empty_stateIcEE@GOTPCREL]
	add	r12, 16
	mov	rax, qword ptr [rip + __ZTVNSt3__111__alternateIcEE@GOTPCREL]
	add	rax, 16
	mov	qword ptr [rbp - 64], rax 
	mov	rax, qword ptr [rip + __ZTVNSt3__121__empty_non_own_stateIcEE@GOTPCREL]
	add	rax, 16
	mov	qword ptr [rbp - 56], rax 
	jmp	LBB117_10
	.p2align	4, 0x90
LBB117_16:                              
	mov	edi, 16
	call	__Znwm
	mov	rcx, qword ptr [r13 + 8]
	mov	qword ptr [rax + 8], rcx
	mov	qword ptr [rax], r12
	mov	qword ptr [r13 + 8], rax
	mov	rax, qword ptr [r14 + 56]
	mov	rax, qword ptr [rax + 8]
	mov	qword ptr [r14 + 56], rax
LBB117_17:                              
	mov	edi, 24
	call	__Znwm
	mov	rsi, qword ptr [rbp - 48] 
	mov	rcx, qword ptr [rsi + 8]
	mov	rdx, qword ptr [r13 + 8]
	mov	qword ptr [rax + 8], rcx
	mov	qword ptr [rax + 16], rdx
	mov	rcx, qword ptr [rbp - 64] 
	mov	qword ptr [rax], rcx
	mov	qword ptr [rsi + 8], rax
	mov	qword ptr [r13 + 8], 0
	mov	edi, 16
	call	__Znwm
	mov	rcx, qword ptr [r14 + 56]
	mov	rcx, qword ptr [rcx + 8]
	mov	qword ptr [rax + 8], rcx
	mov	qword ptr [rax], r12
	mov	qword ptr [r13 + 8], rax
	mov	rax, qword ptr [r14 + 56]
	mov	qword ptr [rax + 8], 0
	mov	edi, 16
	call	__Znwm
	mov	rcx, qword ptr [r13 + 8]
	mov	qword ptr [rax + 8], rcx
	mov	rcx, qword ptr [rbp - 56] 
	mov	qword ptr [rax], rcx
	mov	rcx, qword ptr [r14 + 56]
	mov	qword ptr [rcx + 8], rax
	mov	rax, qword ptr [r13 + 8]
	mov	qword ptr [r14 + 56], rax
	lea	rsi, [rbx + 1]
	cmp	rbx, r15
	cmove	rsi, rbx
	cmp	rsi, r15
	je	LBB117_18
LBB117_10:                              
                                        
	mov	rbx, rsi
	.p2align	4, 0x90
LBB117_11:                              
                                        
	cmp	byte ptr [rbx], 10
	je	LBB117_14

	inc	rbx
	cmp	r15, rbx
	jne	LBB117_11

	mov	rbx, r15
LBB117_14:                              
	mov	r13, qword ptr [r14 + 56]
	cmp	rbx, rsi
	je	LBB117_16

	mov	rdi, r14
	mov	rdx, rbx
	call	__ZNSt3__111basic_regexIcNS_12regex_traitsIcEEE21__parse_basic_reg_expIPKcEET_S7_S7_
	jmp	LBB117_17
LBB117_18:
	mov	rax, r15
	add	rsp, 24
	pop	rbx
	pop	r12
	pop	r13
	pop	r14
	pop	r15
	pop	rbp
	ret
	.cfi_endproc
                                        
	.globl	__ZNSt3__111basic_regexIcNS_12regex_traitsIcEEE13__parse_egrepIPKcEET_S7_S7_ 
	.weak_def_can_be_hidden	__ZNSt3__111basic_regexIcNS_12regex_traitsIcEEE13__parse_egrepIPKcEET_S7_S7_
	.p2align	4, 0x90
__ZNSt3__111basic_regexIcNS_12regex_traitsIcEEE13__parse_egrepIPKcEET_S7_S7_: 
	.cfi_startproc

	push	rbp
	.cfi_def_cfa_offset 16
	.cfi_offset rbp, -16
	mov	rbp, rsp
	.cfi_def_cfa_register rbp
	push	r15
	push	r14
	push	r13
	push	r12
	push	rbx
	sub	rsp, 24
	.cfi_offset rbx, -56
	.cfi_offset r12, -48
	.cfi_offset r13, -40
	.cfi_offset r14, -32
	.cfi_offset r15, -24
	mov	r15, rdx
	mov	r12, rsi
	mov	r14, rdi
	mov	rax, qword ptr [rdi + 56]
	mov	qword ptr [rbp - 48], rax 
	cmp	rsi, rdx
	je	LBB118_7

	mov	rbx, r12
	.p2align	4, 0x90
LBB118_2:                               
	cmp	byte ptr [rbx], 10
	je	LBB118_5

	inc	rbx
	cmp	r15, rbx
	jne	LBB118_2

	mov	rbx, r15
LBB118_5:
	cmp	rbx, r12
	je	LBB118_7

	mov	rdi, r14
	mov	rsi, r12
	mov	rdx, rbx
	call	__ZNSt3__111basic_regexIcNS_12regex_traitsIcEEE24__parse_extended_reg_expIPKcEET_S7_S7_
	mov	r12, rbx
	jmp	LBB118_8
LBB118_7:
	mov	edi, 16
	call	__Znwm
	mov	rdx, qword ptr [rbp - 48] 
	mov	rcx, qword ptr [rdx + 8]
	mov	qword ptr [rax + 8], rcx
	mov	rcx, qword ptr [rip + __ZTVNSt3__113__empty_stateIcEE@GOTPCREL]
	add	rcx, 16
	mov	qword ptr [rax], rcx
	mov	qword ptr [rdx + 8], rax
	mov	rax, qword ptr [r14 + 56]
	mov	rax, qword ptr [rax + 8]
	mov	qword ptr [r14 + 56], rax
LBB118_8:
	lea	rsi, [r12 + 1]
	cmp	r12, r15
	cmove	rsi, r12
	cmp	rsi, r15
	je	LBB118_18

	mov	r12, qword ptr [rip + __ZTVNSt3__113__empty_stateIcEE@GOTPCREL]
	add	r12, 16
	mov	rax, qword ptr [rip + __ZTVNSt3__111__alternateIcEE@GOTPCREL]
	add	rax, 16
	mov	qword ptr [rbp - 64], rax 
	mov	rax, qword ptr [rip + __ZTVNSt3__121__empty_non_own_stateIcEE@GOTPCREL]
	add	rax, 16
	mov	qword ptr [rbp - 56], rax 
	jmp	LBB118_10
	.p2align	4, 0x90
LBB118_16:                              
	mov	edi, 16
	call	__Znwm
	mov	rcx, qword ptr [r13 + 8]
	mov	qword ptr [rax + 8], rcx
	mov	qword ptr [rax], r12
	mov	qword ptr [r13 + 8], rax
	mov	rax, qword ptr [r14 + 56]
	mov	rax, qword ptr [rax + 8]
	mov	qword ptr [r14 + 56], rax
LBB118_17:                              
	mov	edi, 24
	call	__Znwm
	mov	rsi, qword ptr [rbp - 48] 
	mov	rcx, qword ptr [rsi + 8]
	mov	rdx, qword ptr [r13 + 8]
	mov	qword ptr [rax + 8], rcx
	mov	qword ptr [rax + 16], rdx
	mov	rcx, qword ptr [rbp - 64] 
	mov	qword ptr [rax], rcx
	mov	qword ptr [rsi + 8], rax
	mov	qword ptr [r13 + 8], 0
	mov	edi, 16
	call	__Znwm
	mov	rcx, qword ptr [r14 + 56]
	mov	rcx, qword ptr [rcx + 8]
	mov	qword ptr [rax + 8], rcx
	mov	qword ptr [rax], r12
	mov	qword ptr [r13 + 8], rax
	mov	rax, qword ptr [r14 + 56]
	mov	qword ptr [rax + 8], 0
	mov	edi, 16
	call	__Znwm
	mov	rcx, qword ptr [r13 + 8]
	mov	qword ptr [rax + 8], rcx
	mov	rcx, qword ptr [rbp - 56] 
	mov	qword ptr [rax], rcx
	mov	rcx, qword ptr [r14 + 56]
	mov	qword ptr [rcx + 8], rax
	mov	rax, qword ptr [r13 + 8]
	mov	qword ptr [r14 + 56], rax
	lea	rsi, [rbx + 1]
	cmp	rbx, r15
	cmove	rsi, rbx
	cmp	rsi, r15
	je	LBB118_18
LBB118_10:                              
                                        
	mov	rbx, rsi
	.p2align	4, 0x90
LBB118_11:                              
                                        
	cmp	byte ptr [rbx], 10
	je	LBB118_14

	inc	rbx
	cmp	r15, rbx
	jne	LBB118_11

	mov	rbx, r15
LBB118_14:                              
	mov	r13, qword ptr [r14 + 56]
	cmp	rbx, rsi
	je	LBB118_16

	mov	rdi, r14
	mov	rdx, rbx
	call	__ZNSt3__111basic_regexIcNS_12regex_traitsIcEEE24__parse_extended_reg_expIPKcEET_S7_S7_
	jmp	LBB118_17
LBB118_18:
	mov	rax, r15
	add	rsp, 24
	pop	rbx
	pop	r12
	pop	r13
	pop	r14
	pop	r15
	pop	rbp
	ret
	.cfi_endproc
                                        
	.p2align	4, 0x90         
__ZNSt3__1L19__throw_regex_errorILNS_15regex_constants10error_typeE14EEEvv: 
Lfunc_begin33:
	.cfi_startproc
	.cfi_personality 155, ___gxx_personality_v0
	.cfi_lsda 16, Lexception33

	push	rbp
	.cfi_def_cfa_offset 16
	.cfi_offset rbp, -16
	mov	rbp, rsp
	.cfi_def_cfa_register rbp
	push	r14
	push	rbx
	.cfi_offset rbx, -32
	.cfi_offset r14, -24
	mov	edi, 24
	call	___cxa_allocate_exception
	mov	rbx, rax
Ltmp399:
	mov	rdi, rax
	mov	esi, 14
	call	__ZNSt3__111regex_errorC1ENS_15regex_constants10error_typeE
Ltmp400:

	mov	rsi, qword ptr [rip + __ZTINSt3__111regex_errorE@GOTPCREL]
	mov	rdx, qword ptr [rip + __ZNSt3__111regex_errorD1Ev@GOTPCREL]
	mov	rdi, rbx
	call	___cxa_throw
LBB119_2:
Ltmp401:
	mov	r14, rax
	mov	rdi, rbx
	call	___cxa_free_exception
	mov	rdi, r14
	call	__Unwind_Resume
	ud2
Lfunc_end33:
	.cfi_endproc
	.section	__TEXT,__gcc_except_tab
	.p2align	2
GCC_except_table119:
Lexception33:
	.byte	255                     
	.byte	255                     
	.byte	1                       
	.uleb128 Lcst_end33-Lcst_begin33
Lcst_begin33:
	.uleb128 Lfunc_begin33-Lfunc_begin33 
	.uleb128 Ltmp399-Lfunc_begin33  
	.byte	0                       
	.byte	0                       
	.uleb128 Ltmp399-Lfunc_begin33  
	.uleb128 Ltmp400-Ltmp399        
	.uleb128 Ltmp401-Lfunc_begin33  
	.byte	0                       
	.uleb128 Ltmp400-Lfunc_begin33  
	.uleb128 Lfunc_end33-Ltmp400    
	.byte	0                       
	.byte	0                       
Lcst_end33:
	.p2align	2
                                        
	.section	__TEXT,__text,regular,pure_instructions
	.globl	__ZNSt3__111__end_stateIcED1Ev 
	.weak_def_can_be_hidden	__ZNSt3__111__end_stateIcED1Ev
	.p2align	4, 0x90
__ZNSt3__111__end_stateIcED1Ev:         

	push	rbp
	mov	rbp, rsp
	pop	rbp
	ret
                                        
	.globl	__ZNSt3__111__end_stateIcED0Ev 
	.weak_def_can_be_hidden	__ZNSt3__111__end_stateIcED0Ev
	.p2align	4, 0x90
__ZNSt3__111__end_stateIcED0Ev:         

	push	rbp
	mov	rbp, rsp
	pop	rbp
	jmp	__ZdlPv                 
                                        
	.globl	__ZNKSt3__111__end_stateIcE6__execERNS_7__stateIcEE 
	.weak_def_can_be_hidden	__ZNKSt3__111__end_stateIcE6__execERNS_7__stateIcEE
	.p2align	4, 0x90
__ZNKSt3__111__end_stateIcE6__execERNS_7__stateIcEE: 

	push	rbp
	mov	rbp, rsp
	mov	dword ptr [rsi], -1000
	pop	rbp
	ret
                                        
	.p2align	4, 0x90         
__ZNKSt3__16__nodeIcE12__exec_splitEbRNS_7__stateIcEE: 

	push	rbp
	mov	rbp, rsp
	pop	rbp
	ret
                                        
	.p2align	4, 0x90         
__ZNKSt3__16__nodeIcE6__execERNS_7__stateIcEE: 

	push	rbp
	mov	rbp, rsp
	pop	rbp
	ret
                                        
	.globl	__ZNSt3__120__shared_ptr_pointerIPNS_13__empty_stateIcEENS_14default_deleteIS2_EENS_9allocatorIS2_EEED1Ev 
	.weak_def_can_be_hidden	__ZNSt3__120__shared_ptr_pointerIPNS_13__empty_stateIcEENS_14default_deleteIS2_EENS_9allocatorIS2_EEED1Ev
	.p2align	4, 0x90
__ZNSt3__120__shared_ptr_pointerIPNS_13__empty_stateIcEENS_14default_deleteIS2_EENS_9allocatorIS2_EEED1Ev: 

	push	rbp
	mov	rbp, rsp
	pop	rbp
	jmp	__ZNSt3__119__shared_weak_countD2Ev 
                                        
	.globl	__ZNSt3__120__shared_ptr_pointerIPNS_13__empty_stateIcEENS_14default_deleteIS2_EENS_9allocatorIS2_EEED0Ev 
