	.text
	.intel_syntax noprefix
	.file	"/mnt/c/Users/Adam/Developer/CryptoFunctionDetection/crypto_implementations/botan/src/lib/block/des/des.cpp"
	.globl	_ZNK5Botan3DES9encrypt_nEPKhPhm 
	.p2align	4, 0x90
	.type	_ZNK5Botan3DES9encrypt_nEPKhPhm,@function
_ZNK5Botan3DES9encrypt_nEPKhPhm:        
	.cfi_startproc

	push	rbp
.Lcfi0:
	.cfi_def_cfa_offset 16
	push	r15
.Lcfi1:
	.cfi_def_cfa_offset 24
	push	r14
.Lcfi2:
	.cfi_def_cfa_offset 32
	push	r13
.Lcfi3:
	.cfi_def_cfa_offset 40
	push	r12
.Lcfi4:
	.cfi_def_cfa_offset 48
	push	rbx
.Lcfi5:
	.cfi_def_cfa_offset 56
	sub	rsp, 88
.Lcfi6:
	.cfi_def_cfa_offset 144
.Lcfi7:
	.cfi_offset rbx, -56
.Lcfi8:
	.cfi_offset r12, -48
.Lcfi9:
	.cfi_offset r13, -40
.Lcfi10:
	.cfi_offset r14, -32
.Lcfi11:
	.cfi_offset r15, -24
.Lcfi12:
	.cfi_offset rbp, -16
	mov	r15, rcx
	mov	rbp, rdx
	mov	r12, rsi
	mov	rbx, rdi
	lea	rax, [rbx + 8]
	mov	qword ptr [rsp + 32], rax
	mov	rdi, qword ptr [rsp + 32]
	call	_ZNKSt6vectorIjN5Botan16secure_allocatorIjEEE5emptyEv
	xor	al, 1
	movzx	esi, al
	mov	rdi, rbx
	call	_ZNK5Botan18SymmetricAlgorithm14verify_key_setEb
	mov	eax, 734703864




	jmp	.LBB0_1
.LBB0_27:                               
	cmovge	eax, edi
	xor	dl, cl
	cmovne	eax, esi
	.p2align	4, 0x90
.LBB0_1:                                
	cmp	eax, 724638167
	jle	.LBB0_2

	cmp	eax, 1663957881
	jg	.LBB0_16

	cmp	eax, 724638168
	je	.LBB0_21

	cmp	eax, 734703864
	je	.LBB0_20

	cmp	eax, 1015942807
	jne	.LBB0_1

	mov	qword ptr [rsp + 56], r13
	mov	qword ptr [rsp + 80], r14
	mov	rax, qword ptr [rsp + 72] 
	mov	qword ptr [rsp + 64], rax
	mov	eax, dword ptr [rip + x]
	mov	ecx, eax
	neg	ecx
	not	ecx
	imul	ecx, eax
	mov	eax, ecx
	xor	eax, -2
	and	eax, ecx
	sete	cl
	test	eax, eax
	mov	eax, -548237356
	mov	esi, 1663957882
	cmove	eax, esi
	cmp	dword ptr [rip + y], 10
	setl	dl
	mov	edi, -548237356
	jmp	.LBB0_27
	.p2align	4, 0x90
.LBB0_2:                                
	cmp	eax, -548237357
	jle	.LBB0_3

	cmp	eax, -548237356
	je	.LBB0_28

	cmp	eax, -233224086
	je	.LBB0_26

	cmp	eax, 298094331
	jne	.LBB0_1

	mov	eax, -233224086
	jmp	.LBB0_1
	.p2align	4, 0x90
.LBB0_16:                               
	cmp	eax, 1663957882
	je	.LBB0_23

	cmp	eax, 1825364461
	je	.LBB0_25

	cmp	eax, 2102645533
	jne	.LBB0_1

	mov	rdi, qword ptr [rsp + 64]
	xor	esi, esi
	call	_ZN5Botan7load_beIjEET_PKhm
	mov	dword ptr [rsp + 12], eax
	mov	rdi, qword ptr [rsp + 64]
	mov	esi, 1
	call	_ZN5Botan7load_beIjEET_PKhm
	mov	dword ptr [rsp + 8], eax
	lea	rbx, [rsp + 12]
	mov	rdi, rbx
	mov	r14, rbp
	lea	rbp, [rsp + 8]
	mov	rsi, rbp
	call	_ZN5Botan12_GLOBAL__N_16des_IPERjS1_
	mov	rdi, qword ptr [rsp + 32]
	call	_ZNKSt6vectorIjN5Botan16secure_allocatorIjEEE4dataEv
	mov	rdi, rbx
	mov	rsi, rbp
	mov	rdx, rax
	call	_ZN5Botan12_GLOBAL__N_111des_encryptERjS1_PKj
	mov	rdi, rbx
	mov	rsi, rbp
	mov	rbp, r14
	call	_ZN5Botan12_GLOBAL__N_16des_FPERjS1_
	mov	esi, dword ptr [rsp + 8]
	mov	edx, dword ptr [rsp + 12]
	mov	rdi, qword ptr [rsp + 80]
	call	_ZN5Botan8store_beIjEEvPhT_S2_
	mov	rax, qword ptr [rsp + 64]
	add	rax, 8
	mov	qword ptr [rsp + 72], rax 
	mov	r14, qword ptr [rsp + 80]
	add	r14, 8
	mov	r13, qword ptr [rsp + 56]
	dec	r13
	mov	eax, 1015942807
	jmp	.LBB0_1
	.p2align	4, 0x90
.LBB0_3:                                
	cmp	eax, -1378957056
	je	.LBB0_24

	cmp	eax, -793426182
	je	.LBB0_22

	cmp	eax, -1191905599
	jne	.LBB0_1
	jmp	.LBB0_6
.LBB0_21:                               
	mov	rdi, qword ptr [rsp + 16]
	xor	esi, esi
	call	_ZN5Botan7load_beIjEET_PKhm
	mov	dword ptr [rsp + 12], eax
	mov	rdi, qword ptr [rsp + 16]
	mov	esi, 1
	call	_ZN5Botan7load_beIjEET_PKhm
	mov	dword ptr [rsp + 8], eax
	mov	rdi, qword ptr [rsp + 16]
	mov	esi, 2
	call	_ZN5Botan7load_beIjEET_PKhm
	mov	dword ptr [rsp + 28], eax
	mov	rdi, qword ptr [rsp + 16]
	mov	esi, 3
	call	_ZN5Botan7load_beIjEET_PKhm
	mov	dword ptr [rsp + 24], eax
	lea	rbp, [rsp + 12]
	mov	rdi, rbp
	lea	rbx, [rsp + 8]
	mov	rsi, rbx
	call	_ZN5Botan12_GLOBAL__N_16des_IPERjS1_
	lea	r15, [rsp + 28]
	mov	rdi, r15
	lea	r12, [rsp + 24]
	mov	rsi, r12
	call	_ZN5Botan12_GLOBAL__N_16des_IPERjS1_
	mov	rdi, qword ptr [rsp + 32]
	call	_ZNKSt6vectorIjN5Botan16secure_allocatorIjEEE4dataEv
	mov	rdi, rbp
	mov	rsi, rbx
	mov	rdx, r15
	mov	rcx, r12
	mov	r8, rax
	call	_ZN5Botan12_GLOBAL__N_114des_encrypt_x2ERjS1_S1_S1_PKj
	mov	rdi, rbp
	mov	rsi, rbx
	call	_ZN5Botan12_GLOBAL__N_16des_FPERjS1_
	mov	rdi, r15
	mov	rsi, r12
	call	_ZN5Botan12_GLOBAL__N_16des_FPERjS1_
	mov	esi, dword ptr [rsp + 8]
	mov	edx, dword ptr [rsp + 12]
	mov	ecx, dword ptr [rsp + 24]
	mov	r8d, dword ptr [rsp + 28]
	mov	rdi, qword ptr [rsp + 48]
	call	_ZN5Botan8store_beIjEEvPhT_S2_S2_S2_
	mov	r12, qword ptr [rsp + 16]
	add	r12, 16
	mov	rbp, qword ptr [rsp + 48]
	add	rbp, 16
	mov	rax, qword ptr [rsp + 40]
	movabs	rcx, -8936652057448593106
	lea	r15, [rax + rcx - 2]
	sub	r15, rcx
	mov	eax, 734703864
	jmp	.LBB0_1
.LBB0_20:                               
	mov	qword ptr [rsp + 40], r15
	mov	qword ptr [rsp + 48], rbp
	mov	qword ptr [rsp + 16], r12
	mov	rax, qword ptr [rsp + 40]
	cmp	rax, 1
	mov	eax, -793426182
	mov	ecx, 724638168
	cmova	eax, ecx
	jmp	.LBB0_1
.LBB0_28:                               
	mov	rax, qword ptr [rsp + 56]
	mov	eax, 1663957882
	jmp	.LBB0_1
.LBB0_26:                               
	mov	eax, dword ptr [rip + x]
	mov	ecx, eax
	neg	ecx
	not	ecx
	imul	ecx, eax
	mov	eax, ecx
	xor	eax, -2
	and	eax, ecx
	sete	cl
	test	eax, eax
	mov	eax, 298094331
	mov	esi, -1191905599
	cmove	eax, esi
	cmp	dword ptr [rip + y], 10
	setl	dl
	mov	edi, 298094331
	jmp	.LBB0_27
.LBB0_23:                               
	mov	eax, dword ptr [rip + x]
	mov	ecx, dword ptr [rip + y]
	mov	edx, eax
	neg	edx
	not	edx
	imul	edx, eax
	not	edx
	or	edx, -2
	cmp	edx, -1
	sete	al
	cmp	ecx, 10
	setl	bl
	xor	bl, al
	mov	esi, -548237356
	mov	edi, -1378957056
	cmovne	esi, edi
	cmp	edx, -1
	mov	eax, esi
	cmove	eax, edi
	cmp	ecx, 10
	cmovge	eax, esi
	cmp	qword ptr [rsp + 56], 0
	setne	byte ptr [rsp + 7]
	jmp	.LBB0_1
.LBB0_25:                               
	mov	eax, dword ptr [rip + x]
	lea	ecx, [rax - 1]
	imul	ecx, eax
	not	ecx
	or	ecx, -2
	cmp	ecx, -1
	sete	cl
	mov	eax, 298094331
	mov	edi, -233224086
	cmove	eax, edi
	cmp	dword ptr [rip + y], 10
	setl	dl
	mov	esi, 298094331
	cmovge	eax, esi
	xor	dl, cl
	cmovne	eax, edi
	jmp	.LBB0_1
.LBB0_24:                               
	movzx	eax, byte ptr [rsp + 7]
	test	al, al
	mov	eax, 1825364461
	mov	ecx, 2102645533
	cmovne	eax, ecx
	jmp	.LBB0_1
.LBB0_22:                               
	mov	rax, qword ptr [rsp + 16]
	mov	qword ptr [rsp + 72], rax 
	mov	r14, qword ptr [rsp + 48]
	mov	eax, 1015942807
	mov	r13, qword ptr [rsp + 40]
	jmp	.LBB0_1
.LBB0_6:
	add	rsp, 88
	pop	rbx
	pop	r12
	pop	r13
	pop	r14
	pop	r15
	pop	rbp
	ret
.Lfunc_end0:
	.size	_ZNK5Botan3DES9encrypt_nEPKhPhm, .Lfunc_end0-_ZNK5Botan3DES9encrypt_nEPKhPhm
	.cfi_endproc

	.section	.text._ZNK5Botan18SymmetricAlgorithm14verify_key_setEb,"axG",@progbits,_ZNK5Botan18SymmetricAlgorithm14verify_key_setEb,comdat
	.weak	_ZNK5Botan18SymmetricAlgorithm14verify_key_setEb 
	.p2align	4, 0x90
	.type	_ZNK5Botan18SymmetricAlgorithm14verify_key_setEb,@function
_ZNK5Botan18SymmetricAlgorithm14verify_key_setEb: 
	.cfi_startproc

	push	rbp
.Lcfi13:
	.cfi_def_cfa_offset 16
	push	rbx
.Lcfi14:
	.cfi_def_cfa_offset 24
	push	rax
.Lcfi15:
	.cfi_def_cfa_offset 32
.Lcfi16:
	.cfi_offset rbx, -24
.Lcfi17:
	.cfi_offset rbp, -16
	mov	rbx, rdi
	movzx	eax, sil
	mov	dword ptr [rsp + 4], eax
	mov	eax, -1918789503
	mov	ebp, 2065856027
	jmp	.LBB1_1
.LBB1_4:                                
	cmp	dword ptr [rsp + 4], 0
	mov	eax, 1112381458
	cmove	eax, ebp
	.p2align	4, 0x90
.LBB1_1:                                
	cmp	eax, 2065856027
	je	.LBB1_5

	cmp	eax, 1112381458
	je	.LBB1_6

	cmp	eax, -1918789503
	jne	.LBB1_1
	jmp	.LBB1_4
.LBB1_5:                                
	mov	rdi, rbx
	call	_ZNK5Botan18SymmetricAlgorithm23throw_key_not_set_errorEv
	mov	eax, 1112381458
	jmp	.LBB1_1
.LBB1_6:
	add	rsp, 8
	pop	rbx
	pop	rbp
	ret
.Lfunc_end1:
	.size	_ZNK5Botan18SymmetricAlgorithm14verify_key_setEb, .Lfunc_end1-_ZNK5Botan18SymmetricAlgorithm14verify_key_setEb
	.cfi_endproc

	.section	.text._ZNKSt6vectorIjN5Botan16secure_allocatorIjEEE5emptyEv,"axG",@progbits,_ZNKSt6vectorIjN5Botan16secure_allocatorIjEEE5emptyEv,comdat
	.weak	_ZNKSt6vectorIjN5Botan16secure_allocatorIjEEE5emptyEv 
	.p2align	4, 0x90
	.type	_ZNKSt6vectorIjN5Botan16secure_allocatorIjEEE5emptyEv,@function
_ZNKSt6vectorIjN5Botan16secure_allocatorIjEEE5emptyEv: 

	push	rbx
	sub	rsp, 16
	mov	rbx, rdi
	call	_ZNKSt6vectorIjN5Botan16secure_allocatorIjEEE5beginEv
	mov	qword ptr [rsp + 8], rax
	mov	rdi, rbx
	call	_ZNKSt6vectorIjN5Botan16secure_allocatorIjEEE3endEv
	mov	qword ptr [rsp], rax
	lea	rdi, [rsp + 8]
	mov	rsi, rsp
	call	_ZN9__gnu_cxxeqIPKjSt6vectorIjN5Botan16secure_allocatorIjEEEEEbRKNS_17__normal_iteratorIT_T0_EESD_
	add	rsp, 16
	pop	rbx
	ret
.Lfunc_end2:
	.size	_ZNKSt6vectorIjN5Botan16secure_allocatorIjEEE5emptyEv, .Lfunc_end2-_ZNKSt6vectorIjN5Botan16secure_allocatorIjEEE5emptyEv

	.section	.text._ZN5Botan7load_beIjEET_PKhm,"axG",@progbits,_ZN5Botan7load_beIjEET_PKhm,comdat
	.weak	_ZN5Botan7load_beIjEET_PKhm 
	.p2align	4, 0x90
	.type	_ZN5Botan7load_beIjEET_PKhm,@function
_ZN5Botan7load_beIjEET_PKhm:            
	.cfi_startproc

	push	rax
.Lcfi18:
	.cfi_def_cfa_offset 16
	lea	rsi, [rdi + 4*rsi]
	mov	dword ptr [rsp + 4], 0
	lea	rdi, [rsp + 4]
	call	_ZN5Botan13typecast_copyIjEEvRT_PKh
	mov	edi, dword ptr [rsp + 4]
	call	_ZN5Botan13reverse_bytesEj
	pop	rcx
	ret
.Lfunc_end3:
	.size	_ZN5Botan7load_beIjEET_PKhm, .Lfunc_end3-_ZN5Botan7load_beIjEET_PKhm
	.cfi_endproc

	.text
	.p2align	4, 0x90         
	.type	_ZN5Botan12_GLOBAL__N_16des_IPERjS1_,@function
_ZN5Botan12_GLOBAL__N_16des_IPERjS1_:   

	push	rbp
	push	r15
	push	r14
	push	rbx
	push	rax
	mov	r15, rsi
	mov	r14, rdi
	mov	edi, dword ptr [r15]
	call	_ZN5Botan4rotlILm4EjEET0_S1_
	mov	dword ptr [r15], eax
	mov	ecx, dword ptr [r14]
	mov	edx, ecx
	not	edx
	mov	esi, edx
	and	esi, -2027878745
	mov	edi, ecx
	and	edi, 2027878744
	or	edi, esi
	mov	esi, eax
	not	esi
	and	esi, -2027878745
	and	eax, 2027878744
	or	eax, esi
	xor	eax, edi
	mov	esi, eax
	xor	esi, 252645135
	and	esi, eax
	mov	eax, esi
	not	eax
	and	ecx, eax
	and	edx, esi
	or	edx, ecx
	mov	dword ptr [r14], edx
	mov	edi, dword ptr [r15]
	mov	ecx, edi
	not	ecx
	and	ecx, 360754086
	and	edi, -360754087
	or	edi, ecx
	and	eax, 360754086
	and	esi, -360754087
	or	esi, eax
	xor	edi, esi
	call	_ZN5Botan4rotrILm20EjEET0_S1_
	mov	dword ptr [r15], eax
	mov	ecx, dword ptr [r14]
	mov	edx, ecx
	not	edx
	mov	esi, edx
	and	esi, -59394098
	mov	edi, ecx
	and	edi, 59394097
	or	edi, esi
	mov	esi, eax
	not	esi
	and	esi, -59394098
	and	eax, 59394097
	or	eax, esi
	xor	eax, edi
	mov	ebp, eax
	xor	ebp, 65535
	and	ebp, eax
	mov	eax, ebp
	not	eax
	mov	edi, eax
	and	edi, -69273195
	mov	esi, ebp
	and	esi, 69273194
	or	esi, edi
	and	edx, -69273195
	and	ecx, 69273194
	or	ecx, edx
	xor	ecx, esi
	mov	dword ptr [r14], ecx
	mov	edi, dword ptr [r15]
	and	eax, edi
	not	edi
	and	edi, ebp
	or	edi, eax
	call	_ZN5Botan4rotrILm18EjEET0_S1_
	mov	dword ptr [r15], eax
	mov	ecx, dword ptr [r14]
	mov	edx, ecx
	not	edx
	mov	esi, edx
	and	esi, -686247306
	mov	edi, ecx
	and	edi, 686247305
	or	edi, esi
	mov	esi, eax
	not	esi
	and	esi, -686247306
	and	eax, 686247305
	or	eax, esi
	xor	eax, edi
	mov	esi, eax
	xor	esi, -858993460
	and	esi, eax
	mov	eax, esi
	not	eax
	and	ecx, eax
	and	edx, esi
	or	edx, ecx
	mov	dword ptr [r14], edx
	mov	edi, dword ptr [r15]
	and	eax, edi
	not	edi
	and	edi, esi
	or	edi, eax
	call	_ZN5Botan4rotrILm6EjEET0_S1_
	mov	dword ptr [r15], eax
	mov	ecx, dword ptr [r14]
	mov	edx, ecx
	not	edx
	mov	esi, edx
	and	esi, 1790910960
	mov	edi, ecx
	and	edi, -1790910961
	or	edi, esi
	mov	esi, eax
	not	esi
	and	esi, 1790910960
	and	eax, -1790910961
	or	eax, esi
	xor	eax, edi
	mov	esi, eax
	not	esi
	or	esi, -16711936
	and	eax, 16711935
	and	ecx, esi
	and	edx, eax
	or	edx, ecx
	mov	dword ptr [r14], edx
	mov	edi, dword ptr [r15]
	and	esi, edi
	not	edi
	and	edi, eax
	or	edi, esi
	call	_ZN5Botan4rotlILm9EjEET0_S1_
	mov	dword ptr [r15], eax
	mov	edi, dword ptr [r14]
	mov	ecx, edi
	not	ecx
	mov	edx, eax
	and	edx, ecx
	not	eax
	and	eax, edi
	or	eax, edx
	mov	ebx, eax
	xor	ebx, 1431655765
	and	ebx, eax
	mov	ebp, ebx
	not	ebp
	mov	eax, ebp
	and	eax, 1262335318
	mov	edx, ebx
	and	edx, -1262335319
	lea	eax, [rdx + rax]
	and	ecx, 1262335318
	and	edi, -1262335319
	or	edi, ecx
	xor	edi, eax
	call	_ZN5Botan4rotlILm1EjEET0_S1_
	mov	dword ptr [r14], eax
	mov	eax, dword ptr [r15]
	and	ebp, eax
	not	eax
	and	eax, ebx
	or	ebp, eax
	mov	dword ptr [r15], ebp
	add	rsp, 8
	pop	rbx
	pop	r14
	pop	r15
	pop	rbp
	ret
.Lfunc_end4:
	.size	_ZN5Botan12_GLOBAL__N_16des_IPERjS1_, .Lfunc_end4-_ZN5Botan12_GLOBAL__N_16des_IPERjS1_

	.p2align	4, 0x90         
	.type	_ZN5Botan12_GLOBAL__N_114des_encrypt_x2ERjS1_S1_S1_PKj,@function
_ZN5Botan12_GLOBAL__N_114des_encrypt_x2ERjS1_S1_S1_PKj: 

	push	rbp
	push	r15
	push	r14
	push	r13
	push	r12
	push	rbx
	sub	rsp, 56
	mov	r12, r8
	mov	qword ptr [rsp + 24], rdi 
	mov	ebp, dword ptr [rdi]
	mov	qword ptr [rsp + 32], rsi 
	mov	r15d, dword ptr [rsi]
	mov	qword ptr [rsp + 40], rdx 
	mov	r14d, dword ptr [rdx]
	mov	qword ptr [rsp + 48], rcx 
	mov	eax, dword ptr [rcx]
	xor	ecx, ecx
	jmp	.LBB5_1
	.p2align	4, 0x90
.LBB5_7:                                
	mov	edi, dword ptr [rsp + 4]
	call	_ZN5Botan4rotrILm4EjEET0_S1_
	mov	rbx, qword ptr [rsp + 16]
	lea	r15, [rbx + rbx]
	mov	ecx, dword ptr [r12 + 8*rbx]
	mov	esi, dword ptr [r12 + 8*rbx + 4]
	mov	edi, ecx
	not	edi
	and	edi, eax
	not	eax
	and	eax, ecx
	or	edi, eax
	mov	eax, dword ptr [rsp + 4]
	mov	ecx, eax
	not	ecx
	and	ecx, esi
	not	esi
	and	esi, eax
	or	esi, ecx
	call	_ZN5Botan12_GLOBAL__N_15spboxEjj
	mov	ebp, eax
	mov	eax, dword ptr [rsp + 12]
	mov	ecx, eax
	not	ecx
	and	ecx, 1832440842
	and	eax, -1832440843
	or	eax, ecx
	mov	ecx, ebp
	not	ecx
	and	ecx, 1832440842
	and	ebp, -1832440843
	or	ebp, ecx
	xor	ebp, eax
	mov	edi, dword ptr [rsp]
	call	_ZN5Botan4rotrILm4EjEET0_S1_
	mov	edi, dword ptr [r12 + 8*rbx]
	mov	esi, dword ptr [r12 + 8*rbx + 4]
	mov	ecx, edi
	not	ecx
	and	ecx, -22663900
	and	edi, 22663899
	or	edi, ecx
	mov	ecx, eax
	not	ecx
	and	ecx, -22663900
	and	eax, 22663899
	or	eax, ecx
	xor	edi, eax
	mov	eax, dword ptr [rsp]
	mov	ecx, eax
	not	ecx
	and	ecx, esi
	not	esi
	and	esi, eax
	or	esi, ecx
	call	_ZN5Botan12_GLOBAL__N_15spboxEjj
	mov	r14d, eax
	mov	eax, dword ptr [rsp + 8]
	mov	ecx, eax
	not	ecx
	and	ecx, r14d
	not	r14d
	and	r14d, eax
	or	r14d, ecx
	mov	edi, ebp
	call	_ZN5Botan4rotrILm4EjEET0_S1_
	movabs	rcx, -6998573739044077529
	sub	r15, rcx
	lea	r13, [r15 + rcx + 2]
	mov	ecx, dword ptr [r12 + 4*r13]
	mov	edi, ecx
	not	edi
	and	edi, eax
	not	eax
	and	eax, ecx
	or	edi, eax
	movabs	rax, -9161017071739504516
	lea	rbx, [rax + 2*rbx + 3]
	sub	rbx, rax
	mov	esi, dword ptr [r12 + 4*rbx]
	mov	eax, esi
	not	eax
	and	eax, 1440047496
	and	esi, -1440047497
	or	esi, eax
	mov	eax, ebp
	not	eax
	and	eax, 1440047496
	mov	ecx, ebp
	and	ecx, -1440047497
	or	ecx, eax
	xor	esi, ecx
	call	_ZN5Botan12_GLOBAL__N_15spboxEjj
	mov	r15d, eax
	mov	eax, dword ptr [rsp + 4]
	mov	ecx, eax
	not	ecx
	and	ecx, r15d
	not	r15d
	and	r15d, eax
	or	r15d, ecx
	mov	edi, r14d
	call	_ZN5Botan4rotrILm4EjEET0_S1_
	mov	edi, dword ptr [r12 + 4*r13]
	mov	ecx, edi
	not	ecx
	and	ecx, 1343098000
	and	edi, -1343098001
	or	edi, ecx
	mov	ecx, eax
	not	ecx
	and	ecx, 1343098000
	and	eax, -1343098001
	or	eax, ecx
	xor	edi, eax
	mov	esi, dword ptr [r12 + 4*rbx]
	mov	eax, r14d
	not	eax
	and	eax, esi
	not	esi
	and	esi, r14d
	or	esi, eax
	call	_ZN5Botan12_GLOBAL__N_15spboxEjj
	mov	ecx, dword ptr [rsp]
	mov	edx, ecx
	not	edx
	and	edx, 484105225
	and	ecx, -484105226
	or	ecx, edx
	mov	edx, eax
	not	edx
	and	edx, 484105225
	and	eax, -484105226
	or	eax, edx
	xor	eax, ecx
	mov	rcx, qword ptr [rsp + 16]
	xor	edx, edx
	sub	rdx, rcx
	mov	ecx, 2
	sub	rcx, rdx
.LBB5_1:                                

	mov	edx, 317054711
	jmp	.LBB5_2
.LBB5_5:                                
	mov	qword ptr [rsp + 16], rcx
	mov	dword ptr [rsp], eax
	mov	dword ptr [rsp + 8], r14d
	mov	dword ptr [rsp + 4], r15d
	mov	dword ptr [rsp + 12], ebp
	mov	rdx, qword ptr [rsp + 16]
	cmp	rdx, 16
	mov	edx, 1427501354
	mov	esi, 1734697497
	cmove	edx, esi
	.p2align	4, 0x90
.LBB5_2:                                

	mov	esi, edx
	and	esi, 2147483647
	cmp	esi, 1734697497
	je	.LBB5_6

	cmp	esi, 1427501354
	je	.LBB5_7

	cmp	esi, 317054711
	jne	.LBB5_2
	jmp	.LBB5_5
.LBB5_6:
	mov	eax, dword ptr [rsp + 12]
	mov	rcx, qword ptr [rsp + 24] 
	mov	dword ptr [rcx], eax
	mov	eax, dword ptr [rsp + 4]
	mov	rcx, qword ptr [rsp + 32] 
	mov	dword ptr [rcx], eax
	mov	eax, dword ptr [rsp + 8]
	mov	rcx, qword ptr [rsp + 40] 
	mov	dword ptr [rcx], eax
	mov	eax, dword ptr [rsp]
	mov	rcx, qword ptr [rsp + 48] 
	mov	dword ptr [rcx], eax
	add	rsp, 56
	pop	rbx
	pop	r12
	pop	r13
	pop	r14
	pop	r15
	pop	rbp
	ret
.Lfunc_end5:
	.size	_ZN5Botan12_GLOBAL__N_114des_encrypt_x2ERjS1_S1_S1_PKj, .Lfunc_end5-_ZN5Botan12_GLOBAL__N_114des_encrypt_x2ERjS1_S1_S1_PKj

	.section	.text._ZNKSt6vectorIjN5Botan16secure_allocatorIjEEE4dataEv,"axG",@progbits,_ZNKSt6vectorIjN5Botan16secure_allocatorIjEEE4dataEv,comdat
	.weak	_ZNKSt6vectorIjN5Botan16secure_allocatorIjEEE4dataEv 
	.p2align	4, 0x90
	.type	_ZNKSt6vectorIjN5Botan16secure_allocatorIjEEE4dataEv,@function
_ZNKSt6vectorIjN5Botan16secure_allocatorIjEEE4dataEv: 

	mov	rsi, qword ptr [rdi]
	jmp	_ZNKSt6vectorIjN5Botan16secure_allocatorIjEEE11_M_data_ptrIjEEPT_S6_ 
.Lfunc_end6:
	.size	_ZNKSt6vectorIjN5Botan16secure_allocatorIjEEE4dataEv, .Lfunc_end6-_ZNKSt6vectorIjN5Botan16secure_allocatorIjEEE4dataEv

	.text
	.p2align	4, 0x90         
	.type	_ZN5Botan12_GLOBAL__N_16des_FPERjS1_,@function
_ZN5Botan12_GLOBAL__N_16des_FPERjS1_:   

	push	r15
	push	r14
	push	rbx
	mov	r15, rsi
	mov	r14, rdi
	mov	edi, dword ptr [r15]
	call	_ZN5Botan4rotrILm1EjEET0_S1_
	mov	dword ptr [r15], eax
	mov	ecx, dword ptr [r14]
	mov	edx, ecx
	not	edx
	and	edx, eax
	mov	esi, eax
	not	esi
	and	ecx, esi
	or	ecx, edx
	mov	edi, ecx
	xor	edi, 1431655765
	and	edi, ecx
	mov	ecx, edi
	not	ecx
	mov	edx, ecx
	and	edx, -999150923
	mov	ebx, edi
	and	ebx, 999150922
	or	ebx, edx
	and	esi, -999150923
	and	eax, 999150922
	or	eax, esi
	xor	eax, ebx
	mov	dword ptr [r15], eax
	mov	eax, dword ptr [r14]
	mov	edx, eax
	not	edx
	and	edx, -502948065
	and	eax, 502948064
	or	eax, edx
	and	ecx, -502948065
	and	edi, 502948064
	or	edi, ecx
	xor	edi, eax
	call	_ZN5Botan4rotrILm9EjEET0_S1_
	mov	dword ptr [r14], eax
	mov	ecx, dword ptr [r15]
	mov	edx, ecx
	not	edx
	mov	esi, edx
	and	esi, 595794922
	mov	edi, ecx
	and	edi, -595794923
	or	edi, esi
	mov	esi, eax
	not	esi
	and	esi, 595794922
	and	eax, -595794923
	or	eax, esi
	xor	eax, edi
	mov	ebx, eax
	xor	ebx, -16711936
	and	ebx, eax
	mov	eax, ebx
	not	eax
	mov	edi, eax
	and	edi, 2111191881
	mov	esi, ebx
	and	esi, -2111191882
	or	esi, edi
	and	edx, 2111191881
	and	ecx, -2111191882
	or	ecx, edx
	xor	ecx, esi
	mov	dword ptr [r15], ecx
	mov	edi, dword ptr [r14]
	and	eax, edi
	not	edi
	and	edi, ebx
	or	edi, eax
	call	_ZN5Botan4rotlILm6EjEET0_S1_
	mov	dword ptr [r14], eax
	mov	ecx, dword ptr [r15]
	mov	esi, ecx
	not	esi
	mov	edx, esi
	and	edx, 802376491
	mov	edi, ecx
	and	edi, -802376492
	or	edi, edx
	mov	edx, eax
	not	edx
	and	edx, 802376491
	and	eax, -802376492
	or	eax, edx
	xor	eax, edi
	mov	edx, eax
	xor	edx, -858993460
	and	edx, eax
	mov	eax, edx
	not	eax
	mov	edi, eax
	and	edi, -1241659795
	mov	ebx, edx
	and	ebx, 1241659794
	or	ebx, edi
	and	esi, -1241659795
	and	ecx, 1241659794
	or	ecx, esi
	xor	ecx, ebx
	mov	dword ptr [r15], ecx
	mov	edi, dword ptr [r14]
	mov	ecx, edi
	not	ecx
	and	ecx, -791676820
	and	edi, 791676819
	or	edi, ecx
	and	eax, -791676820
	and	edx, 791676819
	or	edx, eax
	xor	edi, edx
	call	_ZN5Botan4rotlILm18EjEET0_S1_
	mov	dword ptr [r14], eax
	mov	ecx, dword ptr [r15]
	mov	edx, ecx
	not	edx
	mov	esi, eax
	and	esi, edx
	not	eax
	and	eax, ecx
	or	eax, esi
	mov	esi, eax
	not	esi
	or	esi, 65535
	and	edx, eax
	and	ecx, esi
	and	edx, -65536
	or	edx, ecx
	mov	dword ptr [r15], edx
	mov	edi, dword ptr [r14]
	mov	ecx, edi
	not	ecx
	and	ecx, -691107624
	and	edi, 691107623
	or	edi, ecx
	and	esi, -691107624
	and	eax, 691077120
	or	eax, esi
	xor	edi, eax
	call	_ZN5Botan4rotlILm20EjEET0_S1_
	mov	dword ptr [r14], eax
	mov	ecx, dword ptr [r15]
	mov	edx, ecx
	not	edx
	mov	esi, edx
	and	esi, -6068870
	mov	edi, ecx
	and	edi, 6068869
	or	edi, esi
	mov	esi, eax
	not	esi
	and	esi, -6068870
	and	eax, 6068869
	or	eax, esi
	xor	eax, edi
	mov	ebx, eax
	xor	ebx, 252645135
	and	ebx, eax
	mov	eax, ebx
	not	eax
	mov	edi, eax
	and	edi, 604017652
	mov	esi, ebx
	and	esi, -604017653
	or	esi, edi
	and	edx, 604017652
	and	ecx, -604017653
	or	ecx, edx
	xor	ecx, esi
	mov	dword ptr [r15], ecx
	mov	edi, dword ptr [r14]
	and	eax, edi
	not	edi
	and	edi, ebx
	or	edi, eax
	call	_ZN5Botan4rotrILm4EjEET0_S1_
	mov	dword ptr [r14], eax
	pop	rbx
	pop	r14
	pop	r15
	ret
.Lfunc_end7:
	.size	_ZN5Botan12_GLOBAL__N_16des_FPERjS1_, .Lfunc_end7-_ZN5Botan12_GLOBAL__N_16des_FPERjS1_

	.section	.text._ZN5Botan8store_beIjEEvPhT_S2_S2_S2_,"axG",@progbits,_ZN5Botan8store_beIjEEvPhT_S2_S2_S2_,comdat
	.weak	_ZN5Botan8store_beIjEEvPhT_S2_S2_S2_ 
	.p2align	4, 0x90
	.type	_ZN5Botan8store_beIjEEvPhT_S2_S2_S2_,@function
_ZN5Botan8store_beIjEEvPhT_S2_S2_S2_:   
	.cfi_startproc

	push	rbp
.Lcfi19:
	.cfi_def_cfa_offset 16
	push	r15
.Lcfi20:
	.cfi_def_cfa_offset 24
	push	r14
.Lcfi21:
	.cfi_def_cfa_offset 32
	push	r13
.Lcfi22:
	.cfi_def_cfa_offset 40
	push	r12
.Lcfi23:
	.cfi_def_cfa_offset 48
	push	rbx
.Lcfi24:
	.cfi_def_cfa_offset 56
	sub	rsp, 24
.Lcfi25:
	.cfi_def_cfa_offset 80
.Lcfi26:
	.cfi_offset rbx, -56
.Lcfi27:
	.cfi_offset r12, -48
.Lcfi28:
	.cfi_offset r13, -40
.Lcfi29:
	.cfi_offset r14, -32
.Lcfi30:
	.cfi_offset r15, -24
.Lcfi31:
	.cfi_offset rbp, -16
	mov	ebx, r8d
	mov	dword ptr [rsp + 20], ecx 
	mov	dword ptr [rsp + 16], edx 
	mov	r13d, esi
	mov	r12, rdi
	mov	eax, dword ptr [rip + x.23]
	mov	ecx, dword ptr [rip + y.24]
	lea	edx, [rax - 1]
	imul	edx, eax
	not	edx
	or	edx, -2
	cmp	edx, -1
	sete	byte ptr [rsp + 14]
	cmp	ecx, 10
	setl	byte ptr [rsp + 15]
	lea	rbp, [r12 + 4]
	lea	r14, [r12 + 8]
	lea	r15, [r12 + 12]
	mov	eax, 1087653143
	jmp	.LBB8_1
.LBB8_4:                                
	movzx	ecx, byte ptr [rsp + 14]
	movzx	eax, byte ptr [rsp + 15]
	mov	edx, ecx
	xor	dl, al
	mov	edx, 1093137533
	mov	esi, 2120947737
	cmovne	edx, esi
	test	al, al
	mov	eax, edx
	cmovne	eax, esi
	test	cl, cl
	cmove	eax, edx
	.p2align	4, 0x90
.LBB8_1:                                
	cmp	eax, 1093137532
	jg	.LBB8_5

	cmp	eax, -1810863811
	je	.LBB8_8

	cmp	eax, 1087653143
	jne	.LBB8_1
	jmp	.LBB8_4
	.p2align	4, 0x90
.LBB8_5:                                
	cmp	eax, 1093137533
	je	.LBB8_9

	cmp	eax, 2120947737
	jne	.LBB8_1

	mov	edi, r13d
	mov	rsi, r12
	call	_ZN5Botan8store_beEjPh
	mov	edi, dword ptr [rsp + 16] 
	mov	rsi, rbp
	call	_ZN5Botan8store_beEjPh
	mov	edi, dword ptr [rsp + 20] 
	mov	rsi, r14
	call	_ZN5Botan8store_beEjPh
	mov	edi, ebx
	mov	rsi, r15
	call	_ZN5Botan8store_beEjPh
	mov	eax, dword ptr [rip + x.23]
	mov	ecx, dword ptr [rip + y.24]
	lea	edx, [rax - 1]
	imul	edx, eax
	not	edx
	or	edx, -2
	cmp	edx, -1
	sete	al
	cmp	ecx, 10
	mov	esi, ebx
	setl	bl
	xor	bl, al
	mov	ebx, esi
	mov	esi, 1093137533
	mov	edi, -1810863811
	cmovne	esi, edi
	cmp	edx, -1
	mov	eax, esi
	cmove	eax, edi
	cmp	ecx, 10
	cmovge	eax, esi
	jmp	.LBB8_1
.LBB8_9:                                
	mov	edi, r13d
	mov	rsi, r12
	call	_ZN5Botan8store_beEjPh
	mov	edi, dword ptr [rsp + 16] 
	mov	rsi, rbp
	call	_ZN5Botan8store_beEjPh
	mov	edi, dword ptr [rsp + 20] 
	mov	rsi, r14
	call	_ZN5Botan8store_beEjPh
	mov	edi, ebx
	mov	rsi, r15
	call	_ZN5Botan8store_beEjPh
	mov	eax, 2120947737
	jmp	.LBB8_1
.LBB8_8:
	add	rsp, 24
	pop	rbx
	pop	r12
	pop	r13
	pop	r14
	pop	r15
	pop	rbp
	ret
.Lfunc_end8:
	.size	_ZN5Botan8store_beIjEEvPhT_S2_S2_S2_, .Lfunc_end8-_ZN5Botan8store_beIjEEvPhT_S2_S2_S2_
	.cfi_endproc

	.text
	.p2align	4, 0x90         
	.type	_ZN5Botan12_GLOBAL__N_111des_encryptERjS1_PKj,@function
_ZN5Botan12_GLOBAL__N_111des_encryptERjS1_PKj: 

	push	rbp
	push	r15
	push	r14
	push	r13
	push	r12
	push	rbx
	sub	rsp, 24
	mov	rbx, rdx
	mov	r15, rdi
	mov	ebp, dword ptr [r15]
	mov	qword ptr [rsp + 16], rsi 
	mov	eax, dword ptr [rsi]
	xor	ecx, ecx
	movabs	r12, -1887253186848367994
	not	r12
	jmp	.LBB9_1
	.p2align	4, 0x90
.LBB9_7:                                
	mov	edi, dword ptr [rsp]
	call	_ZN5Botan4rotrILm4EjEET0_S1_
	mov	r14, qword ptr [rsp + 8]
	lea	rcx, [r14 + r14]
	lea	rdx, [8*r14]
	mov	r13, -12
	sub	r13, rdx
	mov	edx, dword ptr [rbx + 8*r14]
	mov	edi, edx
	not	edi
	and	edi, eax
	not	eax
	and	eax, edx
	or	edi, eax
	mov	rax, rcx
	not	rax
	movabs	rdx, 2724432831579019910
	and	rax, rdx
	and	rcx, r12
	or	rcx, rax
	movabs	rax, 2724432831579019911
	xor	rcx, rax
	mov	esi, dword ptr [rbx + 4*rcx]
	mov	eax, dword ptr [rsp]
	mov	ecx, eax
	not	ecx
	and	ecx, -1782184501
	and	eax, 1782184500
	or	eax, ecx
	mov	ecx, esi
	not	ecx
	and	ecx, -1782184501
	and	esi, 1782184500
	or	esi, ecx
	xor	esi, eax
	call	_ZN5Botan12_GLOBAL__N_15spboxEjj
	mov	ebp, eax
	mov	eax, dword ptr [rsp + 4]
	mov	ecx, eax
	not	ecx
	and	ecx, 901166182
	and	eax, -901166183
	or	eax, ecx
	mov	ecx, ebp
	not	ecx
	and	ecx, 901166182
	and	ebp, -901166183
	or	ebp, ecx
	xor	ebp, eax
	mov	edi, ebp
	call	_ZN5Botan4rotrILm4EjEET0_S1_
	movabs	rcx, 6577412916947942034
	mov	rdx, rcx
	lea	rcx, [rdx + 2*r14 + 2]
	sub	rcx, rdx
	mov	edi, dword ptr [rbx + 4*rcx]
	mov	ecx, edi
	not	ecx
	and	ecx, -1431822202
	and	edi, 1431822201
	or	edi, ecx
	mov	ecx, eax
	not	ecx
	and	ecx, -1431822202
	and	eax, 1431822201
	or	eax, ecx
	xor	edi, eax
	neg	r13
	mov	esi, dword ptr [rbx + r13]
	mov	eax, ebp
	not	eax
	and	eax, esi
	not	esi
	and	esi, ebp
	or	esi, eax
	call	_ZN5Botan12_GLOBAL__N_15spboxEjj
	mov	ecx, dword ptr [rsp]
	mov	edx, ecx
	not	edx
	and	edx, eax
	not	eax
	and	eax, ecx
	or	eax, edx
	mov	rcx, qword ptr [rsp + 8]
	movabs	rdx, 857779472129579358
	lea	rcx, [rcx + rdx + 2]
	sub	rcx, rdx
.LBB9_1:                                

	mov	edx, -894418893
	jmp	.LBB9_2
.LBB9_5:                                
	mov	qword ptr [rsp + 8], rcx
	mov	dword ptr [rsp], eax
	mov	dword ptr [rsp + 4], ebp
	mov	rdx, qword ptr [rsp + 8]
	cmp	rdx, 16
	mov	edx, 794835742
	mov	esi, 310900594
	cmove	edx, esi
	.p2align	4, 0x90
.LBB9_2:                                

	cmp	edx, 794835742
	je	.LBB9_7

	cmp	edx, 310900594
	je	.LBB9_6

	cmp	edx, -894418893
	jne	.LBB9_2
	jmp	.LBB9_5
.LBB9_6:
	mov	eax, dword ptr [rsp + 4]
	mov	dword ptr [r15], eax
	mov	eax, dword ptr [rsp]
	mov	rcx, qword ptr [rsp + 16] 
	mov	dword ptr [rcx], eax
	add	rsp, 24
	pop	rbx
	pop	r12
	pop	r13
	pop	r14
	pop	r15
	pop	rbp
	ret
.Lfunc_end9:
	.size	_ZN5Botan12_GLOBAL__N_111des_encryptERjS1_PKj, .Lfunc_end9-_ZN5Botan12_GLOBAL__N_111des_encryptERjS1_PKj

	.section	.text._ZN5Botan8store_beIjEEvPhT_S2_,"axG",@progbits,_ZN5Botan8store_beIjEEvPhT_S2_,comdat
	.weak	_ZN5Botan8store_beIjEEvPhT_S2_ 
	.p2align	4, 0x90
	.type	_ZN5Botan8store_beIjEEvPhT_S2_,@function
_ZN5Botan8store_beIjEEvPhT_S2_:         
	.cfi_startproc

	push	rbp
.Lcfi32:
	.cfi_def_cfa_offset 16
	push	r15
.Lcfi33:
	.cfi_def_cfa_offset 24
	push	r14
.Lcfi34:
	.cfi_def_cfa_offset 32
	push	r13
.Lcfi35:
	.cfi_def_cfa_offset 40
	push	r12
.Lcfi36:
	.cfi_def_cfa_offset 48
	push	rbx
.Lcfi37:
	.cfi_def_cfa_offset 56
	push	rax
.Lcfi38:
	.cfi_def_cfa_offset 64
.Lcfi39:
	.cfi_offset rbx, -56
.Lcfi40:
	.cfi_offset r12, -48
.Lcfi41:
	.cfi_offset r13, -40
.Lcfi42:
	.cfi_offset r14, -32
.Lcfi43:
	.cfi_offset r15, -24
.Lcfi44:
	.cfi_offset rbp, -16
	mov	r14d, edx
	mov	r15d, esi
	mov	rbx, rdi
	mov	eax, dword ptr [rip + x.27]
	mov	ecx, dword ptr [rip + y.28]
	mov	edx, eax
	neg	edx
	not	edx
	imul	edx, eax
	not	edx
	or	edx, -2
	cmp	edx, -1
	sete	byte ptr [rsp + 6]
	cmp	ecx, 10
	setl	byte ptr [rsp + 7]
	lea	rbp, [rbx + 4]
	mov	eax, -469330595
	mov	r12d, -1033843078
	mov	r13d, -356990233
	jmp	.LBB10_1
.LBB10_7:                               
	movzx	ecx, byte ptr [rsp + 6]
	movzx	eax, byte ptr [rsp + 7]
	mov	edx, ecx
	xor	dl, al
	mov	edx, -918553970
	cmovne	edx, r13d
	test	al, al
	mov	eax, edx
	cmovne	eax, r13d
	test	cl, cl
	cmove	eax, edx
	.p2align	4, 0x90
.LBB10_1:                               
	mov	ecx, eax
	and	ecx, 1073741823
	cmp	ecx, 604411228
	jg	.LBB10_5

	cmp	ecx, 39898746
	je	.LBB10_9

	cmp	ecx, 155187854
	jne	.LBB10_1

	mov	edi, r15d
	mov	rsi, rbx
	call	_ZN5Botan8store_beEjPh
	mov	edi, r14d
	mov	rsi, rbp
	call	_ZN5Botan8store_beEjPh
	mov	eax, -356990233
	jmp	.LBB10_1
	.p2align	4, 0x90
.LBB10_5:                               
	cmp	ecx, 716751591
	je	.LBB10_8

	cmp	ecx, 604411229
	jne	.LBB10_1
	jmp	.LBB10_7
.LBB10_8:                               
	mov	edi, r15d
	mov	rsi, rbx
	call	_ZN5Botan8store_beEjPh
	mov	edi, r14d
	mov	rsi, rbp
	call	_ZN5Botan8store_beEjPh
	mov	eax, dword ptr [rip + x.27]
	mov	ecx, eax
	neg	ecx
	not	ecx
	imul	ecx, eax
	not	ecx
	or	ecx, -2
	cmp	ecx, -1
	sete	cl
	mov	eax, -918553970
	cmove	eax, r12d
	cmp	dword ptr [rip + y.28], 10
	setl	dl
	mov	esi, -918553970
	cmovge	eax, esi
	xor	dl, cl
	cmovne	eax, r12d
	jmp	.LBB10_1
.LBB10_9:
	add	rsp, 8
	pop	rbx
	pop	r12
	pop	r13
	pop	r14
	pop	r15
	pop	rbp
	ret
.Lfunc_end10:
	.size	_ZN5Botan8store_beIjEEvPhT_S2_, .Lfunc_end10-_ZN5Botan8store_beIjEEvPhT_S2_
	.cfi_endproc

	.text
	.globl	_ZNK5Botan3DES9decrypt_nEPKhPhm 
	.p2align	4, 0x90
	.type	_ZNK5Botan3DES9decrypt_nEPKhPhm,@function
_ZNK5Botan3DES9decrypt_nEPKhPhm:        
	.cfi_startproc

	push	rbp
.Lcfi45:
	.cfi_def_cfa_offset 16
	push	r15
.Lcfi46:
	.cfi_def_cfa_offset 24
	push	r14
.Lcfi47:
	.cfi_def_cfa_offset 32
	push	r13
.Lcfi48:
	.cfi_def_cfa_offset 40
	push	r12
.Lcfi49:
	.cfi_def_cfa_offset 48
	push	rbx
.Lcfi50:
	.cfi_def_cfa_offset 56
	sub	rsp, 136
.Lcfi51:
	.cfi_def_cfa_offset 192
.Lcfi52:
	.cfi_offset rbx, -56
.Lcfi53:
	.cfi_offset r12, -48
.Lcfi54:
	.cfi_offset r13, -40
.Lcfi55:
	.cfi_offset r14, -32
.Lcfi56:
	.cfi_offset r15, -24
.Lcfi57:
	.cfi_offset rbp, -16
	mov	qword ptr [rsp + 80], rcx 
	mov	qword ptr [rsp + 72], rdx 
	mov	qword ptr [rsp + 64], rsi 
	mov	rbx, rdi
	lea	rax, [rbx + 8]
	mov	qword ptr [rsp + 48], rax
	mov	rdi, qword ptr [rsp + 48]
	call	_ZNKSt6vectorIjN5Botan16secure_allocatorIjEEE5emptyEv
	xor	al, 1
	movzx	esi, al
	mov	rdi, rbx
	call	_ZNK5Botan18SymmetricAlgorithm14verify_key_setEb
	mov	eax, 436531149
	lea	r13, [rsp + 12]




	jmp	.LBB11_1
.LBB11_27:                              
	mov	rdi, qword ptr [rsp + 16]
	xor	esi, esi
	call	_ZN5Botan7load_beIjEET_PKhm
	mov	dword ptr [rsp + 12], eax
	mov	rdi, qword ptr [rsp + 16]
	mov	esi, 1
	call	_ZN5Botan7load_beIjEET_PKhm
	mov	dword ptr [rsp + 4], eax
	mov	rdi, qword ptr [rsp + 16]
	mov	esi, 2
	call	_ZN5Botan7load_beIjEET_PKhm
	mov	dword ptr [rsp + 28], eax
	mov	rdi, qword ptr [rsp + 16]
	mov	esi, 3
	call	_ZN5Botan7load_beIjEET_PKhm
	mov	dword ptr [rsp + 24], eax
	mov	rdi, r13
	lea	r15, [rsp + 4]
	mov	rsi, r15
	call	_ZN5Botan12_GLOBAL__N_16des_IPERjS1_
	lea	rbx, [rsp + 28]
	mov	rdi, rbx
	lea	rbp, [rsp + 24]
	mov	rsi, rbp
	call	_ZN5Botan12_GLOBAL__N_16des_IPERjS1_
	mov	rdi, qword ptr [rsp + 48]
	call	_ZNKSt6vectorIjN5Botan16secure_allocatorIjEEE4dataEv
	mov	rdi, r13
	mov	rsi, r15
	mov	rdx, rbx
	mov	rcx, rbp
	mov	r8, rax
	call	_ZN5Botan12_GLOBAL__N_114des_decrypt_x2ERjS1_S1_S1_PKj
	mov	rdi, r13
	mov	rsi, r15
	call	_ZN5Botan12_GLOBAL__N_16des_FPERjS1_
	mov	rdi, rbx
	mov	rsi, rbp
	call	_ZN5Botan12_GLOBAL__N_16des_FPERjS1_
	mov	esi, dword ptr [rsp + 4]
	mov	edx, dword ptr [rsp + 12]
	mov	ecx, dword ptr [rsp + 24]
	mov	r8d, dword ptr [rsp + 28]
	mov	rdi, qword ptr [rsp + 40]
	call	_ZN5Botan8store_beIjEEvPhT_S2_S2_S2_
	mov	rax, qword ptr [rsp + 16]
	mov	rax, qword ptr [rsp + 40]
	mov	rax, qword ptr [rsp + 32]
	mov	rax, qword ptr [rsp + 32]
	mov	rax, qword ptr [rsp + 32]
	mov	rax, qword ptr [rsp + 32]
	mov	rax, qword ptr [rsp + 32]
	mov	rax, qword ptr [rsp + 32]
	mov	eax, 1169910802
	.p2align	4, 0x90
.LBB11_1:                               
	cmp	eax, 833726824
	jle	.LBB11_2

	cmp	eax, 1751818452
	jg	.LBB11_16

	cmp	eax, 833726825
	je	.LBB11_23

	cmp	eax, 1050782883
	je	.LBB11_24

	cmp	eax, 1169910802
	jne	.LBB11_1

	mov	rdi, qword ptr [rsp + 16]
	xor	esi, esi
	call	_ZN5Botan7load_beIjEET_PKhm
	mov	dword ptr [rsp + 12], eax
	mov	rdi, qword ptr [rsp + 16]
	mov	esi, 1
	call	_ZN5Botan7load_beIjEET_PKhm
	mov	dword ptr [rsp + 4], eax
	mov	rdi, qword ptr [rsp + 16]
	mov	esi, 2
	call	_ZN5Botan7load_beIjEET_PKhm
	mov	dword ptr [rsp + 28], eax
	mov	rdi, qword ptr [rsp + 16]
	mov	esi, 3
	call	_ZN5Botan7load_beIjEET_PKhm
	mov	dword ptr [rsp + 24], eax
	mov	rdi, r13
	lea	r15, [rsp + 4]
	mov	rsi, r15
	call	_ZN5Botan12_GLOBAL__N_16des_IPERjS1_
	lea	rbx, [rsp + 28]
	mov	rdi, rbx
	mov	rbp, r13
	lea	r13, [rsp + 24]
	mov	rsi, r13
	call	_ZN5Botan12_GLOBAL__N_16des_IPERjS1_
	mov	rdi, qword ptr [rsp + 48]
	call	_ZNKSt6vectorIjN5Botan16secure_allocatorIjEEE4dataEv
	mov	rdi, rbp
	mov	rsi, r15
	mov	rdx, rbx
	mov	rcx, r13
	mov	r8, rax
	call	_ZN5Botan12_GLOBAL__N_114des_decrypt_x2ERjS1_S1_S1_PKj
	mov	rdi, rbp
	mov	rsi, r15
	call	_ZN5Botan12_GLOBAL__N_16des_FPERjS1_
	mov	rdi, rbx
	mov	rsi, r13
	mov	r13, rbp
	call	_ZN5Botan12_GLOBAL__N_16des_FPERjS1_
	mov	esi, dword ptr [rsp + 4]
	mov	edx, dword ptr [rsp + 12]
	mov	ecx, dword ptr [rsp + 24]
	mov	r8d, dword ptr [rsp + 28]
	mov	rdi, qword ptr [rsp + 40]
	call	_ZN5Botan8store_beIjEEvPhT_S2_S2_S2_
	mov	rax, qword ptr [rsp + 16]
	add	rax, 16
	mov	qword ptr [rsp + 112], rax
	mov	rax, qword ptr [rsp + 40]
	add	rax, 16
	mov	qword ptr [rsp + 120], rax
	mov	rax, qword ptr [rsp + 32]
	movabs	rcx, 5581279921467494463
	lea	rax, [rax + rcx - 2]
	sub	rax, rcx
	mov	qword ptr [rsp + 128], rax
	mov	eax, dword ptr [rip + x.29]
	lea	ecx, [rax - 1]
	imul	ecx, eax
	mov	eax, ecx
	xor	eax, -2
	and	eax, ecx
	sete	cl
	test	eax, eax
	mov	eax, -395672133
	mov	edi, 1050782883
	cmove	eax, edi
	cmp	dword ptr [rip + y.30], 10
	setl	dl
	mov	esi, -395672133
	cmovge	eax, esi
	xor	dl, cl
	cmovne	eax, edi
	jmp	.LBB11_1
	.p2align	4, 0x90
.LBB11_2:                               
	cmp	eax, 72074768
	jg	.LBB11_7

	cmp	eax, -848960389
	je	.LBB11_21

	cmp	eax, -395672133
	je	.LBB11_27

	cmp	eax, -81353943
	jne	.LBB11_1

	mov	rdi, qword ptr [rsp + 56]
	xor	esi, esi
	call	_ZN5Botan7load_beIjEET_PKhm
	mov	dword ptr [rsp + 12], eax
	mov	rdi, qword ptr [rsp + 56]
	mov	esi, 1
	call	_ZN5Botan7load_beIjEET_PKhm
	mov	dword ptr [rsp + 4], eax
	mov	rdi, r13
	lea	rbx, [rsp + 4]
	mov	rsi, rbx
	call	_ZN5Botan12_GLOBAL__N_16des_IPERjS1_
	mov	rdi, qword ptr [rsp + 48]
	call	_ZNKSt6vectorIjN5Botan16secure_allocatorIjEEE4dataEv
	mov	rdi, r13
	mov	rsi, rbx
	mov	rdx, rax
	call	_ZN5Botan12_GLOBAL__N_111des_decryptERjS1_PKj
	mov	rdi, r13
	mov	rsi, rbx
	call	_ZN5Botan12_GLOBAL__N_16des_FPERjS1_
	mov	esi, dword ptr [rsp + 4]
	mov	edx, dword ptr [rsp + 12]
	mov	rdi, qword ptr [rsp + 104]
	call	_ZN5Botan8store_beIjEEvPhT_S2_
	mov	rax, qword ptr [rsp + 56]
	add	rax, 8
	mov	qword ptr [rsp + 88], rax 
	mov	r12, qword ptr [rsp + 104]
	add	r12, 8
	mov	r14, qword ptr [rsp + 96]
	dec	r14
	mov	eax, 72074769
	jmp	.LBB11_1
	.p2align	4, 0x90
.LBB11_16:                              
	cmp	eax, 1751818453
	je	.LBB11_22

	cmp	eax, 1989364362
	je	.LBB11_26

	cmp	eax, 2116763721
	jne	.LBB11_1

	mov	rax, qword ptr [rsp + 16]
	mov	qword ptr [rsp + 88], rax 
	mov	r12, qword ptr [rsp + 40]
	mov	eax, 72074769
	mov	r14, qword ptr [rsp + 32]
	jmp	.LBB11_1
	.p2align	4, 0x90
.LBB11_7:                               
	cmp	eax, 72074769
	je	.LBB11_25

	cmp	eax, 436531149
	je	.LBB11_20

	cmp	eax, 326807796
	jne	.LBB11_1
	jmp	.LBB11_10
.LBB11_23:                              
	mov	eax, dword ptr [rip + x.29]
	lea	ecx, [rax - 1]
	imul	ecx, eax
	not	ecx
	or	ecx, -2
	cmp	ecx, -1
	sete	cl
	mov	eax, -395672133
	mov	esi, 1169910802
	cmove	eax, esi
	cmp	dword ptr [rip + y.30], 10
	setl	dl
	mov	edi, -395672133
	cmovge	eax, edi
	xor	dl, cl
	cmovne	eax, esi
	jmp	.LBB11_1
.LBB11_24:                              
	mov	rax, qword ptr [rsp + 112]
	mov	qword ptr [rsp + 64], rax 
	mov	rax, qword ptr [rsp + 120]
	mov	qword ptr [rsp + 72], rax 
	mov	rax, qword ptr [rsp + 128]
	mov	qword ptr [rsp + 80], rax 
	mov	eax, 436531149
	jmp	.LBB11_1
.LBB11_21:                              
	mov	eax, dword ptr [rip + x.29]
	mov	ecx, dword ptr [rip + y.30]
	mov	edx, eax
	neg	edx
	not	edx
	imul	edx, eax
	mov	eax, edx
	xor	eax, -2
	and	eax, edx
	sete	dl
	cmp	ecx, 10
	setl	bl
	xor	bl, dl
	mov	edx, 1989364362
	mov	esi, 1751818453
	cmovne	edx, esi
	test	eax, eax
	mov	eax, edx
	cmove	eax, esi
	cmp	ecx, 10
	mov	rcx, qword ptr [rsp + 32]
	cmovge	eax, edx
	cmp	rcx, 1
	seta	byte ptr [rsp + 11]
	jmp	.LBB11_1
.LBB11_22:                              
	movzx	eax, byte ptr [rsp + 11]
	test	al, al
	mov	eax, 2116763721
	mov	ecx, 833726825
	cmovne	eax, ecx
	jmp	.LBB11_1
.LBB11_26:                              
	mov	rax, qword ptr [rsp + 32]
	mov	eax, -848960389
	jmp	.LBB11_1
.LBB11_25:                              
	mov	qword ptr [rsp + 96], r14
	mov	qword ptr [rsp + 104], r12
	mov	rax, qword ptr [rsp + 88] 
	mov	qword ptr [rsp + 56], rax
	cmp	qword ptr [rsp + 96], 0
	mov	eax, -81353943
	mov	ecx, 326807796
	cmove	eax, ecx
	jmp	.LBB11_1
.LBB11_20:                              
	mov	eax, dword ptr [rip + x.29]
	mov	ecx, dword ptr [rip + y.30]
	lea	edx, [rax - 1]
	imul	edx, eax
	mov	eax, edx
	xor	eax, -2
	and	eax, edx
	sete	dl
	cmp	ecx, 10
	setl	bl
	xor	bl, dl
	mov	edx, 1989364362
	mov	esi, -848960389
	cmovne	edx, esi
	test	eax, eax
	mov	eax, edx
	cmove	eax, esi
	cmp	ecx, 10
	mov	rcx, qword ptr [rsp + 80] 
	mov	qword ptr [rsp + 32], rcx
	mov	rcx, qword ptr [rsp + 72] 
	mov	qword ptr [rsp + 40], rcx
	mov	rcx, qword ptr [rsp + 64] 
	mov	qword ptr [rsp + 16], rcx
	cmovge	eax, edx
	jmp	.LBB11_1
.LBB11_10:
	add	rsp, 136
	pop	rbx
	pop	r12
	pop	r13
	pop	r14
	pop	r15
	pop	rbp
	ret
.Lfunc_end11:
	.size	_ZNK5Botan3DES9decrypt_nEPKhPhm, .Lfunc_end11-_ZNK5Botan3DES9decrypt_nEPKhPhm
	.cfi_endproc

	.p2align	4, 0x90         
	.type	_ZN5Botan12_GLOBAL__N_114des_decrypt_x2ERjS1_S1_S1_PKj,@function
_ZN5Botan12_GLOBAL__N_114des_decrypt_x2ERjS1_S1_S1_PKj: 

	push	rbp
	push	r15
	push	r14
	push	r13
	push	r12
	push	rbx
	sub	rsp, 56
	mov	r12, r8
	mov	qword ptr [rsp + 24], rdi 
	mov	ebp, dword ptr [rdi]
	mov	qword ptr [rsp + 32], rsi 
	mov	r15d, dword ptr [rsi]
	mov	qword ptr [rsp + 40], rdx 
	mov	r14d, dword ptr [rdx]
	mov	qword ptr [rsp + 48], rcx 
	mov	eax, dword ptr [rcx]
	mov	ecx, 16
	jmp	.LBB12_1
	.p2align	4, 0x90
.LBB12_7:                               
	mov	edi, dword ptr [rsp + 4]
	call	_ZN5Botan4rotrILm4EjEET0_S1_
	mov	r15, qword ptr [rsp + 16]
	lea	rcx, [r15 + r15]
	mov	rdx, rcx
	movabs	rsi, 4981945809092537024
	sub	rdx, rsi
	lea	r14, [rdx + rsi - 2]
	mov	edx, dword ptr [r12 + 4*r14]
	mov	edi, edx
	not	edi
	and	edi, eax
	not	eax
	and	eax, edx
	or	edi, eax
	neg	rcx
	lea	rbx, [4*rcx + 4]
	mov	rax, r12
	sub	rax, rbx
	neg	rbx
	mov	esi, dword ptr [rax]
	mov	eax, dword ptr [rsp + 4]
	mov	ecx, eax
	not	ecx
	and	ecx, -1360220654
	and	eax, 1360220653
	or	eax, ecx
	mov	ecx, esi
	not	ecx
	and	ecx, -1360220654
	and	esi, 1360220653
	or	esi, ecx
	xor	esi, eax
	call	_ZN5Botan12_GLOBAL__N_15spboxEjj
	mov	ebp, eax
	mov	eax, dword ptr [rsp + 12]
	mov	ecx, eax
	not	ecx
	and	ecx, 1723032961
	and	eax, -1723032962
	or	eax, ecx
	mov	ecx, ebp
	not	ecx
	and	ecx, 1723032961
	and	ebp, -1723032962
	or	ebp, ecx
	xor	ebp, eax
	mov	edi, dword ptr [rsp]
	call	_ZN5Botan4rotrILm4EjEET0_S1_
	mov	edi, dword ptr [r12 + 4*r14]
	mov	ecx, edi
	not	ecx
	and	ecx, -1747631317
	and	edi, 1747631316
	or	edi, ecx
	mov	ecx, eax
	not	ecx
	and	ecx, -1747631317
	and	eax, 1747631316
	or	eax, ecx
	xor	edi, eax
	mov	esi, dword ptr [r12 + rbx]
	mov	eax, dword ptr [rsp]
	mov	ecx, eax
	not	ecx
	and	ecx, esi
	not	esi
	and	esi, eax
	or	esi, ecx
	call	_ZN5Botan12_GLOBAL__N_15spboxEjj
	mov	r14d, eax
	mov	eax, dword ptr [rsp + 8]
	mov	ecx, eax
	not	ecx
	and	ecx, r14d
	not	r14d
	and	r14d, eax
	or	r14d, ecx
	mov	edi, ebp
	call	_ZN5Botan4rotrILm4EjEET0_S1_
	shl	r15, 3
	mov	ebx, 16
	sub	rbx, r15
	mov	rcx, r12
	sub	rcx, rbx
	neg	rbx
	mov	ecx, dword ptr [rcx]
	mov	edi, ecx
	not	edi
	and	edi, eax
	not	eax
	and	eax, ecx
	or	edi, eax
	mov	r13d, 12
	sub	r13, r15
	mov	rax, r12
	sub	rax, r13
	neg	r13
	mov	esi, dword ptr [rax]
	mov	eax, ebp
	not	eax
	and	eax, esi
	not	esi
	and	esi, ebp
	or	esi, eax
	call	_ZN5Botan12_GLOBAL__N_15spboxEjj
	mov	r15d, eax
	mov	eax, dword ptr [rsp + 4]
	mov	ecx, eax
	not	ecx
	and	ecx, 707885352
	and	eax, -707885353
	or	eax, ecx
	mov	ecx, r15d
	not	ecx
	and	ecx, 707885352
	and	r15d, -707885353
	or	r15d, ecx
	xor	r15d, eax
	mov	edi, r14d
	call	_ZN5Botan4rotrILm4EjEET0_S1_
	mov	ecx, dword ptr [r12 + rbx]
	mov	edi, ecx
	not	edi
	and	edi, eax
	not	eax
	and	eax, ecx
	or	edi, eax
	mov	esi, dword ptr [r12 + r13]
	mov	eax, esi
	not	eax
	and	eax, 205618428
	and	esi, -205618429
	or	esi, eax
	mov	eax, r14d
	not	eax
	and	eax, 205618428
	mov	ecx, r14d
	and	ecx, -205618429
	or	ecx, eax
	xor	esi, ecx
	call	_ZN5Botan12_GLOBAL__N_15spboxEjj
	mov	ecx, dword ptr [rsp]
	mov	edx, ecx
	not	edx
	and	edx, -609259720
	and	ecx, 609259719
	or	ecx, edx
	mov	edx, eax
	not	edx
	and	edx, -609259720
	and	eax, 609259719
	or	eax, edx
	xor	eax, ecx
	mov	rcx, qword ptr [rsp + 16]
	add	rcx, -2
.LBB12_1:                               

	mov	edx, -1183415401
	jmp	.LBB12_2
.LBB12_5:                               
	mov	qword ptr [rsp + 16], rcx
	mov	dword ptr [rsp], eax
	mov	dword ptr [rsp + 8], r14d
	mov	dword ptr [rsp + 4], r15d
	mov	dword ptr [rsp + 12], ebp
	cmp	qword ptr [rsp + 16], 0
	mov	edx, -290364369
	mov	esi, -775977507
	cmove	edx, esi
	.p2align	4, 0x90
.LBB12_2:                               

	mov	esi, edx
	and	esi, 2147483647
	cmp	esi, 1857119279
	je	.LBB12_7

	cmp	esi, 1371506141
	je	.LBB12_6

	cmp	esi, 964068247
	jne	.LBB12_2
	jmp	.LBB12_5
.LBB12_6:
	mov	eax, dword ptr [rsp + 12]
	mov	rcx, qword ptr [rsp + 24] 
	mov	dword ptr [rcx], eax
	mov	eax, dword ptr [rsp + 4]
	mov	rcx, qword ptr [rsp + 32] 
	mov	dword ptr [rcx], eax
	mov	eax, dword ptr [rsp + 8]
	mov	rcx, qword ptr [rsp + 40] 
	mov	dword ptr [rcx], eax
	mov	eax, dword ptr [rsp]
	mov	rcx, qword ptr [rsp + 48] 
	mov	dword ptr [rcx], eax
	add	rsp, 56
	pop	rbx
	pop	r12
	pop	r13
	pop	r14
	pop	r15
	pop	rbp
	ret
.Lfunc_end12:
	.size	_ZN5Botan12_GLOBAL__N_114des_decrypt_x2ERjS1_S1_S1_PKj, .Lfunc_end12-_ZN5Botan12_GLOBAL__N_114des_decrypt_x2ERjS1_S1_S1_PKj

	.p2align	4, 0x90         
	.type	_ZN5Botan12_GLOBAL__N_111des_decryptERjS1_PKj,@function
_ZN5Botan12_GLOBAL__N_111des_decryptERjS1_PKj: 

	push	rbp
	push	r15
	push	r14
	push	r13
	push	r12
	push	rbx
	sub	rsp, 24
	mov	r13, rdx
	mov	r14, rsi
	mov	r15, rdi
	mov	ebp, dword ptr [r15]
	mov	eax, dword ptr [r14]
	mov	r8d, 16
	jmp	.LBB13_1
	.p2align	4, 0x90
.LBB13_13:                              
	mov	edi, dword ptr [rsp + 8]
	call	_ZN5Botan4rotrILm4EjEET0_S1_
	mov	r12, qword ptr [rsp + 16]
	lea	rcx, [8*r12]
	mov	edx, 8
	sub	rdx, rcx
	neg	rdx
	mov	edi, dword ptr [r13 + rdx]
	mov	ecx, edi
	not	ecx
	and	ecx, 2133836620
	and	edi, -2133836621
	or	edi, ecx
	mov	ecx, eax
	not	ecx
	and	ecx, 2133836620
	and	eax, -2133836621
	or	eax, ecx
	xor	edi, eax
	mov	esi, dword ptr [r13 + 8*r12 - 4]
	mov	eax, dword ptr [rsp + 8]
	mov	ecx, eax
	not	ecx
	and	ecx, 2061583653
	and	eax, -2061583654
	or	eax, ecx
	mov	ecx, esi
	not	ecx
	and	ecx, 2061583653
	and	esi, -2061583654
	or	esi, ecx
	xor	esi, eax
	call	_ZN5Botan12_GLOBAL__N_15spboxEjj
	mov	ebp, eax
	mov	eax, dword ptr [rsp + 12]
	mov	ecx, eax
	not	ecx
	and	ecx, ebp
	not	ebp
	and	ebp, eax
	or	ebp, ecx
	mov	edi, ebp
	call	_ZN5Botan4rotrILm4EjEET0_S1_
	movabs	rcx, 8044846972605917715
	mov	rdx, rcx
	lea	rcx, [rdx + 2*r12 - 4]
	sub	rcx, rdx
	mov	edi, dword ptr [r13 + 4*rcx]
	mov	ecx, edi
	not	ecx
	and	ecx, -913851108
	and	edi, 913851107
	or	edi, ecx
	mov	ecx, eax
	not	ecx
	and	ecx, -913851108
	and	eax, 913851107
	or	eax, ecx
	xor	edi, eax
	mov	esi, dword ptr [r13 + 8*r12 - 12]
	mov	eax, esi
	not	eax
	and	eax, -2142493162
	and	esi, 2142493161
	or	esi, eax
	mov	eax, ebp
	not	eax
	and	eax, -2142493162
	mov	ecx, ebp
	and	ecx, 2142493161
	or	ecx, eax
	xor	esi, ecx
	call	_ZN5Botan12_GLOBAL__N_15spboxEjj
	mov	ecx, dword ptr [rsp + 8]
	mov	edx, ecx
	not	edx
	and	edx, eax
	not	eax
	and	eax, ecx
	or	eax, edx
	mov	rcx, qword ptr [rsp + 16]
	movabs	rdx, -1054512390611939697
	sub	rcx, rdx
	lea	r8, [rcx + rdx - 2]
.LBB13_1:                               

	mov	edx, 2032367052
	jmp	.LBB13_2
.LBB13_10:                              
	mov	qword ptr [rsp + 16], r8
	mov	dword ptr [rsp + 8], eax
	mov	dword ptr [rsp + 12], ebp
	mov	edx, dword ptr [rip + x.33]
	lea	esi, [rdx - 1]
	imul	esi, edx
	not	esi
	or	esi, -2
	cmp	esi, -1
	sete	bl
	mov	edx, -1778792292
	mov	edi, -1880309935
	cmove	edx, edi
	cmp	dword ptr [rip + y.34], 10
	setl	cl
	mov	esi, -1778792292
	cmovge	edx, esi
	xor	cl, bl
	cmovne	edx, edi
	.p2align	4, 0x90
.LBB13_2:                               

	cmp	edx, -992872462
	jg	.LBB13_7

	cmp	edx, -1880309935
	je	.LBB13_11

	cmp	edx, -1778792292
	je	.LBB13_14

	cmp	edx, -1655954717
	jne	.LBB13_2
	jmp	.LBB13_6
	.p2align	4, 0x90
.LBB13_7:                               
	cmp	edx, -992872461
	je	.LBB13_12

	cmp	edx, -410965600
	je	.LBB13_13

	cmp	edx, 2032367052
	jne	.LBB13_2
	jmp	.LBB13_10
.LBB13_11:                              
	mov	ecx, dword ptr [rip + x.33]
	mov	esi, dword ptr [rip + y.34]
	lea	edx, [rcx - 1]
	imul	edx, ecx
	mov	ecx, edx
	xor	ecx, -2
	and	ecx, edx
	sete	dl
	cmp	esi, 10
	setl	bl
	xor	bl, dl
	mov	ebx, -1778792292
	mov	edi, -992872461
	cmovne	ebx, edi
	test	ecx, ecx
	mov	edx, ebx
	cmove	edx, edi
	cmp	esi, 10
	cmovge	edx, ebx
	cmp	qword ptr [rsp + 16], 0
	setne	byte ptr [rsp + 7]
	jmp	.LBB13_2
.LBB13_14:                              
	mov	rcx, qword ptr [rsp + 16]
	mov	edx, -1880309935
	jmp	.LBB13_2
.LBB13_12:                              
	movzx	ecx, byte ptr [rsp + 7]
	test	cl, cl
	mov	edx, -1655954717
	mov	ecx, -410965600
	cmovne	edx, ecx
	jmp	.LBB13_2
.LBB13_6:
	mov	eax, dword ptr [rsp + 12]
	mov	dword ptr [r15], eax
	mov	eax, dword ptr [rsp + 8]
	mov	dword ptr [r14], eax
	add	rsp, 24
	pop	rbx
	pop	r12
	pop	r13
	pop	r14
	pop	r15
	pop	rbp
	ret
.Lfunc_end13:
	.size	_ZN5Botan12_GLOBAL__N_111des_decryptERjS1_PKj, .Lfunc_end13-_ZN5Botan12_GLOBAL__N_111des_decryptERjS1_PKj

	.globl	_ZN5Botan3DES12key_scheduleEPKhm 
	.p2align	4, 0x90
	.type	_ZN5Botan3DES12key_scheduleEPKhm,@function
_ZN5Botan3DES12key_scheduleEPKhm:       
	.cfi_startproc

	push	r14
.Lcfi58:
	.cfi_def_cfa_offset 16
	push	rbx
.Lcfi59:
	.cfi_def_cfa_offset 24
	push	rax
.Lcfi60:
	.cfi_def_cfa_offset 32
.Lcfi61:
	.cfi_offset rbx, -24
.Lcfi62:
	.cfi_offset r14, -16
	mov	r14, rsi
	mov	rbx, rdi
	add	rbx, 8
	mov	esi, 32
	mov	rdi, rbx
	call	_ZNSt6vectorIjN5Botan16secure_allocatorIjEEE6resizeEm
	mov	rdi, rbx
	call	_ZNSt6vectorIjN5Botan16secure_allocatorIjEEE4dataEv
	mov	rdi, rax
	mov	rsi, r14
	add	rsp, 8
	pop	rbx
	pop	r14
	jmp	_ZN5Botan12_GLOBAL__N_116des_key_scheduleEPjPKh 
.Lfunc_end14:
	.size	_ZN5Botan3DES12key_scheduleEPKhm, .Lfunc_end14-_ZN5Botan3DES12key_scheduleEPKhm
	.cfi_endproc

	.section	.text._ZNSt6vectorIjN5Botan16secure_allocatorIjEEE6resizeEm,"axG",@progbits,_ZNSt6vectorIjN5Botan16secure_allocatorIjEEE6resizeEm,comdat
	.weak	_ZNSt6vectorIjN5Botan16secure_allocatorIjEEE6resizeEm 
	.p2align	4, 0x90
	.type	_ZNSt6vectorIjN5Botan16secure_allocatorIjEEE6resizeEm,@function
_ZNSt6vectorIjN5Botan16secure_allocatorIjEEE6resizeEm: 
	.cfi_startproc

	push	rbp
.Lcfi63:
	.cfi_def_cfa_offset 16
	push	r15
.Lcfi64:
	.cfi_def_cfa_offset 24
	push	r14
.Lcfi65:
	.cfi_def_cfa_offset 32
	push	r13
.Lcfi66:
	.cfi_def_cfa_offset 40
	push	r12
.Lcfi67:
	.cfi_def_cfa_offset 48
	push	rbx
.Lcfi68:
	.cfi_def_cfa_offset 56
	sub	rsp, 24
.Lcfi69:
	.cfi_def_cfa_offset 80
.Lcfi70:
	.cfi_offset rbx, -56
.Lcfi71:
	.cfi_offset r12, -48
.Lcfi72:
	.cfi_offset r13, -40
.Lcfi73:
	.cfi_offset r14, -32
.Lcfi74:
	.cfi_offset r15, -24
.Lcfi75:
	.cfi_offset rbp, -16
	mov	r14, rsi
	mov	rbp, rdi
	movabs	r15, -8591884772604816769
	movabs	r12, 4031782460588408774
	call	_ZNKSt6vectorIjN5Botan16secure_allocatorIjEEE4sizeEv
	cmp	rax, r14
	setb	byte ptr [rsp + 15]
	mov	eax, 1053791806
	mov	r13, r14
	sub	r13, r12
	jmp	.LBB15_1
.LBB15_5:                               
	mov	rax, qword ptr [rsp + 16]
	mov	rsi, r14
	sub	rsi, r15
	sub	rsi, rax
	add	rsi, r15
	mov	rdi, rbp
	call	_ZNSt6vectorIjN5Botan16secure_allocatorIjEEE17_M_default_appendEm
	mov	eax, -1551425303
	.p2align	4, 0x90
.LBB15_1:                               
	cmp	eax, 1053791805
	jg	.LBB15_9

	cmp	eax, -583743168
	jg	.LBB15_6

	cmp	eax, -1551425303
	je	.LBB15_22

	cmp	eax, -1242868387
	jne	.LBB15_1
	jmp	.LBB15_5
	.p2align	4, 0x90
.LBB15_9:                               
	cmp	eax, 1954113254
	jle	.LBB15_10

	cmp	eax, 1954113255
	je	.LBB15_26

	cmp	eax, 1996841077
	jne	.LBB15_1

	mov	eax, dword ptr [rip + x.37]
	mov	ecx, dword ptr [rip + y.38]
	lea	esi, [rax - 1]
	imul	esi, eax
	mov	edx, esi
	xor	edx, -2
	and	edx, esi
	sete	al
	cmp	ecx, 10
	setl	bl
	xor	bl, al
	mov	esi, -1551425303
	mov	eax, -1551425303
	jne	.LBB15_17

	mov	eax, -1242868387
.LBB15_17:                              
	test	edx, edx
	je	.LBB15_19

	mov	esi, eax
.LBB15_19:                              
	cmp	ecx, 10
	cmovl	eax, esi
	jmp	.LBB15_1
	.p2align	4, 0x90
.LBB15_6:                               
	cmp	eax, -583743167
	je	.LBB15_27

	cmp	eax, 171270668
	jne	.LBB15_1

	mov	rax, qword ptr [rbp]
	lea	rsi, [rax + 4*r14]
	mov	rdi, rbp
	call	_ZNSt6vectorIjN5Botan16secure_allocatorIjEEE15_M_erase_at_endEPj
	mov	eax, 1597899701
	jmp	.LBB15_1
	.p2align	4, 0x90
.LBB15_10:                              
	cmp	eax, 1053791806
	je	.LBB15_20

	cmp	eax, 1597899701
	jne	.LBB15_1
	jmp	.LBB15_12
.LBB15_22:                              
	mov	rax, qword ptr [rsp + 16]
	mov	rsi, r13
	sub	rsi, rax
	add	rsi, r12
	mov	rdi, rbp
	call	_ZNSt6vectorIjN5Botan16secure_allocatorIjEEE17_M_default_appendEm
	mov	eax, dword ptr [rip + x.37]
	mov	ecx, dword ptr [rip + y.38]
	lea	edx, [rax - 1]
	imul	edx, eax
	not	edx
	or	edx, -2
	cmp	edx, -1
	sete	bl
	mov	eax, 1954113255
	mov	edx, -1242868387
	mov	esi, 1954113255
	je	.LBB15_24

	mov	esi, -1242868387
.LBB15_24:                              
	cmp	ecx, 10
	setl	cl
	cmovl	edx, esi
	xor	cl, bl
	jne	.LBB15_1

	mov	eax, edx
	jmp	.LBB15_1
.LBB15_26:                              
	mov	eax, 1597899701
	jmp	.LBB15_1
.LBB15_27:                              
	mov	rax, qword ptr [rsp + 16]
	cmp	rax, r14
	mov	eax, 171270668
	ja	.LBB15_1

	mov	eax, 1597899701
	jmp	.LBB15_1
.LBB15_20:                              
	mov	rdi, rbp
	call	_ZNKSt6vectorIjN5Botan16secure_allocatorIjEEE4sizeEv
	mov	qword ptr [rsp + 16], rax
	movzx	eax, byte ptr [rsp + 15]
	test	al, al
	mov	eax, 1996841077
	jne	.LBB15_1

	mov	eax, -583743167
	jmp	.LBB15_1
.LBB15_12:
	add	rsp, 24
	pop	rbx
	pop	r12
	pop	r13
	pop	r14
	pop	r15
	pop	rbp
	ret
.Lfunc_end15:
	.size	_ZNSt6vectorIjN5Botan16secure_allocatorIjEEE6resizeEm, .Lfunc_end15-_ZNSt6vectorIjN5Botan16secure_allocatorIjEEE6resizeEm
	.cfi_endproc

	.text
	.p2align	4, 0x90         
	.type	_ZN5Botan12_GLOBAL__N_116des_key_scheduleEPjPKh,@function
_ZN5Botan12_GLOBAL__N_116des_key_scheduleEPjPKh: 

	push	rbp
	push	r15
	push	r14
	push	r13
	push	r12
	push	rbx
	mov	qword ptr [rsp - 8], rdi 
	movzx	ecx, byte ptr [rsi + 7]
	mov	eax, ecx
	mov	edi, ecx
	shl	eax, 20
	and	eax, 134217728
	movzx	r12d, byte ptr [rsi + 6]
	movzx	edx, byte ptr [rsi + 5]
	mov	ecx, edx
	mov	r8d, edx
	shl	ecx, 18
	mov	r15d, ecx
	xor	r15d, 33292288
	and	r15d, ecx
	movzx	edx, byte ptr [rsi + 4]
	mov	ecx, edx
	mov	rbp, rdx
	mov	qword ptr [rsp - 32], rbp 
	shl	ecx, 17
	mov	r10d, ecx
	xor	r10d, 16646144
	and	r10d, ecx
	movzx	ecx, byte ptr [rsi + 2]
	mov	qword ptr [rsp - 16], rcx 

	shl	ecx, 15
	mov	edx, ecx
	xor	edx, 4161536
	and	edx, ecx
	mov	dword ptr [rsp - 76], edx 
	movzx	ecx, byte ptr [rsi]
	mov	qword ptr [rsp - 40], rcx 

	shl	ecx, 13
	mov	edx, ecx
	xor	edx, 1040384
	and	edx, ecx
	mov	dword ptr [rsp - 88], edx 
	mov	ecx, edi
	mov	edx, edi
	shl	ecx, 13
	mov	ebx, ecx
	xor	ebx, 1564672
	and	ebx, ecx
	or	ebx, eax
	mov	eax, r12d
	shl	eax, 12
	mov	edi, eax
	xor	edi, 782336
	and	edi, eax
	mov	eax, r8d
	mov	r11d, r8d
	mov	dword ptr [rsp - 84], r11d 
	shl	eax, 11
	mov	r8d, eax
	xor	r8d, 391168
	and	r8d, eax
	mov	eax, ebp
	shl	eax, 10
	mov	r9d, eax
	xor	r9d, 195584
	and	r9d, eax
	movzx	eax, byte ptr [rsi + 3]
	mov	qword ptr [rsp - 48], rax 

	shl	eax, 9
	mov	r13d, eax
	xor	r13d, 97792
	and	r13d, eax
	movzx	eax, byte ptr [rsi + 1]
	mov	qword ptr [rsp - 72], rax 

	shl	eax, 7
	mov	r14d, eax
	xor	r14d, 24448
	and	r14d, eax
	mov	eax, edx
	mov	dword ptr [rsp - 80], eax 
	shl	edx, 6
	mov	ecx, edx
	xor	ecx, 14272
	and	ecx, edx
	mov	edx, r12d
	shl	edx, 5
	mov	ebp, edx
	xor	ebp, 7136
	and	ebp, edx
	mov	edx, r11d
	shl	edx, 4
	mov	r11d, edx
	xor	r11d, 3568
	and	r11d, edx
	mov	edx, r12d
	shr	edx, 2
	mov	esi, edx
	xor	esi, 59
	and	esi, edx
	mov	edx, ebx
	and	edx, ecx
	xor	ecx, ebx
	or	ecx, edx
	mov	edx, eax
	shr	edx
	mov	ebx, edx
	not	ebx
	mov	eax, ecx
	not	eax
	or	ebx, eax
	and	eax, 117296645
	and	ecx, 134361536
	or	ecx, eax
	and	edx, 8
	or	edx, 117296645
	xor	edx, ecx
	not	ebx
	and	ebx, 8
	or	ebx, edx
	mov	eax, r12d
	shl	eax, 19
	and	eax, 67108864
	mov	ecx, ebx
	and	ecx, eax
	xor	ebx, eax
	or	ebx, ecx
	mov	edx, ebx
	not	edx
	mov	eax, edx
	and	eax, -1116002731
	and	ebx, 1116002730
	or	ebx, eax
	mov	eax, edi
	not	eax
	or	edx, eax
	and	eax, -1116002731
	and	edi, 315392
	or	edi, eax
	xor	edi, ebx
	not	edx
	or	edx, edi
	mov	eax, edx
	not	eax
	mov	ecx, eax
	and	ecx, 1338886455
	and	edx, -1338886456
	or	edx, ecx
	mov	ecx, ebp
	not	ecx
	or	eax, ecx
	and	ecx, 1338886455
	and	ebp, 5824
	or	ebp, ecx
	xor	ebp, edx
	not	eax
	or	eax, ebp
	mov	ecx, eax
	and	ecx, esi
	xor	eax, esi
	or	eax, ecx
	mov	edx, eax
	not	edx
	mov	ecx, edx
	and	ecx, -683417500
	and	eax, 683417499
	or	eax, ecx
	mov	ecx, r15d
	not	ecx
	or	edx, ecx
	and	ecx, -683417500
	and	r15d, 12320768
	or	r15d, ecx
	xor	r15d, eax
	not	edx
	or	edx, r15d
	mov	eax, edx
	not	eax
	mov	ecx, eax
	and	ecx, 1264272245
	and	edx, -1264272246
	or	edx, ecx
	mov	ecx, r8d
	not	ecx
	or	eax, ecx
	and	ecx, 1264272245
	and	r8d, 309248
	or	r8d, ecx
	xor	r8d, edx
	not	eax
	or	eax, r8d
	mov	ecx, eax
	and	ecx, r11d
	xor	eax, r11d
	or	eax, ecx
	mov	edx, dword ptr [rsp - 84] 
	shr	edx, 3
	mov	ecx, edx
	not	ecx
	mov	esi, eax
	not	esi
	or	ecx, esi
	and	esi, -542522348
	and	eax, 542522347
	or	eax, esi
	and	edx, 2
	or	edx, -542522348
	xor	edx, eax
	not	ecx
	and	ecx, 2
	or	ecx, edx
	mov	eax, ecx
	not	eax
	mov	edx, eax
	and	edx, -424554032
	and	ecx, 424554031
	or	ecx, edx
	mov	edx, r10d
	not	edx
	or	eax, edx
	and	edx, -424554032
	and	r10d, 21889024
	or	r10d, edx
	xor	r10d, ecx
	not	eax
	or	eax, r10d
	mov	ecx, eax
	not	ecx
	mov	edx, ecx
	and	edx, 1393604134
	and	eax, -1393604135
	or	eax, edx
	mov	edx, r9d
	not	edx
	or	ecx, edx
	and	edx, 1393604134
	and	r9d, 215040
	or	r9d, edx
	xor	r9d, eax
	not	ecx
	or	ecx, r9d
	mov	rdi, qword ptr [rsp - 32] 
	lea	edx, [8*rdi]
	mov	eax, edx
	not	eax
	mov	esi, ecx
	not	esi
	or	eax, esi
	and	esi, 2113501755
	and	ecx, -2113501756
	or	ecx, esi
	and	edx, 256
	or	edx, 2113501755
	xor	edx, ecx
	not	eax
	and	eax, 256
	or	eax, edx
	mov	ecx, edi
	mov	rbx, rdi
	shr	ecx, 4
	and	ecx, 1
	mov	edx, eax
	and	edx, ecx
	xor	eax, ecx
	or	eax, edx
	mov	rsi, qword ptr [rsp - 48] 
	mov	ecx, esi
	shl	ecx, 16
	and	ecx, 8388608
	mov	edx, eax
	and	edx, ecx
	xor	eax, ecx
	or	eax, edx
	mov	ecx, eax
	and	ecx, r13d
	xor	eax, r13d
	lea	edx, [4*rsi]
	or	eax, ecx
	mov	ecx, edx
	not	ecx
	mov	esi, eax
	not	esi
	or	ecx, esi
	and	esi, -145354222
	and	eax, 145354221
	or	eax, esi
	and	edx, 128
	or	edx, -145354222
	xor	edx, eax
	mov	rsi, qword ptr [rsp - 16] 
	mov	edi, esi
	shl	edi, 8
	not	edi
	or	edi, -16385
	not	ecx
	and	ecx, 128
	or	ecx, edx
	mov	eax, ecx
	mov	edx, dword ptr [rsp - 76] 
	and	eax, edx
	xor	ecx, edx
	or	ecx, eax
	mov	eax, ecx
	not	eax
	mov	edx, eax
	and	edx, -371589409
	and	ecx, 371589408
	or	ecx, edx
	lea	edx, [rsi + rsi]
	mov	r8, rsi
	and	edx, 64
	or	eax, edi
	and	edi, -371589409
	xor	edi, ecx
	mov	rcx, qword ptr [rsp - 72] 
	mov	esi, ecx
	xor	esi, 223
	and	esi, ecx
	mov	rbp, rcx
	not	eax
	or	eax, edi
	mov	ecx, eax
	and	ecx, edx
	xor	eax, edx
	or	eax, ecx
	mov	ecx, eax
	not	ecx
	mov	edx, ecx
	and	edx, 674395256
	and	eax, -674395257
	or	eax, edx
	mov	edx, esi
	not	edx
	or	ecx, edx
	and	edx, 674395256
	and	esi, 135
	or	esi, edx
	mov	edi, ebp
	mov	r11, rbp
	shl	edi, 14
	and	edi, 2097152
	xor	esi, eax
	mov	rbp, qword ptr [rsp - 40] 
	mov	edx, ebp
	and	edx, 64
	shl	edx, 6
	not	ecx
	or	ecx, esi
	mov	eax, ecx
	and	eax, edi
	xor	ecx, edi
	or	ecx, eax
	mov	eax, ecx
	not	eax
	mov	esi, eax
	and	esi, 1904840972
	and	ecx, -1904840973
	or	ecx, esi
	mov	esi, r14d
	not	esi
	or	eax, esi
	and	esi, 1904840972
	and	r14d, 28288
	or	r14d, esi
	mov	esi, ebp
	mov	r15, rbp
	shr	esi
	xor	r14d, ecx
	mov	edi, esi
	not	edi
	and	esi, 16
	not	eax
	or	eax, r14d
	mov	ecx, eax
	mov	ebp, dword ptr [rsp - 88] 
	and	ecx, ebp
	xor	eax, ebp
	or	eax, ecx
	mov	ecx, eax
	and	ecx, edx
	xor	eax, edx
	or	eax, ecx
	mov	ecx, eax
	not	ecx
	or	edi, ecx
	not	edi
	and	ecx, -534790651
	and	eax, 534790650
	or	eax, ecx
	or	esi, -534790651
	xor	esi, eax
	and	edi, 16
	or	edi, esi
	mov	dword ptr [rsp - 88], edi 
	mov	r9d, dword ptr [rsp - 80] 
	mov	eax, r9d
	shl	eax, 26
	mov	ecx, eax
	xor	ecx, -201326592
	and	ecx, eax
	mov	dword ptr [rsp - 24], r12d 
	mov	eax, r12d
	shl	eax, 25
	mov	edx, eax
	xor	edx, -100663296
	and	edx, eax
	mov	eax, ebx
	shl	eax, 23
	mov	r10d, eax
	xor	r10d, 2122317824
	and	r10d, eax
	mov	eax, r8d
	shl	eax, 21
	mov	r13d, eax
	xor	r13d, 530579456
	and	r13d, eax
	mov	edi, r11d
	shl	edi, 20
	mov	eax, edi
	xor	eax, 265289728
	and	eax, edi
	mov	dword ptr [rsp - 76], eax 
	shl	r12d, 16
	mov	r11d, r12d
	xor	r11d, 16449536
	and	r11d, r12d
	mov	eax, ebx
	shl	eax, 14
	mov	r8d, eax
	xor	r8d, 4112384
	and	r8d, eax
	mov	eax, r15d
	shl	eax, 10
	mov	edi, eax
	xor	edi, 257024
	and	edi, eax
	mov	dword ptr [rsp - 20], edi 
	mov	eax, r9d
	mov	r15d, eax
	shl	eax, 8
	mov	r12d, eax
	xor	r12d, 63232
	and	r12d, eax
	mov	edi, dword ptr [rsp - 84] 
	mov	r9d, edi
	mov	ebp, edi
	shl	edi, 6
	mov	esi, edi
	xor	esi, 15808
	and	esi, edi
	shl	ebx, 5
	mov	edi, ebx
	xor	edi, 7904
	and	edi, ebx
	mov	rax, qword ptr [rsp - 72] 
	lea	r14d, [4*rax]
	mov	ebx, r14d
	xor	ebx, 988
	and	ebx, r14d
	mov	dword ptr [rsp - 84], ebx 
	mov	rbx, qword ptr [rsp - 48] 
	mov	r14d, ebx
	mov	eax, ebx
	mov	dword ptr [rsp - 32], eax 
	mov	dword ptr [rsp - 80], eax 
	shr	ebx
	mov	eax, ebx
	xor	eax, 119
	and	eax, ebx
	mov	dword ptr [rsp - 48], eax 
	mov	ebx, ecx
	not	ebx
	and	ebx, -983925704
	and	ecx, 939524096
	or	ecx, ebx
	shl	r15d, 17
	not	r15d
	or	r15d, -984449992
	and	r15d, -983925704
	xor	ecx, r15d
	mov	ebx, ecx
	and	ebx, r12d
	xor	ecx, r12d
	or	ecx, ebx
	mov	r15d, ecx
	not	r15d
	mov	ebx, r15d
	and	ebx, -587232813
	and	ecx, 553678376
	or	ecx, ebx
	mov	ebx, edx
	not	ebx
	or	r15d, ebx
	and	ebx, -587232813
	and	edx, 570425344
	or	edx, ebx
	xor	edx, ecx
	not	r15d
	or	r15d, edx
	mov	ecx, r15d
	and	ecx, r11d
	xor	r15d, r11d
	or	r15d, ecx
	mov	edx, dword ptr [rsp - 24] 
	shl	edx, 7
	mov	ebx, edx
	not	ebx
	mov	ecx, r15d
	not	ecx
	or	ebx, ecx
	and	ecx, -116571466
	and	r15d, 116571465
	or	r15d, ecx
	and	edx, 1024
	or	edx, -116571466
	xor	edx, r15d
	not	ebx
	and	ebx, 1024
	or	ebx, edx
	mov	ecx, ebx
	not	ecx
	mov	edx, ecx
	and	edx, 1269115418
	and	ebx, -1269115419
	or	ebx, edx
	shl	r9d, 24
	not	r9d
	or	r9d, -33554433
	or	ecx, r9d
	and	r9d, 1269115418
	xor	r9d, ebx
	not	ecx
	or	ecx, r9d
	and	ebp, 4
	shl	ebp, 15
	mov	edx, ecx
	and	edx, ebp
	xor	ecx, ebp
	or	ecx, edx
	mov	ebx, ecx
	not	ebx
	mov	edx, ebx
	and	edx, -502012603
	and	ecx, 502012602
	or	ecx, edx
	mov	edx, esi
	not	edx
	or	ebx, edx
	and	edx, -502012603
	and	esi, 6784
	or	esi, edx
	xor	esi, ecx
	not	ebx
	or	ebx, esi
	mov	eax, ebx
	not	eax
	mov	ecx, eax
	and	ecx, -1398673174
	and	ebx, 1398673173
	or	ebx, ecx
	mov	ecx, r10d
	not	ecx
	or	eax, ecx
	and	ecx, -1398673174
	and	r10d, 1392508928
	or	r10d, ecx
	xor	r10d, ebx
	not	eax
	or	eax, r10d
	mov	esi, eax
	not	esi
	mov	ecx, esi
	and	ecx, -65467447
	and	eax, 65467446
	or	eax, ecx
	mov	ecx, r8d
	not	ecx
	or	esi, ecx
	and	ecx, -65467447
	and	r8d, 2539520
	or	r8d, ecx
	xor	r8d, eax
	not	esi
	or	esi, r8d
	mov	ecx, esi
	not	ecx
	mov	eax, ecx
	and	eax, -441761837
	and	esi, 441761836
	or	esi, eax
	mov	eax, edi
	not	eax
	or	ecx, eax
	and	eax, -441761837
	and	edi, 32
	or	edi, eax
	xor	edi, esi
	and	r14d, 2
	shl	r14d, 22
	not	ecx
	or	ecx, edi
	mov	eax, ecx
	and	eax, r14d
	xor	ecx, r14d
	mov	edx, dword ptr [rsp - 32] 
	and	edx, 4
	shl	edx, 13
	or	ecx, eax
	mov	eax, ecx
	and	eax, edx
	xor	ecx, edx
	movabs	r9, -1450837691615750221
	mov	esi, dword ptr [rsp - 80] 
	and	esi, 8
	shl	esi, 4
	or	ecx, eax
	mov	edx, ecx
	and	edx, esi
	xor	ecx, esi
	mov	r8, qword ptr [rsp - 40] 
	mov	r15d, r8d
	and	r15d, 2
	shl	r15d, 19
	or	ecx, edx
	mov	edx, ecx
	mov	eax, dword ptr [rsp - 48] 
	and	edx, eax
	xor	ecx, eax
	or	ecx, edx
	mov	esi, ecx
	not	esi
	mov	edx, esi
	and	edx, 1944732694
	and	ecx, -1944732695
	or	ecx, edx
	mov	edx, r13d
	not	edx
	or	esi, edx
	and	edx, 1944732694
	and	r13d, 201326592
	or	r13d, edx
	mov	rbx, qword ptr [rsp - 16] 
	mov	edi, ebx
	and	edi, 4
	shl	edi, 12
	xor	r13d, ecx
	mov	rax, qword ptr [rsp - 72] 
	mov	edx, eax
	shl	edx, 11
	not	edx
	or	edx, -8193
	not	esi
	or	esi, r13d
	mov	ecx, esi
	and	ecx, edi
	xor	esi, edi
	lea	edi, [8*rbx]
	and	edi, 64
	or	esi, ecx
	mov	ecx, esi
	and	ecx, edi
	xor	esi, edi
	or	esi, ecx
	mov	edi, esi
	not	edi
	mov	ecx, edi
	and	ecx, -1872961025
	and	esi, 1872961024
	or	esi, ecx
	mov	rbp, r8
	lea	r11d, [rbp + rbp]
	and	r11d, 16
	shr	ebx, 2
	not	ebx
	or	ebx, -5
	mov	rcx, rax
	shr	ecx, 3
	and	ecx, 2
	mov	r10, rcx
	shr	ebp, 4
	and	ebp, 1
	mov	r8, rbp
	or	edi, ebx
	and	ebx, -1872961025
	xor	ebx, esi
	not	edi
	or	edi, ebx
	mov	esi, edi
	mov	eax, dword ptr [rsp - 76] 
	and	esi, eax
	xor	edi, eax
	or	edi, esi
	mov	esi, edi
	not	esi
	mov	ebp, esi
	and	ebp, -891951740
	and	edi, 891951739
	or	edi, ebp
	or	esi, edx
	and	edx, -891951740
	xor	edx, edi
	mov	r14d, dword ptr [rsp - 88] 
	not	esi
	or	esi, edx
	mov	edx, esi
	mov	eax, dword ptr [rsp - 84] 
	and	edx, eax
	xor	esi, eax
	or	esi, edx
	mov	edx, esi
	mov	rdi, r10
	and	edx, edi
	xor	esi, edi
	or	esi, edx
	mov	edx, esi
	and	edx, r15d
	xor	esi, r15d
	or	esi, edx
	mov	edi, esi
	not	edi
	mov	ecx, dword ptr [rsp - 20] 
	mov	eax, ecx
	not	eax
	mov	edx, edi
	and	edx, -632086944
	and	esi, 632086943
	or	esi, edx
	or	edi, eax
	and	eax, -632086944
	and	ecx, 57344
	or	ecx, eax
	xor	ecx, esi
	not	edi
	or	edi, ecx
	mov	eax, edi
	and	eax, r11d
	xor	edi, r11d
	or	edi, eax
	mov	eax, edi
	and	eax, r8d
	xor	edi, r8d
	or	edi, eax
	mov	edx, -305836727
	xor	ecx, ecx
	mov	r8d, -794220122
	movabs	rax, 4611686018427387902
	and	rax, r9
	mov	qword ptr [rsp - 40], rax 
	jmp	.LBB16_1
.LBB16_18:                              
	cmove	edx, esi
	cmp	dword ptr [rip + y.40], 10
	setl	al
	cmovge	edx, r8d
	xor	al, bl
	cmovne	edx, esi
	.p2align	4, 0x90
.LBB16_1:                               
	cmp	edx, -32126235
	jle	.LBB16_2

	cmp	edx, 821119618
	jle	.LBB16_10

	cmp	edx, 1616791505
	je	.LBB16_20

	cmp	edx, 1698007729
	je	.LBB16_19

	cmp	edx, 821119619
	jne	.LBB16_1
	jmp	.LBB16_16
	.p2align	4, 0x90
.LBB16_2:                               
	cmp	edx, -794220123
	jg	.LBB16_6

	cmp	edx, -1988204135
	je	.LBB16_21

	cmp	edx, -1188872762
	jne	.LBB16_1

	movzx	eax, byte ptr [rsp - 89]
	test	al, al
	mov	edx, -32126234
	mov	eax, 1616791505
	cmovne	edx, eax
	jmp	.LBB16_1
	.p2align	4, 0x90
.LBB16_10:                              
	cmp	edx, -32126234
	je	.LBB16_17

	cmp	edx, 734341860
	jne	.LBB16_1

	mov	eax, dword ptr [rip + x.39]
	mov	esi, dword ptr [rip + y.40]
	lea	edx, [rax - 1]
	imul	edx, eax
	not	edx
	or	edx, -2
	cmp	edx, -1
	sete	al
	cmp	esi, 10
	setl	bl
	xor	bl, al
	mov	eax, -1988204135
	mov	ebp, -1188872762
	cmovne	eax, ebp
	cmp	edx, -1
	mov	edx, eax
	cmove	edx, ebp
	cmp	esi, 10
	mov	rsi, qword ptr [rsp - 64]
	cmovge	edx, eax
	cmp	rsi, 16
	setne	byte ptr [rsp - 89]
	jmp	.LBB16_1
	.p2align	4, 0x90
.LBB16_6:                               
	cmp	edx, -794220122
	je	.LBB16_22

	cmp	edx, -305836727
	jne	.LBB16_1

	mov	qword ptr [rsp - 64], rcx
	mov	dword ptr [rsp - 56], edi
	mov	dword ptr [rsp - 52], r14d
	mov	eax, dword ptr [rip + x.39]
	lea	edx, [rax - 1]
	imul	edx, eax
	not	edx
	or	edx, -2
	cmp	edx, -1
	sete	al
	mov	edx, -1988204135
	mov	esi, 734341860
	cmove	edx, esi
	cmp	dword ptr [rip + y.40], 10
	setl	bl
	mov	ebp, -1988204135
	cmovge	edx, ebp
	xor	bl, al
	cmovne	edx, esi
	jmp	.LBB16_1
.LBB16_20:                              
	mov	rax, qword ptr [rsp - 64]
	movzx	eax, byte ptr [rax + _ZZN5Botan12_GLOBAL__N_116des_key_scheduleEPjPKhE3ROT]
	mov	esi, dword ptr [rsp - 52]
	mov	ecx, eax
	shl	esi, cl
	mov	edx, 28
	sub	edx, eax
	mov	ebx, dword ptr [rsp - 52]
	mov	ecx, edx
	shr	ebx, cl
	mov	ecx, ebx
	and	ecx, esi
	xor	ebx, esi
	or	ebx, ecx
	mov	ecx, ebx
	mov	dword ptr [rsp - 88], ecx 
	mov	esi, dword ptr [rsp - 56]
	mov	ecx, eax
	shl	esi, cl
	mov	eax, dword ptr [rsp - 56]
	mov	ecx, edx
	shr	eax, cl
	mov	ecx, eax
	not	ecx
	mov	edx, esi
	not	edx
	mov	edi, ecx
	and	edi, 2018732055
	and	eax, -2018732056
	or	eax, edi
	or	ecx, edx
	and	edx, 2018732055
	and	esi, -2018732056
	or	esi, edx
	xor	esi, eax
	not	ecx
	or	ecx, esi
	mov	eax, ecx
	mov	dword ptr [rsp - 72], eax 
	mov	eax, ebx
	shl	eax, 22
	not	eax
	or	eax, -67108865
	mov	edx, ebx
	shl	edx, 17
	mov	esi, edx
	xor	esi, -268566528
	and	esi, edx
	mov	edx, esi
	not	edx
	mov	edi, eax
	and	edi, -734156843
	or	eax, edx
	and	edx, -734156843
	and	esi, 734134272
	or	esi, edx
	xor	esi, edi
	not	eax
	or	eax, esi
	mov	edx, ebx
	shl	edx, 16
	mov	esi, edx
	xor	esi, -2162688
	and	esi, edx
	mov	edx, eax
	and	edx, esi
	xor	esi, eax
	or	esi, edx
	mov	eax, ebx
	shl	eax, 15
	and	eax, 537001984
	mov	edx, esi
	and	edx, eax
	xor	eax, esi
	or	eax, edx
	mov	edx, ebx
	shl	edx, 11
	not	edx
	or	edx, -1048577
	mov	esi, eax
	not	esi
	mov	edi, esi
	and	edi, -25925961
	and	eax, 25925960
	or	eax, edi
	or	esi, edx
	and	edx, -25925961
	xor	edx, eax
	not	esi
	or	esi, edx
	mov	edx, ebx
	shl	edx, 10
	mov	eax, edx
	xor	eax, -134218752
	and	eax, edx
	mov	edi, esi
	and	edi, eax
	xor	eax, esi
	or	eax, edi
	mov	esi, ebx
	shr	esi, 6
	and	esi, 262144
	mov	edi, eax
	and	edi, esi
	xor	esi, eax
	or	esi, edi
	mov	eax, ebx
	shr	eax, 4
	and	eax, 65536
	mov	edi, esi
	and	edi, eax
	xor	eax, esi
	or	eax, edi
	lea	esi, [8*rbx]
	mov	edi, esi
	xor	edi, -524296
	and	edi, esi
	mov	esi, eax
	not	esi
	mov	ebp, edi
	not	ebp
	mov	r8d, esi
	and	r8d, -2012972410
	and	eax, 2012972409
	or	eax, r8d
	or	esi, ebp
	and	ebp, -2012972410
	and	edi, 2012972408
	or	edi, ebp
	xor	edi, eax
	not	esi
	or	esi, edi
	mov	eax, ebx
	shr	eax, 2
	mov	edi, eax
	xor	edi, 1040187391
	and	edi, eax
	mov	eax, esi
	not	eax
	mov	ebp, edi
	not	ebp
	mov	r8d, eax
	and	r8d, 487039539
	and	esi, -487039540
	or	esi, r8d
	or	eax, ebp
	and	ebp, 487039539
	and	edi, 586702284
	or	edi, ebp
	xor	edi, esi
	not	eax
	or	eax, edi
	lea	esi, [rbx + rbx]
	mov	edi, esi
	xor	edi, -16777218
	and	edi, esi
	mov	r11d, eax
	not	r11d
	mov	esi, edi
	not	esi
	mov	ebp, r11d
	and	ebp, -514160194
	and	eax, 514160193
	or	eax, ebp
	or	r11d, esi
	and	esi, -514160194
	and	edi, 514160192
	or	edi, esi
	xor	edi, eax
	not	r11d
	or	r11d, edi
	mov	eax, ecx
	shl	eax, 8
	mov	esi, eax
	xor	esi, -4352
	and	esi, eax
	mov	eax, ecx
	shl	eax, 7
	mov	r9d, eax
	xor	r9d, -384
	and	r9d, eax
	lea	eax, [4*rcx]
	mov	r8d, eax
	xor	r8d, -8
	and	r8d, eax
	mov	r15d, ecx
	and	r15d, 512
	mov	r10d, ecx
	shr	r10d, 2
	and	r10d, 8192
	mov	r12d, ecx
	shr	r12d, 3
	mov	edi, r12d
	xor	edi, 536870903
	and	edi, r12d
	and	r12d, 17
	mov	ebp, ecx
	shr	ebp, 7
	mov	eax, ebp
	xor	eax, 33554399
	and	eax, ebp
	mov	ebp, r11d
	and	ebp, r15d
	xor	r15d, r11d
	or	r15d, ebp
	mov	r11d, r15d
	not	r11d
	mov	ebp, r11d
	and	ebp, -1096450893
	and	r15d, 1096450892
	or	r15d, ebp
	mov	ebp, esi
	not	ebp
	or	r11d, ebp
	and	ebp, -1096450893
	and	esi, 1096450816
	or	esi, ebp
	mov	ebp, ecx
	shr	ebp, 9
	not	ebp
	or	ebp, -1025
	xor	esi, r15d
	not	r11d
	or	r11d, esi
	mov	esi, r11d
	not	esi
	mov	r15d, esi
	and	r15d, 784839143
	and	r11d, -784839144
	or	r11d, r15d
	mov	r15d, r9d
	not	r15d
	or	esi, r15d
	and	r15d, 784839143
	and	r9d, -784839168
	or	r9d, r15d
	mov	r15d, ecx
	shr	r15d, 14
	xor	r9d, r11d
	mov	r11d, r15d
	xor	r11d, 261631
	and	r11d, r15d
	not	r15d
	or	r15d, -2057
	not	esi
	or	esi, r9d
	mov	r9d, esi
	and	r9d, r8d
	xor	esi, r8d
	mov	r8d, ecx
	shr	r8d, 21
	and	r8d, 2
	or	esi, r9d
	mov	r9d, esi
	and	r9d, r10d
	xor	esi, r10d
	or	esi, r9d
	mov	r9d, esi
	and	r9d, r12d
	xor	esi, r12d
	or	esi, r9d
	mov	r9d, esi
	not	r9d
	mov	r10d, eax
	not	r10d
	mov	r12d, r9d
	and	r12d, 111134455
	and	esi, -111134456
	or	esi, r12d
	or	r9d, r10d
	and	r10d, 111134455
	and	eax, 23083272
	or	eax, r10d
	xor	eax, esi
	not	r9d
	or	r9d, eax
	mov	eax, r9d
	not	eax
	mov	esi, eax
	and	esi, 1085097200
	and	r9d, -1085097201
	or	r9d, esi
	or	eax, ebp
	and	ebp, 1085097200
	xor	ebp, r9d
	not	eax
	or	eax, ebp
	mov	esi, eax
	not	esi
	mov	ebp, esi
	and	ebp, 692521599
	and	eax, -692521600
	or	eax, ebp
	or	esi, r15d
	and	r15d, 692521599
	xor	r15d, eax
	not	esi
	or	esi, r15d
	mov	eax, esi
	and	eax, r8d
	xor	esi, r8d
	or	esi, eax
	mov	r8, qword ptr [rsp - 64]
	mov	rax, qword ptr [rsp - 8] 
	mov	dword ptr [rax + 8*r8], esi
	mov	eax, ebx
	and	eax, 1
	shl	eax, 28
	mov	esi, ebx
	shl	esi, 18
	and	esi, 34078720
	or	esi, eax
	mov	eax, ebx
	shl	eax, 14
	and	eax, 134217728
	or	eax, esi
	mov	esi, edx
	not	esi
	and	edx, 262144
	mov	ebp, eax
	not	ebp
	or	esi, ebp
	not	esi
	and	ebp, -1347375427
	and	eax, 268959744
	or	eax, ebp
	or	edx, -1347375427
	xor	edx, eax
	and	esi, 262144
	or	esi, edx
	mov	eax, ebx
	shl	eax, 9
	not	eax
	or	eax, -2097153
	mov	edx, esi
	not	edx
	mov	ebp, edx
	and	ebp, 523991067
	and	esi, -1601927516
	or	esi, ebp
	or	edx, eax
	and	eax, 523991067
	xor	eax, esi
	not	edx
	or	edx, eax
	mov	eax, ebx
	shl	eax, 6
	mov	esi, eax
	xor	esi, -16777280
	and	esi, eax
	mov	eax, edx
	not	eax
	mov	ebp, esi
	not	ebp
	mov	r9d, eax
	and	r9d, 2128880615
	and	edx, -2128880616
	or	edx, r9d
	or	eax, ebp
	and	ebp, 2128880615
	and	esi, -2128880640
	or	esi, ebp
	xor	esi, edx
	not	eax
	or	eax, esi
	mov	edx, ebx
	shl	edx, 4
	mov	esi, edx
	not	esi
	or	esi, -603979777
	mov	ebp, eax
	not	ebp
	mov	r9d, ebp
	and	r9d, 2049229006
	and	eax, -2049229007
	or	eax, r9d
	or	ebp, esi
	and	esi, 2049229006
	and	edx, 67108864
	or	edx, esi
	xor	edx, eax
	not	ebp
	or	ebp, edx
	lea	eax, [4*rbx]
	and	eax, 131072
	mov	edx, ebp
	and	edx, eax
	xor	eax, ebp
	or	eax, edx
	mov	edx, ebx
	shr	edx
	and	edx, 1048576
	mov	esi, eax
	and	esi, edx
	xor	edx, eax
	or	edx, esi
	shr	ebx, 10
	mov	r14d, ebx
	xor	r14d, 4128767
	and	r14d, ebx
	mov	eax, edx
	and	eax, r14d
	xor	r14d, edx
	or	r14d, eax
	mov	eax, ecx
	shl	eax, 6
	mov	edx, eax
	xor	edx, -2112
	and	edx, eax
	mov	r13d, ecx
	xor	r13d, -257
	and	r13d, ecx
	mov	ebp, ecx
	mov	eax, ecx
	shr	eax, 5
	mov	r15d, eax
	xor	r15d, 134217695
	and	r15d, eax
	mov	eax, ecx
	shr	eax, 10
	mov	r10d, eax
	xor	r10d, 4194287
	and	r10d, eax
	mov	esi, ecx
	shr	esi, 13
	mov	eax, esi
	xor	eax, 516095
	and	eax, esi
	mov	esi, ecx
	shr	esi, 24
	mov	ebx, esi
	xor	ebx, 254
	and	ebx, esi
	mov	esi, ecx
	mov	r9d, ecx
	shr	ecx, 26
	mov	r12d, ecx
	xor	r12d, 61
	and	r12d, ecx
	mov	ecx, r14d
	and	ecx, r13d
	xor	r13d, r14d
	or	r13d, ecx
	mov	ecx, r13d
	not	ecx
	mov	r14d, ecx
	and	r14d, 295636944
	and	r13d, -295636945
	or	r13d, r14d
	mov	r14d, edx
	not	r14d
	or	ecx, r14d
	and	r14d, 295636944
	and	edx, -295636992
	or	edx, r14d
	xor	edx, r13d
	not	ecx
	or	ecx, edx
	mov	edx, ecx
	not	edx
	mov	r14d, edx
	and	r14d, 2125500151
	and	ecx, -2125500152
	or	ecx, r14d
	shr	ebp
	not	ebp
	or	ebp, -1025
	or	edx, ebp
	and	ebp, 2125500151
	xor	ebp, ecx
	not	edx
	or	edx, ebp
	mov	ecx, edx
	not	ecx
	mov	ebp, ecx
	and	ebp, 2087861121
	and	edx, -2087861122
	or	edx, ebp
	mov	ebp, edi
	not	ebp
	or	ecx, ebp
	and	ebp, 2087861121
	and	edi, 59622526
	or	edi, ebp
	xor	edi, edx
	not	ecx
	or	ecx, edi
	mov	edx, ecx
	not	edx
	mov	edi, edx
	and	edi, -1953449713
	and	ecx, 1953449712
	or	ecx, edi
	mov	r14d, dword ptr [rsp - 88] 
	shr	esi, 4
	not	esi
	or	esi, -4097
	or	edx, esi
	and	esi, -1953449713
	xor	esi, ecx
	not	edx
	or	edx, esi
	mov	ecx, edx
	and	ecx, r15d
	xor	edx, r15d
	or	edx, ecx
	mov	ecx, edx
	and	ecx, r10d
	xor	edx, r10d
	or	edx, ecx
	mov	ecx, edx
	not	ecx
	mov	esi, ecx
	and	esi, -699556172
	and	edx, 699556171
	or	edx, esi
	mov	esi, eax
	not	esi
	or	ecx, esi
	and	esi, -699556172
	and	eax, 155979
	or	eax, esi
	xor	eax, edx
	not	ecx
	or	ecx, eax
	mov	eax, ecx
	and	eax, r11d
	xor	ecx, r11d
	shr	r9d, 18
	and	r9d, 4
	or	ecx, eax
	mov	eax, ecx
	and	eax, r9d
	xor	ecx, r9d
	or	ecx, eax
	mov	eax, ecx
	not	eax
	mov	edx, eax
	and	edx, -1054231355
	and	ecx, 1054231354
	or	ecx, edx
	mov	edx, ebx
	not	edx
	or	eax, edx
	and	edx, -1054231355
	and	ebx, 58
	or	ebx, edx
	xor	ebx, ecx
	not	eax
	or	eax, ebx
	mov	ecx, eax
	not	ecx
	mov	edx, ecx
	and	edx, -96795395
	and	eax, 96795394
	or	eax, edx
	mov	edx, r12d
	not	edx
	or	ecx, edx
	and	edx, -96795395
	and	r12d, 2
	or	r12d, edx
	add	r8, r8
	xor	r12d, eax
	not	ecx
	or	ecx, r12d
	mov	rax, r8
	not	rax
	movabs	rdx, -1450837691615750221
	mov	rsi, rdx
	not	rdx
	and	rax, rsi
	and	r8, rdx
	or	r8, rax
	and	edx, 1
	add	rdx, qword ptr [rsp - 40] 
	xor	rdx, r8
	mov	edi, dword ptr [rsp - 72] 
	mov	r8d, -794220122
	and	r14d, 268435455
	and	edi, 268435455
	mov	rax, qword ptr [rsp - 8] 
	mov	dword ptr [rax + 4*rdx], ecx
	mov	rcx, qword ptr [rsp - 64]
	inc	rcx
	mov	edx, -305836727
	jmp	.LBB16_1
.LBB16_19:                              
	mov	eax, dword ptr [rip + x.39]
	mov	edx, eax
	neg	edx
	not	edx
	imul	edx, eax
	mov	eax, edx
	xor	eax, -2
	and	eax, edx
	sete	bl
	test	eax, eax
	mov	edx, -794220122
	mov	esi, 821119619
	jmp	.LBB16_18
.LBB16_21:                              
	mov	rax, qword ptr [rsp - 64]
	mov	edx, 734341860
	jmp	.LBB16_1
.LBB16_17:                              
	mov	eax, dword ptr [rip + x.39]
	mov	edx, eax
	neg	edx
	not	edx
	imul	edx, eax
	mov	eax, edx
	xor	eax, -2
	and	eax, edx
	sete	bl
	test	eax, eax
	mov	edx, -794220122
	mov	esi, 1698007729
	jmp	.LBB16_18
.LBB16_22:                              
	mov	edx, 1698007729
	jmp	.LBB16_1
.LBB16_16:
	pop	rbx
	pop	r12
	pop	r13
	pop	r14
	pop	r15
	pop	rbp
	ret
.Lfunc_end16:
	.size	_ZN5Botan12_GLOBAL__N_116des_key_scheduleEPjPKh, .Lfunc_end16-_ZN5Botan12_GLOBAL__N_116des_key_scheduleEPjPKh

	.section	.text._ZNSt6vectorIjN5Botan16secure_allocatorIjEEE4dataEv,"axG",@progbits,_ZNSt6vectorIjN5Botan16secure_allocatorIjEEE4dataEv,comdat
	.weak	_ZNSt6vectorIjN5Botan16secure_allocatorIjEEE4dataEv 
	.p2align	4, 0x90
	.type	_ZNSt6vectorIjN5Botan16secure_allocatorIjEEE4dataEv,@function
_ZNSt6vectorIjN5Botan16secure_allocatorIjEEE4dataEv: 

	push	rbp
	push	r15
	push	r14
	push	rbx
	sub	rsp, 24
	mov	eax, dword ptr [rip + x.41]
	lea	ecx, [rax - 1]
	imul	ecx, eax
	not	ecx
	or	ecx, -2
	cmp	ecx, -1
	sete	byte ptr [rsp + 14]
	mov	eax, dword ptr [rip + y.42]
	cmp	eax, 10
	setl	byte ptr [rsp + 15]
	mov	rbp, rdi
	mov	ecx, -1689058748
	mov	r14d, -563316699
	mov	r15d, -968441998
	jmp	.LBB17_1
.LBB17_8:                               
	movzx	eax, byte ptr [rsp + 14]
	movzx	ecx, byte ptr [rsp + 15]
	mov	edx, eax
	xor	dl, cl
	mov	edx, 2117723128
	cmovne	edx, r14d
	test	cl, cl
	mov	ecx, edx
	cmovne	ecx, r14d
	test	al, al
	cmove	ecx, edx
	.p2align	4, 0x90
.LBB17_1:                               
	cmp	ecx, -563316700
	jg	.LBB17_5

	cmp	ecx, -1689058748
	je	.LBB17_8

	cmp	ecx, -968441998
	jne	.LBB17_1
	jmp	.LBB17_4
	.p2align	4, 0x90
.LBB17_5:                               
	cmp	ecx, -563316699
	je	.LBB17_9

	cmp	ecx, 2117723128
	jne	.LBB17_1

	mov	rsi, qword ptr [rbp]
	mov	rdi, rbp
	call	_ZNKSt6vectorIjN5Botan16secure_allocatorIjEEE11_M_data_ptrIjEEPT_S6_
	mov	ecx, -563316699
	jmp	.LBB17_1
.LBB17_9:                               
	mov	rsi, qword ptr [rbp]
	mov	rdi, rbp
	call	_ZNKSt6vectorIjN5Botan16secure_allocatorIjEEE11_M_data_ptrIjEEPT_S6_
	mov	ecx, dword ptr [rip + x.41]
	mov	edi, dword ptr [rip + y.42]
	lea	esi, [rcx - 1]
	imul	esi, ecx
	mov	ecx, esi
	xor	ecx, -2
	and	ecx, esi
	sete	bl
	cmp	edi, 10
	setl	dl
	xor	dl, bl
	mov	edx, 2117723128
	cmovne	edx, r15d
	test	ecx, ecx
	mov	ecx, edx
	cmove	ecx, r15d
	cmp	edi, 10
	mov	qword ptr [rsp + 16], rax
	cmovge	ecx, edx
	jmp	.LBB17_1
.LBB17_4:
	mov	rax, qword ptr [rsp + 16]
	add	rsp, 24
	pop	rbx
	pop	r14
	pop	r15
	pop	rbp
	ret
.Lfunc_end17:
	.size	_ZNSt6vectorIjN5Botan16secure_allocatorIjEEE4dataEv, .Lfunc_end17-_ZNSt6vectorIjN5Botan16secure_allocatorIjEEE4dataEv

	.text
	.globl	_ZN5Botan3DES5clearEv   
	.p2align	4, 0x90
	.type	_ZN5Botan3DES5clearEv,@function
_ZN5Botan3DES5clearEv:                  
	.cfi_startproc

	push	rbp
.Lcfi76:
	.cfi_def_cfa_offset 16
	push	r15
.Lcfi77:
	.cfi_def_cfa_offset 24
	push	r14
.Lcfi78:
	.cfi_def_cfa_offset 32
	push	rbx
.Lcfi79:
	.cfi_def_cfa_offset 40
	push	rax
.Lcfi80:
	.cfi_def_cfa_offset 48
.Lcfi81:
	.cfi_offset rbx, -40
.Lcfi82:
	.cfi_offset r14, -32
.Lcfi83:
	.cfi_offset r15, -24
.Lcfi84:
	.cfi_offset rbp, -16
	mov	rbx, rdi
	mov	eax, dword ptr [rip + x.43]
	mov	ecx, dword ptr [rip + y.44]
	mov	edx, eax
	neg	edx
	not	edx
	imul	edx, eax
	mov	eax, edx
	xor	eax, -2
	test	eax, edx
	sete	byte ptr [rsp + 6]
	cmp	ecx, 10
	setl	byte ptr [rsp + 7]
	add	rbx, 8
	mov	eax, -1409504252
	mov	r14d, 76332607
	mov	r15d, 1785751287
	mov	ebp, 468107029
	jmp	.LBB18_1
.LBB18_8:                               
	movzx	ecx, byte ptr [rsp + 6]
	movzx	eax, byte ptr [rsp + 7]
	mov	edx, ecx
	xor	dl, al
	test	al, al
	mov	eax, 1785751287
	cmovne	eax, r14d
	test	cl, cl
	cmove	eax, r15d
	test	dl, dl
	cmovne	eax, r14d
	.p2align	4, 0x90
.LBB18_1:                               
	cmp	eax, 468107028
	jg	.LBB18_5

	cmp	eax, -1409504252
	je	.LBB18_8

	cmp	eax, 76332607
	jne	.LBB18_1

	mov	rdi, rbx
	call	_ZN5Botan3zapIjNS_16secure_allocatorIjEEEEvRSt6vectorIT_T0_E
	mov	eax, dword ptr [rip + x.43]
	lea	ecx, [rax - 1]
	imul	ecx, eax
	not	ecx
	or	ecx, -2
	cmp	ecx, -1
	sete	cl
	mov	eax, 1785751287
	cmove	eax, ebp
	cmp	dword ptr [rip + y.44], 10
	setl	dl
	cmovge	eax, r15d
	xor	dl, cl
	cmovne	eax, ebp
	jmp	.LBB18_1
	.p2align	4, 0x90
.LBB18_5:                               
	cmp	eax, 468107029
	je	.LBB18_9

	cmp	eax, 1785751287
	jne	.LBB18_1

	mov	rdi, rbx
	call	_ZN5Botan3zapIjNS_16secure_allocatorIjEEEEvRSt6vectorIT_T0_E
	mov	eax, 76332607
	jmp	.LBB18_1
.LBB18_9:
	add	rsp, 8
	pop	rbx
	pop	r14
	pop	r15
	pop	rbp
	ret
.Lfunc_end18:
	.size	_ZN5Botan3DES5clearEv, .Lfunc_end18-_ZN5Botan3DES5clearEv
	.cfi_endproc

	.section	.text._ZN5Botan3zapIjNS_16secure_allocatorIjEEEEvRSt6vectorIT_T0_E,"axG",@progbits,_ZN5Botan3zapIjNS_16secure_allocatorIjEEEEvRSt6vectorIT_T0_E,comdat
	.weak	_ZN5Botan3zapIjNS_16secure_allocatorIjEEEEvRSt6vectorIT_T0_E 
	.p2align	4, 0x90
	.type	_ZN5Botan3zapIjNS_16secure_allocatorIjEEEEvRSt6vectorIT_T0_E,@function
_ZN5Botan3zapIjNS_16secure_allocatorIjEEEEvRSt6vectorIT_T0_E: 
	.cfi_startproc

	push	rbp
.Lcfi85:
	.cfi_def_cfa_offset 16
	push	r15
.Lcfi86:
	.cfi_def_cfa_offset 24
	push	r14
.Lcfi87:
	.cfi_def_cfa_offset 32
	push	rbx
.Lcfi88:
	.cfi_def_cfa_offset 40
	push	rax
.Lcfi89:
	.cfi_def_cfa_offset 48
.Lcfi90:
	.cfi_offset rbx, -40
.Lcfi91:
	.cfi_offset r14, -32
.Lcfi92:
	.cfi_offset r15, -24
.Lcfi93:
	.cfi_offset rbp, -16
	mov	rbx, rdi
	mov	eax, dword ptr [rip + x.45]
	lea	ecx, [rax - 1]
	imul	ecx, eax
	not	ecx
	or	ecx, -2
	cmp	ecx, -1
	sete	byte ptr [rsp + 6]
	mov	eax, dword ptr [rip + y.46]
	cmp	eax, 10
	setl	byte ptr [rsp + 7]
	mov	eax, -481786389
	mov	r15d, -1678433027
	mov	r14d, -1101176958
	mov	ebp, 1625563587
	jmp	.LBB19_1
.LBB19_7:                               
	movzx	ecx, byte ptr [rsp + 6]
	movzx	eax, byte ptr [rsp + 7]
	mov	edx, ecx
	xor	dl, al
	mov	edx, -1101176958
	cmovne	edx, ebp
	test	al, al
	mov	eax, edx
	cmovne	eax, ebp
	test	cl, cl
	cmove	eax, edx
	.p2align	4, 0x90
.LBB19_1:                               
	cmp	eax, -481786390
	jg	.LBB19_5

	cmp	eax, -1678433027
	je	.LBB19_9

	cmp	eax, -1101176958
	jne	.LBB19_1

	mov	rdi, rbx
	call	_ZN5Botan7zeroiseIjNS_16secure_allocatorIjEEEEvRSt6vectorIT_T0_E
	mov	rdi, rbx
	call	_ZNSt6vectorIjN5Botan16secure_allocatorIjEEE5clearEv
	mov	rdi, rbx
	call	_ZNSt6vectorIjN5Botan16secure_allocatorIjEEE13shrink_to_fitEv
	mov	eax, 1625563587
	jmp	.LBB19_1
	.p2align	4, 0x90
.LBB19_5:                               
	cmp	eax, 1625563587
	je	.LBB19_8

	cmp	eax, -481786389
	jne	.LBB19_1
	jmp	.LBB19_7
.LBB19_8:                               
	mov	rdi, rbx
	call	_ZN5Botan7zeroiseIjNS_16secure_allocatorIjEEEEvRSt6vectorIT_T0_E
	mov	rdi, rbx
	call	_ZNSt6vectorIjN5Botan16secure_allocatorIjEEE5clearEv
	mov	rdi, rbx
	call	_ZNSt6vectorIjN5Botan16secure_allocatorIjEEE13shrink_to_fitEv
	mov	eax, dword ptr [rip + x.45]
	lea	ecx, [rax - 1]
	imul	ecx, eax
	not	ecx
	or	ecx, -2
	cmp	ecx, -1
	sete	cl
	mov	eax, -1101176958
	cmove	eax, r15d
	cmp	dword ptr [rip + y.46], 10
	setl	dl
	cmovge	eax, r14d
	xor	dl, cl
	cmovne	eax, r15d
	jmp	.LBB19_1
.LBB19_9:
	add	rsp, 8
	pop	rbx
	pop	r14
	pop	r15
	pop	rbp
	ret
.Lfunc_end19:
	.size	_ZN5Botan3zapIjNS_16secure_allocatorIjEEEEvRSt6vectorIT_T0_E, .Lfunc_end19-_ZN5Botan3zapIjNS_16secure_allocatorIjEEEEvRSt6vectorIT_T0_E
	.cfi_endproc

	.text
	.globl	_ZNK5Botan9TripleDES9encrypt_nEPKhPhm 
	.p2align	4, 0x90
	.type	_ZNK5Botan9TripleDES9encrypt_nEPKhPhm,@function
_ZNK5Botan9TripleDES9encrypt_nEPKhPhm:  
	.cfi_startproc

	push	rbp
.Lcfi94:
	.cfi_def_cfa_offset 16
	push	r15
.Lcfi95:
	.cfi_def_cfa_offset 24
	push	r14
.Lcfi96:
	.cfi_def_cfa_offset 32
	push	r13
.Lcfi97:
	.cfi_def_cfa_offset 40
	push	r12
.Lcfi98:
	.cfi_def_cfa_offset 48
	push	rbx
.Lcfi99:
	.cfi_def_cfa_offset 56
	sub	rsp, 120
.Lcfi100:
	.cfi_def_cfa_offset 176
.Lcfi101:
	.cfi_offset rbx, -56
.Lcfi102:
	.cfi_offset r12, -48
.Lcfi103:
	.cfi_offset r13, -40
.Lcfi104:
	.cfi_offset r14, -32
.Lcfi105:
	.cfi_offset r15, -24
.Lcfi106:
	.cfi_offset rbp, -16
	mov	r15, rcx
	mov	rbp, rdx
	mov	r13, rsi
	mov	rbx, rdi
	lea	rax, [rbx + 8]
	mov	qword ptr [rsp + 8], rax
	mov	rdi, qword ptr [rsp + 8]
	call	_ZNKSt6vectorIjN5Botan16secure_allocatorIjEEE5emptyEv
	xor	al, 1
	movzx	esi, al
	mov	rdi, rbx
	call	_ZNK5Botan18SymmetricAlgorithm14verify_key_setEb
	mov	eax, 666255278
	lea	r14, [rsp + 4]
	mov	r12, rsp






	jmp	.LBB20_1
.LBB20_20:                              
	mov	rdi, qword ptr [rsp + 32]
	xor	esi, esi
	call	_ZN5Botan7load_beIjEET_PKhm
	mov	dword ptr [rsp + 4], eax
	mov	rdi, qword ptr [rsp + 32]
	mov	esi, 1
	call	_ZN5Botan7load_beIjEET_PKhm
	mov	dword ptr [rsp], eax
	mov	rdi, r14
	mov	rsi, r12
	call	_ZN5Botan12_GLOBAL__N_16des_IPERjS1_
	mov	rdi, qword ptr [rsp + 8]
	xor	esi, esi
	call	_ZNKSt6vectorIjN5Botan16secure_allocatorIjEEEixEm
	mov	rdi, r14
	mov	rsi, r12
	mov	rdx, rax
	call	_ZN5Botan12_GLOBAL__N_111des_encryptERjS1_PKj
	mov	rdi, qword ptr [rsp + 8]
	mov	esi, 32
	call	_ZNKSt6vectorIjN5Botan16secure_allocatorIjEEEixEm
	mov	rdi, r12
	mov	rsi, r14
	mov	rdx, rax
	call	_ZN5Botan12_GLOBAL__N_111des_decryptERjS1_PKj
	mov	rdi, qword ptr [rsp + 8]
	mov	esi, 64
	call	_ZNKSt6vectorIjN5Botan16secure_allocatorIjEEEixEm
	mov	rdi, r14
	mov	rsi, r12
	mov	rdx, rax
	call	_ZN5Botan12_GLOBAL__N_111des_encryptERjS1_PKj
	mov	rdi, r14
	mov	rsi, r12
	call	_ZN5Botan12_GLOBAL__N_16des_FPERjS1_
	mov	esi, dword ptr [rsp]
	mov	edx, dword ptr [rsp + 4]
	mov	rdi, qword ptr [rsp + 48]
	call	_ZN5Botan8store_beIjEEvPhT_S2_
	mov	rax, qword ptr [rsp + 32]
	mov	rax, qword ptr [rsp + 48]
	mov	rax, qword ptr [rsp + 24]
	mov	rax, qword ptr [rsp + 24]
	mov	rax, qword ptr [rsp + 24]
	mov	rax, qword ptr [rsp + 24]
	mov	eax, -1027662970
	.p2align	4, 0x90
.LBB20_1:                               
	cmp	eax, -722707434
	jle	.LBB20_2

	cmp	eax, 1183567156
	jg	.LBB20_14

	cmp	eax, -722707433
	je	.LBB20_17

	cmp	eax, 666255278
	je	.LBB20_21

	cmp	eax, -12015552
	jne	.LBB20_1
	jmp	.LBB20_13
	.p2align	4, 0x90
.LBB20_2:                               
	cmp	eax, -1027662971
	jg	.LBB20_6

	cmp	eax, -1514483729
	je	.LBB20_18

	cmp	eax, -1355179543
	jne	.LBB20_1

	mov	rax, qword ptr [rsp + 72] 
	mov	qword ptr [rsp + 24], rax
	mov	rax, qword ptr [rsp + 80] 
	mov	qword ptr [rsp + 48], rax
	mov	rax, qword ptr [rsp + 88] 
	mov	qword ptr [rsp + 32], rax
	cmp	qword ptr [rsp + 24], 0
	mov	eax, -1514483729
	mov	ecx, -12015552
	cmove	eax, ecx
	jmp	.LBB20_1
	.p2align	4, 0x90
.LBB20_14:                              
	cmp	eax, 1183567157
	je	.LBB20_20

	cmp	eax, 1878164081
	jne	.LBB20_1

	mov	rdi, qword ptr [rsp + 16]
	xor	esi, esi
	call	_ZN5Botan7load_beIjEET_PKhm
	mov	dword ptr [rsp + 4], eax
	mov	rdi, qword ptr [rsp + 16]
	mov	esi, 1
	call	_ZN5Botan7load_beIjEET_PKhm
	mov	dword ptr [rsp], eax
	mov	rdi, qword ptr [rsp + 16]
	mov	esi, 2
	call	_ZN5Botan7load_beIjEET_PKhm
	mov	dword ptr [rsp + 44], eax
	mov	rdi, qword ptr [rsp + 16]
	mov	esi, 3
	call	_ZN5Botan7load_beIjEET_PKhm
	mov	dword ptr [rsp + 40], eax
	mov	rdi, r14
	mov	rsi, r12
	call	_ZN5Botan12_GLOBAL__N_16des_IPERjS1_
	lea	rbx, [rsp + 44]
	mov	rdi, rbx
	lea	rbp, [rsp + 40]
	mov	rsi, rbp
	call	_ZN5Botan12_GLOBAL__N_16des_IPERjS1_
	mov	rdi, qword ptr [rsp + 8]
	xor	esi, esi
	call	_ZNKSt6vectorIjN5Botan16secure_allocatorIjEEEixEm
	mov	rdi, r14
	mov	rsi, r12
	mov	rdx, rbx
	mov	rcx, rbp
	mov	r8, rax
	call	_ZN5Botan12_GLOBAL__N_114des_encrypt_x2ERjS1_S1_S1_PKj
	mov	rdi, qword ptr [rsp + 8]
	mov	esi, 32
	call	_ZNKSt6vectorIjN5Botan16secure_allocatorIjEEEixEm
	mov	rdi, r12
	mov	rsi, r14
	mov	rdx, rbp
	mov	rcx, rbx
	mov	r8, rax
	call	_ZN5Botan12_GLOBAL__N_114des_decrypt_x2ERjS1_S1_S1_PKj
	mov	rdi, qword ptr [rsp + 8]
	mov	esi, 64
	call	_ZNKSt6vectorIjN5Botan16secure_allocatorIjEEEixEm
	mov	rdi, r14
	mov	rsi, r12
	mov	rdx, rbx
	mov	rcx, rbp
	mov	r8, rax
	call	_ZN5Botan12_GLOBAL__N_114des_encrypt_x2ERjS1_S1_S1_PKj
	mov	rdi, r14
	mov	rsi, r12
	call	_ZN5Botan12_GLOBAL__N_16des_FPERjS1_
	mov	rdi, rbx
	mov	rsi, rbp
	call	_ZN5Botan12_GLOBAL__N_16des_FPERjS1_
	mov	esi, dword ptr [rsp]
	mov	edx, dword ptr [rsp + 4]
	mov	ecx, dword ptr [rsp + 40]
	mov	r8d, dword ptr [rsp + 44]
	mov	rdi, qword ptr [rsp + 64]
	call	_ZN5Botan8store_beIjEEvPhT_S2_S2_S2_
	mov	r13, qword ptr [rsp + 16]
	add	r13, 16
	mov	rbp, qword ptr [rsp + 64]
	add	rbp, 16
	mov	rax, qword ptr [rsp + 56]
	neg	rax
	mov	r15, -2
	sub	r15, rax
	mov	eax, 666255278
	jmp	.LBB20_1
	.p2align	4, 0x90
.LBB20_6:                               
	cmp	eax, -1027662970
	je	.LBB20_19

	cmp	eax, -840951331
	jne	.LBB20_1

	mov	rax, qword ptr [rsp + 96]
	mov	qword ptr [rsp + 88], rax 
	mov	rax, qword ptr [rsp + 104]
	mov	qword ptr [rsp + 80], rax 
	mov	eax, -1355179543
	mov	rcx, qword ptr [rsp + 112]
	mov	qword ptr [rsp + 72], rcx 
	jmp	.LBB20_1
.LBB20_17:                              
	mov	rax, qword ptr [rsp + 16]
	mov	qword ptr [rsp + 88], rax 
	mov	rax, qword ptr [rsp + 64]
	mov	qword ptr [rsp + 80], rax 
	mov	eax, -1355179543
	mov	rcx, qword ptr [rsp + 56]
	mov	qword ptr [rsp + 72], rcx 
	jmp	.LBB20_1
.LBB20_21:                              
	mov	qword ptr [rsp + 56], r15
	mov	qword ptr [rsp + 64], rbp
	mov	qword ptr [rsp + 16], r13
	mov	rax, qword ptr [rsp + 56]
	cmp	rax, 1
	mov	eax, -722707433
	mov	ecx, 1878164081
	cmova	eax, ecx
	jmp	.LBB20_1
.LBB20_18:                              
	mov	eax, dword ptr [rip + x.47]
	mov	ecx, dword ptr [rip + y.48]
	lea	edx, [rax - 1]
	imul	edx, eax
	mov	eax, edx
	xor	eax, -2
	and	eax, edx
	sete	dl
	cmp	ecx, 10
	setl	bl
	xor	bl, dl
	mov	edx, 1183567157
	mov	esi, -1027662970
	cmovne	edx, esi
	test	eax, eax
	mov	eax, edx
	cmove	eax, esi
	cmp	ecx, 10
	cmovge	eax, edx
	jmp	.LBB20_1
.LBB20_19:                              
	mov	rdi, qword ptr [rsp + 32]
	xor	esi, esi
	call	_ZN5Botan7load_beIjEET_PKhm
	mov	dword ptr [rsp + 4], eax
	mov	rdi, qword ptr [rsp + 32]
	mov	esi, 1
	call	_ZN5Botan7load_beIjEET_PKhm
	mov	dword ptr [rsp], eax
	mov	rdi, r14
	mov	rsi, r12
	call	_ZN5Botan12_GLOBAL__N_16des_IPERjS1_
	mov	rdi, qword ptr [rsp + 8]
	xor	esi, esi
	call	_ZNKSt6vectorIjN5Botan16secure_allocatorIjEEEixEm
	mov	rdi, r14
	mov	rsi, r12
	mov	rdx, rax
	call	_ZN5Botan12_GLOBAL__N_111des_encryptERjS1_PKj
	mov	rdi, qword ptr [rsp + 8]
	mov	esi, 32
	call	_ZNKSt6vectorIjN5Botan16secure_allocatorIjEEEixEm
	mov	rdi, r12
	mov	rsi, r14
	mov	rdx, rax
	call	_ZN5Botan12_GLOBAL__N_111des_decryptERjS1_PKj
	mov	rdi, qword ptr [rsp + 8]
	mov	esi, 64
	call	_ZNKSt6vectorIjN5Botan16secure_allocatorIjEEEixEm
	mov	rdi, r14
	mov	rsi, r12
	mov	rdx, rax
	call	_ZN5Botan12_GLOBAL__N_111des_encryptERjS1_PKj
	mov	rdi, r14
	mov	rsi, r12
	call	_ZN5Botan12_GLOBAL__N_16des_FPERjS1_
	mov	esi, dword ptr [rsp]
	mov	edx, dword ptr [rsp + 4]
	mov	rdi, qword ptr [rsp + 48]
	call	_ZN5Botan8store_beIjEEvPhT_S2_
	mov	rax, qword ptr [rsp + 32]
	add	rax, 8
	mov	qword ptr [rsp + 96], rax
	mov	rax, qword ptr [rsp + 48]
	add	rax, 8
	mov	qword ptr [rsp + 104], rax
	xor	eax, eax
	sub	rax, qword ptr [rsp + 24]
	not	rax
	mov	qword ptr [rsp + 112], rax
	mov	eax, dword ptr [rip + x.47]
	lea	ecx, [rax - 1]
	imul	ecx, eax
	not	ecx
	or	ecx, -2
	cmp	ecx, -1
	sete	cl
	mov	eax, 1183567157
	mov	edi, -840951331
	cmove	eax, edi
	cmp	dword ptr [rip + y.48], 10
	setl	dl
	mov	esi, 1183567157
	cmovge	eax, esi
	xor	dl, cl
	cmovne	eax, edi
	jmp	.LBB20_1
.LBB20_13:
	add	rsp, 120
	pop	rbx
	pop	r12
	pop	r13
	pop	r14
	pop	r15
	pop	rbp
	ret
.Lfunc_end20:
	.size	_ZNK5Botan9TripleDES9encrypt_nEPKhPhm, .Lfunc_end20-_ZNK5Botan9TripleDES9encrypt_nEPKhPhm
	.cfi_endproc

	.section	.text._ZNKSt6vectorIjN5Botan16secure_allocatorIjEEEixEm,"axG",@progbits,_ZNKSt6vectorIjN5Botan16secure_allocatorIjEEEixEm,comdat
	.weak	_ZNKSt6vectorIjN5Botan16secure_allocatorIjEEEixEm 
	.p2align	4, 0x90
	.type	_ZNKSt6vectorIjN5Botan16secure_allocatorIjEEEixEm,@function
_ZNKSt6vectorIjN5Botan16secure_allocatorIjEEEixEm: 

	lea	rax, [4*rsi]
	add	rax, qword ptr [rdi]
	ret
.Lfunc_end21:
	.size	_ZNKSt6vectorIjN5Botan16secure_allocatorIjEEEixEm, .Lfunc_end21-_ZNKSt6vectorIjN5Botan16secure_allocatorIjEEEixEm

	.text
	.globl	_ZNK5Botan9TripleDES9decrypt_nEPKhPhm 
	.p2align	4, 0x90
	.type	_ZNK5Botan9TripleDES9decrypt_nEPKhPhm,@function
_ZNK5Botan9TripleDES9decrypt_nEPKhPhm:  
	.cfi_startproc

	push	rbp
.Lcfi107:
	.cfi_def_cfa_offset 16
	push	r15
.Lcfi108:
	.cfi_def_cfa_offset 24
	push	r14
.Lcfi109:
	.cfi_def_cfa_offset 32
	push	r13
.Lcfi110:
	.cfi_def_cfa_offset 40
	push	r12
.Lcfi111:
	.cfi_def_cfa_offset 48
	push	rbx
.Lcfi112:
	.cfi_def_cfa_offset 56
	sub	rsp, 120
.Lcfi113:
	.cfi_def_cfa_offset 176
.Lcfi114:
	.cfi_offset rbx, -56
.Lcfi115:
	.cfi_offset r12, -48
.Lcfi116:
	.cfi_offset r13, -40
.Lcfi117:
	.cfi_offset r14, -32
.Lcfi118:
	.cfi_offset r15, -24
.Lcfi119:
	.cfi_offset rbp, -16
	mov	r15, rcx
	mov	rbp, rdx
	mov	r13, rsi
	mov	rbx, rdi
	lea	rax, [rbx + 8]
	mov	qword ptr [rsp + 16], rax
	mov	rdi, qword ptr [rsp + 16]
	call	_ZNKSt6vectorIjN5Botan16secure_allocatorIjEEE5emptyEv
	xor	al, 1
	movzx	esi, al
	mov	rdi, rbx
	call	_ZNK5Botan18SymmetricAlgorithm14verify_key_setEb
	mov	eax, -58296699
	lea	r14, [rsp + 4]
	mov	r12, rsp






	jmp	.LBB22_1
.LBB22_7:                               
	cmovge	eax, edi
	xor	dl, cl
	cmovne	eax, esi
	.p2align	4, 0x90
.LBB22_1:                               
	cmp	eax, 311778629
	jg	.LBB22_12

	cmp	eax, -370375341
	jg	.LBB22_8

	cmp	eax, -745167896
	je	.LBB22_22

	cmp	eax, -685652901
	je	.LBB22_24

	cmp	eax, -585736580
	jne	.LBB22_1

	mov	eax, dword ptr [rip + x.51]
	mov	ecx, eax
	neg	ecx
	not	ecx
	imul	ecx, eax
	mov	eax, ecx
	xor	eax, -2
	and	eax, ecx
	sete	cl
	test	eax, eax
	mov	eax, 1011928332
	mov	esi, 311778630
	cmove	eax, esi
	cmp	dword ptr [rip + y.52], 10
	setl	dl
	mov	edi, 1011928332
	jmp	.LBB22_7
	.p2align	4, 0x90
.LBB22_12:                              
	cmp	eax, 1267825950
	jg	.LBB22_17

	cmp	eax, 311778630
	je	.LBB22_23

	cmp	eax, 1011928332
	je	.LBB22_27

	cmp	eax, 1141486416
	jne	.LBB22_1

	mov	eax, dword ptr [rip + x.51]
	mov	ecx, dword ptr [rip + y.52]
	lea	edx, [rax - 1]
	imul	edx, eax
	not	edx
	or	edx, -2
	cmp	edx, -1
	sete	al
	cmp	ecx, 10
	setl	bl
	xor	bl, al
	mov	esi, 1011928332
	mov	edi, -585736580
	cmovne	esi, edi
	cmp	edx, -1
	mov	eax, esi
	cmove	eax, edi
	cmp	ecx, 10
	cmovge	eax, esi
	jmp	.LBB22_1
	.p2align	4, 0x90
.LBB22_8:                               
	cmp	eax, -370375340
	je	.LBB22_28

	cmp	eax, -58296699
	je	.LBB22_21

	cmp	eax, 208439347
	jne	.LBB22_1

	mov	rdi, qword ptr [rsp + 32]
	xor	esi, esi
	call	_ZN5Botan7load_beIjEET_PKhm
	mov	dword ptr [rsp + 4], eax
	mov	rdi, qword ptr [rsp + 32]
	mov	esi, 1
	call	_ZN5Botan7load_beIjEET_PKhm
	mov	dword ptr [rsp], eax
	mov	rdi, r14
	mov	rsi, r12
	call	_ZN5Botan12_GLOBAL__N_16des_IPERjS1_
	mov	rdi, qword ptr [rsp + 16]
	mov	esi, 64
	call	_ZNKSt6vectorIjN5Botan16secure_allocatorIjEEEixEm
	mov	rdi, r14
	mov	rsi, r12
	mov	rdx, rax
	call	_ZN5Botan12_GLOBAL__N_111des_decryptERjS1_PKj
	mov	rdi, qword ptr [rsp + 16]
	mov	esi, 32
	call	_ZNKSt6vectorIjN5Botan16secure_allocatorIjEEEixEm
	mov	rdi, r12
	mov	rsi, r14
	mov	rdx, rax
	call	_ZN5Botan12_GLOBAL__N_111des_encryptERjS1_PKj
	mov	rdi, qword ptr [rsp + 16]
	xor	esi, esi
	call	_ZNKSt6vectorIjN5Botan16secure_allocatorIjEEEixEm
	mov	rdi, r14
	mov	rsi, r12
	mov	rdx, rax
	call	_ZN5Botan12_GLOBAL__N_111des_decryptERjS1_PKj
	mov	rdi, r14
	mov	rsi, r12
	call	_ZN5Botan12_GLOBAL__N_16des_FPERjS1_
	mov	esi, dword ptr [rsp]
	mov	edx, dword ptr [rsp + 4]
	mov	rdi, qword ptr [rsp + 48]
	call	_ZN5Botan8store_beIjEEvPhT_S2_
	mov	rax, qword ptr [rsp + 32]
	add	rax, 8
	mov	qword ptr [rsp + 96], rax
	mov	rax, qword ptr [rsp + 48]
	add	rax, 8
	mov	qword ptr [rsp + 104], rax
	mov	rax, qword ptr [rsp + 8]
	movabs	rcx, -2728125389844308315
	lea	rax, [rax + rcx - 1]
	sub	rax, rcx
	mov	qword ptr [rsp + 112], rax
	mov	eax, dword ptr [rip + x.51]
	lea	ecx, [rax - 1]
	imul	ecx, eax
	not	ecx
	or	ecx, -2
	cmp	ecx, -1
	sete	cl
	mov	eax, -370375340
	mov	esi, 2071160667
	cmove	eax, esi
	cmp	dword ptr [rip + y.52], 10
	setl	dl
	mov	edi, -370375340
	jmp	.LBB22_7
	.p2align	4, 0x90
.LBB22_17:                              
	cmp	eax, 1267825951
	je	.LBB22_25

	cmp	eax, 2071160667
	je	.LBB22_26

	cmp	eax, 1840716463
	jne	.LBB22_1
	jmp	.LBB22_20
.LBB22_22:                              
	mov	rdi, qword ptr [rsp + 24]
	xor	esi, esi
	call	_ZN5Botan7load_beIjEET_PKhm
	mov	dword ptr [rsp + 4], eax
	mov	rdi, qword ptr [rsp + 24]
	mov	esi, 1
	call	_ZN5Botan7load_beIjEET_PKhm
	mov	dword ptr [rsp], eax
	mov	rdi, qword ptr [rsp + 24]
	mov	esi, 2
	call	_ZN5Botan7load_beIjEET_PKhm
	mov	dword ptr [rsp + 44], eax
	mov	rdi, qword ptr [rsp + 24]
	mov	esi, 3
	call	_ZN5Botan7load_beIjEET_PKhm
	mov	dword ptr [rsp + 40], eax
	mov	rdi, r14
	mov	rsi, r12
	call	_ZN5Botan12_GLOBAL__N_16des_IPERjS1_
	lea	rbx, [rsp + 44]
	mov	rdi, rbx
	lea	rbp, [rsp + 40]
	mov	rsi, rbp
	call	_ZN5Botan12_GLOBAL__N_16des_IPERjS1_
	mov	rdi, qword ptr [rsp + 16]
	mov	esi, 64
	call	_ZNKSt6vectorIjN5Botan16secure_allocatorIjEEEixEm
	mov	rdi, r14
	mov	rsi, r12
	mov	rdx, rbx
	mov	rcx, rbp
	mov	r8, rax
	call	_ZN5Botan12_GLOBAL__N_114des_decrypt_x2ERjS1_S1_S1_PKj
	mov	rdi, qword ptr [rsp + 16]
	mov	esi, 32
	call	_ZNKSt6vectorIjN5Botan16secure_allocatorIjEEEixEm
	mov	rdi, r12
	mov	rsi, r14
	mov	rdx, rbp
	mov	rcx, rbx
	mov	r8, rax
	call	_ZN5Botan12_GLOBAL__N_114des_encrypt_x2ERjS1_S1_S1_PKj
	mov	rdi, qword ptr [rsp + 16]
	xor	esi, esi
	call	_ZNKSt6vectorIjN5Botan16secure_allocatorIjEEEixEm
	mov	rdi, r14
	mov	rsi, r12
	mov	rdx, rbx
	mov	rcx, rbp
	mov	r8, rax
	call	_ZN5Botan12_GLOBAL__N_114des_decrypt_x2ERjS1_S1_S1_PKj
	mov	rdi, r14
	mov	rsi, r12
	call	_ZN5Botan12_GLOBAL__N_16des_FPERjS1_
	mov	rdi, rbx
	mov	rsi, rbp
	call	_ZN5Botan12_GLOBAL__N_16des_FPERjS1_
	mov	esi, dword ptr [rsp]
	mov	edx, dword ptr [rsp + 4]
	mov	ecx, dword ptr [rsp + 40]
	mov	r8d, dword ptr [rsp + 44]
	mov	rdi, qword ptr [rsp + 64]
	call	_ZN5Botan8store_beIjEEvPhT_S2_S2_S2_
	mov	r13, qword ptr [rsp + 24]
	add	r13, 16
	mov	rbp, qword ptr [rsp + 64]
	add	rbp, 16
	mov	rax, qword ptr [rsp + 56]
	movabs	rcx, -2776318757636528451
	lea	r15, [rax + rcx - 2]
	sub	r15, rcx
	mov	eax, -58296699
	jmp	.LBB22_1
.LBB22_24:                              
	mov	rax, qword ptr [rsp + 72] 
	mov	qword ptr [rsp + 8], rax
	mov	rax, qword ptr [rsp + 80] 
	mov	qword ptr [rsp + 48], rax
	mov	rax, qword ptr [rsp + 88] 
	mov	qword ptr [rsp + 32], rax
	cmp	qword ptr [rsp + 8], 0
	mov	eax, 1267825951
	mov	ecx, 1840716463
	cmove	eax, ecx
	jmp	.LBB22_1
.LBB22_23:                              
	mov	rax, qword ptr [rsp + 24]
	mov	qword ptr [rsp + 88], rax 
	mov	rax, qword ptr [rsp + 64]
	mov	qword ptr [rsp + 80], rax 
	mov	eax, -685652901
	mov	rcx, qword ptr [rsp + 56]
	mov	qword ptr [rsp + 72], rcx 
	jmp	.LBB22_1
.LBB22_27:                              
	mov	eax, -585736580
	jmp	.LBB22_1
.LBB22_28:                              
	mov	rdi, qword ptr [rsp + 32]
	xor	esi, esi
	call	_ZN5Botan7load_beIjEET_PKhm
	mov	dword ptr [rsp + 4], eax
	mov	rdi, qword ptr [rsp + 32]
	mov	esi, 1
	call	_ZN5Botan7load_beIjEET_PKhm
	mov	dword ptr [rsp], eax
	mov	rdi, r14
	mov	rsi, r12
	call	_ZN5Botan12_GLOBAL__N_16des_IPERjS1_
	mov	rdi, qword ptr [rsp + 16]
	mov	esi, 64
	call	_ZNKSt6vectorIjN5Botan16secure_allocatorIjEEEixEm
	mov	rdi, r14
	mov	rsi, r12
	mov	rdx, rax
	call	_ZN5Botan12_GLOBAL__N_111des_decryptERjS1_PKj
	mov	rdi, qword ptr [rsp + 16]
	mov	esi, 32
	call	_ZNKSt6vectorIjN5Botan16secure_allocatorIjEEEixEm
	mov	rdi, r12
	mov	rsi, r14
	mov	rdx, rax
	call	_ZN5Botan12_GLOBAL__N_111des_encryptERjS1_PKj
	mov	rdi, qword ptr [rsp + 16]
	xor	esi, esi
	call	_ZNKSt6vectorIjN5Botan16secure_allocatorIjEEEixEm
	mov	rdi, r14
	mov	rsi, r12
	mov	rdx, rax
	call	_ZN5Botan12_GLOBAL__N_111des_decryptERjS1_PKj
	mov	rdi, r14
	mov	rsi, r12
	call	_ZN5Botan12_GLOBAL__N_16des_FPERjS1_
	mov	esi, dword ptr [rsp]
	mov	edx, dword ptr [rsp + 4]
	mov	rdi, qword ptr [rsp + 48]
	call	_ZN5Botan8store_beIjEEvPhT_S2_
	mov	rax, qword ptr [rsp + 32]
	mov	rax, qword ptr [rsp + 48]
	mov	rax, qword ptr [rsp + 8]
	mov	rax, qword ptr [rsp + 8]
	mov	rax, qword ptr [rsp + 8]
	mov	rax, qword ptr [rsp + 8]
	mov	rax, qword ptr [rsp + 8]
	mov	rax, qword ptr [rsp + 8]
	mov	rax, qword ptr [rsp + 8]
	mov	rax, qword ptr [rsp + 8]
	mov	rax, qword ptr [rsp + 8]
	mov	eax, 208439347
	jmp	.LBB22_1
.LBB22_21:                              
	mov	qword ptr [rsp + 56], r15
	mov	qword ptr [rsp + 64], rbp
	mov	qword ptr [rsp + 24], r13
	mov	rax, qword ptr [rsp + 56]
	cmp	rax, 1
	mov	eax, 1141486416
	mov	ecx, -745167896
	cmova	eax, ecx
	jmp	.LBB22_1
.LBB22_25:                              
	mov	eax, dword ptr [rip + x.51]
	mov	ecx, dword ptr [rip + y.52]
	lea	edx, [rax - 1]
	imul	edx, eax
	mov	eax, edx
	xor	eax, -2
	and	eax, edx
	sete	dl
	cmp	ecx, 10
	setl	bl
	xor	bl, dl
	mov	edx, -370375340
	mov	esi, 208439347
	cmovne	edx, esi
	test	eax, eax
	mov	eax, edx
	cmove	eax, esi
	cmp	ecx, 10
	cmovge	eax, edx
	jmp	.LBB22_1
.LBB22_26:                              
	mov	rax, qword ptr [rsp + 96]
	mov	qword ptr [rsp + 88], rax 
	mov	rax, qword ptr [rsp + 104]
	mov	qword ptr [rsp + 80], rax 
	mov	eax, -685652901
	mov	rcx, qword ptr [rsp + 112]
	mov	qword ptr [rsp + 72], rcx 
	jmp	.LBB22_1
.LBB22_20:
	add	rsp, 120
	pop	rbx
	pop	r12
	pop	r13
	pop	r14
	pop	r15
	pop	rbp
	ret
.Lfunc_end22:
	.size	_ZNK5Botan9TripleDES9decrypt_nEPKhPhm, .Lfunc_end22-_ZNK5Botan9TripleDES9decrypt_nEPKhPhm
	.cfi_endproc

	.globl	_ZN5Botan9TripleDES12key_scheduleEPKhm 
	.p2align	4, 0x90
	.type	_ZN5Botan9TripleDES12key_scheduleEPKhm,@function
_ZN5Botan9TripleDES12key_scheduleEPKhm: 
	.cfi_startproc

	push	rbp
.Lcfi120:
	.cfi_def_cfa_offset 16
	push	r14
.Lcfi121:
	.cfi_def_cfa_offset 24
	push	rbx
.Lcfi122:
	.cfi_def_cfa_offset 32
	sub	rsp, 32
.Lcfi123:
	.cfi_def_cfa_offset 64
.Lcfi124:
	.cfi_offset rbx, -32
.Lcfi125:
	.cfi_offset r14, -24
.Lcfi126:
	.cfi_offset rbp, -16
	mov	r14, rdx
	mov	rbx, rsi
	add	rdi, 8
	mov	qword ptr [rsp + 16], rdi
	mov	rdi, qword ptr [rsp + 16]
	mov	esi, 96
	call	_ZNSt6vectorIjN5Botan16secure_allocatorIjEEE6resizeEm
	mov	rdi, qword ptr [rsp + 16]
	xor	esi, esi
	call	_ZNSt6vectorIjN5Botan16secure_allocatorIjEEEixEm
	mov	rdi, rax
	mov	rsi, rbx
	call	_ZN5Botan12_GLOBAL__N_116des_key_scheduleEPjPKh
	mov	rdi, qword ptr [rsp + 16]
	mov	esi, 32
	call	_ZNSt6vectorIjN5Botan16secure_allocatorIjEEEixEm
	lea	rsi, [rbx + 8]
	mov	rdi, rax
	call	_ZN5Botan12_GLOBAL__N_116des_key_scheduleEPjPKh
	cmp	r14, 24
	sete	byte ptr [rsp + 15]
	add	rbx, 16
	mov	eax, -1817938455
	mov	ebp, 2070716897
	jmp	.LBB23_1
.LBB23_9:                               
	mov	rdi, qword ptr [rsp + 16]
	mov	esi, 64
	call	_ZNSt6vectorIjN5Botan16secure_allocatorIjEEEixEm
	mov	qword ptr [rsp + 24], rax
	movzx	eax, byte ptr [rsp + 15]
	test	al, al
	mov	eax, -832617235
	cmovne	eax, ebp
	.p2align	4, 0x90
.LBB23_1:                               
	cmp	eax, 2005309161
	jg	.LBB23_5

	cmp	eax, -1817938455
	je	.LBB23_9

	cmp	eax, -832617235
	jne	.LBB23_1

	mov	rdi, qword ptr [rsp + 16]
	xor	esi, esi
	call	_ZNSt6vectorIjN5Botan16secure_allocatorIjEEEixEm
	mov	rdi, qword ptr [rsp + 24]
	mov	edx, 32
	mov	rsi, rax
	call	_ZN5Botan8copy_memIjEEvPT_PKS1_m
	mov	eax, 2005309162
	jmp	.LBB23_1
	.p2align	4, 0x90
.LBB23_5:                               
	cmp	eax, 2005309162
	je	.LBB23_8

	cmp	eax, 2070716897
	jne	.LBB23_1

	mov	rdi, qword ptr [rsp + 24]
	mov	rsi, rbx
	call	_ZN5Botan12_GLOBAL__N_116des_key_scheduleEPjPKh
	mov	eax, 2005309162
	jmp	.LBB23_1
.LBB23_8:
	add	rsp, 32
	pop	rbx
	pop	r14
	pop	rbp
	ret
.Lfunc_end23:
	.size	_ZN5Botan9TripleDES12key_scheduleEPKhm, .Lfunc_end23-_ZN5Botan9TripleDES12key_scheduleEPKhm
	.cfi_endproc

	.section	.text._ZNSt6vectorIjN5Botan16secure_allocatorIjEEEixEm,"axG",@progbits,_ZNSt6vectorIjN5Botan16secure_allocatorIjEEEixEm,comdat
	.weak	_ZNSt6vectorIjN5Botan16secure_allocatorIjEEEixEm 
	.p2align	4, 0x90
	.type	_ZNSt6vectorIjN5Botan16secure_allocatorIjEEEixEm,@function
_ZNSt6vectorIjN5Botan16secure_allocatorIjEEEixEm: 

	lea	rax, [4*rsi]
	add	rax, qword ptr [rdi]
	ret
.Lfunc_end24:
	.size	_ZNSt6vectorIjN5Botan16secure_allocatorIjEEEixEm, .Lfunc_end24-_ZNSt6vectorIjN5Botan16secure_allocatorIjEEEixEm

	.section	.text._ZN5Botan8copy_memIjEEvPT_PKS1_m,"axG",@progbits,_ZN5Botan8copy_memIjEEvPT_PKS1_m,comdat
	.weak	_ZN5Botan8copy_memIjEEvPT_PKS1_m 
	.p2align	4, 0x90
	.type	_ZN5Botan8copy_memIjEEvPT_PKS1_m,@function
_ZN5Botan8copy_memIjEEvPT_PKS1_m:       
	.cfi_startproc

	push	rbp
.Lcfi127:
	.cfi_def_cfa_offset 16
	push	r15
.Lcfi128:
	.cfi_def_cfa_offset 24
	push	r14
.Lcfi129:
	.cfi_def_cfa_offset 32
	push	r13
.Lcfi130:
	.cfi_def_cfa_offset 40
	push	r12
.Lcfi131:
	.cfi_def_cfa_offset 48
	push	rbx
.Lcfi132:
	.cfi_def_cfa_offset 56
	push	rax
.Lcfi133:
	.cfi_def_cfa_offset 64
.Lcfi134:
	.cfi_offset rbx, -56
.Lcfi135:
	.cfi_offset r12, -48
.Lcfi136:
	.cfi_offset r13, -40
.Lcfi137:
	.cfi_offset r14, -32
.Lcfi138:
	.cfi_offset r15, -24
.Lcfi139:
	.cfi_offset rbp, -16
	mov	r14, rdx
	mov	r15, rsi
	mov	r13, rdi
	test	r15, r15
	sete	r12b
	test	r13, r13
	setne	al
	sete	bpl
	or	bpl, r12b
	xor	bpl, 1
	xor	r12b, al
	and	r12b, al
	lea	rdx, [4*r14]
	mov	eax, -1433569287
	jmp	.LBB25_1
.LBB25_32:                              
	mov	eax, 1186806200
	.p2align	4, 0x90
.LBB25_1:                               
	cmp	eax, 1336777105
	jg	.LBB25_11

	cmp	eax, 309641465
	jle	.LBB25_3

	cmp	eax, 309641466
	je	.LBB25_32

	cmp	eax, 1186806200
	jne	.LBB25_9

	mov	eax, dword ptr [rip + x.57]
	mov	ecx, dword ptr [rip + y.58]
	lea	esi, [rax - 1]
	imul	esi, eax
	mov	edi, esi
	xor	edi, -2
	and	edi, esi
	sete	al
	cmp	ecx, 10
	setl	bl
	xor	bl, al
	mov	esi, -1759378617
	mov	eax, -1759378617
	jne	.LBB25_23

	mov	eax, 309641466
.LBB25_23:                              
	test	edi, edi
	je	.LBB25_25

	mov	esi, eax
.LBB25_25:                              
	cmp	ecx, 10
	mov	byte ptr [rsp + 7], bpl
	cmovl	eax, esi
	jmp	.LBB25_1
	.p2align	4, 0x90
.LBB25_11:                              
	cmp	eax, 1951425468
	jg	.LBB25_15

	cmp	eax, 1336777106
	je	.LBB25_31

	cmp	eax, 1772615653
	je	.LBB25_14
	jmp	.LBB25_1
	.p2align	4, 0x90
.LBB25_3:                               
	cmp	eax, -1759378617
	je	.LBB25_26

	cmp	eax, -1433569287
	jne	.LBB25_1

	test	r14, r14
	setne	byte ptr [rsp + 6]
	movzx	eax, byte ptr [rsp + 6]
	test	al, al
	mov	eax, 2058656269
	jne	.LBB25_1

	mov	eax, 1951425469
	jmp	.LBB25_1
	.p2align	4, 0x90
.LBB25_15:                              
	cmp	eax, 1951425469
	je	.LBB25_28

	cmp	eax, 2058656269
	jne	.LBB25_1

	mov	eax, dword ptr [rip + x.57]
	mov	ecx, dword ptr [rip + y.58]
	lea	esi, [rax - 1]
	imul	esi, eax
	mov	eax, esi
	xor	eax, -2
	and	eax, esi
	sete	bl
	test	eax, eax
	mov	eax, 1186806200
	mov	edi, 309641466
	mov	esi, 1186806200
	je	.LBB25_19

	mov	esi, 309641466
.LBB25_19:                              
	cmp	ecx, 10
	setl	cl
	cmovl	edi, esi
	xor	cl, bl
	jne	.LBB25_1

	mov	eax, edi
	jmp	.LBB25_1
.LBB25_26:                              
	movzx	eax, byte ptr [rsp + 7]
	test	al, al
	mov	eax, 1951425469
	jne	.LBB25_1

	mov	eax, 833222747
	jmp	.LBB25_1
.LBB25_31:                              
	mov	rdi, r13
	mov	rsi, r15
	mov	rbx, rdx
	call	memmove
	mov	rdx, rbx
	mov	eax, 1772615653
	jmp	.LBB25_1
.LBB25_28:                              
	movzx	eax, byte ptr [rsp + 6]
	test	al, al
	mov	ecx, 1336777106
	mov	eax, 1772615653
	jne	.LBB25_30

	mov	ecx, 1772615653
.LBB25_30:                              
	test	r12b, r12b
	cmovne	eax, ecx
	jmp	.LBB25_1
.LBB25_9:                               
	cmp	eax, 833222747
	jne	.LBB25_1

	mov	edi, .L.str
	mov	esi, .L.str.1
	mov	edx, .L__func__._ZN5Botan8copy_memIjEEvPT_PKS1_m
	mov	ecx, .L.str.2
	mov	r8d, 130
	call	_ZN5Botan17assertion_failureEPKcS1_S1_S1_i
.LBB25_14:
	add	rsp, 8
	pop	rbx
	pop	r12
	pop	r13
	pop	r14
	pop	r15
	pop	rbp
	ret
.Lfunc_end25:
	.size	_ZN5Botan8copy_memIjEEvPT_PKS1_m, .Lfunc_end25-_ZN5Botan8copy_memIjEEvPT_PKS1_m
	.cfi_endproc

	.text
	.globl	_ZN5Botan9TripleDES5clearEv 
	.p2align	4, 0x90
	.type	_ZN5Botan9TripleDES5clearEv,@function
_ZN5Botan9TripleDES5clearEv:            
	.cfi_startproc

	add	rdi, 8
	jmp	_ZN5Botan3zapIjNS_16secure_allocatorIjEEEEvRSt6vectorIT_T0_E 
.Lfunc_end26:
	.size	_ZN5Botan9TripleDES5clearEv, .Lfunc_end26-_ZN5Botan9TripleDES5clearEv
	.cfi_endproc

	.section	.text._ZN5Botan3DESD2Ev,"axG",@progbits,_ZN5Botan3DESD2Ev,comdat
	.weak	_ZN5Botan3DESD2Ev       
	.p2align	4, 0x90
	.type	_ZN5Botan3DESD2Ev,@function
_ZN5Botan3DESD2Ev:                      

	push	rbx
	mov	rbx, rdi
	mov	qword ptr [rbx], _ZTVN5Botan3DESE+16
	lea	rdi, [rbx + 8]
	call	_ZNSt6vectorIjN5Botan16secure_allocatorIjEEED2Ev
	mov	rdi, rbx
	pop	rbx
	jmp	_ZN5Botan18SymmetricAlgorithmD2Ev 
.Lfunc_end27:
	.size	_ZN5Botan3DESD2Ev, .Lfunc_end27-_ZN5Botan3DESD2Ev

	.section	.text._ZN5Botan3DESD0Ev,"axG",@progbits,_ZN5Botan3DESD0Ev,comdat
	.weak	_ZN5Botan3DESD0Ev       
	.p2align	4, 0x90
	.type	_ZN5Botan3DESD0Ev,@function
_ZN5Botan3DESD0Ev:                      

	push	rbx
	mov	rbx, rdi
	call	_ZN5Botan3DESD2Ev
	mov	rdi, rbx
	pop	rbx
	jmp	_ZdlPv                  
.Lfunc_end28:
	.size	_ZN5Botan3DESD0Ev, .Lfunc_end28-_ZN5Botan3DESD0Ev

	.section	.text._ZNK5Botan25Block_Cipher_Fixed_ParamsILm8ELm8ELm0ELm1ENS_11BlockCipherEE8key_specEv,"axG",@progbits,_ZNK5Botan25Block_Cipher_Fixed_ParamsILm8ELm8ELm0ELm1ENS_11BlockCipherEE8key_specEv,comdat
	.weak	_ZNK5Botan25Block_Cipher_Fixed_ParamsILm8ELm8ELm0ELm1ENS_11BlockCipherEE8key_specEv 
	.p2align	4, 0x90
	.type	_ZNK5Botan25Block_Cipher_Fixed_ParamsILm8ELm8ELm0ELm1ENS_11BlockCipherEE8key_specEv,@function
_ZNK5Botan25Block_Cipher_Fixed_ParamsILm8ELm8ELm0ELm1ENS_11BlockCipherEE8key_specEv: 
	.cfi_startproc

	push	rbp
.Lcfi140:
	.cfi_def_cfa_offset 16
	push	r15
.Lcfi141:
	.cfi_def_cfa_offset 24
	push	r14
.Lcfi142:
	.cfi_def_cfa_offset 32
	push	r12
.Lcfi143:
	.cfi_def_cfa_offset 40
	push	rbx
.Lcfi144:
	.cfi_def_cfa_offset 48
	sub	rsp, 16
.Lcfi145:
	.cfi_def_cfa_offset 64
.Lcfi146:
	.cfi_offset rbx, -48
.Lcfi147:
	.cfi_offset r12, -40
.Lcfi148:
	.cfi_offset r14, -32
.Lcfi149:
	.cfi_offset r15, -24
.Lcfi150:
	.cfi_offset rbp, -16
	mov	rbp, rdi
	mov	eax, dword ptr [rip + x.65]
	lea	ecx, [rax - 1]
	imul	ecx, eax
	mov	eax, ecx
	xor	eax, -2
	test	eax, ecx
	sete	byte ptr [rsp + 14]
	mov	eax, dword ptr [rip + y.66]
	cmp	eax, 10
	setl	byte ptr [rsp + 15]
	mov	eax, 1557010654
	mov	r15d, -567059898
	mov	r14d, -1195740028
	mov	r12d, -453630178
	jmp	.LBB29_1
.LBB29_7:                               
	movzx	ecx, byte ptr [rsp + 14]
	movzx	eax, byte ptr [rsp + 15]
	mov	edx, ecx
	xor	dl, al
	test	al, al
	mov	eax, -1195740028
	cmovne	eax, r12d
	test	cl, cl
	cmove	eax, r14d
	test	dl, dl
	cmovne	eax, r12d
	.p2align	4, 0x90
.LBB29_1:                               
	cmp	eax, -453630179
	jg	.LBB29_5

	cmp	eax, -1195740028
	je	.LBB29_9

	cmp	eax, -567059898
	jne	.LBB29_1
	jmp	.LBB29_4
	.p2align	4, 0x90
.LBB29_5:                               
	cmp	eax, -453630178
	je	.LBB29_8

	cmp	eax, 1557010654
	jne	.LBB29_1
	jmp	.LBB29_7
.LBB29_9:                               
	mov	esi, 8
	xor	edx, edx
	mov	ecx, 1
	mov	rdi, rbp
	call	_ZN5Botan24Key_Length_SpecificationC2Emmm
	mov	eax, -453630178
	jmp	.LBB29_1
.LBB29_8:                               
	mov	esi, 8
	xor	edx, edx
	mov	ecx, 1
	mov	rdi, rbp
	call	_ZN5Botan24Key_Length_SpecificationC2Emmm
	mov	eax, dword ptr [rip + x.65]
	mov	ecx, dword ptr [rip + y.66]
	lea	edx, [rax - 1]
	imul	edx, eax
	mov	eax, edx
	xor	eax, -2
	and	eax, edx
	sete	dl
	cmp	ecx, 10
	setl	bl
	xor	bl, dl
	mov	edx, -1195740028
	cmovne	edx, r15d
	test	eax, eax
	mov	eax, edx
	cmove	eax, r15d
	cmp	ecx, 10
	cmovge	eax, edx
	jmp	.LBB29_1
.LBB29_4:
	mov	rax, rbp
	add	rsp, 16
	pop	rbx
	pop	r12
	pop	r14
	pop	r15
	pop	rbp
	ret
.Lfunc_end29:
	.size	_ZNK5Botan25Block_Cipher_Fixed_ParamsILm8ELm8ELm0ELm1ENS_11BlockCipherEE8key_specEv, .Lfunc_end29-_ZNK5Botan25Block_Cipher_Fixed_ParamsILm8ELm8ELm0ELm1ENS_11BlockCipherEE8key_specEv
	.cfi_endproc

	.section	.text._ZNK5Botan3DES4nameB5cxx11Ev,"axG",@progbits,_ZNK5Botan3DES4nameB5cxx11Ev,comdat
	.weak	_ZNK5Botan3DES4nameB5cxx11Ev 
	.p2align	4, 0x90
	.type	_ZNK5Botan3DES4nameB5cxx11Ev,@function
_ZNK5Botan3DES4nameB5cxx11Ev:           
.Lfunc_begin0:
	.cfi_startproc
	.cfi_personality 3, __gxx_personality_v0
	.cfi_lsda 3, .Lexception0

	push	r14
.Lcfi151:
	.cfi_def_cfa_offset 16
	push	rbx
.Lcfi152:
	.cfi_def_cfa_offset 24
	push	rax
.Lcfi153:
	.cfi_def_cfa_offset 32
.Lcfi154:
	.cfi_offset rbx, -24
.Lcfi155:
	.cfi_offset r14, -16
	mov	rbx, rdi
	mov	r14, rsp
	mov	rdi, r14
	call	_ZNSaIcEC2Ev
.Ltmp0:
	mov	esi, .L.str.3
	mov	rdi, rbx
	mov	rdx, r14
	call	_ZNSt7__cxx1112basic_stringIcSt11char_traitsIcESaIcEEC2EPKcRKS3_
.Ltmp1:

	mov	rdi, rsp
	call	_ZNSaIcED2Ev
	mov	rax, rbx
	add	rsp, 8
	pop	rbx
	pop	r14
	ret
.LBB30_2:
.Ltmp2:
	mov	rbx, rax
	mov	rdi, rsp
	call	_ZNSaIcED2Ev
	mov	rdi, rbx
	call	_Unwind_Resume
.Lfunc_end30:
	.size	_ZNK5Botan3DES4nameB5cxx11Ev, .Lfunc_end30-_ZNK5Botan3DES4nameB5cxx11Ev
	.cfi_endproc
	.section	.gcc_except_table,"a",@progbits
	.p2align	2
GCC_except_table30:
.Lexception0:
	.byte	255                     
	.byte	3                       
	.asciz	"\234"                  
	.byte	3                       
	.byte	26                      
	.long	.Ltmp0-.Lfunc_begin0    
	.long	.Ltmp1-.Ltmp0           
	.long	.Ltmp2-.Lfunc_begin0    
	.byte	0                       
	.long	.Ltmp1-.Lfunc_begin0    
	.long	.Lfunc_end30-.Ltmp1     
	.long	0                       
	.byte	0                       
	.p2align	2

	.section	.text._ZNK5Botan25Block_Cipher_Fixed_ParamsILm8ELm8ELm0ELm1ENS_11BlockCipherEE10block_sizeEv,"axG",@progbits,_ZNK5Botan25Block_Cipher_Fixed_ParamsILm8ELm8ELm0ELm1ENS_11BlockCipherEE10block_sizeEv,comdat
	.weak	_ZNK5Botan25Block_Cipher_Fixed_ParamsILm8ELm8ELm0ELm1ENS_11BlockCipherEE10block_sizeEv 
	.p2align	4, 0x90
	.type	_ZNK5Botan25Block_Cipher_Fixed_ParamsILm8ELm8ELm0ELm1ENS_11BlockCipherEE10block_sizeEv,@function
_ZNK5Botan25Block_Cipher_Fixed_ParamsILm8ELm8ELm0ELm1ENS_11BlockCipherEE10block_sizeEv: 

	mov	eax, dword ptr [rip + x.67]
	mov	esi, dword ptr [rip + y.68]
	lea	edx, [rax - 1]
	imul	edx, eax
	not	edx
	or	edx, -2
	cmp	edx, -1
	sete	al
	cmp	esi, 10
	setl	cl
	xor	cl, al
	mov	eax, 6973409
	mov	ecx, 898017286
	cmovne	ecx, eax
	cmp	edx, -1
	sete	byte ptr [rsp - 2]
	cmovne	eax, ecx
	cmp	esi, 10
	setl	byte ptr [rsp - 1]
	cmovge	eax, ecx
	mov	edx, -1708721085
	mov	esi, -913002737
	jmp	.LBB31_1
.LBB31_4:                               
	mov	edx, eax
	.p2align	4, 0x90
.LBB31_1:                               
	cmp	edx, 6973408
	jg	.LBB31_5

	cmp	edx, -1708721085
	je	.LBB31_8

	cmp	edx, -913002737
	jne	.LBB31_1
	jmp	.LBB31_4
	.p2align	4, 0x90
.LBB31_5:                               
	cmp	edx, 6973409
	je	.LBB31_9

	cmp	edx, 898017286
	jne	.LBB31_1

	mov	edx, -913002737
	jmp	.LBB31_1
.LBB31_8:                               
	movzx	edi, byte ptr [rsp - 2]
	movzx	edx, byte ptr [rsp - 1]
	mov	ecx, edi
	xor	cl, dl
	mov	ecx, 898017286
	cmovne	ecx, esi
	test	dl, dl
	mov	edx, ecx
	cmovne	edx, esi
	test	dil, dil
	cmove	edx, ecx
	jmp	.LBB31_1
.LBB31_9:
	mov	eax, 8
	ret
.Lfunc_end31:
	.size	_ZNK5Botan25Block_Cipher_Fixed_ParamsILm8ELm8ELm0ELm1ENS_11BlockCipherEE10block_sizeEv, .Lfunc_end31-_ZNK5Botan25Block_Cipher_Fixed_ParamsILm8ELm8ELm0ELm1ENS_11BlockCipherEE10block_sizeEv

	.section	.text._ZNK5Botan11BlockCipher11parallelismEv,"axG",@progbits,_ZNK5Botan11BlockCipher11parallelismEv,comdat
	.weak	_ZNK5Botan11BlockCipher11parallelismEv 
	.p2align	4, 0x90
	.type	_ZNK5Botan11BlockCipher11parallelismEv,@function
_ZNK5Botan11BlockCipher11parallelismEv: 

	mov	eax, dword ptr [rip + x.69]
	mov	edx, dword ptr [rip + y.70]
	lea	ecx, [rax - 1]
	imul	ecx, eax
	not	ecx
	or	ecx, -2
	cmp	ecx, -1
	sete	al
	sete	byte ptr [rsp - 2]
	mov	esi, -497936500
	mov	r8d, 1121610626
	mov	ecx, 1121610626
	cmove	ecx, esi
	cmp	edx, 10
	setl	dl
	setl	byte ptr [rsp - 1]
	cmovge	ecx, r8d
	xor	dl, al
	cmovne	ecx, esi
	mov	esi, 396519901
	mov	edi, -1769617678
	jmp	.LBB32_1
.LBB32_3:                               
	mov	esi, ecx
	.p2align	4, 0x90
.LBB32_1:                               
	cmp	esi, 396519900
	jg	.LBB32_4

	cmp	esi, -1769617678
	je	.LBB32_3

	cmp	esi, -497936500
	jne	.LBB32_1
	jmp	.LBB32_8
	.p2align	4, 0x90
.LBB32_4:                               
	cmp	esi, 1121610626
	je	.LBB32_9

	cmp	esi, 396519901
	jne	.LBB32_1

	movzx	r9d, byte ptr [rsp - 2]
	movzx	edx, byte ptr [rsp - 1]
	mov	eax, r9d
	xor	al, dl
	test	dl, dl
	mov	esi, 1121610626
	cmovne	esi, edi
	test	r9b, r9b
	cmove	esi, r8d
	test	al, al
	cmovne	esi, edi
	jmp	.LBB32_1
.LBB32_9:                               
	mov	esi, -1769617678
	jmp	.LBB32_1
.LBB32_8:
	mov	eax, 1
	ret
.Lfunc_end32:
	.size	_ZNK5Botan11BlockCipher11parallelismEv, .Lfunc_end32-_ZNK5Botan11BlockCipher11parallelismEv

	.section	.text._ZNK5Botan11BlockCipher8providerB5cxx11Ev,"axG",@progbits,_ZNK5Botan11BlockCipher8providerB5cxx11Ev,comdat
	.weak	_ZNK5Botan11BlockCipher8providerB5cxx11Ev 
	.p2align	4, 0x90
	.type	_ZNK5Botan11BlockCipher8providerB5cxx11Ev,@function
_ZNK5Botan11BlockCipher8providerB5cxx11Ev: 
.Lfunc_begin1:
	.cfi_startproc
	.cfi_personality 3, __gxx_personality_v0
	.cfi_lsda 3, .Lexception1

	push	r14
.Lcfi156:
	.cfi_def_cfa_offset 16
	push	rbx
.Lcfi157:
	.cfi_def_cfa_offset 24
	push	rax
.Lcfi158:
	.cfi_def_cfa_offset 32
.Lcfi159:
	.cfi_offset rbx, -24
.Lcfi160:
	.cfi_offset r14, -16
	mov	rbx, rdi
	mov	r14, rsp
	mov	rdi, r14
	call	_ZNSaIcEC2Ev
.Ltmp3:
	mov	esi, .L.str.6
	mov	rdi, rbx
	mov	rdx, r14
	call	_ZNSt7__cxx1112basic_stringIcSt11char_traitsIcESaIcEEC2EPKcRKS3_
.Ltmp4:

	mov	rdi, rsp
	call	_ZNSaIcED2Ev
	mov	rax, rbx
	add	rsp, 8
	pop	rbx
	pop	r14
	ret
.LBB33_2:
.Ltmp5:
	mov	rbx, rax
	mov	rdi, rsp
	call	_ZNSaIcED2Ev
	mov	rdi, rbx
	call	_Unwind_Resume
.Lfunc_end33:
	.size	_ZNK5Botan11BlockCipher8providerB5cxx11Ev, .Lfunc_end33-_ZNK5Botan11BlockCipher8providerB5cxx11Ev
	.cfi_endproc
	.section	.gcc_except_table,"a",@progbits
	.p2align	2
GCC_except_table33:
.Lexception1:
	.byte	255                     
	.byte	3                       
	.asciz	"\234"                  
	.byte	3                       
	.byte	26                      
	.long	.Ltmp3-.Lfunc_begin1    
	.long	.Ltmp4-.Ltmp3           
	.long	.Ltmp5-.Lfunc_begin1    
	.byte	0                       
	.long	.Ltmp4-.Lfunc_begin1    
	.long	.Lfunc_end33-.Ltmp4     
	.long	0                       
	.byte	0                       
	.p2align	2

	.section	.text._ZNK5Botan25Block_Cipher_Fixed_ParamsILm8ELm8ELm0ELm1ENS_11BlockCipherEE13encrypt_n_xexEPhPKhm,"axG",@progbits,_ZNK5Botan25Block_Cipher_Fixed_ParamsILm8ELm8ELm0ELm1ENS_11BlockCipherEE13encrypt_n_xexEPhPKhm,comdat
	.weak	_ZNK5Botan25Block_Cipher_Fixed_ParamsILm8ELm8ELm0ELm1ENS_11BlockCipherEE13encrypt_n_xexEPhPKhm 
	.p2align	4, 0x90
	.type	_ZNK5Botan25Block_Cipher_Fixed_ParamsILm8ELm8ELm0ELm1ENS_11BlockCipherEE13encrypt_n_xexEPhPKhm,@function
_ZNK5Botan25Block_Cipher_Fixed_ParamsILm8ELm8ELm0ELm1ENS_11BlockCipherEE13encrypt_n_xexEPhPKhm: 
	.cfi_startproc

	push	r15
.Lcfi161:
	.cfi_def_cfa_offset 16
	push	r14
.Lcfi162:
	.cfi_def_cfa_offset 24
	push	r13
.Lcfi163:
	.cfi_def_cfa_offset 32
	push	r12
.Lcfi164:
	.cfi_def_cfa_offset 40
	push	rbx
.Lcfi165:
	.cfi_def_cfa_offset 48
.Lcfi166:
	.cfi_offset rbx, -48
.Lcfi167:
	.cfi_offset r12, -40
.Lcfi168:
	.cfi_offset r13, -32
.Lcfi169:
	.cfi_offset r14, -24
.Lcfi170:
	.cfi_offset r15, -16
	mov	r15, rcx
	mov	r14, rdx
	mov	rbx, rsi
	mov	r12, rdi
	lea	r13, [8*r15]
	mov	rdi, rbx
	mov	rsi, r14
	mov	rdx, r13
	call	_ZN5Botan7xor_bufEPhPKhm
	mov	rax, qword ptr [r12]
	mov	rdi, r12
	mov	rsi, rbx
	mov	rdx, rbx
	mov	rcx, r15
	call	qword ptr [rax + 72]
	mov	rdi, rbx
	mov	rsi, r14
	mov	rdx, r13
	pop	rbx
	pop	r12
	pop	r13
	pop	r14
	pop	r15
	jmp	_ZN5Botan7xor_bufEPhPKhm 
.Lfunc_end34:
	.size	_ZNK5Botan25Block_Cipher_Fixed_ParamsILm8ELm8ELm0ELm1ENS_11BlockCipherEE13encrypt_n_xexEPhPKhm, .Lfunc_end34-_ZNK5Botan25Block_Cipher_Fixed_ParamsILm8ELm8ELm0ELm1ENS_11BlockCipherEE13encrypt_n_xexEPhPKhm
	.cfi_endproc

	.section	.text._ZNK5Botan25Block_Cipher_Fixed_ParamsILm8ELm8ELm0ELm1ENS_11BlockCipherEE13decrypt_n_xexEPhPKhm,"axG",@progbits,_ZNK5Botan25Block_Cipher_Fixed_ParamsILm8ELm8ELm0ELm1ENS_11BlockCipherEE13decrypt_n_xexEPhPKhm,comdat
	.weak	_ZNK5Botan25Block_Cipher_Fixed_ParamsILm8ELm8ELm0ELm1ENS_11BlockCipherEE13decrypt_n_xexEPhPKhm 
	.p2align	4, 0x90
	.type	_ZNK5Botan25Block_Cipher_Fixed_ParamsILm8ELm8ELm0ELm1ENS_11BlockCipherEE13decrypt_n_xexEPhPKhm,@function
_ZNK5Botan25Block_Cipher_Fixed_ParamsILm8ELm8ELm0ELm1ENS_11BlockCipherEE13decrypt_n_xexEPhPKhm: 
	.cfi_startproc

	push	r15
.Lcfi171:
	.cfi_def_cfa_offset 16
	push	r14
.Lcfi172:
	.cfi_def_cfa_offset 24
	push	r13
.Lcfi173:
	.cfi_def_cfa_offset 32
	push	r12
.Lcfi174:
	.cfi_def_cfa_offset 40
	push	rbx
.Lcfi175:
	.cfi_def_cfa_offset 48
.Lcfi176:
	.cfi_offset rbx, -48
.Lcfi177:
	.cfi_offset r12, -40
.Lcfi178:
	.cfi_offset r13, -32
.Lcfi179:
	.cfi_offset r14, -24
.Lcfi180:
	.cfi_offset r15, -16
	mov	r15, rcx
	mov	r14, rdx
	mov	rbx, rsi
	mov	r12, rdi
	lea	r13, [8*r15]
	mov	rdi, rbx
	mov	rsi, r14
	mov	rdx, r13
	call	_ZN5Botan7xor_bufEPhPKhm
	mov	rax, qword ptr [r12]
	mov	rdi, r12
	mov	rsi, rbx
	mov	rdx, rbx
	mov	rcx, r15
	call	qword ptr [rax + 80]
	mov	rdi, rbx
	mov	rsi, r14
	mov	rdx, r13
	pop	rbx
	pop	r12
	pop	r13
	pop	r14
	pop	r15
	jmp	_ZN5Botan7xor_bufEPhPKhm 
.Lfunc_end35:
	.size	_ZNK5Botan25Block_Cipher_Fixed_ParamsILm8ELm8ELm0ELm1ENS_11BlockCipherEE13decrypt_n_xexEPhPKhm, .Lfunc_end35-_ZNK5Botan25Block_Cipher_Fixed_ParamsILm8ELm8ELm0ELm1ENS_11BlockCipherEE13decrypt_n_xexEPhPKhm
	.cfi_endproc

	.section	.text._ZNK5Botan3DES10new_objectEv,"axG",@progbits,_ZNK5Botan3DES10new_objectEv,comdat
	.weak	_ZNK5Botan3DES10new_objectEv 
	.p2align	4, 0x90
	.type	_ZNK5Botan3DES10new_objectEv,@function
_ZNK5Botan3DES10new_objectEv:           
	.cfi_startproc

	push	r14
.Lcfi181:
	.cfi_def_cfa_offset 16
	push	rbx
.Lcfi182:
	.cfi_def_cfa_offset 24
	push	rax
.Lcfi183:
	.cfi_def_cfa_offset 32
.Lcfi184:
	.cfi_offset rbx, -24
.Lcfi185:
	.cfi_offset r14, -16
	mov	rbx, rdi
	mov	r14, rsp
	mov	rdi, r14
	call	_ZSt11make_uniqueIN5Botan3DESEJEENSt9_MakeUniqIT_E15__single_objectEDpOT0_
	mov	rdi, rbx
	mov	rsi, r14
	call	_ZNSt10unique_ptrIN5Botan11BlockCipherESt14default_deleteIS1_EEC2INS0_3DESES2_IS6_EvEEOS_IT_T0_E
	mov	rdi, r14
	call	_ZNSt10unique_ptrIN5Botan3DESESt14default_deleteIS1_EED2Ev
	mov	rax, rbx
	add	rsp, 8
	pop	rbx
	pop	r14
	ret
.Lfunc_end36:
	.size	_ZNK5Botan3DES10new_objectEv, .Lfunc_end36-_ZNK5Botan3DES10new_objectEv
	.cfi_endproc

	.section	.text._ZN5Botan9TripleDESD2Ev,"axG",@progbits,_ZN5Botan9TripleDESD2Ev,comdat
	.weak	_ZN5Botan9TripleDESD2Ev 
	.p2align	4, 0x90
	.type	_ZN5Botan9TripleDESD2Ev,@function
_ZN5Botan9TripleDESD2Ev:                

	push	rbx
	mov	rbx, rdi
	mov	qword ptr [rbx], _ZTVN5Botan9TripleDESE+16
	lea	rdi, [rbx + 8]
	call	_ZNSt6vectorIjN5Botan16secure_allocatorIjEEED2Ev
	mov	rdi, rbx
	pop	rbx
	jmp	_ZN5Botan18SymmetricAlgorithmD2Ev 
.Lfunc_end37:
	.size	_ZN5Botan9TripleDESD2Ev, .Lfunc_end37-_ZN5Botan9TripleDESD2Ev

	.section	.text._ZN5Botan9TripleDESD0Ev,"axG",@progbits,_ZN5Botan9TripleDESD0Ev,comdat
	.weak	_ZN5Botan9TripleDESD0Ev 
	.p2align	4, 0x90
	.type	_ZN5Botan9TripleDESD0Ev,@function
_ZN5Botan9TripleDESD0Ev:                

	push	rbx
	mov	rbx, rdi
	call	_ZN5Botan9TripleDESD2Ev
	mov	rdi, rbx
	pop	rbx
	jmp	_ZdlPv                  
.Lfunc_end38:
	.size	_ZN5Botan9TripleDESD0Ev, .Lfunc_end38-_ZN5Botan9TripleDESD0Ev

	.section	.text._ZNK5Botan25Block_Cipher_Fixed_ParamsILm8ELm16ELm24ELm8ENS_11BlockCipherEE8key_specEv,"axG",@progbits,_ZNK5Botan25Block_Cipher_Fixed_ParamsILm8ELm16ELm24ELm8ENS_11BlockCipherEE8key_specEv,comdat
	.weak	_ZNK5Botan25Block_Cipher_Fixed_ParamsILm8ELm16ELm24ELm8ENS_11BlockCipherEE8key_specEv 
	.p2align	4, 0x90
	.type	_ZNK5Botan25Block_Cipher_Fixed_ParamsILm8ELm16ELm24ELm8ENS_11BlockCipherEE8key_specEv,@function
_ZNK5Botan25Block_Cipher_Fixed_ParamsILm8ELm16ELm24ELm8ENS_11BlockCipherEE8key_specEv: 
	.cfi_startproc

	push	rbp
.Lcfi186:
	.cfi_def_cfa_offset 16
	push	r15
.Lcfi187:
	.cfi_def_cfa_offset 24
	push	r14
.Lcfi188:
	.cfi_def_cfa_offset 32
	push	r12
.Lcfi189:
	.cfi_def_cfa_offset 40
	push	rbx
.Lcfi190:
	.cfi_def_cfa_offset 48
	sub	rsp, 16
.Lcfi191:
	.cfi_def_cfa_offset 64
.Lcfi192:
	.cfi_offset rbx, -48
.Lcfi193:
	.cfi_offset r12, -40
.Lcfi194:
	.cfi_offset r14, -32
.Lcfi195:
	.cfi_offset r15, -24
.Lcfi196:
	.cfi_offset rbp, -16
	mov	rbp, rdi
	mov	eax, dword ptr [rip + x.81]
	lea	ecx, [rax - 1]
	imul	ecx, eax
	mov	eax, ecx
	xor	eax, -2
	test	eax, ecx
	sete	byte ptr [rsp + 14]
	mov	eax, dword ptr [rip + y.82]
	cmp	eax, 10
	setl	byte ptr [rsp + 15]
	mov	eax, 32791170
	mov	r15d, 456510221
	mov	r14d, -1087736370
	mov	r12d, -568187603
	jmp	.LBB39_1
.LBB39_7:                               
	movzx	ecx, byte ptr [rsp + 14]
	movzx	eax, byte ptr [rsp + 15]
	mov	edx, ecx
	xor	dl, al
	test	al, al
	mov	eax, -1087736370
	cmovne	eax, r12d
	test	cl, cl
	cmove	eax, r14d
	test	dl, dl
	cmovne	eax, r12d
	.p2align	4, 0x90
.LBB39_1:                               
	cmp	eax, 32791169
	jg	.LBB39_5

	cmp	eax, -1087736370
	je	.LBB39_9

	cmp	eax, -568187603
	jne	.LBB39_1

	mov	esi, 16
	mov	edx, 24
	mov	ecx, 8
	mov	rdi, rbp
	call	_ZN5Botan24Key_Length_SpecificationC2Emmm
	mov	eax, dword ptr [rip + x.81]
	mov	ecx, dword ptr [rip + y.82]
	lea	edx, [rax - 1]
	imul	edx, eax
	mov	eax, edx
	xor	eax, -2
	and	eax, edx
	sete	dl
	cmp	ecx, 10
	setl	bl
	xor	bl, dl
	mov	edx, -1087736370
	cmovne	edx, r15d
	test	eax, eax
	mov	eax, edx
	cmove	eax, r15d
	cmp	ecx, 10
	cmovge	eax, edx
	jmp	.LBB39_1
	.p2align	4, 0x90
.LBB39_5:                               
	cmp	eax, 456510221
	je	.LBB39_8

	cmp	eax, 32791170
	jne	.LBB39_1
	jmp	.LBB39_7
.LBB39_9:                               
	mov	esi, 16
	mov	edx, 24
	mov	ecx, 8
	mov	rdi, rbp
	call	_ZN5Botan24Key_Length_SpecificationC2Emmm
	mov	eax, -568187603
	jmp	.LBB39_1
.LBB39_8:
	mov	rax, rbp
	add	rsp, 16
	pop	rbx
	pop	r12
	pop	r14
	pop	r15
	pop	rbp
	ret
.Lfunc_end39:
	.size	_ZNK5Botan25Block_Cipher_Fixed_ParamsILm8ELm16ELm24ELm8ENS_11BlockCipherEE8key_specEv, .Lfunc_end39-_ZNK5Botan25Block_Cipher_Fixed_ParamsILm8ELm16ELm24ELm8ENS_11BlockCipherEE8key_specEv
	.cfi_endproc

	.section	.text._ZNK5Botan9TripleDES4nameB5cxx11Ev,"axG",@progbits,_ZNK5Botan9TripleDES4nameB5cxx11Ev,comdat
	.weak	_ZNK5Botan9TripleDES4nameB5cxx11Ev 
	.p2align	4, 0x90
	.type	_ZNK5Botan9TripleDES4nameB5cxx11Ev,@function
_ZNK5Botan9TripleDES4nameB5cxx11Ev:     
.Lfunc_begin2:
	.cfi_startproc
	.cfi_personality 3, __gxx_personality_v0
	.cfi_lsda 3, .Lexception2

	push	r14
.Lcfi197:
	.cfi_def_cfa_offset 16
	push	rbx
.Lcfi198:
	.cfi_def_cfa_offset 24
	push	rax
.Lcfi199:
	.cfi_def_cfa_offset 32
.Lcfi200:
	.cfi_offset rbx, -24
.Lcfi201:
	.cfi_offset r14, -16
	mov	rbx, rdi
	mov	r14, rsp
	mov	rdi, r14
	call	_ZNSaIcEC2Ev
.Ltmp6:
	mov	esi, .L.str.7
	mov	rdi, rbx
	mov	rdx, r14
	call	_ZNSt7__cxx1112basic_stringIcSt11char_traitsIcESaIcEEC2EPKcRKS3_
.Ltmp7:

	mov	rdi, rsp
	call	_ZNSaIcED2Ev
	mov	rax, rbx
	add	rsp, 8
	pop	rbx
	pop	r14
	ret
.LBB40_2:
.Ltmp8:
	mov	rbx, rax
	mov	rdi, rsp
	call	_ZNSaIcED2Ev
	mov	rdi, rbx
	call	_Unwind_Resume
.Lfunc_end40:
	.size	_ZNK5Botan9TripleDES4nameB5cxx11Ev, .Lfunc_end40-_ZNK5Botan9TripleDES4nameB5cxx11Ev
	.cfi_endproc
	.section	.gcc_except_table,"a",@progbits
	.p2align	2
GCC_except_table40:
.Lexception2:
	.byte	255                     
	.byte	3                       
	.asciz	"\234"                  
	.byte	3                       
	.byte	26                      
	.long	.Ltmp6-.Lfunc_begin2    
	.long	.Ltmp7-.Ltmp6           
	.long	.Ltmp8-.Lfunc_begin2    
	.byte	0                       
	.long	.Ltmp7-.Lfunc_begin2    
	.long	.Lfunc_end40-.Ltmp7     
	.long	0                       
	.byte	0                       
	.p2align	2

	.section	.text._ZNK5Botan25Block_Cipher_Fixed_ParamsILm8ELm16ELm24ELm8ENS_11BlockCipherEE10block_sizeEv,"axG",@progbits,_ZNK5Botan25Block_Cipher_Fixed_ParamsILm8ELm16ELm24ELm8ENS_11BlockCipherEE10block_sizeEv,comdat
	.weak	_ZNK5Botan25Block_Cipher_Fixed_ParamsILm8ELm16ELm24ELm8ENS_11BlockCipherEE10block_sizeEv 
	.p2align	4, 0x90
	.type	_ZNK5Botan25Block_Cipher_Fixed_ParamsILm8ELm16ELm24ELm8ENS_11BlockCipherEE10block_sizeEv,@function
_ZNK5Botan25Block_Cipher_Fixed_ParamsILm8ELm16ELm24ELm8ENS_11BlockCipherEE10block_sizeEv: 

	mov	eax, 8
	ret
.Lfunc_end41:
	.size	_ZNK5Botan25Block_Cipher_Fixed_ParamsILm8ELm16ELm24ELm8ENS_11BlockCipherEE10block_sizeEv, .Lfunc_end41-_ZNK5Botan25Block_Cipher_Fixed_ParamsILm8ELm16ELm24ELm8ENS_11BlockCipherEE10block_sizeEv

	.section	.text._ZNK5Botan25Block_Cipher_Fixed_ParamsILm8ELm16ELm24ELm8ENS_11BlockCipherEE13encrypt_n_xexEPhPKhm,"axG",@progbits,_ZNK5Botan25Block_Cipher_Fixed_ParamsILm8ELm16ELm24ELm8ENS_11BlockCipherEE13encrypt_n_xexEPhPKhm,comdat
	.weak	_ZNK5Botan25Block_Cipher_Fixed_ParamsILm8ELm16ELm24ELm8ENS_11BlockCipherEE13encrypt_n_xexEPhPKhm 
	.p2align	4, 0x90
	.type	_ZNK5Botan25Block_Cipher_Fixed_ParamsILm8ELm16ELm24ELm8ENS_11BlockCipherEE13encrypt_n_xexEPhPKhm,@function
_ZNK5Botan25Block_Cipher_Fixed_ParamsILm8ELm16ELm24ELm8ENS_11BlockCipherEE13encrypt_n_xexEPhPKhm: 
	.cfi_startproc

	push	r15
.Lcfi202:
	.cfi_def_cfa_offset 16
	push	r14
.Lcfi203:
	.cfi_def_cfa_offset 24
	push	r13
.Lcfi204:
	.cfi_def_cfa_offset 32
	push	r12
.Lcfi205:
	.cfi_def_cfa_offset 40
	push	rbx
.Lcfi206:
	.cfi_def_cfa_offset 48
.Lcfi207:
	.cfi_offset rbx, -48
.Lcfi208:
	.cfi_offset r12, -40
.Lcfi209:
	.cfi_offset r13, -32
.Lcfi210:
	.cfi_offset r14, -24
.Lcfi211:
	.cfi_offset r15, -16
	mov	r15, rcx
	mov	r14, rdx
	mov	rbx, rsi
	mov	r12, rdi
	lea	r13, [8*r15]
	mov	rdi, rbx
	mov	rsi, r14
	mov	rdx, r13
	call	_ZN5Botan7xor_bufEPhPKhm
	mov	rax, qword ptr [r12]
	mov	rdi, r12
	mov	rsi, rbx
	mov	rdx, rbx
	mov	rcx, r15
	call	qword ptr [rax + 72]
	mov	rdi, rbx
	mov	rsi, r14
	mov	rdx, r13
	pop	rbx
	pop	r12
	pop	r13
	pop	r14
	pop	r15
	jmp	_ZN5Botan7xor_bufEPhPKhm 
.Lfunc_end42:
	.size	_ZNK5Botan25Block_Cipher_Fixed_ParamsILm8ELm16ELm24ELm8ENS_11BlockCipherEE13encrypt_n_xexEPhPKhm, .Lfunc_end42-_ZNK5Botan25Block_Cipher_Fixed_ParamsILm8ELm16ELm24ELm8ENS_11BlockCipherEE13encrypt_n_xexEPhPKhm
	.cfi_endproc

	.section	.text._ZNK5Botan25Block_Cipher_Fixed_ParamsILm8ELm16ELm24ELm8ENS_11BlockCipherEE13decrypt_n_xexEPhPKhm,"axG",@progbits,_ZNK5Botan25Block_Cipher_Fixed_ParamsILm8ELm16ELm24ELm8ENS_11BlockCipherEE13decrypt_n_xexEPhPKhm,comdat
	.weak	_ZNK5Botan25Block_Cipher_Fixed_ParamsILm8ELm16ELm24ELm8ENS_11BlockCipherEE13decrypt_n_xexEPhPKhm 
	.p2align	4, 0x90
	.type	_ZNK5Botan25Block_Cipher_Fixed_ParamsILm8ELm16ELm24ELm8ENS_11BlockCipherEE13decrypt_n_xexEPhPKhm,@function
_ZNK5Botan25Block_Cipher_Fixed_ParamsILm8ELm16ELm24ELm8ENS_11BlockCipherEE13decrypt_n_xexEPhPKhm: 
	.cfi_startproc

	push	r15
.Lcfi212:
	.cfi_def_cfa_offset 16
	push	r14
.Lcfi213:
	.cfi_def_cfa_offset 24
	push	r13
.Lcfi214:
	.cfi_def_cfa_offset 32
	push	r12
.Lcfi215:
	.cfi_def_cfa_offset 40
	push	rbx
.Lcfi216:
	.cfi_def_cfa_offset 48
.Lcfi217:
	.cfi_offset rbx, -48
.Lcfi218:
	.cfi_offset r12, -40
.Lcfi219:
	.cfi_offset r13, -32
.Lcfi220:
	.cfi_offset r14, -24
.Lcfi221:
	.cfi_offset r15, -16
	mov	r15, rcx
	mov	r14, rdx
	mov	rbx, rsi
	mov	r12, rdi
	lea	r13, [8*r15]
	mov	rdi, rbx
	mov	rsi, r14
	mov	rdx, r13
	call	_ZN5Botan7xor_bufEPhPKhm
	mov	rax, qword ptr [r12]
	mov	rdi, r12
	mov	rsi, rbx
	mov	rdx, rbx
	mov	rcx, r15
	call	qword ptr [rax + 80]
	mov	rdi, rbx
	mov	rsi, r14
	mov	rdx, r13
	pop	rbx
	pop	r12
	pop	r13
	pop	r14
	pop	r15
	jmp	_ZN5Botan7xor_bufEPhPKhm 
.Lfunc_end43:
	.size	_ZNK5Botan25Block_Cipher_Fixed_ParamsILm8ELm16ELm24ELm8ENS_11BlockCipherEE13decrypt_n_xexEPhPKhm, .Lfunc_end43-_ZNK5Botan25Block_Cipher_Fixed_ParamsILm8ELm16ELm24ELm8ENS_11BlockCipherEE13decrypt_n_xexEPhPKhm
	.cfi_endproc

	.section	.text._ZNK5Botan9TripleDES10new_objectEv,"axG",@progbits,_ZNK5Botan9TripleDES10new_objectEv,comdat
	.weak	_ZNK5Botan9TripleDES10new_objectEv 
	.p2align	4, 0x90
	.type	_ZNK5Botan9TripleDES10new_objectEv,@function
_ZNK5Botan9TripleDES10new_objectEv:     
	.cfi_startproc

	push	rbp
.Lcfi222:
	.cfi_def_cfa_offset 16
.Lcfi223:
	.cfi_offset rbp, -16
	mov	rbp, rsp
.Lcfi224:
	.cfi_def_cfa_register rbp
	push	r15
	push	r14
	push	r13
	push	r12
	push	rbx
	push	rax
.Lcfi225:
	.cfi_offset rbx, -56
.Lcfi226:
	.cfi_offset r12, -48
.Lcfi227:
	.cfi_offset r13, -40
.Lcfi228:
	.cfi_offset r14, -32
.Lcfi229:
	.cfi_offset r15, -24
	mov	r14, rdi
	mov	eax, dword ptr [rip + x.89]
	lea	ecx, [rax - 1]
	imul	ecx, eax
	not	ecx
	or	ecx, -2
	cmp	ecx, -1
	sete	byte ptr [rbp - 41]
	mov	eax, dword ptr [rip + y.90]
	cmp	eax, 10
	setl	byte ptr [rbp - 42]
	mov	eax, 972422609
	mov	r15d, -1551120663
	mov	r12d, -445162819
	mov	r13d, 1514730666
	jmp	.LBB44_1
.LBB44_7:                               
	movzx	ecx, byte ptr [rbp - 41]
	movzx	eax, byte ptr [rbp - 42]
	mov	edx, ecx
	xor	dl, al
	test	al, al
	mov	eax, -445162819
	cmovne	eax, r13d
	test	cl, cl
	cmove	eax, r12d
	test	dl, dl
	cmovne	eax, r13d
	.p2align	4, 0x90
.LBB44_1:                               
	cmp	eax, 972422608
	jg	.LBB44_5

	cmp	eax, -1551120663
	je	.LBB44_9

	cmp	eax, -445162819
	jne	.LBB44_1

	mov	rbx, rsp
	add	rbx, -16
	mov	rsp, rbx
	mov	rdi, rbx
	call	_ZSt11make_uniqueIN5Botan9TripleDESEJEENSt9_MakeUniqIT_E15__single_objectEDpOT0_
	mov	rdi, r14
	mov	rsi, rbx
	call	_ZNSt10unique_ptrIN5Botan11BlockCipherESt14default_deleteIS1_EEC2INS0_9TripleDESES2_IS6_EvEEOS_IT_T0_E
	mov	rdi, rbx
	call	_ZNSt10unique_ptrIN5Botan9TripleDESESt14default_deleteIS1_EED2Ev
	mov	eax, 1514730666
	jmp	.LBB44_1
	.p2align	4, 0x90
.LBB44_5:                               
	cmp	eax, 1514730666
	je	.LBB44_8

	cmp	eax, 972422609
	jne	.LBB44_1
	jmp	.LBB44_7
.LBB44_8:                               
	mov	rbx, rsp
	add	rbx, -16
	mov	rsp, rbx
	mov	rdi, rbx
	call	_ZSt11make_uniqueIN5Botan9TripleDESEJEENSt9_MakeUniqIT_E15__single_objectEDpOT0_
	mov	rdi, r14
	mov	rsi, rbx
	call	_ZNSt10unique_ptrIN5Botan11BlockCipherESt14default_deleteIS1_EEC2INS0_9TripleDESES2_IS6_EvEEOS_IT_T0_E
	mov	rdi, rbx
	call	_ZNSt10unique_ptrIN5Botan9TripleDESESt14default_deleteIS1_EED2Ev
	mov	eax, dword ptr [rip + x.89]
	mov	ecx, dword ptr [rip + y.90]
	lea	edx, [rax - 1]
	imul	edx, eax
	mov	eax, edx
	xor	eax, -2
	and	eax, edx
	sete	dl
	cmp	ecx, 10
	setl	bl
	xor	bl, dl
	mov	edx, -445162819
	cmovne	edx, r15d
	test	eax, eax
	mov	eax, edx
	cmove	eax, r15d
	cmp	ecx, 10
	cmovge	eax, edx
	jmp	.LBB44_1
.LBB44_9:
	mov	rax, r14
	lea	rsp, [rbp - 40]
	pop	rbx
	pop	r12
	pop	r13
	pop	r14
	pop	r15
	pop	rbp
	ret
.Lfunc_end44:
	.size	_ZNK5Botan9TripleDES10new_objectEv, .Lfunc_end44-_ZNK5Botan9TripleDES10new_objectEv
	.cfi_endproc

	.section	.text._ZN5Botan13typecast_copyIjEEvRT_PKh,"axG",@progbits,_ZN5Botan13typecast_copyIjEEvRT_PKh,comdat
	.weak	_ZN5Botan13typecast_copyIjEEvRT_PKh 
	.p2align	4, 0x90
	.type	_ZN5Botan13typecast_copyIjEEvRT_PKh,@function
_ZN5Botan13typecast_copyIjEEvRT_PKh:    
	.cfi_startproc

	mov	edx, 1
	jmp	_ZN5Botan13typecast_copyIjEEvPT_PKhm 
.Lfunc_end45:
	.size	_ZN5Botan13typecast_copyIjEEvRT_PKh, .Lfunc_end45-_ZN5Botan13typecast_copyIjEEvRT_PKh
	.cfi_endproc

	.section	.text._ZN5Botan13reverse_bytesEj,"axG",@progbits,_ZN5Botan13reverse_bytesEj,comdat
	.weak	_ZN5Botan13reverse_bytesEj 
	.p2align	4, 0x90
	.type	_ZN5Botan13reverse_bytesEj,@function
_ZN5Botan13reverse_bytesEj:             

	bswap	edi
	mov	eax, edi
	ret
.Lfunc_end46:
	.size	_ZN5Botan13reverse_bytesEj, .Lfunc_end46-_ZN5Botan13reverse_bytesEj

	.section	.text._ZN5Botan13typecast_copyIjEEvPT_PKhm,"axG",@progbits,_ZN5Botan13typecast_copyIjEEvPT_PKhm,comdat
	.weak	_ZN5Botan13typecast_copyIjEEvPT_PKhm 
	.p2align	4, 0x90
	.type	_ZN5Botan13typecast_copyIjEEvPT_PKhm,@function
_ZN5Botan13typecast_copyIjEEvPT_PKhm:   

	push	rbp
	push	r15
	push	r14
	push	r13
	push	r12
	push	rbx
	push	rax
	mov	rbx, rdx
	mov	r14, rsi
	mov	r15, rdi
	mov	eax, dword ptr [rip + x.95]
	mov	ecx, dword ptr [rip + y.96]
	lea	edx, [rax - 1]
	imul	edx, eax
	not	edx
	or	edx, -2
	cmp	edx, -1
	sete	byte ptr [rsp + 6]
	cmp	ecx, 10
	setl	byte ptr [rsp + 7]
	shl	rbx, 2
	mov	eax, 1341814007
	mov	r13d, -1803138263
	mov	r12d, 198801092
	mov	ebp, 1567095963
	jmp	.LBB47_1
.LBB47_7:                               
	movzx	ecx, byte ptr [rsp + 6]
	movzx	eax, byte ptr [rsp + 7]
	mov	edx, ecx
	xor	dl, al
	mov	edx, 198801092
	cmovne	edx, ebp
	test	al, al
	mov	eax, edx
	cmovne	eax, ebp
	test	cl, cl
	cmove	eax, edx
	.p2align	4, 0x90
.LBB47_1:                               
	cmp	eax, 1341814006
	jg	.LBB47_5

	cmp	eax, -1803138263
	je	.LBB47_9

	cmp	eax, 198801092
	jne	.LBB47_1

	mov	rdi, r15
	mov	rsi, r14
	mov	rdx, rbx
	call	memcpy
	mov	eax, 1567095963
	jmp	.LBB47_1
	.p2align	4, 0x90
.LBB47_5:                               
	cmp	eax, 1567095963
	je	.LBB47_8

	cmp	eax, 1341814007
	jne	.LBB47_1
	jmp	.LBB47_7
.LBB47_8:                               
	mov	rdi, r15
	mov	rsi, r14
	mov	rdx, rbx
	call	memcpy
	mov	eax, dword ptr [rip + x.95]
	lea	ecx, [rax - 1]
	imul	ecx, eax
	not	ecx
	or	ecx, -2
	cmp	ecx, -1
	sete	cl
	mov	eax, 198801092
	cmove	eax, r13d
	cmp	dword ptr [rip + y.96], 10
	setl	dl
	cmovge	eax, r12d
	xor	dl, cl
	cmovne	eax, r13d
	jmp	.LBB47_1
.LBB47_9:
	add	rsp, 8
	pop	rbx
	pop	r12
	pop	r13
	pop	r14
	pop	r15
	pop	rbp
	ret
.Lfunc_end47:
	.size	_ZN5Botan13typecast_copyIjEEvPT_PKhm, .Lfunc_end47-_ZN5Botan13typecast_copyIjEEvPT_PKhm

	.section	.text._ZN5Botan4rotlILm4EjEET0_S1_,"axG",@progbits,_ZN5Botan4rotlILm4EjEET0_S1_,comdat
	.weak	_ZN5Botan4rotlILm4EjEET0_S1_ 
	.p2align	4, 0x90
	.type	_ZN5Botan4rotlILm4EjEET0_S1_,@function
_ZN5Botan4rotlILm4EjEET0_S1_:           

	mov	eax, dword ptr [rip + x.97]
	mov	r8d, dword ptr [rip + y.98]
	lea	ecx, [rax - 1]
	imul	ecx, eax
	not	ecx
	or	ecx, -2
	mov	eax, edi
	shl	eax, 4
	shr	edi, 28
	mov	esi, eax
	not	esi
	mov	edx, edi
	not	edx
	and	esi, 1016527034
	and	eax, -1016527040
	or	eax, esi
	and	edx, 1016527034
	and	edi, 5
	or	edi, edx
	xor	edi, eax
	cmp	ecx, -1
	sete	dl
	sete	byte ptr [rsp - 6]
	mov	esi, 1891549225
	mov	r9d, -47601873
	mov	ecx, -47601873
	cmove	ecx, esi
	cmp	r8d, 10
	setl	al
	setl	byte ptr [rsp - 5]
	cmovge	ecx, r9d
	xor	al, dl
	cmovne	ecx, esi
	mov	esi, -780123385
	mov	r8d, -1360214298
	jmp	.LBB48_1
.LBB48_4:                               
	movzx	r10d, byte ptr [rsp - 6]
	movzx	edx, byte ptr [rsp - 5]
	mov	eax, r10d
	xor	al, dl
	test	dl, dl
	mov	esi, -47601873
	cmovne	esi, r8d
	test	r10b, r10b
	cmove	esi, r9d
	test	al, al
	cmovne	esi, r8d
	.p2align	4, 0x90
.LBB48_1:                               
	cmp	esi, -47601874
	jle	.LBB48_2

	cmp	esi, -47601873
	je	.LBB48_8

	cmp	esi, 1891549225
	jne	.LBB48_1
	jmp	.LBB48_7
	.p2align	4, 0x90
.LBB48_2:                               
	cmp	esi, -1360214298
	je	.LBB48_9

	cmp	esi, -780123385
	jne	.LBB48_1
	jmp	.LBB48_4
.LBB48_8:                               
	mov	esi, -1360214298
	jmp	.LBB48_1
.LBB48_9:                               
	mov	dword ptr [rsp - 4], edi
	mov	esi, ecx
	jmp	.LBB48_1
.LBB48_7:
	mov	eax, dword ptr [rsp - 4]
	ret
.Lfunc_end48:
	.size	_ZN5Botan4rotlILm4EjEET0_S1_, .Lfunc_end48-_ZN5Botan4rotlILm4EjEET0_S1_

	.section	.text._ZN5Botan4rotrILm20EjEET0_S1_,"axG",@progbits,_ZN5Botan4rotrILm20EjEET0_S1_,comdat
	.weak	_ZN5Botan4rotrILm20EjEET0_S1_ 
	.p2align	4, 0x90
	.type	_ZN5Botan4rotrILm20EjEET0_S1_,@function
_ZN5Botan4rotrILm20EjEET0_S1_:          

	mov	eax, dword ptr [rip + x.99]
	mov	edx, dword ptr [rip + y.100]
	lea	esi, [rax - 1]
	imul	esi, eax
	not	esi
	or	esi, -2
	cmp	esi, -1
	sete	al
	cmp	edx, 10
	setl	cl
	xor	cl, al
	mov	r10d, -841448765
	mov	r8d, -1216942648
	mov	ecx, -1216942648
	cmovne	ecx, r10d
	cmp	esi, -1
	sete	byte ptr [rsp - 6]
	cmovne	r10d, ecx
	cmp	edx, 10
	setl	byte ptr [rsp - 5]
	cmovge	r10d, ecx
	rol	edi, 12
	mov	esi, 1815151745
	mov	r9d, 1012022709
	jmp	.LBB49_1
.LBB49_7:                               
	movzx	eax, byte ptr [rsp - 6]
	movzx	edx, byte ptr [rsp - 5]
	mov	ecx, eax
	xor	cl, dl
	test	dl, dl
	mov	esi, -1216942648
	cmovne	esi, r9d
	test	al, al
	cmove	esi, r8d
	test	cl, cl
	cmovne	esi, r9d
	.p2align	4, 0x90
.LBB49_1:                               
	cmp	esi, 1012022708
	jg	.LBB49_5

	cmp	esi, -1216942648
	je	.LBB49_9

	cmp	esi, -841448765
	jne	.LBB49_1
	jmp	.LBB49_4
	.p2align	4, 0x90
.LBB49_5:                               
	cmp	esi, 1012022709
	je	.LBB49_8

	cmp	esi, 1815151745
	jne	.LBB49_1
	jmp	.LBB49_7
.LBB49_9:                               
	mov	esi, 1012022709
	jmp	.LBB49_1
.LBB49_8:                               
	mov	dword ptr [rsp - 4], edi
	mov	esi, r10d
	jmp	.LBB49_1
.LBB49_4:
	mov	eax, dword ptr [rsp - 4]
	ret
.Lfunc_end49:
	.size	_ZN5Botan4rotrILm20EjEET0_S1_, .Lfunc_end49-_ZN5Botan4rotrILm20EjEET0_S1_

	.section	.text._ZN5Botan4rotrILm18EjEET0_S1_,"axG",@progbits,_ZN5Botan4rotrILm18EjEET0_S1_,comdat
	.weak	_ZN5Botan4rotrILm18EjEET0_S1_ 
	.p2align	4, 0x90
	.type	_ZN5Botan4rotrILm18EjEET0_S1_,@function
_ZN5Botan4rotrILm18EjEET0_S1_:          

	mov	eax, edi
	shr	eax, 18
	shl	edi, 14
	mov	ecx, eax
	not	ecx
	mov	edx, edi
	not	edx
	and	ecx, -415080671
	and	eax, 8414
	lea	eax, [rax + rcx]
	and	edx, -415080671
	and	edi, 415072256
	or	edi, edx
	xor	eax, edi
	ret
.Lfunc_end50:
	.size	_ZN5Botan4rotrILm18EjEET0_S1_, .Lfunc_end50-_ZN5Botan4rotrILm18EjEET0_S1_

	.section	.text._ZN5Botan4rotrILm6EjEET0_S1_,"axG",@progbits,_ZN5Botan4rotrILm6EjEET0_S1_,comdat
	.weak	_ZN5Botan4rotrILm6EjEET0_S1_ 
	.p2align	4, 0x90
	.type	_ZN5Botan4rotrILm6EjEET0_S1_,@function
_ZN5Botan4rotrILm6EjEET0_S1_:           

	rol	edi, 26
	mov	eax, edi
	ret
.Lfunc_end51:
	.size	_ZN5Botan4rotrILm6EjEET0_S1_, .Lfunc_end51-_ZN5Botan4rotrILm6EjEET0_S1_

	.section	.text._ZN5Botan4rotlILm9EjEET0_S1_,"axG",@progbits,_ZN5Botan4rotlILm9EjEET0_S1_,comdat
	.weak	_ZN5Botan4rotlILm9EjEET0_S1_ 
	.p2align	4, 0x90
	.type	_ZN5Botan4rotlILm9EjEET0_S1_,@function
_ZN5Botan4rotlILm9EjEET0_S1_:           

	mov	eax, dword ptr [rip + x.105]
	mov	esi, dword ptr [rip + y.106]
	lea	ecx, [rax - 1]
	imul	ecx, eax
	mov	eax, ecx
	xor	eax, -2
	and	eax, ecx
	sete	byte ptr [rsp - 6]
	sete	dl
	rol	edi, 9
	test	eax, eax
	mov	r9d, 198966723
	mov	r8d, 486029033
	mov	ecx, 486029033
	cmove	ecx, r9d
	cmp	esi, 10
	setl	al
	setl	byte ptr [rsp - 5]
	cmovge	ecx, r8d
	xor	al, dl
	cmovne	ecx, r9d
	mov	esi, -256490453
	mov	r9d, 1559468438
	jmp	.LBB52_1
.LBB52_9:                               
	movzx	r10d, byte ptr [rsp - 6]
	movzx	edx, byte ptr [rsp - 5]
	mov	eax, r10d
	xor	al, dl
	test	dl, dl
	mov	esi, 486029033
	cmovne	esi, r9d
	test	r10b, r10b
	cmove	esi, r8d
	test	al, al
	cmovne	esi, r9d
	.p2align	4, 0x90
.LBB52_1:                               
	cmp	esi, 486029032
	jg	.LBB52_5

	cmp	esi, -256490453
	je	.LBB52_9

	cmp	esi, 198966723
	jne	.LBB52_1
	jmp	.LBB52_4
	.p2align	4, 0x90
.LBB52_5:                               
	cmp	esi, 486029033
	je	.LBB52_8

	cmp	esi, 1559468438
	jne	.LBB52_1

	mov	dword ptr [rsp - 4], edi
	mov	esi, ecx
	jmp	.LBB52_1
.LBB52_8:                               
	mov	esi, 1559468438
	jmp	.LBB52_1
.LBB52_4:
	mov	eax, dword ptr [rsp - 4]
	ret
.Lfunc_end52:
	.size	_ZN5Botan4rotlILm9EjEET0_S1_, .Lfunc_end52-_ZN5Botan4rotlILm9EjEET0_S1_

	.section	.text._ZN5Botan4rotlILm1EjEET0_S1_,"axG",@progbits,_ZN5Botan4rotlILm1EjEET0_S1_,comdat
	.weak	_ZN5Botan4rotlILm1EjEET0_S1_ 
	.p2align	4, 0x90
	.type	_ZN5Botan4rotlILm1EjEET0_S1_,@function
_ZN5Botan4rotlILm1EjEET0_S1_:           

	mov	eax, dword ptr [rip + x.107]
	mov	esi, dword ptr [rip + y.108]
	lea	edx, [rax - 1]
	imul	edx, eax
	not	edx
	or	edx, -2
	cmp	edx, -1
	sete	al
	cmp	esi, 10
	setl	cl
	xor	cl, al
	mov	r10d, 1331823853
	mov	r8d, 929226064
	mov	ecx, 929226064
	cmovne	ecx, r10d
	cmp	edx, -1
	sete	byte ptr [rsp - 6]
	cmovne	r10d, ecx
	cmp	esi, 10
	setl	byte ptr [rsp - 5]
	cmovge	r10d, ecx
	rol	edi
	mov	ecx, 1752865019
	mov	r9d, 151128277
	jmp	.LBB53_1
.LBB53_7:                               
	movzx	eax, byte ptr [rsp - 6]
	movzx	ecx, byte ptr [rsp - 5]
	mov	edx, eax
	xor	dl, cl
	test	cl, cl
	mov	ecx, 929226064
	cmovne	ecx, r9d
	test	al, al
	cmove	ecx, r8d
	test	dl, dl
	cmovne	ecx, r9d
	.p2align	4, 0x90
.LBB53_1:                               
	mov	esi, ecx
	and	esi, 2147483647
	cmp	esi, 1331823852
	jg	.LBB53_5

	cmp	esi, 151128277
	je	.LBB53_8

	cmp	esi, 929226064
	jne	.LBB53_1

	mov	ecx, 151128277
	jmp	.LBB53_1
	.p2align	4, 0x90
.LBB53_5:                               
	cmp	esi, 1331823853
	je	.LBB53_9

	cmp	esi, 1752865019
	jne	.LBB53_1
	jmp	.LBB53_7
.LBB53_8:                               
	mov	dword ptr [rsp - 4], edi
	mov	ecx, r10d
	jmp	.LBB53_1
.LBB53_9:
	mov	eax, dword ptr [rsp - 4]
	ret
.Lfunc_end53:
	.size	_ZN5Botan4rotlILm1EjEET0_S1_, .Lfunc_end53-_ZN5Botan4rotlILm1EjEET0_S1_

	.text
	.p2align	4, 0x90         
	.type	_ZN5Botan12_GLOBAL__N_15spboxEjj,@function
_ZN5Botan12_GLOBAL__N_15spboxEjj:       


	mov	r8d, edi
	mov	r9d, edi
	mov	r10d, edi
	xor	r10d, -64
	and	r10d, edi

	shr	edi, 24
	and	edi, 63
	movzx	edi, byte ptr [rdi + _ZN5Botan12_GLOBAL__N_1L10SPBOX_CATSE]
	imul	eax, edi, 1879314694
	mov	edi, eax
	xor	edi, -16843782
	and	edi, eax
	mov	eax, esi
	shr	eax, 24
	or	eax, 64
	and	eax, 127
	movzx	eax, byte ptr [rax + _ZN5Botan12_GLOBAL__N_1L10SPBOX_CATSE]
	imul	ecx, eax, 33628192
	mov	eax, ecx
	xor	eax, 2146402240
	and	eax, ecx
	mov	ecx, eax
	not	ecx
	mov	edx, ecx
	and	edx, -2043186739
	and	eax, 2043186720
	or	eax, edx
	mov	edx, edi
	not	edx
	or	ecx, edx
	and	edx, -2043186739
	and	edi, 2043186738
	or	edi, edx
	xor	edi, eax
	not	ecx
	or	ecx, edi
	shr	r8d, 16
	or	r8d, 128
	and	r8d, 191
	movzx	eax, byte ptr [r8 + _ZN5Botan12_GLOBAL__N_1L10SPBOX_CATSE]
	imul	eax, eax, 9441352
	and	eax, 134349320
	mov	edx, ecx
	and	edx, eax
	xor	eax, ecx
	or	eax, edx
	mov	ecx, esi
	shr	ecx, 16
	or	ecx, 192
	movzx	ecx, cl
	movzx	ecx, byte ptr [rcx + _ZN5Botan12_GLOBAL__N_1L10SPBOX_CATSE]
	imul	ecx, ecx, -1912208863
	and	ecx, 8396929
	mov	edx, eax
	and	edx, ecx
	xor	ecx, eax
	or	ecx, edx
	shr	r9d, 8
	not	r9d
	or	r9d, -1491684672
	and	r9d, -1491684609
	xor	r9d, -1491684353
	movzx	eax, byte ptr [r9 + _ZN5Botan12_GLOBAL__N_1L10SPBOX_CATSE]
	imul	eax, eax, 9511232
	mov	edx, eax
	xor	edx, -1107820864
	and	edx, eax
	mov	eax, ecx
	not	eax
	mov	edi, edx
	not	edi
	mov	r8d, eax
	and	r8d, -1148496733
	and	ecx, 1148496732
	or	ecx, r8d
	or	eax, edi
	and	edi, -1148496733
	and	edx, 1148496704
	or	edx, edi
	xor	edx, ecx
	not	eax
	or	eax, edx
	mov	ecx, esi
	shr	ecx, 8
	mov	edx, ecx
	xor	edx, 16777152
	and	edx, ecx
	mov	ecx, edx
	and	ecx, 320
	xor	edx, 320
	or	edx, ecx
	movzx	ecx, byte ptr [rdx + _ZN5Botan12_GLOBAL__N_1L10SPBOX_CATSE]
	imul	ecx, ecx, -2138828776
	and	ecx, 541081616
	mov	edx, eax
	and	edx, ecx
	xor	ecx, eax
	or	ecx, edx
	mov	eax, r10d
	and	eax, 384
	xor	r10d, 384
	or	r10d, eax
	movzx	eax, byte ptr [r10 + _ZN5Botan12_GLOBAL__N_1L10SPBOX_CATSE]
	imul	eax, eax, -535690750
	mov	edx, eax
	xor	edx, -69208068
	and	edx, eax
	mov	eax, ecx
	not	eax
	and	eax, -1858470720
	and	ecx, 1858470719
	or	ecx, eax
	mov	eax, edx
	not	eax
	and	eax, -1858470720
	and	edx, 1858470718
	or	edx, eax
	xor	edx, ecx
	mov	eax, esi
	not	eax
	or	eax, 31388160
	and	eax, 31388197
	and	esi, 26
	or	esi, eax
	xor	esi, 31388645
	movzx	eax, byte ptr [rsi + _ZN5Botan12_GLOBAL__N_1L10SPBOX_CATSE]
	imul	ecx, eax, 2171456
	mov	eax, ecx
	xor	eax, 805040000
	and	eax, ecx
	mov	ecx, edx
	not	ecx
	and	ecx, eax
	not	eax
	and	eax, edx
	or	eax, ecx
	ret
.Lfunc_end54:
	.size	_ZN5Botan12_GLOBAL__N_15spboxEjj, .Lfunc_end54-_ZN5Botan12_GLOBAL__N_15spboxEjj

	.section	.text._ZN5Botan4rotrILm4EjEET0_S1_,"axG",@progbits,_ZN5Botan4rotrILm4EjEET0_S1_,comdat
	.weak	_ZN5Botan4rotrILm4EjEET0_S1_ 
	.p2align	4, 0x90
	.type	_ZN5Botan4rotrILm4EjEET0_S1_,@function
_ZN5Botan4rotrILm4EjEET0_S1_:           

	rol	edi, 28
	mov	eax, edi
	ret
.Lfunc_end55:
	.size	_ZN5Botan4rotrILm4EjEET0_S1_, .Lfunc_end55-_ZN5Botan4rotrILm4EjEET0_S1_

	.section	.text._ZN5Botan4rotrILm1EjEET0_S1_,"axG",@progbits,_ZN5Botan4rotrILm1EjEET0_S1_,comdat
	.weak	_ZN5Botan4rotrILm1EjEET0_S1_ 
	.p2align	4, 0x90
	.type	_ZN5Botan4rotrILm1EjEET0_S1_,@function
_ZN5Botan4rotrILm1EjEET0_S1_:           

	mov	eax, dword ptr [rip + x.113]
	mov	edx, dword ptr [rip + y.114]
	lea	ecx, [rax - 1]
	imul	ecx, eax
	mov	esi, ecx
	xor	esi, -2
	and	esi, ecx
	sete	al
	sete	byte ptr [rsp - 6]
	cmp	edx, 10
	setl	cl
	xor	cl, al
	mov	r10d, 1783978196
	mov	r8d, 1291348772
	mov	ecx, 1291348772
	cmovne	ecx, r10d
	test	esi, esi
	cmovne	r10d, ecx
	cmp	edx, 10
	setl	byte ptr [rsp - 5]
	cmovge	r10d, ecx
	ror	edi
	mov	esi, 728158069
	mov	r9d, -349477996
	jmp	.LBB56_1
.LBB56_4:                               
	movzx	eax, byte ptr [rsp - 6]
	movzx	edx, byte ptr [rsp - 5]
	mov	ecx, eax
	xor	cl, dl
	test	dl, dl
	mov	esi, 1291348772
	cmovne	esi, r9d
	test	al, al
	cmove	esi, r8d
	test	cl, cl
	cmovne	esi, r9d
	.p2align	4, 0x90
.LBB56_1:                               
	cmp	esi, 1291348771
	jle	.LBB56_2

	cmp	esi, 1291348772
	je	.LBB56_8

	cmp	esi, 1783978196
	jne	.LBB56_1
	jmp	.LBB56_7
	.p2align	4, 0x90
.LBB56_2:                               
	cmp	esi, -349477996
	je	.LBB56_9

	cmp	esi, 728158069
	jne	.LBB56_1
	jmp	.LBB56_4
.LBB56_8:                               
	mov	esi, -349477996
	jmp	.LBB56_1
.LBB56_9:                               
	mov	dword ptr [rsp - 4], edi
	mov	esi, r10d
	jmp	.LBB56_1
.LBB56_7:
	mov	eax, dword ptr [rsp - 4]
	ret
.Lfunc_end56:
	.size	_ZN5Botan4rotrILm1EjEET0_S1_, .Lfunc_end56-_ZN5Botan4rotrILm1EjEET0_S1_

	.section	.text._ZN5Botan4rotrILm9EjEET0_S1_,"axG",@progbits,_ZN5Botan4rotrILm9EjEET0_S1_,comdat
	.weak	_ZN5Botan4rotrILm9EjEET0_S1_ 
	.p2align	4, 0x90
	.type	_ZN5Botan4rotrILm9EjEET0_S1_,@function
_ZN5Botan4rotrILm9EjEET0_S1_:           

	mov	eax, dword ptr [rip + x.115]
	mov	edx, dword ptr [rip + y.116]
	lea	ecx, [rax - 1]
	imul	ecx, eax
	not	ecx
	or	ecx, -2
	rol	edi, 23
	cmp	ecx, -1
	sete	al
	sete	byte ptr [rsp - 6]
	mov	esi, 356490552
	mov	r8d, 2126150679
	mov	ecx, 2126150679
	cmove	ecx, esi
	cmp	edx, 10
	setl	dl
	setl	byte ptr [rsp - 5]
	cmovge	ecx, r8d
	xor	dl, al
	cmovne	ecx, esi
	mov	esi, -1221887717
	mov	r9d, -876762826
	jmp	.LBB57_1
.LBB57_8:                               
	movzx	r10d, byte ptr [rsp - 6]
	movzx	edx, byte ptr [rsp - 5]
	mov	eax, r10d
	xor	al, dl
	test	dl, dl
	mov	esi, 2126150679
	cmovne	esi, r9d
	test	r10b, r10b
	cmove	esi, r8d
	test	al, al
	cmovne	esi, r9d
	.p2align	4, 0x90
.LBB57_1:                               
	cmp	esi, 356490551
	jg	.LBB57_5

	cmp	esi, -1221887717
	je	.LBB57_8

	cmp	esi, -876762826
	jne	.LBB57_1

	mov	dword ptr [rsp - 4], edi
	mov	esi, ecx
	jmp	.LBB57_1
	.p2align	4, 0x90
.LBB57_5:                               
	cmp	esi, 356490552
	je	.LBB57_9

	cmp	esi, 2126150679
	jne	.LBB57_1

	mov	esi, -876762826
	jmp	.LBB57_1
.LBB57_9:
	mov	eax, dword ptr [rsp - 4]
	ret
.Lfunc_end57:
	.size	_ZN5Botan4rotrILm9EjEET0_S1_, .Lfunc_end57-_ZN5Botan4rotrILm9EjEET0_S1_

	.section	.text._ZN5Botan4rotlILm6EjEET0_S1_,"axG",@progbits,_ZN5Botan4rotlILm6EjEET0_S1_,comdat
	.weak	_ZN5Botan4rotlILm6EjEET0_S1_ 
	.p2align	4, 0x90
	.type	_ZN5Botan4rotlILm6EjEET0_S1_,@function
_ZN5Botan4rotlILm6EjEET0_S1_:           

	mov	eax, dword ptr [rip + x.117]
	mov	esi, dword ptr [rip + y.118]
	lea	ecx, [rax - 1]
	imul	ecx, eax
	mov	eax, ecx
	xor	eax, -2
	and	eax, ecx
	sete	byte ptr [rsp - 6]
	sete	dl
	rol	edi, 6
	test	eax, eax
	mov	r9d, 215188348
	mov	r8d, 250549332
	mov	ecx, 250549332
	cmove	ecx, r9d
	cmp	esi, 10
	setl	al
	setl	byte ptr [rsp - 5]
	cmovge	ecx, r8d
	xor	al, dl
	cmovne	ecx, r9d
	mov	esi, -1813419030
	mov	r9d, 1736096893
	jmp	.LBB58_1
.LBB58_9:                               
	movzx	r10d, byte ptr [rsp - 6]
	movzx	edx, byte ptr [rsp - 5]
	mov	eax, r10d
	xor	al, dl
	test	dl, dl
	mov	esi, 250549332
	cmovne	esi, r9d
	test	r10b, r10b
	cmove	esi, r8d
	test	al, al
	cmovne	esi, r9d
	.p2align	4, 0x90
.LBB58_1:                               
	cmp	esi, 250549331
	jg	.LBB58_5

	cmp	esi, -1813419030
	je	.LBB58_9

	cmp	esi, 215188348
	jne	.LBB58_1
	jmp	.LBB58_4
	.p2align	4, 0x90
.LBB58_5:                               
	cmp	esi, 250549332
	je	.LBB58_8

	cmp	esi, 1736096893
	jne	.LBB58_1

	mov	dword ptr [rsp - 4], edi
	mov	esi, ecx
	jmp	.LBB58_1
.LBB58_8:                               
	mov	esi, 1736096893
	jmp	.LBB58_1
.LBB58_4:
	mov	eax, dword ptr [rsp - 4]
	ret
.Lfunc_end58:
	.size	_ZN5Botan4rotlILm6EjEET0_S1_, .Lfunc_end58-_ZN5Botan4rotlILm6EjEET0_S1_

	.section	.text._ZN5Botan4rotlILm18EjEET0_S1_,"axG",@progbits,_ZN5Botan4rotlILm18EjEET0_S1_,comdat
	.weak	_ZN5Botan4rotlILm18EjEET0_S1_ 
	.p2align	4, 0x90
	.type	_ZN5Botan4rotlILm18EjEET0_S1_,@function
_ZN5Botan4rotlILm18EjEET0_S1_:          

	mov	eax, edi
	shl	eax, 18
	shr	edi, 14
	mov	ecx, eax
	not	ecx
	mov	edx, edi
	not	edx
	and	ecx, 982785942
	and	eax, -983040000
	lea	eax, [rax + rcx]
	and	edx, 982785942
	and	edi, 254057
	or	edi, edx
	xor	eax, edi
	ret
.Lfunc_end59:
	.size	_ZN5Botan4rotlILm18EjEET0_S1_, .Lfunc_end59-_ZN5Botan4rotlILm18EjEET0_S1_

	.section	.text._ZN5Botan4rotlILm20EjEET0_S1_,"axG",@progbits,_ZN5Botan4rotlILm20EjEET0_S1_,comdat
	.weak	_ZN5Botan4rotlILm20EjEET0_S1_ 
	.p2align	4, 0x90
	.type	_ZN5Botan4rotlILm20EjEET0_S1_,@function
_ZN5Botan4rotlILm20EjEET0_S1_:          

	mov	eax, dword ptr [rip + x.121]
	mov	r8d, dword ptr [rip + y.122]
	mov	edx, eax
	neg	edx
	not	edx
	imul	edx, eax
	not	edx
	or	edx, -2
	cmp	edx, -1
	sete	al
	cmp	r8d, 10
	setl	cl
	xor	cl, al
	mov	esi, -833605328
	mov	ecx, -1094669928
	cmovne	ecx, esi
	cmp	edx, -1
	sete	byte ptr [rsp - 6]
	cmovne	esi, ecx
	cmp	r8d, 10
	setl	byte ptr [rsp - 5]
	cmovge	esi, ecx
	rol	edi, 20
	mov	edx, 1283710990
	mov	r8d, -837851824
	jmp	.LBB60_1
.LBB60_7:                               
	movzx	eax, byte ptr [rsp - 6]
	movzx	edx, byte ptr [rsp - 5]
	mov	ecx, eax
	xor	cl, dl
	mov	ecx, -1094669928
	cmovne	ecx, r8d
	test	dl, dl
	mov	edx, ecx
	cmovne	edx, r8d
	test	al, al
	cmove	edx, ecx
	.p2align	4, 0x90
.LBB60_1:                               
	cmp	edx, -833605329
	jg	.LBB60_5

	cmp	edx, -1094669928
	je	.LBB60_9

	cmp	edx, -837851824
	jne	.LBB60_1

	mov	dword ptr [rsp - 4], edi
	mov	edx, esi
	jmp	.LBB60_1
	.p2align	4, 0x90
.LBB60_5:                               
	cmp	edx, -833605328
	je	.LBB60_8

	cmp	edx, 1283710990
	jne	.LBB60_1
	jmp	.LBB60_7
.LBB60_9:                               
	mov	edx, -837851824
	jmp	.LBB60_1
.LBB60_8:
	mov	eax, dword ptr [rsp - 4]
	ret
.Lfunc_end60:
	.size	_ZN5Botan4rotlILm20EjEET0_S1_, .Lfunc_end60-_ZN5Botan4rotlILm20EjEET0_S1_

	.section	.text._ZN5Botan8store_beEjPh,"axG",@progbits,_ZN5Botan8store_beEjPh,comdat
	.weak	_ZN5Botan8store_beEjPh  
	.p2align	4, 0x90
	.type	_ZN5Botan8store_beEjPh,@function
_ZN5Botan8store_beEjPh:                 
	.cfi_startproc

	push	rbp
.Lcfi230:
	.cfi_def_cfa_offset 16
	push	r15
.Lcfi231:
	.cfi_def_cfa_offset 24
	push	r14
.Lcfi232:
	.cfi_def_cfa_offset 32
	push	r12
.Lcfi233:
	.cfi_def_cfa_offset 40
	push	rbx
.Lcfi234:
	.cfi_def_cfa_offset 48
	sub	rsp, 16
.Lcfi235:
	.cfi_def_cfa_offset 64
.Lcfi236:
	.cfi_offset rbx, -48
.Lcfi237:
	.cfi_offset r12, -40
.Lcfi238:
	.cfi_offset r14, -32
.Lcfi239:
	.cfi_offset r15, -24
.Lcfi240:
	.cfi_offset rbp, -16
	mov	rbx, rsi
	mov	ebp, edi
	mov	eax, dword ptr [rip + x.123]
	lea	ecx, [rax - 1]
	imul	ecx, eax
	mov	eax, ecx
	xor	eax, -2
	test	eax, ecx
	sete	byte ptr [rsp + 14]
	mov	eax, dword ptr [rip + y.124]
	cmp	eax, 10
	setl	byte ptr [rsp + 15]
	mov	eax, -1509302306
	mov	r14d, 883914363
	mov	r15d, -300467778
	mov	r12d, -661764650
	jmp	.LBB61_1
.LBB61_9:                               
	movzx	ecx, byte ptr [rsp + 14]
	movzx	eax, byte ptr [rsp + 15]
	mov	edx, ecx
	xor	dl, al
	test	al, al
	mov	eax, -300467778
	cmovne	eax, r14d
	test	cl, cl
	cmove	eax, r15d
	test	dl, dl
	cmovne	eax, r14d
	.p2align	4, 0x90
.LBB61_1:                               
	cmp	eax, -300467779
	jg	.LBB61_5

	cmp	eax, -1509302306
	je	.LBB61_9

	cmp	eax, -661764650
	jne	.LBB61_1
	jmp	.LBB61_4
	.p2align	4, 0x90
.LBB61_5:                               
	cmp	eax, -300467778
	je	.LBB61_8

	cmp	eax, 883914363
	jne	.LBB61_1

	mov	edi, ebp
	call	_ZN5Botan13reverse_bytesEj
	mov	rdi, rbx
	mov	esi, eax
	call	_ZN5Botan13typecast_copyIjEEvPhT_
	mov	eax, dword ptr [rip + x.123]
	mov	ecx, eax
	neg	ecx
	not	ecx
	imul	ecx, eax
	mov	eax, ecx
	xor	eax, -2
	and	eax, ecx
	sete	cl
	test	eax, eax
	mov	eax, -300467778
	cmove	eax, r12d
	cmp	dword ptr [rip + y.124], 10
	setl	dl
	cmovge	eax, r15d
	xor	dl, cl
	cmovne	eax, r12d
	jmp	.LBB61_1
.LBB61_8:                               
	mov	edi, ebp
	call	_ZN5Botan13reverse_bytesEj
	mov	rdi, rbx
	mov	esi, eax
	call	_ZN5Botan13typecast_copyIjEEvPhT_
	mov	eax, 883914363
	jmp	.LBB61_1
.LBB61_4:
	add	rsp, 16
	pop	rbx
	pop	r12
	pop	r14
	pop	r15
	pop	rbp
	ret
.Lfunc_end61:
	.size	_ZN5Botan8store_beEjPh, .Lfunc_end61-_ZN5Botan8store_beEjPh
	.cfi_endproc

	.section	.text._ZN5Botan13typecast_copyIjEEvPhT_,"axG",@progbits,_ZN5Botan13typecast_copyIjEEvPhT_,comdat
	.weak	_ZN5Botan13typecast_copyIjEEvPhT_ 
	.p2align	4, 0x90
	.type	_ZN5Botan13typecast_copyIjEEvPhT_,@function
_ZN5Botan13typecast_copyIjEEvPhT_:      
	.cfi_startproc

	push	rbp
.Lcfi241:
	.cfi_def_cfa_offset 16
.Lcfi242:
	.cfi_offset rbp, -16
	mov	rbp, rsp
.Lcfi243:
	.cfi_def_cfa_register rbp
	push	r15
	push	r14
	push	r13
	push	r12
	push	rbx
	push	rax
.Lcfi244:
	.cfi_offset rbx, -56
.Lcfi245:
	.cfi_offset r12, -48
.Lcfi246:
	.cfi_offset r13, -40
.Lcfi247:
	.cfi_offset r14, -32
.Lcfi248:
	.cfi_offset r15, -24
	mov	r14d, esi
	mov	rbx, rdi
	mov	eax, dword ptr [rip + x.125]
	lea	ecx, [rax - 1]
	imul	ecx, eax
	mov	eax, ecx
	xor	eax, -2
	test	eax, ecx
	sete	byte ptr [rbp - 41]
	mov	eax, dword ptr [rip + y.126]
	cmp	eax, 10
	setl	byte ptr [rbp - 42]
	mov	eax, -481184657
	mov	r15d, 1516446482
	mov	r12d, -1799421764
	mov	r13d, 1004095586
	jmp	.LBB62_1
.LBB62_4:                               
	movzx	ecx, byte ptr [rbp - 41]
	movzx	eax, byte ptr [rbp - 42]
	mov	edx, ecx
	xor	dl, al
	mov	edx, -1799421764
	cmovne	edx, r15d
	test	al, al
	mov	eax, edx
	cmovne	eax, r15d
	test	cl, cl
	cmove	eax, edx
	.p2align	4, 0x90
.LBB62_1:                               
	cmp	eax, 1004095585
	jg	.LBB62_5

	cmp	eax, -1799421764
	je	.LBB62_9

	cmp	eax, -481184657
	jne	.LBB62_1
	jmp	.LBB62_4
	.p2align	4, 0x90
.LBB62_5:                               
	cmp	eax, 1004095586
	je	.LBB62_8

	cmp	eax, 1516446482
	jne	.LBB62_1

	mov	rax, rsp
	lea	rsi, [rax - 16]
	mov	rsp, rsi
	mov	dword ptr [rax - 16], r14d
	mov	edx, 1
	mov	rdi, rbx
	call	_ZN5Botan13typecast_copyIjEEvPhPT_m
	mov	eax, dword ptr [rip + x.125]
	lea	ecx, [rax - 1]
	imul	ecx, eax
	not	ecx
	or	ecx, -2
	cmp	ecx, -1
	sete	cl
	mov	eax, -1799421764
	cmove	eax, r13d
	cmp	dword ptr [rip + y.126], 10
	setl	dl
	cmovge	eax, r12d
	xor	dl, cl
	cmovne	eax, r13d
	jmp	.LBB62_1
.LBB62_9:                               
	mov	rax, rsp
	lea	rsi, [rax - 16]
	mov	rsp, rsi
	mov	dword ptr [rax - 16], r14d
	mov	edx, 1
	mov	rdi, rbx
	call	_ZN5Botan13typecast_copyIjEEvPhPT_m
	mov	eax, 1516446482
	jmp	.LBB62_1
.LBB62_8:
	lea	rsp, [rbp - 40]
	pop	rbx
	pop	r12
	pop	r13
	pop	r14
	pop	r15
	pop	rbp
	ret
.Lfunc_end62:
	.size	_ZN5Botan13typecast_copyIjEEvPhT_, .Lfunc_end62-_ZN5Botan13typecast_copyIjEEvPhT_
	.cfi_endproc

	.section	.text._ZN5Botan13typecast_copyIjEEvPhPT_m,"axG",@progbits,_ZN5Botan13typecast_copyIjEEvPhPT_m,comdat
	.weak	_ZN5Botan13typecast_copyIjEEvPhPT_m 
	.p2align	4, 0x90
	.type	_ZN5Botan13typecast_copyIjEEvPhPT_m,@function
_ZN5Botan13typecast_copyIjEEvPhPT_m:    

	push	rbp
	push	r15
	push	r14
	push	r13
	push	r12
	push	rbx
	push	rax
	mov	rbx, rdx
	mov	r14, rsi
	mov	r15, rdi
	mov	eax, dword ptr [rip + x.127]
	mov	ecx, dword ptr [rip + y.128]
	lea	edx, [rax - 1]
	imul	edx, eax
	mov	eax, edx
	xor	eax, -2
	test	eax, edx
	sete	byte ptr [rsp + 6]
	cmp	ecx, 10
	setl	byte ptr [rsp + 7]
	shl	rbx, 2
	mov	eax, 635190616
	mov	r13d, -1557394275
	mov	r12d, 1140485908
	mov	ebp, -1704731356
	jmp	.LBB63_1
.LBB63_7:                               
	movzx	ecx, byte ptr [rsp + 6]
	movzx	eax, byte ptr [rsp + 7]
	mov	edx, ecx
	xor	dl, al
	mov	edx, 1140485908
	cmovne	edx, ebp
	test	al, al
	mov	eax, edx
	cmovne	eax, ebp
	test	cl, cl
	cmove	eax, edx
	.p2align	4, 0x90
.LBB63_1:                               
	cmp	eax, 635190615
	jg	.LBB63_5

	cmp	eax, -1704731356
	je	.LBB63_8

	cmp	eax, -1557394275
	jne	.LBB63_1
	jmp	.LBB63_4
	.p2align	4, 0x90
.LBB63_5:                               
	cmp	eax, 1140485908
	je	.LBB63_9

	cmp	eax, 635190616
	jne	.LBB63_1
	jmp	.LBB63_7
.LBB63_8:                               
	mov	rdi, r15
	mov	rsi, r14
	mov	rdx, rbx
	call	memcpy
	mov	eax, dword ptr [rip + x.127]
	lea	ecx, [rax - 1]
	imul	ecx, eax
	mov	eax, ecx
	xor	eax, -2
	and	eax, ecx
	sete	cl
	test	eax, eax
	mov	eax, 1140485908
	cmove	eax, r13d
	cmp	dword ptr [rip + y.128], 10
	setl	dl
	cmovge	eax, r12d
	xor	dl, cl
	cmovne	eax, r13d
	jmp	.LBB63_1
.LBB63_9:                               
	mov	rdi, r15
	mov	rsi, r14
	mov	rdx, rbx
	call	memcpy
	mov	eax, -1704731356
	jmp	.LBB63_1
.LBB63_4:
	add	rsp, 8
	pop	rbx
	pop	r12
	pop	r13
	pop	r14
	pop	r15
	pop	rbp
	ret
.Lfunc_end63:
	.size	_ZN5Botan13typecast_copyIjEEvPhPT_m, .Lfunc_end63-_ZN5Botan13typecast_copyIjEEvPhPT_m

	.section	.text._ZNSt6vectorIjN5Botan16secure_allocatorIjEEED2Ev,"axG",@progbits,_ZNSt6vectorIjN5Botan16secure_allocatorIjEEED2Ev,comdat
	.weak	_ZNSt6vectorIjN5Botan16secure_allocatorIjEEED2Ev 
	.p2align	4, 0x90
	.type	_ZNSt6vectorIjN5Botan16secure_allocatorIjEEED2Ev,@function
_ZNSt6vectorIjN5Botan16secure_allocatorIjEEED2Ev: 
.Lfunc_begin3:
	.cfi_startproc
	.cfi_personality 3, __gxx_personality_v0
	.cfi_lsda 3, .Lexception3

	push	r15
	push	r14
	push	rbx
	mov	rbx, rdi
	mov	r14, qword ptr [rbx]
	mov	r15, qword ptr [rbx + 8]
	call	_ZNSt12_Vector_baseIjN5Botan16secure_allocatorIjEEE19_M_get_Tp_allocatorEv
.Ltmp9:
	mov	rdi, r14
	mov	rsi, r15
	mov	rdx, rax
	call	_ZSt8_DestroyIPjN5Botan16secure_allocatorIjEEEvT_S4_RT0_
.Ltmp10:

	mov	rdi, rbx
	pop	rbx
	pop	r14
	pop	r15
	jmp	_ZNSt12_Vector_baseIjN5Botan16secure_allocatorIjEEED2Ev 
.LBB64_2:
.Ltmp11:
	mov	r14, rax
	mov	rdi, rbx
	call	_ZNSt12_Vector_baseIjN5Botan16secure_allocatorIjEEED2Ev
	mov	rdi, r14
	call	__clang_call_terminate
.Lfunc_end64:
	.size	_ZNSt6vectorIjN5Botan16secure_allocatorIjEEED2Ev, .Lfunc_end64-_ZNSt6vectorIjN5Botan16secure_allocatorIjEEED2Ev
	.cfi_endproc
	.section	.gcc_except_table,"a",@progbits
	.p2align	2
GCC_except_table64:
.Lexception3:
	.byte	255                     
	.byte	3                       
	.byte	21                      
	.byte	3                       
	.byte	13                      
	.long	.Ltmp9-.Lfunc_begin3    
	.long	.Ltmp10-.Ltmp9          
	.long	.Ltmp11-.Lfunc_begin3   
	.byte	1                       
	.byte	1                       

	.byte	0                       

	.long	0                       
	.p2align	2

	.section	.text._ZSt8_DestroyIPjN5Botan16secure_allocatorIjEEEvT_S4_RT0_,"axG",@progbits,_ZSt8_DestroyIPjN5Botan16secure_allocatorIjEEEvT_S4_RT0_,comdat
	.weak	_ZSt8_DestroyIPjN5Botan16secure_allocatorIjEEEvT_S4_RT0_ 
	.p2align	4, 0x90
	.type	_ZSt8_DestroyIPjN5Botan16secure_allocatorIjEEEvT_S4_RT0_,@function
_ZSt8_DestroyIPjN5Botan16secure_allocatorIjEEEvT_S4_RT0_: 
	.cfi_startproc

	push	rbp
.Lcfi249:
	.cfi_def_cfa_offset 16
	push	r14
.Lcfi250:
	.cfi_def_cfa_offset 24
	push	rbx
.Lcfi251:
	.cfi_def_cfa_offset 32
	sub	rsp, 16
.Lcfi252:
	.cfi_def_cfa_offset 48
.Lcfi253:
	.cfi_offset rbx, -32
.Lcfi254:
	.cfi_offset r14, -24
.Lcfi255:
	.cfi_offset rbp, -16
	mov	r14, rdx
	mov	rbx, rsi
	mov	ebp, -1665325239
	jmp	.LBB65_1
	.p2align	4, 0x90
.LBB65_6:                               
	mov	rdi, qword ptr [rsp + 8]
	call	_ZSt11__addressofIjEPT_RS0_
	mov	rdi, r14
	mov	rsi, rax
	call	_ZNSt16allocator_traitsIN5Botan16secure_allocatorIjEEE7destroyIjEEvRS2_PT_
	mov	rdi, qword ptr [rsp + 8]
	add	rdi, 4
.LBB65_1:                               

	mov	eax, -1937128533
	jmp	.LBB65_2
.LBB65_5:                               
	mov	qword ptr [rsp + 8], rdi
	mov	rax, qword ptr [rsp + 8]
	cmp	rax, rbx
	mov	eax, -1574145302
	cmove	eax, ebp
	.p2align	4, 0x90
.LBB65_2:                               

	mov	ecx, eax
	and	ecx, 1073741823
	cmp	ecx, 573338346
	je	.LBB65_6

	cmp	ecx, 482158409
	je	.LBB65_7

	cmp	ecx, 210355115
	jne	.LBB65_2
	jmp	.LBB65_5
.LBB65_7:
	add	rsp, 16
	pop	rbx
	pop	r14
	pop	rbp
	ret
.Lfunc_end65:
	.size	_ZSt8_DestroyIPjN5Botan16secure_allocatorIjEEEvT_S4_RT0_, .Lfunc_end65-_ZSt8_DestroyIPjN5Botan16secure_allocatorIjEEEvT_S4_RT0_
	.cfi_endproc

	.section	.text._ZNSt12_Vector_baseIjN5Botan16secure_allocatorIjEEE19_M_get_Tp_allocatorEv,"axG",@progbits,_ZNSt12_Vector_baseIjN5Botan16secure_allocatorIjEEE19_M_get_Tp_allocatorEv,comdat
	.weak	_ZNSt12_Vector_baseIjN5Botan16secure_allocatorIjEEE19_M_get_Tp_allocatorEv 
	.p2align	4, 0x90
	.type	_ZNSt12_Vector_baseIjN5Botan16secure_allocatorIjEEE19_M_get_Tp_allocatorEv,@function
_ZNSt12_Vector_baseIjN5Botan16secure_allocatorIjEEE19_M_get_Tp_allocatorEv: 

	mov	eax, dword ptr [rip + x.131]
	mov	ecx, dword ptr [rip + y.132]
	lea	edx, [rax - 1]
	imul	edx, eax
	mov	esi, edx
	xor	esi, -2
	and	esi, edx
	sete	byte ptr [rsp - 10]
	sete	al
	cmp	ecx, 10
	setl	dl
	xor	dl, al
	mov	eax, 760547317
	mov	edx, 1522847694
	cmovne	edx, eax
	test	esi, esi
	cmovne	eax, edx
	cmp	ecx, 10
	setl	byte ptr [rsp - 9]
	cmovge	eax, edx
	mov	edx, -850278604
	mov	esi, -525016698
	jmp	.LBB66_1
.LBB66_8:                               
	movzx	r8d, byte ptr [rsp - 10]
	movzx	edx, byte ptr [rsp - 9]
	mov	ecx, r8d
	xor	cl, dl
	mov	ecx, 1522847694
	cmovne	ecx, esi
	test	dl, dl
	mov	edx, ecx
	cmovne	edx, esi
	test	r8b, r8b
	cmove	edx, ecx
	.p2align	4, 0x90
.LBB66_1:                               
	cmp	edx, 760547316
	jg	.LBB66_5

	cmp	edx, -850278604
	je	.LBB66_8

	cmp	edx, -525016698
	jne	.LBB66_1

	mov	qword ptr [rsp - 8], rdi
	mov	edx, eax
	jmp	.LBB66_1
	.p2align	4, 0x90
.LBB66_5:                               
	cmp	edx, 760547317
	je	.LBB66_9

	cmp	edx, 1522847694
	jne	.LBB66_1

	mov	edx, -525016698
	jmp	.LBB66_1
.LBB66_9:
	mov	rax, qword ptr [rsp - 8]
	ret
.Lfunc_end66:
	.size	_ZNSt12_Vector_baseIjN5Botan16secure_allocatorIjEEE19_M_get_Tp_allocatorEv, .Lfunc_end66-_ZNSt12_Vector_baseIjN5Botan16secure_allocatorIjEEE19_M_get_Tp_allocatorEv

	.section	.text._ZNSt12_Vector_baseIjN5Botan16secure_allocatorIjEEED2Ev,"axG",@progbits,_ZNSt12_Vector_baseIjN5Botan16secure_allocatorIjEEED2Ev,comdat
	.weak	_ZNSt12_Vector_baseIjN5Botan16secure_allocatorIjEEED2Ev 
	.p2align	4, 0x90
	.type	_ZNSt12_Vector_baseIjN5Botan16secure_allocatorIjEEED2Ev,@function
_ZNSt12_Vector_baseIjN5Botan16secure_allocatorIjEEED2Ev: 
.Lfunc_begin4:
	.cfi_startproc
	.cfi_personality 3, __gxx_personality_v0
	.cfi_lsda 3, .Lexception4

	push	rax
	mov	rsi, qword ptr [rdi]
	mov	rdx, qword ptr [rdi + 16]
	movabs	rax, -7208104510737706194
	sub	rdx, rax
	sub	rdx, rsi
	add	rdx, rax
	sar	rdx, 2
.Ltmp12:
	call	_ZNSt12_Vector_baseIjN5Botan16secure_allocatorIjEEE13_M_deallocateEPjm
.Ltmp13:

	pop	rax
	ret
.LBB67_2:
.Ltmp14:
	mov	rdi, rax
	call	__clang_call_terminate
.Lfunc_end67:
	.size	_ZNSt12_Vector_baseIjN5Botan16secure_allocatorIjEEED2Ev, .Lfunc_end67-_ZNSt12_Vector_baseIjN5Botan16secure_allocatorIjEEED2Ev
	.cfi_endproc
	.section	.gcc_except_table,"a",@progbits
	.p2align	2
GCC_except_table67:
.Lexception4:
	.byte	255                     
	.byte	3                       
	.byte	21                      
	.byte	3                       
	.byte	13                      
	.long	.Ltmp12-.Lfunc_begin4   
	.long	.Ltmp13-.Ltmp12         
	.long	.Ltmp14-.Lfunc_begin4   
	.byte	1                       
	.byte	1                       

	.byte	0                       

	.long	0                       
	.p2align	2

	.section	.text.__clang_call_terminate,"axG",@progbits,__clang_call_terminate,comdat
	.hidden	__clang_call_terminate  
	.weak	__clang_call_terminate
	.p2align	4, 0x90
	.type	__clang_call_terminate,@function
__clang_call_terminate:                 

	push	rax
	call	__cxa_begin_catch
	call	_ZSt9terminatev
.Lfunc_end68:
	.size	__clang_call_terminate, .Lfunc_end68-__clang_call_terminate

	.section	.text._ZNSt16allocator_traitsIN5Botan16secure_allocatorIjEEE7destroyIjEEvRS2_PT_,"axG",@progbits,_ZNSt16allocator_traitsIN5Botan16secure_allocatorIjEEE7destroyIjEEvRS2_PT_,comdat
	.weak	_ZNSt16allocator_traitsIN5Botan16secure_allocatorIjEEE7destroyIjEEvRS2_PT_ 
	.p2align	4, 0x90
	.type	_ZNSt16allocator_traitsIN5Botan16secure_allocatorIjEEE7destroyIjEEvRS2_PT_,@function
_ZNSt16allocator_traitsIN5Botan16secure_allocatorIjEEE7destroyIjEEvRS2_PT_: 
	.cfi_startproc

	xor	edx, edx
	xor	eax, eax
	jmp	_ZNSt16allocator_traitsIN5Botan16secure_allocatorIjEEE10_S_destroyIS2_jEEvRT_PT0_z 
.Lfunc_end69:
	.size	_ZNSt16allocator_traitsIN5Botan16secure_allocatorIjEEE7destroyIjEEvRS2_PT_, .Lfunc_end69-_ZNSt16allocator_traitsIN5Botan16secure_allocatorIjEEE7destroyIjEEvRS2_PT_
	.cfi_endproc

	.section	.text._ZSt11__addressofIjEPT_RS0_,"axG",@progbits,_ZSt11__addressofIjEPT_RS0_,comdat
	.weak	_ZSt11__addressofIjEPT_RS0_ 
	.p2align	4, 0x90
	.type	_ZSt11__addressofIjEPT_RS0_,@function
_ZSt11__addressofIjEPT_RS0_:            

	mov	eax, dword ptr [rip + x.137]
	mov	esi, dword ptr [rip + y.138]
	lea	ecx, [rax - 1]
	imul	ecx, eax
	mov	eax, ecx
	xor	eax, -2
	and	eax, ecx
	sete	dl
	sete	byte ptr [rsp - 2]
	test	eax, eax
	mov	r9d, -91081954
	mov	r8d, -1034352530
	mov	r10d, -1034352530
	cmove	r10d, r9d
	cmp	esi, 10
	setl	al
	setl	byte ptr [rsp - 1]
	cmovge	r10d, r8d
	xor	al, dl
	cmovne	r10d, r9d
	mov	eax, -105600908
	mov	r9d, -1113495820
	jmp	.LBB70_1
.LBB70_3:                               
	mov	eax, r10d
	.p2align	4, 0x90
.LBB70_1:                               
	mov	esi, eax
	and	esi, 2147483647
	cmp	esi, 2041882739
	jg	.LBB70_4

	cmp	esi, 1033987828
	je	.LBB70_3

	cmp	esi, 1113131118
	jne	.LBB70_1

	mov	eax, -1113495820
	jmp	.LBB70_1
	.p2align	4, 0x90
.LBB70_4:                               
	cmp	esi, 2056401694
	je	.LBB70_7

	cmp	esi, 2041882740
	jne	.LBB70_1

	movzx	ecx, byte ptr [rsp - 2]
	movzx	eax, byte ptr [rsp - 1]
	mov	edx, ecx
	xor	dl, al
	test	al, al
	mov	eax, -1034352530
	cmovne	eax, r9d
	test	cl, cl
	cmove	eax, r8d
	test	dl, dl
	cmovne	eax, r9d
	jmp	.LBB70_1
.LBB70_7:
	mov	rax, rdi
	ret
.Lfunc_end70:
	.size	_ZSt11__addressofIjEPT_RS0_, .Lfunc_end70-_ZSt11__addressofIjEPT_RS0_

	.section	.text._ZNSt16allocator_traitsIN5Botan16secure_allocatorIjEEE10_S_destroyIS2_jEEvRT_PT0_z,"axG",@progbits,_ZNSt16allocator_traitsIN5Botan16secure_allocatorIjEEE10_S_destroyIS2_jEEvRT_PT0_z,comdat
	.weak	_ZNSt16allocator_traitsIN5Botan16secure_allocatorIjEEE10_S_destroyIS2_jEEvRT_PT0_z 
	.p2align	4, 0x90
	.type	_ZNSt16allocator_traitsIN5Botan16secure_allocatorIjEEE10_S_destroyIS2_jEEvRT_PT0_z,@function
_ZNSt16allocator_traitsIN5Botan16secure_allocatorIjEEE10_S_destroyIS2_jEEvRT_PT0_z: 

	mov	eax, dword ptr [rip + x.139]
	mov	esi, dword ptr [rip + y.140]
	mov	ecx, eax
	neg	ecx
	not	ecx
	imul	ecx, eax
	mov	eax, ecx
	xor	eax, -2
	and	eax, ecx
	sete	dl
	sete	byte ptr [rsp - 2]
	test	eax, eax
	mov	edi, -546114171
	mov	r8d, -1006953717
	mov	ecx, -1006953717
	cmove	ecx, edi
	cmp	esi, 10
	setl	al
	setl	byte ptr [rsp - 1]
	cmovge	ecx, r8d
	xor	al, dl
	cmovne	ecx, edi
	mov	esi, 1421242908
	mov	edi, -882020732
	jmp	.LBB71_1
.LBB71_4:                               
	mov	esi, ecx
	.p2align	4, 0x90
.LBB71_1:                               
	cmp	esi, -546114172
	jg	.LBB71_5

	cmp	esi, -1006953717
	je	.LBB71_9

	cmp	esi, -882020732
	jne	.LBB71_1
	jmp	.LBB71_4
	.p2align	4, 0x90
.LBB71_5:                               
	cmp	esi, -546114171
	je	.LBB71_8

	cmp	esi, 1421242908
	jne	.LBB71_1

	movzx	r9d, byte ptr [rsp - 2]
	movzx	edx, byte ptr [rsp - 1]
	mov	eax, r9d
	xor	al, dl
	test	dl, dl
	mov	esi, -1006953717
	cmovne	esi, edi
	test	r9b, r9b
	cmove	esi, r8d
	test	al, al
	cmovne	esi, edi
	jmp	.LBB71_1
.LBB71_9:                               
	mov	esi, -882020732
	jmp	.LBB71_1
.LBB71_8:
	ret
.Lfunc_end71:
	.size	_ZNSt16allocator_traitsIN5Botan16secure_allocatorIjEEE10_S_destroyIS2_jEEvRT_PT0_z, .Lfunc_end71-_ZNSt16allocator_traitsIN5Botan16secure_allocatorIjEEE10_S_destroyIS2_jEEvRT_PT0_z

	.section	.text._ZNSt12_Vector_baseIjN5Botan16secure_allocatorIjEEE13_M_deallocateEPjm,"axG",@progbits,_ZNSt12_Vector_baseIjN5Botan16secure_allocatorIjEEE13_M_deallocateEPjm,comdat
	.weak	_ZNSt12_Vector_baseIjN5Botan16secure_allocatorIjEEE13_M_deallocateEPjm 
	.p2align	4, 0x90
	.type	_ZNSt12_Vector_baseIjN5Botan16secure_allocatorIjEEE13_M_deallocateEPjm,@function
_ZNSt12_Vector_baseIjN5Botan16secure_allocatorIjEEE13_M_deallocateEPjm: 
	.cfi_startproc

	push	rbp
.Lcfi256:
	.cfi_def_cfa_offset 16
	push	r15
.Lcfi257:
	.cfi_def_cfa_offset 24
	push	r14
.Lcfi258:
	.cfi_def_cfa_offset 32
	push	r13
.Lcfi259:
	.cfi_def_cfa_offset 40
	push	r12
.Lcfi260:
	.cfi_def_cfa_offset 48
	push	rbx
.Lcfi261:
	.cfi_def_cfa_offset 56
	push	rax
.Lcfi262:
	.cfi_def_cfa_offset 64
.Lcfi263:
	.cfi_offset rbx, -56
.Lcfi264:
	.cfi_offset r12, -48
.Lcfi265:
	.cfi_offset r13, -40
.Lcfi266:
	.cfi_offset r14, -32
.Lcfi267:
	.cfi_offset r15, -24
.Lcfi268:
	.cfi_offset rbp, -16
	mov	r14, rdx
	mov	r12, rsi
	mov	r15, rdi
	test	r12, r12
	mov	eax, -290289378
	mov	ebp, 1035971034
	cmove	ebp, eax
	mov	eax, -1693130236
	mov	edi, -83621623
	mov	r8d, 728557082
	mov	r13d, -1562851840
	jmp	.LBB72_1
.LBB72_3:                               
	mov	eax, ebp
	.p2align	4, 0x90
.LBB72_1:                               
	cmp	eax, -83621624
	jg	.LBB72_7

	cmp	eax, -1693130236
	je	.LBB72_3

	cmp	eax, -1562851840
	je	.LBB72_11

	cmp	eax, -290289378
	jne	.LBB72_1

	mov	eax, dword ptr [rip + x.141]
	mov	ecx, dword ptr [rip + y.142]
	mov	edx, eax
	neg	edx
	not	edx
	imul	edx, eax
	not	edx
	or	edx, -2
	cmp	edx, -1
	sete	al
	cmp	ecx, 10
	setl	bl
	xor	bl, al
	mov	esi, 728557082
	cmovne	esi, r13d
	cmp	edx, -1
	mov	eax, esi
	cmove	eax, r13d
	cmp	ecx, 10
	cmovge	eax, esi
	jmp	.LBB72_1
	.p2align	4, 0x90
.LBB72_7:                               
	cmp	eax, -83621623
	je	.LBB72_12

	cmp	eax, 728557082
	je	.LBB72_13

	cmp	eax, 1035971034
	jne	.LBB72_1

	mov	rdi, r15
	mov	rsi, r12
	mov	rdx, r14
	call	_ZNSt16allocator_traitsIN5Botan16secure_allocatorIjEEE10deallocateERS2_Pjm
	mov	r8d, 728557082
	mov	edi, -83621623
	mov	eax, -290289378
	jmp	.LBB72_1
.LBB72_11:                              
	mov	eax, dword ptr [rip + x.141]
	lea	ecx, [rax - 1]
	imul	ecx, eax
	mov	eax, ecx
	xor	eax, -2
	and	eax, ecx
	sete	cl
	test	eax, eax
	mov	eax, 728557082
	cmove	eax, edi
	cmp	dword ptr [rip + y.142], 10
	setl	dl
	cmovge	eax, r8d
	xor	dl, cl
	cmovne	eax, edi
	jmp	.LBB72_1
.LBB72_13:                              
	mov	eax, -1562851840
	jmp	.LBB72_1
.LBB72_12:
	add	rsp, 8
	pop	rbx
	pop	r12
	pop	r13
	pop	r14
	pop	r15
	pop	rbp
	ret
.Lfunc_end72:
	.size	_ZNSt12_Vector_baseIjN5Botan16secure_allocatorIjEEE13_M_deallocateEPjm, .Lfunc_end72-_ZNSt12_Vector_baseIjN5Botan16secure_allocatorIjEEE13_M_deallocateEPjm
	.cfi_endproc

	.section	.text._ZNSt16allocator_traitsIN5Botan16secure_allocatorIjEEE10deallocateERS2_Pjm,"axG",@progbits,_ZNSt16allocator_traitsIN5Botan16secure_allocatorIjEEE10deallocateERS2_Pjm,comdat
	.weak	_ZNSt16allocator_traitsIN5Botan16secure_allocatorIjEEE10deallocateERS2_Pjm 
	.p2align	4, 0x90
	.type	_ZNSt16allocator_traitsIN5Botan16secure_allocatorIjEEE10deallocateERS2_Pjm,@function
_ZNSt16allocator_traitsIN5Botan16secure_allocatorIjEEE10deallocateERS2_Pjm: 
	.cfi_startproc

	push	rbp
.Lcfi269:
	.cfi_def_cfa_offset 16
	push	r15
.Lcfi270:
	.cfi_def_cfa_offset 24
	push	r14
.Lcfi271:
	.cfi_def_cfa_offset 32
	push	r13
.Lcfi272:
	.cfi_def_cfa_offset 40
	push	r12
.Lcfi273:
	.cfi_def_cfa_offset 48
	push	rbx
.Lcfi274:
	.cfi_def_cfa_offset 56
	push	rax
.Lcfi275:
	.cfi_def_cfa_offset 64
.Lcfi276:
	.cfi_offset rbx, -56
.Lcfi277:
	.cfi_offset r12, -48
.Lcfi278:
	.cfi_offset r13, -40
.Lcfi279:
	.cfi_offset r14, -32
.Lcfi280:
	.cfi_offset r15, -24
.Lcfi281:
	.cfi_offset rbp, -16
	mov	eax, dword ptr [rip + x.143]
	mov	ecx, eax
	neg	ecx
	not	ecx
	imul	ecx, eax
	not	ecx
	or	ecx, -2
	cmp	ecx, -1
	sete	byte ptr [rsp + 6]
	mov	eax, dword ptr [rip + y.144]
	cmp	eax, 10
	setl	byte ptr [rsp + 7]
	mov	r14, rdx
	mov	r15, rsi
	mov	rbp, rdi
	mov	eax, 1110221097
	mov	r12d, 435454702
	mov	r13d, -971987194
	jmp	.LBB73_1
.LBB73_7:                               
	movzx	ecx, byte ptr [rsp + 6]
	movzx	eax, byte ptr [rsp + 7]
	mov	edx, ecx
	xor	dl, al
	mov	edx, -1544936739
	cmovne	edx, r13d
	test	al, al
	mov	eax, edx
	cmovne	eax, r13d
	test	cl, cl
	cmove	eax, edx
	.p2align	4, 0x90
.LBB73_1:                               
	cmp	eax, 435454701
	jg	.LBB73_5

	cmp	eax, -1544936739
	je	.LBB73_9

	cmp	eax, -971987194
	jne	.LBB73_1

	mov	rdi, rbp
	mov	rsi, r15
	mov	rdx, r14
	call	_ZN5Botan16secure_allocatorIjE10deallocateEPjm
	mov	eax, dword ptr [rip + x.143]
	mov	ecx, dword ptr [rip + y.144]
	mov	edx, eax
	neg	edx
	not	edx
	imul	edx, eax
	mov	eax, edx
	xor	eax, -2
	and	eax, edx
	sete	dl
	cmp	ecx, 10
	setl	bl
	xor	bl, dl
	mov	edx, -1544936739
	cmovne	edx, r12d
	test	eax, eax
	mov	eax, edx
	cmove	eax, r12d
	cmp	ecx, 10
	cmovge	eax, edx
	jmp	.LBB73_1
	.p2align	4, 0x90
.LBB73_5:                               
	cmp	eax, 435454702
	je	.LBB73_8

	cmp	eax, 1110221097
	jne	.LBB73_1
	jmp	.LBB73_7
.LBB73_9:                               
	mov	rdi, rbp
	mov	rsi, r15
	mov	rdx, r14
	call	_ZN5Botan16secure_allocatorIjE10deallocateEPjm
	mov	eax, -971987194
	jmp	.LBB73_1
.LBB73_8:
	add	rsp, 8
	pop	rbx
	pop	r12
	pop	r13
	pop	r14
	pop	r15
	pop	rbp
	ret
.Lfunc_end73:
	.size	_ZNSt16allocator_traitsIN5Botan16secure_allocatorIjEEE10deallocateERS2_Pjm, .Lfunc_end73-_ZNSt16allocator_traitsIN5Botan16secure_allocatorIjEEE10deallocateERS2_Pjm
	.cfi_endproc

	.section	.text._ZN5Botan16secure_allocatorIjE10deallocateEPjm,"axG",@progbits,_ZN5Botan16secure_allocatorIjE10deallocateEPjm,comdat
	.weak	_ZN5Botan16secure_allocatorIjE10deallocateEPjm 
	.p2align	4, 0x90
	.type	_ZN5Botan16secure_allocatorIjE10deallocateEPjm,@function
_ZN5Botan16secure_allocatorIjE10deallocateEPjm: 
	.cfi_startproc

	mov	rax, rdx
	mov	edx, 4
	mov	rdi, rsi
	mov	rsi, rax
	jmp	_ZN5Botan17deallocate_memoryEPvmm 
.Lfunc_end74:
	.size	_ZN5Botan16secure_allocatorIjE10deallocateEPjm, .Lfunc_end74-_ZN5Botan16secure_allocatorIjE10deallocateEPjm
	.cfi_endproc

	.section	.text._ZNSt7__cxx1112basic_stringIcSt11char_traitsIcESaIcEEC2EPKcRKS3_,"axG",@progbits,_ZNSt7__cxx1112basic_stringIcSt11char_traitsIcESaIcEEC2EPKcRKS3_,comdat
	.weak	_ZNSt7__cxx1112basic_stringIcSt11char_traitsIcESaIcEEC2EPKcRKS3_ 
	.p2align	4, 0x90
	.type	_ZNSt7__cxx1112basic_stringIcSt11char_traitsIcESaIcEEC2EPKcRKS3_,@function
_ZNSt7__cxx1112basic_stringIcSt11char_traitsIcESaIcEEC2EPKcRKS3_: 
.Lfunc_begin5:
	.cfi_startproc
	.cfi_personality 3, __gxx_personality_v0
	.cfi_lsda 3, .Lexception5

	push	r15
.Lcfi282:
	.cfi_def_cfa_offset 16
	push	r14
.Lcfi283:
	.cfi_def_cfa_offset 24
	push	rbx
.Lcfi284:
	.cfi_def_cfa_offset 32
.Lcfi285:
	.cfi_offset rbx, -32
.Lcfi286:
	.cfi_offset r14, -24
.Lcfi287:
	.cfi_offset r15, -16
	mov	r15, rdx
	mov	rbx, rsi
	mov	r14, rdi
	call	_ZNSt7__cxx1112basic_stringIcSt11char_traitsIcESaIcEE13_M_local_dataEv
	mov	rdi, r14
	mov	rsi, rax
	mov	rdx, r15
	call	_ZNSt7__cxx1112basic_stringIcSt11char_traitsIcESaIcEE12_Alloc_hiderC2EPcRKS3_
	test	rbx, rbx
	je	.LBB75_1

.Ltmp15:
	mov	rdi, rbx
	call	_ZNSt11char_traitsIcE6lengthEPKc
	mov	rdx, rax
.Ltmp16:
	jmp	.LBB75_3
.LBB75_1:
	mov	rdx, -1
.LBB75_3:
	add	rdx, rbx
.Ltmp17:
	mov	rdi, r14
	mov	rsi, rbx
	call	_ZNSt7__cxx1112basic_stringIcSt11char_traitsIcESaIcEE12_M_constructIPKcEEvT_S8_
.Ltmp18:

	pop	rbx
	pop	r14
	pop	r15
	ret
.LBB75_5:
.Ltmp19:
	mov	rbx, rax
	mov	rdi, r14
	call	_ZNSt7__cxx1112basic_stringIcSt11char_traitsIcESaIcEE12_Alloc_hiderD2Ev
	mov	rdi, rbx
	call	_Unwind_Resume
.Lfunc_end75:
	.size	_ZNSt7__cxx1112basic_stringIcSt11char_traitsIcESaIcEEC2EPKcRKS3_, .Lfunc_end75-_ZNSt7__cxx1112basic_stringIcSt11char_traitsIcESaIcEEC2EPKcRKS3_
	.cfi_endproc
	.section	.gcc_except_table,"a",@progbits
	.p2align	2
GCC_except_table75:
.Lexception5:
	.byte	255                     
	.byte	3                       
	.asciz	"\234"                  
	.byte	3                       
	.byte	26                      
	.long	.Ltmp15-.Lfunc_begin5   
	.long	.Ltmp18-.Ltmp15         
	.long	.Ltmp19-.Lfunc_begin5   
	.byte	0                       
	.long	.Ltmp18-.Lfunc_begin5   
	.long	.Lfunc_end75-.Ltmp18    
	.long	0                       
	.byte	0                       
	.p2align	2

	.section	.text._ZN9__gnu_cxx13new_allocatorIcEC2Ev,"axG",@progbits,_ZN9__gnu_cxx13new_allocatorIcEC2Ev,comdat
	.weak	_ZN9__gnu_cxx13new_allocatorIcEC2Ev 
	.p2align	4, 0x90
	.type	_ZN9__gnu_cxx13new_allocatorIcEC2Ev,@function
_ZN9__gnu_cxx13new_allocatorIcEC2Ev:    

	mov	eax, dword ptr [rip + x.147]
	mov	esi, dword ptr [rip + y.148]
	lea	ecx, [rax - 1]
	imul	ecx, eax
	mov	eax, ecx
	xor	eax, -2
	and	eax, ecx
	sete	dl
	sete	byte ptr [rsp - 2]
	test	eax, eax
	mov	edi, -1825999775
	mov	r8d, -2054809992
	mov	ecx, -2054809992
	cmove	ecx, edi
	cmp	esi, 10
	setl	al
	setl	byte ptr [rsp - 1]
	cmovge	ecx, r8d
	xor	al, dl
	cmovne	ecx, edi
	mov	esi, -3722028
	mov	edi, 694587365
	jmp	.LBB76_1
.LBB76_6:                               
	mov	esi, ecx
	.p2align	4, 0x90
.LBB76_1:                               
	cmp	esi, -3722029
	jg	.LBB76_5

	cmp	esi, -2054809992
	je	.LBB76_9

	cmp	esi, -1825999775
	jne	.LBB76_1
	jmp	.LBB76_4
	.p2align	4, 0x90
.LBB76_5:                               
	cmp	esi, 694587365
	je	.LBB76_6

	cmp	esi, -3722028
	jne	.LBB76_1

	movzx	r9d, byte ptr [rsp - 2]
	movzx	edx, byte ptr [rsp - 1]
	mov	eax, r9d
	xor	al, dl
	test	dl, dl
	mov	esi, -2054809992
	cmovne	esi, edi
	test	r9b, r9b
	cmove	esi, r8d
	test	al, al
	cmovne	esi, edi
	jmp	.LBB76_1
.LBB76_9:                               
	mov	esi, 694587365
	jmp	.LBB76_1
.LBB76_4:
	ret
.Lfunc_end76:
	.size	_ZN9__gnu_cxx13new_allocatorIcEC2Ev, .Lfunc_end76-_ZN9__gnu_cxx13new_allocatorIcEC2Ev

	.section	.text._ZNSt7__cxx1112basic_stringIcSt11char_traitsIcESaIcEE13_M_local_dataEv,"axG",@progbits,_ZNSt7__cxx1112basic_stringIcSt11char_traitsIcESaIcEE13_M_local_dataEv,comdat
	.weak	_ZNSt7__cxx1112basic_stringIcSt11char_traitsIcESaIcEE13_M_local_dataEv 
	.p2align	4, 0x90
	.type	_ZNSt7__cxx1112basic_stringIcSt11char_traitsIcESaIcEE13_M_local_dataEv,@function
_ZNSt7__cxx1112basic_stringIcSt11char_traitsIcESaIcEE13_M_local_dataEv: 

	add	rdi, 16
	jmp	_ZNSt14pointer_traitsIPcE10pointer_toERc 
.Lfunc_end77:
	.size	_ZNSt7__cxx1112basic_stringIcSt11char_traitsIcESaIcEE13_M_local_dataEv, .Lfunc_end77-_ZNSt7__cxx1112basic_stringIcSt11char_traitsIcESaIcEE13_M_local_dataEv

	.section	.text._ZNSt7__cxx1112basic_stringIcSt11char_traitsIcESaIcEE12_Alloc_hiderC2EPcRKS3_,"axG",@progbits,_ZNSt7__cxx1112basic_stringIcSt11char_traitsIcESaIcEE12_Alloc_hiderC2EPcRKS3_,comdat
	.weak	_ZNSt7__cxx1112basic_stringIcSt11char_traitsIcESaIcEE12_Alloc_hiderC2EPcRKS3_ 
	.p2align	4, 0x90
	.type	_ZNSt7__cxx1112basic_stringIcSt11char_traitsIcESaIcEE12_Alloc_hiderC2EPcRKS3_,@function
_ZNSt7__cxx1112basic_stringIcSt11char_traitsIcESaIcEE12_Alloc_hiderC2EPcRKS3_: 

	push	r14
	push	rbx
	push	rax
	mov	r14, rsi
	mov	rbx, rdi
	mov	rsi, rdx
	call	_ZNSaIcEC2ERKS_
	mov	qword ptr [rbx], r14
	add	rsp, 8
	pop	rbx
	pop	r14
	ret
.Lfunc_end78:
	.size	_ZNSt7__cxx1112basic_stringIcSt11char_traitsIcESaIcEE12_Alloc_hiderC2EPcRKS3_, .Lfunc_end78-_ZNSt7__cxx1112basic_stringIcSt11char_traitsIcESaIcEE12_Alloc_hiderC2EPcRKS3_

	.section	.text._ZNSt7__cxx1112basic_stringIcSt11char_traitsIcESaIcEE12_M_constructIPKcEEvT_S8_,"axG",@progbits,_ZNSt7__cxx1112basic_stringIcSt11char_traitsIcESaIcEE12_M_constructIPKcEEvT_S8_,comdat
	.weak	_ZNSt7__cxx1112basic_stringIcSt11char_traitsIcESaIcEE12_M_constructIPKcEEvT_S8_ 
	.p2align	4, 0x90
	.type	_ZNSt7__cxx1112basic_stringIcSt11char_traitsIcESaIcEE12_M_constructIPKcEEvT_S8_,@function
_ZNSt7__cxx1112basic_stringIcSt11char_traitsIcESaIcEE12_M_constructIPKcEEvT_S8_: 
	.cfi_startproc

	jmp	_ZNSt7__cxx1112basic_stringIcSt11char_traitsIcESaIcEE16_M_construct_auxIPKcEEvT_S8_St12__false_type 
.Lfunc_end79:
	.size	_ZNSt7__cxx1112basic_stringIcSt11char_traitsIcESaIcEE12_M_constructIPKcEEvT_S8_, .Lfunc_end79-_ZNSt7__cxx1112basic_stringIcSt11char_traitsIcESaIcEE12_M_constructIPKcEEvT_S8_
	.cfi_endproc

	.section	.text._ZNSt11char_traitsIcE6lengthEPKc,"axG",@progbits,_ZNSt11char_traitsIcE6lengthEPKc,comdat
	.weak	_ZNSt11char_traitsIcE6lengthEPKc 
	.p2align	4, 0x90
	.type	_ZNSt11char_traitsIcE6lengthEPKc,@function
_ZNSt11char_traitsIcE6lengthEPKc:       
	.cfi_startproc

	push	rbx
.Lcfi288:
	.cfi_def_cfa_offset 16
.Lcfi289:
	.cfi_offset rbx, -16
	mov	rbx, rdi
	mov	ecx, -769126336

	jmp	.LBB80_1
.LBB80_5:                               
	mov	rdi, rbx
	call	strlen
	mov	ecx, 1463379835
	.p2align	4, 0x90
.LBB80_1:                               
	cmp	ecx, 1463379835
	je	.LBB80_6

	cmp	ecx, -297713318
	je	.LBB80_5

	cmp	ecx, -769126336
	jne	.LBB80_1

	mov	ecx, -297713318
	jmp	.LBB80_1
.LBB80_6:
	pop	rbx
	ret
.Lfunc_end80:
	.size	_ZNSt11char_traitsIcE6lengthEPKc, .Lfunc_end80-_ZNSt11char_traitsIcE6lengthEPKc
	.cfi_endproc

	.section	.text._ZNSt7__cxx1112basic_stringIcSt11char_traitsIcESaIcEE12_Alloc_hiderD2Ev,"axG",@progbits,_ZNSt7__cxx1112basic_stringIcSt11char_traitsIcESaIcEE12_Alloc_hiderD2Ev,comdat
	.weak	_ZNSt7__cxx1112basic_stringIcSt11char_traitsIcESaIcEE12_Alloc_hiderD2Ev 
	.p2align	4, 0x90
	.type	_ZNSt7__cxx1112basic_stringIcSt11char_traitsIcESaIcEE12_Alloc_hiderD2Ev,@function
_ZNSt7__cxx1112basic_stringIcSt11char_traitsIcESaIcEE12_Alloc_hiderD2Ev: 

	jmp	_ZNSaIcED2Ev            
.Lfunc_end81:
	.size	_ZNSt7__cxx1112basic_stringIcSt11char_traitsIcESaIcEE12_Alloc_hiderD2Ev, .Lfunc_end81-_ZNSt7__cxx1112basic_stringIcSt11char_traitsIcESaIcEE12_Alloc_hiderD2Ev

	.section	.text._ZNSt14pointer_traitsIPcE10pointer_toERc,"axG",@progbits,_ZNSt14pointer_traitsIPcE10pointer_toERc,comdat
	.weak	_ZNSt14pointer_traitsIPcE10pointer_toERc 
	.p2align	4, 0x90
	.type	_ZNSt14pointer_traitsIPcE10pointer_toERc,@function
_ZNSt14pointer_traitsIPcE10pointer_toERc: 

	push	rbp
	push	r15
	push	r14
	push	rbx
	sub	rsp, 24
	mov	rbx, rdi
	mov	eax, dword ptr [rip + x.159]
	lea	ecx, [rax - 1]
	imul	ecx, eax
	not	ecx
	or	ecx, -2
	cmp	ecx, -1
	sete	byte ptr [rsp + 14]
	mov	eax, dword ptr [rip + y.160]
	cmp	eax, 10
	setl	byte ptr [rsp + 15]
	mov	eax, -626384806
	mov	r15d, 460724011
	mov	r14d, 1803489123
	mov	ebp, -747228410
	jmp	.LBB82_1
.LBB82_4:                               
	movzx	ecx, byte ptr [rsp + 14]
	movzx	eax, byte ptr [rsp + 15]
	mov	edx, ecx
	xor	dl, al
	mov	edx, 1803489123
	cmovne	edx, r15d
	test	al, al
	mov	eax, edx
	cmovne	eax, r15d
	test	cl, cl
	cmove	eax, edx
	.p2align	4, 0x90
.LBB82_1:                               
	cmp	eax, 460724010
	jg	.LBB82_5

	cmp	eax, -747228410
	je	.LBB82_9

	cmp	eax, -626384806
	jne	.LBB82_1
	jmp	.LBB82_4
	.p2align	4, 0x90
.LBB82_5:                               
	cmp	eax, 460724011
	je	.LBB82_8

	cmp	eax, 1803489123
	jne	.LBB82_1

	mov	rdi, rbx
	call	_ZSt9addressofIcEPT_RS0_
	mov	eax, 460724011
	jmp	.LBB82_1
.LBB82_8:                               
	mov	rdi, rbx
	call	_ZSt9addressofIcEPT_RS0_
	mov	qword ptr [rsp + 16], rax
	mov	eax, dword ptr [rip + x.159]
	mov	ecx, eax
	neg	ecx
	not	ecx
	imul	ecx, eax
	mov	eax, ecx
	xor	eax, -2
	and	eax, ecx
	sete	cl
	test	eax, eax
	mov	eax, 1803489123
	cmove	eax, ebp
	cmp	dword ptr [rip + y.160], 10
	setl	dl
	cmovge	eax, r14d
	xor	dl, cl
	cmovne	eax, ebp
	jmp	.LBB82_1
.LBB82_9:
	mov	rax, qword ptr [rsp + 16]
	add	rsp, 24
	pop	rbx
	pop	r14
	pop	r15
	pop	rbp
	ret
.Lfunc_end82:
	.size	_ZNSt14pointer_traitsIPcE10pointer_toERc, .Lfunc_end82-_ZNSt14pointer_traitsIPcE10pointer_toERc

	.section	.text._ZSt9addressofIcEPT_RS0_,"axG",@progbits,_ZSt9addressofIcEPT_RS0_,comdat
	.weak	_ZSt9addressofIcEPT_RS0_ 
	.p2align	4, 0x90
	.type	_ZSt9addressofIcEPT_RS0_,@function
_ZSt9addressofIcEPT_RS0_:               

	push	rbp
	push	r15
	push	r14
	push	rbx
	sub	rsp, 24
	mov	rbx, rdi
	mov	eax, dword ptr [rip + x.161]
	lea	ecx, [rax - 1]
	imul	ecx, eax
	mov	eax, ecx
	xor	eax, -2
	test	eax, ecx
	sete	byte ptr [rsp + 14]
	mov	eax, dword ptr [rip + y.162]
	cmp	eax, 10
	setl	byte ptr [rsp + 15]
	mov	eax, 638520828
	mov	r14d, 2035457181
	mov	r15d, 1234574040
	mov	ebp, -862953986
	jmp	.LBB83_1
.LBB83_4:                               
	movzx	ecx, byte ptr [rsp + 14]
	movzx	eax, byte ptr [rsp + 15]
	mov	edx, ecx
	xor	dl, al
	test	al, al
	mov	eax, 1234574040
	cmovne	eax, r14d
	test	cl, cl
	cmove	eax, r15d
	test	dl, dl
	cmovne	eax, r14d
	.p2align	4, 0x90
.LBB83_1:                               
	cmp	eax, 1234574039
	jg	.LBB83_5

	cmp	eax, -862953986
	je	.LBB83_8

	cmp	eax, 638520828
	jne	.LBB83_1
	jmp	.LBB83_4
	.p2align	4, 0x90
.LBB83_5:                               
	cmp	eax, 1234574040
	je	.LBB83_9

	cmp	eax, 2035457181
	jne	.LBB83_1

	mov	rdi, rbx
	call	_ZSt11__addressofIcEPT_RS0_
	mov	qword ptr [rsp + 16], rax
	mov	eax, dword ptr [rip + x.161]
	lea	ecx, [rax - 1]
	imul	ecx, eax
	mov	eax, ecx
	xor	eax, -2
	and	eax, ecx
	sete	cl
	test	eax, eax
	mov	eax, 1234574040
	cmove	eax, ebp
	cmp	dword ptr [rip + y.162], 10
	setl	dl
	cmovge	eax, r15d
	xor	dl, cl
	cmovne	eax, ebp
	jmp	.LBB83_1
.LBB83_9:                               
	mov	rdi, rbx
	call	_ZSt11__addressofIcEPT_RS0_
	mov	eax, 2035457181
	jmp	.LBB83_1
.LBB83_8:
	mov	rax, qword ptr [rsp + 16]
	add	rsp, 24
	pop	rbx
	pop	r14
	pop	r15
	pop	rbp
	ret
.Lfunc_end83:
	.size	_ZSt9addressofIcEPT_RS0_, .Lfunc_end83-_ZSt9addressofIcEPT_RS0_

	.section	.text._ZSt11__addressofIcEPT_RS0_,"axG",@progbits,_ZSt11__addressofIcEPT_RS0_,comdat
	.weak	_ZSt11__addressofIcEPT_RS0_ 
	.p2align	4, 0x90
	.type	_ZSt11__addressofIcEPT_RS0_,@function
_ZSt11__addressofIcEPT_RS0_:            

	mov	rax, rdi
	ret
.Lfunc_end84:
	.size	_ZSt11__addressofIcEPT_RS0_, .Lfunc_end84-_ZSt11__addressofIcEPT_RS0_

	.section	.text._ZN9__gnu_cxx13new_allocatorIcEC2ERKS1_,"axG",@progbits,_ZN9__gnu_cxx13new_allocatorIcEC2ERKS1_,comdat
	.weak	_ZN9__gnu_cxx13new_allocatorIcEC2ERKS1_ 
	.p2align	4, 0x90
	.type	_ZN9__gnu_cxx13new_allocatorIcEC2ERKS1_,@function
_ZN9__gnu_cxx13new_allocatorIcEC2ERKS1_: 

	mov	eax, dword ptr [rip + x.165]
	mov	ecx, dword ptr [rip + y.166]
	lea	edx, [rax - 1]
	imul	edx, eax
	not	edx
	or	edx, -2
	cmp	edx, -1
	sete	dl
	sete	byte ptr [rsp - 2]
	mov	esi, -252268155
	mov	edi, -524805729
	mov	eax, -524805729
	cmove	eax, esi
	cmp	ecx, 10
	setl	cl
	setl	byte ptr [rsp - 1]
	cmovge	eax, edi
	xor	cl, dl
	cmovne	eax, esi
	mov	edx, -662600813
	mov	esi, 599375039
	jmp	.LBB85_1
.LBB85_7:                               
	mov	edx, eax
	.p2align	4, 0x90
.LBB85_1:                               
	cmp	edx, -252268156
	jg	.LBB85_5

	cmp	edx, -662600813
	je	.LBB85_8

	cmp	edx, -524805729
	jne	.LBB85_1

	mov	edx, 599375039
	jmp	.LBB85_1
	.p2align	4, 0x90
.LBB85_5:                               
	cmp	edx, -252268155
	je	.LBB85_9

	cmp	edx, 599375039
	jne	.LBB85_1
	jmp	.LBB85_7
.LBB85_8:                               
	movzx	edi, byte ptr [rsp - 2]
	movzx	edx, byte ptr [rsp - 1]
	mov	ecx, edi
	xor	cl, dl
	mov	ecx, -524805729
	cmovne	ecx, esi
	test	dl, dl
	mov	edx, ecx
	cmovne	edx, esi
	test	dil, dil
	cmove	edx, ecx
	jmp	.LBB85_1
.LBB85_9:
	ret
.Lfunc_end85:
	.size	_ZN9__gnu_cxx13new_allocatorIcEC2ERKS1_, .Lfunc_end85-_ZN9__gnu_cxx13new_allocatorIcEC2ERKS1_

	.section	.text._ZNSt7__cxx1112basic_stringIcSt11char_traitsIcESaIcEE16_M_construct_auxIPKcEEvT_S8_St12__false_type,"axG",@progbits,_ZNSt7__cxx1112basic_stringIcSt11char_traitsIcESaIcEE16_M_construct_auxIPKcEEvT_S8_St12__false_type,comdat
	.weak	_ZNSt7__cxx1112basic_stringIcSt11char_traitsIcESaIcEE16_M_construct_auxIPKcEEvT_S8_St12__false_type 
	.p2align	4, 0x90
	.type	_ZNSt7__cxx1112basic_stringIcSt11char_traitsIcESaIcEE16_M_construct_auxIPKcEEvT_S8_St12__false_type,@function
_ZNSt7__cxx1112basic_stringIcSt11char_traitsIcESaIcEE16_M_construct_auxIPKcEEvT_S8_St12__false_type: 
	.cfi_startproc

	push	rbp
.Lcfi290:
	.cfi_def_cfa_offset 16
	push	r15
.Lcfi291:
	.cfi_def_cfa_offset 24
	push	r14
.Lcfi292:
	.cfi_def_cfa_offset 32
	push	r13
.Lcfi293:
	.cfi_def_cfa_offset 40
	push	r12
.Lcfi294:
	.cfi_def_cfa_offset 48
	push	rbx
.Lcfi295:
	.cfi_def_cfa_offset 56
	push	rax
.Lcfi296:
	.cfi_def_cfa_offset 64
.Lcfi297:
	.cfi_offset rbx, -56
.Lcfi298:
	.cfi_offset r12, -48
.Lcfi299:
	.cfi_offset r13, -40
.Lcfi300:
	.cfi_offset r14, -32
.Lcfi301:
	.cfi_offset r15, -24
.Lcfi302:
	.cfi_offset rbp, -16
	mov	r14, rdx
	mov	r15, rsi
	mov	r12, rdi
	mov	eax, dword ptr [rip + x.167]
	lea	ecx, [rax - 1]
	imul	ecx, eax
	not	ecx
	or	ecx, -2
	cmp	ecx, -1
	sete	byte ptr [rsp + 6]
	mov	eax, dword ptr [rip + y.168]
	cmp	eax, 10
	setl	byte ptr [rsp + 7]
	mov	eax, 1410817066
	mov	r13d, 502999561
	mov	ebp, -1403893886
	jmp	.LBB86_1
.LBB86_7:                               
	movzx	ecx, byte ptr [rsp + 6]
	movzx	eax, byte ptr [rsp + 7]
	mov	edx, ecx
	xor	dl, al
	test	al, al
	mov	eax, 2037335056
	cmovne	eax, ebp
	test	cl, cl
	mov	ecx, 2037335056
	cmove	eax, ecx
	test	dl, dl
	cmovne	eax, ebp
	.p2align	4, 0x90
.LBB86_1:                               
	cmp	eax, 1410817065
	jg	.LBB86_5

	cmp	eax, -1403893886
	je	.LBB86_8

	cmp	eax, 502999561
	jne	.LBB86_1
	jmp	.LBB86_4
	.p2align	4, 0x90
.LBB86_5:                               
	cmp	eax, 2037335056
	je	.LBB86_9

	cmp	eax, 1410817066
	jne	.LBB86_1
	jmp	.LBB86_7
.LBB86_8:                               
	mov	rdi, r12
	mov	rsi, r15
	mov	rdx, r14
	call	_ZNSt7__cxx1112basic_stringIcSt11char_traitsIcESaIcEE12_M_constructIPKcEEvT_S8_St20forward_iterator_tag
	mov	eax, dword ptr [rip + x.167]
	mov	ecx, dword ptr [rip + y.168]
	mov	edx, eax
	neg	edx
	not	edx
	imul	edx, eax
	not	edx
	or	edx, -2
	cmp	edx, -1
	sete	al
	cmp	ecx, 10
	setl	bl
	xor	bl, al
	mov	esi, 2037335056
	cmovne	esi, r13d
	cmp	edx, -1
	mov	eax, esi
	cmove	eax, r13d
	cmp	ecx, 10
	cmovge	eax, esi
	jmp	.LBB86_1
.LBB86_9:                               
	mov	rdi, r12
	mov	rsi, r15
	mov	rdx, r14
	call	_ZNSt7__cxx1112basic_stringIcSt11char_traitsIcESaIcEE12_M_constructIPKcEEvT_S8_St20forward_iterator_tag
	mov	eax, -1403893886
	jmp	.LBB86_1
.LBB86_4:
	add	rsp, 8
	pop	rbx
	pop	r12
	pop	r13
	pop	r14
	pop	r15
	pop	rbp
	ret
.Lfunc_end86:
	.size	_ZNSt7__cxx1112basic_stringIcSt11char_traitsIcESaIcEE16_M_construct_auxIPKcEEvT_S8_St12__false_type, .Lfunc_end86-_ZNSt7__cxx1112basic_stringIcSt11char_traitsIcESaIcEE16_M_construct_auxIPKcEEvT_S8_St12__false_type
	.cfi_endproc

	.section	.text._ZNSt7__cxx1112basic_stringIcSt11char_traitsIcESaIcEE12_M_constructIPKcEEvT_S8_St20forward_iterator_tag,"axG",@progbits,_ZNSt7__cxx1112basic_stringIcSt11char_traitsIcESaIcEE12_M_constructIPKcEEvT_S8_St20forward_iterator_tag,comdat
	.weak	_ZNSt7__cxx1112basic_stringIcSt11char_traitsIcESaIcEE12_M_constructIPKcEEvT_S8_St20forward_iterator_tag 
	.p2align	4, 0x90
	.type	_ZNSt7__cxx1112basic_stringIcSt11char_traitsIcESaIcEE12_M_constructIPKcEEvT_S8_St20forward_iterator_tag,@function
_ZNSt7__cxx1112basic_stringIcSt11char_traitsIcESaIcEE12_M_constructIPKcEEvT_S8_St20forward_iterator_tag: 
	.cfi_startproc

	push	rbp
.Lcfi303:
	.cfi_def_cfa_offset 16
.Lcfi304:
	.cfi_offset rbp, -16
	mov	rbp, rsp
.Lcfi305:
	.cfi_def_cfa_register rbp
	push	r15
	push	r14
	push	r13
	push	r12
	push	rbx
	sub	rsp, 24
.Lcfi306:
	.cfi_offset rbx, -56
.Lcfi307:
	.cfi_offset r12, -48
.Lcfi308:
	.cfi_offset r13, -40
.Lcfi309:
	.cfi_offset r14, -32
.Lcfi310:
	.cfi_offset r15, -24
	mov	r14, rdx
	mov	r13, rsi
	mov	r15, rdi
	mov	eax, dword ptr [rip + x.169]
	mov	ecx, dword ptr [rip + y.170]
	mov	edx, eax
	neg	edx
	not	edx
	imul	edx, eax
	mov	eax, edx
	xor	eax, -2
	test	eax, edx
	sete	byte ptr [rbp - 41]
	cmp	ecx, 10
	setl	byte ptr [rbp - 42]
	cmp	r13, r14
	mov	eax, 1678568758
	mov	r12d, -190145498
	cmove	r12d, eax
	mov	eax, 1287769604
	jmp	.LBB87_1
	.p2align	4, 0x90
.LBB87_24:                              
	mov	eax, edx
.LBB87_1:                               

	mov	ebx, 1002850689
	jmp	.LBB87_2
.LBB87_25:                              
	mov	rsi, qword ptr [rbp - 56]
	xor	edx, edx
	mov	rdi, r15
	call	_ZNSt7__cxx1112basic_stringIcSt11char_traitsIcESaIcEE9_M_createERmm
	mov	rdi, r15
	mov	rsi, rax
	call	_ZNSt7__cxx1112basic_stringIcSt11char_traitsIcESaIcEE7_M_dataEPc
	mov	rax, qword ptr [rbp - 56]
	mov	rsi, qword ptr [rax]
	mov	rdi, r15
	call	_ZNSt7__cxx1112basic_stringIcSt11char_traitsIcESaIcEE11_M_capacityEm
	mov	eax, -1942069265
	.p2align	4, 0x90
.LBB87_2:                               

	mov	ecx, eax
	cmp	ecx, 1176276798
	jg	.LBB87_12

	cmp	ecx, -190145499
	jle	.LBB87_4

	cmp	ecx, 842892557
	je	.LBB87_21

	cmp	ecx, 1002850689
	je	.LBB87_25

	cmp	ecx, -190145498
	mov	eax, ecx
	jne	.LBB87_2
	jmp	.LBB87_11
	.p2align	4, 0x90
.LBB87_12:                              
	cmp	ecx, 1340759855
	jg	.LBB87_18

	cmp	ecx, 1176276799
	mov	eax, r12d
	je	.LBB87_2

	cmp	ecx, 1287769604
	mov	eax, ecx
	jne	.LBB87_2

	movzx	edx, byte ptr [rbp - 41]
	movzx	eax, byte ptr [rbp - 42]
	mov	ecx, edx
	xor	cl, al
	test	al, al
	mov	esi, 842892557
	mov	eax, 1340759856
	mov	edi, 842892557
	jne	.LBB87_17

	mov	edi, 1340759856
.LBB87_17:                              
	test	dl, dl
	cmovne	eax, edi
	test	cl, cl
	cmovne	eax, esi
	jmp	.LBB87_2
	.p2align	4, 0x90
.LBB87_4:                               
	cmp	ecx, -1942069265
	je	.LBB87_26

	cmp	ecx, -1812705238
	mov	eax, ecx
	jne	.LBB87_2

	movzx	eax, byte ptr [rbp - 43]
	test	al, al
	mov	eax, 1176276799
	jne	.LBB87_2

	mov	eax, 1678568758
	jmp	.LBB87_2
	.p2align	4, 0x90
.LBB87_18:                              
	cmp	ecx, 1340759856
	je	.LBB87_27

	cmp	ecx, 1678568758
	mov	eax, ecx
	jne	.LBB87_2

	mov	rax, qword ptr [rbp - 56]
	mov	qword ptr [rbp - 64], rax
	mov	rax, qword ptr [rbp - 64]
	mov	rdi, r13
	mov	rsi, r14
	call	_ZSt8distanceIPKcENSt15iterator_traitsIT_E15difference_typeES3_S3_
	mov	rcx, qword ptr [rbp - 56]
	mov	qword ptr [rcx], rax
	cmp	rax, 15
	mov	eax, -1942069265
	cmova	eax, ebx
	jmp	.LBB87_2
.LBB87_27:                              
	mov	rdi, r13
	call	_ZN9__gnu_cxx17__is_null_pointerIKcEEbPT_
	mov	eax, 842892557
	jmp	.LBB87_2
	.p2align	4, 0x90
.LBB87_21:                              
	mov	rax, rsp
	add	rax, -16
	mov	rsp, rax
	mov	qword ptr [rbp - 56], rax
	mov	rdi, r13
	call	_ZN9__gnu_cxx17__is_null_pointerIKcEEbPT_
	mov	byte ptr [rbp - 43], al
	mov	eax, dword ptr [rip + x.169]
	mov	ecx, dword ptr [rip + y.170]
	lea	edx, [rax - 1]
	imul	edx, eax
	mov	eax, edx
	xor	eax, -2
	and	eax, edx
	sete	bl
	test	eax, eax
	mov	eax, -1812705238
	mov	edx, 1340759856
	mov	esi, -1812705238
	je	.LBB87_23

	mov	esi, 1340759856
.LBB87_23:                              
	cmp	ecx, 10
	setl	cl
	cmovl	edx, esi
	xor	cl, bl
	jne	.LBB87_1
	jmp	.LBB87_24
.LBB87_26:
	mov	rdi, r15
	call	_ZNKSt7__cxx1112basic_stringIcSt11char_traitsIcESaIcEE7_M_dataEv
	mov	rdi, rax
	mov	rsi, r13
	mov	rdx, r14
	call	_ZNSt7__cxx1112basic_stringIcSt11char_traitsIcESaIcEE13_S_copy_charsEPcPKcS7_
	mov	rax, qword ptr [rbp - 56]
	mov	rsi, qword ptr [rax]
	mov	rdi, r15
	call	_ZNSt7__cxx1112basic_stringIcSt11char_traitsIcESaIcEE13_M_set_lengthEm
	mov	rax, qword ptr [rbp - 64]
	lea	rsp, [rbp - 40]
	pop	rbx
	pop	r12
	pop	r13
	pop	r14
	pop	r15
	pop	rbp
	ret
.LBB87_11:
	mov	edi, .L.str.4
	call	_ZSt19__throw_logic_errorPKc
.Lfunc_end87:
	.size	_ZNSt7__cxx1112basic_stringIcSt11char_traitsIcESaIcEE12_M_constructIPKcEEvT_S8_St20forward_iterator_tag, .Lfunc_end87-_ZNSt7__cxx1112basic_stringIcSt11char_traitsIcESaIcEE12_M_constructIPKcEEvT_S8_St20forward_iterator_tag
	.cfi_endproc

	.section	.text._ZN9__gnu_cxx17__is_null_pointerIKcEEbPT_,"axG",@progbits,_ZN9__gnu_cxx17__is_null_pointerIKcEEbPT_,comdat
	.weak	_ZN9__gnu_cxx17__is_null_pointerIKcEEbPT_ 
	.p2align	4, 0x90
	.type	_ZN9__gnu_cxx17__is_null_pointerIKcEEbPT_,@function
_ZN9__gnu_cxx17__is_null_pointerIKcEEbPT_: 

	mov	eax, dword ptr [rip + x.171]
	mov	esi, dword ptr [rip + y.172]
	lea	edx, [rax - 1]
	imul	edx, eax
	not	edx
	or	edx, -2
	cmp	edx, -1
	sete	al
	cmp	esi, 10
	setl	cl
	xor	cl, al
	mov	eax, -257818897
	mov	ecx, -1867320240
	cmovne	ecx, eax
	cmp	edx, -1
	sete	byte ptr [rsp - 3]
	cmovne	eax, ecx
	cmp	esi, 10
	setl	byte ptr [rsp - 2]
	cmovge	eax, ecx
	mov	edx, -1524738773
	mov	esi, 1981769369
	jmp	.LBB88_1
.LBB88_4:                               
	movzx	r8d, byte ptr [rsp - 3]
	movzx	edx, byte ptr [rsp - 2]
	mov	ecx, r8d
	xor	cl, dl
	mov	ecx, -1867320240
	cmovne	ecx, esi
	test	dl, dl
	mov	edx, ecx
	cmovne	edx, esi
	test	r8b, r8b
	cmove	edx, ecx
	.p2align	4, 0x90
.LBB88_1:                               
	cmp	edx, -257818898
	jg	.LBB88_5

	cmp	edx, -1867320240
	je	.LBB88_9

	cmp	edx, -1524738773
	jne	.LBB88_1
	jmp	.LBB88_4
	.p2align	4, 0x90
.LBB88_5:                               
	cmp	edx, -257818897
	je	.LBB88_8

	cmp	edx, 1981769369
	jne	.LBB88_1

	test	rdi, rdi
	sete	byte ptr [rsp - 1]
	mov	edx, eax
	jmp	.LBB88_1
.LBB88_9:                               
	mov	edx, 1981769369
	jmp	.LBB88_1
.LBB88_8:
	mov	al, byte ptr [rsp - 1]
	ret
.Lfunc_end88:
	.size	_ZN9__gnu_cxx17__is_null_pointerIKcEEbPT_, .Lfunc_end88-_ZN9__gnu_cxx17__is_null_pointerIKcEEbPT_

	.section	.text._ZSt8distanceIPKcENSt15iterator_traitsIT_E15difference_typeES3_S3_,"axG",@progbits,_ZSt8distanceIPKcENSt15iterator_traitsIT_E15difference_typeES3_S3_,comdat
	.weak	_ZSt8distanceIPKcENSt15iterator_traitsIT_E15difference_typeES3_S3_ 
	.p2align	4, 0x90
	.type	_ZSt8distanceIPKcENSt15iterator_traitsIT_E15difference_typeES3_S3_,@function
_ZSt8distanceIPKcENSt15iterator_traitsIT_E15difference_typeES3_S3_: 
	.cfi_startproc

	push	r14
.Lcfi311:
	.cfi_def_cfa_offset 16
	push	rbx
.Lcfi312:
	.cfi_def_cfa_offset 24
	push	rax
.Lcfi313:
	.cfi_def_cfa_offset 32
.Lcfi314:
	.cfi_offset rbx, -24
.Lcfi315:
	.cfi_offset r14, -16
	mov	r14, rsi
	mov	rbx, rdi
	mov	qword ptr [rsp], rbx
	mov	rdi, rsp
	call	_ZSt19__iterator_categoryIPKcENSt15iterator_traitsIT_E17iterator_categoryERKS3_
	mov	rdi, rbx
	mov	rsi, r14
	call	_ZSt10__distanceIPKcENSt15iterator_traitsIT_E15difference_typeES3_S3_St26random_access_iterator_tag
	add	rsp, 8
	pop	rbx
	pop	r14
	ret
.Lfunc_end89:
	.size	_ZSt8distanceIPKcENSt15iterator_traitsIT_E15difference_typeES3_S3_, .Lfunc_end89-_ZSt8distanceIPKcENSt15iterator_traitsIT_E15difference_typeES3_S3_
	.cfi_endproc

	.section	.text._ZNSt7__cxx1112basic_stringIcSt11char_traitsIcESaIcEE7_M_dataEPc,"axG",@progbits,_ZNSt7__cxx1112basic_stringIcSt11char_traitsIcESaIcEE7_M_dataEPc,comdat
	.weak	_ZNSt7__cxx1112basic_stringIcSt11char_traitsIcESaIcEE7_M_dataEPc 
	.p2align	4, 0x90
	.type	_ZNSt7__cxx1112basic_stringIcSt11char_traitsIcESaIcEE7_M_dataEPc,@function
_ZNSt7__cxx1112basic_stringIcSt11char_traitsIcESaIcEE7_M_dataEPc: 

	mov	eax, dword ptr [rip + x.175]
	mov	ecx, eax
	neg	ecx
	not	ecx
	imul	ecx, eax
	not	ecx
	or	ecx, -2
	cmp	ecx, -1
	sete	byte ptr [rsp - 2]
	mov	eax, dword ptr [rip + y.176]
	cmp	eax, 10
	setl	byte ptr [rsp - 1]
	mov	eax, -2057428211
	mov	r8d, 957800806
	mov	r9d, 197325653
	mov	r10d, -336341550
	jmp	.LBB90_1
.LBB90_9:                               
	movzx	edx, byte ptr [rsp - 2]
	movzx	eax, byte ptr [rsp - 1]
	mov	ecx, edx
	xor	cl, al
	test	al, al
	mov	eax, 197325653
	cmovne	eax, r8d
	test	dl, dl
	cmove	eax, r9d
	test	cl, cl
	cmovne	eax, r8d
	.p2align	4, 0x90
.LBB90_1:                               
	cmp	eax, 197325652
	jg	.LBB90_5

	cmp	eax, -2057428211
	je	.LBB90_9

	cmp	eax, -336341550
	jne	.LBB90_1
	jmp	.LBB90_4
	.p2align	4, 0x90
.LBB90_5:                               
	cmp	eax, 197325653
	je	.LBB90_8

	cmp	eax, 957800806
	jne	.LBB90_1

	mov	qword ptr [rdi], rsi
	mov	eax, dword ptr [rip + x.175]
	lea	ecx, [rax - 1]
	imul	ecx, eax
	mov	eax, ecx
	xor	eax, -2
	and	eax, ecx
	sete	cl
	test	eax, eax
	mov	eax, 197325653
	cmove	eax, r10d
	cmp	dword ptr [rip + y.176], 10
	setl	dl
	cmovge	eax, r9d
	xor	dl, cl
	cmovne	eax, r10d
	jmp	.LBB90_1
.LBB90_8:                               
	mov	qword ptr [rdi], rsi
	mov	eax, 957800806
	jmp	.LBB90_1
.LBB90_4:
	ret
.Lfunc_end90:
	.size	_ZNSt7__cxx1112basic_stringIcSt11char_traitsIcESaIcEE7_M_dataEPc, .Lfunc_end90-_ZNSt7__cxx1112basic_stringIcSt11char_traitsIcESaIcEE7_M_dataEPc

	.section	.text._ZNSt7__cxx1112basic_stringIcSt11char_traitsIcESaIcEE9_M_createERmm,"axG",@progbits,_ZNSt7__cxx1112basic_stringIcSt11char_traitsIcESaIcEE9_M_createERmm,comdat
	.weak	_ZNSt7__cxx1112basic_stringIcSt11char_traitsIcESaIcEE9_M_createERmm 
	.p2align	4, 0x90
	.type	_ZNSt7__cxx1112basic_stringIcSt11char_traitsIcESaIcEE9_M_createERmm,@function
_ZNSt7__cxx1112basic_stringIcSt11char_traitsIcESaIcEE9_M_createERmm: 
	.cfi_startproc

	push	r15
.Lcfi316:
	.cfi_def_cfa_offset 16
	push	r14
.Lcfi317:
	.cfi_def_cfa_offset 24
	push	r13
.Lcfi318:
	.cfi_def_cfa_offset 32
	push	r12
.Lcfi319:
	.cfi_def_cfa_offset 40
	push	rbx
.Lcfi320:
	.cfi_def_cfa_offset 48
	sub	rsp, 48
.Lcfi321:
	.cfi_def_cfa_offset 96
.Lcfi322:
	.cfi_offset rbx, -48
.Lcfi323:
	.cfi_offset r12, -40
.Lcfi324:
	.cfi_offset r13, -32
.Lcfi325:
	.cfi_offset r14, -24
.Lcfi326:
	.cfi_offset r15, -16
	mov	r15, rdx
	mov	r13, rsi
	mov	r14, rdi
	mov	rax, qword ptr [r13]
	mov	qword ptr [rsp + 32], rax
	call	_ZNKSt7__cxx1112basic_stringIcSt11char_traitsIcESaIcEE8max_sizeEv
	mov	qword ptr [rsp + 40], rax
	lea	r12, [r15 + r15]
	mov	eax, 690721773
	jmp	.LBB91_1
.LBB91_45:                              
	mov	rax, qword ptr [rsp + 24]
	mov	eax, 963982127
	.p2align	4, 0x90
.LBB91_1:                               
	cmp	eax, -175566680
	jle	.LBB91_2

	cmp	eax, 206802511
	jle	.LBB91_12

	cmp	eax, 690721772
	jle	.LBB91_20

	cmp	eax, 963982127
	je	.LBB91_32

	cmp	eax, 690721773
	jne	.LBB91_1

	mov	rax, qword ptr [rsp + 32]
	cmp	rax, qword ptr [rsp + 40]
	mov	eax, 480523303
	ja	.LBB91_1

	mov	eax, -175566679
	jmp	.LBB91_1
	.p2align	4, 0x90
.LBB91_2:                               
	cmp	eax, -1401812944
	jg	.LBB91_7

	cmp	eax, -1992816609
	je	.LBB91_42

	cmp	eax, -1558840342
	je	.LBB91_29

	cmp	eax, -1538910954
	jne	.LBB91_1

	mov	rax, qword ptr [rsp + 16]
	mov	qword ptr [r13], rax
	mov	rdi, r14
	call	_ZNKSt7__cxx1112basic_stringIcSt11char_traitsIcESaIcEE8max_sizeEv
	mov	rax, qword ptr [rsp + 16]
	mov	eax, 206802512
	jmp	.LBB91_1
	.p2align	4, 0x90
.LBB91_12:                              
	cmp	eax, -175566679
	je	.LBB91_27

	cmp	eax, 15932225
	je	.LBB91_36

	cmp	eax, 123048758
	jne	.LBB91_1

	mov	eax, dword ptr [rip + x.177]
	mov	ecx, dword ptr [rip + y.178]
	lea	edx, [rax - 1]
	imul	edx, eax
	not	edx
	or	edx, -2
	cmp	edx, -1
	sete	bl
	mov	eax, 206802512
	mov	edx, -1538910954
	mov	esi, 206802512
	je	.LBB91_17

	mov	esi, -1538910954
.LBB91_17:                              
	cmp	ecx, 10
	setl	cl
	cmovl	edx, esi
	xor	cl, bl
	jne	.LBB91_1

	mov	eax, edx
	jmp	.LBB91_1
	.p2align	4, 0x90
.LBB91_7:                               
	cmp	eax, -1401812943
	je	.LBB91_45

	cmp	eax, -613524571
	je	.LBB91_44

	cmp	eax, -281368720
	jne	.LBB91_1

	mov	rdi, r14
	call	_ZNKSt7__cxx1112basic_stringIcSt11char_traitsIcESaIcEE8max_sizeEv
	mov	qword ptr [r13], rax
	mov	eax, -613524571
	jmp	.LBB91_1
.LBB91_20:                              
	cmp	eax, 206802512
	jne	.LBB91_21

	mov	rax, qword ptr [rsp + 16]
	mov	qword ptr [r13], rax
	mov	rdi, r14
	call	_ZNKSt7__cxx1112basic_stringIcSt11char_traitsIcESaIcEE8max_sizeEv
	mov	rcx, qword ptr [rsp + 16]
	cmp	rcx, rax
	seta	byte ptr [rsp + 15]
	mov	eax, dword ptr [rip + x.177]
	mov	ecx, dword ptr [rip + y.178]
	lea	edx, [rax - 1]
	imul	edx, eax
	not	edx
	or	edx, -2
	cmp	edx, -1
	sete	bl
	mov	eax, -1992816609
	mov	edx, -1538910954
	mov	esi, -1992816609
	je	.LBB91_40

	mov	esi, -1538910954
.LBB91_40:                              
	cmp	ecx, 10
	setl	cl
	cmovl	edx, esi
	xor	cl, bl
	jne	.LBB91_1

	mov	eax, edx
	jmp	.LBB91_1
.LBB91_27:                              
	mov	rax, qword ptr [r13]
	mov	qword ptr [rsp + 24], rax
	mov	rax, qword ptr [rsp + 24]
	cmp	rax, r15
	mov	eax, -1558840342
	ja	.LBB91_1

	mov	eax, -613524571
	jmp	.LBB91_1
.LBB91_32:                              
	mov	qword ptr [rsp + 16], r12
	mov	rax, qword ptr [rsp + 24]
	cmp	rax, qword ptr [rsp + 16]
	setb	byte ptr [rsp + 14]
	mov	eax, dword ptr [rip + x.177]
	mov	ecx, dword ptr [rip + y.178]
	lea	edx, [rax - 1]
	imul	edx, eax
	mov	eax, edx
	xor	eax, -2
	and	eax, edx
	sete	bl
	test	eax, eax
	mov	eax, 15932225
	mov	edx, -1401812943
	mov	esi, 15932225
	je	.LBB91_34

	mov	esi, -1401812943
.LBB91_34:                              
	cmp	ecx, 10
	setl	cl
	cmovl	edx, esi
	xor	cl, bl
	jne	.LBB91_1

	mov	eax, edx
	jmp	.LBB91_1
.LBB91_42:                              
	movzx	eax, byte ptr [rsp + 15]
	test	al, al
	mov	eax, -281368720
	jne	.LBB91_1

	mov	eax, -613524571
	jmp	.LBB91_1
.LBB91_36:                              
	movzx	eax, byte ptr [rsp + 14]
	test	al, al
	mov	eax, 123048758
	jne	.LBB91_1

	mov	eax, -613524571
	jmp	.LBB91_1
.LBB91_29:                              
	mov	eax, dword ptr [rip + x.177]
	mov	ecx, dword ptr [rip + y.178]
	lea	edx, [rax - 1]
	imul	edx, eax
	not	edx
	or	edx, -2
	cmp	edx, -1
	sete	al
	cmp	ecx, 10
	setl	bl
	xor	bl, al
	mov	eax, 963982127
	mov	esi, 963982127
	jne	.LBB91_31

	mov	esi, -1401812943
.LBB91_31:                              
	cmp	edx, -1
	cmovne	eax, esi
	cmp	ecx, 10
	cmovge	eax, esi
	jmp	.LBB91_1
.LBB91_21:                              
	cmp	eax, 480523303
	jne	.LBB91_1

	mov	edi, .L.str.5
	call	_ZSt20__throw_length_errorPKc
.LBB91_44:
	mov	rdi, r14
	call	_ZNSt7__cxx1112basic_stringIcSt11char_traitsIcESaIcEE16_M_get_allocatorEv
	mov	rcx, qword ptr [r13]
	movabs	rdx, 4806000900454142828
	lea	rsi, [rcx + rdx + 1]
	sub	rsi, rdx
	mov	rdi, rax
	add	rsp, 48
	pop	rbx
	pop	r12
	pop	r13
	pop	r14
	pop	r15
	jmp	_ZNSt16allocator_traitsISaIcEE8allocateERS0_m 
.Lfunc_end91:
	.size	_ZNSt7__cxx1112basic_stringIcSt11char_traitsIcESaIcEE9_M_createERmm, .Lfunc_end91-_ZNSt7__cxx1112basic_stringIcSt11char_traitsIcESaIcEE9_M_createERmm
	.cfi_endproc

	.section	.text._ZNSt7__cxx1112basic_stringIcSt11char_traitsIcESaIcEE11_M_capacityEm,"axG",@progbits,_ZNSt7__cxx1112basic_stringIcSt11char_traitsIcESaIcEE11_M_capacityEm,comdat
	.weak	_ZNSt7__cxx1112basic_stringIcSt11char_traitsIcESaIcEE11_M_capacityEm 
	.p2align	4, 0x90
	.type	_ZNSt7__cxx1112basic_stringIcSt11char_traitsIcESaIcEE11_M_capacityEm,@function
_ZNSt7__cxx1112basic_stringIcSt11char_traitsIcESaIcEE11_M_capacityEm: 

	mov	qword ptr [rdi + 16], rsi
	ret
.Lfunc_end92:
	.size	_ZNSt7__cxx1112basic_stringIcSt11char_traitsIcESaIcEE11_M_capacityEm, .Lfunc_end92-_ZNSt7__cxx1112basic_stringIcSt11char_traitsIcESaIcEE11_M_capacityEm

	.section	.text._ZNSt7__cxx1112basic_stringIcSt11char_traitsIcESaIcEE13_S_copy_charsEPcPKcS7_,"axG",@progbits,_ZNSt7__cxx1112basic_stringIcSt11char_traitsIcESaIcEE13_S_copy_charsEPcPKcS7_,comdat
	.weak	_ZNSt7__cxx1112basic_stringIcSt11char_traitsIcESaIcEE13_S_copy_charsEPcPKcS7_ 
	.p2align	4, 0x90
	.type	_ZNSt7__cxx1112basic_stringIcSt11char_traitsIcESaIcEE13_S_copy_charsEPcPKcS7_,@function
_ZNSt7__cxx1112basic_stringIcSt11char_traitsIcESaIcEE13_S_copy_charsEPcPKcS7_: 
.Lfunc_begin6:
	.cfi_startproc
	.cfi_personality 3, __gxx_personality_v0
	.cfi_lsda 3, .Lexception6

	push	rax
	movabs	rax, 9173953718034728025
	add	rdx, rax
	sub	rdx, rsi
	sub	rdx, rax
.Ltmp20:
	call	_ZNSt7__cxx1112basic_stringIcSt11char_traitsIcESaIcEE7_S_copyEPcPKcm
.Ltmp21:

	pop	rax
	ret
.LBB93_2:
.Ltmp22:
	mov	rdi, rax
	call	__clang_call_terminate
.Lfunc_end93:
	.size	_ZNSt7__cxx1112basic_stringIcSt11char_traitsIcESaIcEE13_S_copy_charsEPcPKcS7_, .Lfunc_end93-_ZNSt7__cxx1112basic_stringIcSt11char_traitsIcESaIcEE13_S_copy_charsEPcPKcS7_
	.cfi_endproc
	.section	.gcc_except_table,"a",@progbits
	.p2align	2
GCC_except_table93:
.Lexception6:
	.byte	255                     
	.byte	3                       
	.byte	21                      
	.byte	3                       
	.byte	13                      
	.long	.Ltmp20-.Lfunc_begin6   
	.long	.Ltmp21-.Ltmp20         
	.long	.Ltmp22-.Lfunc_begin6   
	.byte	1                       
	.byte	1                       

	.byte	0                       

	.long	0                       
	.p2align	2

	.section	.text._ZNKSt7__cxx1112basic_stringIcSt11char_traitsIcESaIcEE7_M_dataEv,"axG",@progbits,_ZNKSt7__cxx1112basic_stringIcSt11char_traitsIcESaIcEE7_M_dataEv,comdat
	.weak	_ZNKSt7__cxx1112basic_stringIcSt11char_traitsIcESaIcEE7_M_dataEv 
	.p2align	4, 0x90
	.type	_ZNKSt7__cxx1112basic_stringIcSt11char_traitsIcESaIcEE7_M_dataEv,@function
_ZNKSt7__cxx1112basic_stringIcSt11char_traitsIcESaIcEE7_M_dataEv: 

	mov	rax, qword ptr [rdi]
	ret
.Lfunc_end94:
	.size	_ZNKSt7__cxx1112basic_stringIcSt11char_traitsIcESaIcEE7_M_dataEv, .Lfunc_end94-_ZNKSt7__cxx1112basic_stringIcSt11char_traitsIcESaIcEE7_M_dataEv

	.section	.text._ZNSt7__cxx1112basic_stringIcSt11char_traitsIcESaIcEE13_M_set_lengthEm,"axG",@progbits,_ZNSt7__cxx1112basic_stringIcSt11char_traitsIcESaIcEE13_M_set_lengthEm,comdat
	.weak	_ZNSt7__cxx1112basic_stringIcSt11char_traitsIcESaIcEE13_M_set_lengthEm 
	.p2align	4, 0x90
	.type	_ZNSt7__cxx1112basic_stringIcSt11char_traitsIcESaIcEE13_M_set_lengthEm,@function
_ZNSt7__cxx1112basic_stringIcSt11char_traitsIcESaIcEE13_M_set_lengthEm: 
	.cfi_startproc

	push	r14
.Lcfi327:
	.cfi_def_cfa_offset 16
	push	rbx
.Lcfi328:
	.cfi_def_cfa_offset 24
	push	rax
.Lcfi329:
	.cfi_def_cfa_offset 32
.Lcfi330:
	.cfi_offset rbx, -24
.Lcfi331:
	.cfi_offset r14, -16
	mov	r14, rsi
	mov	rbx, rdi
	call	_ZNSt7__cxx1112basic_stringIcSt11char_traitsIcESaIcEE9_M_lengthEm
	mov	rdi, rbx
	call	_ZNKSt7__cxx1112basic_stringIcSt11char_traitsIcESaIcEE7_M_dataEv
	lea	rdi, [rax + r14]
	mov	byte ptr [rsp + 7], 0
	lea	rsi, [rsp + 7]
	call	_ZNSt11char_traitsIcE6assignERcRKc
	add	rsp, 8
	pop	rbx
	pop	r14
	ret
.Lfunc_end95:
	.size	_ZNSt7__cxx1112basic_stringIcSt11char_traitsIcESaIcEE13_M_set_lengthEm, .Lfunc_end95-_ZNSt7__cxx1112basic_stringIcSt11char_traitsIcESaIcEE13_M_set_lengthEm
	.cfi_endproc

	.section	.text._ZSt10__distanceIPKcENSt15iterator_traitsIT_E15difference_typeES3_S3_St26random_access_iterator_tag,"axG",@progbits,_ZSt10__distanceIPKcENSt15iterator_traitsIT_E15difference_typeES3_S3_St26random_access_iterator_tag,comdat
	.weak	_ZSt10__distanceIPKcENSt15iterator_traitsIT_E15difference_typeES3_S3_St26random_access_iterator_tag 
	.p2align	4, 0x90
	.type	_ZSt10__distanceIPKcENSt15iterator_traitsIT_E15difference_typeES3_S3_St26random_access_iterator_tag,@function
_ZSt10__distanceIPKcENSt15iterator_traitsIT_E15difference_typeES3_S3_St26random_access_iterator_tag: 

	mov	eax, dword ptr [rip + x.187]
	mov	r8d, dword ptr [rip + y.188]
	lea	ecx, [rax - 1]
	imul	ecx, eax
	mov	eax, ecx
	xor	eax, -2
	and	eax, ecx
	sete	dl
	sete	byte ptr [rsp - 10]
	movabs	rcx, 5830868748459000648
	add	rsi, rcx
	sub	rsi, rdi
	sub	rsi, rcx
	test	eax, eax
	mov	edi, -15034166
	mov	r9d, -1530656102
	mov	r10d, -1530656102
	cmove	r10d, edi
	cmp	r8d, 10
	setl	al
	setl	byte ptr [rsp - 9]
	cmovge	r10d, r9d
	xor	al, dl
	cmovne	r10d, edi
	mov	edi, 2133912848
	mov	r8d, -1598891548
	jmp	.LBB96_1
.LBB96_7:                               
	movzx	ecx, byte ptr [rsp - 10]
	movzx	edx, byte ptr [rsp - 9]
	mov	eax, ecx
	xor	al, dl
	test	dl, dl
	mov	edi, -1530656102
	cmovne	edi, r8d
	test	cl, cl
	cmove	edi, r9d
	test	al, al
	cmovne	edi, r8d
	.p2align	4, 0x90
.LBB96_1:                               
	cmp	edi, -15034167
	jg	.LBB96_5

	cmp	edi, -1598891548
	je	.LBB96_8

	cmp	edi, -1530656102
	jne	.LBB96_1

	mov	edi, -1598891548
	jmp	.LBB96_1
	.p2align	4, 0x90
.LBB96_5:                               
	cmp	edi, -15034166
	je	.LBB96_9

	cmp	edi, 2133912848
	jne	.LBB96_1
	jmp	.LBB96_7
.LBB96_8:                               
	mov	qword ptr [rsp - 8], rsi
	mov	edi, r10d
	jmp	.LBB96_1
.LBB96_9:
	mov	rax, qword ptr [rsp - 8]
	ret
.Lfunc_end96:
	.size	_ZSt10__distanceIPKcENSt15iterator_traitsIT_E15difference_typeES3_S3_St26random_access_iterator_tag, .Lfunc_end96-_ZSt10__distanceIPKcENSt15iterator_traitsIT_E15difference_typeES3_S3_St26random_access_iterator_tag

	.section	.text._ZSt19__iterator_categoryIPKcENSt15iterator_traitsIT_E17iterator_categoryERKS3_,"axG",@progbits,_ZSt19__iterator_categoryIPKcENSt15iterator_traitsIT_E17iterator_categoryERKS3_,comdat
	.weak	_ZSt19__iterator_categoryIPKcENSt15iterator_traitsIT_E17iterator_categoryERKS3_ 
	.p2align	4, 0x90
	.type	_ZSt19__iterator_categoryIPKcENSt15iterator_traitsIT_E17iterator_categoryERKS3_,@function
_ZSt19__iterator_categoryIPKcENSt15iterator_traitsIT_E17iterator_categoryERKS3_: 

	ret
.Lfunc_end97:
	.size	_ZSt19__iterator_categoryIPKcENSt15iterator_traitsIT_E17iterator_categoryERKS3_, .Lfunc_end97-_ZSt19__iterator_categoryIPKcENSt15iterator_traitsIT_E17iterator_categoryERKS3_

	.section	.text._ZNKSt7__cxx1112basic_stringIcSt11char_traitsIcESaIcEE8max_sizeEv,"axG",@progbits,_ZNKSt7__cxx1112basic_stringIcSt11char_traitsIcESaIcEE8max_sizeEv,comdat
	.weak	_ZNKSt7__cxx1112basic_stringIcSt11char_traitsIcESaIcEE8max_sizeEv 
	.p2align	4, 0x90
	.type	_ZNKSt7__cxx1112basic_stringIcSt11char_traitsIcESaIcEE8max_sizeEv,@function
_ZNKSt7__cxx1112basic_stringIcSt11char_traitsIcESaIcEE8max_sizeEv: 

	push	rbp
	push	r15
	push	r14
	push	r12
	push	rbx
	sub	rsp, 16
	mov	rbp, rdi
	mov	eax, dword ptr [rip + x.191]
	mov	ecx, eax
	neg	ecx
	not	ecx
	imul	ecx, eax
	mov	eax, ecx
	xor	eax, -2
	test	eax, ecx
	sete	byte ptr [rsp + 6]
	mov	eax, dword ptr [rip + y.192]
	cmp	eax, 10
	setl	byte ptr [rsp + 7]
	mov	ecx, 2097123060
	mov	r14d, -1356672920
	movabs	r15, -265492937768420372
	mov	r12d, -1618703582
	jmp	.LBB98_1
.LBB98_7:                               
	movzx	eax, byte ptr [rsp + 6]
	movzx	ecx, byte ptr [rsp + 7]
	mov	edx, eax
	xor	dl, cl
	mov	edx, -221346506
	cmovne	edx, r12d
	test	cl, cl
	mov	ecx, edx
	cmovne	ecx, r12d
	test	al, al
	cmove	ecx, edx
	.p2align	4, 0x90
.LBB98_1:                               
	cmp	ecx, -221346507
	jg	.LBB98_5

	cmp	ecx, -1618703582
	je	.LBB98_8

	cmp	ecx, -1356672920
	jne	.LBB98_1
	jmp	.LBB98_4
	.p2align	4, 0x90
.LBB98_5:                               
	cmp	ecx, -221346506
	je	.LBB98_9

	cmp	ecx, 2097123060
	jne	.LBB98_1
	jmp	.LBB98_7
.LBB98_8:                               
	mov	rdi, rbp
	call	_ZNKSt7__cxx1112basic_stringIcSt11char_traitsIcESaIcEE16_M_get_allocatorEv
	mov	rdi, rax
	call	_ZNSt16allocator_traitsISaIcEE8max_sizeERKS0_
	mov	ecx, dword ptr [rip + x.191]
	mov	edi, dword ptr [rip + y.192]
	lea	esi, [rcx - 1]
	imul	esi, ecx
	mov	ecx, esi
	xor	ecx, -2
	and	ecx, esi
	sete	bl
	cmp	edi, 10
	setl	dl
	xor	dl, bl
	mov	edx, -221346506
	cmovne	edx, r14d
	test	ecx, ecx
	mov	ecx, edx
	cmove	ecx, r14d
	cmp	edi, 10
	lea	rax, [rax + r15 - 1]
	cmovge	ecx, edx
	sub	rax, r15
	shr	rax
	mov	qword ptr [rsp + 8], rax
	jmp	.LBB98_1
.LBB98_9:                               
	mov	rdi, rbp
	call	_ZNKSt7__cxx1112basic_stringIcSt11char_traitsIcESaIcEE16_M_get_allocatorEv
	mov	rdi, rax
	call	_ZNSt16allocator_traitsISaIcEE8max_sizeERKS0_
	mov	ecx, -1618703582
	jmp	.LBB98_1
.LBB98_4:
	mov	rax, qword ptr [rsp + 8]
	add	rsp, 16
	pop	rbx
	pop	r12
	pop	r14
	pop	r15
	pop	rbp
	ret
.Lfunc_end98:
	.size	_ZNKSt7__cxx1112basic_stringIcSt11char_traitsIcESaIcEE8max_sizeEv, .Lfunc_end98-_ZNKSt7__cxx1112basic_stringIcSt11char_traitsIcESaIcEE8max_sizeEv

	.section	.text._ZNSt16allocator_traitsISaIcEE8allocateERS0_m,"axG",@progbits,_ZNSt16allocator_traitsISaIcEE8allocateERS0_m,comdat
	.weak	_ZNSt16allocator_traitsISaIcEE8allocateERS0_m 
	.p2align	4, 0x90
	.type	_ZNSt16allocator_traitsISaIcEE8allocateERS0_m,@function
_ZNSt16allocator_traitsISaIcEE8allocateERS0_m: 
	.cfi_startproc

	push	rbp
.Lcfi332:
	.cfi_def_cfa_offset 16
	push	r15
.Lcfi333:
	.cfi_def_cfa_offset 24
	push	r14
.Lcfi334:
	.cfi_def_cfa_offset 32
	push	r12
.Lcfi335:
	.cfi_def_cfa_offset 40
	push	rbx
.Lcfi336:
	.cfi_def_cfa_offset 48
	sub	rsp, 16
.Lcfi337:
	.cfi_def_cfa_offset 64
.Lcfi338:
	.cfi_offset rbx, -48
.Lcfi339:
	.cfi_offset r12, -40
.Lcfi340:
	.cfi_offset r14, -32
.Lcfi341:
	.cfi_offset r15, -24
.Lcfi342:
	.cfi_offset rbp, -16
	mov	r14, rsi
	mov	rbx, rdi
	mov	eax, dword ptr [rip + x.193]
	lea	ecx, [rax - 1]
	imul	ecx, eax
	not	ecx
	or	ecx, -2
	cmp	ecx, -1
	sete	byte ptr [rsp + 6]
	mov	eax, dword ptr [rip + y.194]
	cmp	eax, 10
	setl	byte ptr [rsp + 7]
	mov	eax, 1621492692
	mov	r15d, -1781629293
	mov	r12d, 138104681
	mov	ebp, 1073091540
	jmp	.LBB99_1
.LBB99_7:                               
	movzx	ecx, byte ptr [rsp + 6]
	movzx	eax, byte ptr [rsp + 7]
	mov	edx, ecx
	xor	dl, al
	test	al, al
	mov	eax, 138104681
	cmovne	eax, ebp
	test	cl, cl
	cmove	eax, r12d
	test	dl, dl
	cmovne	eax, ebp
	.p2align	4, 0x90
.LBB99_1:                               
	cmp	eax, 1073091539
	jg	.LBB99_5

	cmp	eax, -1781629293
	je	.LBB99_9

	cmp	eax, 138104681
	jne	.LBB99_1

	xor	edx, edx
	mov	rdi, rbx
	mov	rsi, r14
	call	_ZN9__gnu_cxx13new_allocatorIcE8allocateEmPKv
	mov	eax, 1073091540
	jmp	.LBB99_1
	.p2align	4, 0x90
.LBB99_5:                               
	cmp	eax, 1073091540
	je	.LBB99_8

	cmp	eax, 1621492692
	jne	.LBB99_1
	jmp	.LBB99_7
.LBB99_8:                               
	xor	edx, edx
	mov	rdi, rbx
	mov	rsi, r14
	call	_ZN9__gnu_cxx13new_allocatorIcE8allocateEmPKv
	mov	qword ptr [rsp + 8], rax
	mov	eax, dword ptr [rip + x.193]
	lea	ecx, [rax - 1]
	imul	ecx, eax
	not	ecx
	or	ecx, -2
	cmp	ecx, -1
	sete	cl
	mov	eax, 138104681
	cmove	eax, r15d
	cmp	dword ptr [rip + y.194], 10
	setl	dl
	cmovge	eax, r12d
	xor	dl, cl
	cmovne	eax, r15d
	jmp	.LBB99_1
.LBB99_9:
	mov	rax, qword ptr [rsp + 8]
	add	rsp, 16
	pop	rbx
	pop	r12
	pop	r14
	pop	r15
	pop	rbp
	ret
.Lfunc_end99:
	.size	_ZNSt16allocator_traitsISaIcEE8allocateERS0_m, .Lfunc_end99-_ZNSt16allocator_traitsISaIcEE8allocateERS0_m
	.cfi_endproc

	.section	.text._ZNSt7__cxx1112basic_stringIcSt11char_traitsIcESaIcEE16_M_get_allocatorEv,"axG",@progbits,_ZNSt7__cxx1112basic_stringIcSt11char_traitsIcESaIcEE16_M_get_allocatorEv,comdat
	.weak	_ZNSt7__cxx1112basic_stringIcSt11char_traitsIcESaIcEE16_M_get_allocatorEv 
	.p2align	4, 0x90
	.type	_ZNSt7__cxx1112basic_stringIcSt11char_traitsIcESaIcEE16_M_get_allocatorEv,@function
_ZNSt7__cxx1112basic_stringIcSt11char_traitsIcESaIcEE16_M_get_allocatorEv: 

	mov	rax, rdi
	ret
.Lfunc_end100:
	.size	_ZNSt7__cxx1112basic_stringIcSt11char_traitsIcESaIcEE16_M_get_allocatorEv, .Lfunc_end100-_ZNSt7__cxx1112basic_stringIcSt11char_traitsIcESaIcEE16_M_get_allocatorEv

	.section	.text._ZNSt16allocator_traitsISaIcEE8max_sizeERKS0_,"axG",@progbits,_ZNSt16allocator_traitsISaIcEE8max_sizeERKS0_,comdat
	.weak	_ZNSt16allocator_traitsISaIcEE8max_sizeERKS0_ 
	.p2align	4, 0x90
	.type	_ZNSt16allocator_traitsISaIcEE8max_sizeERKS0_,@function
_ZNSt16allocator_traitsISaIcEE8max_sizeERKS0_: 

	jmp	_ZNK9__gnu_cxx13new_allocatorIcE8max_sizeEv 
.Lfunc_end101:
	.size	_ZNSt16allocator_traitsISaIcEE8max_sizeERKS0_, .Lfunc_end101-_ZNSt16allocator_traitsISaIcEE8max_sizeERKS0_

	.section	.text._ZNKSt7__cxx1112basic_stringIcSt11char_traitsIcESaIcEE16_M_get_allocatorEv,"axG",@progbits,_ZNKSt7__cxx1112basic_stringIcSt11char_traitsIcESaIcEE16_M_get_allocatorEv,comdat
	.weak	_ZNKSt7__cxx1112basic_stringIcSt11char_traitsIcESaIcEE16_M_get_allocatorEv 
	.p2align	4, 0x90
	.type	_ZNKSt7__cxx1112basic_stringIcSt11char_traitsIcESaIcEE16_M_get_allocatorEv,@function
_ZNKSt7__cxx1112basic_stringIcSt11char_traitsIcESaIcEE16_M_get_allocatorEv: 

	mov	rax, rdi
	ret
.Lfunc_end102:
	.size	_ZNKSt7__cxx1112basic_stringIcSt11char_traitsIcESaIcEE16_M_get_allocatorEv, .Lfunc_end102-_ZNKSt7__cxx1112basic_stringIcSt11char_traitsIcESaIcEE16_M_get_allocatorEv

	.section	.text._ZNK9__gnu_cxx13new_allocatorIcE8max_sizeEv,"axG",@progbits,_ZNK9__gnu_cxx13new_allocatorIcE8max_sizeEv,comdat
	.weak	_ZNK9__gnu_cxx13new_allocatorIcE8max_sizeEv 
	.p2align	4, 0x90
	.type	_ZNK9__gnu_cxx13new_allocatorIcE8max_sizeEv,@function
_ZNK9__gnu_cxx13new_allocatorIcE8max_sizeEv: 

	mov	rax, -1
	ret
.Lfunc_end103:
	.size	_ZNK9__gnu_cxx13new_allocatorIcE8max_sizeEv, .Lfunc_end103-_ZNK9__gnu_cxx13new_allocatorIcE8max_sizeEv

	.section	.text._ZN9__gnu_cxx13new_allocatorIcE8allocateEmPKv,"axG",@progbits,_ZN9__gnu_cxx13new_allocatorIcE8allocateEmPKv,comdat
	.weak	_ZN9__gnu_cxx13new_allocatorIcE8allocateEmPKv 
	.p2align	4, 0x90
	.type	_ZN9__gnu_cxx13new_allocatorIcE8allocateEmPKv,@function
_ZN9__gnu_cxx13new_allocatorIcE8allocateEmPKv: 
	.cfi_startproc

	push	rbx
.Lcfi343:
	.cfi_def_cfa_offset 16
	sub	rsp, 16
.Lcfi344:
	.cfi_def_cfa_offset 32
.Lcfi345:
	.cfi_offset rbx, -16
	mov	rbx, rsi
	call	_ZNK9__gnu_cxx13new_allocatorIcE8max_sizeEv
	mov	qword ptr [rsp + 8], rax
	mov	ecx, -1893496407
	mov	eax, 706691550
	jmp	.LBB104_1
	.p2align	4, 0x90
.LBB104_6:                              
	mov	rcx, qword ptr [rsp + 8]
	cmp	rcx, rbx
	mov	ecx, -448828095
	cmovb	ecx, eax
.LBB104_1:                              
	cmp	ecx, -1893496407
	je	.LBB104_6

	cmp	ecx, -448828095
	je	.LBB104_5

	cmp	ecx, 706691550
	jne	.LBB104_1

	call	_ZSt17__throw_bad_allocv
.LBB104_5:
	mov	rdi, rbx
	add	rsp, 16
	pop	rbx
	jmp	_Znwm                   
.Lfunc_end104:
	.size	_ZN9__gnu_cxx13new_allocatorIcE8allocateEmPKv, .Lfunc_end104-_ZN9__gnu_cxx13new_allocatorIcE8allocateEmPKv
	.cfi_endproc

	.section	.text._ZNSt7__cxx1112basic_stringIcSt11char_traitsIcESaIcEE7_S_copyEPcPKcm,"axG",@progbits,_ZNSt7__cxx1112basic_stringIcSt11char_traitsIcESaIcEE7_S_copyEPcPKcm,comdat
	.weak	_ZNSt7__cxx1112basic_stringIcSt11char_traitsIcESaIcEE7_S_copyEPcPKcm 
	.p2align	4, 0x90
	.type	_ZNSt7__cxx1112basic_stringIcSt11char_traitsIcESaIcEE7_S_copyEPcPKcm,@function
_ZNSt7__cxx1112basic_stringIcSt11char_traitsIcESaIcEE7_S_copyEPcPKcm: 
	.cfi_startproc

	push	r15
.Lcfi346:
	.cfi_def_cfa_offset 16
	push	r14
.Lcfi347:
	.cfi_def_cfa_offset 24
	push	r12
.Lcfi348:
	.cfi_def_cfa_offset 32
	push	rbx
.Lcfi349:
	.cfi_def_cfa_offset 40
	push	rax
.Lcfi350:
	.cfi_def_cfa_offset 48
.Lcfi351:
	.cfi_offset rbx, -40
.Lcfi352:
	.cfi_offset r12, -32
.Lcfi353:
	.cfi_offset r14, -24
.Lcfi354:
	.cfi_offset r15, -16
	mov	r14, rdx
	mov	r15, rsi
	mov	r12, rdi
	mov	eax, dword ptr [rip + x.205]
	mov	ecx, dword ptr [rip + y.206]
	lea	edx, [rax - 1]
	imul	edx, eax
	not	edx
	or	edx, -2
	cmp	edx, -1
	sete	byte ptr [rsp + 5]
	cmp	ecx, 10
	setl	byte ptr [rsp + 6]
	mov	eax, -142540769
	jmp	.LBB105_1
.LBB105_15:                             
	mov	eax, 1144628938
	.p2align	4, 0x90
.LBB105_1:                              
	cmp	eax, 52436038
	jle	.LBB105_2

	cmp	eax, 1144628937
	jle	.LBB105_13

	cmp	eax, 1144628938
	je	.LBB105_29

	cmp	eax, 1234152507
	je	.LBB105_25

	cmp	eax, 1236888269
	jne	.LBB105_1

	mov	rdi, r12
	mov	rsi, r15
	call	_ZNSt11char_traitsIcE6assignERcRKc
	mov	eax, -460392531
	jmp	.LBB105_1
	.p2align	4, 0x90
.LBB105_2:                              
	cmp	eax, -958902205
	jle	.LBB105_3

	cmp	eax, -460392531
	je	.LBB105_26

	cmp	eax, -142540769
	je	.LBB105_20

	cmp	eax, -958902204
	jne	.LBB105_1
	jmp	.LBB105_11
	.p2align	4, 0x90
.LBB105_13:                             
	cmp	eax, 52436039
	je	.LBB105_33

	cmp	eax, 1062681813
	jne	.LBB105_1
	jmp	.LBB105_15
	.p2align	4, 0x90
.LBB105_3:                              
	cmp	eax, -1759709274
	je	.LBB105_23

	cmp	eax, -1159797581
	jne	.LBB105_1

	mov	eax, dword ptr [rip + x.205]
	mov	ecx, dword ptr [rip + y.206]
	lea	edx, [rax - 1]
	imul	edx, eax
	not	edx
	or	edx, -2
	cmp	edx, -1
	sete	al
	cmp	ecx, 10
	setl	bl
	xor	bl, al
	mov	eax, -1759709274
	mov	esi, -1759709274
	jne	.LBB105_7

	mov	esi, 52436039
.LBB105_7:                              
	cmp	edx, -1
	cmovne	eax, esi
	cmp	ecx, 10
	cmovge	eax, esi
	cmp	r14, 1
	sete	byte ptr [rsp + 7]
	jmp	.LBB105_1
.LBB105_29:                             
	mov	eax, dword ptr [rip + x.205]
	mov	ecx, dword ptr [rip + y.206]
	lea	edx, [rax - 1]
	imul	edx, eax
	mov	eax, edx
	xor	eax, -2
	and	eax, edx
	sete	bl
	test	eax, eax
	mov	eax, -958902204
	mov	edx, 1062681813
	mov	esi, -958902204
	je	.LBB105_31

	mov	esi, 1062681813
.LBB105_31:                             
	cmp	ecx, 10
	setl	cl
	cmovl	edx, esi
	xor	cl, bl
	jne	.LBB105_1

	mov	eax, edx
	jmp	.LBB105_1
.LBB105_25:                             
	mov	rdi, r12
	mov	rsi, r15
	mov	rdx, r14
	call	_ZNSt11char_traitsIcE4copyEPcPKcm
	mov	eax, -460392531
	jmp	.LBB105_1
.LBB105_26:                             
	mov	eax, dword ptr [rip + x.205]
	mov	ecx, dword ptr [rip + y.206]
	lea	edx, [rax - 1]
	imul	edx, eax
	not	edx
	or	edx, -2
	cmp	edx, -1
	sete	al
	cmp	ecx, 10
	setl	bl
	xor	bl, al
	mov	eax, 1144628938
	mov	esi, 1144628938
	jne	.LBB105_28

	mov	esi, 1062681813
.LBB105_28:                             
	cmp	edx, -1
	cmovne	eax, esi
	cmp	ecx, 10
	cmovge	eax, esi
	jmp	.LBB105_1
.LBB105_20:                             
	movzx	ecx, byte ptr [rsp + 5]
	movzx	edx, byte ptr [rsp + 6]
	mov	eax, ecx
	xor	al, dl
	mov	eax, -1159797581
	mov	esi, -1159797581
	jne	.LBB105_22

	mov	esi, 52436039
.LBB105_22:                             
	test	dl, dl
	cmove	eax, esi
	test	cl, cl
	cmove	eax, esi
	jmp	.LBB105_1
.LBB105_33:                             
	mov	eax, -1159797581
	jmp	.LBB105_1
.LBB105_23:                             
	movzx	eax, byte ptr [rsp + 7]
	test	al, al
	mov	eax, 1236888269
	jne	.LBB105_1

	mov	eax, 1234152507
	jmp	.LBB105_1
.LBB105_11:
	add	rsp, 8
	pop	rbx
	pop	r12
	pop	r14
	pop	r15
	ret
.Lfunc_end105:
	.size	_ZNSt7__cxx1112basic_stringIcSt11char_traitsIcESaIcEE7_S_copyEPcPKcm, .Lfunc_end105-_ZNSt7__cxx1112basic_stringIcSt11char_traitsIcESaIcEE7_S_copyEPcPKcm
	.cfi_endproc

	.section	.text._ZNSt11char_traitsIcE6assignERcRKc,"axG",@progbits,_ZNSt11char_traitsIcE6assignERcRKc,comdat
	.weak	_ZNSt11char_traitsIcE6assignERcRKc 
	.p2align	4, 0x90
	.type	_ZNSt11char_traitsIcE6assignERcRKc,@function
_ZNSt11char_traitsIcE6assignERcRKc:     

	mov	al, byte ptr [rsi]
	mov	byte ptr [rdi], al
	ret
.Lfunc_end106:
	.size	_ZNSt11char_traitsIcE6assignERcRKc, .Lfunc_end106-_ZNSt11char_traitsIcE6assignERcRKc

	.section	.text._ZNSt11char_traitsIcE4copyEPcPKcm,"axG",@progbits,_ZNSt11char_traitsIcE4copyEPcPKcm,comdat
	.weak	_ZNSt11char_traitsIcE4copyEPcPKcm 
	.p2align	4, 0x90
	.type	_ZNSt11char_traitsIcE4copyEPcPKcm,@function
_ZNSt11char_traitsIcE4copyEPcPKcm:      

	push	rbp
	push	r15
	push	r14
	push	rbx
	push	rax
	mov	r14, rdx
	mov	r15, rsi
	mov	rbx, rdi
	test	r14, r14
	mov	eax, 407236792
	mov	ebp, -1077577365
	cmove	ebp, eax
	mov	eax, 695793547
	jmp	.LBB107_1
.LBB107_6:                              
	mov	eax, ebp
	.p2align	4, 0x90
.LBB107_1:                              
	cmp	eax, 695793546
	jle	.LBB107_2

	cmp	eax, 695793547
	je	.LBB107_6

	cmp	eax, 958965664
	jne	.LBB107_1
	jmp	.LBB107_9
	.p2align	4, 0x90
.LBB107_2:                              
	cmp	eax, -1077577365
	je	.LBB107_7

	cmp	eax, 407236792
	jne	.LBB107_1

	mov	eax, 958965664
	jmp	.LBB107_1
.LBB107_7:                              
	mov	rdi, rbx
	mov	rsi, r15
	mov	rdx, r14
	call	memcpy
	mov	eax, 958965664
	jmp	.LBB107_1
.LBB107_9:
	mov	rax, rbx
	add	rsp, 8
	pop	rbx
	pop	r14
	pop	r15
	pop	rbp
	ret
.Lfunc_end107:
	.size	_ZNSt11char_traitsIcE4copyEPcPKcm, .Lfunc_end107-_ZNSt11char_traitsIcE4copyEPcPKcm

	.section	.text._ZNSt7__cxx1112basic_stringIcSt11char_traitsIcESaIcEE9_M_lengthEm,"axG",@progbits,_ZNSt7__cxx1112basic_stringIcSt11char_traitsIcESaIcEE9_M_lengthEm,comdat
	.weak	_ZNSt7__cxx1112basic_stringIcSt11char_traitsIcESaIcEE9_M_lengthEm 
	.p2align	4, 0x90
	.type	_ZNSt7__cxx1112basic_stringIcSt11char_traitsIcESaIcEE9_M_lengthEm,@function
_ZNSt7__cxx1112basic_stringIcSt11char_traitsIcESaIcEE9_M_lengthEm: 

	mov	qword ptr [rdi + 8], rsi
	ret
.Lfunc_end108:
	.size	_ZNSt7__cxx1112basic_stringIcSt11char_traitsIcESaIcEE9_M_lengthEm, .Lfunc_end108-_ZNSt7__cxx1112basic_stringIcSt11char_traitsIcESaIcEE9_M_lengthEm

	.section	.text._ZN9__gnu_cxx11char_traitsIcE6lengthEPKc,"axG",@progbits,_ZN9__gnu_cxx11char_traitsIcE6lengthEPKc,comdat
	.weak	_ZN9__gnu_cxx11char_traitsIcE6lengthEPKc 
	.p2align	4, 0x90
	.type	_ZN9__gnu_cxx11char_traitsIcE6lengthEPKc,@function
_ZN9__gnu_cxx11char_traitsIcE6lengthEPKc: 
	.cfi_startproc

	push	rbp
.Lcfi355:
	.cfi_def_cfa_offset 16
.Lcfi356:
	.cfi_offset rbp, -16
	mov	rbp, rsp
.Lcfi357:
	.cfi_def_cfa_register rbp
	push	r15
	push	r14
	push	r13
	push	r12
	push	rbx
	sub	rsp, 24
.Lcfi358:
	.cfi_offset rbx, -56
.Lcfi359:
	.cfi_offset r12, -48
.Lcfi360:
	.cfi_offset r13, -40
.Lcfi361:
	.cfi_offset r14, -32
.Lcfi362:
	.cfi_offset r15, -24
	mov	rbx, rdi
	mov	eax, dword ptr [rip + x.229]
	mov	ecx, dword ptr [rip + y.230]
	lea	edx, [rax - 1]
	imul	edx, eax
	mov	eax, edx
	xor	eax, -2
	test	eax, edx
	sete	byte ptr [rbp - 41]
	cmp	ecx, 10
	setl	byte ptr [rbp - 42]
	mov	eax, -1778734637
	mov	r15d, 820365981
	movabs	r13, 171682060594074780
	mov	r12d, 567540949

	jmp	.LBB109_1
.LBB109_5:                              
	mov	rax, qword ptr [rbp - 64]
	lea	r14, [rax + r13 + 1]
	sub	r14, r13
	mov	eax, -709692380
	.p2align	4, 0x90
.LBB109_1:                              
	cmp	eax, -261744375
	jle	.LBB109_2

	cmp	eax, 820365980
	jle	.LBB109_7

	cmp	eax, 820365981
	je	.LBB109_16

	cmp	eax, 1709040411
	jne	.LBB109_1
	jmp	.LBB109_12
	.p2align	4, 0x90
.LBB109_2:                              
	cmp	eax, -1778734637
	je	.LBB109_13

	cmp	eax, -709692380
	je	.LBB109_15

	cmp	eax, -303965260
	jne	.LBB109_1
	jmp	.LBB109_5
	.p2align	4, 0x90
.LBB109_7:                              
	cmp	eax, -261744374
	je	.LBB109_14

	cmp	eax, 567540949
	jne	.LBB109_1

	mov	eax, -709692380
	xor	r14d, r14d
	jmp	.LBB109_1
.LBB109_16:                             
	mov	eax, -261744374
	jmp	.LBB109_1
.LBB109_13:                             
	movzx	ecx, byte ptr [rbp - 41]
	movzx	eax, byte ptr [rbp - 42]
	mov	edx, ecx
	xor	dl, al
	test	al, al
	mov	eax, 820365981
	mov	esi, -261744374
	cmovne	eax, esi
	test	cl, cl
	cmove	eax, r15d
	test	dl, dl
	cmovne	eax, esi
	jmp	.LBB109_1
.LBB109_15:                             
	mov	qword ptr [rbp - 64], r14
	mov	rdi, qword ptr [rbp - 64]
	add	rdi, rbx
	mov	rax, qword ptr [rbp - 56]
	mov	rax, qword ptr [rbp - 56]
	mov	byte ptr [rax], 0
	mov	rsi, qword ptr [rbp - 56]
	call	_ZN9__gnu_cxx11char_traitsIcE2eqERKcS3_
	mov	rcx, qword ptr [rbp - 56]
	test	al, al
	mov	eax, -303965260
	mov	ecx, 1709040411
	cmovne	eax, ecx
	jmp	.LBB109_1
.LBB109_14:                             
	mov	rax, rsp
	add	rax, -16
	mov	rsp, rax
	mov	qword ptr [rbp - 56], rax
	mov	eax, dword ptr [rip + x.229]
	lea	ecx, [rax - 1]
	imul	ecx, eax
	not	ecx
	or	ecx, -2
	cmp	ecx, -1
	sete	cl
	mov	eax, 820365981
	cmove	eax, r12d
	cmp	dword ptr [rip + y.230], 10
	setl	dl
	cmovge	eax, r15d
	xor	dl, cl
	cmovne	eax, r12d
	jmp	.LBB109_1
.LBB109_12:
	mov	rax, qword ptr [rbp - 64]
	lea	rsp, [rbp - 40]
	pop	rbx
	pop	r12
	pop	r13
	pop	r14
	pop	r15
	pop	rbp
	ret
.Lfunc_end109:
	.size	_ZN9__gnu_cxx11char_traitsIcE6lengthEPKc, .Lfunc_end109-_ZN9__gnu_cxx11char_traitsIcE6lengthEPKc
	.cfi_endproc

	.section	.text._ZN9__gnu_cxx11char_traitsIcE2eqERKcS3_,"axG",@progbits,_ZN9__gnu_cxx11char_traitsIcE2eqERKcS3_,comdat
	.weak	_ZN9__gnu_cxx11char_traitsIcE2eqERKcS3_ 
	.p2align	4, 0x90
	.type	_ZN9__gnu_cxx11char_traitsIcE2eqERKcS3_,@function
_ZN9__gnu_cxx11char_traitsIcE2eqERKcS3_: 

	mov	al, byte ptr [rdi]
	cmp	al, byte ptr [rsi]
	sete	al
	ret
.Lfunc_end110:
	.size	_ZN9__gnu_cxx11char_traitsIcE2eqERKcS3_, .Lfunc_end110-_ZN9__gnu_cxx11char_traitsIcE2eqERKcS3_

	.section	.text._ZN9__gnu_cxx13new_allocatorIcED2Ev,"axG",@progbits,_ZN9__gnu_cxx13new_allocatorIcED2Ev,comdat
	.weak	_ZN9__gnu_cxx13new_allocatorIcED2Ev 
	.p2align	4, 0x90
	.type	_ZN9__gnu_cxx13new_allocatorIcED2Ev,@function
_ZN9__gnu_cxx13new_allocatorIcED2Ev:    

	ret
.Lfunc_end111:
	.size	_ZN9__gnu_cxx13new_allocatorIcED2Ev, .Lfunc_end111-_ZN9__gnu_cxx13new_allocatorIcED2Ev

	.section	.text._ZSt11make_uniqueIN5Botan3DESEJEENSt9_MakeUniqIT_E15__single_objectEDpOT0_,"axG",@progbits,_ZSt11make_uniqueIN5Botan3DESEJEENSt9_MakeUniqIT_E15__single_objectEDpOT0_,comdat
	.weak	_ZSt11make_uniqueIN5Botan3DESEJEENSt9_MakeUniqIT_E15__single_objectEDpOT0_ 
	.p2align	4, 0x90
	.type	_ZSt11make_uniqueIN5Botan3DESEJEENSt9_MakeUniqIT_E15__single_objectEDpOT0_,@function
_ZSt11make_uniqueIN5Botan3DESEJEENSt9_MakeUniqIT_E15__single_objectEDpOT0_: 
	.cfi_startproc

	push	r14
.Lcfi363:
	.cfi_def_cfa_offset 16
	push	rbx
.Lcfi364:
	.cfi_def_cfa_offset 24
	push	rax
.Lcfi365:
	.cfi_def_cfa_offset 32
.Lcfi366:
	.cfi_offset rbx, -24
.Lcfi367:
	.cfi_offset r14, -16
	mov	r14, rdi
	mov	edi, 32
	call	_Znwm
	mov	rbx, rax
	xorps	xmm0, xmm0
	movaps	xmmword ptr [rbx + 16], xmm0
	movaps	xmmword ptr [rbx], xmm0
	mov	rdi, rbx
	call	_ZN5Botan3DESC2Ev
	mov	rdi, r14
	mov	rsi, rbx
	call	_ZNSt10unique_ptrIN5Botan3DESESt14default_deleteIS1_EEC2IS3_vEEPS1_
	mov	rax, r14
	add	rsp, 8
	pop	rbx
	pop	r14
	ret
.Lfunc_end112:
	.size	_ZSt11make_uniqueIN5Botan3DESEJEENSt9_MakeUniqIT_E15__single_objectEDpOT0_, .Lfunc_end112-_ZSt11make_uniqueIN5Botan3DESEJEENSt9_MakeUniqIT_E15__single_objectEDpOT0_
	.cfi_endproc

	.section	.text._ZNSt10unique_ptrIN5Botan11BlockCipherESt14default_deleteIS1_EEC2INS0_3DESES2_IS6_EvEEOS_IT_T0_E,"axG",@progbits,_ZNSt10unique_ptrIN5Botan11BlockCipherESt14default_deleteIS1_EEC2INS0_3DESES2_IS6_EvEEOS_IT_T0_E,comdat
	.weak	_ZNSt10unique_ptrIN5Botan11BlockCipherESt14default_deleteIS1_EEC2INS0_3DESES2_IS6_EvEEOS_IT_T0_E 
	.p2align	4, 0x90
	.type	_ZNSt10unique_ptrIN5Botan11BlockCipherESt14default_deleteIS1_EEC2INS0_3DESES2_IS6_EvEEOS_IT_T0_E,@function
_ZNSt10unique_ptrIN5Botan11BlockCipherESt14default_deleteIS1_EEC2INS0_3DESES2_IS6_EvEEOS_IT_T0_E: 
.Lfunc_begin7:
	.cfi_startproc
	.cfi_personality 3, __gxx_personality_v0
	.cfi_lsda 3, .Lexception7

	push	r15
	push	r14
	push	rbx
	mov	rbx, rsi
	mov	r14, rdi
	mov	rdi, rbx
	call	_ZNSt10unique_ptrIN5Botan3DESESt14default_deleteIS1_EE7releaseEv
	mov	r15, rax
	mov	rdi, rbx
	call	_ZNSt10unique_ptrIN5Botan3DESESt14default_deleteIS1_EE11get_deleterEv
	mov	rdi, rax
	call	_ZSt7forwardISt14default_deleteIN5Botan3DESEEEOT_RNSt16remove_referenceIS4_E4typeE
.Ltmp23:
	mov	rdi, r14
	mov	rsi, r15
	mov	rdx, rax
	call	_ZNSt15__uniq_ptr_implIN5Botan11BlockCipherESt14default_deleteIS1_EEC2IS2_INS0_3DESEEEEPS1_OT_
.Ltmp24:

	pop	rbx
	pop	r14
	pop	r15
	ret
.LBB113_2:
.Ltmp25:
	mov	rdi, rax
	call	__clang_call_terminate
.Lfunc_end113:
	.size	_ZNSt10unique_ptrIN5Botan11BlockCipherESt14default_deleteIS1_EEC2INS0_3DESES2_IS6_EvEEOS_IT_T0_E, .Lfunc_end113-_ZNSt10unique_ptrIN5Botan11BlockCipherESt14default_deleteIS1_EEC2INS0_3DESES2_IS6_EvEEOS_IT_T0_E
	.cfi_endproc
	.section	.gcc_except_table,"a",@progbits
	.p2align	2
GCC_except_table113:
.Lexception7:
	.byte	255                     
	.byte	3                       
	.byte	21                      
	.byte	3                       
	.byte	13                      
	.long	.Ltmp23-.Lfunc_begin7   
	.long	.Ltmp24-.Ltmp23         
	.long	.Ltmp25-.Lfunc_begin7   
	.byte	1                       
	.byte	1                       

	.byte	0                       

	.long	0                       
	.p2align	2

	.section	.text._ZNSt10unique_ptrIN5Botan3DESESt14default_deleteIS1_EED2Ev,"axG",@progbits,_ZNSt10unique_ptrIN5Botan3DESESt14default_deleteIS1_EED2Ev,comdat
	.weak	_ZNSt10unique_ptrIN5Botan3DESESt14default_deleteIS1_EED2Ev 
	.p2align	4, 0x90
	.type	_ZNSt10unique_ptrIN5Botan3DESESt14default_deleteIS1_EED2Ev,@function
_ZNSt10unique_ptrIN5Botan3DESESt14default_deleteIS1_EED2Ev: 

	push	rbp
	push	rbx
	sub	rsp, 24
	mov	rbx, rdi
	call	_ZNSt15__uniq_ptr_implIN5Botan3DESESt14default_deleteIS1_EE6_M_ptrEv
	mov	qword ptr [rsp + 8], rax
	mov	rax, qword ptr [rsp + 8]
	mov	rax, qword ptr [rax]
	mov	qword ptr [rsp + 16], rax
	mov	eax, 1726152799
	mov	ebp, 1220147569
	jmp	.LBB114_1
.LBB114_4:                              
	cmp	qword ptr [rsp + 16], 0
	mov	eax, 91120058
	cmove	eax, ebp
	.p2align	4, 0x90
.LBB114_1:                              
	mov	ecx, eax
	and	ecx, 2147483647
	cmp	ecx, 91120058
	je	.LBB114_5

	cmp	ecx, 1220147569
	je	.LBB114_6

	cmp	ecx, 1726152799
	jne	.LBB114_1
	jmp	.LBB114_4
.LBB114_5:                              
	mov	rdi, rbx
	call	_ZNSt10unique_ptrIN5Botan3DESESt14default_deleteIS1_EE11get_deleterEv
	mov	rcx, qword ptr [rsp + 8]
	mov	rsi, qword ptr [rcx]
	mov	rdi, rax
	call	_ZNKSt14default_deleteIN5Botan3DESEEclEPS1_
	mov	eax, 1220147569
	jmp	.LBB114_1
.LBB114_6:
	mov	rax, qword ptr [rsp + 8]
	mov	qword ptr [rax], 0
	add	rsp, 24
	pop	rbx
	pop	rbp
	ret
.Lfunc_end114:
	.size	_ZNSt10unique_ptrIN5Botan3DESESt14default_deleteIS1_EED2Ev, .Lfunc_end114-_ZNSt10unique_ptrIN5Botan3DESESt14default_deleteIS1_EED2Ev

	.section	.text._ZN5Botan3DESC2Ev,"axG",@progbits,_ZN5Botan3DESC2Ev,comdat
	.weak	_ZN5Botan3DESC2Ev       
	.p2align	4, 0x90
	.type	_ZN5Botan3DESC2Ev,@function
_ZN5Botan3DESC2Ev:                      

	push	rbx
	mov	rbx, rdi
	call	_ZN5Botan25Block_Cipher_Fixed_ParamsILm8ELm8ELm0ELm1ENS_11BlockCipherEEC2Ev
	mov	qword ptr [rbx], _ZTVN5Botan3DESE+16
	add	rbx, 8
	mov	rdi, rbx
	pop	rbx
	jmp	_ZNSt6vectorIjN5Botan16secure_allocatorIjEEEC2Ev 
.Lfunc_end115:
	.size	_ZN5Botan3DESC2Ev, .Lfunc_end115-_ZN5Botan3DESC2Ev

	.section	.text._ZNSt10unique_ptrIN5Botan3DESESt14default_deleteIS1_EEC2IS3_vEEPS1_,"axG",@progbits,_ZNSt10unique_ptrIN5Botan3DESESt14default_deleteIS1_EEC2IS3_vEEPS1_,comdat
	.weak	_ZNSt10unique_ptrIN5Botan3DESESt14default_deleteIS1_EEC2IS3_vEEPS1_ 
	.p2align	4, 0x90
	.type	_ZNSt10unique_ptrIN5Botan3DESESt14default_deleteIS1_EEC2IS3_vEEPS1_,@function
_ZNSt10unique_ptrIN5Botan3DESESt14default_deleteIS1_EEC2IS3_vEEPS1_: 
.Lfunc_begin8:
	.cfi_startproc
	.cfi_personality 3, __gxx_personality_v0
	.cfi_lsda 3, .Lexception8

	push	rax
.Ltmp26:
	call	_ZNSt15__uniq_ptr_implIN5Botan3DESESt14default_deleteIS1_EEC2EPS1_
.Ltmp27:

	pop	rax
	ret
.LBB116_2:
.Ltmp28:
	mov	rdi, rax
	call	__clang_call_terminate
.Lfunc_end116:
	.size	_ZNSt10unique_ptrIN5Botan3DESESt14default_deleteIS1_EEC2IS3_vEEPS1_, .Lfunc_end116-_ZNSt10unique_ptrIN5Botan3DESESt14default_deleteIS1_EEC2IS3_vEEPS1_
	.cfi_endproc
	.section	.gcc_except_table,"a",@progbits
	.p2align	2
GCC_except_table116:
.Lexception8:
	.byte	255                     
	.byte	3                       
	.byte	21                      
	.byte	3                       
	.byte	13                      
	.long	.Ltmp26-.Lfunc_begin8   
	.long	.Ltmp27-.Ltmp26         
	.long	.Ltmp28-.Lfunc_begin8   
	.byte	1                       
	.byte	1                       

	.byte	0                       

	.long	0                       
	.p2align	2

	.section	.text._ZN5Botan25Block_Cipher_Fixed_ParamsILm8ELm8ELm0ELm1ENS_11BlockCipherEEC2Ev,"axG",@progbits,_ZN5Botan25Block_Cipher_Fixed_ParamsILm8ELm8ELm0ELm1ENS_11BlockCipherEEC2Ev,comdat
	.weak	_ZN5Botan25Block_Cipher_Fixed_ParamsILm8ELm8ELm0ELm1ENS_11BlockCipherEEC2Ev 
	.p2align	4, 0x90
	.type	_ZN5Botan25Block_Cipher_Fixed_ParamsILm8ELm8ELm0ELm1ENS_11BlockCipherEEC2Ev,@function
_ZN5Botan25Block_Cipher_Fixed_ParamsILm8ELm8ELm0ELm1ENS_11BlockCipherEEC2Ev: 

	push	rbx
	mov	rbx, rdi
	call	_ZN5Botan11BlockCipherC2Ev
	mov	qword ptr [rbx], _ZTVN5Botan25Block_Cipher_Fixed_ParamsILm8ELm8ELm0ELm1ENS_11BlockCipherEEE+16
	pop	rbx
	ret
.Lfunc_end117:
	.size	_ZN5Botan25Block_Cipher_Fixed_ParamsILm8ELm8ELm0ELm1ENS_11BlockCipherEEC2Ev, .Lfunc_end117-_ZN5Botan25Block_Cipher_Fixed_ParamsILm8ELm8ELm0ELm1ENS_11BlockCipherEEC2Ev

	.section	.text._ZNSt6vectorIjN5Botan16secure_allocatorIjEEEC2Ev,"axG",@progbits,_ZNSt6vectorIjN5Botan16secure_allocatorIjEEEC2Ev,comdat
	.weak	_ZNSt6vectorIjN5Botan16secure_allocatorIjEEEC2Ev 
	.p2align	4, 0x90
	.type	_ZNSt6vectorIjN5Botan16secure_allocatorIjEEEC2Ev,@function
_ZNSt6vectorIjN5Botan16secure_allocatorIjEEEC2Ev: 
.Lfunc_begin9:
	.cfi_startproc
	.cfi_personality 3, __gxx_personality_v0
	.cfi_lsda 3, .Lexception9

	push	rax
.Ltmp29:
	call	_ZNSt12_Vector_baseIjN5Botan16secure_allocatorIjEEEC2Ev
.Ltmp30:

	pop	rax
	ret
.LBB118_2:
.Ltmp31:
	mov	rdi, rax
	call	__clang_call_terminate
.Lfunc_end118:
	.size	_ZNSt6vectorIjN5Botan16secure_allocatorIjEEEC2Ev, .Lfunc_end118-_ZNSt6vectorIjN5Botan16secure_allocatorIjEEEC2Ev
	.cfi_endproc
	.section	.gcc_except_table,"a",@progbits
	.p2align	2
GCC_except_table118:
.Lexception9:
	.byte	255                     
	.byte	3                       
	.byte	21                      
	.byte	3                       
	.byte	13                      
	.long	.Ltmp29-.Lfunc_begin9   
	.long	.Ltmp30-.Ltmp29         
	.long	.Ltmp31-.Lfunc_begin9   
	.byte	1                       
	.byte	1                       

	.byte	0                       

	.long	0                       
	.p2align	2

	.section	.text._ZN5Botan11BlockCipherC2Ev,"axG",@progbits,_ZN5Botan11BlockCipherC2Ev,comdat
	.weak	_ZN5Botan11BlockCipherC2Ev 
	.p2align	4, 0x90
	.type	_ZN5Botan11BlockCipherC2Ev,@function
_ZN5Botan11BlockCipherC2Ev:             

	push	rbx
	mov	rbx, rdi
	call	_ZN5Botan18SymmetricAlgorithmC2Ev
	mov	qword ptr [rbx], _ZTVN5Botan11BlockCipherE+16
	pop	rbx
	ret
.Lfunc_end119:
	.size	_ZN5Botan11BlockCipherC2Ev, .Lfunc_end119-_ZN5Botan11BlockCipherC2Ev

	.section	.text._ZN5Botan25Block_Cipher_Fixed_ParamsILm8ELm8ELm0ELm1ENS_11BlockCipherEED0Ev,"axG",@progbits,_ZN5Botan25Block_Cipher_Fixed_ParamsILm8ELm8ELm0ELm1ENS_11BlockCipherEED0Ev,comdat
	.weak	_ZN5Botan25Block_Cipher_Fixed_ParamsILm8ELm8ELm0ELm1ENS_11BlockCipherEED0Ev 
	.p2align	4, 0x90
	.type	_ZN5Botan25Block_Cipher_Fixed_ParamsILm8ELm8ELm0ELm1ENS_11BlockCipherEED0Ev,@function
_ZN5Botan25Block_Cipher_Fixed_ParamsILm8ELm8ELm0ELm1ENS_11BlockCipherEED0Ev: 

	mov	eax, dword ptr [rip + x.245]
	lea	ecx, [rax - 1]
	imul	ecx, eax
	mov	eax, ecx
	xor	eax, -2
	test	eax, ecx
	sete	byte ptr [rsp - 2]
	mov	eax, dword ptr [rip + y.246]
	cmp	eax, 10
	setl	byte ptr [rsp - 1]
	mov	edx, 1350038366
	mov	edi, -1062419681
	mov	esi, -79207344
	jmp	.LBB120_1
	.p2align	4, 0x90
.LBB120_5:                              
	movzx	eax, byte ptr [rsp - 2]
	movzx	edx, byte ptr [rsp - 1]
	mov	ecx, eax
	xor	cl, dl
	test	dl, dl
	mov	edx, -79207344
	cmovne	edx, edi
	test	al, al
	cmove	edx, esi
	test	cl, cl
	cmovne	edx, edi
.LBB120_1:                              
	cmp	edx, 1350038366
	je	.LBB120_5

	cmp	edx, -1062419681
	je	.LBB120_4

	cmp	edx, -79207344
	jne	.LBB120_1
.LBB120_4:
	ud2
.Lfunc_end120:
	.size	_ZN5Botan25Block_Cipher_Fixed_ParamsILm8ELm8ELm0ELm1ENS_11BlockCipherEED0Ev, .Lfunc_end120-_ZN5Botan25Block_Cipher_Fixed_ParamsILm8ELm8ELm0ELm1ENS_11BlockCipherEED0Ev

	.section	.text._ZN5Botan18SymmetricAlgorithmC2Ev,"axG",@progbits,_ZN5Botan18SymmetricAlgorithmC2Ev,comdat
	.weak	_ZN5Botan18SymmetricAlgorithmC2Ev 
	.p2align	4, 0x90
	.type	_ZN5Botan18SymmetricAlgorithmC2Ev,@function
_ZN5Botan18SymmetricAlgorithmC2Ev:      

	mov	qword ptr [rdi], _ZTVN5Botan18SymmetricAlgorithmE+16
	ret
.Lfunc_end121:
	.size	_ZN5Botan18SymmetricAlgorithmC2Ev, .Lfunc_end121-_ZN5Botan18SymmetricAlgorithmC2Ev

	.section	.text._ZN5Botan11BlockCipherD0Ev,"axG",@progbits,_ZN5Botan11BlockCipherD0Ev,comdat
	.weak	_ZN5Botan11BlockCipherD0Ev 
	.p2align	4, 0x90
	.type	_ZN5Botan11BlockCipherD0Ev,@function
_ZN5Botan11BlockCipherD0Ev:             

	ud2
.Lfunc_end122:
	.size	_ZN5Botan11BlockCipherD0Ev, .Lfunc_end122-_ZN5Botan11BlockCipherD0Ev

	.section	.text._ZNK5Botan11BlockCipher13encrypt_n_xexEPhPKhm,"axG",@progbits,_ZNK5Botan11BlockCipher13encrypt_n_xexEPhPKhm,comdat
	.weak	_ZNK5Botan11BlockCipher13encrypt_n_xexEPhPKhm 
	.p2align	4, 0x90
	.type	_ZNK5Botan11BlockCipher13encrypt_n_xexEPhPKhm,@function
_ZNK5Botan11BlockCipher13encrypt_n_xexEPhPKhm: 
	.cfi_startproc

	push	r15
.Lcfi368:
	.cfi_def_cfa_offset 16
	push	r14
.Lcfi369:
	.cfi_def_cfa_offset 24
	push	r13
.Lcfi370:
	.cfi_def_cfa_offset 32
	push	r12
.Lcfi371:
	.cfi_def_cfa_offset 40
	push	rbx
.Lcfi372:
	.cfi_def_cfa_offset 48
.Lcfi373:
	.cfi_offset rbx, -48
.Lcfi374:
	.cfi_offset r12, -40
.Lcfi375:
	.cfi_offset r13, -32
.Lcfi376:
	.cfi_offset r14, -24
.Lcfi377:
	.cfi_offset r15, -16
	mov	r15, rcx
	mov	r14, rdx
	mov	r12, rsi
	mov	rbx, rdi
	mov	rax, qword ptr [rbx]
	call	qword ptr [rax + 48]
	mov	r13, rax
	imul	r13, r15
	mov	rdi, r12
	mov	rsi, r14
	mov	rdx, r13
	call	_ZN5Botan7xor_bufEPhPKhm
	mov	rax, qword ptr [rbx]
	mov	rdi, rbx
	mov	rsi, r12
	mov	rdx, r12
	mov	rcx, r15
	call	qword ptr [rax + 72]
	mov	rdi, r12
	mov	rsi, r14
	mov	rdx, r13
	pop	rbx
	pop	r12
	pop	r13
	pop	r14
	pop	r15
	jmp	_ZN5Botan7xor_bufEPhPKhm 
.Lfunc_end123:
	.size	_ZNK5Botan11BlockCipher13encrypt_n_xexEPhPKhm, .Lfunc_end123-_ZNK5Botan11BlockCipher13encrypt_n_xexEPhPKhm
	.cfi_endproc

	.section	.text._ZNK5Botan11BlockCipher13decrypt_n_xexEPhPKhm,"axG",@progbits,_ZNK5Botan11BlockCipher13decrypt_n_xexEPhPKhm,comdat
	.weak	_ZNK5Botan11BlockCipher13decrypt_n_xexEPhPKhm 
	.p2align	4, 0x90
	.type	_ZNK5Botan11BlockCipher13decrypt_n_xexEPhPKhm,@function
_ZNK5Botan11BlockCipher13decrypt_n_xexEPhPKhm: 
	.cfi_startproc

	push	r15
.Lcfi378:
	.cfi_def_cfa_offset 16
	push	r14
.Lcfi379:
	.cfi_def_cfa_offset 24
	push	r13
.Lcfi380:
	.cfi_def_cfa_offset 32
	push	r12
.Lcfi381:
	.cfi_def_cfa_offset 40
	push	rbx
.Lcfi382:
	.cfi_def_cfa_offset 48
.Lcfi383:
	.cfi_offset rbx, -48
.Lcfi384:
	.cfi_offset r12, -40
.Lcfi385:
	.cfi_offset r13, -32
.Lcfi386:
	.cfi_offset r14, -24
.Lcfi387:
	.cfi_offset r15, -16
	mov	r15, rcx
	mov	r14, rdx
	mov	r12, rsi
	mov	rbx, rdi
	mov	rax, qword ptr [rbx]
	call	qword ptr [rax + 48]
	mov	r13, rax
	imul	r13, r15
	mov	rdi, r12
	mov	rsi, r14
	mov	rdx, r13
	call	_ZN5Botan7xor_bufEPhPKhm
	mov	rax, qword ptr [rbx]
	mov	rdi, rbx
	mov	rsi, r12
	mov	rdx, r12
	mov	rcx, r15
	call	qword ptr [rax + 80]
	mov	rdi, r12
	mov	rsi, r14
	mov	rdx, r13
	pop	rbx
	pop	r12
	pop	r13
	pop	r14
	pop	r15
	jmp	_ZN5Botan7xor_bufEPhPKhm 
.Lfunc_end124:
	.size	_ZNK5Botan11BlockCipher13decrypt_n_xexEPhPKhm, .Lfunc_end124-_ZNK5Botan11BlockCipher13decrypt_n_xexEPhPKhm
	.cfi_endproc

	.section	.text._ZN5Botan18SymmetricAlgorithmD0Ev,"axG",@progbits,_ZN5Botan18SymmetricAlgorithmD0Ev,comdat
	.weak	_ZN5Botan18SymmetricAlgorithmD0Ev 
	.p2align	4, 0x90
	.type	_ZN5Botan18SymmetricAlgorithmD0Ev,@function
_ZN5Botan18SymmetricAlgorithmD0Ev:      

	ud2
.Lfunc_end125:
	.size	_ZN5Botan18SymmetricAlgorithmD0Ev, .Lfunc_end125-_ZN5Botan18SymmetricAlgorithmD0Ev

	.section	.text._ZN5Botan7xor_bufEPhPKhm,"axG",@progbits,_ZN5Botan7xor_bufEPhPKhm,comdat
	.weak	_ZN5Botan7xor_bufEPhPKhm 
	.p2align	4, 0x90
	.type	_ZN5Botan7xor_bufEPhPKhm,@function
_ZN5Botan7xor_bufEPhPKhm:               
	.cfi_startproc

	push	rbp
.Lcfi388:
	.cfi_def_cfa_offset 16
.Lcfi389:
	.cfi_offset rbp, -16
	mov	rbp, rsp
.Lcfi390:
	.cfi_def_cfa_register rbp
	push	r15
	push	r14
	push	r13
	push	r12
	push	rbx
	sub	rsp, 72
.Lcfi391:
	.cfi_offset rbx, -56
.Lcfi392:
	.cfi_offset r12, -48
.Lcfi393:
	.cfi_offset r13, -40
.Lcfi394:
	.cfi_offset r14, -32
.Lcfi395:
	.cfi_offset r15, -24
	mov	r15, rsi
	mov	r12, rdi
	mov	eax, dword ptr [rip + x.257]
	mov	ecx, dword ptr [rip + y.258]
	lea	esi, [rax - 1]
	imul	esi, eax
	mov	eax, esi
	xor	eax, -2
	test	eax, esi
	sete	byte ptr [rbp - 41]
	cmp	ecx, 10
	setl	byte ptr [rbp - 42]
	mov	qword ptr [rbp - 104], rdx 
	and	rdx, -32
	mov	qword ptr [rbp - 96], rdx 
	mov	ecx, 1410882999


	jmp	.LBB126_1
.LBB126_60:                             
	mov	rax, qword ptr [rbp - 56]
	movzx	eax, byte ptr [r15 + rax]
	mov	rcx, qword ptr [rbp - 56]
	movzx	ebx, byte ptr [r12 + rcx]
	mov	edx, ebx
	not	dl
	and	dl, 125
	and	bl, -126
	or	bl, dl
	mov	edx, eax
	not	dl
	and	dl, 125
	and	al, -126
	or	al, dl
	xor	al, bl
	mov	byte ptr [r12 + rcx], al
	mov	rax, qword ptr [rbp - 56]
	mov	rax, qword ptr [rbp - 56]
	mov	ecx, 1452283861
	.p2align	4, 0x90
.LBB126_1:                              
	cmp	ecx, 159050733
	jg	.LBB126_19

	cmp	ecx, -1205535431
	jg	.LBB126_10

	cmp	ecx, -1929321085
	jg	.LBB126_7

	cmp	ecx, -2030736022
	je	.LBB126_44

	cmp	ecx, -2016198422
	jne	.LBB126_1

	mov	ecx, -2030736022
	mov	r14, qword ptr [rbp - 112]
	jmp	.LBB126_1
	.p2align	4, 0x90
.LBB126_19:                             
	cmp	ecx, 1180350217
	jle	.LBB126_20

	cmp	ecx, 1452283860
	jg	.LBB126_33

	cmp	ecx, 1180350218
	je	.LBB126_41

	cmp	ecx, 1410882999
	jne	.LBB126_1

	movzx	edx, byte ptr [rbp - 41]
	movzx	ebx, byte ptr [rbp - 42]
	mov	ecx, edx
	xor	cl, bl
	mov	ecx, 531646758
	mov	esi, 531646758
	jne	.LBB126_32

	mov	esi, 1515121708
.LBB126_32:                             
	test	bl, bl
	cmove	ecx, esi
	test	dl, dl
	cmove	ecx, esi
	jmp	.LBB126_1
	.p2align	4, 0x90
.LBB126_10:                             
	cmp	ecx, 87998685
	jg	.LBB126_16

	cmp	ecx, -1205535430
	je	.LBB126_51

	cmp	ecx, -1049017213
	jne	.LBB126_1

	mov	eax, dword ptr [rip + x.257]
	mov	edx, dword ptr [rip + y.258]
	lea	esi, [rax - 1]
	imul	esi, eax
	not	esi
	or	esi, -2
	cmp	esi, -1
	sete	al
	cmp	edx, 10
	setl	cl
	xor	cl, al
	mov	ecx, 698969016
	mov	edi, 698969016
	jne	.LBB126_15

	mov	edi, 359646260
.LBB126_15:                             
	cmp	esi, -1
	cmovne	ecx, edi
	cmp	edx, 10
	cmovge	ecx, edi
	jmp	.LBB126_1
	.p2align	4, 0x90
.LBB126_20:                             
	cmp	ecx, 531646757
	jg	.LBB126_24

	cmp	ecx, 159050734
	je	.LBB126_46

	cmp	ecx, 359646260
	jne	.LBB126_1

	mov	ecx, -1049017213
	jmp	.LBB126_1
.LBB126_7:                              
	cmp	ecx, -1929321084
	je	.LBB126_60

	cmp	ecx, -1804350392
	jne	.LBB126_1

	mov	rax, qword ptr [rbp - 64]
	mov	rax, qword ptr [rbp - 72]
	mov	r13, qword ptr [rbp - 64]
	mov	rbx, qword ptr [rbp - 80]
	add	rbx, r12
	mov	edx, 4
	mov	rdi, r13
	mov	rsi, rbx
	call	_ZN5Botan13typecast_copyImEEvPT_PKhm
	mov	rdi, qword ptr [rbp - 72]
	mov	rsi, qword ptr [rbp - 80]
	add	rsi, r15
	mov	edx, 4
	call	_ZN5Botan13typecast_copyImEEvPT_PKhm
	mov	rax, qword ptr [rbp - 72]
	mov	rax, qword ptr [rax]
	mov	rcx, qword ptr [rbp - 64]
	mov	rdx, qword ptr [rcx]
	mov	rsi, rdx
	not	rsi
	and	rsi, rax
	not	rax
	and	rax, rdx
	or	rax, rsi
	mov	qword ptr [rcx], rax
	mov	rax, qword ptr [rbp - 72]
	mov	rax, qword ptr [rax + 8]
	mov	rcx, qword ptr [rbp - 64]
	mov	rdx, qword ptr [rcx + 8]
	mov	rsi, rdx
	not	rsi
	and	rsi, rax
	not	rax
	and	rax, rdx
	or	rax, rsi
	mov	qword ptr [rcx + 8], rax
	mov	rax, qword ptr [rbp - 72]
	mov	rax, qword ptr [rax + 16]
	mov	rcx, qword ptr [rbp - 64]
	mov	rdx, qword ptr [rcx + 16]
	mov	rsi, rdx
	not	rsi
	and	rsi, rax
	not	rax
	and	rax, rdx
	or	rax, rsi
	mov	qword ptr [rcx + 16], rax
	mov	rax, qword ptr [rbp - 72]
	mov	rax, qword ptr [rax + 24]
	mov	rcx, qword ptr [rbp - 64]
	mov	rdx, qword ptr [rcx + 24]
	mov	rsi, rdx
	not	rsi
	and	rsi, rax
	not	rax
	and	rax, rdx
	or	rax, rsi
	mov	qword ptr [rcx + 24], rax
	mov	edx, 4
	mov	rdi, rbx
	mov	rsi, r13
