	.text
	.intel_syntax noprefix
	.file	"/mnt/c/Users/Adam/Developer/CryptoFunctionDetection/crypto_implementations/DES-Cryptography/DES.cpp"
	.section	.text.startup,"ax",@progbits
	.p2align	4, 0x90         
	.type	__cxx_global_var_init,@function
__cxx_global_var_init:                  
	.cfi_startproc

	push	rbp
.Lcfi0:
	.cfi_def_cfa_offset 16
.Lcfi1:
	.cfi_offset rbp, -16
	mov	rbp, rsp
.Lcfi2:
	.cfi_def_cfa_register rbp
	push	r15
	push	r14
	push	r13
	push	r12
	push	rbx
	sub	rsp, 40
.Lcfi3:
	.cfi_offset rbx, -56
.Lcfi4:
	.cfi_offset r12, -48
.Lcfi5:
	.cfi_offset r13, -40
.Lcfi6:
	.cfi_offset r14, -32
.Lcfi7:
	.cfi_offset r15, -24
	mov	eax, dword ptr [x]
	mov	ecx, dword ptr [y]
	mov	edx, eax
	sub	edx, 1837935053
	sub	edx, 1
	add	edx, 1837935053
	imul	eax, edx
	and	eax, 1
	cmp	eax, 0
	sete	sil
	and	sil, 1
	mov	byte ptr [rbp - 42], sil
	cmp	ecx, 10
	setl	sil
	and	sil, 1
	mov	byte ptr [rbp - 41], sil
	mov	dword ptr [rbp - 48], -816398282
.LBB0_1:                                
	mov	eax, dword ptr [rbp - 48]
	mov	ecx, eax
	sub	ecx, -1411975286
	mov	dword ptr [rbp - 52], eax 
	mov	dword ptr [rbp - 56], ecx 
	je	.LBB0_6
	jmp	.LBB0_8
.LBB0_8:                                
	mov	eax, dword ptr [rbp - 52] 
	sub	eax, -1286174568
	mov	dword ptr [rbp - 60], eax 
	je	.LBB0_5
	jmp	.LBB0_9
.LBB0_9:                                
	mov	eax, dword ptr [rbp - 52] 
	sub	eax, -816398282
	mov	dword ptr [rbp - 64], eax 
	je	.LBB0_3
	jmp	.LBB0_10
.LBB0_10:                               
	mov	eax, dword ptr [rbp - 52] 
	sub	eax, 1378998035
	mov	dword ptr [rbp - 68], eax 
	je	.LBB0_4
	jmp	.LBB0_2
.LBB0_2:                                
	jmp	.LBB0_7
.LBB0_3:                                
	mov	eax, 2882992010
	mov	ecx, 1378998035
	mov	dl, 1
	mov	sil, byte ptr [rbp - 42]
	mov	dil, byte ptr [rbp - 41]
	mov	r8b, sil
	xor	r8b, -1
	mov	r9b, dil
	xor	r9b, -1
	xor	dl, 0
	mov	r10b, r8b
	and	r10b, 0
	and	sil, dl
	mov	r11b, r9b
	and	r11b, 0
	and	dil, dl
	or	r10b, sil
	or	r11b, dil
	xor	r10b, r11b
	or	r8b, r9b
	xor	r8b, -1
	or	dl, 0
	and	r8b, dl
	or	r10b, r8b
	test	r10b, 1
	cmovne	eax, ecx
	mov	dword ptr [rbp - 48], eax
	jmp	.LBB0_7
.LBB0_4:                                
	movabs	rdi, _ZStL8__ioinit
	call	_ZNSt8ios_base4InitC1Ev
	movabs	rdi, _ZNSt8ios_base4InitD1Ev
	movabs	rsi, _ZStL8__ioinit
	movabs	rdx, __dso_handle
	call	__cxa_atexit
	mov	ecx, 2882992010
	mov	r8d, 3008792728
	mov	r9b, 1
	mov	r10d, dword ptr [x]
	mov	r11d, dword ptr [y]
	mov	ebx, r10d
	add	ebx, -767298822
	sub	ebx, 1
	sub	ebx, -767298822
	imul	r10d, ebx
	and	r10d, 1
	cmp	r10d, 0
	sete	r14b
	cmp	r11d, 10
	setl	r15b
	mov	r12b, r14b
	xor	r12b, -1
	mov	r13b, r15b
	xor	r13b, -1
	xor	r9b, 1
	mov	dl, r12b
	and	dl, -1
	and	r14b, r9b
	mov	sil, r13b
	and	sil, -1
	and	r15b, r9b
	or	dl, r14b
	or	sil, r15b
	xor	dl, sil
	or	r12b, r13b
	xor	r12b, -1
	or	r9b, 1
	and	r12b, r9b
	or	dl, r12b
	test	dl, 1
	cmovne	ecx, r8d
	mov	dword ptr [rbp - 48], ecx
	mov	dword ptr [rbp - 72], eax 
	jmp	.LBB0_7
.LBB0_5:
	add	rsp, 40
	pop	rbx
	pop	r12
	pop	r13
	pop	r14
	pop	r15
	pop	rbp
	ret
.LBB0_6:                                
	movabs	rdi, _ZStL8__ioinit
	call	_ZNSt8ios_base4InitC1Ev
	movabs	rdi, _ZNSt8ios_base4InitD1Ev
	movabs	rsi, _ZStL8__ioinit
	movabs	rdx, __dso_handle
	call	__cxa_atexit
	mov	dword ptr [rbp - 48], 1378998035
	mov	dword ptr [rbp - 76], eax 
.LBB0_7:                                
	jmp	.LBB0_1
.Lfunc_end0:
	.size	__cxx_global_var_init, .Lfunc_end0-__cxx_global_var_init
	.cfi_endproc

	.text
	.globl	_ZN3DESC2ENSt7__cxx1112basic_stringIcSt11char_traitsIcESaIcEEES5_ 
	.p2align	4, 0x90
	.type	_ZN3DESC2ENSt7__cxx1112basic_stringIcSt11char_traitsIcESaIcEEES5_,@function
_ZN3DESC2ENSt7__cxx1112basic_stringIcSt11char_traitsIcESaIcEEES5_: 
.Lfunc_begin0:
	.cfi_startproc
	.cfi_personality 3, __gxx_personality_v0
	.cfi_lsda 3, .Lexception0

	push	rbp
.Lcfi8:
	.cfi_def_cfa_offset 16
.Lcfi9:
	.cfi_offset rbp, -16
	mov	rbp, rsp
.Lcfi10:
	.cfi_def_cfa_register rbp
	sub	rsp, 240
	mov	qword ptr [rbp - 8], rdi
	mov	rdi, qword ptr [rbp - 8]
	mov	qword ptr [rdi], _ZTV3DES+16
	mov	rax, rdi
	add	rax, 8
	mov	qword ptr [rbp - 96], rdi 
	mov	rdi, rax
	mov	qword ptr [rbp - 104], rsi 
	mov	qword ptr [rbp - 112], rdx 
	mov	qword ptr [rbp - 120], rax 
	call	_ZNSt7__cxx1112basic_stringIcSt11char_traitsIcESaIcEEC2Ev
	mov	rax, qword ptr [rbp - 96] 
	add	rax, 40
	mov	rdi, rax
	mov	qword ptr [rbp - 128], rax 
	call	_ZNSt7__cxx1112basic_stringIcSt11char_traitsIcESaIcEEC2Ev
	mov	rax, qword ptr [rbp - 96] 
	add	rax, 72
	mov	rdi, rax
	mov	qword ptr [rbp - 136], rax 
	call	_ZNSt7__cxx1112basic_stringIcSt11char_traitsIcESaIcEEC2Ev
	mov	rax, qword ptr [rbp - 96] 
	add	rax, 104
	mov	rdi, rax
	mov	qword ptr [rbp - 144], rax 
	call	_ZNSt7__cxx1112basic_stringIcSt11char_traitsIcESaIcEEC2Ev
	mov	rax, qword ptr [rbp - 96] 
	add	rax, 136
	mov	rdi, rax
	mov	qword ptr [rbp - 152], rax 
	call	_ZNSt7__cxx1112basic_stringIcSt11char_traitsIcESaIcEEC2Ev
	mov	rax, qword ptr [rbp - 96] 
	add	rax, 168
	mov	rdi, rax
	mov	qword ptr [rbp - 160], rax 
	call	_ZNSt7__cxx1112basic_stringIcSt11char_traitsIcESaIcEEC2Ev
	mov	rax, qword ptr [rbp - 96] 
	add	rax, 200
	mov	rdi, rax
	mov	qword ptr [rbp - 168], rax 
	call	_ZNSt7__cxx1112basic_stringIcSt11char_traitsIcESaIcEEC2Ev
	mov	rax, qword ptr [rbp - 96] 
	add	rax, 232
	mov	rdi, rax
	mov	qword ptr [rbp - 176], rax 
	call	_ZNSt7__cxx1112basic_stringIcSt11char_traitsIcESaIcEEC2Ev
	mov	rax, qword ptr [rbp - 96] 
	add	rax, 264
	mov	rdi, rax
	mov	qword ptr [rbp - 184], rax 
	call	_ZNSt7__cxx1112basic_stringIcSt11char_traitsIcESaIcEEC2Ev
	mov	rax, qword ptr [rbp - 96] 
	add	rax, 296
	mov	rdi, rax
	mov	qword ptr [rbp - 192], rax 
	call	_ZNSt7__cxx1112basic_stringIcSt11char_traitsIcESaIcEEC2Ev
	mov	rax, qword ptr [rbp - 96] 
	add	rax, 328
	mov	rdi, rax
	mov	qword ptr [rbp - 200], rax 
	call	_ZNSt7__cxx1112basic_stringIcSt11char_traitsIcESaIcEEC2Ev
	mov	rax, qword ptr [rbp - 96] 
	add	rax, 360
	mov	rdi, rax
	mov	qword ptr [rbp - 208], rax 
	call	_ZNSt7__cxx1112basic_stringIcSt11char_traitsIcESaIcEEC2Ev
	mov	rax, qword ptr [rbp - 96] 
	add	rax, 392
	mov	rdi, rax
	mov	qword ptr [rbp - 216], rax 
	call	_ZNSt7__cxx1112basic_stringIcSt11char_traitsIcESaIcEEC2Ev
	mov	rax, qword ptr [rbp - 96] 
	add	rax, 424
	mov	rdi, rax
	mov	qword ptr [rbp - 224], rax 
	call	_ZNSt7__cxx1112basic_stringIcSt11char_traitsIcESaIcEEC2Ev
.Ltmp0:
	lea	rdi, [rbp - 40]
	mov	rsi, qword ptr [rbp - 104] 
	call	_ZN3DES7hex2binERKNSt7__cxx1112basic_stringIcSt11char_traitsIcESaIcEEE
.Ltmp1:
	jmp	.LBB1_1
.LBB1_1:
	mov	rax, qword ptr [rbp - 96] 
	add	rax, 8
.Ltmp2:
	lea	rsi, [rbp - 40]
	mov	rdi, rax
	call	_ZNSt7__cxx1112basic_stringIcSt11char_traitsIcESaIcEEaSERKS4_
.Ltmp3:
	mov	qword ptr [rbp - 232], rax 
	jmp	.LBB1_2
.LBB1_2:
	lea	rdi, [rbp - 40]
	call	_ZNSt7__cxx1112basic_stringIcSt11char_traitsIcESaIcEED2Ev
.Ltmp5:
	lea	rdi, [rbp - 88]
	mov	rsi, qword ptr [rbp - 112] 
	call	_ZN3DES7hex2binERKNSt7__cxx1112basic_stringIcSt11char_traitsIcESaIcEEE
.Ltmp6:
	jmp	.LBB1_3
.LBB1_3:
	mov	rax, qword ptr [rbp - 96] 
	add	rax, 200
.Ltmp8:
	lea	rsi, [rbp - 88]
	mov	rdi, rax
	call	_ZNSt7__cxx1112basic_stringIcSt11char_traitsIcESaIcEEaSERKS4_
.Ltmp9:
	mov	qword ptr [rbp - 240], rax 
	jmp	.LBB1_4
.LBB1_4:
	lea	rdi, [rbp - 88]
	call	_ZNSt7__cxx1112basic_stringIcSt11char_traitsIcESaIcEED2Ev
	add	rsp, 240
	pop	rbp
	ret
.LBB1_5:
.Ltmp7:
	mov	ecx, edx
	mov	qword ptr [rbp - 48], rax
	mov	dword ptr [rbp - 52], ecx
	jmp	.LBB1_8
.LBB1_6:
.Ltmp4:
	lea	rdi, [rbp - 40]
	mov	ecx, edx
	mov	qword ptr [rbp - 48], rax
	mov	dword ptr [rbp - 52], ecx
	call	_ZNSt7__cxx1112basic_stringIcSt11char_traitsIcESaIcEED2Ev
	jmp	.LBB1_8
.LBB1_7:
.Ltmp10:
	lea	rdi, [rbp - 88]
	mov	ecx, edx
	mov	qword ptr [rbp - 48], rax
	mov	dword ptr [rbp - 52], ecx
	call	_ZNSt7__cxx1112basic_stringIcSt11char_traitsIcESaIcEED2Ev
.LBB1_8:
	mov	rdi, qword ptr [rbp - 224] 
	call	_ZNSt7__cxx1112basic_stringIcSt11char_traitsIcESaIcEED2Ev
	mov	rdi, qword ptr [rbp - 216] 
	call	_ZNSt7__cxx1112basic_stringIcSt11char_traitsIcESaIcEED2Ev
	mov	rdi, qword ptr [rbp - 208] 
	call	_ZNSt7__cxx1112basic_stringIcSt11char_traitsIcESaIcEED2Ev
	mov	rdi, qword ptr [rbp - 200] 
	call	_ZNSt7__cxx1112basic_stringIcSt11char_traitsIcESaIcEED2Ev
	mov	rdi, qword ptr [rbp - 192] 
	call	_ZNSt7__cxx1112basic_stringIcSt11char_traitsIcESaIcEED2Ev
	mov	rdi, qword ptr [rbp - 184] 
	call	_ZNSt7__cxx1112basic_stringIcSt11char_traitsIcESaIcEED2Ev
	mov	rdi, qword ptr [rbp - 176] 
	call	_ZNSt7__cxx1112basic_stringIcSt11char_traitsIcESaIcEED2Ev
	mov	rdi, qword ptr [rbp - 168] 
	call	_ZNSt7__cxx1112basic_stringIcSt11char_traitsIcESaIcEED2Ev
	mov	rdi, qword ptr [rbp - 160] 
	call	_ZNSt7__cxx1112basic_stringIcSt11char_traitsIcESaIcEED2Ev
	mov	rdi, qword ptr [rbp - 152] 
	call	_ZNSt7__cxx1112basic_stringIcSt11char_traitsIcESaIcEED2Ev
	mov	rdi, qword ptr [rbp - 144] 
	call	_ZNSt7__cxx1112basic_stringIcSt11char_traitsIcESaIcEED2Ev
	mov	rdi, qword ptr [rbp - 136] 
	call	_ZNSt7__cxx1112basic_stringIcSt11char_traitsIcESaIcEED2Ev
	mov	rdi, qword ptr [rbp - 128] 
	call	_ZNSt7__cxx1112basic_stringIcSt11char_traitsIcESaIcEED2Ev
	mov	rdi, qword ptr [rbp - 120] 
	call	_ZNSt7__cxx1112basic_stringIcSt11char_traitsIcESaIcEED2Ev

	mov	rdi, qword ptr [rbp - 48]
	call	_Unwind_Resume
.Lfunc_end1:
	.size	_ZN3DESC2ENSt7__cxx1112basic_stringIcSt11char_traitsIcESaIcEEES5_, .Lfunc_end1-_ZN3DESC2ENSt7__cxx1112basic_stringIcSt11char_traitsIcESaIcEEES5_
	.cfi_endproc
	.section	.gcc_except_table,"a",@progbits
	.p2align	2
GCC_except_table1:
.Lexception0:
	.byte	255                     
	.byte	3                       
	.asciz	"\303\200"              
	.byte	3                       
	.byte	65                      
	.long	.Ltmp0-.Lfunc_begin0    
	.long	.Ltmp1-.Ltmp0           
	.long	.Ltmp7-.Lfunc_begin0    
	.byte	0                       
	.long	.Ltmp2-.Lfunc_begin0    
	.long	.Ltmp3-.Ltmp2           
	.long	.Ltmp4-.Lfunc_begin0    
	.byte	0                       
	.long	.Ltmp5-.Lfunc_begin0    
	.long	.Ltmp6-.Ltmp5           
	.long	.Ltmp7-.Lfunc_begin0    
	.byte	0                       
	.long	.Ltmp8-.Lfunc_begin0    
	.long	.Ltmp9-.Ltmp8           
	.long	.Ltmp10-.Lfunc_begin0   
	.byte	0                       
	.long	.Ltmp9-.Lfunc_begin0    
	.long	.Lfunc_end1-.Ltmp9      
	.long	0                       
	.byte	0                       
	.p2align	2

	.section	.text._ZNSt7__cxx1112basic_stringIcSt11char_traitsIcESaIcEEC2Ev,"axG",@progbits,_ZNSt7__cxx1112basic_stringIcSt11char_traitsIcESaIcEEC2Ev,comdat
	.weak	_ZNSt7__cxx1112basic_stringIcSt11char_traitsIcESaIcEEC2Ev 
	.p2align	4, 0x90
	.type	_ZNSt7__cxx1112basic_stringIcSt11char_traitsIcESaIcEEC2Ev,@function
_ZNSt7__cxx1112basic_stringIcSt11char_traitsIcESaIcEEC2Ev: 
.Lfunc_begin1:
	.cfi_startproc
	.cfi_personality 3, __gxx_personality_v0
	.cfi_lsda 3, .Lexception1

	push	rbp
	mov	rbp, rsp
	sub	rsp, 80
	mov	qword ptr [rbp - 8], rdi
	mov	rdi, qword ptr [rbp - 8]
	mov	rax, rdi
.Ltmp11:
	mov	qword ptr [rbp - 40], rdi 
	mov	qword ptr [rbp - 48], rax 
	call	_ZNSt7__cxx1112basic_stringIcSt11char_traitsIcESaIcEE13_M_local_dataEv
.Ltmp12:
	mov	qword ptr [rbp - 56], rax 
	jmp	.LBB2_1
.LBB2_1:
	lea	rax, [rbp - 16]
	mov	rdi, rax
	mov	qword ptr [rbp - 64], rax 
	call	_ZNSaIcEC1Ev
.Ltmp14:
	mov	rdi, qword ptr [rbp - 40] 
	mov	rsi, qword ptr [rbp - 56] 
	mov	rdx, qword ptr [rbp - 64] 
	call	_ZNSt7__cxx1112basic_stringIcSt11char_traitsIcESaIcEE12_Alloc_hiderC2EPcOS3_
.Ltmp15:
	jmp	.LBB2_2
.LBB2_2:
	lea	rdi, [rbp - 16]
	call	_ZNSaIcED1Ev
.Ltmp17:
	xor	eax, eax
	mov	esi, eax
	mov	rdi, qword ptr [rbp - 48] 
	call	_ZNSt7__cxx1112basic_stringIcSt11char_traitsIcESaIcEE13_M_set_lengthEm
.Ltmp18:
	jmp	.LBB2_3
.LBB2_3:
	add	rsp, 80
	pop	rbp
	ret
.LBB2_4:
.Ltmp16:
	lea	rdi, [rbp - 16]
	mov	ecx, edx
	mov	qword ptr [rbp - 24], rax
	mov	dword ptr [rbp - 28], ecx
	call	_ZNSaIcED1Ev
	jmp	.LBB2_7
.LBB2_5:
.Ltmp19:
	mov	ecx, edx
	mov	qword ptr [rbp - 24], rax
	mov	dword ptr [rbp - 28], ecx
	mov	rdi, qword ptr [rbp - 40] 
	call	_ZNSt7__cxx1112basic_stringIcSt11char_traitsIcESaIcEE12_Alloc_hiderD2Ev
	jmp	.LBB2_7
.LBB2_6:
.Ltmp13:
	mov	ecx, edx
	mov	rdi, rax
	mov	dword ptr [rbp - 68], ecx 
	call	__clang_call_terminate
.LBB2_7:
	mov	rdi, qword ptr [rbp - 24]
	call	__clang_call_terminate
.Lfunc_end2:
	.size	_ZNSt7__cxx1112basic_stringIcSt11char_traitsIcESaIcEEC2Ev, .Lfunc_end2-_ZNSt7__cxx1112basic_stringIcSt11char_traitsIcESaIcEEC2Ev
	.cfi_endproc
	.section	.gcc_except_table,"a",@progbits
	.p2align	2
GCC_except_table2:
.Lexception1:
	.byte	255                     
	.byte	3                       
	.asciz	"\257\200"              
	.byte	3                       
	.byte	39                      
	.long	.Ltmp11-.Lfunc_begin1   
	.long	.Ltmp12-.Ltmp11         
	.long	.Ltmp13-.Lfunc_begin1   
	.byte	1                       
	.long	.Ltmp14-.Lfunc_begin1   
	.long	.Ltmp15-.Ltmp14         
	.long	.Ltmp16-.Lfunc_begin1   
	.byte	1                       
	.long	.Ltmp17-.Lfunc_begin1   
	.long	.Ltmp18-.Ltmp17         
	.long	.Ltmp19-.Lfunc_begin1   
	.byte	1                       
	.byte	1                       

	.byte	0                       

	.long	0                       
	.p2align	2

	.text
	.globl	_ZN3DES7hex2binERKNSt7__cxx1112basic_stringIcSt11char_traitsIcESaIcEEE 
	.p2align	4, 0x90
	.type	_ZN3DES7hex2binERKNSt7__cxx1112basic_stringIcSt11char_traitsIcESaIcEEE,@function
_ZN3DES7hex2binERKNSt7__cxx1112basic_stringIcSt11char_traitsIcESaIcEEE: 
.Lfunc_begin2:
	.cfi_startproc
	.cfi_personality 3, __gxx_personality_v0
	.cfi_lsda 3, .Lexception2

	push	rbp
.Lcfi11:
	.cfi_def_cfa_offset 16
.Lcfi12:
	.cfi_offset rbp, -16
	mov	rbp, rsp
.Lcfi13:
	.cfi_def_cfa_register rbp
	sub	rsp, 224
	mov	rax, rdi
	mov	qword ptr [rbp - 8], rsi
	mov	byte ptr [rbp - 9], 0
	mov	qword ptr [rbp - 56], rdi 
	mov	qword ptr [rbp - 64], rax 
	call	_ZNSt7__cxx1112basic_stringIcSt11char_traitsIcESaIcEEC2Ev
	mov	rdi, qword ptr [rbp - 8]
	call	_ZNKSt7__cxx1112basic_stringIcSt11char_traitsIcESaIcEE5beginEv
	mov	qword ptr [rbp - 24], rax
.LBB3_1:                                
	mov	rdi, qword ptr [rbp - 8]
	call	_ZNKSt7__cxx1112basic_stringIcSt11char_traitsIcESaIcEE3endEv
	lea	rdi, [rbp - 24]
	lea	rsi, [rbp - 32]
	mov	qword ptr [rbp - 32], rax
	call	_ZN9__gnu_cxxltIPKcNSt7__cxx1112basic_stringIcSt11char_traitsIcESaIcEEEEEbRKNS_17__normal_iteratorIT_T0_EESE_
	test	al, 1
	jne	.LBB3_2
	jmp	.LBB3_60
.LBB3_2:                                
	lea	rdi, [rbp - 24]
	call	_ZNK9__gnu_cxx17__normal_iteratorIPKcNSt7__cxx1112basic_stringIcSt11char_traitsIcESaIcEEEEdeEv
	movsx	ecx, byte ptr [rax]
	mov	dword ptr [rbp - 68], ecx 

	mov	eax, dword ptr [rbp - 68] 
	cmp	eax, 56
	jl	.LBB3_13

	mov	eax, dword ptr [rbp - 68] 
	cmp	eax, 67
	jl	.LBB3_9

	mov	eax, dword ptr [rbp - 68] 
	cmp	eax, 69
	jl	.LBB3_8

	mov	eax, dword ptr [rbp - 68] 
	cmp	eax, 70
	jl	.LBB3_50

	mov	eax, dword ptr [rbp - 68] 
	cmp	eax, 70
	je	.LBB3_52
	jmp	.LBB3_54
.LBB3_8:                                
	mov	eax, dword ptr [rbp - 68] 
	cmp	eax, 68
	jl	.LBB3_46
	jmp	.LBB3_48
.LBB3_9:                                
	mov	eax, dword ptr [rbp - 68] 
	cmp	eax, 65
	jl	.LBB3_11

	mov	eax, dword ptr [rbp - 68] 
	cmp	eax, 66
	jl	.LBB3_42
	jmp	.LBB3_44
.LBB3_11:                               
	mov	eax, dword ptr [rbp - 68] 
	cmp	eax, 57
	jl	.LBB3_38

	mov	eax, dword ptr [rbp - 68] 
	cmp	eax, 57
	je	.LBB3_40
	jmp	.LBB3_54
.LBB3_13:                               
	mov	eax, dword ptr [rbp - 68] 
	cmp	eax, 52
	jl	.LBB3_17

	mov	eax, dword ptr [rbp - 68] 
	cmp	eax, 54
	jl	.LBB3_16

	mov	eax, dword ptr [rbp - 68] 
	cmp	eax, 55
	jl	.LBB3_34
	jmp	.LBB3_36
.LBB3_16:                               
	mov	eax, dword ptr [rbp - 68] 
	cmp	eax, 53
	jl	.LBB3_30
	jmp	.LBB3_32
.LBB3_17:                               
	mov	eax, dword ptr [rbp - 68] 
	cmp	eax, 50
	jl	.LBB3_19

	mov	eax, dword ptr [rbp - 68] 
	cmp	eax, 51
	jl	.LBB3_26
	jmp	.LBB3_28
.LBB3_19:                               
	mov	eax, dword ptr [rbp - 68] 
	cmp	eax, 49
	jge	.LBB3_24

	mov	eax, dword ptr [rbp - 68] 
	cmp	eax, 48
	jne	.LBB3_54

.Ltmp54:
	mov	eax, .L.str.21
	mov	esi, eax
	mov	rdi, qword ptr [rbp - 56] 
	call	_ZNSt7__cxx1112basic_stringIcSt11char_traitsIcESaIcEE6appendEPKc
.Ltmp55:
	mov	qword ptr [rbp - 80], rax 
	jmp	.LBB3_22
.LBB3_22:                               
	jmp	.LBB3_58
.LBB3_23:
.Ltmp56:
	mov	ecx, edx
	mov	qword ptr [rbp - 40], rax
	mov	dword ptr [rbp - 44], ecx
	mov	rdi, qword ptr [rbp - 56] 
	call	_ZNSt7__cxx1112basic_stringIcSt11char_traitsIcESaIcEED2Ev
	jmp	.LBB3_63
.LBB3_24:                               
.Ltmp48:
	mov	eax, .L.str.22
	mov	esi, eax
	mov	rdi, qword ptr [rbp - 56] 
	call	_ZNSt7__cxx1112basic_stringIcSt11char_traitsIcESaIcEE6appendEPKc
.Ltmp49:
	mov	qword ptr [rbp - 88], rax 
	jmp	.LBB3_25
.LBB3_25:                               
	jmp	.LBB3_58
.LBB3_26:                               
.Ltmp46:
	mov	eax, .L.str.23
	mov	esi, eax
	mov	rdi, qword ptr [rbp - 56] 
	call	_ZNSt7__cxx1112basic_stringIcSt11char_traitsIcESaIcEE6appendEPKc
.Ltmp47:
	mov	qword ptr [rbp - 96], rax 
	jmp	.LBB3_27
.LBB3_27:                               
	jmp	.LBB3_58
.LBB3_28:                               
.Ltmp44:
	mov	eax, .L.str.24
	mov	esi, eax
	mov	rdi, qword ptr [rbp - 56] 
	call	_ZNSt7__cxx1112basic_stringIcSt11char_traitsIcESaIcEE6appendEPKc
.Ltmp45:
	mov	qword ptr [rbp - 104], rax 
	jmp	.LBB3_29
.LBB3_29:                               
	jmp	.LBB3_58
.LBB3_30:                               
.Ltmp42:
	mov	eax, .L.str.25
	mov	esi, eax
	mov	rdi, qword ptr [rbp - 56] 
	call	_ZNSt7__cxx1112basic_stringIcSt11char_traitsIcESaIcEE6appendEPKc
.Ltmp43:
	mov	qword ptr [rbp - 112], rax 
	jmp	.LBB3_31
.LBB3_31:                               
	jmp	.LBB3_58
.LBB3_32:                               
.Ltmp40:
	mov	eax, .L.str.26
	mov	esi, eax
	mov	rdi, qword ptr [rbp - 56] 
	call	_ZNSt7__cxx1112basic_stringIcSt11char_traitsIcESaIcEE6appendEPKc
.Ltmp41:
	mov	qword ptr [rbp - 120], rax 
	jmp	.LBB3_33
.LBB3_33:                               
	jmp	.LBB3_58
.LBB3_34:                               
.Ltmp38:
	mov	eax, .L.str.27
	mov	esi, eax
	mov	rdi, qword ptr [rbp - 56] 
	call	_ZNSt7__cxx1112basic_stringIcSt11char_traitsIcESaIcEE6appendEPKc
.Ltmp39:
	mov	qword ptr [rbp - 128], rax 
	jmp	.LBB3_35
.LBB3_35:                               
	jmp	.LBB3_58
.LBB3_36:                               
.Ltmp36:
	mov	eax, .L.str.28
	mov	esi, eax
	mov	rdi, qword ptr [rbp - 56] 
	call	_ZNSt7__cxx1112basic_stringIcSt11char_traitsIcESaIcEE6appendEPKc
.Ltmp37:
	mov	qword ptr [rbp - 136], rax 
	jmp	.LBB3_37
.LBB3_37:                               
	jmp	.LBB3_58
.LBB3_38:                               
.Ltmp34:
	mov	eax, .L.str.29
	mov	esi, eax
	mov	rdi, qword ptr [rbp - 56] 
	call	_ZNSt7__cxx1112basic_stringIcSt11char_traitsIcESaIcEE6appendEPKc
.Ltmp35:
	mov	qword ptr [rbp - 144], rax 
	jmp	.LBB3_39
.LBB3_39:                               
	jmp	.LBB3_58
.LBB3_40:                               
.Ltmp32:
	mov	eax, .L.str.30
	mov	esi, eax
	mov	rdi, qword ptr [rbp - 56] 
	call	_ZNSt7__cxx1112basic_stringIcSt11char_traitsIcESaIcEE6appendEPKc
.Ltmp33:
	mov	qword ptr [rbp - 152], rax 
	jmp	.LBB3_41
.LBB3_41:                               
	jmp	.LBB3_58
.LBB3_42:                               
.Ltmp30:
	mov	eax, .L.str.31
	mov	esi, eax
	mov	rdi, qword ptr [rbp - 56] 
	call	_ZNSt7__cxx1112basic_stringIcSt11char_traitsIcESaIcEE6appendEPKc
.Ltmp31:
	mov	qword ptr [rbp - 160], rax 
	jmp	.LBB3_43
.LBB3_43:                               
	jmp	.LBB3_58
.LBB3_44:                               
.Ltmp28:
	mov	eax, .L.str.32
	mov	esi, eax
	mov	rdi, qword ptr [rbp - 56] 
	call	_ZNSt7__cxx1112basic_stringIcSt11char_traitsIcESaIcEE6appendEPKc
.Ltmp29:
	mov	qword ptr [rbp - 168], rax 
	jmp	.LBB3_45
.LBB3_45:                               
	jmp	.LBB3_58
.LBB3_46:                               
.Ltmp26:
	mov	eax, .L.str.33
	mov	esi, eax
	mov	rdi, qword ptr [rbp - 56] 
	call	_ZNSt7__cxx1112basic_stringIcSt11char_traitsIcESaIcEE6appendEPKc
.Ltmp27:
	mov	qword ptr [rbp - 176], rax 
	jmp	.LBB3_47
.LBB3_47:                               
	jmp	.LBB3_58
.LBB3_48:                               
.Ltmp24:
	mov	eax, .L.str.34
	mov	esi, eax
	mov	rdi, qword ptr [rbp - 56] 
	call	_ZNSt7__cxx1112basic_stringIcSt11char_traitsIcESaIcEE6appendEPKc
.Ltmp25:
	mov	qword ptr [rbp - 184], rax 
	jmp	.LBB3_49
.LBB3_49:                               
	jmp	.LBB3_58
.LBB3_50:                               
.Ltmp22:
	mov	eax, .L.str.35
	mov	esi, eax
	mov	rdi, qword ptr [rbp - 56] 
	call	_ZNSt7__cxx1112basic_stringIcSt11char_traitsIcESaIcEE6appendEPKc
.Ltmp23:
	mov	qword ptr [rbp - 192], rax 
	jmp	.LBB3_51
.LBB3_51:                               
	jmp	.LBB3_58
.LBB3_52:                               
.Ltmp20:
	mov	eax, .L.str.36
	mov	esi, eax
	mov	rdi, qword ptr [rbp - 56] 
	call	_ZNSt7__cxx1112basic_stringIcSt11char_traitsIcESaIcEE6appendEPKc
.Ltmp21:
	mov	qword ptr [rbp - 200], rax 
	jmp	.LBB3_53
.LBB3_53:                               
	jmp	.LBB3_58
.LBB3_54:                               
	jmp	.LBB3_55
.LBB3_55:                               
.Ltmp50:
	mov	eax, _ZSt4cout
	mov	edi, eax
	mov	eax, .L.str.37
	mov	esi, eax
	call	_ZStlsISt11char_traitsIcEERSt13basic_ostreamIcT_ES5_PKc
.Ltmp51:
	mov	qword ptr [rbp - 208], rax 
	jmp	.LBB3_56
.LBB3_56:                               
.Ltmp52:
	mov	eax, _ZSt4endlIcSt11char_traitsIcEERSt13basic_ostreamIT_T0_ES6_
	mov	esi, eax
	mov	rdi, qword ptr [rbp - 208] 
	call	_ZNSolsEPFRSoS_E
.Ltmp53:
	mov	qword ptr [rbp - 216], rax 
	jmp	.LBB3_57
.LBB3_57:                               
	jmp	.LBB3_58
.LBB3_58:                               
	jmp	.LBB3_59
.LBB3_59:                               
	lea	rdi, [rbp - 24]
	call	_ZN9__gnu_cxx17__normal_iteratorIPKcNSt7__cxx1112basic_stringIcSt11char_traitsIcESaIcEEEEppEv
	mov	qword ptr [rbp - 224], rax 
	jmp	.LBB3_1
.LBB3_60:
	mov	byte ptr [rbp - 9], 1
	test	byte ptr [rbp - 9], 1
	jne	.LBB3_62

	mov	rdi, qword ptr [rbp - 56] 
	call	_ZNSt7__cxx1112basic_stringIcSt11char_traitsIcESaIcEED2Ev
.LBB3_62:
	mov	rax, qword ptr [rbp - 64] 
	add	rsp, 224
	pop	rbp
	ret
.LBB3_63:
	mov	rdi, qword ptr [rbp - 40]
	call	_Unwind_Resume
.Lfunc_end3:
	.size	_ZN3DES7hex2binERKNSt7__cxx1112basic_stringIcSt11char_traitsIcESaIcEEE, .Lfunc_end3-_ZN3DES7hex2binERKNSt7__cxx1112basic_stringIcSt11char_traitsIcESaIcEEE
	.cfi_endproc
	.section	.gcc_except_table,"a",@progbits
	.p2align	2
GCC_except_table3:
.Lexception2:
	.byte	255                     
	.byte	3                       
	.asciz	"\234"                  
	.byte	3                       
	.byte	26                      
	.long	.Ltmp54-.Lfunc_begin2   
	.long	.Ltmp53-.Ltmp54         
	.long	.Ltmp56-.Lfunc_begin2   
	.byte	0                       
	.long	.Ltmp53-.Lfunc_begin2   
	.long	.Lfunc_end3-.Ltmp53     
	.long	0                       
	.byte	0                       
	.p2align	2

	.section	.text._ZNSt7__cxx1112basic_stringIcSt11char_traitsIcESaIcEEaSERKS4_,"axG",@progbits,_ZNSt7__cxx1112basic_stringIcSt11char_traitsIcESaIcEEaSERKS4_,comdat
	.weak	_ZNSt7__cxx1112basic_stringIcSt11char_traitsIcESaIcEEaSERKS4_ 
	.p2align	4, 0x90
	.type	_ZNSt7__cxx1112basic_stringIcSt11char_traitsIcESaIcEEaSERKS4_,@function
_ZNSt7__cxx1112basic_stringIcSt11char_traitsIcESaIcEEaSERKS4_: 
	.cfi_startproc

	push	rbp
.Lcfi14:
	.cfi_def_cfa_offset 16
.Lcfi15:
	.cfi_offset rbp, -16
	mov	rbp, rsp
.Lcfi16:
	.cfi_def_cfa_register rbp
	sub	rsp, 16
	mov	qword ptr [rbp - 8], rdi
	mov	qword ptr [rbp - 16], rsi
	mov	rdi, qword ptr [rbp - 8]
	mov	rsi, qword ptr [rbp - 16]
	call	_ZNSt7__cxx1112basic_stringIcSt11char_traitsIcESaIcEE6assignERKS4_
	add	rsp, 16
	pop	rbp
	ret
.Lfunc_end4:
	.size	_ZNSt7__cxx1112basic_stringIcSt11char_traitsIcESaIcEEaSERKS4_, .Lfunc_end4-_ZNSt7__cxx1112basic_stringIcSt11char_traitsIcESaIcEEaSERKS4_
	.cfi_endproc

	.section	.text._ZNSt7__cxx1112basic_stringIcSt11char_traitsIcESaIcEED2Ev,"axG",@progbits,_ZNSt7__cxx1112basic_stringIcSt11char_traitsIcESaIcEED2Ev,comdat
	.weak	_ZNSt7__cxx1112basic_stringIcSt11char_traitsIcESaIcEED2Ev 
	.p2align	4, 0x90
	.type	_ZNSt7__cxx1112basic_stringIcSt11char_traitsIcESaIcEED2Ev,@function
_ZNSt7__cxx1112basic_stringIcSt11char_traitsIcESaIcEED2Ev: 
.Lfunc_begin3:
	.cfi_startproc
	.cfi_personality 3, __gxx_personality_v0
	.cfi_lsda 3, .Lexception3

	push	rbp
	mov	rbp, rsp
	sub	rsp, 32
	mov	qword ptr [rbp - 8], rdi
	mov	rdi, qword ptr [rbp - 8]
.Ltmp57:
	mov	qword ptr [rbp - 32], rdi 
	call	_ZNSt7__cxx1112basic_stringIcSt11char_traitsIcESaIcEE10_M_disposeEv
.Ltmp58:
	jmp	.LBB5_1
.LBB5_1:
	mov	rdi, qword ptr [rbp - 32] 
	call	_ZNSt7__cxx1112basic_stringIcSt11char_traitsIcESaIcEE12_Alloc_hiderD2Ev
	add	rsp, 32
	pop	rbp
	ret
.LBB5_2:
.Ltmp59:
	mov	ecx, edx
	mov	qword ptr [rbp - 16], rax
	mov	dword ptr [rbp - 20], ecx
	mov	rdi, qword ptr [rbp - 32] 
	call	_ZNSt7__cxx1112basic_stringIcSt11char_traitsIcESaIcEE12_Alloc_hiderD2Ev

	mov	rdi, qword ptr [rbp - 16]
	call	__cxa_call_unexpected
.Lfunc_end5:
	.size	_ZNSt7__cxx1112basic_stringIcSt11char_traitsIcESaIcEED2Ev, .Lfunc_end5-_ZNSt7__cxx1112basic_stringIcSt11char_traitsIcESaIcEED2Ev
	.cfi_endproc
	.section	.gcc_except_table,"a",@progbits
	.p2align	2
GCC_except_table5:
.Lexception3:
	.byte	255                     
	.byte	3                       
	.asciz	"\240"                  
	.byte	3                       
	.byte	26                      
	.long	.Ltmp57-.Lfunc_begin3   
	.long	.Ltmp58-.Ltmp57         
	.long	.Ltmp59-.Lfunc_begin3   
	.byte	3                       
	.long	.Ltmp58-.Lfunc_begin3   
	.long	.Lfunc_end5-.Ltmp58     
	.long	0                       
	.byte	0                       
	.byte	0                       

	.byte	0                       
	.byte	127                     

	.byte	125                     

	.byte	0
	.p2align	2

	.text
	.globl	_ZN3DESD2Ev             
	.p2align	4, 0x90
	.type	_ZN3DESD2Ev,@function
_ZN3DESD2Ev:                            

	push	rbp
	mov	rbp, rsp
	sub	rsp, 16
	movabs	rax, _ZTV3DES
	add	rax, 16
	mov	qword ptr [rbp - 8], rdi
	mov	rdi, qword ptr [rbp - 8]
	mov	qword ptr [rdi], rax
	mov	rax, rdi
	add	rax, 424
	mov	qword ptr [rbp - 16], rdi 
	mov	rdi, rax
	call	_ZNSt7__cxx1112basic_stringIcSt11char_traitsIcESaIcEED2Ev
	mov	rax, qword ptr [rbp - 16] 
	add	rax, 392
	mov	rdi, rax
	call	_ZNSt7__cxx1112basic_stringIcSt11char_traitsIcESaIcEED2Ev
	mov	rax, qword ptr [rbp - 16] 
	add	rax, 360
	mov	rdi, rax
	call	_ZNSt7__cxx1112basic_stringIcSt11char_traitsIcESaIcEED2Ev
	mov	rax, qword ptr [rbp - 16] 
	add	rax, 328
	mov	rdi, rax
	call	_ZNSt7__cxx1112basic_stringIcSt11char_traitsIcESaIcEED2Ev
	mov	rax, qword ptr [rbp - 16] 
	add	rax, 296
	mov	rdi, rax
	call	_ZNSt7__cxx1112basic_stringIcSt11char_traitsIcESaIcEED2Ev
	mov	rax, qword ptr [rbp - 16] 
	add	rax, 264
	mov	rdi, rax
	call	_ZNSt7__cxx1112basic_stringIcSt11char_traitsIcESaIcEED2Ev
	mov	rax, qword ptr [rbp - 16] 
	add	rax, 232
	mov	rdi, rax
	call	_ZNSt7__cxx1112basic_stringIcSt11char_traitsIcESaIcEED2Ev
	mov	rax, qword ptr [rbp - 16] 
	add	rax, 200
	mov	rdi, rax
	call	_ZNSt7__cxx1112basic_stringIcSt11char_traitsIcESaIcEED2Ev
	mov	rax, qword ptr [rbp - 16] 
	add	rax, 168
	mov	rdi, rax
	call	_ZNSt7__cxx1112basic_stringIcSt11char_traitsIcESaIcEED2Ev
	mov	rax, qword ptr [rbp - 16] 
	add	rax, 136
	mov	rdi, rax
	call	_ZNSt7__cxx1112basic_stringIcSt11char_traitsIcESaIcEED2Ev
	mov	rax, qword ptr [rbp - 16] 
	add	rax, 104
	mov	rdi, rax
	call	_ZNSt7__cxx1112basic_stringIcSt11char_traitsIcESaIcEED2Ev
	mov	rax, qword ptr [rbp - 16] 
	add	rax, 72
	mov	rdi, rax
	call	_ZNSt7__cxx1112basic_stringIcSt11char_traitsIcESaIcEED2Ev
	mov	rax, qword ptr [rbp - 16] 
	add	rax, 40
	mov	rdi, rax
	call	_ZNSt7__cxx1112basic_stringIcSt11char_traitsIcESaIcEED2Ev
	mov	rax, qword ptr [rbp - 16] 
	add	rax, 8
	mov	rdi, rax
	call	_ZNSt7__cxx1112basic_stringIcSt11char_traitsIcESaIcEED2Ev
	add	rsp, 16
	pop	rbp
	ret
.Lfunc_end6:
	.size	_ZN3DESD2Ev, .Lfunc_end6-_ZN3DESD2Ev

	.globl	_ZN3DESD0Ev             
	.p2align	4, 0x90
	.type	_ZN3DESD0Ev,@function
_ZN3DESD0Ev:                            

	push	rbp
	mov	rbp, rsp
	push	r14
	push	rbx
	sub	rsp, 64
	mov	eax, dword ptr [x.58]
	mov	ecx, dword ptr [y.59]
	mov	edx, eax
	sub	edx, -772898218
	sub	edx, 1
	add	edx, -772898218
	imul	eax, edx
	and	eax, 1
	cmp	eax, 0
	sete	sil
	and	sil, 1
	mov	byte ptr [rbp - 18], sil
	cmp	ecx, 10
	setl	sil
	and	sil, 1
	mov	byte ptr [rbp - 17], sil
	mov	dword ptr [rbp - 24], 671777404
	mov	qword ptr [rbp - 32], rdi 
.LBB7_1:                                
	mov	eax, dword ptr [rbp - 24]
	mov	ecx, eax
	sub	ecx, -2019282262
	mov	dword ptr [rbp - 36], eax 
	mov	dword ptr [rbp - 40], ecx 
	je	.LBB7_6
	jmp	.LBB7_8
.LBB7_8:                                
	mov	eax, dword ptr [rbp - 36] 
	sub	eax, -1642624563
	mov	dword ptr [rbp - 44], eax 
	je	.LBB7_4
	jmp	.LBB7_9
.LBB7_9:                                
	mov	eax, dword ptr [rbp - 36] 
	sub	eax, 671777404
	mov	dword ptr [rbp - 48], eax 
	je	.LBB7_3
	jmp	.LBB7_10
.LBB7_10:                               
	mov	eax, dword ptr [rbp - 36] 
	sub	eax, 1504645379
	mov	dword ptr [rbp - 52], eax 
	je	.LBB7_5
	jmp	.LBB7_2
.LBB7_2:                                
	jmp	.LBB7_7
.LBB7_3:                                
	mov	eax, 2275685034
	mov	ecx, 2652342733
	mov	dl, byte ptr [rbp - 18]
	mov	sil, byte ptr [rbp - 17]
	mov	dil, dl
	and	dil, sil
	xor	dl, sil
	or	dil, dl
	test	dil, 1
	cmovne	eax, ecx
	mov	dword ptr [rbp - 24], eax
	jmp	.LBB7_7
.LBB7_4:                                
	mov	rax, rsp
	add	rax, -16
	mov	rsp, rax
	mov	rcx, qword ptr [rbp - 32] 
	mov	qword ptr [rax], rcx
	mov	rax, qword ptr [rax]
	mov	rdi, rax
	mov	qword ptr [rbp - 64], rax 
	call	_ZN3DESD1Ev
	mov	rax, qword ptr [rbp - 64] 
	mov	rdi, rax
	call	_ZdlPv
	mov	edx, 2275685034
	mov	esi, 1504645379
	mov	r8d, dword ptr [x.58]
	mov	r9d, dword ptr [y.59]
	mov	r10d, r8d
	sub	r10d, -1077283246
	sub	r10d, 1
	add	r10d, -1077283246
	imul	r8d, r10d
	and	r8d, 1
	cmp	r8d, 0
	sete	r11b
	cmp	r9d, 10
	setl	bl
	mov	r14b, r11b
	and	r14b, bl
	xor	r11b, bl
	or	r14b, r11b
	test	r14b, 1
	cmovne	edx, esi
	mov	dword ptr [rbp - 24], edx
	jmp	.LBB7_7
.LBB7_5:
	lea	rsp, [rbp - 16]
	pop	rbx
	pop	r14
	pop	rbp
	ret
.LBB7_6:                                
	mov	rax, rsp
	add	rax, -16
	mov	rsp, rax
	mov	rcx, qword ptr [rbp - 32] 
	mov	qword ptr [rax], rcx
	mov	rax, qword ptr [rax]
	mov	rdi, rax
	mov	qword ptr [rbp - 72], rax 
	call	_ZN3DESD1Ev
	mov	rax, qword ptr [rbp - 72] 
	mov	rdi, rax
	call	_ZdlPv
	mov	dword ptr [rbp - 24], -1642624563
.LBB7_7:                                
	jmp	.LBB7_1
.Lfunc_end7:
	.size	_ZN3DESD0Ev, .Lfunc_end7-_ZN3DESD0Ev

	.globl	_ZN3DES5xor48ERKNSt7__cxx1112basic_stringIcSt11char_traitsIcESaIcEEES7_ 
	.p2align	4, 0x90
	.type	_ZN3DES5xor48ERKNSt7__cxx1112basic_stringIcSt11char_traitsIcESaIcEEES7_,@function
_ZN3DES5xor48ERKNSt7__cxx1112basic_stringIcSt11char_traitsIcESaIcEEES7_: 
	.cfi_startproc

	push	rbp
.Lcfi17:
	.cfi_def_cfa_offset 16
.Lcfi18:
	.cfi_offset rbp, -16
	mov	rbp, rsp
.Lcfi19:
	.cfi_def_cfa_register rbp
	sub	rsp, 112
	lea	rax, [rbp - 32]
	mov	qword ptr [rbp - 8], rdi
	mov	qword ptr [rbp - 16], rsi
	mov	qword ptr [rbp - 24], rdx
	mov	rdx, qword ptr [rbp - 8]
	mov	rdi, rax
	mov	qword ptr [rbp - 96], rdx 
	call	_ZNSt6bitsetILm48EEC2Ev
	lea	rdi, [rbp - 40]
	xor	ecx, ecx
	mov	edx, ecx
	mov	rsi, qword ptr [rbp - 16]
	call	_ZNSt6bitsetILm48EEC2IcSt11char_traitsIcESaIcEEERKNSt7__cxx1112basic_stringIT_T0_T1_EEm
	lea	rdi, [rbp - 48]
	xor	ecx, ecx
	mov	edx, ecx
	mov	rsi, qword ptr [rbp - 24]
	call	_ZNSt6bitsetILm48EEC2IcSt11char_traitsIcESaIcEEERKNSt7__cxx1112basic_stringIT_T0_T1_EEm
	lea	rdi, [rbp - 40]
	lea	rsi, [rbp - 48]
	call	_ZSteoILm48EESt6bitsetIXT_EERKS1_S3_
	lea	rdi, [rbp - 88]
	lea	rsi, [rbp - 32]
	mov	qword ptr [rbp - 56], rax
	mov	rax, qword ptr [rbp - 56]
	mov	qword ptr [rbp - 32], rax
	call	_ZNKSt6bitsetILm48EE9to_stringB5cxx11Ev
	lea	rsi, [rbp - 88]
	mov	rax, qword ptr [rbp - 96] 
	add	rax, 296
	mov	rdi, rax
	call	_ZNSt7__cxx1112basic_stringIcSt11char_traitsIcESaIcEEaSEOS4_
	lea	rdi, [rbp - 88]
	mov	qword ptr [rbp - 104], rax 
	call	_ZNSt7__cxx1112basic_stringIcSt11char_traitsIcESaIcEED2Ev
	add	rsp, 112
	pop	rbp
	ret
.Lfunc_end8:
	.size	_ZN3DES5xor48ERKNSt7__cxx1112basic_stringIcSt11char_traitsIcESaIcEEES7_, .Lfunc_end8-_ZN3DES5xor48ERKNSt7__cxx1112basic_stringIcSt11char_traitsIcESaIcEEES7_
	.cfi_endproc

	.section	.text._ZNSt6bitsetILm48EEC2Ev,"axG",@progbits,_ZNSt6bitsetILm48EEC2Ev,comdat
	.weak	_ZNSt6bitsetILm48EEC2Ev 
	.p2align	4, 0x90
	.type	_ZNSt6bitsetILm48EEC2Ev,@function
_ZNSt6bitsetILm48EEC2Ev:                

	push	rbp
	mov	rbp, rsp
	push	r14
	push	rbx
	sub	rsp, 48
	xor	eax, eax
	mov	ecx, dword ptr [x.62]
	mov	edx, dword ptr [y.63]
	sub	eax, 1
	mov	esi, ecx
	add	esi, eax
	imul	ecx, esi
	and	ecx, 1
	cmp	ecx, 0
	sete	r8b
	and	r8b, 1
	mov	byte ptr [rbp - 18], r8b
	cmp	edx, 10
	setl	r8b
	and	r8b, 1
	mov	byte ptr [rbp - 17], r8b
	mov	dword ptr [rbp - 24], 192776932
	mov	qword ptr [rbp - 32], rdi 
.LBB9_1:                                
	mov	eax, dword ptr [rbp - 24]
	mov	ecx, eax
	sub	ecx, -1517453485
	mov	dword ptr [rbp - 36], eax 
	mov	dword ptr [rbp - 40], ecx 
	je	.LBB9_5
	jmp	.LBB9_8
.LBB9_8:                                
	mov	eax, dword ptr [rbp - 36] 
	sub	eax, -326162555
	mov	dword ptr [rbp - 44], eax 
	je	.LBB9_4
	jmp	.LBB9_9
.LBB9_9:                                
	mov	eax, dword ptr [rbp - 36] 
	sub	eax, 192776932
	mov	dword ptr [rbp - 48], eax 
	je	.LBB9_3
	jmp	.LBB9_10
.LBB9_10:                               
	mov	eax, dword ptr [rbp - 36] 
	sub	eax, 896822820
	mov	dword ptr [rbp - 52], eax 
	je	.LBB9_6
	jmp	.LBB9_2
.LBB9_2:                                
	jmp	.LBB9_7
.LBB9_3:                                
	mov	eax, 896822820
	mov	ecx, 3968804741
	mov	dl, byte ptr [rbp - 18]
	mov	sil, byte ptr [rbp - 17]
	mov	dil, dl
	and	dil, sil
	xor	dl, sil
	or	dil, dl
	test	dil, 1
	cmovne	eax, ecx
	mov	dword ptr [rbp - 24], eax
	jmp	.LBB9_7
.LBB9_4:                                
	mov	rax, rsp
	add	rax, -16
	mov	rsp, rax
	mov	rcx, qword ptr [rbp - 32] 
	mov	qword ptr [rax], rcx
	mov	rax, qword ptr [rax]
	mov	rdi, rax
	call	_ZNSt12_Base_bitsetILm1EEC2Ev
	mov	edx, 896822820
	mov	esi, 2777513811
	mov	r8d, dword ptr [x.62]
	mov	r9d, dword ptr [y.63]
	mov	r10d, r8d
	sub	r10d, -1166253049
	sub	r10d, 1
	add	r10d, -1166253049
	imul	r8d, r10d
	and	r8d, 1
	cmp	r8d, 0
	sete	r11b
	cmp	r9d, 10
	setl	bl
	mov	r14b, r11b
	and	r14b, bl
	xor	r11b, bl
	or	r14b, r11b
	test	r14b, 1
	cmovne	edx, esi
	mov	dword ptr [rbp - 24], edx
	jmp	.LBB9_7
.LBB9_5:
	lea	rsp, [rbp - 16]
	pop	rbx
	pop	r14
	pop	rbp
	ret
.LBB9_6:                                
	mov	rax, rsp
	add	rax, -16
	mov	rsp, rax
	mov	rcx, qword ptr [rbp - 32] 
	mov	qword ptr [rax], rcx
	mov	rax, qword ptr [rax]
	mov	rdi, rax
	call	_ZNSt12_Base_bitsetILm1EEC2Ev
	mov	dword ptr [rbp - 24], -326162555
.LBB9_7:                                
	jmp	.LBB9_1
.Lfunc_end9:
	.size	_ZNSt6bitsetILm48EEC2Ev, .Lfunc_end9-_ZNSt6bitsetILm48EEC2Ev

	.section	.text._ZNSt6bitsetILm48EEC2IcSt11char_traitsIcESaIcEEERKNSt7__cxx1112basic_stringIT_T0_T1_EEm,"axG",@progbits,_ZNSt6bitsetILm48EEC2IcSt11char_traitsIcESaIcEEERKNSt7__cxx1112basic_stringIT_T0_T1_EEm,comdat
	.weak	_ZNSt6bitsetILm48EEC2IcSt11char_traitsIcESaIcEEERKNSt7__cxx1112basic_stringIT_T0_T1_EEm 
	.p2align	4, 0x90
	.type	_ZNSt6bitsetILm48EEC2IcSt11char_traitsIcESaIcEEERKNSt7__cxx1112basic_stringIT_T0_T1_EEm,@function
_ZNSt6bitsetILm48EEC2IcSt11char_traitsIcESaIcEEERKNSt7__cxx1112basic_stringIT_T0_T1_EEm: 
	.cfi_startproc

	push	rbp
.Lcfi20:
	.cfi_def_cfa_offset 16
.Lcfi21:
	.cfi_offset rbp, -16
	mov	rbp, rsp
.Lcfi22:
	.cfi_def_cfa_register rbp
	sub	rsp, 32
	mov	qword ptr [rbp - 8], rdi
	mov	qword ptr [rbp - 16], rsi
	mov	qword ptr [rbp - 24], rdx
	mov	rdx, qword ptr [rbp - 8]
	mov	rsi, rdx
	mov	rdi, rsi
	mov	qword ptr [rbp - 32], rdx 
	call	_ZNSt12_Base_bitsetILm1EEC2Ev
	mov	rsi, qword ptr [rbp - 16]
	mov	rdx, qword ptr [rbp - 24]
	mov	rdi, qword ptr [rbp - 32] 
	call	_ZNKSt6bitsetILm48EE25_M_check_initial_positionIcSt11char_traitsIcESaIcEEEvRKNSt7__cxx1112basic_stringIT_T0_T1_EEm
	mov	rcx, -1
	mov	r8d, 48
	mov	r9d, 49
	mov	rsi, qword ptr [rbp - 16]
	mov	rdx, qword ptr [rbp - 24]
	mov	rdi, qword ptr [rbp - 32] 
	call	_ZNSt6bitsetILm48EE19_M_copy_from_stringIcSt11char_traitsIcESaIcEEEvRKNSt7__cxx1112basic_stringIT_T0_T1_EEmmS7_S7_
	add	rsp, 32
	pop	rbp
	ret
.Lfunc_end10:
	.size	_ZNSt6bitsetILm48EEC2IcSt11char_traitsIcESaIcEEERKNSt7__cxx1112basic_stringIT_T0_T1_EEm, .Lfunc_end10-_ZNSt6bitsetILm48EEC2IcSt11char_traitsIcESaIcEEERKNSt7__cxx1112basic_stringIT_T0_T1_EEm
	.cfi_endproc

	.section	.text._ZSteoILm48EESt6bitsetIXT_EERKS1_S3_,"axG",@progbits,_ZSteoILm48EESt6bitsetIXT_EERKS1_S3_,comdat
	.weak	_ZSteoILm48EESt6bitsetIXT_EERKS1_S3_ 
	.p2align	4, 0x90
	.type	_ZSteoILm48EESt6bitsetIXT_EERKS1_S3_,@function
_ZSteoILm48EESt6bitsetIXT_EERKS1_S3_:   

	push	rbp
	mov	rbp, rsp
	push	r15
	push	r14
	push	r13
	push	r12
	push	rbx
	sub	rsp, 88
	mov	eax, dword ptr [x.66]
	mov	ecx, dword ptr [y.67]
	mov	edx, eax
	add	edx, 2008330953
	sub	edx, 1
	sub	edx, 2008330953
	imul	eax, edx
	and	eax, 1
	cmp	eax, 0
	sete	r8b
	and	r8b, 1
	mov	byte ptr [rbp - 50], r8b
	cmp	ecx, 10
	setl	r8b
	and	r8b, 1
	mov	byte ptr [rbp - 49], r8b
	mov	dword ptr [rbp - 56], 1848763807
	mov	qword ptr [rbp - 64], rdi 
	mov	qword ptr [rbp - 72], rsi 
.LBB11_1:                               
	mov	eax, dword ptr [rbp - 56]
	mov	ecx, eax
	sub	ecx, -1798243767
	mov	dword ptr [rbp - 76], eax 
	mov	dword ptr [rbp - 80], ecx 
	je	.LBB11_4
	jmp	.LBB11_8
.LBB11_8:                               
	mov	eax, dword ptr [rbp - 76] 
	sub	eax, 1030378344
	mov	dword ptr [rbp - 84], eax 
	je	.LBB11_6
	jmp	.LBB11_9
.LBB11_9:                               
	mov	eax, dword ptr [rbp - 76] 
	sub	eax, 1699759903
	mov	dword ptr [rbp - 88], eax 
	je	.LBB11_5
	jmp	.LBB11_10
.LBB11_10:                              
	mov	eax, dword ptr [rbp - 76] 
	sub	eax, 1848763807
	mov	dword ptr [rbp - 92], eax 
	je	.LBB11_3
	jmp	.LBB11_2
.LBB11_2:                               
	jmp	.LBB11_7
.LBB11_3:                               
	mov	eax, 1030378344
	mov	ecx, 2496723529
	mov	dl, 1
	mov	sil, byte ptr [rbp - 50]
	mov	dil, byte ptr [rbp - 49]
	mov	r8b, sil
	xor	r8b, -1
	mov	r9b, dil
	xor	r9b, -1
	xor	dl, 0
	mov	r10b, r8b
	and	r10b, 0
	and	sil, dl
	mov	r11b, r9b
	and	r11b, 0
	and	dil, dl
	or	r10b, sil
	or	r11b, dil
	xor	r10b, r11b
	or	r8b, r9b
	xor	r8b, -1
	or	dl, 0
	and	r8b, dl
	or	r10b, r8b
	test	r10b, 1
	cmovne	eax, ecx
	mov	dword ptr [rbp - 56], eax
	jmp	.LBB11_7
.LBB11_4:                               
	mov	rax, rsp
	add	rax, -16
	mov	rsp, rax
	mov	rcx, rsp
	add	rcx, -16
	mov	rsp, rcx
	mov	rdx, rsp
	add	rdx, -16
	mov	rsp, rdx
	mov	rsi, qword ptr [rbp - 64] 
	mov	qword ptr [rcx], rsi
	mov	rdi, qword ptr [rbp - 72] 
	mov	qword ptr [rdx], rdi
	mov	rcx, qword ptr [rcx]
	mov	rcx, qword ptr [rcx]
	mov	qword ptr [rax], rcx
	mov	rsi, qword ptr [rdx]
	mov	rdi, rax
	mov	qword ptr [rbp - 104], rax 
	call	_ZNSt6bitsetILm48EEeOERKS0_
	mov	r8d, 1030378344
	mov	r9d, 1699759903
	mov	r10b, 1
	xor	r11d, r11d
	mov	rcx, qword ptr [rbp - 104] 
	mov	rdx, qword ptr [rcx]
	mov	qword ptr [rbp - 48], rdx
	mov	ebx, dword ptr [x.66]
	mov	r14d, dword ptr [y.67]
	sub	r11d, 1
	mov	r15d, ebx
	add	r15d, r11d
	imul	ebx, r15d
	and	ebx, 1
	cmp	ebx, 0
	sete	r12b
	cmp	r14d, 10
	setl	r13b
	mov	cl, r12b
	xor	cl, -1
	mov	dl, r13b
	xor	dl, -1
	xor	r10b, 0
	mov	sil, cl
	and	sil, 0
	and	r12b, r10b
	mov	dil, dl
	and	dil, 0
	and	r13b, r10b
	or	sil, r12b
	or	dil, r13b
	xor	sil, dil
	or	cl, dl
	xor	cl, -1
	or	r10b, 0
	and	cl, r10b
	or	sil, cl
	test	sil, 1
	cmovne	r8d, r9d
	mov	dword ptr [rbp - 56], r8d
	mov	qword ptr [rbp - 112], rax 
	jmp	.LBB11_7
.LBB11_5:
	mov	rax, qword ptr [rbp - 48]
	lea	rsp, [rbp - 40]
	pop	rbx
	pop	r12
	pop	r13
	pop	r14
	pop	r15
	pop	rbp
	ret
.LBB11_6:                               
	mov	rax, rsp
	add	rax, -16
	mov	rsp, rax
	mov	rcx, rsp
	add	rcx, -16
	mov	rsp, rcx
	mov	rdx, rsp
	add	rdx, -16
	mov	rsp, rdx
	mov	rsi, qword ptr [rbp - 64] 
	mov	qword ptr [rcx], rsi
	mov	rdi, qword ptr [rbp - 72] 
	mov	qword ptr [rdx], rdi
	mov	rcx, qword ptr [rcx]
	mov	rcx, qword ptr [rcx]
	mov	qword ptr [rax], rcx
	mov	rsi, qword ptr [rdx]
	mov	rdi, rax
	call	_ZNSt6bitsetILm48EEeOERKS0_
	mov	dword ptr [rbp - 56], -1798243767
	mov	qword ptr [rbp - 120], rax 
.LBB11_7:                               
	jmp	.LBB11_1
.Lfunc_end11:
	.size	_ZSteoILm48EESt6bitsetIXT_EERKS1_S3_, .Lfunc_end11-_ZSteoILm48EESt6bitsetIXT_EERKS1_S3_

	.section	.text._ZNKSt6bitsetILm48EE9to_stringB5cxx11Ev,"axG",@progbits,_ZNKSt6bitsetILm48EE9to_stringB5cxx11Ev,comdat
	.weak	_ZNKSt6bitsetILm48EE9to_stringB5cxx11Ev 
	.p2align	4, 0x90
	.type	_ZNKSt6bitsetILm48EE9to_stringB5cxx11Ev,@function
_ZNKSt6bitsetILm48EE9to_stringB5cxx11Ev: 
	.cfi_startproc

	push	rbp
.Lcfi23:
	.cfi_def_cfa_offset 16
.Lcfi24:
	.cfi_offset rbp, -16
	mov	rbp, rsp
.Lcfi25:
	.cfi_def_cfa_register rbp
	push	r15
	push	r14
	push	rbx
	sub	rsp, 56
.Lcfi26:
	.cfi_offset rbx, -40
.Lcfi27:
	.cfi_offset r14, -32
.Lcfi28:
	.cfi_offset r15, -24
	mov	rax, rdi
	xor	ecx, ecx
	mov	edx, dword ptr [x.68]
	mov	r8d, dword ptr [y.69]
	sub	ecx, 1
	mov	r9d, edx
	add	r9d, ecx
	imul	edx, r9d
	and	edx, 1
	cmp	edx, 0
	sete	r10b
	and	r10b, 1
	mov	byte ptr [rbp - 26], r10b
	cmp	r8d, 10
	setl	r10b
	and	r10b, 1
	mov	byte ptr [rbp - 25], r10b
	mov	dword ptr [rbp - 32], 1458931215
	mov	qword ptr [rbp - 40], rax 
	mov	qword ptr [rbp - 48], rsi 
	mov	qword ptr [rbp - 56], rdi 
.LBB12_1:                               
	mov	eax, dword ptr [rbp - 32]
	mov	ecx, eax
	sub	ecx, -2096841135
	mov	dword ptr [rbp - 60], eax 
	mov	dword ptr [rbp - 64], ecx 
	je	.LBB12_6
	jmp	.LBB12_8
.LBB12_8:                               
	mov	eax, dword ptr [rbp - 60] 
	sub	eax, -610524312
	mov	dword ptr [rbp - 68], eax 
	je	.LBB12_4
	jmp	.LBB12_9
.LBB12_9:                               
	mov	eax, dword ptr [rbp - 60] 
	sub	eax, 924140213
	mov	dword ptr [rbp - 72], eax 
	je	.LBB12_5
	jmp	.LBB12_10
.LBB12_10:                              
	mov	eax, dword ptr [rbp - 60] 
	sub	eax, 1458931215
	mov	dword ptr [rbp - 76], eax 
	je	.LBB12_3
	jmp	.LBB12_2
.LBB12_2:                               
	jmp	.LBB12_7
.LBB12_3:                               
	mov	eax, 2198126161
	mov	ecx, 3684442984
	mov	dl, 1
	mov	sil, byte ptr [rbp - 26]
	mov	dil, byte ptr [rbp - 25]
	mov	r8b, sil
	xor	r8b, -1
	mov	r9b, dil
	xor	r9b, -1
	xor	dl, 0
	mov	r10b, r8b
	and	r10b, 0
	and	sil, dl
	mov	r11b, r9b
	and	r11b, 0
	and	dil, dl
	or	r10b, sil
	or	r11b, dil
	xor	r10b, r11b
	or	r8b, r9b
	xor	r8b, -1
	or	dl, 0
	and	r8b, dl
	or	r10b, r8b
	test	r10b, 1
	cmovne	eax, ecx
	mov	dword ptr [rbp - 32], eax
	jmp	.LBB12_7
.LBB12_4:                               
	mov	rax, rsp
	add	rax, -16
	mov	rsp, rax
	mov	rcx, qword ptr [rbp - 48] 
	mov	qword ptr [rax], rcx
	mov	rsi, qword ptr [rax]
	mov	rdi, qword ptr [rbp - 56] 
	call	_ZNKSt6bitsetILm48EE9to_stringIcSt11char_traitsIcESaIcEEENSt7__cxx1112basic_stringIT_T0_T1_EEv
	mov	edx, 2198126161
	mov	r8d, 924140213
	mov	r9d, dword ptr [x.68]
	mov	r10d, dword ptr [y.69]
	mov	r11d, r9d
	add	r11d, 1521363426
	sub	r11d, 1
	sub	r11d, 1521363426
	imul	r9d, r11d
	and	r9d, 1
	cmp	r9d, 0
	sete	bl
	cmp	r10d, 10
	setl	r14b
	mov	r15b, bl
	and	r15b, r14b
	xor	bl, r14b
	or	r15b, bl
	test	r15b, 1
	cmovne	edx, r8d
	mov	dword ptr [rbp - 32], edx
	jmp	.LBB12_7
.LBB12_5:
	mov	rax, qword ptr [rbp - 40] 
	lea	rsp, [rbp - 24]
	pop	rbx
	pop	r14
	pop	r15
	pop	rbp
	ret
.LBB12_6:                               
	mov	rax, rsp
	add	rax, -16
	mov	rsp, rax
	mov	rcx, qword ptr [rbp - 48] 
	mov	qword ptr [rax], rcx
	mov	rsi, qword ptr [rax]
	mov	rdi, qword ptr [rbp - 56] 
	call	_ZNKSt6bitsetILm48EE9to_stringIcSt11char_traitsIcESaIcEEENSt7__cxx1112basic_stringIT_T0_T1_EEv
	mov	dword ptr [rbp - 32], -610524312
.LBB12_7:                               
	jmp	.LBB12_1
.Lfunc_end12:
	.size	_ZNKSt6bitsetILm48EE9to_stringB5cxx11Ev, .Lfunc_end12-_ZNKSt6bitsetILm48EE9to_stringB5cxx11Ev
	.cfi_endproc

	.section	.text._ZNSt7__cxx1112basic_stringIcSt11char_traitsIcESaIcEEaSEOS4_,"axG",@progbits,_ZNSt7__cxx1112basic_stringIcSt11char_traitsIcESaIcEEaSEOS4_,comdat
	.weak	_ZNSt7__cxx1112basic_stringIcSt11char_traitsIcESaIcEEaSEOS4_ 
	.p2align	4, 0x90
	.type	_ZNSt7__cxx1112basic_stringIcSt11char_traitsIcESaIcEEaSEOS4_,@function
_ZNSt7__cxx1112basic_stringIcSt11char_traitsIcESaIcEEaSEOS4_: 
.Lfunc_begin4:
	.cfi_startproc
	.cfi_personality 3, __gxx_personality_v0
	.cfi_lsda 3, .Lexception4

	push	rbp
	mov	rbp, rsp
	sub	rsp, 144
	mov	qword ptr [rbp - 8], rdi
	mov	qword ptr [rbp - 16], rsi
	mov	rsi, qword ptr [rbp - 8]
.Ltmp60:
	mov	rdi, rsi
	mov	qword ptr [rbp - 40], rsi 
	call	_ZNKSt7__cxx1112basic_stringIcSt11char_traitsIcESaIcEE11_M_is_localEv
.Ltmp61:
	mov	byte ptr [rbp - 41], al 
	jmp	.LBB13_1
.LBB13_1:
	mov	al, byte ptr [rbp - 41] 
	test	al, 1
	jne	.LBB13_11
	jmp	.LBB13_2
.LBB13_2:
.Ltmp62:
	call	_ZN9__gnu_cxx14__alloc_traitsISaIcEE15_S_always_equalEv
.Ltmp63:
	mov	byte ptr [rbp - 42], al 
	jmp	.LBB13_3
.LBB13_3:
	mov	al, byte ptr [rbp - 42] 
	test	al, 1
	jne	.LBB13_11
	jmp	.LBB13_4
.LBB13_4:
.Ltmp64:
	mov	rdi, qword ptr [rbp - 40] 
	call	_ZNSt7__cxx1112basic_stringIcSt11char_traitsIcESaIcEE16_M_get_allocatorEv
.Ltmp65:
	mov	qword ptr [rbp - 56], rax 
	jmp	.LBB13_5
.LBB13_5:
	mov	rdi, qword ptr [rbp - 16]
.Ltmp66:
	call	_ZNSt7__cxx1112basic_stringIcSt11char_traitsIcESaIcEE16_M_get_allocatorEv
.Ltmp67:
	mov	qword ptr [rbp - 64], rax 
	jmp	.LBB13_6
.LBB13_6:
	mov	rdi, qword ptr [rbp - 56] 
	mov	rsi, qword ptr [rbp - 64] 
	call	_ZStneIcEbRKSaIT_ES3_
	test	al, 1
	jne	.LBB13_7
	jmp	.LBB13_11
.LBB13_7:
	mov	rax, qword ptr [rbp - 40] 
	mov	rsi, qword ptr [rax + 16]
	mov	rdi, rax
	call	_ZNSt7__cxx1112basic_stringIcSt11char_traitsIcESaIcEE10_M_destroyEm
.Ltmp68:
	mov	rdi, qword ptr [rbp - 40] 
	call	_ZNSt7__cxx1112basic_stringIcSt11char_traitsIcESaIcEE13_M_local_dataEv
.Ltmp69:
	mov	qword ptr [rbp - 72], rax 
	jmp	.LBB13_8
.LBB13_8:
.Ltmp70:
	mov	rdi, qword ptr [rbp - 40] 
	mov	rsi, qword ptr [rbp - 72] 
	call	_ZNSt7__cxx1112basic_stringIcSt11char_traitsIcESaIcEE7_M_dataEPc
.Ltmp71:
	jmp	.LBB13_9
.LBB13_9:
.Ltmp72:
	xor	eax, eax
	mov	esi, eax
	mov	rdi, qword ptr [rbp - 40] 
	call	_ZNSt7__cxx1112basic_stringIcSt11char_traitsIcESaIcEE13_M_set_lengthEm
.Ltmp73:
	jmp	.LBB13_10
.LBB13_10:
	jmp	.LBB13_11
.LBB13_11:
.Ltmp74:
	mov	rdi, qword ptr [rbp - 40] 
	call	_ZNSt7__cxx1112basic_stringIcSt11char_traitsIcESaIcEE16_M_get_allocatorEv
.Ltmp75:
	mov	qword ptr [rbp - 80], rax 
	jmp	.LBB13_12
.LBB13_12:
	mov	rdi, qword ptr [rbp - 16]
.Ltmp76:
	call	_ZNSt7__cxx1112basic_stringIcSt11char_traitsIcESaIcEE16_M_get_allocatorEv
.Ltmp77:
	mov	qword ptr [rbp - 88], rax 
	jmp	.LBB13_13
.LBB13_13:
.Ltmp78:
	mov	rdi, qword ptr [rbp - 80] 
	mov	rsi, qword ptr [rbp - 88] 
	call	_ZSt15__alloc_on_moveISaIcEEvRT_S2_
.Ltmp79:
	jmp	.LBB13_14
.LBB13_14:
	mov	rdi, qword ptr [rbp - 16]
.Ltmp80:
	call	_ZNKSt7__cxx1112basic_stringIcSt11char_traitsIcESaIcEE11_M_is_localEv
.Ltmp81:
	mov	byte ptr [rbp - 89], al 
	jmp	.LBB13_15
.LBB13_15:
	mov	al, byte ptr [rbp - 89] 
	test	al, 1
	jne	.LBB13_16
	jmp	.LBB13_23
.LBB13_16:
	mov	rdi, qword ptr [rbp - 16]
	call	_ZNKSt7__cxx1112basic_stringIcSt11char_traitsIcESaIcEE4sizeEv
	cmp	rax, 0
	je	.LBB13_21

.Ltmp100:
	mov	rdi, qword ptr [rbp - 40] 
	call	_ZNKSt7__cxx1112basic_stringIcSt11char_traitsIcESaIcEE7_M_dataEv
.Ltmp101:
	mov	qword ptr [rbp - 104], rax 
	jmp	.LBB13_18
.LBB13_18:
	mov	rdi, qword ptr [rbp - 16]
.Ltmp102:
	call	_ZNKSt7__cxx1112basic_stringIcSt11char_traitsIcESaIcEE7_M_dataEv
.Ltmp103:
	mov	qword ptr [rbp - 112], rax 
	jmp	.LBB13_19
.LBB13_19:
	mov	rdi, qword ptr [rbp - 16]
	call	_ZNKSt7__cxx1112basic_stringIcSt11char_traitsIcESaIcEE4sizeEv
.Ltmp104:
	mov	rdi, qword ptr [rbp - 104] 
	mov	rsi, qword ptr [rbp - 112] 
	mov	rdx, rax
	call	_ZNSt7__cxx1112basic_stringIcSt11char_traitsIcESaIcEE7_S_copyEPcPKcm
.Ltmp105:
	jmp	.LBB13_20
.LBB13_20:
	jmp	.LBB13_21
.LBB13_21:
	mov	rdi, qword ptr [rbp - 16]
	call	_ZNKSt7__cxx1112basic_stringIcSt11char_traitsIcESaIcEE4sizeEv
.Ltmp106:
	mov	rdi, qword ptr [rbp - 40] 
	mov	rsi, rax
	call	_ZNSt7__cxx1112basic_stringIcSt11char_traitsIcESaIcEE13_M_set_lengthEm
.Ltmp107:
	jmp	.LBB13_22
.LBB13_22:
	jmp	.LBB13_38
.LBB13_23:
	mov	qword ptr [rbp - 24], 0
.Ltmp82:
	mov	rdi, qword ptr [rbp - 40] 
	call	_ZNKSt7__cxx1112basic_stringIcSt11char_traitsIcESaIcEE11_M_is_localEv
.Ltmp83:
	mov	byte ptr [rbp - 113], al 
	jmp	.LBB13_24
.LBB13_24:
	mov	al, byte ptr [rbp - 113] 
	test	al, 1
	jne	.LBB13_27
	jmp	.LBB13_25
.LBB13_25:
.Ltmp84:
	mov	rdi, qword ptr [rbp - 40] 
	call	_ZNKSt7__cxx1112basic_stringIcSt11char_traitsIcESaIcEE7_M_dataEv
.Ltmp85:
	mov	qword ptr [rbp - 128], rax 
	jmp	.LBB13_26
.LBB13_26:
	mov	rax, qword ptr [rbp - 128] 
	mov	qword ptr [rbp - 24], rax
	mov	rcx, qword ptr [rbp - 40] 
	mov	rdx, qword ptr [rcx + 16]
	mov	qword ptr [rbp - 32], rdx
.LBB13_27:
	mov	rdi, qword ptr [rbp - 16]
.Ltmp86:
	call	_ZNKSt7__cxx1112basic_stringIcSt11char_traitsIcESaIcEE7_M_dataEv
.Ltmp87:
	mov	qword ptr [rbp - 136], rax 
	jmp	.LBB13_28
.LBB13_28:
.Ltmp88:
	mov	rdi, qword ptr [rbp - 40] 
	mov	rsi, qword ptr [rbp - 136] 
	call	_ZNSt7__cxx1112basic_stringIcSt11char_traitsIcESaIcEE7_M_dataEPc
.Ltmp89:
	jmp	.LBB13_29
.LBB13_29:
	mov	rdi, qword ptr [rbp - 16]
	call	_ZNKSt7__cxx1112basic_stringIcSt11char_traitsIcESaIcEE6lengthEv
.Ltmp90:
	mov	rdi, qword ptr [rbp - 40] 
	mov	rsi, rax
	call	_ZNSt7__cxx1112basic_stringIcSt11char_traitsIcESaIcEE9_M_lengthEm
.Ltmp91:
	jmp	.LBB13_30
.LBB13_30:
	mov	rax, qword ptr [rbp - 16]
	mov	rsi, qword ptr [rax + 16]
.Ltmp92:
	mov	rdi, qword ptr [rbp - 40] 
	call	_ZNSt7__cxx1112basic_stringIcSt11char_traitsIcESaIcEE11_M_capacityEm
.Ltmp93:
	jmp	.LBB13_31
.LBB13_31:
	cmp	qword ptr [rbp - 24], 0
	je	.LBB13_35

	mov	rdi, qword ptr [rbp - 16]
	mov	rsi, qword ptr [rbp - 24]
.Ltmp96:
	call	_ZNSt7__cxx1112basic_stringIcSt11char_traitsIcESaIcEE7_M_dataEPc
.Ltmp97:
	jmp	.LBB13_33
.LBB13_33:
	mov	rdi, qword ptr [rbp - 16]
	mov	rsi, qword ptr [rbp - 32]
.Ltmp98:
	call	_ZNSt7__cxx1112basic_stringIcSt11char_traitsIcESaIcEE11_M_capacityEm
.Ltmp99:
	jmp	.LBB13_34
.LBB13_34:
	jmp	.LBB13_37
.LBB13_35:
	mov	rax, qword ptr [rbp - 16]
	mov	rcx, rax
	add	rcx, 16
.Ltmp94:
	mov	rdi, rax
	mov	rsi, rcx
	call	_ZNSt7__cxx1112basic_stringIcSt11char_traitsIcESaIcEE7_M_dataEPc
.Ltmp95:
	jmp	.LBB13_36
.LBB13_36:
	jmp	.LBB13_37
.LBB13_37:
	jmp	.LBB13_38
.LBB13_38:
	mov	rdi, qword ptr [rbp - 16]
	call	_ZNSt7__cxx1112basic_stringIcSt11char_traitsIcESaIcEE5clearEv
	mov	rax, qword ptr [rbp - 40] 
	add	rsp, 144
	pop	rbp
	ret
.LBB13_39:
.Ltmp108:
	mov	ecx, edx
	mov	rdi, rax
	mov	dword ptr [rbp - 140], ecx 
	call	__clang_call_terminate
.Lfunc_end13:
	.size	_ZNSt7__cxx1112basic_stringIcSt11char_traitsIcESaIcEEaSEOS4_, .Lfunc_end13-_ZNSt7__cxx1112basic_stringIcSt11char_traitsIcESaIcEEaSEOS4_
	.cfi_endproc
	.section	.gcc_except_table,"a",@progbits
	.p2align	2
GCC_except_table13:
.Lexception4:
	.byte	255                     
	.byte	3                       
	.byte	21                      
	.byte	3                       
	.byte	13                      
	.long	.Ltmp60-.Lfunc_begin4   
	.long	.Ltmp95-.Ltmp60         
	.long	.Ltmp108-.Lfunc_begin4  
	.byte	1                       
	.byte	1                       

	.byte	0                       

	.long	0                       
	.p2align	2

	.text
	.globl	_ZN3DES5xor32ERKNSt7__cxx1112basic_stringIcSt11char_traitsIcESaIcEEES7_ 
	.p2align	4, 0x90
	.type	_ZN3DES5xor32ERKNSt7__cxx1112basic_stringIcSt11char_traitsIcESaIcEEES7_,@function
_ZN3DES5xor32ERKNSt7__cxx1112basic_stringIcSt11char_traitsIcESaIcEEES7_: 
	.cfi_startproc

	push	rbp
.Lcfi29:
	.cfi_def_cfa_offset 16
.Lcfi30:
	.cfi_offset rbp, -16
	mov	rbp, rsp
.Lcfi31:
	.cfi_def_cfa_register rbp
	sub	rsp, 112
	lea	rax, [rbp - 32]
	mov	qword ptr [rbp - 8], rdi
	mov	qword ptr [rbp - 16], rsi
	mov	qword ptr [rbp - 24], rdx
	mov	rdx, qword ptr [rbp - 8]
	mov	rdi, rax
	mov	qword ptr [rbp - 96], rdx 
	call	_ZNSt6bitsetILm32EEC2Ev
	lea	rdi, [rbp - 40]
	xor	ecx, ecx
	mov	edx, ecx
	mov	rsi, qword ptr [rbp - 16]
	call	_ZNSt6bitsetILm32EEC2IcSt11char_traitsIcESaIcEEERKNSt7__cxx1112basic_stringIT_T0_T1_EEm
	lea	rdi, [rbp - 48]
	xor	ecx, ecx
	mov	edx, ecx
	mov	rsi, qword ptr [rbp - 24]
	call	_ZNSt6bitsetILm32EEC2IcSt11char_traitsIcESaIcEEERKNSt7__cxx1112basic_stringIT_T0_T1_EEm
	lea	rdi, [rbp - 40]
	lea	rsi, [rbp - 48]
	call	_ZSteoILm32EESt6bitsetIXT_EERKS1_S3_
	lea	rdi, [rbp - 88]
	lea	rsi, [rbp - 32]
	mov	qword ptr [rbp - 56], rax
	mov	rax, qword ptr [rbp - 56]
	mov	qword ptr [rbp - 32], rax
	call	_ZNKSt6bitsetILm32EE9to_stringB5cxx11Ev
	lea	rsi, [rbp - 88]
	mov	rax, qword ptr [rbp - 96] 
	add	rax, 72
	mov	rdi, rax
	call	_ZNSt7__cxx1112basic_stringIcSt11char_traitsIcESaIcEEaSEOS4_
	lea	rdi, [rbp - 88]
	mov	qword ptr [rbp - 104], rax 
	call	_ZNSt7__cxx1112basic_stringIcSt11char_traitsIcESaIcEED2Ev
	add	rsp, 112
	pop	rbp
	ret
.Lfunc_end14:
	.size	_ZN3DES5xor32ERKNSt7__cxx1112basic_stringIcSt11char_traitsIcESaIcEEES7_, .Lfunc_end14-_ZN3DES5xor32ERKNSt7__cxx1112basic_stringIcSt11char_traitsIcESaIcEEES7_
	.cfi_endproc

	.section	.text._ZNSt6bitsetILm32EEC2Ev,"axG",@progbits,_ZNSt6bitsetILm32EEC2Ev,comdat
	.weak	_ZNSt6bitsetILm32EEC2Ev 
	.p2align	4, 0x90
	.type	_ZNSt6bitsetILm32EEC2Ev,@function
_ZNSt6bitsetILm32EEC2Ev:                

	push	rbp
	mov	rbp, rsp
	sub	rsp, 16
	mov	qword ptr [rbp - 8], rdi
	mov	rdi, qword ptr [rbp - 8]
	call	_ZNSt12_Base_bitsetILm1EEC2Ev
	add	rsp, 16
	pop	rbp
	ret
.Lfunc_end15:
	.size	_ZNSt6bitsetILm32EEC2Ev, .Lfunc_end15-_ZNSt6bitsetILm32EEC2Ev

	.section	.text._ZNSt6bitsetILm32EEC2IcSt11char_traitsIcESaIcEEERKNSt7__cxx1112basic_stringIT_T0_T1_EEm,"axG",@progbits,_ZNSt6bitsetILm32EEC2IcSt11char_traitsIcESaIcEEERKNSt7__cxx1112basic_stringIT_T0_T1_EEm,comdat
	.weak	_ZNSt6bitsetILm32EEC2IcSt11char_traitsIcESaIcEEERKNSt7__cxx1112basic_stringIT_T0_T1_EEm 
	.p2align	4, 0x90
	.type	_ZNSt6bitsetILm32EEC2IcSt11char_traitsIcESaIcEEERKNSt7__cxx1112basic_stringIT_T0_T1_EEm,@function
_ZNSt6bitsetILm32EEC2IcSt11char_traitsIcESaIcEEERKNSt7__cxx1112basic_stringIT_T0_T1_EEm: 
	.cfi_startproc

	push	rbp
.Lcfi32:
	.cfi_def_cfa_offset 16
.Lcfi33:
	.cfi_offset rbp, -16
	mov	rbp, rsp
.Lcfi34:
	.cfi_def_cfa_register rbp
	sub	rsp, 32
	mov	qword ptr [rbp - 8], rdi
	mov	qword ptr [rbp - 16], rsi
	mov	qword ptr [rbp - 24], rdx
	mov	rdx, qword ptr [rbp - 8]
	mov	rsi, rdx
	mov	rdi, rsi
	mov	qword ptr [rbp - 32], rdx 
	call	_ZNSt12_Base_bitsetILm1EEC2Ev
	mov	rsi, qword ptr [rbp - 16]
	mov	rdx, qword ptr [rbp - 24]
	mov	rdi, qword ptr [rbp - 32] 
	call	_ZNKSt6bitsetILm32EE25_M_check_initial_positionIcSt11char_traitsIcESaIcEEEvRKNSt7__cxx1112basic_stringIT_T0_T1_EEm
	mov	rcx, -1
	mov	r8d, 48
	mov	r9d, 49
	mov	rsi, qword ptr [rbp - 16]
	mov	rdx, qword ptr [rbp - 24]
	mov	rdi, qword ptr [rbp - 32] 
	call	_ZNSt6bitsetILm32EE19_M_copy_from_stringIcSt11char_traitsIcESaIcEEEvRKNSt7__cxx1112basic_stringIT_T0_T1_EEmmS7_S7_
	add	rsp, 32
	pop	rbp
	ret
.Lfunc_end16:
	.size	_ZNSt6bitsetILm32EEC2IcSt11char_traitsIcESaIcEEERKNSt7__cxx1112basic_stringIT_T0_T1_EEm, .Lfunc_end16-_ZNSt6bitsetILm32EEC2IcSt11char_traitsIcESaIcEEERKNSt7__cxx1112basic_stringIT_T0_T1_EEm
	.cfi_endproc

	.section	.text._ZSteoILm32EESt6bitsetIXT_EERKS1_S3_,"axG",@progbits,_ZSteoILm32EESt6bitsetIXT_EERKS1_S3_,comdat
	.weak	_ZSteoILm32EESt6bitsetIXT_EERKS1_S3_ 
	.p2align	4, 0x90
	.type	_ZSteoILm32EESt6bitsetIXT_EERKS1_S3_,@function
_ZSteoILm32EESt6bitsetIXT_EERKS1_S3_:   

	push	rbp
	mov	rbp, rsp
	push	r15
	push	r14
	push	r13
	push	r12
	push	rbx
	sub	rsp, 88
	mov	eax, dword ptr [x.76]
	mov	ecx, dword ptr [y.77]
	mov	edx, eax
	add	edx, 393939727
	sub	edx, 1
	sub	edx, 393939727
	imul	eax, edx
	and	eax, 1
	cmp	eax, 0
	sete	r8b
	and	r8b, 1
	mov	byte ptr [rbp - 50], r8b
	cmp	ecx, 10
	setl	r8b
	and	r8b, 1
	mov	byte ptr [rbp - 49], r8b
	mov	dword ptr [rbp - 56], -709988753
	mov	qword ptr [rbp - 64], rdi 
	mov	qword ptr [rbp - 72], rsi 
.LBB17_1:                               
	mov	eax, dword ptr [rbp - 56]
	mov	ecx, eax
	sub	ecx, -1288951286
	mov	dword ptr [rbp - 76], eax 
	mov	dword ptr [rbp - 80], ecx 
	je	.LBB17_5
	jmp	.LBB17_8
.LBB17_8:                               
	mov	eax, dword ptr [rbp - 76] 
	sub	eax, -764218347
	mov	dword ptr [rbp - 84], eax 
	je	.LBB17_4
	jmp	.LBB17_9
.LBB17_9:                               
	mov	eax, dword ptr [rbp - 76] 
	sub	eax, -709988753
	mov	dword ptr [rbp - 88], eax 
	je	.LBB17_3
	jmp	.LBB17_10
.LBB17_10:                              
	mov	eax, dword ptr [rbp - 76] 
	sub	eax, 1464682606
	mov	dword ptr [rbp - 92], eax 
	je	.LBB17_6
	jmp	.LBB17_2
.LBB17_2:                               
	jmp	.LBB17_7
.LBB17_3:                               
	mov	eax, 1464682606
	mov	ecx, 3530748949
	mov	dl, byte ptr [rbp - 50]
	mov	sil, byte ptr [rbp - 49]
	mov	dil, dl
	and	dil, sil
	xor	dl, sil
	or	dil, dl
	test	dil, 1
	cmovne	eax, ecx
	mov	dword ptr [rbp - 56], eax
	jmp	.LBB17_7
.LBB17_4:                               
	mov	rax, rsp
	add	rax, -16
	mov	rsp, rax
	mov	rcx, rsp
	add	rcx, -16
	mov	rsp, rcx
	mov	rdx, rsp
	add	rdx, -16
	mov	rsp, rdx
	mov	rsi, qword ptr [rbp - 64] 
	mov	qword ptr [rcx], rsi
	mov	rdi, qword ptr [rbp - 72] 
	mov	qword ptr [rdx], rdi
	mov	rcx, qword ptr [rcx]
	mov	rcx, qword ptr [rcx]
	mov	qword ptr [rax], rcx
	mov	rsi, qword ptr [rdx]
	mov	rdi, rax
	mov	qword ptr [rbp - 104], rax 
	call	_ZNSt6bitsetILm32EEeOERKS0_
	mov	r8d, 1464682606
	mov	r9d, 3006016010
	mov	r10b, 1
	xor	r11d, r11d
	mov	rcx, qword ptr [rbp - 104] 
	mov	rdx, qword ptr [rcx]
	mov	qword ptr [rbp - 48], rdx
	mov	ebx, dword ptr [x.76]
	mov	r14d, dword ptr [y.77]
	sub	r11d, 1
	mov	r15d, ebx
	add	r15d, r11d
	imul	ebx, r15d
	and	ebx, 1
	cmp	ebx, 0
	sete	r12b
	cmp	r14d, 10
	setl	r13b
	mov	cl, r12b
	xor	cl, -1
	mov	dl, r13b
	xor	dl, -1
	xor	r10b, 0
	mov	sil, cl
	and	sil, 0
	and	r12b, r10b
	mov	dil, dl
	and	dil, 0
	and	r13b, r10b
	or	sil, r12b
	or	dil, r13b
	xor	sil, dil
	or	cl, dl
	xor	cl, -1
	or	r10b, 0
	and	cl, r10b
	or	sil, cl
	test	sil, 1
	cmovne	r8d, r9d
	mov	dword ptr [rbp - 56], r8d
	mov	qword ptr [rbp - 112], rax 
	jmp	.LBB17_7
.LBB17_5:
	mov	rax, qword ptr [rbp - 48]
	lea	rsp, [rbp - 40]
	pop	rbx
	pop	r12
	pop	r13
	pop	r14
	pop	r15
	pop	rbp
	ret
.LBB17_6:                               
	mov	rax, rsp
	add	rax, -16
	mov	rsp, rax
	mov	rcx, rsp
	add	rcx, -16
	mov	rsp, rcx
	mov	rdx, rsp
	add	rdx, -16
	mov	rsp, rdx
	mov	rsi, qword ptr [rbp - 64] 
	mov	qword ptr [rcx], rsi
	mov	rdi, qword ptr [rbp - 72] 
	mov	qword ptr [rdx], rdi
	mov	rcx, qword ptr [rcx]
	mov	rcx, qword ptr [rcx]
	mov	qword ptr [rax], rcx
	mov	rsi, qword ptr [rdx]
	mov	rdi, rax
	call	_ZNSt6bitsetILm32EEeOERKS0_
	mov	dword ptr [rbp - 56], -764218347
	mov	qword ptr [rbp - 120], rax 
.LBB17_7:                               
	jmp	.LBB17_1
.Lfunc_end17:
	.size	_ZSteoILm32EESt6bitsetIXT_EERKS1_S3_, .Lfunc_end17-_ZSteoILm32EESt6bitsetIXT_EERKS1_S3_

	.section	.text._ZNKSt6bitsetILm32EE9to_stringB5cxx11Ev,"axG",@progbits,_ZNKSt6bitsetILm32EE9to_stringB5cxx11Ev,comdat
	.weak	_ZNKSt6bitsetILm32EE9to_stringB5cxx11Ev 
	.p2align	4, 0x90
	.type	_ZNKSt6bitsetILm32EE9to_stringB5cxx11Ev,@function
_ZNKSt6bitsetILm32EE9to_stringB5cxx11Ev: 
	.cfi_startproc

	push	rbp
.Lcfi35:
	.cfi_def_cfa_offset 16
.Lcfi36:
	.cfi_offset rbp, -16
	mov	rbp, rsp
.Lcfi37:
	.cfi_def_cfa_register rbp
	sub	rsp, 16
	mov	rax, rdi
	mov	qword ptr [rbp - 8], rsi
	mov	rsi, qword ptr [rbp - 8]
	mov	qword ptr [rbp - 16], rax 
	call	_ZNKSt6bitsetILm32EE9to_stringIcSt11char_traitsIcESaIcEEENSt7__cxx1112basic_stringIT_T0_T1_EEv
	mov	rax, qword ptr [rbp - 16] 
	add	rsp, 16
	pop	rbp
	ret
.Lfunc_end18:
	.size	_ZNKSt6bitsetILm32EE9to_stringB5cxx11Ev, .Lfunc_end18-_ZNKSt6bitsetILm32EE9to_stringB5cxx11Ev
	.cfi_endproc

	.text
	.globl	_ZN3DES12initialPermuERKNSt7__cxx1112basic_stringIcSt11char_traitsIcESaIcEEE 
	.p2align	4, 0x90
	.type	_ZN3DES12initialPermuERKNSt7__cxx1112basic_stringIcSt11char_traitsIcESaIcEEE,@function
_ZN3DES12initialPermuERKNSt7__cxx1112basic_stringIcSt11char_traitsIcESaIcEEE: 
	.cfi_startproc

	push	rbp
.Lcfi38:
	.cfi_def_cfa_offset 16
.Lcfi39:
	.cfi_offset rbp, -16
	mov	rbp, rsp
.Lcfi40:
	.cfi_def_cfa_register rbp
	push	r15
	push	r14
	push	r13
	push	r12
	push	rbx
	sub	rsp, 280
.Lcfi41:
	.cfi_offset rbx, -56
.Lcfi42:
	.cfi_offset r12, -48
.Lcfi43:
	.cfi_offset r13, -40
.Lcfi44:
	.cfi_offset r14, -32
.Lcfi45:
	.cfi_offset r15, -24
	mov	eax, dword ptr [x.80]
	mov	ecx, dword ptr [y.81]
	mov	edx, eax
	sub	edx, -931664101
	sub	edx, 1
	add	edx, -931664101
	imul	eax, edx
	and	eax, 1
	cmp	eax, 0
	sete	r8b
	and	r8b, 1
	mov	byte ptr [rbp - 130], r8b
	cmp	ecx, 10
	setl	r8b
	and	r8b, 1
	mov	byte ptr [rbp - 129], r8b
	mov	dword ptr [rbp - 136], -560432755
	mov	qword ptr [rbp - 144], rdi 
	mov	qword ptr [rbp - 152], rsi 
.LBB19_1:                               
	mov	eax, dword ptr [rbp - 136]
	mov	ecx, eax
	sub	ecx, -1623945829
	mov	dword ptr [rbp - 156], eax 
	mov	dword ptr [rbp - 160], ecx 
	je	.LBB19_7
	jmp	.LBB19_20
.LBB19_20:                              
	mov	eax, dword ptr [rbp - 156] 
	sub	eax, -1549982297
	mov	dword ptr [rbp - 164], eax 
	je	.LBB19_12
	jmp	.LBB19_21
.LBB19_21:                              
	mov	eax, dword ptr [rbp - 156] 
	sub	eax, -1523952151
	mov	dword ptr [rbp - 168], eax 
	je	.LBB19_10
	jmp	.LBB19_22
.LBB19_22:                              
	mov	eax, dword ptr [rbp - 156] 
	sub	eax, -1283685679
	mov	dword ptr [rbp - 172], eax 
	je	.LBB19_18
	jmp	.LBB19_23
.LBB19_23:                              
	mov	eax, dword ptr [rbp - 156] 
	sub	eax, -1254869984
	mov	dword ptr [rbp - 176], eax 
	je	.LBB19_15
	jmp	.LBB19_24
.LBB19_24:                              
	mov	eax, dword ptr [rbp - 156] 
	sub	eax, -1092281919
	mov	dword ptr [rbp - 180], eax 
	je	.LBB19_9
	jmp	.LBB19_25
.LBB19_25:                              
	mov	eax, dword ptr [rbp - 156] 
	sub	eax, -560432755
	mov	dword ptr [rbp - 184], eax 
	je	.LBB19_3
	jmp	.LBB19_26
.LBB19_26:                              
	mov	eax, dword ptr [rbp - 156] 
	sub	eax, -305901984
	mov	dword ptr [rbp - 188], eax 
	je	.LBB19_4
	jmp	.LBB19_27
.LBB19_27:                              
	mov	eax, dword ptr [rbp - 156] 
	sub	eax, 54569184
	mov	dword ptr [rbp - 192], eax 
	je	.LBB19_11
	jmp	.LBB19_28
.LBB19_28:                              
	mov	eax, dword ptr [rbp - 156] 
	sub	eax, 110390182
	mov	dword ptr [rbp - 196], eax 
	je	.LBB19_17
	jmp	.LBB19_29
.LBB19_29:                              
	mov	eax, dword ptr [rbp - 156] 
	sub	eax, 263008049
	mov	dword ptr [rbp - 200], eax 
	je	.LBB19_5
	jmp	.LBB19_30
.LBB19_30:                              
	mov	eax, dword ptr [rbp - 156] 
	sub	eax, 336497528
	mov	dword ptr [rbp - 204], eax 
	je	.LBB19_6
	jmp	.LBB19_31
.LBB19_31:                              
	mov	eax, dword ptr [rbp - 156] 
	sub	eax, 829053184
	mov	dword ptr [rbp - 208], eax 
	je	.LBB19_8
	jmp	.LBB19_32
.LBB19_32:                              
	mov	eax, dword ptr [rbp - 156] 
	sub	eax, 1198062392
	mov	dword ptr [rbp - 212], eax 
	je	.LBB19_16
	jmp	.LBB19_33
.LBB19_33:                              
	mov	eax, dword ptr [rbp - 156] 
	sub	eax, 1438148121
	mov	dword ptr [rbp - 216], eax 
	je	.LBB19_14
	jmp	.LBB19_34
.LBB19_34:                              
	mov	eax, dword ptr [rbp - 156] 
	sub	eax, 1524776513
	mov	dword ptr [rbp - 220], eax 
	je	.LBB19_13
	jmp	.LBB19_2
.LBB19_2:                               
	jmp	.LBB19_19
.LBB19_3:                               
	mov	eax, 1198062392
	mov	ecx, 3989065312
	mov	dl, 1
	mov	sil, byte ptr [rbp - 130]
	mov	dil, byte ptr [rbp - 129]
	mov	r8b, sil
	xor	r8b, -1
	mov	r9b, dil
	xor	r9b, -1
	xor	dl, 0
	mov	r10b, r8b
	and	r10b, 0
	and	sil, dl
	mov	r11b, r9b
	and	r11b, 0
	and	dil, dl
	or	r10b, sil
	or	r11b, dil
	xor	r10b, r11b
	or	r8b, r9b
	xor	r8b, -1
	or	dl, 0
	and	r8b, dl
	or	r10b, r8b
	test	r10b, 1
	cmovne	eax, ecx
	mov	dword ptr [rbp - 136], eax
	jmp	.LBB19_19
.LBB19_4:                               
	mov	rax, rsp
	add	rax, -16
	mov	rsp, rax
	mov	rcx, rsp
	add	rcx, -16
	mov	rsp, rcx
	mov	qword ptr [rbp - 128], rcx
	mov	rcx, rsp
	add	rcx, -16
	mov	rsp, rcx
	mov	qword ptr [rbp - 120], rcx
	mov	rcx, rsp
	add	rcx, -16
	mov	rsp, rcx
	mov	qword ptr [rbp - 112], rcx
	mov	rcx, rsp
	add	rcx, -16
	mov	rsp, rcx
	mov	qword ptr [rbp - 104], rcx
	mov	rcx, rsp
	add	rcx, -16
	mov	rsp, rcx
	mov	qword ptr [rbp - 96], rcx
	mov	rcx, rsp
	add	rcx, -16
	mov	rsp, rcx
	mov	qword ptr [rbp - 88], rcx
	mov	rcx, rsp
	add	rcx, -16
	mov	rsp, rcx
	mov	qword ptr [rbp - 80], rcx
	mov	rcx, rsp
	add	rcx, -16
	mov	rsp, rcx
	mov	qword ptr [rbp - 72], rcx
	mov	rcx, rsp
	add	rcx, -16
	mov	rsp, rcx
	mov	qword ptr [rbp - 64], rcx
	mov	rcx, rsp
	add	rcx, -32
	mov	rsp, rcx
	mov	qword ptr [rbp - 56], rcx
	mov	rcx, qword ptr [rbp - 144] 
	mov	qword ptr [rax], rcx
	mov	rdx, qword ptr [rbp - 128]
	mov	rsi, qword ptr [rbp - 152] 
	mov	qword ptr [rdx], rsi
	mov	rax, qword ptr [rax]
	mov	qword ptr [rbp - 48], rax
	mov	rdi, qword ptr [rbp - 120]
	call	_ZNSt6bitsetILm64EEC2Ev
	mov	rax, qword ptr [rbp - 128]
	mov	rdi, qword ptr [rax]
	call	_ZNKSt7__cxx1112basic_stringIcSt11char_traitsIcESaIcEE5beginEv
	mov	r8d, 1198062392
	mov	r9d, 263008049
	mov	r10b, 1
	mov	rcx, qword ptr [rbp - 104]
	mov	qword ptr [rcx], rax
	mov	r11d, dword ptr [x.80]
	mov	ebx, dword ptr [y.81]
	mov	r14d, r11d
	add	r14d, -2077239749
	sub	r14d, 1
	sub	r14d, -2077239749
	imul	r11d, r14d
	and	r11d, 1
	cmp	r11d, 0
	sete	r15b
	cmp	ebx, 10
	setl	r12b
	mov	r13b, r15b
	xor	r13b, -1
	mov	al, r12b
	xor	al, -1
	xor	r10b, 1
	mov	cl, r13b
	and	cl, -1
	and	r15b, r10b
	mov	dl, al
	and	dl, -1
	and	r12b, r10b
	or	cl, r15b
	or	dl, r12b
	xor	cl, dl
	or	r13b, al
	xor	r13b, -1
	or	r10b, 1
	and	r13b, r10b
	or	cl, r13b
	test	cl, 1
	cmovne	r8d, r9d
	mov	dword ptr [rbp - 136], r8d
	jmp	.LBB19_19
.LBB19_5:                               
	mov	dword ptr [rbp - 136], 336497528
	jmp	.LBB19_19
.LBB19_6:                               
	mov	rax, qword ptr [rbp - 128]
	mov	rdi, qword ptr [rax]
	call	_ZNKSt7__cxx1112basic_stringIcSt11char_traitsIcESaIcEE3endEv
	mov	rdi, qword ptr [rbp - 96]
	mov	qword ptr [rdi], rax
	mov	rdi, qword ptr [rbp - 104]
	mov	rsi, qword ptr [rbp - 96]
	call	_ZN9__gnu_cxxltIPKcNSt7__cxx1112basic_stringIcSt11char_traitsIcESaIcEEEEEbRKNS_17__normal_iteratorIT_T0_EESE_
	mov	ecx, 3040097312
	mov	edx, 2671021467
	test	al, 1
	cmovne	ecx, edx
	mov	dword ptr [rbp - 136], ecx
	jmp	.LBB19_19
.LBB19_7:                               
	mov	rdi, qword ptr [rbp - 104]
	call	_ZNK9__gnu_cxx17__normal_iteratorIPKcNSt7__cxx1112basic_stringIcSt11char_traitsIcESaIcEEEEdeEv
	mov	ecx, 54569184
	mov	edx, 829053184
	movsx	esi, byte ptr [rax]
	cmp	esi, 49
	cmove	ecx, edx
	mov	dword ptr [rbp - 136], ecx
	jmp	.LBB19_19
.LBB19_8:                               
	mov	eax, 110390182
	mov	ecx, 3202685377
	mov	dl, 1
	mov	esi, dword ptr [x.80]
	mov	edi, dword ptr [y.81]
	mov	r8d, esi
	sub	r8d, -122126326
	sub	r8d, 1
	add	r8d, -122126326
	imul	esi, r8d
	and	esi, 1
	cmp	esi, 0
	sete	r9b
	cmp	edi, 10
	setl	r10b
	mov	r11b, r9b
	xor	r11b, -1
	mov	bl, r10b
	xor	bl, -1
	xor	dl, 1
	mov	r14b, r11b
	and	r14b, -1
	and	r9b, dl
	mov	r15b, bl
	and	r15b, -1
	and	r10b, dl
	or	r14b, r9b
	or	r15b, r10b
	xor	r14b, r15b
	or	r11b, bl
	xor	r11b, -1
	or	dl, 1
	and	r11b, dl
	or	r14b, r11b
	test	r14b, 1
	cmovne	eax, ecx
	mov	dword ptr [rbp - 136], eax
	jmp	.LBB19_19
.LBB19_9:                               
	movabs	rdi, _ZN3DES23initialPermutationTableE
	call	_ZNKSt5arrayIiLm64EE5beginEv
	movabs	rdi, _ZN3DES23initialPermutationTableE
	mov	qword ptr [rbp - 232], rax 
	call	_ZNKSt5arrayIiLm64EE5beginEv
	movabs	rdi, _ZN3DES23initialPermutationTableE
	mov	qword ptr [rbp - 240], rax 
	call	_ZNKSt5arrayIiLm64EE3endEv
	mov	rdi, qword ptr [rbp - 128]
	mov	rdi, qword ptr [rdi]
	mov	qword ptr [rbp - 248], rax 
	call	_ZNKSt7__cxx1112basic_stringIcSt11char_traitsIcESaIcEE5beginEv
	mov	rdi, qword ptr [rbp - 80]
	mov	qword ptr [rdi], rax
	mov	rax, qword ptr [rbp - 72]
	mov	rdi, qword ptr [rbp - 104]
	mov	rdi, qword ptr [rdi]
	mov	qword ptr [rax], rdi
	mov	rax, qword ptr [rbp - 80]
	mov	rdi, qword ptr [rax]
	mov	rax, qword ptr [rbp - 72]
	mov	rsi, qword ptr [rax]
	call	_ZSt8distanceIN9__gnu_cxx17__normal_iteratorIPKcNSt7__cxx1112basic_stringIcSt11char_traitsIcESaIcEEEEEENSt15iterator_traitsIT_E15difference_typeESC_SC_
	xor	ecx, ecx
	mov	esi, ecx
	sub	rsi, 1
	sub	rax, rsi
	mov	rsi, qword ptr [rbp - 88]
	mov	qword ptr [rsi], rax
	mov	rdx, qword ptr [rbp - 88]
	mov	rdi, qword ptr [rbp - 240] 
	mov	rsi, qword ptr [rbp - 248] 
	call	_ZSt4findIPKilET_S2_S2_RKT0_
	mov	rdi, qword ptr [rbp - 232] 
	mov	rsi, rax
	call	_ZSt8distanceIPKiENSt15iterator_traitsIT_E15difference_typeES3_S3_
	mov	edx, 1
	xor	ecx, ecx
	mov	r8d, eax
	mov	rax, qword ptr [rbp - 112]
	mov	dword ptr [rax], r8d
	mov	rax, qword ptr [rbp - 112]
	mov	r8d, dword ptr [rax]
	sub	ecx, r8d
	add	ecx, 63
	movsxd	rsi, ecx
	mov	rdi, qword ptr [rbp - 120]
	call	_ZNSt6bitsetILm64EE3setEmb
	mov	ecx, 110390182
	mov	edx, 2771015145
	xor	r8d, r8d
	mov	r9d, dword ptr [x.80]
	mov	r10d, dword ptr [y.81]
	sub	r8d, 1
	mov	r11d, r9d
	add	r11d, r8d
	imul	r9d, r11d
	and	r9d, 1
	cmp	r9d, 0
	sete	bl
	cmp	r10d, 10
	setl	r14b
	mov	r15b, bl
	and	r15b, r14b
	xor	bl, r14b
	or	r15b, bl
	test	r15b, 1
	cmovne	ecx, edx
	mov	dword ptr [rbp - 136], ecx
	mov	qword ptr [rbp - 256], rax 
	jmp	.LBB19_19
.LBB19_10:                              
	mov	dword ptr [rbp - 136], 54569184
	jmp	.LBB19_19
.LBB19_11:                              
	mov	eax, 3011281617
	mov	ecx, 2744984999
	xor	edx, edx
	mov	esi, dword ptr [x.80]
	mov	edi, dword ptr [y.81]
	sub	edx, 1
	mov	r8d, esi
	add	r8d, edx
	imul	esi, r8d
	and	esi, 1
	cmp	esi, 0
	sete	r9b
	cmp	edi, 10
	setl	r10b
	mov	r11b, r9b
	and	r11b, r10b
	xor	r9b, r10b
	or	r11b, r9b
	test	r11b, 1
	cmovne	eax, ecx
	mov	dword ptr [rbp - 136], eax
	jmp	.LBB19_19
.LBB19_12:                              
	mov	eax, 3011281617
	mov	ecx, 1524776513
	mov	dl, 1
	mov	esi, dword ptr [x.80]
	mov	edi, dword ptr [y.81]
	mov	r8d, esi
	add	r8d, 1183524520
	sub	r8d, 1
	sub	r8d, 1183524520
	imul	esi, r8d
	and	esi, 1
	cmp	esi, 0
	sete	r9b
	cmp	edi, 10
	setl	r10b
	mov	r11b, r9b
	xor	r11b, -1
	mov	bl, r10b
	xor	bl, -1
	xor	dl, 0
	mov	r14b, r11b
	and	r14b, 0
	and	r9b, dl
	mov	r15b, bl
	and	r15b, 0
	and	r10b, dl
	or	r14b, r9b
	or	r15b, r10b
	xor	r14b, r15b
	or	r11b, bl
	xor	r11b, -1
	or	dl, 0
	and	r11b, dl
	or	r14b, r11b
	test	r14b, 1
	cmovne	eax, ecx
	mov	dword ptr [rbp - 136], eax
	jmp	.LBB19_19
.LBB19_13:                              
	mov	dword ptr [rbp - 136], 1438148121
	jmp	.LBB19_19
.LBB19_14:                              
	xor	esi, esi
	mov	rdi, qword ptr [rbp - 104]
	call	_ZN9__gnu_cxx17__normal_iteratorIPKcNSt7__cxx1112basic_stringIcSt11char_traitsIcESaIcEEEEppEi
	mov	rdi, qword ptr [rbp - 64]
	mov	qword ptr [rdi], rax
	mov	dword ptr [rbp - 136], 336497528
	jmp	.LBB19_19
.LBB19_15:
	mov	rsi, qword ptr [rbp - 120]
	mov	rdi, qword ptr [rbp - 56]
	call	_ZNKSt6bitsetILm64EE9to_stringB5cxx11Ev
	mov	rsi, qword ptr [rbp - 48]
	add	rsi, 360
	mov	rdi, qword ptr [rbp - 56]
	mov	qword ptr [rbp - 264], rdi 
	mov	rdi, rsi
	mov	rsi, qword ptr [rbp - 264] 
	call	_ZNSt7__cxx1112basic_stringIcSt11char_traitsIcESaIcEEaSEOS4_
	mov	rdi, qword ptr [rbp - 56]
	mov	qword ptr [rbp - 272], rax 
	call	_ZNSt7__cxx1112basic_stringIcSt11char_traitsIcESaIcEED2Ev
	lea	rsp, [rbp - 40]
	pop	rbx
	pop	r12
	pop	r13
	pop	r14
	pop	r15
	pop	rbp
	ret
.LBB19_16:                              
	mov	rax, rsp
	add	rax, -16
	mov	rsp, rax
	mov	rcx, rsp
	add	rcx, -16
	mov	rsp, rcx
	mov	rdx, rsp
	add	rdx, -16
	mov	rsp, rdx
	mov	rsi, rsp
	add	rsi, -16
	mov	rsp, rsi
	mov	rsi, rsp
	add	rsi, -16
	mov	rsp, rsi
	mov	rdi, qword ptr [rbp - 144] 
	mov	qword ptr [rax], rdi
	mov	rax, qword ptr [rbp - 152] 
	mov	qword ptr [rcx], rax
	mov	rdi, rdx
	mov	qword ptr [rbp - 280], rsi 
	mov	qword ptr [rbp - 288], rcx 
	call	_ZNSt6bitsetILm64EEC2Ev
	mov	rax, qword ptr [rbp - 288] 
	mov	rdi, qword ptr [rax]
	call	_ZNKSt7__cxx1112basic_stringIcSt11char_traitsIcESaIcEE5beginEv
	mov	rcx, qword ptr [rbp - 280] 
	mov	qword ptr [rcx], rax
	mov	dword ptr [rbp - 136], -305901984
	jmp	.LBB19_19
.LBB19_17:                              
	movabs	rdi, _ZN3DES23initialPermutationTableE
	call	_ZNKSt5arrayIiLm64EE5beginEv
	movabs	rdi, _ZN3DES23initialPermutationTableE
	mov	qword ptr [rbp - 296], rax 
	call	_ZNKSt5arrayIiLm64EE5beginEv
	movabs	rdi, _ZN3DES23initialPermutationTableE
	mov	qword ptr [rbp - 304], rax 
	call	_ZNKSt5arrayIiLm64EE3endEv
	mov	rdi, qword ptr [rbp - 128]
	mov	rdi, qword ptr [rdi]
	mov	qword ptr [rbp - 312], rax 
	call	_ZNKSt7__cxx1112basic_stringIcSt11char_traitsIcESaIcEE5beginEv
	mov	rdi, qword ptr [rbp - 80]
	mov	qword ptr [rdi], rax
	mov	rax, qword ptr [rbp - 72]
	mov	rdi, qword ptr [rbp - 104]
	mov	rdi, qword ptr [rdi]
	mov	qword ptr [rax], rdi
	mov	rax, qword ptr [rbp - 80]
	mov	rdi, qword ptr [rax]
	mov	rax, qword ptr [rbp - 72]
	mov	rsi, qword ptr [rax]
	call	_ZSt8distanceIN9__gnu_cxx17__normal_iteratorIPKcNSt7__cxx1112basic_stringIcSt11char_traitsIcESaIcEEEEEENSt15iterator_traitsIT_E15difference_typeESC_SC_
	movabs	rsi, -309204759372894986
	sub	rax, rsi
	add	rax, 1
	add	rax, rsi
	mov	rsi, qword ptr [rbp - 88]
	mov	qword ptr [rsi], rax
	mov	rdx, qword ptr [rbp - 88]
	mov	rdi, qword ptr [rbp - 304] 
	mov	rsi, qword ptr [rbp - 312] 
	call	_ZSt4findIPKilET_S2_S2_RKT0_
	mov	rdi, qword ptr [rbp - 296] 
	mov	rsi, rax
	call	_ZSt8distanceIPKiENSt15iterator_traitsIT_E15difference_typeES3_S3_
	mov	edx, 1
	xor	ecx, ecx
	mov	r8d, eax
	mov	rax, qword ptr [rbp - 112]
	mov	dword ptr [rax], r8d
	mov	rax, qword ptr [rbp - 112]
	mov	r8d, dword ptr [rax]
	sub	ecx, r8d
	add	ecx, 63
	movsxd	rsi, ecx
	mov	rdi, qword ptr [rbp - 120]
	call	_ZNSt6bitsetILm64EE3setEmb
	mov	dword ptr [rbp - 136], -1092281919
	mov	qword ptr [rbp - 320], rax 
	jmp	.LBB19_19
.LBB19_18:                              
	mov	dword ptr [rbp - 136], -1549982297
.LBB19_19:                              
	jmp	.LBB19_1
.Lfunc_end19:
	.size	_ZN3DES12initialPermuERKNSt7__cxx1112basic_stringIcSt11char_traitsIcESaIcEEE, .Lfunc_end19-_ZN3DES12initialPermuERKNSt7__cxx1112basic_stringIcSt11char_traitsIcESaIcEEE
	.cfi_endproc

	.section	.text._ZNSt6bitsetILm64EEC2Ev,"axG",@progbits,_ZNSt6bitsetILm64EEC2Ev,comdat
	.weak	_ZNSt6bitsetILm64EEC2Ev 
	.p2align	4, 0x90
	.type	_ZNSt6bitsetILm64EEC2Ev,@function
_ZNSt6bitsetILm64EEC2Ev:                

	push	rbp
	mov	rbp, rsp
	sub	rsp, 16
	mov	qword ptr [rbp - 8], rdi
	mov	rdi, qword ptr [rbp - 8]
	call	_ZNSt12_Base_bitsetILm1EEC2Ev
	add	rsp, 16
	pop	rbp
	ret
.Lfunc_end20:
	.size	_ZNSt6bitsetILm64EEC2Ev, .Lfunc_end20-_ZNSt6bitsetILm64EEC2Ev

	.section	.text._ZNKSt7__cxx1112basic_stringIcSt11char_traitsIcESaIcEE5beginEv,"axG",@progbits,_ZNKSt7__cxx1112basic_stringIcSt11char_traitsIcESaIcEE5beginEv,comdat
	.weak	_ZNKSt7__cxx1112basic_stringIcSt11char_traitsIcESaIcEE5beginEv 
	.p2align	4, 0x90
	.type	_ZNKSt7__cxx1112basic_stringIcSt11char_traitsIcESaIcEE5beginEv,@function
_ZNKSt7__cxx1112basic_stringIcSt11char_traitsIcESaIcEE5beginEv: 
.Lfunc_begin5:
	.cfi_startproc
	.cfi_personality 3, __gxx_personality_v0
	.cfi_lsda 3, .Lexception5

	push	rbp
	mov	rbp, rsp
	sub	rsp, 48
	mov	qword ptr [rbp - 16], rdi
	mov	rdi, qword ptr [rbp - 16]
.Ltmp109:
	call	_ZNKSt7__cxx1112basic_stringIcSt11char_traitsIcESaIcEE7_M_dataEv
.Ltmp110:
	mov	qword ptr [rbp - 32], rax 
	jmp	.LBB21_1
.LBB21_1:
	lea	rdi, [rbp - 8]
	lea	rsi, [rbp - 24]
	mov	rax, qword ptr [rbp - 32] 
	mov	qword ptr [rbp - 24], rax
	call	_ZN9__gnu_cxx17__normal_iteratorIPKcNSt7__cxx1112basic_stringIcSt11char_traitsIcESaIcEEEEC2ERKS2_
	mov	rax, qword ptr [rbp - 8]
	add	rsp, 48
	pop	rbp
	ret
.LBB21_2:
.Ltmp111:
	mov	ecx, edx
	mov	rdi, rax
	mov	dword ptr [rbp - 36], ecx 
	call	__clang_call_terminate
.Lfunc_end21:
	.size	_ZNKSt7__cxx1112basic_stringIcSt11char_traitsIcESaIcEE5beginEv, .Lfunc_end21-_ZNKSt7__cxx1112basic_stringIcSt11char_traitsIcESaIcEE5beginEv
	.cfi_endproc
	.section	.gcc_except_table,"a",@progbits
	.p2align	2
GCC_except_table21:
.Lexception5:
	.byte	255                     
	.byte	3                       
	.byte	21                      
	.byte	3                       
	.byte	13                      
	.long	.Ltmp109-.Lfunc_begin5  
	.long	.Ltmp110-.Ltmp109       
	.long	.Ltmp111-.Lfunc_begin5  
	.byte	1                       
	.byte	1                       

	.byte	0                       

	.long	0                       
	.p2align	2

	.section	.text._ZN9__gnu_cxxltIPKcNSt7__cxx1112basic_stringIcSt11char_traitsIcESaIcEEEEEbRKNS_17__normal_iteratorIT_T0_EESE_,"axG",@progbits,_ZN9__gnu_cxxltIPKcNSt7__cxx1112basic_stringIcSt11char_traitsIcESaIcEEEEEbRKNS_17__normal_iteratorIT_T0_EESE_,comdat
	.weak	_ZN9__gnu_cxxltIPKcNSt7__cxx1112basic_stringIcSt11char_traitsIcESaIcEEEEEbRKNS_17__normal_iteratorIT_T0_EESE_ 
	.p2align	4, 0x90
	.type	_ZN9__gnu_cxxltIPKcNSt7__cxx1112basic_stringIcSt11char_traitsIcESaIcEEEEEbRKNS_17__normal_iteratorIT_T0_EESE_,@function
_ZN9__gnu_cxxltIPKcNSt7__cxx1112basic_stringIcSt11char_traitsIcESaIcEEEEEbRKNS_17__normal_iteratorIT_T0_EESE_: 

	push	rbp
	mov	rbp, rsp
	sub	rsp, 32
	mov	qword ptr [rbp - 8], rdi
	mov	qword ptr [rbp - 16], rsi
	mov	rdi, qword ptr [rbp - 8]
	call	_ZNK9__gnu_cxx17__normal_iteratorIPKcNSt7__cxx1112basic_stringIcSt11char_traitsIcESaIcEEEE4baseEv
	mov	rax, qword ptr [rax]
	mov	rdi, qword ptr [rbp - 16]
	mov	qword ptr [rbp - 24], rax 
	call	_ZNK9__gnu_cxx17__normal_iteratorIPKcNSt7__cxx1112basic_stringIcSt11char_traitsIcESaIcEEEE4baseEv
	mov	rsi, qword ptr [rbp - 24] 
	cmp	rsi, qword ptr [rax]
	setb	cl
	and	cl, 1
	movzx	eax, cl
	add	rsp, 32
	pop	rbp
	ret
.Lfunc_end22:
	.size	_ZN9__gnu_cxxltIPKcNSt7__cxx1112basic_stringIcSt11char_traitsIcESaIcEEEEEbRKNS_17__normal_iteratorIT_T0_EESE_, .Lfunc_end22-_ZN9__gnu_cxxltIPKcNSt7__cxx1112basic_stringIcSt11char_traitsIcESaIcEEEEEbRKNS_17__normal_iteratorIT_T0_EESE_

	.section	.text._ZNKSt7__cxx1112basic_stringIcSt11char_traitsIcESaIcEE3endEv,"axG",@progbits,_ZNKSt7__cxx1112basic_stringIcSt11char_traitsIcESaIcEE3endEv,comdat
	.weak	_ZNKSt7__cxx1112basic_stringIcSt11char_traitsIcESaIcEE3endEv 
	.p2align	4, 0x90
	.type	_ZNKSt7__cxx1112basic_stringIcSt11char_traitsIcESaIcEE3endEv,@function
_ZNKSt7__cxx1112basic_stringIcSt11char_traitsIcESaIcEE3endEv: 
.Lfunc_begin6:
	.cfi_startproc
	.cfi_personality 3, __gxx_personality_v0
	.cfi_lsda 3, .Lexception6

	push	rbp
	mov	rbp, rsp
	sub	rsp, 48
	mov	qword ptr [rbp - 16], rdi
	mov	rdi, qword ptr [rbp - 16]
.Ltmp112:
	mov	qword ptr [rbp - 32], rdi 
	call	_ZNKSt7__cxx1112basic_stringIcSt11char_traitsIcESaIcEE7_M_dataEv
.Ltmp113:
	mov	qword ptr [rbp - 40], rax 
	jmp	.LBB23_1
.LBB23_1:
	mov	rdi, qword ptr [rbp - 32] 
	call	_ZNKSt7__cxx1112basic_stringIcSt11char_traitsIcESaIcEE4sizeEv
	lea	rdi, [rbp - 8]
	lea	rsi, [rbp - 24]
	mov	rcx, qword ptr [rbp - 40] 
	add	rcx, rax
	mov	qword ptr [rbp - 24], rcx
	call	_ZN9__gnu_cxx17__normal_iteratorIPKcNSt7__cxx1112basic_stringIcSt11char_traitsIcESaIcEEEEC2ERKS2_
	mov	rax, qword ptr [rbp - 8]
	add	rsp, 48
	pop	rbp
	ret
.LBB23_2:
.Ltmp114:
	mov	ecx, edx
	mov	rdi, rax
	mov	dword ptr [rbp - 44], ecx 
	call	__clang_call_terminate
.Lfunc_end23:
	.size	_ZNKSt7__cxx1112basic_stringIcSt11char_traitsIcESaIcEE3endEv, .Lfunc_end23-_ZNKSt7__cxx1112basic_stringIcSt11char_traitsIcESaIcEE3endEv
	.cfi_endproc
	.section	.gcc_except_table,"a",@progbits
	.p2align	2
GCC_except_table23:
.Lexception6:
	.byte	255                     
	.byte	3                       
	.byte	21                      
	.byte	3                       
	.byte	13                      
	.long	.Ltmp112-.Lfunc_begin6  
	.long	.Ltmp113-.Ltmp112       
	.long	.Ltmp114-.Lfunc_begin6  
	.byte	1                       
	.byte	1                       

	.byte	0                       

	.long	0                       
	.p2align	2

	.section	.text._ZNK9__gnu_cxx17__normal_iteratorIPKcNSt7__cxx1112basic_stringIcSt11char_traitsIcESaIcEEEEdeEv,"axG",@progbits,_ZNK9__gnu_cxx17__normal_iteratorIPKcNSt7__cxx1112basic_stringIcSt11char_traitsIcESaIcEEEEdeEv,comdat
	.weak	_ZNK9__gnu_cxx17__normal_iteratorIPKcNSt7__cxx1112basic_stringIcSt11char_traitsIcESaIcEEEEdeEv 
	.p2align	4, 0x90
	.type	_ZNK9__gnu_cxx17__normal_iteratorIPKcNSt7__cxx1112basic_stringIcSt11char_traitsIcESaIcEEEEdeEv,@function
_ZNK9__gnu_cxx17__normal_iteratorIPKcNSt7__cxx1112basic_stringIcSt11char_traitsIcESaIcEEEEdeEv: 

	push	rbp
	mov	rbp, rsp
	mov	qword ptr [rbp - 8], rdi
	mov	rdi, qword ptr [rbp - 8]
	mov	rax, qword ptr [rdi]
	pop	rbp
	ret
.Lfunc_end24:
	.size	_ZNK9__gnu_cxx17__normal_iteratorIPKcNSt7__cxx1112basic_stringIcSt11char_traitsIcESaIcEEEEdeEv, .Lfunc_end24-_ZNK9__gnu_cxx17__normal_iteratorIPKcNSt7__cxx1112basic_stringIcSt11char_traitsIcESaIcEEEEdeEv

	.section	.text._ZSt8distanceIPKiENSt15iterator_traitsIT_E15difference_typeES3_S3_,"axG",@progbits,_ZSt8distanceIPKiENSt15iterator_traitsIT_E15difference_typeES3_S3_,comdat
	.weak	_ZSt8distanceIPKiENSt15iterator_traitsIT_E15difference_typeES3_S3_ 
	.p2align	4, 0x90
	.type	_ZSt8distanceIPKiENSt15iterator_traitsIT_E15difference_typeES3_S3_,@function
_ZSt8distanceIPKiENSt15iterator_traitsIT_E15difference_typeES3_S3_: 
	.cfi_startproc

	push	rbp
.Lcfi46:
	.cfi_def_cfa_offset 16
.Lcfi47:
	.cfi_offset rbp, -16
	mov	rbp, rsp
.Lcfi48:
	.cfi_def_cfa_register rbp
	sub	rsp, 48
	lea	rax, [rbp - 8]
	mov	qword ptr [rbp - 8], rdi
	mov	qword ptr [rbp - 16], rsi
	mov	rdi, qword ptr [rbp - 8]
	mov	rsi, qword ptr [rbp - 16]
	mov	qword ptr [rbp - 40], rdi 
	mov	rdi, rax
	mov	qword ptr [rbp - 48], rsi 
	call	_ZSt19__iterator_categoryIPKiENSt15iterator_traitsIT_E17iterator_categoryERKS3_
	mov	rdi, qword ptr [rbp - 40] 
	mov	rsi, qword ptr [rbp - 48] 
	call	_ZSt10__distanceIPKiENSt15iterator_traitsIT_E15difference_typeES3_S3_St26random_access_iterator_tag
	add	rsp, 48
	pop	rbp
	ret
.Lfunc_end25:
	.size	_ZSt8distanceIPKiENSt15iterator_traitsIT_E15difference_typeES3_S3_, .Lfunc_end25-_ZSt8distanceIPKiENSt15iterator_traitsIT_E15difference_typeES3_S3_
	.cfi_endproc

	.section	.text._ZNKSt5arrayIiLm64EE5beginEv,"axG",@progbits,_ZNKSt5arrayIiLm64EE5beginEv,comdat
	.weak	_ZNKSt5arrayIiLm64EE5beginEv 
	.p2align	4, 0x90
	.type	_ZNKSt5arrayIiLm64EE5beginEv,@function
_ZNKSt5arrayIiLm64EE5beginEv:           

	push	rbp
	mov	rbp, rsp
	sub	rsp, 16
	mov	qword ptr [rbp - 8], rdi
	mov	rdi, qword ptr [rbp - 8]
	call	_ZNKSt5arrayIiLm64EE4dataEv
	add	rsp, 16
	pop	rbp
	ret
.Lfunc_end26:
	.size	_ZNKSt5arrayIiLm64EE5beginEv, .Lfunc_end26-_ZNKSt5arrayIiLm64EE5beginEv

	.section	.text._ZSt4findIPKilET_S2_S2_RKT0_,"axG",@progbits,_ZSt4findIPKilET_S2_S2_RKT0_,comdat
	.weak	_ZSt4findIPKilET_S2_S2_RKT0_ 
	.p2align	4, 0x90
	.type	_ZSt4findIPKilET_S2_S2_RKT0_,@function
_ZSt4findIPKilET_S2_S2_RKT0_:           
	.cfi_startproc

	push	rbp
.Lcfi49:
	.cfi_def_cfa_offset 16
.Lcfi50:
	.cfi_offset rbp, -16
	mov	rbp, rsp
.Lcfi51:
	.cfi_def_cfa_register rbp
	sub	rsp, 48
	mov	qword ptr [rbp - 8], rdi
	mov	qword ptr [rbp - 16], rsi
	mov	qword ptr [rbp - 24], rdx
	mov	rdi, qword ptr [rbp - 8]
	mov	rsi, qword ptr [rbp - 16]
	mov	rdx, qword ptr [rbp - 24]
	mov	qword ptr [rbp - 40], rdi 
	mov	rdi, rdx
	mov	qword ptr [rbp - 48], rsi 
	call	_ZN9__gnu_cxx5__ops17__iter_equals_valIKlEENS0_16_Iter_equals_valIT_EERS4_
	mov	qword ptr [rbp - 32], rax
	mov	rdx, qword ptr [rbp - 32]
	mov	rdi, qword ptr [rbp - 40] 
	mov	rsi, qword ptr [rbp - 48] 
	call	_ZSt9__find_ifIPKiN9__gnu_cxx5__ops16_Iter_equals_valIKlEEET_S7_S7_T0_
	add	rsp, 48
	pop	rbp
	ret
.Lfunc_end27:
	.size	_ZSt4findIPKilET_S2_S2_RKT0_, .Lfunc_end27-_ZSt4findIPKilET_S2_S2_RKT0_
	.cfi_endproc

	.section	.text._ZNKSt5arrayIiLm64EE3endEv,"axG",@progbits,_ZNKSt5arrayIiLm64EE3endEv,comdat
	.weak	_ZNKSt5arrayIiLm64EE3endEv 
	.p2align	4, 0x90
	.type	_ZNKSt5arrayIiLm64EE3endEv,@function
_ZNKSt5arrayIiLm64EE3endEv:             

	push	rbp
	mov	rbp, rsp
	push	r14
	push	rbx
	sub	rsp, 64
	xor	eax, eax
	mov	ecx, dword ptr [x.94]
	mov	edx, dword ptr [y.95]
	sub	eax, 1
	mov	esi, ecx
	add	esi, eax
	imul	ecx, esi
	and	ecx, 1
	cmp	ecx, 0
	sete	r8b
	and	r8b, 1
	mov	byte ptr [rbp - 26], r8b
	cmp	edx, 10
	setl	r8b
	and	r8b, 1
	mov	byte ptr [rbp - 25], r8b
	mov	dword ptr [rbp - 32], -1515743943
	mov	qword ptr [rbp - 40], rdi 
.LBB28_1:                               
	mov	eax, dword ptr [rbp - 32]
	mov	ecx, eax
	sub	ecx, -1515743943
	mov	dword ptr [rbp - 44], eax 
	mov	dword ptr [rbp - 48], ecx 
	je	.LBB28_3
	jmp	.LBB28_8
.LBB28_8:                               
	mov	eax, dword ptr [rbp - 44] 
	sub	eax, -537017920
	mov	dword ptr [rbp - 52], eax 
	je	.LBB28_5
	jmp	.LBB28_9
.LBB28_9:                               
	mov	eax, dword ptr [rbp - 44] 
	sub	eax, 81940245
	mov	dword ptr [rbp - 56], eax 
	je	.LBB28_6
	jmp	.LBB28_10
.LBB28_10:                              
	mov	eax, dword ptr [rbp - 44] 
	sub	eax, 344354483
	mov	dword ptr [rbp - 60], eax 
	je	.LBB28_4
	jmp	.LBB28_2
.LBB28_2:                               
	jmp	.LBB28_7
.LBB28_3:                               
	mov	eax, 81940245
	mov	ecx, 344354483
	mov	dl, 1
	mov	sil, byte ptr [rbp - 26]
	mov	dil, byte ptr [rbp - 25]
	mov	r8b, sil
	xor	r8b, -1
	mov	r9b, dil
	xor	r9b, -1
	xor	dl, 0
	mov	r10b, r8b
	and	r10b, 0
	and	sil, dl
	mov	r11b, r9b
	and	r11b, 0
	and	dil, dl
	or	r10b, sil
	or	r11b, dil
	xor	r10b, r11b
	or	r8b, r9b
	xor	r8b, -1
	or	dl, 0
	and	r8b, dl
	or	r10b, r8b
	test	r10b, 1
	cmovne	eax, ecx
	mov	dword ptr [rbp - 32], eax
	jmp	.LBB28_7
.LBB28_4:                               
	mov	rax, rsp
	add	rax, -16
	mov	rsp, rax
	mov	rcx, qword ptr [rbp - 40] 
	mov	qword ptr [rax], rcx
	mov	rdi, qword ptr [rax]
	call	_ZNKSt5arrayIiLm64EE4dataEv
	mov	edx, 81940245
	mov	esi, 3757949376
	add	rax, 256
	mov	qword ptr [rbp - 24], rax
	mov	r8d, dword ptr [x.94]
	mov	r9d, dword ptr [y.95]
	mov	r10d, r8d
	add	r10d, 1349006355
	sub	r10d, 1
	sub	r10d, 1349006355
	imul	r8d, r10d
	and	r8d, 1
	cmp	r8d, 0
	sete	r11b
	cmp	r9d, 10
	setl	bl
	mov	r14b, r11b
	and	r14b, bl
	xor	r11b, bl
	or	r14b, r11b
	test	r14b, 1
	cmovne	edx, esi
	mov	dword ptr [rbp - 32], edx
	jmp	.LBB28_7
.LBB28_5:
	mov	rax, qword ptr [rbp - 24]
	lea	rsp, [rbp - 16]
	pop	rbx
	pop	r14
	pop	rbp
	ret
.LBB28_6:                               
	mov	rax, rsp
	add	rax, -16
	mov	rsp, rax
	mov	rcx, qword ptr [rbp - 40] 
	mov	qword ptr [rax], rcx
	mov	rdi, qword ptr [rax]
	call	_ZNKSt5arrayIiLm64EE4dataEv
	mov	dword ptr [rbp - 32], 344354483
	mov	qword ptr [rbp - 72], rax 
.LBB28_7:                               
	jmp	.LBB28_1
.Lfunc_end28:
	.size	_ZNKSt5arrayIiLm64EE3endEv, .Lfunc_end28-_ZNKSt5arrayIiLm64EE3endEv

	.section	.text._ZSt8distanceIN9__gnu_cxx17__normal_iteratorIPKcNSt7__cxx1112basic_stringIcSt11char_traitsIcESaIcEEEEEENSt15iterator_traitsIT_E15difference_typeESC_SC_,"axG",@progbits,_ZSt8distanceIN9__gnu_cxx17__normal_iteratorIPKcNSt7__cxx1112basic_stringIcSt11char_traitsIcESaIcEEEEEENSt15iterator_traitsIT_E15difference_typeESC_SC_,comdat
	.weak	_ZSt8distanceIN9__gnu_cxx17__normal_iteratorIPKcNSt7__cxx1112basic_stringIcSt11char_traitsIcESaIcEEEEEENSt15iterator_traitsIT_E15difference_typeESC_SC_ 
	.p2align	4, 0x90
	.type	_ZSt8distanceIN9__gnu_cxx17__normal_iteratorIPKcNSt7__cxx1112basic_stringIcSt11char_traitsIcESaIcEEEEEENSt15iterator_traitsIT_E15difference_typeESC_SC_,@function
_ZSt8distanceIN9__gnu_cxx17__normal_iteratorIPKcNSt7__cxx1112basic_stringIcSt11char_traitsIcESaIcEEEEEENSt15iterator_traitsIT_E15difference_typeESC_SC_: 
	.cfi_startproc

	push	rbp
.Lcfi52:
	.cfi_def_cfa_offset 16
.Lcfi53:
	.cfi_offset rbp, -16
	mov	rbp, rsp
.Lcfi54:
	.cfi_def_cfa_register rbp
	push	r15
	push	r14
	push	r13
	push	r12
	push	rbx
	sub	rsp, 104
.Lcfi55:
	.cfi_offset rbx, -56
.Lcfi56:
	.cfi_offset r12, -48
.Lcfi57:
	.cfi_offset r13, -40
.Lcfi58:
	.cfi_offset r14, -32
.Lcfi59:
	.cfi_offset r15, -24
	mov	eax, dword ptr [x.96]
	mov	ecx, dword ptr [y.97]
	mov	edx, eax
	add	edx, 579518711
	sub	edx, 1
	sub	edx, 579518711
	imul	eax, edx
	and	eax, 1
	cmp	eax, 0
	sete	r8b
	and	r8b, 1
	mov	byte ptr [rbp - 50], r8b
	cmp	ecx, 10
	setl	r8b
	and	r8b, 1
	mov	byte ptr [rbp - 49], r8b
	mov	dword ptr [rbp - 56], 1737560975
	mov	qword ptr [rbp - 64], rdi 
	mov	qword ptr [rbp - 72], rsi 
.LBB29_1:                               
	mov	eax, dword ptr [rbp - 56]
	mov	ecx, eax
	sub	ecx, -2087169016
	mov	dword ptr [rbp - 76], eax 
	mov	dword ptr [rbp - 80], ecx 
	je	.LBB29_5
	jmp	.LBB29_8
.LBB29_8:                               
	mov	eax, dword ptr [rbp - 76] 
	sub	eax, 699914929
	mov	dword ptr [rbp - 84], eax 
	je	.LBB29_6
	jmp	.LBB29_9
.LBB29_9:                               
	mov	eax, dword ptr [rbp - 76] 
	sub	eax, 1328405340
	mov	dword ptr [rbp - 88], eax 
	je	.LBB29_4
	jmp	.LBB29_10
.LBB29_10:                              
	mov	eax, dword ptr [rbp - 76] 
	sub	eax, 1737560975
	mov	dword ptr [rbp - 92], eax 
	je	.LBB29_3
	jmp	.LBB29_2
.LBB29_2:                               
	jmp	.LBB29_7
.LBB29_3:                               
	mov	eax, 699914929
	mov	ecx, 1328405340
	mov	dl, 1
	mov	sil, byte ptr [rbp - 50]
	mov	dil, byte ptr [rbp - 49]
	mov	r8b, sil
	xor	r8b, -1
	mov	r9b, dil
	xor	r9b, -1
	xor	dl, 0
	mov	r10b, r8b
	and	r10b, 0
	and	sil, dl
	mov	r11b, r9b
	and	r11b, 0
	and	dil, dl
	or	r10b, sil
	or	r11b, dil
	xor	r10b, r11b
	or	r8b, r9b
	xor	r8b, -1
	or	dl, 0
	and	r8b, dl
	or	r10b, r8b
	test	r10b, 1
	cmovne	eax, ecx
	mov	dword ptr [rbp - 56], eax
	jmp	.LBB29_7
.LBB29_4:                               
	mov	rax, rsp
	add	rax, -16
	mov	rsp, rax
	mov	rcx, rsp
	add	rcx, -16
	mov	rsp, rcx
	mov	rdx, rsp
	add	rdx, -16
	mov	rsp, rdx
	mov	rsi, rsp
	add	rsi, -16
	mov	rsp, rsi
	mov	rdi, qword ptr [rbp - 64] 
	mov	qword ptr [rax], rdi
	mov	r8, qword ptr [rbp - 72] 
	mov	qword ptr [rcx], r8
	mov	r9, qword ptr [rax]
	mov	qword ptr [rdx], r9
	mov	rcx, qword ptr [rcx]
	mov	qword ptr [rsi], rcx
	mov	rdi, rax
	mov	qword ptr [rbp - 104], rsi 
	mov	qword ptr [rbp - 112], rdx 
	call	_ZSt19__iterator_categoryIN9__gnu_cxx17__normal_iteratorIPKcNSt7__cxx1112basic_stringIcSt11char_traitsIcESaIcEEEEEENSt15iterator_traitsIT_E17iterator_categoryERKSC_
	mov	rax, qword ptr [rbp - 112] 
	mov	rdi, qword ptr [rax]
	mov	rcx, qword ptr [rbp - 104] 
	mov	rsi, qword ptr [rcx]
	call	_ZSt10__distanceIN9__gnu_cxx17__normal_iteratorIPKcNSt7__cxx1112basic_stringIcSt11char_traitsIcESaIcEEEEEENSt15iterator_traitsIT_E15difference_typeESC_SC_St26random_access_iterator_tag
	mov	r10d, 699914929
	mov	r11d, 2207798280
	xor	ebx, ebx
	mov	qword ptr [rbp - 48], rax
	mov	r14d, dword ptr [x.96]
	mov	r15d, dword ptr [y.97]
	sub	ebx, 1
	mov	r12d, r14d
	add	r12d, ebx
	imul	r14d, r12d
	and	r14d, 1
	cmp	r14d, 0
	sete	r13b
	cmp	r15d, 10
	setl	al
	mov	cl, r13b
	and	cl, al
	xor	r13b, al
	or	cl, r13b
	test	cl, 1
	cmovne	r10d, r11d
	mov	dword ptr [rbp - 56], r10d
	jmp	.LBB29_7
.LBB29_5:
	mov	rax, qword ptr [rbp - 48]
	lea	rsp, [rbp - 40]
	pop	rbx
	pop	r12
	pop	r13
	pop	r14
	pop	r15
	pop	rbp
	ret
.LBB29_6:                               
	mov	rax, rsp
	add	rax, -16
	mov	rsp, rax
	mov	rcx, rsp
	add	rcx, -16
	mov	rsp, rcx
	mov	rdx, rsp
	add	rdx, -16
	mov	rsp, rdx
	mov	rsi, rsp
	add	rsi, -16
	mov	rsp, rsi
	mov	rdi, qword ptr [rbp - 64] 
	mov	qword ptr [rax], rdi
	mov	r8, qword ptr [rbp - 72] 
	mov	qword ptr [rcx], r8
	mov	r9, qword ptr [rax]
	mov	qword ptr [rdx], r9
	mov	rcx, qword ptr [rcx]
	mov	qword ptr [rsi], rcx
	mov	rdi, rax
	mov	qword ptr [rbp - 120], rsi 
	mov	qword ptr [rbp - 128], rdx 
	call	_ZSt19__iterator_categoryIN9__gnu_cxx17__normal_iteratorIPKcNSt7__cxx1112basic_stringIcSt11char_traitsIcESaIcEEEEEENSt15iterator_traitsIT_E17iterator_categoryERKSC_
	mov	rax, qword ptr [rbp - 128] 
	mov	rdi, qword ptr [rax]
	mov	rcx, qword ptr [rbp - 120] 
	mov	rsi, qword ptr [rcx]
	call	_ZSt10__distanceIN9__gnu_cxx17__normal_iteratorIPKcNSt7__cxx1112basic_stringIcSt11char_traitsIcESaIcEEEEEENSt15iterator_traitsIT_E15difference_typeESC_SC_St26random_access_iterator_tag
	mov	dword ptr [rbp - 56], 1328405340
	mov	qword ptr [rbp - 136], rax 
.LBB29_7:                               
	jmp	.LBB29_1
.Lfunc_end29:
	.size	_ZSt8distanceIN9__gnu_cxx17__normal_iteratorIPKcNSt7__cxx1112basic_stringIcSt11char_traitsIcESaIcEEEEEENSt15iterator_traitsIT_E15difference_typeESC_SC_, .Lfunc_end29-_ZSt8distanceIN9__gnu_cxx17__normal_iteratorIPKcNSt7__cxx1112basic_stringIcSt11char_traitsIcESaIcEEEEEENSt15iterator_traitsIT_E15difference_typeESC_SC_
	.cfi_endproc

	.section	.text._ZNSt6bitsetILm64EE3setEmb,"axG",@progbits,_ZNSt6bitsetILm64EE3setEmb,comdat
	.weak	_ZNSt6bitsetILm64EE3setEmb 
	.p2align	4, 0x90
	.type	_ZNSt6bitsetILm64EE3setEmb,@function
_ZNSt6bitsetILm64EE3setEmb:             
	.cfi_startproc

	push	rbp
.Lcfi60:
	.cfi_def_cfa_offset 16
.Lcfi61:
	.cfi_offset rbp, -16
	mov	rbp, rsp
.Lcfi62:
	.cfi_def_cfa_register rbp
	push	r15
	push	r14
	push	r13
	push	r12
	push	rbx
	sub	rsp, 120
.Lcfi63:
	.cfi_offset rbx, -56
.Lcfi64:
	.cfi_offset r12, -48
.Lcfi65:
	.cfi_offset r13, -40
.Lcfi66:
	.cfi_offset r14, -32
.Lcfi67:
	.cfi_offset r15, -24
	mov	al, dl
	mov	edx, dword ptr [x.98]
	mov	ecx, dword ptr [y.99]
	mov	r8d, edx
	sub	r8d, 1852862410
	sub	r8d, 1
	add	r8d, 1852862410
	imul	edx, r8d
	and	edx, 1
	cmp	edx, 0
	sete	r9b
	and	r9b, 1
	mov	byte ptr [rbp - 50], r9b
	cmp	ecx, 10
	setl	r9b
	and	r9b, 1
	mov	byte ptr [rbp - 49], r9b
	mov	dword ptr [rbp - 56], 1093019011
	mov	qword ptr [rbp - 64], rsi 
	mov	byte ptr [rbp - 65], al 
	mov	qword ptr [rbp - 80], rdi 
.LBB30_1:                               
	mov	eax, dword ptr [rbp - 56]
	mov	ecx, eax
	sub	ecx, -1612001762
	mov	dword ptr [rbp - 84], eax 
	mov	dword ptr [rbp - 88], ecx 
	je	.LBB30_4
	jmp	.LBB30_8
.LBB30_8:                               
	mov	eax, dword ptr [rbp - 84] 
	sub	eax, 524866828
	mov	dword ptr [rbp - 92], eax 
	je	.LBB30_5
	jmp	.LBB30_9
.LBB30_9:                               
	mov	eax, dword ptr [rbp - 84] 
	sub	eax, 1093019011
	mov	dword ptr [rbp - 96], eax 
	je	.LBB30_3
	jmp	.LBB30_10
.LBB30_10:                              
	mov	eax, dword ptr [rbp - 84] 
	sub	eax, 1912688603
	mov	dword ptr [rbp - 100], eax 
	je	.LBB30_6
	jmp	.LBB30_2
.LBB30_2:                               
	jmp	.LBB30_7
.LBB30_3:                               
	mov	eax, 1912688603
	mov	ecx, 2682965534
	mov	dl, 1
	mov	sil, byte ptr [rbp - 50]
	mov	dil, byte ptr [rbp - 49]
	mov	r8b, sil
	xor	r8b, -1
	mov	r9b, dil
	xor	r9b, -1
	xor	dl, 1
	mov	r10b, r8b
	and	r10b, -1
	and	sil, dl
	mov	r11b, r9b
	and	r11b, -1
	and	dil, dl
	or	r10b, sil
	or	r11b, dil
	xor	r10b, r11b
	or	r8b, r9b
	xor	r8b, -1
	or	dl, 1
	and	r8b, dl
	or	r10b, r8b
	test	r10b, 1
	cmovne	eax, ecx
	mov	dword ptr [rbp - 56], eax
	jmp	.LBB30_7
.LBB30_4:                               
	movabs	rdx, .L.str.48
	mov	rax, rsp
	add	rax, -16
	mov	rsp, rax
	mov	rcx, rsp
	add	rcx, -16
	mov	rsp, rcx
	mov	rsi, rsp
	add	rsi, -16
	mov	rsp, rsi
	mov	rdi, qword ptr [rbp - 80] 
	mov	qword ptr [rax], rdi
	mov	r8, qword ptr [rbp - 64] 
	mov	qword ptr [rcx], r8
	mov	r9b, byte ptr [rbp - 65] 
	and	r9b, 1
	mov	byte ptr [rsi], r9b
	mov	rax, qword ptr [rax]
	mov	r10, qword ptr [rcx]
	mov	rdi, rax
	mov	qword ptr [rbp - 112], rsi 
	mov	rsi, r10
	mov	qword ptr [rbp - 120], rax 
	mov	qword ptr [rbp - 128], rcx 
	call	_ZNKSt6bitsetILm64EE8_M_checkEmPKc
	mov	rax, qword ptr [rbp - 128] 
	mov	rsi, qword ptr [rax]
	mov	rcx, qword ptr [rbp - 112] 
	mov	r9b, byte ptr [rcx]
	and	r9b, 1
	movzx	edx, r9b
	mov	rdi, qword ptr [rbp - 120] 
	call	_ZNSt6bitsetILm64EE14_Unchecked_setEmi
	mov	edx, 1912688603
	mov	r11d, 524866828
	mov	r9b, 1
	mov	qword ptr [rbp - 48], rax
	mov	ebx, dword ptr [x.98]
	mov	r14d, dword ptr [y.99]
	mov	r15d, ebx
	add	r15d, 1906510149
	sub	r15d, 1
	sub	r15d, 1906510149
	imul	ebx, r15d
	and	ebx, 1
	cmp	ebx, 0
	sete	r12b
	cmp	r14d, 10
	setl	r13b
	mov	al, r12b
	xor	al, -1
	mov	cl, r13b
	xor	cl, -1
	xor	r9b, 1
	mov	sil, al
	and	sil, -1
	and	r12b, r9b
	mov	dil, cl
	and	dil, -1
	and	r13b, r9b
	or	sil, r12b
	or	dil, r13b
	xor	sil, dil
	or	al, cl
	xor	al, -1
	or	r9b, 1
	and	al, r9b
	or	sil, al
	test	sil, 1
	cmovne	edx, r11d
	mov	dword ptr [rbp - 56], edx
	jmp	.LBB30_7
.LBB30_5:
	mov	rax, qword ptr [rbp - 48]
	lea	rsp, [rbp - 40]
	pop	rbx
	pop	r12
	pop	r13
	pop	r14
	pop	r15
	pop	rbp
	ret
.LBB30_6:                               
	movabs	rdx, .L.str.48
	mov	rax, rsp
	add	rax, -16
	mov	rsp, rax
	mov	rcx, rsp
	add	rcx, -16
	mov	rsp, rcx
	mov	rsi, rsp
	add	rsi, -16
	mov	rsp, rsi
	mov	rdi, qword ptr [rbp - 80] 
	mov	qword ptr [rax], rdi
	mov	r8, qword ptr [rbp - 64] 
	mov	qword ptr [rcx], r8
	mov	r9b, byte ptr [rbp - 65] 
	and	r9b, 1
	mov	byte ptr [rsi], r9b
	mov	rax, qword ptr [rax]
	mov	r10, qword ptr [rcx]
	mov	rdi, rax
	mov	qword ptr [rbp - 136], rsi 
	mov	rsi, r10
	mov	qword ptr [rbp - 144], rax 
	mov	qword ptr [rbp - 152], rcx 
	call	_ZNKSt6bitsetILm64EE8_M_checkEmPKc
	mov	rax, qword ptr [rbp - 152] 
	mov	rsi, qword ptr [rax]
	mov	rcx, qword ptr [rbp - 136] 
	mov	r9b, byte ptr [rcx]
	and	r9b, 1
	movzx	edx, r9b
	mov	rdi, qword ptr [rbp - 144] 
	call	_ZNSt6bitsetILm64EE14_Unchecked_setEmi
	mov	dword ptr [rbp - 56], -1612001762
	mov	qword ptr [rbp - 160], rax 
.LBB30_7:                               
	jmp	.LBB30_1
.Lfunc_end30:
	.size	_ZNSt6bitsetILm64EE3setEmb, .Lfunc_end30-_ZNSt6bitsetILm64EE3setEmb
	.cfi_endproc

	.section	.text._ZN9__gnu_cxx17__normal_iteratorIPKcNSt7__cxx1112basic_stringIcSt11char_traitsIcESaIcEEEEppEi,"axG",@progbits,_ZN9__gnu_cxx17__normal_iteratorIPKcNSt7__cxx1112basic_stringIcSt11char_traitsIcESaIcEEEEppEi,comdat
	.weak	_ZN9__gnu_cxx17__normal_iteratorIPKcNSt7__cxx1112basic_stringIcSt11char_traitsIcESaIcEEEEppEi 
	.p2align	4, 0x90
	.type	_ZN9__gnu_cxx17__normal_iteratorIPKcNSt7__cxx1112basic_stringIcSt11char_traitsIcESaIcEEEEppEi,@function
_ZN9__gnu_cxx17__normal_iteratorIPKcNSt7__cxx1112basic_stringIcSt11char_traitsIcESaIcEEEEppEi: 

	push	rbp
	mov	rbp, rsp
	push	r15
	push	r14
	push	r13
	push	r12
	push	rbx
	sub	rsp, 56
	mov	eax, dword ptr [x.100]
	mov	ecx, dword ptr [y.101]
	mov	edx, eax
	add	edx, 526355056
	sub	edx, 1
	sub	edx, 526355056
	imul	eax, edx
	and	eax, 1
	cmp	eax, 0
	sete	r8b
	and	r8b, 1
	mov	byte ptr [rbp - 50], r8b
	cmp	ecx, 10
	setl	r8b
	and	r8b, 1
	mov	byte ptr [rbp - 49], r8b
	mov	dword ptr [rbp - 56], 1037983347
	mov	qword ptr [rbp - 64], rdi 
	mov	dword ptr [rbp - 68], esi 
.LBB31_1:                               
	mov	eax, dword ptr [rbp - 56]
	mov	ecx, eax
	sub	ecx, -1305183099
	mov	dword ptr [rbp - 72], eax 
	mov	dword ptr [rbp - 76], ecx 
	je	.LBB31_6
	jmp	.LBB31_8
.LBB31_8:                               
	mov	eax, dword ptr [rbp - 72] 
	sub	eax, 139108962
	mov	dword ptr [rbp - 80], eax 
	je	.LBB31_5
	jmp	.LBB31_9
.LBB31_9:                               
	mov	eax, dword ptr [rbp - 72] 
	sub	eax, 296343616
	mov	dword ptr [rbp - 84], eax 
	je	.LBB31_4
	jmp	.LBB31_10
.LBB31_10:                              
	mov	eax, dword ptr [rbp - 72] 
	sub	eax, 1037983347
	mov	dword ptr [rbp - 88], eax 
	je	.LBB31_3
	jmp	.LBB31_2
.LBB31_2:                               
	jmp	.LBB31_7
.LBB31_3:                               
	mov	eax, 2989784197
	mov	ecx, 296343616
	mov	dl, byte ptr [rbp - 50]
	mov	sil, byte ptr [rbp - 49]
	mov	dil, dl
	and	dil, sil
	xor	dl, sil
	or	dil, dl
	test	dil, 1
	cmovne	eax, ecx
	mov	dword ptr [rbp - 56], eax
	jmp	.LBB31_7
.LBB31_4:                               
	mov	rax, rsp
	add	rax, -16
	mov	rsp, rax
	mov	rcx, rsp
	add	rcx, -16
	mov	rsp, rcx
	mov	rdx, rsp
	add	rdx, -16
	mov	rsp, rdx
	mov	rsi, rsp
	add	rsi, -16
	mov	rsp, rsi
	mov	rdi, qword ptr [rbp - 64] 
	mov	qword ptr [rcx], rdi
	mov	r8d, dword ptr [rbp - 68] 
	mov	dword ptr [rdx], r8d
	mov	rcx, qword ptr [rcx]
	mov	rdx, qword ptr [rcx]
	mov	r9, rdx
	add	r9, 1
	mov	qword ptr [rcx], r9
	mov	qword ptr [rsi], rdx
	mov	rdi, rax
	mov	qword ptr [rbp - 96], rax 
	call	_ZN9__gnu_cxx17__normal_iteratorIPKcNSt7__cxx1112basic_stringIcSt11char_traitsIcESaIcEEEEC2ERKS2_
	mov	r8d, 2989784197
	mov	r10d, 139108962
	mov	r11b, 1
	xor	ebx, ebx
	mov	rax, qword ptr [rbp - 96] 
	mov	rcx, qword ptr [rax]
	mov	qword ptr [rbp - 48], rcx
	mov	r14d, dword ptr [x.100]
	mov	r15d, dword ptr [y.101]
	sub	ebx, 1
	mov	r12d, r14d
	add	r12d, ebx
	imul	r14d, r12d
	and	r14d, 1
	cmp	r14d, 0
	sete	r13b
	cmp	r15d, 10
	setl	al
	mov	cl, r13b
	xor	cl, -1
	mov	dl, al
	xor	dl, -1
	xor	r11b, 0
	mov	sil, cl
	and	sil, 0
	and	r13b, r11b
	mov	dil, dl
	and	dil, 0
	and	al, r11b
	or	sil, r13b
	or	dil, al
	xor	sil, dil
	or	cl, dl
	xor	cl, -1
	or	r11b, 0
	and	cl, r11b
	or	sil, cl
	test	sil, 1
	cmovne	r8d, r10d
	mov	dword ptr [rbp - 56], r8d
	jmp	.LBB31_7
.LBB31_5:
	mov	rax, qword ptr [rbp - 48]
	lea	rsp, [rbp - 40]
	pop	rbx
	pop	r12
	pop	r13
	pop	r14
	pop	r15
	pop	rbp
	ret
.LBB31_6:                               
	mov	rax, rsp
	add	rax, -16
	mov	rsp, rax
	mov	rcx, rsp
	add	rcx, -16
	mov	rsp, rcx
	mov	rdx, rsp
	add	rdx, -16
	mov	rsp, rdx
	mov	rsi, rsp
	add	rsi, -16
	mov	rsp, rsi
	mov	rdi, qword ptr [rbp - 64] 
	mov	qword ptr [rcx], rdi
	mov	r8d, dword ptr [rbp - 68] 
	mov	dword ptr [rdx], r8d
	mov	rcx, qword ptr [rcx]
	mov	rdx, qword ptr [rcx]
	mov	r9, rdx
	add	r9, 1
	mov	qword ptr [rcx], r9
	mov	qword ptr [rsi], rdx
	mov	rdi, rax
	call	_ZN9__gnu_cxx17__normal_iteratorIPKcNSt7__cxx1112basic_stringIcSt11char_traitsIcESaIcEEEEC2ERKS2_
	mov	dword ptr [rbp - 56], 296343616
.LBB31_7:                               
	jmp	.LBB31_1
.Lfunc_end31:
	.size	_ZN9__gnu_cxx17__normal_iteratorIPKcNSt7__cxx1112basic_stringIcSt11char_traitsIcESaIcEEEEppEi, .Lfunc_end31-_ZN9__gnu_cxx17__normal_iteratorIPKcNSt7__cxx1112basic_stringIcSt11char_traitsIcESaIcEEEEppEi

	.section	.text._ZNKSt6bitsetILm64EE9to_stringB5cxx11Ev,"axG",@progbits,_ZNKSt6bitsetILm64EE9to_stringB5cxx11Ev,comdat
	.weak	_ZNKSt6bitsetILm64EE9to_stringB5cxx11Ev 
	.p2align	4, 0x90
	.type	_ZNKSt6bitsetILm64EE9to_stringB5cxx11Ev,@function
_ZNKSt6bitsetILm64EE9to_stringB5cxx11Ev: 
	.cfi_startproc

	push	rbp
.Lcfi68:
	.cfi_def_cfa_offset 16
.Lcfi69:
	.cfi_offset rbp, -16
	mov	rbp, rsp
.Lcfi70:
	.cfi_def_cfa_register rbp
	push	r15
	push	r14
	push	rbx
	sub	rsp, 56
.Lcfi71:
	.cfi_offset rbx, -40
.Lcfi72:
	.cfi_offset r14, -32
.Lcfi73:
	.cfi_offset r15, -24
	mov	rax, rdi
	mov	ecx, dword ptr [x.102]
	mov	edx, dword ptr [y.103]
	mov	r8d, ecx
	add	r8d, -1407359247
	sub	r8d, 1
	sub	r8d, -1407359247
	imul	ecx, r8d
	and	ecx, 1
	cmp	ecx, 0
	sete	r9b
	and	r9b, 1
	mov	byte ptr [rbp - 26], r9b
	cmp	edx, 10
	setl	r9b
	and	r9b, 1
	mov	byte ptr [rbp - 25], r9b
	mov	dword ptr [rbp - 32], 1661679776
	mov	qword ptr [rbp - 40], rax 
	mov	qword ptr [rbp - 48], rsi 
	mov	qword ptr [rbp - 56], rdi 
.LBB32_1:                               
	mov	eax, dword ptr [rbp - 32]
	mov	ecx, eax
	sub	ecx, -1579637022
	mov	dword ptr [rbp - 60], eax 
	mov	dword ptr [rbp - 64], ecx 
	je	.LBB32_5
	jmp	.LBB32_8
.LBB32_8:                               
	mov	eax, dword ptr [rbp - 60] 
	sub	eax, 947380686
	mov	dword ptr [rbp - 68], eax 
	je	.LBB32_6
	jmp	.LBB32_9
.LBB32_9:                               
	mov	eax, dword ptr [rbp - 60] 
	sub	eax, 1614779253
	mov	dword ptr [rbp - 72], eax 
	je	.LBB32_4
	jmp	.LBB32_10
.LBB32_10:                              
	mov	eax, dword ptr [rbp - 60] 
	sub	eax, 1661679776
	mov	dword ptr [rbp - 76], eax 
	je	.LBB32_3
	jmp	.LBB32_2
.LBB32_2:                               
	jmp	.LBB32_7
.LBB32_3:                               
	mov	eax, 947380686
	mov	ecx, 1614779253
	mov	dl, 1
	mov	sil, byte ptr [rbp - 26]
	mov	dil, byte ptr [rbp - 25]
	mov	r8b, sil
	xor	r8b, -1
	mov	r9b, dil
	xor	r9b, -1
	xor	dl, 0
	mov	r10b, r8b
	and	r10b, 0
	and	sil, dl
	mov	r11b, r9b
	and	r11b, 0
	and	dil, dl
	or	r10b, sil
	or	r11b, dil
	xor	r10b, r11b
	or	r8b, r9b
	xor	r8b, -1
	or	dl, 0
	and	r8b, dl
	or	r10b, r8b
	test	r10b, 1
	cmovne	eax, ecx
	mov	dword ptr [rbp - 32], eax
	jmp	.LBB32_7
.LBB32_4:                               
	mov	rax, rsp
	add	rax, -16
	mov	rsp, rax
	mov	rcx, qword ptr [rbp - 48] 
	mov	qword ptr [rax], rcx
	mov	rsi, qword ptr [rax]
	mov	rdi, qword ptr [rbp - 56] 
	call	_ZNKSt6bitsetILm64EE9to_stringIcSt11char_traitsIcESaIcEEENSt7__cxx1112basic_stringIT_T0_T1_EEv
	mov	edx, 947380686
	mov	r8d, 2715330274
	mov	r9d, dword ptr [x.102]
	mov	r10d, dword ptr [y.103]
	mov	r11d, r9d
	add	r11d, -1324064398
	sub	r11d, 1
	sub	r11d, -1324064398
	imul	r9d, r11d
	and	r9d, 1
	cmp	r9d, 0
	sete	bl
	cmp	r10d, 10
	setl	r14b
	mov	r15b, bl
	and	r15b, r14b
	xor	bl, r14b
	or	r15b, bl
	test	r15b, 1
	cmovne	edx, r8d
	mov	dword ptr [rbp - 32], edx
	jmp	.LBB32_7
.LBB32_5:
	mov	rax, qword ptr [rbp - 40] 
	lea	rsp, [rbp - 24]
	pop	rbx
	pop	r14
	pop	r15
	pop	rbp
	ret
.LBB32_6:                               
	mov	rax, rsp
	add	rax, -16
	mov	rsp, rax
	mov	rcx, qword ptr [rbp - 48] 
	mov	qword ptr [rax], rcx
	mov	rsi, qword ptr [rax]
	mov	rdi, qword ptr [rbp - 56] 
	call	_ZNKSt6bitsetILm64EE9to_stringIcSt11char_traitsIcESaIcEEENSt7__cxx1112basic_stringIT_T0_T1_EEv
	mov	dword ptr [rbp - 32], 1614779253
.LBB32_7:                               
	jmp	.LBB32_1
.Lfunc_end32:
	.size	_ZNKSt6bitsetILm64EE9to_stringB5cxx11Ev, .Lfunc_end32-_ZNKSt6bitsetILm64EE9to_stringB5cxx11Ev
	.cfi_endproc

	.text
	.globl	_ZN3DES10finalPermuERKNSt7__cxx1112basic_stringIcSt11char_traitsIcESaIcEEE 
	.p2align	4, 0x90
	.type	_ZN3DES10finalPermuERKNSt7__cxx1112basic_stringIcSt11char_traitsIcESaIcEEE,@function
_ZN3DES10finalPermuERKNSt7__cxx1112basic_stringIcSt11char_traitsIcESaIcEEE: 
	.cfi_startproc

	push	rbp
.Lcfi74:
	.cfi_def_cfa_offset 16
.Lcfi75:
	.cfi_offset rbp, -16
	mov	rbp, rsp
.Lcfi76:
	.cfi_def_cfa_register rbp
	push	r15
	push	r14
	push	r12
	push	rbx
	sub	rsp, 208
.Lcfi77:
	.cfi_offset rbx, -48
.Lcfi78:
	.cfi_offset r12, -40
.Lcfi79:
	.cfi_offset r14, -32
.Lcfi80:
	.cfi_offset r15, -24
	lea	rax, [rbp - 64]
	mov	qword ptr [rbp - 48], rdi
	mov	qword ptr [rbp - 56], rsi
	mov	rsi, qword ptr [rbp - 48]
	mov	qword ptr [rbp - 40], rsi
	mov	rdi, rax
	call	_ZNSt6bitsetILm64EEC2Ev
	mov	rdi, qword ptr [rbp - 56]
	call	_ZNKSt7__cxx1112basic_stringIcSt11char_traitsIcESaIcEE5beginEv
	mov	qword ptr [rbp - 80], rax
	mov	dword ptr [rbp - 156], -1555510848
.LBB33_1:                               
	mov	eax, dword ptr [rbp - 156]
	mov	ecx, eax
	sub	ecx, -2018077547
	mov	dword ptr [rbp - 160], eax 
	mov	dword ptr [rbp - 164], ecx 
	je	.LBB33_10
	jmp	.LBB33_13
.LBB33_13:                              
	mov	eax, dword ptr [rbp - 160] 
	sub	eax, -1555510848
	mov	dword ptr [rbp - 168], eax 
	je	.LBB33_3
	jmp	.LBB33_14
.LBB33_14:                              
	mov	eax, dword ptr [rbp - 160] 
	sub	eax, -1142181781
	mov	dword ptr [rbp - 172], eax 
	je	.LBB33_4
	jmp	.LBB33_15
.LBB33_15:                              
	mov	eax, dword ptr [rbp - 160] 
	sub	eax, -995805946
	mov	dword ptr [rbp - 176], eax 
	je	.LBB33_11
	jmp	.LBB33_16
.LBB33_16:                              
	mov	eax, dword ptr [rbp - 160] 
	sub	eax, -493731762
	mov	dword ptr [rbp - 180], eax 
	je	.LBB33_7
	jmp	.LBB33_17
.LBB33_17:                              
	mov	eax, dword ptr [rbp - 160] 
	sub	eax, 437753980
	mov	dword ptr [rbp - 184], eax 
	je	.LBB33_8
	jmp	.LBB33_18
.LBB33_18:                              
	mov	eax, dword ptr [rbp - 160] 
	sub	eax, 1008611589
	mov	dword ptr [rbp - 188], eax 
	je	.LBB33_9
	jmp	.LBB33_19
.LBB33_19:                              
	mov	eax, dword ptr [rbp - 160] 
	sub	eax, 1280579779
	mov	dword ptr [rbp - 192], eax 
	je	.LBB33_6
	jmp	.LBB33_20
.LBB33_20:                              
	mov	eax, dword ptr [rbp - 160] 
	sub	eax, 1516396775
	mov	dword ptr [rbp - 196], eax 
	je	.LBB33_5
	jmp	.LBB33_2
.LBB33_2:                               
	jmp	.LBB33_12
.LBB33_3:                               
	mov	rdi, qword ptr [rbp - 56]
	call	_ZNKSt7__cxx1112basic_stringIcSt11char_traitsIcESaIcEE3endEv
	lea	rdi, [rbp - 80]
	lea	rsi, [rbp - 88]
	mov	qword ptr [rbp - 88], rax
	call	_ZN9__gnu_cxxltIPKcNSt7__cxx1112basic_stringIcSt11char_traitsIcESaIcEEEEEbRKNS_17__normal_iteratorIT_T0_EESE_
	mov	ecx, 2276889749
	mov	edx, 3152785515
	test	al, 1
	cmovne	ecx, edx
	mov	dword ptr [rbp - 156], ecx
	jmp	.LBB33_12
.LBB33_4:                               
	lea	rdi, [rbp - 80]
	call	_ZNK9__gnu_cxx17__normal_iteratorIPKcNSt7__cxx1112basic_stringIcSt11char_traitsIcESaIcEEEEdeEv
	mov	ecx, 1280579779
	mov	edx, 1516396775
	movsx	esi, byte ptr [rax]
	cmp	esi, 49
	cmove	ecx, edx
	mov	dword ptr [rbp - 156], ecx
	jmp	.LBB33_12
.LBB33_5:                               
	movabs	rdi, _ZN3DES21finalPermutationTableE
	call	_ZNKSt5arrayIiLm64EE5beginEv
	movabs	rdi, _ZN3DES21finalPermutationTableE
	mov	qword ptr [rbp - 208], rax 
	call	_ZNKSt5arrayIiLm64EE5beginEv
	movabs	rdi, _ZN3DES21finalPermutationTableE
	mov	qword ptr [rbp - 216], rax 
	call	_ZNKSt5arrayIiLm64EE3endEv
	mov	rdi, qword ptr [rbp - 56]
	mov	qword ptr [rbp - 224], rax 
	call	_ZNKSt7__cxx1112basic_stringIcSt11char_traitsIcESaIcEE5beginEv
	mov	qword ptr [rbp - 104], rax
	mov	rax, qword ptr [rbp - 80]
	mov	qword ptr [rbp - 112], rax
	mov	rdi, qword ptr [rbp - 104]
	mov	rsi, qword ptr [rbp - 112]
	call	_ZSt8distanceIN9__gnu_cxx17__normal_iteratorIPKcNSt7__cxx1112basic_stringIcSt11char_traitsIcESaIcEEEEEENSt15iterator_traitsIT_E15difference_typeESC_SC_
	lea	rdx, [rbp - 96]
	xor	ecx, ecx
	mov	esi, ecx
	sub	rsi, 1
	sub	rax, rsi
	mov	qword ptr [rbp - 96], rax
	mov	rdi, qword ptr [rbp - 216] 
	mov	rsi, qword ptr [rbp - 224] 
	call	_ZSt4findIPKilET_S2_S2_RKT0_
	mov	rdi, qword ptr [rbp - 208] 
	mov	rsi, rax
	call	_ZSt8distanceIPKiENSt15iterator_traitsIT_E15difference_typeES3_S3_
	lea	rdi, [rbp - 64]
	mov	edx, 1
	mov	ecx, 63
	mov	r8d, eax
	mov	dword ptr [rbp - 68], r8d
	mov	r8d, dword ptr [rbp - 68]
	sub	ecx, -1006556805
	sub	ecx, r8d
	add	ecx, -1006556805
	movsxd	rsi, ecx
	call	_ZNSt6bitsetILm64EE3setEmb
	mov	dword ptr [rbp - 156], 1280579779
	mov	qword ptr [rbp - 232], rax 
	jmp	.LBB33_12
.LBB33_6:                               
	mov	dword ptr [rbp - 156], -493731762
	jmp	.LBB33_12
.LBB33_7:                               
	mov	eax, 3299161350
	mov	ecx, 437753980
	mov	dl, 1
	xor	esi, esi
	mov	edi, dword ptr [x.104]
	mov	r8d, dword ptr [y.105]
	sub	esi, 1
	mov	r9d, edi
	add	r9d, esi
	imul	edi, r9d
	and	edi, 1
	cmp	edi, 0
	sete	r10b
	cmp	r8d, 10
	setl	r11b
	mov	bl, r10b
	xor	bl, -1
	mov	r14b, r11b
	xor	r14b, -1
	xor	dl, 0
	mov	r15b, bl
	and	r15b, 0
	and	r10b, dl
	mov	r12b, r14b
	and	r12b, 0
	and	r11b, dl
	or	r15b, r10b
	or	r12b, r11b
	xor	r15b, r12b
	or	bl, r14b
	xor	bl, -1
	or	dl, 0
	and	bl, dl
	or	r15b, bl
	test	r15b, 1
	cmovne	eax, ecx
	mov	dword ptr [rbp - 156], eax
	jmp	.LBB33_12
.LBB33_8:                               
	lea	rdi, [rbp - 80]
	xor	esi, esi
	call	_ZN9__gnu_cxx17__normal_iteratorIPKcNSt7__cxx1112basic_stringIcSt11char_traitsIcESaIcEEEEppEi
	mov	esi, 3299161350
	mov	ecx, 1008611589
	mov	qword ptr [rbp - 120], rax
	mov	edx, dword ptr [x.104]
	mov	r8d, dword ptr [y.105]
	mov	r9d, edx
	sub	r9d, 472558591
	sub	r9d, 1
	add	r9d, 472558591
	imul	edx, r9d
	and	edx, 1
	cmp	edx, 0
	sete	r10b
	cmp	r8d, 10
	setl	r11b
	mov	bl, r10b
	and	bl, r11b
	xor	r10b, r11b
	or	bl, r10b
	test	bl, 1
	cmovne	esi, ecx
	mov	dword ptr [rbp - 156], esi
	jmp	.LBB33_12
.LBB33_9:                               
	mov	dword ptr [rbp - 156], -1555510848
	jmp	.LBB33_12
.LBB33_10:
	lea	rdi, [rbp - 152]
	lea	rsi, [rbp - 64]
	call	_ZNKSt6bitsetILm64EE9to_stringB5cxx11Ev
	lea	rsi, [rbp - 152]
	mov	rdi, qword ptr [rbp - 40]
	add	rdi, 40
	call	_ZNSt7__cxx1112basic_stringIcSt11char_traitsIcESaIcEEaSEOS4_
	lea	rdi, [rbp - 152]
	mov	qword ptr [rbp - 240], rax 
	call	_ZNSt7__cxx1112basic_stringIcSt11char_traitsIcESaIcEED2Ev
	add	rsp, 208
	pop	rbx
	pop	r12
	pop	r14
	pop	r15
	pop	rbp
	ret
.LBB33_11:                              
	lea	rdi, [rbp - 80]
	xor	esi, esi
	call	_ZN9__gnu_cxx17__normal_iteratorIPKcNSt7__cxx1112basic_stringIcSt11char_traitsIcESaIcEEEEppEi
	mov	qword ptr [rbp - 120], rax
	mov	dword ptr [rbp - 156], 437753980
.LBB33_12:                              
	jmp	.LBB33_1
.Lfunc_end33:
	.size	_ZN3DES10finalPermuERKNSt7__cxx1112basic_stringIcSt11char_traitsIcESaIcEEE, .Lfunc_end33-_ZN3DES10finalPermuERKNSt7__cxx1112basic_stringIcSt11char_traitsIcESaIcEEE
	.cfi_endproc

	.globl	_ZN3DES14expansionPermuERKNSt7__cxx1112basic_stringIcSt11char_traitsIcESaIcEEE 
	.p2align	4, 0x90
	.type	_ZN3DES14expansionPermuERKNSt7__cxx1112basic_stringIcSt11char_traitsIcESaIcEEE,@function
_ZN3DES14expansionPermuERKNSt7__cxx1112basic_stringIcSt11char_traitsIcESaIcEEE: 
.Lfunc_begin7:
	.cfi_startproc
	.cfi_personality 3, __gxx_personality_v0
	.cfi_lsda 3, .Lexception7

	push	rbp
.Lcfi81:
	.cfi_def_cfa_offset 16
.Lcfi82:
	.cfi_offset rbp, -16
	mov	rbp, rsp
.Lcfi83:
	.cfi_def_cfa_register rbp
	sub	rsp, 128
	mov	qword ptr [rbp - 8], rdi
	mov	qword ptr [rbp - 16], rsi
	mov	rsi, qword ptr [rbp - 8]
	mov	rdi, qword ptr [rbp - 16]
	mov	qword ptr [rbp - 80], rsi 
	call	_ZNKSt7__cxx1112basic_stringIcSt11char_traitsIcESaIcEE6lengthEv
	cmp	rax, 32
	je	.LBB34_2

	movabs	rdi, _ZSt4cout
	movabs	rsi, .L.str
	call	_ZStlsISt11char_traitsIcEERSt13basic_ostreamIcT_ES5_PKc
	xor	edi, edi
	mov	qword ptr [rbp - 88], rax 
	call	exit
.LBB34_2:
	lea	rdi, [rbp - 48]
	call	_ZNSt7__cxx1112basic_stringIcSt11char_traitsIcESaIcEEC2Ev
	mov	dword ptr [rbp - 52], 0
.LBB34_3:                               
	cmp	dword ptr [rbp - 52], 48
	jge	.LBB34_9

	mov	rdi, qword ptr [rbp - 16]
	movsxd	rsi, dword ptr [rbp - 52]
.Ltmp117:
	mov	eax, _ZN3DES25expansionPermutationTalbeE
	mov	ecx, eax
	mov	qword ptr [rbp - 96], rdi 
	mov	rdi, rcx
	call	_ZNKSt5arrayIiLm48EE2atEm
.Ltmp118:
	mov	qword ptr [rbp - 104], rax 
	jmp	.LBB34_5
.LBB34_5:                               
	mov	rax, qword ptr [rbp - 104] 
	mov	ecx, dword ptr [rax]
	dec	ecx
	movsxd	rsi, ecx
	mov	rdi, qword ptr [rbp - 96] 
	call	_ZNKSt7__cxx1112basic_stringIcSt11char_traitsIcESaIcEEixEm
	movsx	esi, byte ptr [rax]
.Ltmp119:
	lea	rdi, [rbp - 48]
	call	_ZNSt7__cxx1112basic_stringIcSt11char_traitsIcESaIcEEpLEc
.Ltmp120:
	mov	qword ptr [rbp - 112], rax 
	jmp	.LBB34_6
.LBB34_6:                               
	jmp	.LBB34_7
.LBB34_7:                               
	xor	eax, eax
	mov	ecx, dword ptr [rbp - 52]
	sub	eax, 1
	sub	ecx, eax
	mov	dword ptr [rbp - 52], ecx
	jmp	.LBB34_3
.LBB34_8:
.Ltmp121:
	lea	rdi, [rbp - 48]
	mov	ecx, edx
	mov	qword ptr [rbp - 64], rax
	mov	dword ptr [rbp - 68], ecx
	call	_ZNSt7__cxx1112basic_stringIcSt11char_traitsIcESaIcEED2Ev
	jmp	.LBB34_11
.LBB34_9:
	mov	rax, qword ptr [rbp - 80] 
	add	rax, 392
.Ltmp115:
	lea	rsi, [rbp - 48]
	mov	rdi, rax
	call	_ZNSt7__cxx1112basic_stringIcSt11char_traitsIcESaIcEEaSERKS4_
.Ltmp116:
	mov	qword ptr [rbp - 120], rax 
	jmp	.LBB34_10
.LBB34_10:
	lea	rdi, [rbp - 48]
	call	_ZNSt7__cxx1112basic_stringIcSt11char_traitsIcESaIcEED2Ev
	add	rsp, 128
	pop	rbp
	ret
.LBB34_11:
	mov	rdi, qword ptr [rbp - 64]
	call	_Unwind_Resume
.Lfunc_end34:
	.size	_ZN3DES14expansionPermuERKNSt7__cxx1112basic_stringIcSt11char_traitsIcESaIcEEE, .Lfunc_end34-_ZN3DES14expansionPermuERKNSt7__cxx1112basic_stringIcSt11char_traitsIcESaIcEEE
	.cfi_endproc
	.section	.gcc_except_table,"a",@progbits
	.p2align	2
GCC_except_table34:
.Lexception7:
	.byte	255                     
	.byte	3                       
	.byte	41                      
	.byte	3                       
	.byte	39                      
	.long	.Lfunc_begin7-.Lfunc_begin7 
	.long	.Ltmp117-.Lfunc_begin7  
	.long	0                       
	.byte	0                       
	.long	.Ltmp117-.Lfunc_begin7  
	.long	.Ltmp116-.Ltmp117       
	.long	.Ltmp121-.Lfunc_begin7  
	.byte	0                       
	.long	.Ltmp116-.Lfunc_begin7  
	.long	.Lfunc_end34-.Ltmp116   
	.long	0                       
	.byte	0                       
	.p2align	2

	.section	.text._ZNKSt7__cxx1112basic_stringIcSt11char_traitsIcESaIcEE6lengthEv,"axG",@progbits,_ZNKSt7__cxx1112basic_stringIcSt11char_traitsIcESaIcEE6lengthEv,comdat
	.weak	_ZNKSt7__cxx1112basic_stringIcSt11char_traitsIcESaIcEE6lengthEv 
	.p2align	4, 0x90
	.type	_ZNKSt7__cxx1112basic_stringIcSt11char_traitsIcESaIcEE6lengthEv,@function
_ZNKSt7__cxx1112basic_stringIcSt11char_traitsIcESaIcEE6lengthEv: 

	push	rbp
	mov	rbp, rsp
	mov	qword ptr [rbp - 8], rdi
	mov	rdi, qword ptr [rbp - 8]
	mov	rax, qword ptr [rdi + 8]
	pop	rbp
	ret
.Lfunc_end35:
	.size	_ZNKSt7__cxx1112basic_stringIcSt11char_traitsIcESaIcEE6lengthEv, .Lfunc_end35-_ZNKSt7__cxx1112basic_stringIcSt11char_traitsIcESaIcEE6lengthEv

	.section	.text._ZNKSt7__cxx1112basic_stringIcSt11char_traitsIcESaIcEEixEm,"axG",@progbits,_ZNKSt7__cxx1112basic_stringIcSt11char_traitsIcESaIcEEixEm,comdat
	.weak	_ZNKSt7__cxx1112basic_stringIcSt11char_traitsIcESaIcEEixEm 
	.p2align	4, 0x90
	.type	_ZNKSt7__cxx1112basic_stringIcSt11char_traitsIcESaIcEEixEm,@function
_ZNKSt7__cxx1112basic_stringIcSt11char_traitsIcESaIcEEixEm: 
.Lfunc_begin8:
	.cfi_startproc
	.cfi_personality 3, __gxx_personality_v0
	.cfi_lsda 3, .Lexception8

	push	rbp
	mov	rbp, rsp
	sub	rsp, 32
	mov	qword ptr [rbp - 8], rdi
	mov	qword ptr [rbp - 16], rsi
	mov	rdi, qword ptr [rbp - 8]
.Ltmp122:
	call	_ZNKSt7__cxx1112basic_stringIcSt11char_traitsIcESaIcEE7_M_dataEv
.Ltmp123:
	mov	qword ptr [rbp - 24], rax 
	jmp	.LBB36_1
.LBB36_1:
	mov	rax, qword ptr [rbp - 24] 
	add	rax, qword ptr [rbp - 16]
	add	rsp, 32
	pop	rbp
	ret
.LBB36_2:
.Ltmp124:
	mov	ecx, edx
	mov	rdi, rax
	mov	dword ptr [rbp - 28], ecx 
	call	__clang_call_terminate
.Lfunc_end36:
	.size	_ZNKSt7__cxx1112basic_stringIcSt11char_traitsIcESaIcEEixEm, .Lfunc_end36-_ZNKSt7__cxx1112basic_stringIcSt11char_traitsIcESaIcEEixEm
	.cfi_endproc
	.section	.gcc_except_table,"a",@progbits
	.p2align	2
GCC_except_table36:
.Lexception8:
	.byte	255                     
	.byte	3                       
	.byte	21                      
	.byte	3                       
	.byte	13                      
	.long	.Ltmp122-.Lfunc_begin8  
	.long	.Ltmp123-.Ltmp122       
	.long	.Ltmp124-.Lfunc_begin8  
	.byte	1                       
	.byte	1                       

	.byte	0                       

	.long	0                       
	.p2align	2

	.section	.text._ZNKSt5arrayIiLm48EE2atEm,"axG",@progbits,_ZNKSt5arrayIiLm48EE2atEm,comdat
	.weak	_ZNKSt5arrayIiLm48EE2atEm 
	.p2align	4, 0x90
	.type	_ZNKSt5arrayIiLm48EE2atEm,@function
_ZNKSt5arrayIiLm48EE2atEm:              
	.cfi_startproc

	push	rbp
.Lcfi84:
	.cfi_def_cfa_offset 16
.Lcfi85:
	.cfi_offset rbp, -16
	mov	rbp, rsp
.Lcfi86:
	.cfi_def_cfa_register rbp
	push	r15
	push	r14
	push	r12
	push	rbx
	sub	rsp, 112
.Lcfi87:
	.cfi_offset rbx, -48
.Lcfi88:
	.cfi_offset r12, -40
.Lcfi89:
	.cfi_offset r14, -32
.Lcfi90:
	.cfi_offset r15, -24
	mov	eax, dword ptr [x.108]
	mov	ecx, dword ptr [y.109]
	mov	edx, eax
	add	edx, -1402499500
	sub	edx, 1
	sub	edx, -1402499500
	imul	eax, edx
	and	eax, 1
	cmp	eax, 0
	sete	r8b
	and	r8b, 1
	mov	byte ptr [rbp - 58], r8b
	cmp	ecx, 10
	setl	r8b
	and	r8b, 1
	mov	byte ptr [rbp - 57], r8b
	mov	dword ptr [rbp - 64], 1482638287
	mov	qword ptr [rbp - 80], rdi 
	mov	qword ptr [rbp - 88], rsi 
.LBB37_1:                               
	mov	eax, dword ptr [rbp - 64]
	mov	ecx, eax
	sub	ecx, -2051016309
	mov	dword ptr [rbp - 92], eax 
	mov	dword ptr [rbp - 96], ecx 
	je	.LBB37_6
	jmp	.LBB37_15
.LBB37_15:                              
	mov	eax, dword ptr [rbp - 92] 
	sub	eax, -1888307226
	mov	dword ptr [rbp - 100], eax 
	je	.LBB37_7
	jmp	.LBB37_16
.LBB37_16:                              
	mov	eax, dword ptr [rbp - 92] 
	sub	eax, -1469436107
	mov	dword ptr [rbp - 104], eax 
	je	.LBB37_8
	jmp	.LBB37_17
.LBB37_17:                              
	mov	eax, dword ptr [rbp - 92] 
	sub	eax, -1015376486
	mov	dword ptr [rbp - 108], eax 
	je	.LBB37_11
	jmp	.LBB37_18
.LBB37_18:                              
	mov	eax, dword ptr [rbp - 92] 
	sub	eax, -731562923
	mov	dword ptr [rbp - 112], eax 
	je	.LBB37_13
	jmp	.LBB37_19
.LBB37_19:                              
	mov	eax, dword ptr [rbp - 92] 
	sub	eax, -258547044
	mov	dword ptr [rbp - 116], eax 
	je	.LBB37_10
	jmp	.LBB37_20
.LBB37_20:                              
	mov	eax, dword ptr [rbp - 92] 
	sub	eax, -184687374
	mov	dword ptr [rbp - 120], eax 
	je	.LBB37_4
	jmp	.LBB37_21
.LBB37_21:                              
	mov	eax, dword ptr [rbp - 92] 
	sub	eax, 618896949
	mov	dword ptr [rbp - 124], eax 
	je	.LBB37_5
	jmp	.LBB37_22
.LBB37_22:                              
	mov	eax, dword ptr [rbp - 92] 
	sub	eax, 732875956
	mov	dword ptr [rbp - 128], eax 
	je	.LBB37_9
	jmp	.LBB37_23
.LBB37_23:                              
	mov	eax, dword ptr [rbp - 92] 
	sub	eax, 1063519281
	mov	dword ptr [rbp - 132], eax 
	je	.LBB37_12
	jmp	.LBB37_24
.LBB37_24:                              
	mov	eax, dword ptr [rbp - 92] 
	sub	eax, 1482638287
	mov	dword ptr [rbp - 136], eax 
	je	.LBB37_3
	jmp	.LBB37_2
.LBB37_2:                               
	jmp	.LBB37_14
.LBB37_3:                               
	mov	eax, 1063519281
	mov	ecx, 4110279922
	mov	dl, 1
	mov	sil, byte ptr [rbp - 58]
	mov	dil, byte ptr [rbp - 57]
	mov	r8b, sil
	xor	r8b, -1
	mov	r9b, dil
	xor	r9b, -1
	xor	dl, 0
	mov	r10b, r8b
	and	r10b, 0
	and	sil, dl
	mov	r11b, r9b
	and	r11b, 0
	and	dil, dl
	or	r10b, sil
	or	r11b, dil
	xor	r10b, r11b
	or	r8b, r9b
	xor	r8b, -1
	or	dl, 0
	and	r8b, dl
	or	r10b, r8b
	test	r10b, 1
	cmovne	eax, ecx
	mov	dword ptr [rbp - 64], eax
	jmp	.LBB37_14
.LBB37_4:                               
	mov	eax, 1063519281
	mov	ecx, 618896949
	xor	edx, edx
	mov	rsi, rsp
	add	rsi, -16
	mov	rsp, rsi
	mov	rdi, rsp
	add	rdi, -16
	mov	rsp, rdi
	mov	qword ptr [rbp - 56], rdi
	mov	rdi, qword ptr [rbp - 80] 
	mov	qword ptr [rsi], rdi
	mov	r8, qword ptr [rbp - 56]
	mov	r9, qword ptr [rbp - 88] 
	mov	qword ptr [r8], r9
	mov	rsi, qword ptr [rsi]
	mov	qword ptr [rbp - 48], rsi
	mov	rsi, qword ptr [rbp - 56]
	cmp	qword ptr [rsi], 48
	setb	r10b
	and	r10b, 1
	mov	byte ptr [rbp - 33], r10b
	mov	r11d, dword ptr [x.108]
	mov	ebx, dword ptr [y.109]
	sub	edx, 1
	mov	r14d, r11d
	add	r14d, edx
	imul	r11d, r14d
	and	r11d, 1
	cmp	r11d, 0
	sete	r10b
	cmp	ebx, 10
	setl	r15b
	mov	r12b, r10b
	and	r12b, r15b
	xor	r10b, r15b
	or	r12b, r10b
	test	r12b, 1
	cmovne	eax, ecx
	mov	dword ptr [rbp - 64], eax
	jmp	.LBB37_14
.LBB37_5:                               
	mov	eax, 2406660070
	mov	ecx, 2243950987
	mov	dl, byte ptr [rbp - 33]
	test	dl, 1
	cmovne	eax, ecx
	mov	dword ptr [rbp - 64], eax
	jmp	.LBB37_14
.LBB37_6:                               
	mov	rdi, qword ptr [rbp - 48]
	mov	rax, qword ptr [rbp - 56]
	mov	rsi, qword ptr [rax]
	call	_ZNSt14__array_traitsIiLm48EE6_S_refERA48_Kim
	mov	dword ptr [rbp - 64], -1015376486
	mov	qword ptr [rbp - 72], rax
	jmp	.LBB37_14
.LBB37_7:                               
	mov	eax, 3563404373
	mov	ecx, 2825531189
	mov	dl, 1
	mov	esi, dword ptr [x.108]
	mov	edi, dword ptr [y.109]
	mov	r8d, esi
	sub	r8d, 532844324
	sub	r8d, 1
	add	r8d, 532844324
	imul	esi, r8d
	and	esi, 1
	cmp	esi, 0
	sete	r9b
	cmp	edi, 10
	setl	r10b
	mov	r11b, r9b
	xor	r11b, -1
	mov	bl, r10b
	xor	bl, -1
	xor	dl, 0
	mov	r14b, r11b
	and	r14b, 0
	and	r9b, dl
	mov	r15b, bl
	and	r15b, 0
	and	r10b, dl
	or	r14b, r9b
	or	r15b, r10b
	xor	r14b, r15b
	or	r11b, bl
	xor	r11b, -1
	or	dl, 0
	and	r11b, dl
	or	r14b, r11b
	test	r14b, 1
	cmovne	eax, ecx
	mov	dword ptr [rbp - 64], eax
	jmp	.LBB37_14
.LBB37_8:                               
	movabs	rdi, .L.str.40
	mov	eax, 48
	mov	edx, eax
	mov	rcx, qword ptr [rbp - 56]
	mov	rsi, qword ptr [rcx]
	mov	al, 0
	call	_ZSt24__throw_out_of_range_fmtPKcz
	mov	r8d, 3563404373
	mov	r9d, 732875956
	mov	r10d, dword ptr [x.108]
	mov	r11d, dword ptr [y.109]
	mov	ebx, r10d
	add	ebx, 1381767736
	sub	ebx, 1
	sub	ebx, 1381767736
	imul	r10d, ebx
	and	r10d, 1
	cmp	r10d, 0
	sete	al
	cmp	r11d, 10
	setl	r14b
	mov	r15b, al
	and	r15b, r14b
	xor	al, r14b
	or	r15b, al
	test	r15b, 1
	cmovne	r8d, r9d
	mov	dword ptr [rbp - 64], r8d
	jmp	.LBB37_14
.LBB37_9:
.LBB37_10:                              
	xor	eax, eax
	mov	esi, eax
	mov	rdi, qword ptr [rbp - 48]
	call	_ZNSt14__array_traitsIiLm48EE6_S_refERA48_Kim
	mov	dword ptr [rbp - 64], -1015376486
	mov	qword ptr [rbp - 72], rax
	jmp	.LBB37_14
.LBB37_11:
	mov	rax, qword ptr [rbp - 72]
	lea	rsp, [rbp - 32]
	pop	rbx
	pop	r12
	pop	r14
	pop	r15
	pop	rbp
	ret
.LBB37_12:                              
	mov	rax, rsp
	add	rax, -16
	mov	rsp, rax
	mov	rcx, rsp
	add	rcx, -16
	mov	rsp, rcx
	mov	rdx, qword ptr [rbp - 80] 
	mov	qword ptr [rax], rdx
	mov	rax, qword ptr [rbp - 88] 
	mov	qword ptr [rcx], rax
	mov	dword ptr [rbp - 64], -184687374
	jmp	.LBB37_14
.LBB37_13:                              
	movabs	rdi, .L.str.40
	mov	eax, 48
	mov	edx, eax
	mov	rcx, qword ptr [rbp - 56]
	mov	rsi, qword ptr [rcx]
	mov	al, 0
	call	_ZSt24__throw_out_of_range_fmtPKcz
	mov	dword ptr [rbp - 64], -1469436107
.LBB37_14:                              
	jmp	.LBB37_1
.Lfunc_end37:
	.size	_ZNKSt5arrayIiLm48EE2atEm, .Lfunc_end37-_ZNKSt5arrayIiLm48EE2atEm
	.cfi_endproc

	.section	.text._ZNSt7__cxx1112basic_stringIcSt11char_traitsIcESaIcEEpLEc,"axG",@progbits,_ZNSt7__cxx1112basic_stringIcSt11char_traitsIcESaIcEEpLEc,comdat
	.weak	_ZNSt7__cxx1112basic_stringIcSt11char_traitsIcESaIcEEpLEc 
	.p2align	4, 0x90
	.type	_ZNSt7__cxx1112basic_stringIcSt11char_traitsIcESaIcEEpLEc,@function
_ZNSt7__cxx1112basic_stringIcSt11char_traitsIcESaIcEEpLEc: 
	.cfi_startproc

	push	rbp
.Lcfi91:
	.cfi_def_cfa_offset 16
.Lcfi92:
	.cfi_offset rbp, -16
	mov	rbp, rsp
.Lcfi93:
	.cfi_def_cfa_register rbp
	sub	rsp, 32
	mov	al, sil
	mov	qword ptr [rbp - 8], rdi
	mov	byte ptr [rbp - 9], al
	mov	rdi, qword ptr [rbp - 8]
	mov	qword ptr [rbp - 24], rdi 
	movsx	esi, byte ptr [rbp - 9]
	call	_ZNSt7__cxx1112basic_stringIcSt11char_traitsIcESaIcEE9push_backEc
	mov	rax, qword ptr [rbp - 24] 
	add	rsp, 32
	pop	rbp
	ret
.Lfunc_end38:
	.size	_ZNSt7__cxx1112basic_stringIcSt11char_traitsIcESaIcEEpLEc, .Lfunc_end38-_ZNSt7__cxx1112basic_stringIcSt11char_traitsIcESaIcEEpLEc
	.cfi_endproc

	.text
	.globl	_ZN3DES9shiftLeftERNSt7__cxx1112basic_stringIcSt11char_traitsIcESaIcEEEi 
	.p2align	4, 0x90
	.type	_ZN3DES9shiftLeftERNSt7__cxx1112basic_stringIcSt11char_traitsIcESaIcEEEi,@function
_ZN3DES9shiftLeftERNSt7__cxx1112basic_stringIcSt11char_traitsIcESaIcEEEi: 
	.cfi_startproc

	push	rbp
.Lcfi94:
	.cfi_def_cfa_offset 16
.Lcfi95:
	.cfi_offset rbp, -16
	mov	rbp, rsp
.Lcfi96:
	.cfi_def_cfa_register rbp
	push	r15
	push	r14
	push	r12
	push	rbx
	sub	rsp, 176
.Lcfi97:
	.cfi_offset rbx, -48
.Lcfi98:
	.cfi_offset r12, -40
.Lcfi99:
	.cfi_offset r14, -32
.Lcfi100:
	.cfi_offset r15, -24
	mov	eax, dword ptr [x.112]
	mov	ecx, dword ptr [y.113]
	mov	r8d, eax
	sub	r8d, -466146948
	sub	r8d, 1
	add	r8d, -466146948
	imul	eax, r8d
	and	eax, 1
	cmp	eax, 0
	sete	r9b
	and	r9b, 1
	mov	byte ptr [rbp - 98], r9b
	cmp	ecx, 10
	setl	r9b
	and	r9b, 1
	mov	byte ptr [rbp - 97], r9b
	mov	dword ptr [rbp - 104], -1838193533
	mov	qword ptr [rbp - 112], rsi 
	mov	qword ptr [rbp - 120], rdi 
	mov	dword ptr [rbp - 124], edx 
.LBB39_1:                               
	mov	eax, dword ptr [rbp - 104]
	mov	ecx, eax
	sub	ecx, -1838193533
	mov	dword ptr [rbp - 128], eax 
	mov	dword ptr [rbp - 132], ecx 
	je	.LBB39_3
	jmp	.LBB39_14
.LBB39_14:                              
	mov	eax, dword ptr [rbp - 128] 
	sub	eax, -1314441670
	mov	dword ptr [rbp - 136], eax 
	je	.LBB39_11
	jmp	.LBB39_15
.LBB39_15:                              
	mov	eax, dword ptr [rbp - 128] 
	sub	eax, -1128335178
	mov	dword ptr [rbp - 140], eax 
	je	.LBB39_6
	jmp	.LBB39_16
.LBB39_16:                              
	mov	eax, dword ptr [rbp - 128] 
	sub	eax, -1077001564
	mov	dword ptr [rbp - 144], eax 
	je	.LBB39_9
	jmp	.LBB39_17
.LBB39_17:                              
	mov	eax, dword ptr [rbp - 128] 
	sub	eax, -488001571
	mov	dword ptr [rbp - 148], eax 
	je	.LBB39_7
	jmp	.LBB39_18
.LBB39_18:                              
	mov	eax, dword ptr [rbp - 128] 
	sub	eax, 103734425
	mov	dword ptr [rbp - 152], eax 
	je	.LBB39_4
	jmp	.LBB39_19
.LBB39_19:                              
	mov	eax, dword ptr [rbp - 128] 
	sub	eax, 185647395
	mov	dword ptr [rbp - 156], eax 
	je	.LBB39_12
	jmp	.LBB39_20
.LBB39_20:                              
	mov	eax, dword ptr [rbp - 128] 
	sub	eax, 1141289456
	mov	dword ptr [rbp - 160], eax 
	je	.LBB39_5
	jmp	.LBB39_21
.LBB39_21:                              
	mov	eax, dword ptr [rbp - 128] 
	sub	eax, 1148953183
	mov	dword ptr [rbp - 164], eax 
	je	.LBB39_10
	jmp	.LBB39_22
.LBB39_22:                              
	mov	eax, dword ptr [rbp - 128] 
	sub	eax, 1893361530
	mov	dword ptr [rbp - 168], eax 
	je	.LBB39_8
	jmp	.LBB39_2
.LBB39_2:                               
	jmp	.LBB39_13
.LBB39_3:                               
	mov	eax, 2980525626
	mov	ecx, 103734425
	mov	dl, byte ptr [rbp - 98]
	mov	sil, byte ptr [rbp - 97]
	mov	dil, dl
	and	dil, sil
	xor	dl, sil
	or	dil, dl
	test	dil, 1
	cmovne	eax, ecx
	mov	dword ptr [rbp - 104], eax
	jmp	.LBB39_13
.LBB39_4:                               
	mov	rax, rsp
	add	rax, -16
	mov	rsp, rax
	mov	rcx, rsp
	add	rcx, -16
	mov	rsp, rcx
	mov	qword ptr [rbp - 96], rcx
	mov	rcx, rsp
	add	rcx, -16
	mov	rsp, rcx
	mov	qword ptr [rbp - 88], rcx
	mov	rcx, rsp
	add	rcx, -16
	mov	rsp, rcx
	mov	qword ptr [rbp - 80], rcx
	mov	rcx, rsp
	add	rcx, -16
	mov	rsp, rcx
	mov	qword ptr [rbp - 72], rcx
	mov	rcx, rsp
	add	rcx, -16
	mov	rsp, rcx
	mov	qword ptr [rbp - 64], rcx
	mov	rcx, rsp
	add	rcx, -16
	mov	rsp, rcx
	mov	qword ptr [rbp - 56], rcx
	mov	rcx, rsp
	add	rcx, -16
	mov	rsp, rcx
	mov	qword ptr [rbp - 48], rcx
	mov	rcx, qword ptr [rbp - 120] 
	mov	qword ptr [rax], rcx
	mov	rax, qword ptr [rbp - 96]
	mov	rdx, qword ptr [rbp - 112] 
	mov	qword ptr [rax], rdx
	mov	rax, qword ptr [rbp - 88]
	mov	esi, dword ptr [rbp - 124] 
	mov	dword ptr [rax], esi
	mov	rax, qword ptr [rbp - 88]
	mov	edi, dword ptr [rax]
	mov	rax, qword ptr [rbp - 96]
	mov	rax, qword ptr [rax]
	mov	dword ptr [rbp - 172], edi 
	mov	rdi, rax
	call	_ZNKSt7__cxx1112basic_stringIcSt11char_traitsIcESaIcEE6lengthEv
	mov	esi, 2980525626
	mov	r8d, 1141289456
	mov	r9d, eax
	mov	r10d, dword ptr [rbp - 172] 
	cmp	r10d, r9d
	setg	r11b
	and	r11b, 1
	mov	byte ptr [rbp - 33], r11b
	mov	r9d, dword ptr [x.112]
	mov	ebx, dword ptr [y.113]
	mov	r14d, r9d
	add	r14d, -1032186339
	sub	r14d, 1
	sub	r14d, -1032186339
	imul	r9d, r14d
	and	r9d, 1
	cmp	r9d, 0
	sete	r11b
	cmp	ebx, 10
	setl	r15b
	mov	r12b, r11b
	and	r12b, r15b
	xor	r11b, r15b
	or	r12b, r11b
	test	r12b, 1
	cmovne	esi, r8d
	mov	dword ptr [rbp - 104], esi
	jmp	.LBB39_13
.LBB39_5:                               
	mov	eax, 3217965732
	mov	ecx, 3166632118
	mov	dl, byte ptr [rbp - 33]
	test	dl, 1
	cmovne	eax, ecx
	mov	dword ptr [rbp - 104], eax
	jmp	.LBB39_13
.LBB39_6:                               
	mov	eax, 185647395
	mov	ecx, 3806965725
	xor	edx, edx
	mov	esi, dword ptr [x.112]
	mov	edi, dword ptr [y.113]
	sub	edx, 1
	mov	r8d, esi
	add	r8d, edx
	imul	esi, r8d
	and	esi, 1
	cmp	esi, 0
	sete	r9b
	cmp	edi, 10
	setl	r10b
	mov	r11b, r9b
	and	r11b, r10b
	xor	r9b, r10b
	or	r11b, r9b
	test	r11b, 1
	cmovne	eax, ecx
	mov	dword ptr [rbp - 104], eax
	jmp	.LBB39_13
.LBB39_7:                               
	movabs	rdi, _ZSt4cout
	movabs	rsi, .L.str.1
	call	_ZStlsISt11char_traitsIcEERSt13basic_ostreamIcT_ES5_PKc
	movabs	rsi, _ZSt4endlIcSt11char_traitsIcEERSt13basic_ostreamIT_T0_ES6_
	mov	rdi, rax
	call	_ZNSolsEPFRSoS_E
	xor	edi, edi
	mov	qword ptr [rbp - 184], rax 
	call	exit
	mov	edi, 185647395
	mov	ecx, 1893361530
	mov	edx, dword ptr [x.112]
	mov	r8d, dword ptr [y.113]
	mov	r9d, edx
	sub	r9d, 1548742017
	sub	r9d, 1
	add	r9d, 1548742017
	imul	edx, r9d
	and	edx, 1
	cmp	edx, 0
	sete	r10b
	cmp	r8d, 10
	setl	r11b
	mov	bl, r10b
	and	bl, r11b
	xor	r10b, r11b
	or	bl, r10b
	test	bl, 1
	cmovne	edi, ecx
	mov	dword ptr [rbp - 104], edi
	jmp	.LBB39_13
.LBB39_8:
.LBB39_9:                               
	mov	rax, qword ptr [rbp - 96]
	mov	rdi, qword ptr [rax]
	call	_ZNSt7__cxx1112basic_stringIcSt11char_traitsIcESaIcEE5beginEv
	mov	rdi, qword ptr [rbp - 80]
	mov	qword ptr [rdi], rax
	mov	rax, qword ptr [rbp - 96]
	mov	rdi, qword ptr [rax]
	call	_ZNSt7__cxx1112basic_stringIcSt11char_traitsIcESaIcEE5beginEv
	mov	rdi, qword ptr [rbp - 64]
	mov	qword ptr [rdi], rax
	mov	rax, qword ptr [rbp - 88]
	movsxd	rsi, dword ptr [rax]
	mov	rdi, qword ptr [rbp - 64]
	call	_ZNK9__gnu_cxx17__normal_iteratorIPcNSt7__cxx1112basic_stringIcSt11char_traitsIcESaIcEEEEplEl
	mov	rsi, qword ptr [rbp - 72]
	mov	qword ptr [rsi], rax
	mov	rax, qword ptr [rbp - 96]
	mov	rdi, qword ptr [rax]
	call	_ZNSt7__cxx1112basic_stringIcSt11char_traitsIcESaIcEE3endEv
	mov	rsi, qword ptr [rbp - 56]
	mov	qword ptr [rsi], rax
	mov	rax, qword ptr [rbp - 80]
	mov	rdi, qword ptr [rax]
	mov	rax, qword ptr [rbp - 72]
	mov	rsi, qword ptr [rax]
	mov	rax, qword ptr [rbp - 56]
	mov	rdx, qword ptr [rax]
	call	_ZNSt3_V26rotateIN9__gnu_cxx17__normal_iteratorIPcNSt7__cxx1112basic_stringIcSt11char_traitsIcESaIcEEEEEEET_SB_SB_SB_
	mov	rdx, qword ptr [rbp - 48]
	mov	qword ptr [rdx], rax
	mov	dword ptr [rbp - 104], 1148953183
	jmp	.LBB39_13
.LBB39_10:
	lea	rsp, [rbp - 32]
	pop	rbx
	pop	r12
	pop	r14
	pop	r15
	pop	rbp
	ret
.LBB39_11:                              
	mov	rax, rsp
	add	rax, -16
	mov	rsp, rax
	mov	rcx, rsp
	add	rcx, -16
	mov	rsp, rcx
	mov	rdx, rsp
	add	rdx, -16
	mov	rsp, rdx
	mov	rsi, qword ptr [rbp - 120] 
	mov	qword ptr [rax], rsi
	mov	rax, qword ptr [rbp - 112] 
	mov	qword ptr [rcx], rax
	mov	edi, dword ptr [rbp - 124] 
	mov	dword ptr [rdx], edi
	mov	rdi, qword ptr [rcx]
	call	_ZNKSt7__cxx1112basic_stringIcSt11char_traitsIcESaIcEE6lengthEv
	mov	dword ptr [rbp - 104], 103734425
	mov	qword ptr [rbp - 192], rax 
	jmp	.LBB39_13
.LBB39_12:                              
	movabs	rdi, _ZSt4cout
	movabs	rsi, .L.str.1
	call	_ZStlsISt11char_traitsIcEERSt13basic_ostreamIcT_ES5_PKc
	movabs	rsi, _ZSt4endlIcSt11char_traitsIcEERSt13basic_ostreamIT_T0_ES6_
	mov	rdi, rax
	call	_ZNSolsEPFRSoS_E
	xor	edi, edi
	mov	qword ptr [rbp - 200], rax 
	call	exit
	mov	dword ptr [rbp - 104], -488001571
.LBB39_13:                              
	jmp	.LBB39_1
.Lfunc_end39:
	.size	_ZN3DES9shiftLeftERNSt7__cxx1112basic_stringIcSt11char_traitsIcESaIcEEEi, .Lfunc_end39-_ZN3DES9shiftLeftERNSt7__cxx1112basic_stringIcSt11char_traitsIcESaIcEEEi
	.cfi_endproc

	.section	.text._ZNSt3_V26rotateIN9__gnu_cxx17__normal_iteratorIPcNSt7__cxx1112basic_stringIcSt11char_traitsIcESaIcEEEEEEET_SB_SB_SB_,"axG",@progbits,_ZNSt3_V26rotateIN9__gnu_cxx17__normal_iteratorIPcNSt7__cxx1112basic_stringIcSt11char_traitsIcESaIcEEEEEEET_SB_SB_SB_,comdat
	.weak	_ZNSt3_V26rotateIN9__gnu_cxx17__normal_iteratorIPcNSt7__cxx1112basic_stringIcSt11char_traitsIcESaIcEEEEEEET_SB_SB_SB_ 
	.p2align	4, 0x90
	.type	_ZNSt3_V26rotateIN9__gnu_cxx17__normal_iteratorIPcNSt7__cxx1112basic_stringIcSt11char_traitsIcESaIcEEEEEEET_SB_SB_SB_,@function
_ZNSt3_V26rotateIN9__gnu_cxx17__normal_iteratorIPcNSt7__cxx1112basic_stringIcSt11char_traitsIcESaIcEEEEEEET_SB_SB_SB_: 
	.cfi_startproc

	push	rbp
.Lcfi101:
	.cfi_def_cfa_offset 16
.Lcfi102:
	.cfi_offset rbp, -16
	mov	rbp, rsp
.Lcfi103:
	.cfi_def_cfa_register rbp
	sub	rsp, 80
	lea	rax, [rbp - 16]
	mov	qword ptr [rbp - 16], rdi
	mov	qword ptr [rbp - 24], rsi
	mov	qword ptr [rbp - 32], rdx
	mov	rdx, qword ptr [rbp - 16]
	mov	qword ptr [rbp - 40], rdx
	mov	rdx, qword ptr [rbp - 24]
	mov	qword ptr [rbp - 48], rdx
	mov	rdx, qword ptr [rbp - 32]
	mov	qword ptr [rbp - 56], rdx
	mov	rdi, rax
	call	_ZSt19__iterator_categoryIN9__gnu_cxx17__normal_iteratorIPcNSt7__cxx1112basic_stringIcSt11char_traitsIcESaIcEEEEEENSt15iterator_traitsIT_E17iterator_categoryERKSB_
	mov	rdi, qword ptr [rbp - 40]
	mov	rsi, qword ptr [rbp - 48]
	mov	rdx, qword ptr [rbp - 56]
	call	_ZNSt3_V28__rotateIN9__gnu_cxx17__normal_iteratorIPcNSt7__cxx1112basic_stringIcSt11char_traitsIcESaIcEEEEEEET_SB_SB_SB_St26random_access_iterator_tag
	mov	qword ptr [rbp - 8], rax
	mov	rax, qword ptr [rbp - 8]
	add	rsp, 80
	pop	rbp
	ret
.Lfunc_end40:
	.size	_ZNSt3_V26rotateIN9__gnu_cxx17__normal_iteratorIPcNSt7__cxx1112basic_stringIcSt11char_traitsIcESaIcEEEEEEET_SB_SB_SB_, .Lfunc_end40-_ZNSt3_V26rotateIN9__gnu_cxx17__normal_iteratorIPcNSt7__cxx1112basic_stringIcSt11char_traitsIcESaIcEEEEEEET_SB_SB_SB_
	.cfi_endproc

	.section	.text._ZNSt7__cxx1112basic_stringIcSt11char_traitsIcESaIcEE5beginEv,"axG",@progbits,_ZNSt7__cxx1112basic_stringIcSt11char_traitsIcESaIcEE5beginEv,comdat
	.weak	_ZNSt7__cxx1112basic_stringIcSt11char_traitsIcESaIcEE5beginEv 
	.p2align	4, 0x90
	.type	_ZNSt7__cxx1112basic_stringIcSt11char_traitsIcESaIcEE5beginEv,@function
_ZNSt7__cxx1112basic_stringIcSt11char_traitsIcESaIcEE5beginEv: 
.Lfunc_begin9:
	.cfi_startproc
	.cfi_personality 3, __gxx_personality_v0
	.cfi_lsda 3, .Lexception9

	push	rbp
	mov	rbp, rsp
	sub	rsp, 48
	mov	qword ptr [rbp - 16], rdi
	mov	rdi, qword ptr [rbp - 16]
.Ltmp125:
	call	_ZNKSt7__cxx1112basic_stringIcSt11char_traitsIcESaIcEE7_M_dataEv
.Ltmp126:
	mov	qword ptr [rbp - 32], rax 
	jmp	.LBB41_1
.LBB41_1:
	lea	rdi, [rbp - 8]
	lea	rsi, [rbp - 24]
	mov	rax, qword ptr [rbp - 32] 
	mov	qword ptr [rbp - 24], rax
	call	_ZN9__gnu_cxx17__normal_iteratorIPcNSt7__cxx1112basic_stringIcSt11char_traitsIcESaIcEEEEC2ERKS1_
	mov	rax, qword ptr [rbp - 8]
	add	rsp, 48
	pop	rbp
	ret
.LBB41_2:
.Ltmp127:
	mov	ecx, edx
	mov	rdi, rax
	mov	dword ptr [rbp - 36], ecx 
	call	__clang_call_terminate
.Lfunc_end41:
	.size	_ZNSt7__cxx1112basic_stringIcSt11char_traitsIcESaIcEE5beginEv, .Lfunc_end41-_ZNSt7__cxx1112basic_stringIcSt11char_traitsIcESaIcEE5beginEv
	.cfi_endproc
	.section	.gcc_except_table,"a",@progbits
	.p2align	2
GCC_except_table41:
.Lexception9:
	.byte	255                     
	.byte	3                       
	.byte	21                      
	.byte	3                       
	.byte	13                      
	.long	.Ltmp125-.Lfunc_begin9  
	.long	.Ltmp126-.Ltmp125       
	.long	.Ltmp127-.Lfunc_begin9  
	.byte	1                       
	.byte	1                       

	.byte	0                       

	.long	0                       
	.p2align	2

	.section	.text._ZNK9__gnu_cxx17__normal_iteratorIPcNSt7__cxx1112basic_stringIcSt11char_traitsIcESaIcEEEEplEl,"axG",@progbits,_ZNK9__gnu_cxx17__normal_iteratorIPcNSt7__cxx1112basic_stringIcSt11char_traitsIcESaIcEEEEplEl,comdat
	.weak	_ZNK9__gnu_cxx17__normal_iteratorIPcNSt7__cxx1112basic_stringIcSt11char_traitsIcESaIcEEEEplEl 
	.p2align	4, 0x90
	.type	_ZNK9__gnu_cxx17__normal_iteratorIPcNSt7__cxx1112basic_stringIcSt11char_traitsIcESaIcEEEEplEl,@function
_ZNK9__gnu_cxx17__normal_iteratorIPcNSt7__cxx1112basic_stringIcSt11char_traitsIcESaIcEEEEplEl: 

	push	rbp
	mov	rbp, rsp
	sub	rsp, 32
	lea	rax, [rbp - 8]
	lea	rcx, [rbp - 32]
	mov	qword ptr [rbp - 16], rdi
	mov	qword ptr [rbp - 24], rsi
	mov	rsi, qword ptr [rbp - 16]
	mov	rsi, qword ptr [rsi]
	add	rsi, qword ptr [rbp - 24]
	mov	qword ptr [rbp - 32], rsi
	mov	rdi, rax
	mov	rsi, rcx
	call	_ZN9__gnu_cxx17__normal_iteratorIPcNSt7__cxx1112basic_stringIcSt11char_traitsIcESaIcEEEEC2ERKS1_
	mov	rax, qword ptr [rbp - 8]
	add	rsp, 32
	pop	rbp
	ret
.Lfunc_end42:
	.size	_ZNK9__gnu_cxx17__normal_iteratorIPcNSt7__cxx1112basic_stringIcSt11char_traitsIcESaIcEEEEplEl, .Lfunc_end42-_ZNK9__gnu_cxx17__normal_iteratorIPcNSt7__cxx1112basic_stringIcSt11char_traitsIcESaIcEEEEplEl

	.section	.text._ZNSt7__cxx1112basic_stringIcSt11char_traitsIcESaIcEE3endEv,"axG",@progbits,_ZNSt7__cxx1112basic_stringIcSt11char_traitsIcESaIcEE3endEv,comdat
	.weak	_ZNSt7__cxx1112basic_stringIcSt11char_traitsIcESaIcEE3endEv 
	.p2align	4, 0x90
	.type	_ZNSt7__cxx1112basic_stringIcSt11char_traitsIcESaIcEE3endEv,@function
_ZNSt7__cxx1112basic_stringIcSt11char_traitsIcESaIcEE3endEv: 
.Lfunc_begin10:
	.cfi_startproc
	.cfi_personality 3, __gxx_personality_v0
	.cfi_lsda 3, .Lexception10

	push	rbp
	mov	rbp, rsp
	sub	rsp, 48
	mov	qword ptr [rbp - 16], rdi
	mov	rdi, qword ptr [rbp - 16]
.Ltmp128:
	mov	qword ptr [rbp - 32], rdi 
	call	_ZNKSt7__cxx1112basic_stringIcSt11char_traitsIcESaIcEE7_M_dataEv
.Ltmp129:
	mov	qword ptr [rbp - 40], rax 
	jmp	.LBB43_1
.LBB43_1:
	mov	rdi, qword ptr [rbp - 32] 
	call	_ZNKSt7__cxx1112basic_stringIcSt11char_traitsIcESaIcEE4sizeEv
	lea	rdi, [rbp - 8]
	lea	rsi, [rbp - 24]
	mov	rcx, qword ptr [rbp - 40] 
	add	rcx, rax
	mov	qword ptr [rbp - 24], rcx
	call	_ZN9__gnu_cxx17__normal_iteratorIPcNSt7__cxx1112basic_stringIcSt11char_traitsIcESaIcEEEEC2ERKS1_
	mov	rax, qword ptr [rbp - 8]
	add	rsp, 48
	pop	rbp
	ret
.LBB43_2:
.Ltmp130:
	mov	ecx, edx
	mov	rdi, rax
	mov	dword ptr [rbp - 44], ecx 
	call	__clang_call_terminate
.Lfunc_end43:
	.size	_ZNSt7__cxx1112basic_stringIcSt11char_traitsIcESaIcEE3endEv, .Lfunc_end43-_ZNSt7__cxx1112basic_stringIcSt11char_traitsIcESaIcEE3endEv
	.cfi_endproc
	.section	.gcc_except_table,"a",@progbits
	.p2align	2
GCC_except_table43:
.Lexception10:
	.byte	255                     
	.byte	3                       
	.byte	21                      
	.byte	3                       
	.byte	13                      
	.long	.Ltmp128-.Lfunc_begin10 
	.long	.Ltmp129-.Ltmp128       
	.long	.Ltmp130-.Lfunc_begin10 
	.byte	1                       
	.byte	1                       

	.byte	0                       

	.long	0                       
	.p2align	2

	.text
	.globl	_ZN3DES6keygenERKNSt7__cxx1112basic_stringIcSt11char_traitsIcESaIcEEEi 
	.p2align	4, 0x90
	.type	_ZN3DES6keygenERKNSt7__cxx1112basic_stringIcSt11char_traitsIcESaIcEEEi,@function
_ZN3DES6keygenERKNSt7__cxx1112basic_stringIcSt11char_traitsIcESaIcEEEi: 
	.cfi_startproc

	push	rbp
.Lcfi104:
	.cfi_def_cfa_offset 16
.Lcfi105:
	.cfi_offset rbp, -16
	mov	rbp, rsp
.Lcfi106:
	.cfi_def_cfa_register rbp
	push	r15
	push	r14
	push	r13
	push	r12
	push	rbx
	sub	rsp, 232
.Lcfi107:
	.cfi_offset rbx, -56
.Lcfi108:
	.cfi_offset r12, -48
.Lcfi109:
	.cfi_offset r13, -40
.Lcfi110:
	.cfi_offset r14, -32
.Lcfi111:
	.cfi_offset r15, -24
	mov	qword ptr [rbp - 64], rdi
	mov	qword ptr [rbp - 72], rsi
	mov	dword ptr [rbp - 76], edx
	mov	rsi, qword ptr [rbp - 64]
	mov	qword ptr [rbp - 56], rsi
	mov	edx, dword ptr [rbp - 76]
	mov	dword ptr [rbp - 48], edx
	mov	dword ptr [rbp - 180], 706451295
.LBB44_1:                               
	mov	eax, dword ptr [rbp - 180]
	mov	ecx, eax
	sub	ecx, -2130314059
	mov	dword ptr [rbp - 184], eax 
	mov	dword ptr [rbp - 188], ecx 
	je	.LBB44_10
	jmp	.LBB44_19
.LBB44_19:                              
	mov	eax, dword ptr [rbp - 184] 
	sub	eax, -2048701782
	mov	dword ptr [rbp - 192], eax 
	je	.LBB44_6
	jmp	.LBB44_20
.LBB44_20:                              
	mov	eax, dword ptr [rbp - 184] 
	sub	eax, -2039874214
	mov	dword ptr [rbp - 196], eax 
	je	.LBB44_7
	jmp	.LBB44_21
.LBB44_21:                              
	mov	eax, dword ptr [rbp - 184] 
	sub	eax, -1173580205
	mov	dword ptr [rbp - 200], eax 
	je	.LBB44_9
	jmp	.LBB44_22
.LBB44_22:                              
	mov	eax, dword ptr [rbp - 184] 
	sub	eax, -1131855877
	mov	dword ptr [rbp - 204], eax 
	je	.LBB44_11
	jmp	.LBB44_23
.LBB44_23:                              
	mov	eax, dword ptr [rbp - 184] 
	sub	eax, -925517983
	mov	dword ptr [rbp - 208], eax 
	je	.LBB44_13
	jmp	.LBB44_24
.LBB44_24:                              
	mov	eax, dword ptr [rbp - 184] 
	sub	eax, -701030535
	mov	dword ptr [rbp - 212], eax 
	je	.LBB44_14
	jmp	.LBB44_25
.LBB44_25:                              
	mov	eax, dword ptr [rbp - 184] 
	sub	eax, -306416390
	mov	dword ptr [rbp - 216], eax 
	je	.LBB44_5
	jmp	.LBB44_26
.LBB44_26:                              
	mov	eax, dword ptr [rbp - 184] 
	sub	eax, 33374710
	mov	dword ptr [rbp - 220], eax 
	je	.LBB44_12
	jmp	.LBB44_27
.LBB44_27:                              
	mov	eax, dword ptr [rbp - 184] 
	sub	eax, 57703928
	mov	dword ptr [rbp - 224], eax 
	je	.LBB44_17
	jmp	.LBB44_28
.LBB44_28:                              
	mov	eax, dword ptr [rbp - 184] 
	sub	eax, 706451295
	mov	dword ptr [rbp - 228], eax 
	je	.LBB44_3
	jmp	.LBB44_29
.LBB44_29:                              
	mov	eax, dword ptr [rbp - 184] 
	sub	eax, 895186823
	mov	dword ptr [rbp - 232], eax 
	je	.LBB44_16
	jmp	.LBB44_30
.LBB44_30:                              
	mov	eax, dword ptr [rbp - 184] 
	sub	eax, 903225722
	mov	dword ptr [rbp - 236], eax 
	je	.LBB44_4
	jmp	.LBB44_31
.LBB44_31:                              
	mov	eax, dword ptr [rbp - 184] 
	sub	eax, 1696782341
	mov	dword ptr [rbp - 240], eax 
	je	.LBB44_15
	jmp	.LBB44_32
.LBB44_32:                              
	mov	eax, dword ptr [rbp - 184] 
	sub	eax, 1829672307
	mov	dword ptr [rbp - 244], eax 
	je	.LBB44_8
	jmp	.LBB44_2
.LBB44_2:                               
	jmp	.LBB44_18
.LBB44_3:                               
	mov	eax, 3988550906
	mov	ecx, 903225722
	mov	edx, dword ptr [rbp - 48]
	cmp	edx, 1
	cmove	eax, ecx
	mov	dword ptr [rbp - 180], eax
	jmp	.LBB44_18
.LBB44_4:                               
	mov	rsi, qword ptr [rbp - 72]
	mov	rdi, qword ptr [rbp - 56]
	call	_ZN3DES15parityDropPermuERKNSt7__cxx1112basic_stringIcSt11char_traitsIcESaIcEEE
	lea	rdi, [rbp - 112]
	xor	eax, eax
	mov	edx, eax
	mov	eax, 28
	mov	ecx, eax
	mov	rsi, qword ptr [rbp - 56]
	add	rsi, 232
	call	_ZNKSt7__cxx1112basic_stringIcSt11char_traitsIcESaIcEE6substrEmm
	lea	rsi, [rbp - 112]
	mov	rcx, qword ptr [rbp - 56]
	add	rcx, 136
	mov	rdi, rcx
	call	_ZNSt7__cxx1112basic_stringIcSt11char_traitsIcESaIcEEaSEOS4_
	lea	rdi, [rbp - 112]
	mov	qword ptr [rbp - 256], rax 
	call	_ZNSt7__cxx1112basic_stringIcSt11char_traitsIcESaIcEED2Ev
	lea	rdi, [rbp - 144]
	mov	r8d, 28
	mov	eax, r8d
	mov	rcx, qword ptr [rbp - 56]
	add	rcx, 232
	mov	rsi, rcx
	mov	rdx, rax
	mov	rcx, rax
	call	_ZNKSt7__cxx1112basic_stringIcSt11char_traitsIcESaIcEE6substrEmm
	lea	rsi, [rbp - 144]
	mov	rax, qword ptr [rbp - 56]
	add	rax, 168
	mov	rdi, rax
	call	_ZNSt7__cxx1112basic_stringIcSt11char_traitsIcESaIcEEaSEOS4_
	lea	rdi, [rbp - 144]
	mov	qword ptr [rbp - 264], rax 
	call	_ZNSt7__cxx1112basic_stringIcSt11char_traitsIcESaIcEED2Ev
	mov	dword ptr [rbp - 180], -306416390
	jmp	.LBB44_18
.LBB44_5:                               
	mov	eax, 895186823
	mov	ecx, 2246265514
	mov	dl, 1
	xor	esi, esi
	mov	edi, dword ptr [x.118]
	mov	r8d, dword ptr [y.119]
	sub	esi, 1
	mov	r9d, edi
	add	r9d, esi
	imul	edi, r9d
	and	edi, 1
	cmp	edi, 0
	sete	r10b
	cmp	r8d, 10
	setl	r11b
	mov	bl, r10b
	xor	bl, -1
	mov	r14b, r11b
	xor	r14b, -1
	xor	dl, 0
	mov	r15b, bl
	and	r15b, 0
	and	r10b, dl
	mov	r12b, r14b
	and	r12b, 0
	and	r11b, dl
	or	r15b, r10b
	or	r12b, r11b
	xor	r15b, r12b
	or	bl, r14b
	xor	bl, -1
	or	dl, 0
	and	bl, dl
	or	r15b, bl
	test	r15b, 1
	cmovne	eax, ecx
	mov	dword ptr [rbp - 180], eax
	jmp	.LBB44_18
.LBB44_6:                               
	mov	eax, 895186823
	mov	ecx, 2255093082
	mov	dl, 1
	cmp	dword ptr [rbp - 76], 1
	sete	sil
	and	sil, 1
	mov	byte ptr [rbp - 41], sil
	mov	edi, dword ptr [x.118]
	mov	r8d, dword ptr [y.119]
	mov	r9d, edi
	add	r9d, -1127749725
	sub	r9d, 1
	sub	r9d, -1127749725
	imul	edi, r9d
	and	edi, 1
	cmp	edi, 0
	sete	sil
	cmp	r8d, 10
	setl	r10b
	mov	r11b, sil
	xor	r11b, -1
	mov	bl, r10b
	xor	bl, -1
	xor	dl, 0
	mov	r14b, r11b
	and	r14b, 0
	and	sil, dl
	mov	r15b, bl
	and	r15b, 0
	and	r10b, dl
	or	r14b, sil
	or	r15b, r10b
	xor	r14b, r15b
	or	r11b, bl
	xor	r11b, -1
	or	dl, 0
	and	r11b, dl
	or	r14b, r11b
	test	r14b, 1
	cmovne	eax, ecx
	mov	dword ptr [rbp - 180], eax
	jmp	.LBB44_18
.LBB44_7:                               
	mov	eax, 1829672307
	mov	ecx, 3163111419
	mov	dl, byte ptr [rbp - 41]
	test	dl, 1
	cmovne	eax, ecx
	mov	dword ptr [rbp - 180], eax
	jmp	.LBB44_18
.LBB44_8:                               
	mov	eax, 3121387091
	mov	ecx, 3163111419
	cmp	dword ptr [rbp - 76], 2
	cmove	eax, ecx
	mov	dword ptr [rbp - 180], eax
	jmp	.LBB44_18
.LBB44_9:                               
	mov	eax, 2164653237
	mov	ecx, 3163111419
	cmp	dword ptr [rbp - 76], 9
	cmove	eax, ecx
	mov	dword ptr [rbp - 180], eax
	jmp	.LBB44_18
.LBB44_10:                              
	mov	eax, 3593936761
	mov	ecx, 3163111419
	cmp	dword ptr [rbp - 76], 16
	cmove	eax, ecx
	mov	dword ptr [rbp - 180], eax
	jmp	.LBB44_18
.LBB44_11:                              
	mov	eax, 57703928
	mov	ecx, 33374710
	mov	edx, dword ptr [x.118]
	mov	esi, dword ptr [y.119]
	mov	edi, edx
	sub	edi, -1515811237
	sub	edi, 1
	add	edi, -1515811237
	imul	edx, edi
	and	edx, 1
	cmp	edx, 0
	sete	r8b
	cmp	esi, 10
	setl	r9b
	mov	r10b, r8b
	and	r10b, r9b
	xor	r8b, r9b
	or	r10b, r8b
	test	r10b, 1
	cmovne	eax, ecx
	mov	dword ptr [rbp - 180], eax
	jmp	.LBB44_18
.LBB44_12:                              
	mov	edx, 1
	mov	rax, qword ptr [rbp - 56]
	add	rax, 136
	mov	rdi, qword ptr [rbp - 56]
	mov	rsi, rax
	call	_ZN3DES9shiftLeftERNSt7__cxx1112basic_stringIcSt11char_traitsIcESaIcEEEi
	mov	edx, 1
	mov	rax, qword ptr [rbp - 56]
	add	rax, 168
	mov	rdi, qword ptr [rbp - 56]
	mov	rsi, rax
	call	_ZN3DES9shiftLeftERNSt7__cxx1112basic_stringIcSt11char_traitsIcESaIcEEEi
	mov	edx, 57703928
	mov	ecx, 3369449313
	mov	r8b, 1
	mov	r9d, dword ptr [x.118]
	mov	r10d, dword ptr [y.119]
	mov	r11d, r9d
	add	r11d, 1896558592
	sub	r11d, 1
	sub	r11d, 1896558592
	imul	r9d, r11d
	and	r9d, 1
	cmp	r9d, 0
	sete	bl
	cmp	r10d, 10
	setl	r14b
	mov	r15b, bl
	xor	r15b, -1
	mov	r12b, r14b
	xor	r12b, -1
	xor	r8b, 0
	mov	r13b, r15b
	and	r13b, 0
	and	bl, r8b
	mov	al, r12b
	and	al, 0
	and	r14b, r8b
	or	r13b, bl
	or	al, r14b
	xor	r13b, al
	or	r15b, r12b
	xor	r15b, -1
	or	r8b, 0
	and	r15b, r8b
	or	r13b, r15b
	test	r13b, 1
	cmovne	edx, ecx
	mov	dword ptr [rbp - 180], edx
	jmp	.LBB44_18
.LBB44_13:                              
	mov	dword ptr [rbp - 180], 1696782341
	jmp	.LBB44_18
.LBB44_14:                              
	mov	edx, 2
	mov	rax, qword ptr [rbp - 56]
	add	rax, 136
	mov	rdi, qword ptr [rbp - 56]
	mov	rsi, rax
	call	_ZN3DES9shiftLeftERNSt7__cxx1112basic_stringIcSt11char_traitsIcESaIcEEEi
	mov	edx, 2
	mov	rax, qword ptr [rbp - 56]
	add	rax, 168
	mov	rdi, qword ptr [rbp - 56]
	mov	rsi, rax
	call	_ZN3DES9shiftLeftERNSt7__cxx1112basic_stringIcSt11char_traitsIcESaIcEEEi
	mov	dword ptr [rbp - 180], 1696782341
	jmp	.LBB44_18
.LBB44_15:
	lea	rdi, [rbp - 176]
	mov	rax, qword ptr [rbp - 56]
	add	rax, 136
	mov	rcx, qword ptr [rbp - 56]
	add	rcx, 168
	mov	rsi, rax
	mov	rdx, rcx
	call	_ZStplIcSt11char_traitsIcESaIcEENSt7__cxx1112basic_stringIT_T0_T1_EERKS8_SA_
	lea	rsi, [rbp - 176]
	mov	rax, qword ptr [rbp - 56]
	add	rax, 232
	mov	rdi, rax
	call	_ZNSt7__cxx1112basic_stringIcSt11char_traitsIcESaIcEEaSEOS4_
	lea	rdi, [rbp - 176]
	mov	qword ptr [rbp - 272], rax 
	call	_ZNSt7__cxx1112basic_stringIcSt11char_traitsIcESaIcEED2Ev
	mov	rax, qword ptr [rbp - 56]
	add	rax, 232
	mov	rdi, qword ptr [rbp - 56]
	mov	rsi, rax
	call	_ZN3DES16compressionPermuERKNSt7__cxx1112basic_stringIcSt11char_traitsIcESaIcEEE
	add	rsp, 232
	pop	rbx
	pop	r12
	pop	r13
	pop	r14
	pop	r15
	pop	rbp
	ret
.LBB44_16:                              
	mov	dword ptr [rbp - 180], -2048701782
	jmp	.LBB44_18
.LBB44_17:                              
	mov	edx, 1
	mov	rax, qword ptr [rbp - 56]
	add	rax, 136
	mov	rdi, qword ptr [rbp - 56]
	mov	rsi, rax
	call	_ZN3DES9shiftLeftERNSt7__cxx1112basic_stringIcSt11char_traitsIcESaIcEEEi
	mov	edx, 1
	mov	rax, qword ptr [rbp - 56]
	add	rax, 168
	mov	rdi, qword ptr [rbp - 56]
	mov	rsi, rax
	call	_ZN3DES9shiftLeftERNSt7__cxx1112basic_stringIcSt11char_traitsIcESaIcEEEi
	mov	dword ptr [rbp - 180], 33374710
.LBB44_18:                              
	jmp	.LBB44_1
.Lfunc_end44:
	.size	_ZN3DES6keygenERKNSt7__cxx1112basic_stringIcSt11char_traitsIcESaIcEEEi, .Lfunc_end44-_ZN3DES6keygenERKNSt7__cxx1112basic_stringIcSt11char_traitsIcESaIcEEEi
	.cfi_endproc

	.globl	_ZN3DES15parityDropPermuERKNSt7__cxx1112basic_stringIcSt11char_traitsIcESaIcEEE 
	.p2align	4, 0x90
	.type	_ZN3DES15parityDropPermuERKNSt7__cxx1112basic_stringIcSt11char_traitsIcESaIcEEE,@function
_ZN3DES15parityDropPermuERKNSt7__cxx1112basic_stringIcSt11char_traitsIcESaIcEEE: 
	.cfi_startproc

	push	rbp
.Lcfi112:
	.cfi_def_cfa_offset 16
.Lcfi113:
	.cfi_offset rbp, -16
	mov	rbp, rsp
.Lcfi114:
	.cfi_def_cfa_register rbp
	push	r15
	push	r14
	push	rbx
	sub	rsp, 248
.Lcfi115:
	.cfi_offset rbx, -40
.Lcfi116:
	.cfi_offset r14, -32
.Lcfi117:
	.cfi_offset r15, -24
	lea	rax, [rbp - 64]
	mov	qword ptr [rbp - 48], rdi
	mov	qword ptr [rbp - 56], rsi
	mov	rsi, qword ptr [rbp - 48]
	mov	qword ptr [rbp - 40], rsi
	mov	rdi, rax
	call	_ZNSt6bitsetILm56EEC2Ev
	mov	rdi, qword ptr [rbp - 56]
	call	_ZNKSt7__cxx1112basic_stringIcSt11char_traitsIcESaIcEE5beginEv
	mov	qword ptr [rbp - 80], rax
	mov	dword ptr [rbp - 148], -1408827155
.LBB45_1:                               
	mov	eax, dword ptr [rbp - 148]
	mov	ecx, eax
	sub	ecx, -2057479482
	mov	dword ptr [rbp - 152], eax 
	mov	dword ptr [rbp - 156], ecx 
	je	.LBB45_9
	jmp	.LBB45_24
.LBB45_24:                              
	mov	eax, dword ptr [rbp - 152] 
	sub	eax, -1897967999
	mov	dword ptr [rbp - 160], eax 
	je	.LBB45_16
	jmp	.LBB45_25
.LBB45_25:                              
	mov	eax, dword ptr [rbp - 152] 
	sub	eax, -1483645787
	mov	dword ptr [rbp - 164], eax 
	je	.LBB45_4
	jmp	.LBB45_26
.LBB45_26:                              
	mov	eax, dword ptr [rbp - 152] 
	sub	eax, -1408827155
	mov	dword ptr [rbp - 168], eax 
	je	.LBB45_3
	jmp	.LBB45_27
.LBB45_27:                              
	mov	eax, dword ptr [rbp - 152] 
	sub	eax, -1306211684
	mov	dword ptr [rbp - 172], eax 
	je	.LBB45_18
	jmp	.LBB45_28
.LBB45_28:                              
	mov	eax, dword ptr [rbp - 152] 
	sub	eax, -1227732671
	mov	dword ptr [rbp - 176], eax 
	je	.LBB45_22
	jmp	.LBB45_29
.LBB45_29:                              
	mov	eax, dword ptr [rbp - 152] 
	sub	eax, -1169064099
	mov	dword ptr [rbp - 180], eax 
	je	.LBB45_21
	jmp	.LBB45_30
.LBB45_30:                              
	mov	eax, dword ptr [rbp - 152] 
	sub	eax, -859509272
	mov	dword ptr [rbp - 184], eax 
	je	.LBB45_19
	jmp	.LBB45_31
.LBB45_31:                              
	mov	eax, dword ptr [rbp - 152] 
	sub	eax, -702031841
	mov	dword ptr [rbp - 188], eax 
	je	.LBB45_7
	jmp	.LBB45_32
.LBB45_32:                              
	mov	eax, dword ptr [rbp - 152] 
	sub	eax, -692222957
	mov	dword ptr [rbp - 192], eax 
	je	.LBB45_14
	jmp	.LBB45_33
.LBB45_33:                              
	mov	eax, dword ptr [rbp - 152] 
	sub	eax, -257763350
	mov	dword ptr [rbp - 196], eax 
	je	.LBB45_10
	jmp	.LBB45_34
.LBB45_34:                              
	mov	eax, dword ptr [rbp - 152] 
	sub	eax, -159299265
	mov	dword ptr [rbp - 200], eax 
	je	.LBB45_13
	jmp	.LBB45_35
.LBB45_35:                              
	mov	eax, dword ptr [rbp - 152] 
	sub	eax, -56262848
	mov	dword ptr [rbp - 204], eax 
	je	.LBB45_8
	jmp	.LBB45_36
.LBB45_36:                              
	mov	eax, dword ptr [rbp - 152] 
	sub	eax, 478292653
	mov	dword ptr [rbp - 208], eax 
	je	.LBB45_20
	jmp	.LBB45_37
.LBB45_37:                              
	mov	eax, dword ptr [rbp - 152] 
	sub	eax, 549631491
	mov	dword ptr [rbp - 212], eax 
	je	.LBB45_15
	jmp	.LBB45_38
.LBB45_38:                              
	mov	eax, dword ptr [rbp - 152] 
	sub	eax, 762980482
	mov	dword ptr [rbp - 216], eax 
	je	.LBB45_12
	jmp	.LBB45_39
.LBB45_39:                              
	mov	eax, dword ptr [rbp - 152] 
	sub	eax, 817109755
	mov	dword ptr [rbp - 220], eax 
	je	.LBB45_6
	jmp	.LBB45_40
.LBB45_40:                              
	mov	eax, dword ptr [rbp - 152] 
	sub	eax, 1260272349
	mov	dword ptr [rbp - 224], eax 
	je	.LBB45_17
	jmp	.LBB45_41
.LBB45_41:                              
	mov	eax, dword ptr [rbp - 152] 
	sub	eax, 1833647047
	mov	dword ptr [rbp - 228], eax 
	je	.LBB45_11
	jmp	.LBB45_42
.LBB45_42:                              
	mov	eax, dword ptr [rbp - 152] 
	sub	eax, 2059500153
	mov	dword ptr [rbp - 232], eax 
	je	.LBB45_5
	jmp	.LBB45_2
.LBB45_2:                               
	jmp	.LBB45_23
.LBB45_3:                               
	mov	rdi, qword ptr [rbp - 56]
	call	_ZNKSt7__cxx1112basic_stringIcSt11char_traitsIcESaIcEE3endEv
	lea	rdi, [rbp - 80]
	lea	rsi, [rbp - 88]
	mov	qword ptr [rbp - 88], rax
	call	_ZN9__gnu_cxxltIPKcNSt7__cxx1112basic_stringIcSt11char_traitsIcESaIcEEEEEbRKNS_17__normal_iteratorIT_T0_EESE_
	mov	ecx, 478292653
	mov	edx, 2811321509
	test	al, 1
	cmovne	ecx, edx
	mov	dword ptr [rbp - 148], ecx
	jmp	.LBB45_23
.LBB45_4:                               
	mov	rdi, qword ptr [rbp - 56]
	call	_ZNKSt7__cxx1112basic_stringIcSt11char_traitsIcESaIcEE5beginEv
	mov	qword ptr [rbp - 96], rax
	mov	rax, qword ptr [rbp - 80]
	mov	qword ptr [rbp - 104], rax
	mov	rdi, qword ptr [rbp - 96]
	mov	rsi, qword ptr [rbp - 104]
	call	_ZSt8distanceIN9__gnu_cxx17__normal_iteratorIPKcNSt7__cxx1112basic_stringIcSt11char_traitsIcESaIcEEEEEENSt15iterator_traitsIT_E15difference_typeESC_SC_
	lea	rdi, [rbp - 80]
	movabs	rsi, -351732472163284160
	add	rax, rsi
	add	rax, 1
	sub	rax, rsi
	mov	ecx, eax
	mov	dword ptr [rbp - 72], ecx
	call	_ZNK9__gnu_cxx17__normal_iteratorIPKcNSt7__cxx1112basic_stringIcSt11char_traitsIcESaIcEEEEdeEv
	mov	ecx, 2396999297
	mov	edx, 2059500153
	movsx	r8d, byte ptr [rax]
	cmp	r8d, 49
	cmove	ecx, edx
	mov	dword ptr [rbp - 148], ecx
	jmp	.LBB45_23
.LBB45_5:                               
	mov	eax, 3125903197
	mov	ecx, 817109755
	mov	dl, 1
	mov	esi, dword ptr [x.120]
	mov	edi, dword ptr [y.121]
	mov	r8d, esi
	add	r8d, -2122956189
	sub	r8d, 1
	sub	r8d, -2122956189
	imul	esi, r8d
	and	esi, 1
	cmp	esi, 0
	sete	r9b
	cmp	edi, 10
	setl	r10b
	mov	r11b, r9b
	xor	r11b, -1
	mov	bl, r10b
	xor	bl, -1
	xor	dl, 1
	mov	r14b, r11b
	and	r14b, -1
	and	r9b, dl
	mov	r15b, bl
	and	r15b, -1
	and	r10b, dl
	or	r14b, r9b
	or	r15b, r10b
	xor	r14b, r15b
	or	r11b, bl
	xor	r11b, -1
	or	dl, 1
	and	r11b, dl
	or	r14b, r11b
	test	r14b, 1
	cmovne	eax, ecx
	mov	dword ptr [rbp - 148], eax
	jmp	.LBB45_23
.LBB45_6:                               
	mov	eax, 3125903197
	mov	ecx, 3592935455
	cmp	dword ptr [rbp - 72], 8
	setne	dl
	and	dl, 1
	mov	byte ptr [rbp - 25], dl
	mov	esi, dword ptr [x.120]
	mov	edi, dword ptr [y.121]
	mov	r8d, esi
	sub	r8d, 613118334
	sub	r8d, 1
	add	r8d, 613118334
	imul	esi, r8d
	and	esi, 1
	cmp	esi, 0
	sete	dl
	cmp	edi, 10
	setl	r9b
	mov	r10b, dl
	and	r10b, r9b
	xor	dl, r9b
	or	r10b, dl
	test	r10b, 1
	cmovne	eax, ecx
	mov	dword ptr [rbp - 148], eax
	jmp	.LBB45_23
.LBB45_7:                               
	mov	eax, 2396999297
	mov	ecx, 4238704448
	mov	dl, byte ptr [rbp - 25]
	test	dl, 1
	cmovne	eax, ecx
	mov	dword ptr [rbp - 148], eax
	jmp	.LBB45_23
.LBB45_8:                               
	mov	eax, 2396999297
	mov	ecx, 2237487814
	cmp	dword ptr [rbp - 72], 16
	cmovne	eax, ecx
	mov	dword ptr [rbp - 148], eax
	jmp	.LBB45_23
.LBB45_9:                               
	mov	eax, 2396999297
	mov	ecx, 4037203946
	cmp	dword ptr [rbp - 72], 24
	cmovne	eax, ecx
	mov	dword ptr [rbp - 148], eax
	jmp	.LBB45_23
.LBB45_10:                              
	mov	eax, 2396999297
	mov	ecx, 1833647047
	cmp	dword ptr [rbp - 72], 32
	cmovne	eax, ecx
	mov	dword ptr [rbp - 148], eax
	jmp	.LBB45_23
.LBB45_11:                              
	mov	eax, 2396999297
	mov	ecx, 762980482
	cmp	dword ptr [rbp - 72], 40
	cmovne	eax, ecx
	mov	dword ptr [rbp - 148], eax
	jmp	.LBB45_23
.LBB45_12:                              
	mov	eax, 2396999297
	mov	ecx, 4135668031
	cmp	dword ptr [rbp - 72], 48
	cmovne	eax, ecx
	mov	dword ptr [rbp - 148], eax
	jmp	.LBB45_23
.LBB45_13:                              
	mov	eax, 2396999297
	mov	ecx, 3602744339
	cmp	dword ptr [rbp - 72], 56
	cmovne	eax, ecx
	mov	dword ptr [rbp - 148], eax
	jmp	.LBB45_23
.LBB45_14:                              
	mov	eax, 2396999297
	mov	ecx, 549631491
	cmp	dword ptr [rbp - 72], 64
	cmovne	eax, ecx
	mov	dword ptr [rbp - 148], eax
	jmp	.LBB45_23
.LBB45_15:                              
	movabs	rdi, _ZN3DES18parityBitDropTableE
	call	_ZNKSt5arrayIiLm56EE5beginEv
	movabs	rdi, _ZN3DES18parityBitDropTableE
	mov	qword ptr [rbp - 240], rax 
	call	_ZNKSt5arrayIiLm56EE5beginEv
	movabs	rdi, _ZN3DES18parityBitDropTableE
	mov	qword ptr [rbp - 248], rax 
	call	_ZNKSt5arrayIiLm56EE3endEv
	lea	rdx, [rbp - 72]
	mov	rdi, qword ptr [rbp - 248] 
	mov	rsi, rax
	call	_ZSt4findIPKiiET_S2_S2_RKT0_
	mov	rdi, qword ptr [rbp - 240] 
	mov	rsi, rax
	call	_ZSt8distanceIPKiENSt15iterator_traitsIT_E15difference_typeES3_S3_
	lea	rdi, [rbp - 64]
	mov	edx, 1
	mov	ecx, 3308034604
	mov	r8d, eax
	mov	dword ptr [rbp - 68], r8d
	mov	r8d, dword ptr [rbp - 68]
	add	ecx, 55
	sub	ecx, r8d
	sub	ecx, -986932692
	movsxd	rsi, ecx
	call	_ZNSt6bitsetILm56EE3setEmb
	mov	dword ptr [rbp - 148], -1897967999
	mov	qword ptr [rbp - 256], rax 
	jmp	.LBB45_23
.LBB45_16:                              
	mov	dword ptr [rbp - 148], 1260272349
	jmp	.LBB45_23
.LBB45_17:                              
	mov	eax, 3067234625
	mov	ecx, 2988755612
	mov	dl, 1
	mov	esi, dword ptr [x.120]
	mov	edi, dword ptr [y.121]
	mov	r8d, esi
	sub	r8d, 909709791
	sub	r8d, 1
	add	r8d, 909709791
	imul	esi, r8d
	and	esi, 1
	cmp	esi, 0
	sete	r9b
	cmp	edi, 10
	setl	r10b
	mov	r11b, r9b
	xor	r11b, -1
	mov	bl, r10b
	xor	bl, -1
	xor	dl, 1
	mov	r14b, r11b
	and	r14b, -1
	and	r9b, dl
	mov	r15b, bl
	and	r15b, -1
	and	r10b, dl
	or	r14b, r9b
	or	r15b, r10b
	xor	r14b, r15b
	or	r11b, bl
	xor	r11b, -1
	or	dl, 1
	and	r11b, dl
	or	r14b, r11b
	test	r14b, 1
	cmovne	eax, ecx
	mov	dword ptr [rbp - 148], eax
	jmp	.LBB45_23
.LBB45_18:                              
	lea	rdi, [rbp - 80]
	xor	esi, esi
	call	_ZN9__gnu_cxx17__normal_iteratorIPKcNSt7__cxx1112basic_stringIcSt11char_traitsIcESaIcEEEEppEi
	mov	esi, 3067234625
	mov	ecx, 3435458024
	mov	qword ptr [rbp - 112], rax
	mov	edx, dword ptr [x.120]
	mov	r8d, dword ptr [y.121]
	mov	r9d, edx
	sub	r9d, -395376976
	sub	r9d, 1
	add	r9d, -395376976
	imul	edx, r9d
	and	edx, 1
	cmp	edx, 0
	sete	r10b
	cmp	r8d, 10
	setl	r11b
	mov	bl, r10b
	and	bl, r11b
	xor	r10b, r11b
	or	bl, r10b
	test	bl, 1
	cmovne	esi, ecx
	mov	dword ptr [rbp - 148], esi
	jmp	.LBB45_23
.LBB45_19:                              
	mov	dword ptr [rbp - 148], -1408827155
	jmp	.LBB45_23
.LBB45_20:
	lea	rdi, [rbp - 144]
	lea	rsi, [rbp - 64]
	call	_ZNKSt6bitsetILm56EE9to_stringB5cxx11Ev
	lea	rsi, [rbp - 144]
	mov	rdi, qword ptr [rbp - 40]
	add	rdi, 232
	call	_ZNSt7__cxx1112basic_stringIcSt11char_traitsIcESaIcEEaSEOS4_
	lea	rdi, [rbp - 144]
	mov	qword ptr [rbp - 264], rax 
	call	_ZNSt7__cxx1112basic_stringIcSt11char_traitsIcESaIcEED2Ev
	add	rsp, 248
	pop	rbx
	pop	r14
	pop	r15
	pop	rbp
	ret
.LBB45_21:                              
	mov	dword ptr [rbp - 148], 817109755
	jmp	.LBB45_23
.LBB45_22:                              
	lea	rdi, [rbp - 80]
	xor	esi, esi
	call	_ZN9__gnu_cxx17__normal_iteratorIPKcNSt7__cxx1112basic_stringIcSt11char_traitsIcESaIcEEEEppEi
	mov	qword ptr [rbp - 112], rax
	mov	dword ptr [rbp - 148], -1306211684
.LBB45_23:                              
	jmp	.LBB45_1
.Lfunc_end45:
	.size	_ZN3DES15parityDropPermuERKNSt7__cxx1112basic_stringIcSt11char_traitsIcESaIcEEE, .Lfunc_end45-_ZN3DES15parityDropPermuERKNSt7__cxx1112basic_stringIcSt11char_traitsIcESaIcEEE
	.cfi_endproc

	.section	.text._ZNKSt7__cxx1112basic_stringIcSt11char_traitsIcESaIcEE6substrEmm,"axG",@progbits,_ZNKSt7__cxx1112basic_stringIcSt11char_traitsIcESaIcEE6substrEmm,comdat
	.weak	_ZNKSt7__cxx1112basic_stringIcSt11char_traitsIcESaIcEE6substrEmm 
	.p2align	4, 0x90
	.type	_ZNKSt7__cxx1112basic_stringIcSt11char_traitsIcESaIcEE6substrEmm,@function
_ZNKSt7__cxx1112basic_stringIcSt11char_traitsIcESaIcEE6substrEmm: 
	.cfi_startproc

	push	rbp
.Lcfi118:
	.cfi_def_cfa_offset 16
.Lcfi119:
	.cfi_offset rbp, -16
	mov	rbp, rsp
.Lcfi120:
	.cfi_def_cfa_register rbp
	sub	rsp, 48
	mov	rax, rdi
	movabs	r8, .L.str.50
	mov	qword ptr [rbp - 8], rsi
	mov	qword ptr [rbp - 16], rdx
	mov	qword ptr [rbp - 24], rcx
	mov	rcx, qword ptr [rbp - 8]
	mov	rsi, qword ptr [rbp - 16]
	mov	qword ptr [rbp - 32], rdi 
	mov	rdi, rcx
	mov	rdx, r8
	mov	qword ptr [rbp - 40], rax 
	mov	qword ptr [rbp - 48], rcx 
	call	_ZNKSt7__cxx1112basic_stringIcSt11char_traitsIcESaIcEE8_M_checkEmPKc
	mov	rcx, qword ptr [rbp - 24]
	mov	rdi, qword ptr [rbp - 32] 
	mov	rsi, qword ptr [rbp - 48] 
	mov	rdx, rax
	call	_ZNSt7__cxx1112basic_stringIcSt11char_traitsIcESaIcEEC2ERKS4_mm
	mov	rax, qword ptr [rbp - 40] 
	add	rsp, 48
	pop	rbp
	ret
.Lfunc_end46:
	.size	_ZNKSt7__cxx1112basic_stringIcSt11char_traitsIcESaIcEE6substrEmm, .Lfunc_end46-_ZNKSt7__cxx1112basic_stringIcSt11char_traitsIcESaIcEE6substrEmm
	.cfi_endproc

	.section	.text._ZStplIcSt11char_traitsIcESaIcEENSt7__cxx1112basic_stringIT_T0_T1_EERKS8_SA_,"axG",@progbits,_ZStplIcSt11char_traitsIcESaIcEENSt7__cxx1112basic_stringIT_T0_T1_EERKS8_SA_,comdat
	.weak	_ZStplIcSt11char_traitsIcESaIcEENSt7__cxx1112basic_stringIT_T0_T1_EERKS8_SA_ 
	.p2align	4, 0x90
	.type	_ZStplIcSt11char_traitsIcESaIcEENSt7__cxx1112basic_stringIT_T0_T1_EERKS8_SA_,@function
_ZStplIcSt11char_traitsIcESaIcEENSt7__cxx1112basic_stringIT_T0_T1_EERKS8_SA_: 
.Lfunc_begin11:
	.cfi_startproc
	.cfi_personality 3, __gxx_personality_v0
	.cfi_lsda 3, .Lexception11

	push	rbp
.Lcfi121:
	.cfi_def_cfa_offset 16
.Lcfi122:
	.cfi_offset rbp, -16
	mov	rbp, rsp
.Lcfi123:
	.cfi_def_cfa_register rbp
	sub	rsp, 64
	mov	rax, rdi
	mov	qword ptr [rbp - 8], rsi
	mov	qword ptr [rbp - 16], rdx
	mov	byte ptr [rbp - 17], 0
	mov	rsi, qword ptr [rbp - 8]
	mov	qword ptr [rbp - 48], rdi 
	mov	qword ptr [rbp - 56], rax 
	call	_ZNSt7__cxx1112basic_stringIcSt11char_traitsIcESaIcEEC2ERKS4_
	mov	rsi, qword ptr [rbp - 16]
.Ltmp131:
	mov	rdi, qword ptr [rbp - 48] 
	call	_ZNSt7__cxx1112basic_stringIcSt11char_traitsIcESaIcEE6appendERKS4_
.Ltmp132:
	mov	qword ptr [rbp - 64], rax 
	jmp	.LBB47_1
.LBB47_1:
	mov	byte ptr [rbp - 17], 1
	test	byte ptr [rbp - 17], 1
	jne	.LBB47_4
	jmp	.LBB47_3
.LBB47_2:
.Ltmp133:
	mov	ecx, edx
	mov	qword ptr [rbp - 32], rax
	mov	dword ptr [rbp - 36], ecx
	mov	rdi, qword ptr [rbp - 48] 
	call	_ZNSt7__cxx1112basic_stringIcSt11char_traitsIcESaIcEED2Ev
	jmp	.LBB47_5
.LBB47_3:
	mov	rdi, qword ptr [rbp - 48] 
	call	_ZNSt7__cxx1112basic_stringIcSt11char_traitsIcESaIcEED2Ev
.LBB47_4:
	mov	rax, qword ptr [rbp - 56] 
	add	rsp, 64
	pop	rbp
	ret
.LBB47_5:
	mov	rdi, qword ptr [rbp - 32]
	call	_Unwind_Resume
.Lfunc_end47:
	.size	_ZStplIcSt11char_traitsIcESaIcEENSt7__cxx1112basic_stringIT_T0_T1_EERKS8_SA_, .Lfunc_end47-_ZStplIcSt11char_traitsIcESaIcEENSt7__cxx1112basic_stringIT_T0_T1_EERKS8_SA_
	.cfi_endproc
	.section	.gcc_except_table,"a",@progbits
	.p2align	2
GCC_except_table47:
.Lexception11:
	.byte	255                     
	.byte	3                       
	.byte	41                      
	.byte	3                       
	.byte	39                      
	.long	.Lfunc_begin11-.Lfunc_begin11 
	.long	.Ltmp131-.Lfunc_begin11 
	.long	0                       
	.byte	0                       
	.long	.Ltmp131-.Lfunc_begin11 
	.long	.Ltmp132-.Ltmp131       
	.long	.Ltmp133-.Lfunc_begin11 
	.byte	0                       
	.long	.Ltmp132-.Lfunc_begin11 
	.long	.Lfunc_end47-.Ltmp132   
	.long	0                       
	.byte	0                       
	.p2align	2

	.text
	.globl	_ZN3DES16compressionPermuERKNSt7__cxx1112basic_stringIcSt11char_traitsIcESaIcEEE 
	.p2align	4, 0x90
	.type	_ZN3DES16compressionPermuERKNSt7__cxx1112basic_stringIcSt11char_traitsIcESaIcEEE,@function
_ZN3DES16compressionPermuERKNSt7__cxx1112basic_stringIcSt11char_traitsIcESaIcEEE: 
	.cfi_startproc

	push	rbp
.Lcfi124:
	.cfi_def_cfa_offset 16
.Lcfi125:
	.cfi_offset rbp, -16
	mov	rbp, rsp
.Lcfi126:
	.cfi_def_cfa_register rbp
	push	r15
	push	r14
	push	r12
	push	rbx
	sub	rsp, 288
.Lcfi127:
	.cfi_offset rbx, -48
.Lcfi128:
	.cfi_offset r12, -40
.Lcfi129:
	.cfi_offset r14, -32
.Lcfi130:
	.cfi_offset r15, -24
	lea	rax, [rbp - 72]
	mov	qword ptr [rbp - 56], rdi
	mov	qword ptr [rbp - 64], rsi
	mov	rsi, qword ptr [rbp - 56]
	mov	qword ptr [rbp - 48], rsi
	mov	rdi, rax
	call	_ZNSt6bitsetILm48EEC2Ev
	mov	rdi, qword ptr [rbp - 64]
	call	_ZNKSt7__cxx1112basic_stringIcSt11char_traitsIcESaIcEE5beginEv
	mov	qword ptr [rbp - 88], rax
	mov	dword ptr [rbp - 156], -1861430258
.LBB48_1:                               
	mov	eax, dword ptr [rbp - 156]
	mov	ecx, eax
	sub	ecx, -1882893296
	mov	dword ptr [rbp - 160], eax 
	mov	dword ptr [rbp - 164], ecx 
	je	.LBB48_24
	jmp	.LBB48_30
.LBB48_30:                              
	mov	eax, dword ptr [rbp - 160] 
	sub	eax, -1861430258
	mov	dword ptr [rbp - 168], eax 
	je	.LBB48_3
	jmp	.LBB48_31
.LBB48_31:                              
	mov	eax, dword ptr [rbp - 160] 
	sub	eax, -1840325031
	mov	dword ptr [rbp - 172], eax 
	je	.LBB48_8
	jmp	.LBB48_32
.LBB48_32:                              
	mov	eax, dword ptr [rbp - 160] 
	sub	eax, -1585316964
	mov	dword ptr [rbp - 176], eax 
	je	.LBB48_11
	jmp	.LBB48_33
.LBB48_33:                              
	mov	eax, dword ptr [rbp - 160] 
	sub	eax, -1181558673
	mov	dword ptr [rbp - 180], eax 
	je	.LBB48_26
	jmp	.LBB48_34
.LBB48_34:                              
	mov	eax, dword ptr [rbp - 160] 
	sub	eax, -1073201166
	mov	dword ptr [rbp - 184], eax 
	je	.LBB48_28
	jmp	.LBB48_35
.LBB48_35:                              
	mov	eax, dword ptr [rbp - 160] 
	sub	eax, -992533579
	mov	dword ptr [rbp - 188], eax 
	je	.LBB48_27
	jmp	.LBB48_36
.LBB48_36:                              
	mov	eax, dword ptr [rbp - 160] 
	sub	eax, -851580645
	mov	dword ptr [rbp - 192], eax 
	je	.LBB48_12
	jmp	.LBB48_37
.LBB48_37:                              
	mov	eax, dword ptr [rbp - 160] 
	sub	eax, -743885470
	mov	dword ptr [rbp - 196], eax 
	je	.LBB48_19
	jmp	.LBB48_38
.LBB48_38:                              
	mov	eax, dword ptr [rbp - 160] 
	sub	eax, -394372945
	mov	dword ptr [rbp - 200], eax 
	je	.LBB48_21
	jmp	.LBB48_39
.LBB48_39:                              
	mov	eax, dword ptr [rbp - 160] 
	sub	eax, -380071073
	mov	dword ptr [rbp - 204], eax 
	je	.LBB48_16
	jmp	.LBB48_40
.LBB48_40:                              
	mov	eax, dword ptr [rbp - 160] 
	sub	eax, -153783350
	mov	dword ptr [rbp - 208], eax 
	je	.LBB48_7
	jmp	.LBB48_41
.LBB48_41:                              
	mov	eax, dword ptr [rbp - 160] 
	sub	eax, 33487810
	mov	dword ptr [rbp - 212], eax 
	je	.LBB48_10
	jmp	.LBB48_42
.LBB48_42:                              
	mov	eax, dword ptr [rbp - 160] 
	sub	eax, 133470160
	mov	dword ptr [rbp - 216], eax 
	je	.LBB48_14
	jmp	.LBB48_43
.LBB48_43:                              
	mov	eax, dword ptr [rbp - 160] 
	sub	eax, 461039879
	mov	dword ptr [rbp - 220], eax 
	je	.LBB48_5
	jmp	.LBB48_44
.LBB48_44:                              
	mov	eax, dword ptr [rbp - 160] 
	sub	eax, 565818874
	mov	dword ptr [rbp - 224], eax 
	je	.LBB48_25
	jmp	.LBB48_45
.LBB48_45:                              
	mov	eax, dword ptr [rbp - 160] 
	sub	eax, 611407688
	mov	dword ptr [rbp - 228], eax 
	je	.LBB48_18
	jmp	.LBB48_46
.LBB48_46:                              
	mov	eax, dword ptr [rbp - 160] 
	sub	eax, 794200585
	mov	dword ptr [rbp - 232], eax 
	je	.LBB48_13
	jmp	.LBB48_47
.LBB48_47:                              
	mov	eax, dword ptr [rbp - 160] 
	sub	eax, 1137982107
	mov	dword ptr [rbp - 236], eax 
	je	.LBB48_6
	jmp	.LBB48_48
.LBB48_48:                              
	mov	eax, dword ptr [rbp - 160] 
	sub	eax, 1157259004
	mov	dword ptr [rbp - 240], eax 
	je	.LBB48_17
	jmp	.LBB48_49
.LBB48_49:                              
	mov	eax, dword ptr [rbp - 160] 
	sub	eax, 1478661666
	mov	dword ptr [rbp - 244], eax 
	je	.LBB48_9
	jmp	.LBB48_50
.LBB48_50:                              
	mov	eax, dword ptr [rbp - 160] 
	sub	eax, 1492243858
	mov	dword ptr [rbp - 248], eax 
	je	.LBB48_4
	jmp	.LBB48_51
.LBB48_51:                              
	mov	eax, dword ptr [rbp - 160] 
	sub	eax, 1937027593
	mov	dword ptr [rbp - 252], eax 
	je	.LBB48_23
	jmp	.LBB48_52
.LBB48_52:                              
	mov	eax, dword ptr [rbp - 160] 
	sub	eax, 1959245506
	mov	dword ptr [rbp - 256], eax 
	je	.LBB48_15
	jmp	.LBB48_53
.LBB48_53:                              
	mov	eax, dword ptr [rbp - 160] 
	sub	eax, 2084799811
	mov	dword ptr [rbp - 260], eax 
	je	.LBB48_22
	jmp	.LBB48_54
.LBB48_54:                              
	mov	eax, dword ptr [rbp - 160] 
	sub	eax, 2141408878
	mov	dword ptr [rbp - 264], eax 
	je	.LBB48_20
	jmp	.LBB48_2
.LBB48_2:                               
	jmp	.LBB48_29
.LBB48_3:                               
	mov	eax, 565818874
	mov	ecx, 1492243858
	xor	edx, edx
	mov	esi, dword ptr [x.124]
	mov	edi, dword ptr [y.125]
	sub	edx, 1
	mov	r8d, esi
	add	r8d, edx
	imul	esi, r8d
	and	esi, 1
	cmp	esi, 0
	sete	r9b
	cmp	edi, 10
	setl	r10b
	mov	r11b, r9b
	and	r11b, r10b
	xor	r9b, r10b
	or	r11b, r9b
	test	r11b, 1
	cmovne	eax, ecx
	mov	dword ptr [rbp - 156], eax
	jmp	.LBB48_29
.LBB48_4:                               
	mov	rdi, qword ptr [rbp - 64]
	call	_ZNKSt7__cxx1112basic_stringIcSt11char_traitsIcESaIcEE3endEv
	lea	rdi, [rbp - 88]
	lea	rsi, [rbp - 96]
	mov	qword ptr [rbp - 96], rax
	call	_ZN9__gnu_cxxltIPKcNSt7__cxx1112basic_stringIcSt11char_traitsIcESaIcEEEEEbRKNS_17__normal_iteratorIT_T0_EESE_
	mov	ecx, 565818874
	mov	edx, 461039879
	xor	r8d, r8d
	and	al, 1
	mov	byte ptr [rbp - 36], al
	mov	r9d, dword ptr [x.124]
	mov	r10d, dword ptr [y.125]
	sub	r8d, 1
	mov	r11d, r9d
	add	r11d, r8d
	imul	r9d, r11d
	and	r9d, 1
	cmp	r9d, 0
	sete	al
	cmp	r10d, 10
	setl	bl
	mov	r14b, al
	and	r14b, bl
	xor	al, bl
	or	r14b, al
	test	r14b, 1
	cmovne	ecx, edx
	mov	dword ptr [rbp - 156], ecx
	jmp	.LBB48_29
.LBB48_5:                               
	mov	eax, 2412074000
	mov	ecx, 1137982107
	mov	dl, byte ptr [rbp - 36]
	test	dl, 1
	cmovne	eax, ecx
	mov	dword ptr [rbp - 156], eax
	jmp	.LBB48_29
.LBB48_6:                               
	mov	eax, 3113408623
	mov	ecx, 4141183946
	mov	edx, dword ptr [x.124]
	mov	esi, dword ptr [y.125]
	mov	edi, edx
	add	edi, 194495961
	sub	edi, 1
	sub	edi, 194495961
	imul	edx, edi
	and	edx, 1
	cmp	edx, 0
	sete	r8b
	cmp	esi, 10
	setl	r9b
	mov	r10b, r8b
	and	r10b, r9b
	xor	r8b, r9b
	or	r10b, r8b
	test	r10b, 1
	cmovne	eax, ecx
	mov	dword ptr [rbp - 156], eax
	jmp	.LBB48_29
.LBB48_7:                               
	mov	rdi, qword ptr [rbp - 64]
	call	_ZNKSt7__cxx1112basic_stringIcSt11char_traitsIcESaIcEE5beginEv
	mov	qword ptr [rbp - 104], rax
	mov	rax, qword ptr [rbp - 88]
	mov	qword ptr [rbp - 112], rax
	mov	rdi, qword ptr [rbp - 104]
	mov	rsi, qword ptr [rbp - 112]
	call	_ZSt8distanceIN9__gnu_cxx17__normal_iteratorIPKcNSt7__cxx1112basic_stringIcSt11char_traitsIcESaIcEEEEEENSt15iterator_traitsIT_E15difference_typeESC_SC_
	lea	rdi, [rbp - 88]
	xor	ecx, ecx
	mov	esi, ecx
	mov	rdx, rsi
	sub	rdx, rax
	mov	rax, rsi
	sub	rax, 1
	add	rdx, rax
	sub	rsi, rdx
	mov	ecx, esi
	mov	dword ptr [rbp - 80], ecx
	call	_ZNK9__gnu_cxx17__normal_iteratorIPKcNSt7__cxx1112basic_stringIcSt11char_traitsIcESaIcEEEEdeEv
	mov	ecx, 3113408623
	mov	r8d, 2454642265
	xor	r9d, r9d
	movsx	r10d, byte ptr [rax]
	cmp	r10d, 49
	sete	r11b
	and	r11b, 1
	mov	byte ptr [rbp - 35], r11b
	mov	r10d, dword ptr [x.124]
	mov	ebx, dword ptr [y.125]
	sub	r9d, 1
	mov	r14d, r10d
	add	r14d, r9d
	imul	r10d, r14d
	and	r10d, 1
	cmp	r10d, 0
	sete	r11b
	cmp	ebx, 10
	setl	r15b
	mov	r12b, r11b
	and	r12b, r15b
	xor	r11b, r15b
	or	r12b, r11b
	test	r12b, 1
	cmovne	ecx, r8d
	mov	dword ptr [rbp - 156], ecx
	jmp	.LBB48_29
.LBB48_8:                               
	mov	eax, 2084799811
	mov	ecx, 1478661666
	mov	dl, byte ptr [rbp - 35]
	test	dl, 1
	cmovne	eax, ecx
	mov	dword ptr [rbp - 156], eax
	jmp	.LBB48_29
.LBB48_9:                               
	mov	eax, 2084799811
	mov	ecx, 33487810
	cmp	dword ptr [rbp - 80], 9
	cmovne	eax, ecx
	mov	dword ptr [rbp - 156], eax
	jmp	.LBB48_29
.LBB48_10:                              
	mov	eax, 3302433717
	mov	ecx, 2709650332
	mov	dl, 1
	mov	esi, dword ptr [x.124]
	mov	edi, dword ptr [y.125]
	mov	r8d, esi
	sub	r8d, -1145353138
	sub	r8d, 1
	add	r8d, -1145353138
	imul	esi, r8d
	and	esi, 1
	cmp	esi, 0
	sete	r9b
	cmp	edi, 10
	setl	r10b
	mov	r11b, r9b
	xor	r11b, -1
	mov	bl, r10b
	xor	bl, -1
	xor	dl, 1
	mov	r14b, r11b
	and	r14b, -1
	and	r9b, dl
	mov	r15b, bl
	and	r15b, -1
	and	r10b, dl
	or	r14b, r9b
	or	r15b, r10b
	xor	r14b, r15b
	or	r11b, bl
	xor	r11b, -1
	or	dl, 1
	and	r11b, dl
	or	r14b, r11b
	test	r14b, 1
	cmovne	eax, ecx
	mov	dword ptr [rbp - 156], eax
	jmp	.LBB48_29
.LBB48_11:                              
	mov	eax, 3302433717
	mov	ecx, 3443386651
	cmp	dword ptr [rbp - 80], 18
	setne	dl
	and	dl, 1
	mov	byte ptr [rbp - 34], dl
	mov	esi, dword ptr [x.124]
	mov	edi, dword ptr [y.125]
	mov	r8d, esi
	sub	r8d, 125904242
	sub	r8d, 1
	add	r8d, 125904242
	imul	esi, r8d
	and	esi, 1
	cmp	esi, 0
	sete	dl
	cmp	edi, 10
	setl	r9b
	mov	r10b, dl
	and	r10b, r9b
	xor	dl, r9b
	or	r10b, dl
	test	r10b, 1
	cmovne	eax, ecx
	mov	dword ptr [rbp - 156], eax
	jmp	.LBB48_29
.LBB48_12:                              
	mov	eax, 2084799811
	mov	ecx, 794200585
	mov	dl, byte ptr [rbp - 34]
	test	dl, 1
	cmovne	eax, ecx
	mov	dword ptr [rbp - 156], eax
	jmp	.LBB48_29
.LBB48_13:                              
	mov	eax, 2084799811
	mov	ecx, 133470160
	cmp	dword ptr [rbp - 80], 22
	cmovne	eax, ecx
	mov	dword ptr [rbp - 156], eax
	jmp	.LBB48_29
.LBB48_14:                              
	mov	eax, 2084799811
	mov	ecx, 1959245506
	cmp	dword ptr [rbp - 80], 25
	cmovne	eax, ecx
	mov	dword ptr [rbp - 156], eax
	jmp	.LBB48_29
.LBB48_15:                              
	mov	eax, 2084799811
	mov	ecx, 3914896223
	cmp	dword ptr [rbp - 80], 35
	cmovne	eax, ecx
	mov	dword ptr [rbp - 156], eax
	jmp	.LBB48_29
.LBB48_16:                              
	mov	eax, 2084799811
	mov	ecx, 1157259004
	cmp	dword ptr [rbp - 80], 38
	cmovne	eax, ecx
	mov	dword ptr [rbp - 156], eax
	jmp	.LBB48_29
.LBB48_17:                              
	mov	eax, 2084799811
	mov	ecx, 611407688
	cmp	dword ptr [rbp - 80], 43
	cmovne	eax, ecx
	mov	dword ptr [rbp - 156], eax
	jmp	.LBB48_29
.LBB48_18:                              
	mov	eax, 3221766130
	mov	ecx, 3551081826
	mov	dl, 1
	xor	esi, esi
	mov	edi, dword ptr [x.124]
	mov	r8d, dword ptr [y.125]
	sub	esi, 1
	mov	r9d, edi
	add	r9d, esi
	imul	edi, r9d
	and	edi, 1
	cmp	edi, 0
	sete	r10b
	cmp	r8d, 10
	setl	r11b
	mov	bl, r10b
	xor	bl, -1
	mov	r14b, r11b
	xor	r14b, -1
	xor	dl, 1
	mov	r15b, bl
	and	r15b, -1
	and	r10b, dl
	mov	r12b, r14b
	and	r12b, -1
	and	r11b, dl
	or	r15b, r10b
	or	r12b, r11b
	xor	r15b, r12b
	or	bl, r14b
	xor	bl, -1
	or	dl, 1
	and	bl, dl
	or	r15b, bl
	test	r15b, 1
	cmovne	eax, ecx
	mov	dword ptr [rbp - 156], eax
	jmp	.LBB48_29
.LBB48_19:                              
	mov	eax, 3221766130
	mov	ecx, 2141408878
	mov	dl, 1
	cmp	dword ptr [rbp - 80], 54
	setne	sil
	and	sil, 1
	mov	byte ptr [rbp - 33], sil
	mov	edi, dword ptr [x.124]
	mov	r8d, dword ptr [y.125]
	mov	r9d, edi
	add	r9d, -1756347269
	sub	r9d, 1
	sub	r9d, -1756347269
	imul	edi, r9d
	and	edi, 1
	cmp	edi, 0
	sete	sil
	cmp	r8d, 10
	setl	r10b
	mov	r11b, sil
	xor	r11b, -1
	mov	bl, r10b
	xor	bl, -1
	xor	dl, 1
	mov	r14b, r11b
	and	r14b, -1
	and	sil, dl
	mov	r15b, bl
	and	r15b, -1
	and	r10b, dl
	or	r14b, sil
	or	r15b, r10b
	xor	r14b, r15b
	or	r11b, bl
	xor	r11b, -1
	or	dl, 1
	and	r11b, dl
	or	r14b, r11b
	test	r14b, 1
	cmovne	eax, ecx
	mov	dword ptr [rbp - 156], eax
	jmp	.LBB48_29
.LBB48_20:                              
	mov	eax, 2084799811
	mov	ecx, 3900594351
	mov	dl, byte ptr [rbp - 33]
	test	dl, 1
	cmovne	eax, ecx
	mov	dword ptr [rbp - 156], eax
	jmp	.LBB48_29
.LBB48_21:                              
	movabs	rdi, _ZN3DES19keyCompressionTableE
	call	_ZNKSt5arrayIiLm48EE5beginEv
	movabs	rdi, _ZN3DES19keyCompressionTableE
	mov	qword ptr [rbp - 272], rax 
	call	_ZNKSt5arrayIiLm48EE5beginEv
	movabs	rdi, _ZN3DES19keyCompressionTableE
	mov	qword ptr [rbp - 280], rax 
	call	_ZNKSt5arrayIiLm48EE3endEv
	lea	rdx, [rbp - 80]
	mov	rdi, qword ptr [rbp - 280] 
	mov	rsi, rax
	call	_ZSt4findIPKiiET_S2_S2_RKT0_
	mov	rdi, qword ptr [rbp - 272] 
	mov	rsi, rax
	call	_ZSt8distanceIPKiENSt15iterator_traitsIT_E15difference_typeES3_S3_
	lea	rdi, [rbp - 72]
	mov	edx, 1
	xor	ecx, ecx
	mov	r8d, eax
	mov	dword ptr [rbp - 76], r8d
	mov	r8d, dword ptr [rbp - 76]
	sub	ecx, r8d
	add	ecx, 47
	movsxd	rsi, ecx
	call	_ZNSt6bitsetILm48EE3setEmb
	mov	dword ptr [rbp - 156], 2084799811
	mov	qword ptr [rbp - 288], rax 
	jmp	.LBB48_29
.LBB48_22:                              
	mov	dword ptr [rbp - 156], 1937027593
	jmp	.LBB48_29
.LBB48_23:                              
	lea	rdi, [rbp - 88]
	xor	esi, esi
	call	_ZN9__gnu_cxx17__normal_iteratorIPKcNSt7__cxx1112basic_stringIcSt11char_traitsIcESaIcEEEEppEi
	mov	qword ptr [rbp - 120], rax
	mov	dword ptr [rbp - 156], -1861430258
	jmp	.LBB48_29
.LBB48_24:
	lea	rdi, [rbp - 152]
	lea	rsi, [rbp - 72]
	call	_ZNKSt6bitsetILm48EE9to_stringB5cxx11Ev
	lea	rsi, [rbp - 152]
	mov	rdi, qword ptr [rbp - 48]
	add	rdi, 264
	call	_ZNSt7__cxx1112basic_stringIcSt11char_traitsIcESaIcEEaSEOS4_
	lea	rdi, [rbp - 152]
	mov	qword ptr [rbp - 296], rax 
	call	_ZNSt7__cxx1112basic_stringIcSt11char_traitsIcESaIcEED2Ev
	add	rsp, 288
	pop	rbx
	pop	r12
	pop	r14
	pop	r15
	pop	rbp
	ret
.LBB48_25:                              
	mov	rdi, qword ptr [rbp - 64]
	call	_ZNKSt7__cxx1112basic_stringIcSt11char_traitsIcESaIcEE3endEv
	lea	rdi, [rbp - 88]
	lea	rsi, [rbp - 96]
	mov	qword ptr [rbp - 96], rax
	call	_ZN9__gnu_cxxltIPKcNSt7__cxx1112basic_stringIcSt11char_traitsIcESaIcEEEEEbRKNS_17__normal_iteratorIT_T0_EESE_
	mov	dword ptr [rbp - 156], 1492243858
	mov	byte ptr [rbp - 297], al 
	jmp	.LBB48_29
.LBB48_26:                              
	mov	rdi, qword ptr [rbp - 64]
	call	_ZNKSt7__cxx1112basic_stringIcSt11char_traitsIcESaIcEE5beginEv
	mov	qword ptr [rbp - 104], rax
	mov	rax, qword ptr [rbp - 88]
	mov	qword ptr [rbp - 112], rax
	mov	rdi, qword ptr [rbp - 104]
	mov	rsi, qword ptr [rbp - 112]
	call	_ZSt8distanceIN9__gnu_cxx17__normal_iteratorIPKcNSt7__cxx1112basic_stringIcSt11char_traitsIcESaIcEEEEEENSt15iterator_traitsIT_E15difference_typeESC_SC_
	lea	rdi, [rbp - 88]
	movabs	rsi, 561914933425298734
	add	rax, rsi
	add	rax, 1
	sub	rax, rsi
	mov	ecx, eax
	mov	dword ptr [rbp - 80], ecx
	call	_ZNK9__gnu_cxx17__normal_iteratorIPKcNSt7__cxx1112basic_stringIcSt11char_traitsIcESaIcEEEEdeEv
	mov	dword ptr [rbp - 156], -153783350
	mov	qword ptr [rbp - 312], rax 
	jmp	.LBB48_29
.LBB48_27:                              
	mov	dword ptr [rbp - 156], -1585316964
	jmp	.LBB48_29
.LBB48_28:                              
	mov	dword ptr [rbp - 156], -743885470
.LBB48_29:                              
	jmp	.LBB48_1
.Lfunc_end48:
	.size	_ZN3DES16compressionPermuERKNSt7__cxx1112basic_stringIcSt11char_traitsIcESaIcEEE, .Lfunc_end48-_ZN3DES16compressionPermuERKNSt7__cxx1112basic_stringIcSt11char_traitsIcESaIcEEE
	.cfi_endproc

	.globl	_ZN3DES4sBoxERKNSt7__cxx1112basic_stringIcSt11char_traitsIcESaIcEEE 
	.p2align	4, 0x90
	.type	_ZN3DES4sBoxERKNSt7__cxx1112basic_stringIcSt11char_traitsIcESaIcEEE,@function
_ZN3DES4sBoxERKNSt7__cxx1112basic_stringIcSt11char_traitsIcESaIcEEE: 
.Lfunc_begin12:
	.cfi_startproc
	.cfi_personality 3, __gxx_personality_v0
	.cfi_lsda 3, .Lexception12

	push	rbp
.Lcfi131:
	.cfi_def_cfa_offset 16
.Lcfi132:
	.cfi_offset rbp, -16
	mov	rbp, rsp
.Lcfi133:
	.cfi_def_cfa_register rbp
	sub	rsp, 352
	movabs	rax, .L.str.2
	mov	qword ptr [rbp - 8], rdi
	mov	qword ptr [rbp - 16], rsi
	mov	rsi, qword ptr [rbp - 8]
	mov	rdi, rsi
	add	rdi, 328
	mov	qword ptr [rbp - 288], rsi 
	mov	rsi, rax
	call	_ZNSt7__cxx1112basic_stringIcSt11char_traitsIcESaIcEEaSEPKc
	lea	rdi, [rbp - 24]
	mov	qword ptr [rbp - 296], rax 
	call	_ZNSt6bitsetILm4EEC2Ev
	mov	dword ptr [rbp - 28], 0
	mov	dword ptr [rbp - 32], 0
	mov	dword ptr [rbp - 36], 0
.LBB49_1:                               
	cmp	dword ptr [rbp - 36], 48
	jge	.LBB49_42

	mov	rsi, qword ptr [rbp - 16]
	movsxd	rdx, dword ptr [rbp - 36]
	mov	eax, 1
	mov	ecx, eax
	lea	rdi, [rbp - 104]
	mov	qword ptr [rbp - 304], rcx 
	call	_ZNKSt7__cxx1112basic_stringIcSt11char_traitsIcESaIcEE6substrEmm
	mov	rsi, qword ptr [rbp - 16]
	mov	eax, dword ptr [rbp - 36]
	add	eax, 5
	movsxd	rdx, eax
.Ltmp134:
	lea	rdi, [rbp - 136]
	mov	rcx, qword ptr [rbp - 304] 
	call	_ZNKSt7__cxx1112basic_stringIcSt11char_traitsIcESaIcEE6substrEmm
.Ltmp135:
	jmp	.LBB49_3
.LBB49_3:                               
.Ltmp137:
	lea	rdi, [rbp - 72]
	lea	rsi, [rbp - 104]
	lea	rdx, [rbp - 136]
	call	_ZStplIcSt11char_traitsIcESaIcEENSt7__cxx1112basic_stringIT_T0_T1_EEOS8_S9_
.Ltmp138:
	jmp	.LBB49_4
.LBB49_4:                               
.Ltmp140:
	lea	rdi, [rbp - 72]
	call	_ZN3DES7bin2decERKNSt7__cxx1112basic_stringIcSt11char_traitsIcESaIcEEE
.Ltmp141:
	mov	dword ptr [rbp - 308], eax 
	jmp	.LBB49_5
.LBB49_5:                               
	mov	eax, dword ptr [rbp - 308] 
	mov	dword ptr [rbp - 28], eax
	lea	rdi, [rbp - 72]
	call	_ZNSt7__cxx1112basic_stringIcSt11char_traitsIcESaIcEED2Ev
	lea	rdi, [rbp - 136]
	call	_ZNSt7__cxx1112basic_stringIcSt11char_traitsIcESaIcEED2Ev
	lea	rdi, [rbp - 104]
	call	_ZNSt7__cxx1112basic_stringIcSt11char_traitsIcESaIcEED2Ev
	mov	rsi, qword ptr [rbp - 16]
	mov	eax, dword ptr [rbp - 36]
	inc	eax
	movsxd	rdx, eax
	mov	eax, 4
	mov	ecx, eax
	lea	rdi, [rbp - 184]
	mov	qword ptr [rbp - 320], rdi 
	call	_ZNKSt7__cxx1112basic_stringIcSt11char_traitsIcESaIcEE6substrEmm
.Ltmp143:
	mov	rdi, qword ptr [rbp - 320] 
	call	_ZN3DES7bin2decERKNSt7__cxx1112basic_stringIcSt11char_traitsIcESaIcEEE
.Ltmp144:
	mov	dword ptr [rbp - 324], eax 
	jmp	.LBB49_6
.LBB49_6:                               
	lea	rdi, [rbp - 184]
	mov	eax, dword ptr [rbp - 324] 
	mov	dword ptr [rbp - 32], eax
	call	_ZNSt7__cxx1112basic_stringIcSt11char_traitsIcESaIcEED2Ev
	mov	eax, dword ptr [rbp - 36]
	mov	dword ptr [rbp - 328], eax 

	mov	eax, dword ptr [rbp - 328] 
	cmp	eax, 24
	jl	.LBB49_15

	mov	eax, dword ptr [rbp - 328] 
	cmp	eax, 36
	jl	.LBB49_12

	mov	eax, dword ptr [rbp - 328] 
	cmp	eax, 42
	jl	.LBB49_11

	mov	eax, dword ptr [rbp - 328] 
	cmp	eax, 42
	je	.LBB49_35
	jmp	.LBB49_36
.LBB49_11:                              
	mov	eax, dword ptr [rbp - 328] 
	cmp	eax, 36
	je	.LBB49_34
	jmp	.LBB49_36
.LBB49_12:                              
	mov	eax, dword ptr [rbp - 328] 
	cmp	eax, 30
	jl	.LBB49_14

	mov	eax, dword ptr [rbp - 328] 
	cmp	eax, 30
	je	.LBB49_33
	jmp	.LBB49_36
.LBB49_14:                              
	mov	eax, dword ptr [rbp - 328] 
	cmp	eax, 24
	je	.LBB49_32
	jmp	.LBB49_36
.LBB49_15:                              
	mov	eax, dword ptr [rbp - 328] 
	cmp	eax, 12
	jl	.LBB49_19

	mov	eax, dword ptr [rbp - 328] 
	cmp	eax, 18
	jl	.LBB49_18

	mov	eax, dword ptr [rbp - 328] 
	cmp	eax, 18
	je	.LBB49_31
	jmp	.LBB49_36
.LBB49_18:                              
	mov	eax, dword ptr [rbp - 328] 
	cmp	eax, 12
	je	.LBB49_30
	jmp	.LBB49_36
.LBB49_19:                              
	mov	eax, dword ptr [rbp - 328] 
	cmp	eax, 6
	jl	.LBB49_21

	mov	eax, dword ptr [rbp - 328] 
	cmp	eax, 6
	je	.LBB49_29
	jmp	.LBB49_36
.LBB49_21:                              
	mov	eax, dword ptr [rbp - 328] 
	cmp	eax, 0
	je	.LBB49_28
	jmp	.LBB49_36
.LBB49_22:
.Ltmp136:
	mov	ecx, edx
	mov	qword ptr [rbp - 144], rax
	mov	dword ptr [rbp - 148], ecx
	jmp	.LBB49_26
.LBB49_23:
.Ltmp139:
	mov	ecx, edx
	mov	qword ptr [rbp - 144], rax
	mov	dword ptr [rbp - 148], ecx
	jmp	.LBB49_25
.LBB49_24:
.Ltmp142:
	lea	rdi, [rbp - 72]
	mov	ecx, edx
	mov	qword ptr [rbp - 144], rax
	mov	dword ptr [rbp - 148], ecx
	call	_ZNSt7__cxx1112basic_stringIcSt11char_traitsIcESaIcEED2Ev
.LBB49_25:
	lea	rdi, [rbp - 136]
	call	_ZNSt7__cxx1112basic_stringIcSt11char_traitsIcESaIcEED2Ev
.LBB49_26:
	lea	rdi, [rbp - 104]
	call	_ZNSt7__cxx1112basic_stringIcSt11char_traitsIcESaIcEED2Ev
	jmp	.LBB49_43
.LBB49_27:
.Ltmp145:
	lea	rdi, [rbp - 184]
	mov	ecx, edx
	mov	qword ptr [rbp - 144], rax
	mov	dword ptr [rbp - 148], ecx
	call	_ZNSt7__cxx1112basic_stringIcSt11char_traitsIcESaIcEED2Ev
	jmp	.LBB49_43
.LBB49_28:                              
	lea	rdi, [rbp - 192]
	movabs	rax, _ZN3DES2s1E
	movsxd	rcx, dword ptr [rbp - 28]
	shl	rcx, 6
	add	rax, rcx
	movsxd	rcx, dword ptr [rbp - 32]
	movsxd	rsi, dword ptr [rax + 4*rcx]
	call	_ZNSt6bitsetILm4EEC2Ey
	mov	rax, qword ptr [rbp - 192]
	mov	qword ptr [rbp - 24], rax
	jmp	.LBB49_38
.LBB49_29:                              
	lea	rdi, [rbp - 200]
	movabs	rax, _ZN3DES2s2E
	movsxd	rcx, dword ptr [rbp - 28]
	shl	rcx, 6
	add	rax, rcx
	movsxd	rcx, dword ptr [rbp - 32]
	movsxd	rsi, dword ptr [rax + 4*rcx]
	call	_ZNSt6bitsetILm4EEC2Ey
	mov	rax, qword ptr [rbp - 200]
	mov	qword ptr [rbp - 24], rax
	jmp	.LBB49_38
.LBB49_30:                              
	lea	rdi, [rbp - 208]
	movabs	rax, _ZN3DES2s3E
	movsxd	rcx, dword ptr [rbp - 28]
	shl	rcx, 6
	add	rax, rcx
	movsxd	rcx, dword ptr [rbp - 32]
	movsxd	rsi, dword ptr [rax + 4*rcx]
	call	_ZNSt6bitsetILm4EEC2Ey
	mov	rax, qword ptr [rbp - 208]
	mov	qword ptr [rbp - 24], rax
	jmp	.LBB49_38
.LBB49_31:                              
	lea	rdi, [rbp - 216]
	movabs	rax, _ZN3DES2s4E
	movsxd	rcx, dword ptr [rbp - 28]
	shl	rcx, 6
	add	rax, rcx
	movsxd	rcx, dword ptr [rbp - 32]
	movsxd	rsi, dword ptr [rax + 4*rcx]
	call	_ZNSt6bitsetILm4EEC2Ey
	mov	rax, qword ptr [rbp - 216]
	mov	qword ptr [rbp - 24], rax
	jmp	.LBB49_38
.LBB49_32:                              
	lea	rdi, [rbp - 224]
	movabs	rax, _ZN3DES2s5E
	movsxd	rcx, dword ptr [rbp - 28]
	shl	rcx, 6
	add	rax, rcx
	movsxd	rcx, dword ptr [rbp - 32]
	movsxd	rsi, dword ptr [rax + 4*rcx]
	call	_ZNSt6bitsetILm4EEC2Ey
	mov	rax, qword ptr [rbp - 224]
	mov	qword ptr [rbp - 24], rax
	jmp	.LBB49_38
.LBB49_33:                              
	lea	rdi, [rbp - 232]
	movabs	rax, _ZN3DES2s6E
	movsxd	rcx, dword ptr [rbp - 28]
	shl	rcx, 6
	add	rax, rcx
	movsxd	rcx, dword ptr [rbp - 32]
	movsxd	rsi, dword ptr [rax + 4*rcx]
	call	_ZNSt6bitsetILm4EEC2Ey
	mov	rax, qword ptr [rbp - 232]
	mov	qword ptr [rbp - 24], rax
	jmp	.LBB49_38
.LBB49_34:                              
	lea	rdi, [rbp - 240]
	movabs	rax, _ZN3DES2s7E
	movsxd	rcx, dword ptr [rbp - 28]
	shl	rcx, 6
	add	rax, rcx
	movsxd	rcx, dword ptr [rbp - 32]
	movsxd	rsi, dword ptr [rax + 4*rcx]
	call	_ZNSt6bitsetILm4EEC2Ey
	mov	rax, qword ptr [rbp - 240]
	mov	qword ptr [rbp - 24], rax
	jmp	.LBB49_38
.LBB49_35:                              
	lea	rdi, [rbp - 248]
	movabs	rax, _ZN3DES2s8E
	movsxd	rcx, dword ptr [rbp - 28]
	shl	rcx, 6
	add	rax, rcx
	movsxd	rcx, dword ptr [rbp - 32]
	movsxd	rsi, dword ptr [rax + 4*rcx]
	call	_ZNSt6bitsetILm4EEC2Ey
	mov	rax, qword ptr [rbp - 248]
	mov	qword ptr [rbp - 24], rax
	jmp	.LBB49_38
.LBB49_36:
	jmp	.LBB49_37
.LBB49_37:
	movabs	rdi, _ZSt4cout
	movabs	rsi, .L.str.3
	call	_ZStlsISt11char_traitsIcEERSt13basic_ostreamIcT_ES5_PKc
	movabs	rsi, _ZSt4endlIcSt11char_traitsIcEERSt13basic_ostreamIT_T0_ES6_
	mov	rdi, rax
	call	_ZNSolsEPFRSoS_E
	xor	edi, edi
	mov	qword ptr [rbp - 336], rax 
	call	exit
.LBB49_38:                              
	lea	rax, [rbp - 280]
	lea	rsi, [rbp - 24]
	mov	rdi, rax
	mov	qword ptr [rbp - 344], rax 
	call	_ZNKSt6bitsetILm4EE9to_stringB5cxx11Ev
	mov	rax, qword ptr [rbp - 288] 
	add	rax, 328
.Ltmp146:
	mov	rdi, rax
	mov	rsi, qword ptr [rbp - 344] 
	call	_ZNSt7__cxx1112basic_stringIcSt11char_traitsIcESaIcEEpLERKS4_
.Ltmp147:
	mov	qword ptr [rbp - 352], rax 
	jmp	.LBB49_39
.LBB49_39:                              
	lea	rdi, [rbp - 280]
	call	_ZNSt7__cxx1112basic_stringIcSt11char_traitsIcESaIcEED2Ev

	xor	eax, eax
	mov	ecx, dword ptr [rbp - 36]
	sub	eax, 6
	sub	ecx, eax
	mov	dword ptr [rbp - 36], ecx
	jmp	.LBB49_1
.LBB49_41:
.Ltmp148:
	lea	rdi, [rbp - 280]
	mov	ecx, edx
	mov	qword ptr [rbp - 144], rax
	mov	dword ptr [rbp - 148], ecx
	call	_ZNSt7__cxx1112basic_stringIcSt11char_traitsIcESaIcEED2Ev
	jmp	.LBB49_43
.LBB49_42:
	add	rsp, 352
	pop	rbp
	ret
.LBB49_43:
	mov	rdi, qword ptr [rbp - 144]
	call	_Unwind_Resume
.Lfunc_end49:
	.size	_ZN3DES4sBoxERKNSt7__cxx1112basic_stringIcSt11char_traitsIcESaIcEEE, .Lfunc_end49-_ZN3DES4sBoxERKNSt7__cxx1112basic_stringIcSt11char_traitsIcESaIcEEE
	.cfi_endproc
	.section	.gcc_except_table,"a",@progbits
	.p2align	2
GCC_except_table49:
.Lexception12:
	.byte	255                     
	.byte	3                       
	.asciz	"\367\200"              
	.byte	3                       
	.byte	117                     
	.long	.Lfunc_begin12-.Lfunc_begin12 
	.long	.Ltmp134-.Lfunc_begin12 
	.long	0                       
	.byte	0                       
	.long	.Ltmp134-.Lfunc_begin12 
	.long	.Ltmp135-.Ltmp134       
	.long	.Ltmp136-.Lfunc_begin12 
	.byte	0                       
	.long	.Ltmp137-.Lfunc_begin12 
	.long	.Ltmp138-.Ltmp137       
	.long	.Ltmp139-.Lfunc_begin12 
	.byte	0                       
	.long	.Ltmp140-.Lfunc_begin12 
	.long	.Ltmp141-.Ltmp140       
	.long	.Ltmp142-.Lfunc_begin12 
	.byte	0                       
	.long	.Ltmp141-.Lfunc_begin12 
	.long	.Ltmp143-.Ltmp141       
	.long	0                       
	.byte	0                       
	.long	.Ltmp143-.Lfunc_begin12 
	.long	.Ltmp144-.Ltmp143       
	.long	.Ltmp145-.Lfunc_begin12 
	.byte	0                       
	.long	.Ltmp144-.Lfunc_begin12 
	.long	.Ltmp146-.Ltmp144       
	.long	0                       
	.byte	0                       
	.long	.Ltmp146-.Lfunc_begin12 
	.long	.Ltmp147-.Ltmp146       
	.long	.Ltmp148-.Lfunc_begin12 
	.byte	0                       
	.long	.Ltmp147-.Lfunc_begin12 
	.long	.Lfunc_end49-.Ltmp147   
	.long	0                       
	.byte	0                       
	.p2align	2

	.section	.text._ZNSt7__cxx1112basic_stringIcSt11char_traitsIcESaIcEEaSEPKc,"axG",@progbits,_ZNSt7__cxx1112basic_stringIcSt11char_traitsIcESaIcEEaSEPKc,comdat
	.weak	_ZNSt7__cxx1112basic_stringIcSt11char_traitsIcESaIcEEaSEPKc 
	.p2align	4, 0x90
	.type	_ZNSt7__cxx1112basic_stringIcSt11char_traitsIcESaIcEEaSEPKc,@function
_ZNSt7__cxx1112basic_stringIcSt11char_traitsIcESaIcEEaSEPKc: 
	.cfi_startproc

	push	rbp
.Lcfi134:
	.cfi_def_cfa_offset 16
.Lcfi135:
	.cfi_offset rbp, -16
	mov	rbp, rsp
.Lcfi136:
	.cfi_def_cfa_register rbp
	sub	rsp, 16
	mov	qword ptr [rbp - 8], rdi
	mov	qword ptr [rbp - 16], rsi
	mov	rdi, qword ptr [rbp - 8]
	mov	rsi, qword ptr [rbp - 16]
	call	_ZNSt7__cxx1112basic_stringIcSt11char_traitsIcESaIcEE6assignEPKc
	add	rsp, 16
	pop	rbp
	ret
.Lfunc_end50:
	.size	_ZNSt7__cxx1112basic_stringIcSt11char_traitsIcESaIcEEaSEPKc, .Lfunc_end50-_ZNSt7__cxx1112basic_stringIcSt11char_traitsIcESaIcEEaSEPKc
	.cfi_endproc

	.section	.text._ZNSt6bitsetILm4EEC2Ev,"axG",@progbits,_ZNSt6bitsetILm4EEC2Ev,comdat
	.weak	_ZNSt6bitsetILm4EEC2Ev  
	.p2align	4, 0x90
	.type	_ZNSt6bitsetILm4EEC2Ev,@function
_ZNSt6bitsetILm4EEC2Ev:                 

	push	rbp
	mov	rbp, rsp
	sub	rsp, 16
	mov	qword ptr [rbp - 8], rdi
	mov	rdi, qword ptr [rbp - 8]
	call	_ZNSt12_Base_bitsetILm1EEC2Ev
	add	rsp, 16
	pop	rbp
	ret
.Lfunc_end51:
	.size	_ZNSt6bitsetILm4EEC2Ev, .Lfunc_end51-_ZNSt6bitsetILm4EEC2Ev

	.section	.rodata.cst8,"aM",@progbits,8
	.p2align	3               
.LCPI52_0:
	.quad	4611686018427387904     
	.text
	.globl	_ZN3DES7bin2decERKNSt7__cxx1112basic_stringIcSt11char_traitsIcESaIcEEE
	.p2align	4, 0x90
	.type	_ZN3DES7bin2decERKNSt7__cxx1112basic_stringIcSt11char_traitsIcESaIcEEE,@function
_ZN3DES7bin2decERKNSt7__cxx1112basic_stringIcSt11char_traitsIcESaIcEEE: 
	.cfi_startproc

	push	rbp
.Lcfi137:
	.cfi_def_cfa_offset 16
.Lcfi138:
	.cfi_offset rbp, -16
	mov	rbp, rsp
.Lcfi139:
	.cfi_def_cfa_register rbp
	push	r15
	push	r14
	push	rbx
	sub	rsp, 136
.Lcfi140:
	.cfi_offset rbx, -40
.Lcfi141:
	.cfi_offset r14, -32
.Lcfi142:
	.cfi_offset r15, -24
	lea	rax, [rbp - 56]
	mov	qword ptr [rbp - 40], rdi
	mov	dword ptr [rbp - 44], 0
	mov	rsi, qword ptr [rbp - 40]
	mov	rdi, rax
	call	_ZNKSt7__cxx1112basic_stringIcSt11char_traitsIcESaIcEE6rbeginEv
	mov	dword ptr [rbp - 92], -1511081638
.LBB52_1:                               
	mov	eax, dword ptr [rbp - 92]
	mov	ecx, eax
	sub	ecx, -1761087760
	mov	dword ptr [rbp - 96], eax 
	mov	dword ptr [rbp - 100], ecx 
	je	.LBB52_13
	jmp	.LBB52_16
.LBB52_16:                              
	mov	eax, dword ptr [rbp - 96] 
	sub	eax, -1641123744
	mov	dword ptr [rbp - 104], eax 
	je	.LBB52_11
	jmp	.LBB52_17
.LBB52_17:                              
	mov	eax, dword ptr [rbp - 96] 
	sub	eax, -1511081638
	mov	dword ptr [rbp - 108], eax 
	je	.LBB52_3
	jmp	.LBB52_18
.LBB52_18:                              
	mov	eax, dword ptr [rbp - 96] 
	sub	eax, -969899059
	mov	dword ptr [rbp - 112], eax 
	je	.LBB52_14
	jmp	.LBB52_19
.LBB52_19:                              
	mov	eax, dword ptr [rbp - 96] 
	sub	eax, -842867606
	mov	dword ptr [rbp - 116], eax 
	je	.LBB52_6
	jmp	.LBB52_20
.LBB52_20:                              
	mov	eax, dword ptr [rbp - 96] 
	sub	eax, -639559121
	mov	dword ptr [rbp - 120], eax 
	je	.LBB52_9
	jmp	.LBB52_21
.LBB52_21:                              
	mov	eax, dword ptr [rbp - 96] 
	sub	eax, -561646932
	mov	dword ptr [rbp - 124], eax 
	je	.LBB52_5
	jmp	.LBB52_22
.LBB52_22:                              
	mov	eax, dword ptr [rbp - 96] 
	sub	eax, -236443912
	mov	dword ptr [rbp - 128], eax 
	je	.LBB52_4
	jmp	.LBB52_23
.LBB52_23:                              
	mov	eax, dword ptr [rbp - 96] 
	sub	eax, 21565230
	mov	dword ptr [rbp - 132], eax 
	je	.LBB52_12
	jmp	.LBB52_24
.LBB52_24:                              
	mov	eax, dword ptr [rbp - 96] 
	sub	eax, 400282070
	mov	dword ptr [rbp - 136], eax 
	je	.LBB52_8
	jmp	.LBB52_25
.LBB52_25:                              
	mov	eax, dword ptr [rbp - 96] 
	sub	eax, 1294214197
	mov	dword ptr [rbp - 140], eax 
	je	.LBB52_10
	jmp	.LBB52_26
.LBB52_26:                              
	mov	eax, dword ptr [rbp - 96] 
	sub	eax, 1797069152
	mov	dword ptr [rbp - 144], eax 
	je	.LBB52_7
	jmp	.LBB52_2
.LBB52_2:                               
	jmp	.LBB52_15
.LBB52_3:                               
	mov	eax, 2533879536
	mov	ecx, 4058523384
	xor	edx, edx
	mov	esi, dword ptr [x.130]
	mov	edi, dword ptr [y.131]
	sub	edx, 1
	mov	r8d, esi
	add	r8d, edx
	imul	esi, r8d
	and	esi, 1
	cmp	esi, 0
	sete	r9b
	cmp	edi, 10
	setl	r10b
	mov	r11b, r9b
	and	r11b, r10b
	xor	r9b, r10b
	or	r11b, r9b
	test	r11b, 1
	cmovne	eax, ecx
	mov	dword ptr [rbp - 92], eax
	jmp	.LBB52_15
.LBB52_4:                               
	lea	rdi, [rbp - 64]
	mov	rsi, qword ptr [rbp - 40]
	call	_ZNKSt7__cxx1112basic_stringIcSt11char_traitsIcESaIcEE4rendEv
	lea	rdi, [rbp - 56]
	lea	rsi, [rbp - 64]
	call	_ZStltIN9__gnu_cxx17__normal_iteratorIPKcNSt7__cxx1112basic_stringIcSt11char_traitsIcESaIcEEEEEEbRKSt16reverse_iteratorIT_ESF_
	mov	ecx, 2533879536
	mov	edx, 3733320364
	and	al, 1
	mov	byte ptr [rbp - 25], al
	mov	r8d, dword ptr [x.130]
	mov	r9d, dword ptr [y.131]
	mov	r10d, r8d
	sub	r10d, -1136208461
	sub	r10d, 1
	add	r10d, -1136208461
	imul	r8d, r10d
	and	r8d, 1
	cmp	r8d, 0
	sete	al
	cmp	r9d, 10
	setl	r11b
	mov	bl, al
	and	bl, r11b
	xor	al, r11b
	or	bl, al
	test	bl, 1
	cmovne	ecx, edx
	mov	dword ptr [rbp - 92], ecx
	jmp	.LBB52_15
.LBB52_5:                               
	mov	eax, 21565230
	mov	ecx, 3452099690
	mov	dl, byte ptr [rbp - 25]
	test	dl, 1
	cmovne	eax, ecx
	mov	dword ptr [rbp - 92], eax
	jmp	.LBB52_15
.LBB52_6:                               
	lea	rdi, [rbp - 56]
	call	_ZNKSt16reverse_iteratorIN9__gnu_cxx17__normal_iteratorIPKcNSt7__cxx1112basic_stringIcSt11char_traitsIcESaIcEEEEEEdeEv
	mov	ecx, 400282070
	mov	edx, 1797069152
	movsx	esi, byte ptr [rax]
	cmp	esi, 49
	cmove	ecx, edx
	mov	dword ptr [rbp - 92], ecx
	jmp	.LBB52_15
.LBB52_7:                               
	lea	rdi, [rbp - 72]
	mov	rsi, qword ptr [rbp - 40]
	call	_ZNKSt7__cxx1112basic_stringIcSt11char_traitsIcESaIcEE6rbeginEv
	lea	rdi, [rbp - 80]
	lea	rsi, [rbp - 56]
	call	_ZNSt16reverse_iteratorIN9__gnu_cxx17__normal_iteratorIPKcNSt7__cxx1112basic_stringIcSt11char_traitsIcESaIcEEEEEEC2ERKSB_
	lea	rdi, [rbp - 72]
	lea	rsi, [rbp - 80]
	call	_ZSt8distanceISt16reverse_iteratorIN9__gnu_cxx17__normal_iteratorIPKcNSt7__cxx1112basic_stringIcSt11char_traitsIcESaIcEEEEEEENSt15iterator_traitsIT_E15difference_typeESE_SE_
	movsd	xmm0, qword ptr [rip + .LCPI52_0] 
	cvtsi2sd	xmm1, rax
	call	pow
	cvtsi2sd	xmm1, dword ptr [rbp - 44]
	addsd	xmm1, xmm0
	cvttsd2si	ecx, xmm1
	mov	dword ptr [rbp - 44], ecx
	mov	dword ptr [rbp - 92], 400282070
	jmp	.LBB52_15
.LBB52_8:                               
	mov	eax, 3325068237
	mov	ecx, 3655408175
	mov	dl, 1
	mov	esi, dword ptr [x.130]
	mov	edi, dword ptr [y.131]
	mov	r8d, esi
	sub	r8d, -1658588810
	sub	r8d, 1
	add	r8d, -1658588810
	imul	esi, r8d
	and	esi, 1
	cmp	esi, 0
	sete	r9b
	cmp	edi, 10
	setl	r10b
	mov	r11b, r9b
	xor	r11b, -1
	mov	bl, r10b
	xor	bl, -1
	xor	dl, 1
	mov	r14b, r11b
	and	r14b, -1
	and	r9b, dl
	mov	r15b, bl
	and	r15b, -1
	and	r10b, dl
	or	r14b, r9b
	or	r15b, r10b
	xor	r14b, r15b
	or	r11b, bl
	xor	r11b, -1
	or	dl, 1
	and	r11b, dl
	or	r14b, r11b
	test	r14b, 1
	cmovne	eax, ecx
	mov	dword ptr [rbp - 92], eax
	jmp	.LBB52_15
.LBB52_9:                               
	mov	eax, 3325068237
	mov	ecx, 1294214197
	mov	dl, 1
	mov	esi, dword ptr [x.130]
	mov	edi, dword ptr [y.131]
	mov	r8d, esi
	add	r8d, 988480753
	sub	r8d, 1
	sub	r8d, 988480753
	imul	esi, r8d
	and	esi, 1
	cmp	esi, 0
	sete	r9b
	cmp	edi, 10
	setl	r10b
	mov	r11b, r9b
	xor	r11b, -1
	mov	bl, r10b
	xor	bl, -1
	xor	dl, 1
	mov	r14b, r11b
	and	r14b, -1
	and	r9b, dl
	mov	r15b, bl
	and	r15b, -1
	and	r10b, dl
	or	r14b, r9b
	or	r15b, r10b
	xor	r14b, r15b
	or	r11b, bl
	xor	r11b, -1
	or	dl, 1
	and	r11b, dl
	or	r14b, r11b
	test	r14b, 1
	cmovne	eax, ecx
	mov	dword ptr [rbp - 92], eax
	jmp	.LBB52_15
.LBB52_10:                              
	mov	dword ptr [rbp - 92], -1641123744
	jmp	.LBB52_15
.LBB52_11:                              
	lea	rdi, [rbp - 88]
	lea	rsi, [rbp - 56]
	xor	edx, edx
	call	_ZNSt16reverse_iteratorIN9__gnu_cxx17__normal_iteratorIPKcNSt7__cxx1112basic_stringIcSt11char_traitsIcESaIcEEEEEEppEi
	mov	dword ptr [rbp - 92], -1511081638
	jmp	.LBB52_15
.LBB52_12:
	mov	eax, dword ptr [rbp - 44]
	add	rsp, 136
	pop	rbx
	pop	r14
	pop	r15
	pop	rbp
	ret
.LBB52_13:                              
	lea	rdi, [rbp - 64]
	mov	rsi, qword ptr [rbp - 40]
	call	_ZNKSt7__cxx1112basic_stringIcSt11char_traitsIcESaIcEE4rendEv
	lea	rdi, [rbp - 56]
	lea	rsi, [rbp - 64]
	call	_ZStltIN9__gnu_cxx17__normal_iteratorIPKcNSt7__cxx1112basic_stringIcSt11char_traitsIcESaIcEEEEEEbRKSt16reverse_iteratorIT_ESF_
	mov	dword ptr [rbp - 92], -236443912
	mov	byte ptr [rbp - 145], al 
	jmp	.LBB52_15
.LBB52_14:                              
	mov	dword ptr [rbp - 92], -639559121
.LBB52_15:                              
	jmp	.LBB52_1
.Lfunc_end52:
	.size	_ZN3DES7bin2decERKNSt7__cxx1112basic_stringIcSt11char_traitsIcESaIcEEE, .Lfunc_end52-_ZN3DES7bin2decERKNSt7__cxx1112basic_stringIcSt11char_traitsIcESaIcEEE
	.cfi_endproc

	.section	.text._ZStplIcSt11char_traitsIcESaIcEENSt7__cxx1112basic_stringIT_T0_T1_EEOS8_S9_,"axG",@progbits,_ZStplIcSt11char_traitsIcESaIcEENSt7__cxx1112basic_stringIT_T0_T1_EEOS8_S9_,comdat
	.weak	_ZStplIcSt11char_traitsIcESaIcEENSt7__cxx1112basic_stringIT_T0_T1_EEOS8_S9_ 
	.p2align	4, 0x90
	.type	_ZStplIcSt11char_traitsIcESaIcEENSt7__cxx1112basic_stringIT_T0_T1_EEOS8_S9_,@function
_ZStplIcSt11char_traitsIcESaIcEENSt7__cxx1112basic_stringIT_T0_T1_EEOS8_S9_: 
	.cfi_startproc

	push	rbp
.Lcfi143:
	.cfi_def_cfa_offset 16
.Lcfi144:
	.cfi_offset rbp, -16
	mov	rbp, rsp
.Lcfi145:
	.cfi_def_cfa_register rbp
	push	r15
	push	r14
	push	r12
	push	rbx
	sub	rsp, 144
.Lcfi146:
	.cfi_offset rbx, -48
.Lcfi147:
	.cfi_offset r12, -40
.Lcfi148:
	.cfi_offset r14, -32
.Lcfi149:
	.cfi_offset r15, -24
	mov	rax, rdi
	mov	qword ptr [rbp - 64], rsi
	mov	qword ptr [rbp - 72], rdx
	mov	rdx, qword ptr [rbp - 64]
	mov	qword ptr [rbp - 112], rdi 
	mov	rdi, rdx
	mov	qword ptr [rbp - 120], rax 
	call	_ZNKSt7__cxx1112basic_stringIcSt11char_traitsIcESaIcEE4sizeEv
	mov	rdi, qword ptr [rbp - 72]
	mov	qword ptr [rbp - 128], rax 
	call	_ZNKSt7__cxx1112basic_stringIcSt11char_traitsIcESaIcEE4sizeEv
	xor	ecx, ecx
	mov	edx, ecx
	mov	rsi, rdx
	mov	rdi, qword ptr [rbp - 128] 
	sub	rsi, rdi
	mov	r8, rdx
	sub	r8, rax
	add	rsi, r8
	sub	rdx, rsi
	mov	qword ptr [rbp - 80], rdx
	mov	rax, qword ptr [rbp - 80]
	mov	qword ptr [rbp - 56], rax
	mov	rdi, qword ptr [rbp - 64]
	call	_ZNKSt7__cxx1112basic_stringIcSt11char_traitsIcESaIcEE8capacityEv
	mov	qword ptr [rbp - 48], rax
	mov	dword ptr [rbp - 88], -463627045
.LBB53_1:                               
	mov	eax, dword ptr [rbp - 88]
	mov	ecx, eax
	sub	ecx, -1801592843
	mov	dword ptr [rbp - 132], eax 
	mov	dword ptr [rbp - 136], ecx 
	je	.LBB53_9
	jmp	.LBB53_13
.LBB53_13:                              
	mov	eax, dword ptr [rbp - 132] 
	sub	eax, -1799398015
	mov	dword ptr [rbp - 140], eax 
	je	.LBB53_7
	jmp	.LBB53_14
.LBB53_14:                              
	mov	eax, dword ptr [rbp - 132] 
	sub	eax, -1547690868
	mov	dword ptr [rbp - 144], eax 
	je	.LBB53_8
	jmp	.LBB53_15
.LBB53_15:                              
	mov	eax, dword ptr [rbp - 132] 
	sub	eax, -988115927
	mov	dword ptr [rbp - 148], eax 
	je	.LBB53_11
	jmp	.LBB53_16
.LBB53_16:                              
	mov	eax, dword ptr [rbp - 132] 
	sub	eax, -828599684
	mov	dword ptr [rbp - 152], eax 
	je	.LBB53_10
	jmp	.LBB53_17
.LBB53_17:                              
	mov	eax, dword ptr [rbp - 132] 
	sub	eax, -463627045
	mov	dword ptr [rbp - 156], eax 
	je	.LBB53_3
	jmp	.LBB53_18
.LBB53_18:                              
	mov	eax, dword ptr [rbp - 132] 
	sub	eax, -113507103
	mov	dword ptr [rbp - 160], eax 
	je	.LBB53_6
	jmp	.LBB53_19
.LBB53_19:                              
	mov	eax, dword ptr [rbp - 132] 
	sub	eax, 351298626
	mov	dword ptr [rbp - 164], eax 
	je	.LBB53_5
	jmp	.LBB53_20
.LBB53_20:                              
	mov	eax, dword ptr [rbp - 132] 
	sub	eax, 1108574783
	mov	dword ptr [rbp - 168], eax 
	je	.LBB53_4
	jmp	.LBB53_2
.LBB53_2:                               
	jmp	.LBB53_12
.LBB53_3:                               
	mov	eax, 351298626
	mov	ecx, 1108574783
	mov	rdx, qword ptr [rbp - 56]
	mov	rsi, qword ptr [rbp - 48]
	cmp	rdx, rsi
	cmova	eax, ecx
	mov	dword ptr [rbp - 88], eax
	mov	byte ptr [rbp - 89], 0
	jmp	.LBB53_12
.LBB53_4:                               
	mov	rax, qword ptr [rbp - 80]
	mov	rdi, qword ptr [rbp - 72]
	mov	qword ptr [rbp - 176], rax 
	call	_ZNKSt7__cxx1112basic_stringIcSt11char_traitsIcESaIcEE8capacityEv
	mov	rdi, qword ptr [rbp - 176] 
	cmp	rdi, rax
	setbe	cl
	mov	dword ptr [rbp - 88], 351298626
	and	cl, 1
	mov	byte ptr [rbp - 89], cl
	jmp	.LBB53_12
.LBB53_5:                               
	mov	eax, 2495569281
	mov	ecx, 4181460193
	mov	dl, byte ptr [rbp - 89]
	and	dl, 1
	mov	byte ptr [rbp - 81], dl
	mov	dl, byte ptr [rbp - 81]
	test	dl, 1
	cmovne	eax, ecx
	mov	dword ptr [rbp - 88], eax
	jmp	.LBB53_12
.LBB53_6:                               
	xor	eax, eax
	mov	esi, eax
	mov	rdi, qword ptr [rbp - 72]
	mov	rdx, qword ptr [rbp - 64]
	call	_ZNSt7__cxx1112basic_stringIcSt11char_traitsIcESaIcEE6insertEmRKS4_
	mov	rdi, rax
	call	_ZSt4moveIRNSt7__cxx1112basic_stringIcSt11char_traitsIcESaIcEEEEONSt16remove_referenceIT_E4typeEOS8_
	mov	dword ptr [rbp - 88], -1547690868
	mov	qword ptr [rbp - 104], rax
	jmp	.LBB53_12
.LBB53_7:                               
	mov	rdi, qword ptr [rbp - 64]
	mov	rsi, qword ptr [rbp - 72]
	call	_ZNSt7__cxx1112basic_stringIcSt11char_traitsIcESaIcEE6appendERKS4_
	mov	rdi, rax
	call	_ZSt4moveIRNSt7__cxx1112basic_stringIcSt11char_traitsIcESaIcEEEEONSt16remove_referenceIT_E4typeEOS8_
	mov	dword ptr [rbp - 88], -1547690868
	mov	qword ptr [rbp - 104], rax
	jmp	.LBB53_12
.LBB53_8:                               
	mov	eax, 3306851369
	mov	ecx, 2493374453
	mov	dl, 1
	mov	rsi, qword ptr [rbp - 104]
	mov	qword ptr [rbp - 40], rsi
	mov	edi, dword ptr [x.132]
	mov	r8d, dword ptr [y.133]
	mov	r9d, edi
	sub	r9d, -559231025
	sub	r9d, 1
	add	r9d, -559231025
	imul	edi, r9d
	and	edi, 1
	cmp	edi, 0
	sete	r10b
	cmp	r8d, 10
	setl	r11b
	mov	bl, r10b
	xor	bl, -1
	mov	r14b, r11b
	xor	r14b, -1
	xor	dl, 0
	mov	r15b, bl
	and	r15b, 0
	and	r10b, dl
	mov	r12b, r14b
	and	r12b, 0
	and	r11b, dl
	or	r15b, r10b
	or	r12b, r11b
	xor	r15b, r12b
	or	bl, r14b
	xor	bl, -1
	or	dl, 0
	and	bl, dl
	or	r15b, bl
	test	r15b, 1
	cmovne	eax, ecx
	mov	dword ptr [rbp - 88], eax
	jmp	.LBB53_12
.LBB53_9:                               
	mov	rsi, qword ptr [rbp - 40]
	mov	rdi, qword ptr [rbp - 112] 
	call	_ZNSt7__cxx1112basic_stringIcSt11char_traitsIcESaIcEEC2EOS4_
	mov	eax, 3306851369
	mov	ecx, 3466367612
	mov	edx, dword ptr [x.132]
	mov	r8d, dword ptr [y.133]
	mov	r9d, edx
	sub	r9d, -1208144858
	sub	r9d, 1
	add	r9d, -1208144858
	imul	edx, r9d
	and	edx, 1
	cmp	edx, 0
	sete	r10b
	cmp	r8d, 10
	setl	r11b
	mov	bl, r10b
	and	bl, r11b
	xor	r10b, r11b
	or	bl, r10b
	test	bl, 1
	cmovne	eax, ecx
	mov	dword ptr [rbp - 88], eax
	jmp	.LBB53_12
.LBB53_10:
	mov	rax, qword ptr [rbp - 120] 
	add	rsp, 144
	pop	rbx
	pop	r12
	pop	r14
	pop	r15
	pop	rbp
	ret
.LBB53_11:                              
	mov	rsi, qword ptr [rbp - 40]
	mov	rdi, qword ptr [rbp - 112] 
	call	_ZNSt7__cxx1112basic_stringIcSt11char_traitsIcESaIcEEC2EOS4_
	mov	dword ptr [rbp - 88], -1801592843
.LBB53_12:                              
	jmp	.LBB53_1
.Lfunc_end53:
	.size	_ZStplIcSt11char_traitsIcESaIcEENSt7__cxx1112basic_stringIT_T0_T1_EEOS8_S9_, .Lfunc_end53-_ZStplIcSt11char_traitsIcESaIcEENSt7__cxx1112basic_stringIT_T0_T1_EEOS8_S9_
	.cfi_endproc

	.section	.text._ZNSt6bitsetILm4EEC2Ey,"axG",@progbits,_ZNSt6bitsetILm4EEC2Ey,comdat
	.weak	_ZNSt6bitsetILm4EEC2Ey  
	.p2align	4, 0x90
	.type	_ZNSt6bitsetILm4EEC2Ey,@function
_ZNSt6bitsetILm4EEC2Ey:                 
.Lfunc_begin13:
	.cfi_startproc
	.cfi_personality 3, __gxx_personality_v0
	.cfi_lsda 3, .Lexception13

	push	rbp
	mov	rbp, rsp
	sub	rsp, 48
	mov	qword ptr [rbp - 8], rdi
	mov	qword ptr [rbp - 16], rsi
	mov	rdi, qword ptr [rbp - 8]
	mov	rsi, qword ptr [rbp - 16]
.Ltmp149:
	mov	qword ptr [rbp - 24], rdi 
	mov	rdi, rsi
	call	_ZNSt13_Sanitize_valILm4ELb1EE18_S_do_sanitize_valEy
.Ltmp150:
	mov	qword ptr [rbp - 32], rax 
	jmp	.LBB54_1
.LBB54_1:
	mov	rdi, qword ptr [rbp - 24] 
	mov	rsi, qword ptr [rbp - 32] 
	call	_ZNSt12_Base_bitsetILm1EEC2Ey
	add	rsp, 48
	pop	rbp
	ret
.LBB54_2:
.Ltmp151:
	mov	ecx, edx
	mov	rdi, rax
	mov	dword ptr [rbp - 36], ecx 
	call	__clang_call_terminate
.Lfunc_end54:
	.size	_ZNSt6bitsetILm4EEC2Ey, .Lfunc_end54-_ZNSt6bitsetILm4EEC2Ey
	.cfi_endproc
	.section	.gcc_except_table,"a",@progbits
	.p2align	2
GCC_except_table54:
.Lexception13:
	.byte	255                     
	.byte	3                       
	.byte	21                      
	.byte	3                       
	.byte	13                      
	.long	.Ltmp149-.Lfunc_begin13 
	.long	.Ltmp150-.Ltmp149       
	.long	.Ltmp151-.Lfunc_begin13 
	.byte	1                       
	.byte	1                       

	.byte	0                       

	.long	0                       
	.p2align	2

	.section	.text._ZNKSt6bitsetILm4EE9to_stringB5cxx11Ev,"axG",@progbits,_ZNKSt6bitsetILm4EE9to_stringB5cxx11Ev,comdat
	.weak	_ZNKSt6bitsetILm4EE9to_stringB5cxx11Ev 
	.p2align	4, 0x90
	.type	_ZNKSt6bitsetILm4EE9to_stringB5cxx11Ev,@function
_ZNKSt6bitsetILm4EE9to_stringB5cxx11Ev: 
	.cfi_startproc

	push	rbp
.Lcfi150:
	.cfi_def_cfa_offset 16
.Lcfi151:
	.cfi_offset rbp, -16
	mov	rbp, rsp
.Lcfi152:
	.cfi_def_cfa_register rbp
	push	r15
	push	r14
	push	r13
	push	r12
	push	rbx
	sub	rsp, 56
.Lcfi153:
	.cfi_offset rbx, -56
.Lcfi154:
	.cfi_offset r12, -48
.Lcfi155:
	.cfi_offset r13, -40
.Lcfi156:
	.cfi_offset r14, -32
.Lcfi157:
	.cfi_offset r15, -24
	mov	rax, rdi
	xor	ecx, ecx
	mov	edx, dword ptr [x.134]
	mov	r8d, dword ptr [y.135]
	sub	ecx, 1
	mov	r9d, edx
	add	r9d, ecx
	imul	edx, r9d
	and	edx, 1
	cmp	edx, 0
	sete	r10b
	and	r10b, 1
	mov	byte ptr [rbp - 42], r10b
	cmp	r8d, 10
	setl	r10b
	and	r10b, 1
	mov	byte ptr [rbp - 41], r10b
	mov	dword ptr [rbp - 48], 1004937189
	mov	qword ptr [rbp - 56], rax 
	mov	qword ptr [rbp - 64], rsi 
	mov	qword ptr [rbp - 72], rdi 
.LBB55_1:                               
	mov	eax, dword ptr [rbp - 48]
	mov	ecx, eax
	sub	ecx, -2145445106
	mov	dword ptr [rbp - 76], eax 
	mov	dword ptr [rbp - 80], ecx 
	je	.LBB55_6
	jmp	.LBB55_8
.LBB55_8:                               
	mov	eax, dword ptr [rbp - 76] 
	sub	eax, -790334761
	mov	dword ptr [rbp - 84], eax 
	je	.LBB55_4
	jmp	.LBB55_9
.LBB55_9:                               
	mov	eax, dword ptr [rbp - 76] 
	sub	eax, 1004937189
	mov	dword ptr [rbp - 88], eax 
	je	.LBB55_3
	jmp	.LBB55_10
.LBB55_10:                              
	mov	eax, dword ptr [rbp - 76] 
	sub	eax, 1439831295
	mov	dword ptr [rbp - 92], eax 
	je	.LBB55_5
	jmp	.LBB55_2
.LBB55_2:                               
	jmp	.LBB55_7
.LBB55_3:                               
	mov	eax, 2149522190
	mov	ecx, 3504632535
	mov	dl, 1
	mov	sil, byte ptr [rbp - 42]
	mov	dil, byte ptr [rbp - 41]
	mov	r8b, sil
	xor	r8b, -1
	mov	r9b, dil
	xor	r9b, -1
	xor	dl, 0
	mov	r10b, r8b
	and	r10b, 0
	and	sil, dl
	mov	r11b, r9b
	and	r11b, 0
	and	dil, dl
	or	r10b, sil
	or	r11b, dil
	xor	r10b, r11b
	or	r8b, r9b
	xor	r8b, -1
	or	dl, 0
	and	r8b, dl
	or	r10b, r8b
	test	r10b, 1
	cmovne	eax, ecx
	mov	dword ptr [rbp - 48], eax
	jmp	.LBB55_7
.LBB55_4:                               
	mov	rax, rsp
	add	rax, -16
	mov	rsp, rax
	mov	rcx, qword ptr [rbp - 64] 
	mov	qword ptr [rax], rcx
	mov	rsi, qword ptr [rax]
	mov	rdi, qword ptr [rbp - 72] 
	call	_ZNKSt6bitsetILm4EE9to_stringIcSt11char_traitsIcESaIcEEENSt7__cxx1112basic_stringIT_T0_T1_EEv
	mov	edx, 2149522190
	mov	r8d, 1439831295
	mov	r9b, 1
	xor	r10d, r10d
	mov	r11d, dword ptr [x.134]
	mov	ebx, dword ptr [y.135]
	sub	r10d, 1
	mov	r14d, r11d
	add	r14d, r10d
	imul	r11d, r14d
	and	r11d, 1
	cmp	r11d, 0
	sete	r15b
	cmp	ebx, 10
	setl	r12b
	mov	r13b, r15b
	xor	r13b, -1
	mov	al, r12b
	xor	al, -1
	xor	r9b, 1
	mov	cl, r13b
	and	cl, -1
	and	r15b, r9b
	mov	sil, al
	and	sil, -1
	and	r12b, r9b
	or	cl, r15b
	or	sil, r12b
	xor	cl, sil
	or	r13b, al
	xor	r13b, -1
	or	r9b, 1
	and	r13b, r9b
	or	cl, r13b
	test	cl, 1
	cmovne	edx, r8d
	mov	dword ptr [rbp - 48], edx
	jmp	.LBB55_7
.LBB55_5:
	mov	rax, qword ptr [rbp - 56] 
	lea	rsp, [rbp - 40]
	pop	rbx
	pop	r12
	pop	r13
	pop	r14
	pop	r15
	pop	rbp
	ret
.LBB55_6:                               
	mov	rax, rsp
	add	rax, -16
	mov	rsp, rax
	mov	rcx, qword ptr [rbp - 64] 
	mov	qword ptr [rax], rcx
	mov	rsi, qword ptr [rax]
	mov	rdi, qword ptr [rbp - 72] 
	call	_ZNKSt6bitsetILm4EE9to_stringIcSt11char_traitsIcESaIcEEENSt7__cxx1112basic_stringIT_T0_T1_EEv
	mov	dword ptr [rbp - 48], -790334761
.LBB55_7:                               
	jmp	.LBB55_1
.Lfunc_end55:
	.size	_ZNKSt6bitsetILm4EE9to_stringB5cxx11Ev, .Lfunc_end55-_ZNKSt6bitsetILm4EE9to_stringB5cxx11Ev
	.cfi_endproc

	.section	.text._ZNSt7__cxx1112basic_stringIcSt11char_traitsIcESaIcEEpLERKS4_,"axG",@progbits,_ZNSt7__cxx1112basic_stringIcSt11char_traitsIcESaIcEEpLERKS4_,comdat
	.weak	_ZNSt7__cxx1112basic_stringIcSt11char_traitsIcESaIcEEpLERKS4_ 
	.p2align	4, 0x90
	.type	_ZNSt7__cxx1112basic_stringIcSt11char_traitsIcESaIcEEpLERKS4_,@function
_ZNSt7__cxx1112basic_stringIcSt11char_traitsIcESaIcEEpLERKS4_: 
	.cfi_startproc

	push	rbp
.Lcfi158:
	.cfi_def_cfa_offset 16
.Lcfi159:
	.cfi_offset rbp, -16
	mov	rbp, rsp
.Lcfi160:
	.cfi_def_cfa_register rbp
	push	r15
	push	r14
	push	r13
	push	r12
	push	rbx
	sub	rsp, 72
.Lcfi161:
	.cfi_offset rbx, -56
.Lcfi162:
	.cfi_offset r12, -48
.Lcfi163:
	.cfi_offset r13, -40
.Lcfi164:
	.cfi_offset r14, -32
.Lcfi165:
	.cfi_offset r15, -24
	mov	eax, dword ptr [x.136]
	mov	ecx, dword ptr [y.137]
	mov	edx, eax
	sub	edx, 1175767663
	sub	edx, 1
	add	edx, 1175767663
	imul	eax, edx
	and	eax, 1
	cmp	eax, 0
	sete	r8b
	and	r8b, 1
	mov	byte ptr [rbp - 50], r8b
	cmp	ecx, 10
	setl	r8b
	and	r8b, 1
	mov	byte ptr [rbp - 49], r8b
	mov	dword ptr [rbp - 56], -844501852
	mov	qword ptr [rbp - 64], rdi 
	mov	qword ptr [rbp - 72], rsi 
.LBB56_1:                               
	mov	eax, dword ptr [rbp - 56]
	mov	ecx, eax
	sub	ecx, -1344864598
	mov	dword ptr [rbp - 76], eax 
	mov	dword ptr [rbp - 80], ecx 
	je	.LBB56_5
	jmp	.LBB56_8
.LBB56_8:                               
	mov	eax, dword ptr [rbp - 76] 
	sub	eax, -1092151686
	mov	dword ptr [rbp - 84], eax 
	je	.LBB56_4
	jmp	.LBB56_9
.LBB56_9:                               
	mov	eax, dword ptr [rbp - 76] 
	sub	eax, -844501852
	mov	dword ptr [rbp - 88], eax 
	je	.LBB56_3
	jmp	.LBB56_10
.LBB56_10:                              
	mov	eax, dword ptr [rbp - 76] 
	sub	eax, 744826737
	mov	dword ptr [rbp - 92], eax 
	je	.LBB56_6
	jmp	.LBB56_2
.LBB56_2:                               
	jmp	.LBB56_7
.LBB56_3:                               
	mov	eax, 744826737
	mov	ecx, 3202815610
	mov	dl, 1
	mov	sil, byte ptr [rbp - 50]
	mov	dil, byte ptr [rbp - 49]
	mov	r8b, sil
	xor	r8b, -1
	mov	r9b, dil
	xor	r9b, -1
	xor	dl, 1
	mov	r10b, r8b
	and	r10b, -1
	and	sil, dl
	mov	r11b, r9b
	and	r11b, -1
	and	dil, dl
	or	r10b, sil
	or	r11b, dil
	xor	r10b, r11b
	or	r8b, r9b
	xor	r8b, -1
	or	dl, 1
	and	r8b, dl
	or	r10b, r8b
	test	r10b, 1
	cmovne	eax, ecx
	mov	dword ptr [rbp - 56], eax
	jmp	.LBB56_7
.LBB56_4:                               
	mov	rax, rsp
	add	rax, -16
	mov	rsp, rax
	mov	rcx, rsp
	add	rcx, -16
	mov	rsp, rcx
	mov	rdx, qword ptr [rbp - 64] 
	mov	qword ptr [rax], rdx
	mov	rsi, qword ptr [rbp - 72] 
	mov	qword ptr [rcx], rsi
	mov	rdi, qword ptr [rax]
	mov	rsi, qword ptr [rcx]
	call	_ZNSt7__cxx1112basic_stringIcSt11char_traitsIcESaIcEE6appendERKS4_
	mov	r8d, 744826737
	mov	r9d, 2950102698
	mov	r10b, 1
	xor	r11d, r11d
	mov	qword ptr [rbp - 48], rax
	mov	ebx, dword ptr [x.136]
	mov	r14d, dword ptr [y.137]
	sub	r11d, 1
	mov	r15d, ebx
	add	r15d, r11d
	imul	ebx, r15d
	and	ebx, 1
	cmp	ebx, 0
	sete	r12b
	cmp	r14d, 10
	setl	r13b
	mov	al, r12b
	xor	al, -1
	mov	cl, r13b
	xor	cl, -1
	xor	r10b, 0
	mov	dl, al
	and	dl, 0
	and	r12b, r10b
	mov	sil, cl
	and	sil, 0
	and	r13b, r10b
	or	dl, r12b
	or	sil, r13b
	xor	dl, sil
	or	al, cl
	xor	al, -1
	or	r10b, 0
	and	al, r10b
	or	dl, al
	test	dl, 1
	cmovne	r8d, r9d
	mov	dword ptr [rbp - 56], r8d
	jmp	.LBB56_7
.LBB56_5:
	mov	rax, qword ptr [rbp - 48]
	lea	rsp, [rbp - 40]
	pop	rbx
	pop	r12
	pop	r13
	pop	r14
	pop	r15
	pop	rbp
	ret
.LBB56_6:                               
	mov	rax, rsp
	add	rax, -16
	mov	rsp, rax
	mov	rcx, rsp
	add	rcx, -16
	mov	rsp, rcx
	mov	rdx, qword ptr [rbp - 64] 
	mov	qword ptr [rax], rdx
	mov	rsi, qword ptr [rbp - 72] 
	mov	qword ptr [rcx], rsi
	mov	rdi, qword ptr [rax]
	mov	rsi, qword ptr [rcx]
	call	_ZNSt7__cxx1112basic_stringIcSt11char_traitsIcESaIcEE6appendERKS4_
	mov	dword ptr [rbp - 56], -1092151686
	mov	qword ptr [rbp - 104], rax 
.LBB56_7:                               
	jmp	.LBB56_1
.Lfunc_end56:
	.size	_ZNSt7__cxx1112basic_stringIcSt11char_traitsIcESaIcEEpLERKS4_, .Lfunc_end56-_ZNSt7__cxx1112basic_stringIcSt11char_traitsIcESaIcEEpLERKS4_
	.cfi_endproc

	.text
	.globl	_ZN3DES13straightPermuERKNSt7__cxx1112basic_stringIcSt11char_traitsIcESaIcEEE 
	.p2align	4, 0x90
	.type	_ZN3DES13straightPermuERKNSt7__cxx1112basic_stringIcSt11char_traitsIcESaIcEEE,@function
_ZN3DES13straightPermuERKNSt7__cxx1112basic_stringIcSt11char_traitsIcESaIcEEE: 
	.cfi_startproc

	push	rbp
.Lcfi166:
	.cfi_def_cfa_offset 16
.Lcfi167:
	.cfi_offset rbp, -16
	mov	rbp, rsp
.Lcfi168:
	.cfi_def_cfa_register rbp
	push	r15
	push	r14
	push	r13
	push	r12
	push	rbx
	sub	rsp, 248
.Lcfi169:
	.cfi_offset rbx, -56
.Lcfi170:
	.cfi_offset r12, -48
.Lcfi171:
	.cfi_offset r13, -40
.Lcfi172:
	.cfi_offset r14, -32
.Lcfi173:
	.cfi_offset r15, -24
	lea	rax, [rbp - 80]
	mov	qword ptr [rbp - 64], rdi
	mov	qword ptr [rbp - 72], rsi
	mov	rsi, qword ptr [rbp - 64]
	mov	qword ptr [rbp - 56], rsi
	mov	rdi, rax
	call	_ZNSt6bitsetILm32EEC2Ev
	mov	rdi, qword ptr [rbp - 72]
	call	_ZNKSt7__cxx1112basic_stringIcSt11char_traitsIcESaIcEE5beginEv
	mov	qword ptr [rbp - 96], rax
	mov	dword ptr [rbp - 172], 807077307
.LBB57_1:                               
	mov	eax, dword ptr [rbp - 172]
	mov	ecx, eax
	sub	ecx, -1936227987
	mov	dword ptr [rbp - 176], eax 
	mov	dword ptr [rbp - 180], ecx 
	je	.LBB57_14
	jmp	.LBB57_16
.LBB57_16:                              
	mov	eax, dword ptr [rbp - 176] 
	sub	eax, -1776044040
	mov	dword ptr [rbp - 184], eax 
	je	.LBB57_7
	jmp	.LBB57_17
.LBB57_17:                              
	mov	eax, dword ptr [rbp - 176] 
	sub	eax, -1614069156
	mov	dword ptr [rbp - 188], eax 
	je	.LBB57_6
	jmp	.LBB57_18
.LBB57_18:                              
	mov	eax, dword ptr [rbp - 176] 
	sub	eax, -1404834673
	mov	dword ptr [rbp - 192], eax 
	je	.LBB57_10
	jmp	.LBB57_19
.LBB57_19:                              
	mov	eax, dword ptr [rbp - 176] 
	sub	eax, -902909524
	mov	dword ptr [rbp - 196], eax 
	je	.LBB57_9
	jmp	.LBB57_20
.LBB57_20:                              
	mov	eax, dword ptr [rbp - 176] 
	sub	eax, -633625431
	mov	dword ptr [rbp - 200], eax 
	je	.LBB57_13
	jmp	.LBB57_21
.LBB57_21:                              
	mov	eax, dword ptr [rbp - 176] 
	sub	eax, -554634406
	mov	dword ptr [rbp - 204], eax 
	je	.LBB57_11
	jmp	.LBB57_22
.LBB57_22:                              
	mov	eax, dword ptr [rbp - 176] 
	sub	eax, 116023740
	mov	dword ptr [rbp - 208], eax 
	je	.LBB57_8
	jmp	.LBB57_23
.LBB57_23:                              
	mov	eax, dword ptr [rbp - 176] 
	sub	eax, 807077307
	mov	dword ptr [rbp - 212], eax 
	je	.LBB57_3
	jmp	.LBB57_24
.LBB57_24:                              
	mov	eax, dword ptr [rbp - 176] 
	sub	eax, 1536607669
	mov	dword ptr [rbp - 216], eax 
	je	.LBB57_5
	jmp	.LBB57_25
.LBB57_25:                              
	mov	eax, dword ptr [rbp - 176] 
	sub	eax, 1719613827
	mov	dword ptr [rbp - 220], eax 
	je	.LBB57_4
	jmp	.LBB57_26
.LBB57_26:                              
	mov	eax, dword ptr [rbp - 176] 
	sub	eax, 2144289198
	mov	dword ptr [rbp - 224], eax 
	je	.LBB57_12
	jmp	.LBB57_2
.LBB57_2:                               
	jmp	.LBB57_15
.LBB57_3:                               
	mov	rdi, qword ptr [rbp - 72]
	call	_ZNKSt7__cxx1112basic_stringIcSt11char_traitsIcESaIcEE3endEv
	lea	rdi, [rbp - 96]
	lea	rsi, [rbp - 104]
	mov	qword ptr [rbp - 104], rax
	call	_ZN9__gnu_cxxltIPKcNSt7__cxx1112basic_stringIcSt11char_traitsIcESaIcEEEEEbRKNS_17__normal_iteratorIT_T0_EESE_
	mov	ecx, 2890132623
	mov	edx, 1719613827
	test	al, 1
	cmovne	ecx, edx
	mov	dword ptr [rbp - 172], ecx
	jmp	.LBB57_15
.LBB57_4:                               
	mov	eax, 3661341865
	mov	ecx, 1536607669
	xor	edx, edx
	mov	esi, dword ptr [x.138]
	mov	edi, dword ptr [y.139]
	sub	edx, 1
	mov	r8d, esi
	add	r8d, edx
	imul	esi, r8d
	and	esi, 1
	cmp	esi, 0
	sete	r9b
	cmp	edi, 10
	setl	r10b
	mov	r11b, r9b
	and	r11b, r10b
	xor	r9b, r10b
	or	r11b, r9b
	test	r11b, 1
	cmovne	eax, ecx
	mov	dword ptr [rbp - 172], eax
	jmp	.LBB57_15
.LBB57_5:                               
	lea	rdi, [rbp - 96]
	call	_ZNK9__gnu_cxx17__normal_iteratorIPKcNSt7__cxx1112basic_stringIcSt11char_traitsIcESaIcEEEEdeEv
	mov	ecx, 3661341865
	mov	edx, 2680898140
	mov	sil, 1
	movsx	r8d, byte ptr [rax]
	cmp	r8d, 49
	sete	r9b
	and	r9b, 1
	mov	byte ptr [rbp - 41], r9b
	mov	r8d, dword ptr [x.138]
	mov	r10d, dword ptr [y.139]
	mov	r11d, r8d
	sub	r11d, -1673662644
	sub	r11d, 1
	add	r11d, -1673662644
	imul	r8d, r11d
	and	r8d, 1
	cmp	r8d, 0
	sete	r9b
	cmp	r10d, 10
	setl	bl
	mov	r14b, r9b
	xor	r14b, -1
	mov	r15b, bl
	xor	r15b, -1
	xor	sil, 0
	mov	r12b, r14b
	and	r12b, 0
	and	r9b, sil
	mov	r13b, r15b
	and	r13b, 0
	and	bl, sil
	or	r12b, r9b
	or	r13b, bl
	xor	r12b, r13b
	or	r14b, r15b
	xor	r14b, -1
	or	sil, 0
	and	r14b, sil
	or	r12b, r14b
	test	r12b, 1
	cmovne	ecx, edx
	mov	dword ptr [rbp - 172], ecx
	jmp	.LBB57_15
.LBB57_6:                               
	mov	eax, 116023740
	mov	ecx, 2518923256
	mov	dl, byte ptr [rbp - 41]
	test	dl, 1
	cmovne	eax, ecx
	mov	dword ptr [rbp - 172], eax
	jmp	.LBB57_15
.LBB57_7:                               
	movabs	rdi, _ZN3DES24straightPermutationTableE
	call	_ZNKSt5arrayIiLm32EE5beginEv
	movabs	rdi, _ZN3DES24straightPermutationTableE
	mov	qword ptr [rbp - 232], rax 
	call	_ZNKSt5arrayIiLm32EE5beginEv
	movabs	rdi, _ZN3DES24straightPermutationTableE
	mov	qword ptr [rbp - 240], rax 
	call	_ZNKSt5arrayIiLm32EE3endEv
	mov	rdi, qword ptr [rbp - 72]
	mov	qword ptr [rbp - 248], rax 
	call	_ZNKSt7__cxx1112basic_stringIcSt11char_traitsIcESaIcEE5beginEv
	mov	qword ptr [rbp - 120], rax
	mov	rax, qword ptr [rbp - 96]
	mov	qword ptr [rbp - 128], rax
	mov	rdi, qword ptr [rbp - 120]
	mov	rsi, qword ptr [rbp - 128]
	call	_ZSt8distanceIN9__gnu_cxx17__normal_iteratorIPKcNSt7__cxx1112basic_stringIcSt11char_traitsIcESaIcEEEEEENSt15iterator_traitsIT_E15difference_typeESC_SC_
	lea	rdx, [rbp - 112]
	movabs	rsi, -4380063156443358038
	sub	rax, rsi
	add	rax, 1
	add	rax, rsi
	mov	qword ptr [rbp - 112], rax
	mov	rdi, qword ptr [rbp - 240] 
	mov	rsi, qword ptr [rbp - 248] 
	call	_ZSt4findIPKilET_S2_S2_RKT0_
	mov	rdi, qword ptr [rbp - 232] 
	mov	rsi, rax
	call	_ZSt8distanceIPKiENSt15iterator_traitsIT_E15difference_typeES3_S3_
	lea	rdi, [rbp - 80]
	mov	edx, 1
	mov	ecx, 31
	mov	r8d, eax
	mov	dword ptr [rbp - 84], r8d
	mov	r8d, dword ptr [rbp - 84]
	sub	ecx, 1384640243
	sub	ecx, r8d
	add	ecx, 1384640243
	movsxd	rsi, ecx
	call	_ZNSt6bitsetILm32EE3setEmb
	mov	dword ptr [rbp - 172], 116023740
	mov	qword ptr [rbp - 256], rax 
	jmp	.LBB57_15
.LBB57_8:                               
	mov	dword ptr [rbp - 172], -902909524
	jmp	.LBB57_15
.LBB57_9:                               
	lea	rdi, [rbp - 96]
	xor	esi, esi
	call	_ZN9__gnu_cxx17__normal_iteratorIPKcNSt7__cxx1112basic_stringIcSt11char_traitsIcESaIcEEEEppEi
	mov	qword ptr [rbp - 136], rax
	mov	dword ptr [rbp - 172], 807077307
	jmp	.LBB57_15
.LBB57_10:                              
	mov	eax, 2358739309
	mov	ecx, 3740332890
	mov	dl, 1
	mov	esi, dword ptr [x.138]
	mov	edi, dword ptr [y.139]
	mov	r8d, esi
	add	r8d, -1413235992
	sub	r8d, 1
	sub	r8d, -1413235992
	imul	esi, r8d
	and	esi, 1
	cmp	esi, 0
	sete	r9b
	cmp	edi, 10
	setl	r10b
	mov	r11b, r9b
	xor	r11b, -1
	mov	bl, r10b
	xor	bl, -1
	xor	dl, 1
	mov	r14b, r11b
	and	r14b, -1
	and	r9b, dl
	mov	r15b, bl
	and	r15b, -1
	and	r10b, dl
	or	r14b, r9b
	or	r15b, r10b
	xor	r14b, r15b
	or	r11b, bl
	xor	r11b, -1
	or	dl, 1
	and	r11b, dl
	or	r14b, r11b
	test	r14b, 1
	cmovne	eax, ecx
	mov	dword ptr [rbp - 172], eax
	jmp	.LBB57_15
.LBB57_11:                              
	lea	rdi, [rbp - 168]
	lea	rsi, [rbp - 80]
	call	_ZNKSt6bitsetILm32EE9to_stringB5cxx11Ev
	lea	rsi, [rbp - 168]
	mov	rdi, qword ptr [rbp - 56]
	add	rdi, 424
	call	_ZNSt7__cxx1112basic_stringIcSt11char_traitsIcESaIcEEaSEOS4_
	lea	rdi, [rbp - 168]
	mov	qword ptr [rbp - 264], rax 
	call	_ZNSt7__cxx1112basic_stringIcSt11char_traitsIcESaIcEED2Ev
	mov	ecx, 2358739309
	mov	edx, 2144289198
	mov	r8b, 1
	mov	r9d, dword ptr [x.138]
	mov	r10d, dword ptr [y.139]
	mov	r11d, r9d
	sub	r11d, -1838609516
	sub	r11d, 1
	add	r11d, -1838609516
	imul	r9d, r11d
	and	r9d, 1
	cmp	r9d, 0
	sete	bl
	cmp	r10d, 10
	setl	r14b
	mov	r15b, bl
	xor	r15b, -1
	mov	r12b, r14b
	xor	r12b, -1
	xor	r8b, 0
	mov	r13b, r15b
	and	r13b, 0
	and	bl, r8b
	mov	al, r12b
	and	al, 0
	and	r14b, r8b
	or	r13b, bl
	or	al, r14b
	xor	r13b, al
	or	r15b, r12b
	xor	r15b, -1
	or	r8b, 0
	and	r15b, r8b
	or	r13b, r15b
	test	r13b, 1
	cmovne	ecx, edx
	mov	dword ptr [rbp - 172], ecx
	jmp	.LBB57_15
.LBB57_12:
	add	rsp, 248
	pop	rbx
	pop	r12
	pop	r13
	pop	r14
	pop	r15
	pop	rbp
	ret
.LBB57_13:                              
	lea	rdi, [rbp - 96]
	call	_ZNK9__gnu_cxx17__normal_iteratorIPKcNSt7__cxx1112basic_stringIcSt11char_traitsIcESaIcEEEEdeEv
	mov	dword ptr [rbp - 172], 1536607669
	mov	qword ptr [rbp - 272], rax 
	jmp	.LBB57_15
.LBB57_14:                              
	lea	rdi, [rbp - 168]
	lea	rsi, [rbp - 80]
	call	_ZNKSt6bitsetILm32EE9to_stringB5cxx11Ev
	lea	rsi, [rbp - 168]
	mov	rdi, qword ptr [rbp - 56]
	add	rdi, 424
	call	_ZNSt7__cxx1112basic_stringIcSt11char_traitsIcESaIcEEaSEOS4_
	lea	rdi, [rbp - 168]
	mov	qword ptr [rbp - 280], rax 
	call	_ZNSt7__cxx1112basic_stringIcSt11char_traitsIcESaIcEED2Ev
	mov	dword ptr [rbp - 172], -554634406
.LBB57_15:                              
	jmp	.LBB57_1
.Lfunc_end57:
	.size	_ZN3DES13straightPermuERKNSt7__cxx1112basic_stringIcSt11char_traitsIcESaIcEEE, .Lfunc_end57-_ZN3DES13straightPermuERKNSt7__cxx1112basic_stringIcSt11char_traitsIcESaIcEEE
	.cfi_endproc

	.section	.text._ZNKSt5arrayIiLm32EE5beginEv,"axG",@progbits,_ZNKSt5arrayIiLm32EE5beginEv,comdat
	.weak	_ZNKSt5arrayIiLm32EE5beginEv 
	.p2align	4, 0x90
	.type	_ZNKSt5arrayIiLm32EE5beginEv,@function
_ZNKSt5arrayIiLm32EE5beginEv:           

	push	rbp
	mov	rbp, rsp
	sub	rsp, 16
	mov	qword ptr [rbp - 8], rdi
	mov	rdi, qword ptr [rbp - 8]
	call	_ZNKSt5arrayIiLm32EE4dataEv
	add	rsp, 16
	pop	rbp
	ret
.Lfunc_end58:
	.size	_ZNKSt5arrayIiLm32EE5beginEv, .Lfunc_end58-_ZNKSt5arrayIiLm32EE5beginEv

	.section	.text._ZNKSt5arrayIiLm32EE3endEv,"axG",@progbits,_ZNKSt5arrayIiLm32EE3endEv,comdat
	.weak	_ZNKSt5arrayIiLm32EE3endEv 
	.p2align	4, 0x90
	.type	_ZNKSt5arrayIiLm32EE3endEv,@function
_ZNKSt5arrayIiLm32EE3endEv:             

	push	rbp
	mov	rbp, rsp
	push	r15
	push	r14
	push	rbx
	sub	rsp, 56
	mov	eax, dword ptr [x.142]
	mov	ecx, dword ptr [y.143]
	mov	edx, eax
	add	edx, -955791430
	sub	edx, 1
	sub	edx, -955791430
	imul	eax, edx
	and	eax, 1
	cmp	eax, 0
	sete	sil
	and	sil, 1
	mov	byte ptr [rbp - 34], sil
	cmp	ecx, 10
	setl	sil
	and	sil, 1
	mov	byte ptr [rbp - 33], sil
	mov	dword ptr [rbp - 40], 989687167
	mov	qword ptr [rbp - 48], rdi 
.LBB59_1:                               
	mov	eax, dword ptr [rbp - 40]
	mov	ecx, eax
	sub	ecx, -1582671800
	mov	dword ptr [rbp - 52], eax 
	mov	dword ptr [rbp - 56], ecx 
	je	.LBB59_5
	jmp	.LBB59_8
.LBB59_8:                               
	mov	eax, dword ptr [rbp - 52] 
	sub	eax, -1025062238
	mov	dword ptr [rbp - 60], eax 
	je	.LBB59_4
	jmp	.LBB59_9
.LBB59_9:                               
	mov	eax, dword ptr [rbp - 52] 
	sub	eax, -95741107
	mov	dword ptr [rbp - 64], eax 
	je	.LBB59_6
	jmp	.LBB59_10
.LBB59_10:                              
	mov	eax, dword ptr [rbp - 52] 
	sub	eax, 989687167
	mov	dword ptr [rbp - 68], eax 
	je	.LBB59_3
	jmp	.LBB59_2
.LBB59_2:                               
	jmp	.LBB59_7
.LBB59_3:                               
	mov	eax, 4199226189
	mov	ecx, 3269905058
	mov	dl, 1
	mov	sil, byte ptr [rbp - 34]
	mov	dil, byte ptr [rbp - 33]
	mov	r8b, sil
	xor	r8b, -1
	mov	r9b, dil
	xor	r9b, -1
	xor	dl, 0
	mov	r10b, r8b
	and	r10b, 0
	and	sil, dl
	mov	r11b, r9b
	and	r11b, 0
	and	dil, dl
	or	r10b, sil
	or	r11b, dil
	xor	r10b, r11b
	or	r8b, r9b
	xor	r8b, -1
	or	dl, 0
	and	r8b, dl
	or	r10b, r8b
	test	r10b, 1
	cmovne	eax, ecx
	mov	dword ptr [rbp - 40], eax
	jmp	.LBB59_7
.LBB59_4:                               
	mov	rax, rsp
	add	rax, -16
	mov	rsp, rax
	mov	rcx, qword ptr [rbp - 48] 
	mov	qword ptr [rax], rcx
	mov	rdi, qword ptr [rax]
	call	_ZNKSt5arrayIiLm32EE4dataEv
	mov	edx, 4199226189
	mov	esi, 2712295496
	xor	r8d, r8d
	add	rax, 128
	mov	qword ptr [rbp - 32], rax
	mov	r9d, dword ptr [x.142]
	mov	r10d, dword ptr [y.143]
	sub	r8d, 1
	mov	r11d, r9d
	add	r11d, r8d
	imul	r9d, r11d
	and	r9d, 1
	cmp	r9d, 0
	sete	bl
	cmp	r10d, 10
	setl	r14b
	mov	r15b, bl
	and	r15b, r14b
	xor	bl, r14b
	or	r15b, bl
	test	r15b, 1
	cmovne	edx, esi
	mov	dword ptr [rbp - 40], edx
	jmp	.LBB59_7
.LBB59_5:
	mov	rax, qword ptr [rbp - 32]
	lea	rsp, [rbp - 24]
	pop	rbx
	pop	r14
	pop	r15
	pop	rbp
	ret
.LBB59_6:                               
	mov	rax, rsp
	add	rax, -16
	mov	rsp, rax
	mov	rcx, qword ptr [rbp - 48] 
	mov	qword ptr [rax], rcx
	mov	rdi, qword ptr [rax]
	call	_ZNKSt5arrayIiLm32EE4dataEv
	mov	dword ptr [rbp - 40], -1025062238
	mov	qword ptr [rbp - 80], rax 
.LBB59_7:                               
	jmp	.LBB59_1
.Lfunc_end59:
	.size	_ZNKSt5arrayIiLm32EE3endEv, .Lfunc_end59-_ZNKSt5arrayIiLm32EE3endEv

	.section	.text._ZNSt6bitsetILm32EE3setEmb,"axG",@progbits,_ZNSt6bitsetILm32EE3setEmb,comdat
	.weak	_ZNSt6bitsetILm32EE3setEmb 
	.p2align	4, 0x90
	.type	_ZNSt6bitsetILm32EE3setEmb,@function
_ZNSt6bitsetILm32EE3setEmb:             
	.cfi_startproc

	push	rbp
.Lcfi174:
	.cfi_def_cfa_offset 16
.Lcfi175:
	.cfi_offset rbp, -16
	mov	rbp, rsp
.Lcfi176:
	.cfi_def_cfa_register rbp
	push	r15
	push	r14
	push	r13
	push	r12
	push	rbx
	sub	rsp, 120
.Lcfi177:
	.cfi_offset rbx, -56
.Lcfi178:
	.cfi_offset r12, -48
.Lcfi179:
	.cfi_offset r13, -40
.Lcfi180:
	.cfi_offset r14, -32
.Lcfi181:
	.cfi_offset r15, -24
	mov	al, dl
	mov	edx, dword ptr [x.144]
	mov	ecx, dword ptr [y.145]
	mov	r8d, edx
	add	r8d, -1362010197
	sub	r8d, 1
	sub	r8d, -1362010197
	imul	edx, r8d
	and	edx, 1
	cmp	edx, 0
	sete	r9b
	and	r9b, 1
	mov	byte ptr [rbp - 50], r9b
	cmp	ecx, 10
	setl	r9b
	and	r9b, 1
	mov	byte ptr [rbp - 49], r9b
	mov	dword ptr [rbp - 56], -1110263627
	mov	qword ptr [rbp - 64], rsi 
	mov	byte ptr [rbp - 65], al 
	mov	qword ptr [rbp - 80], rdi 
.LBB60_1:                               
	mov	eax, dword ptr [rbp - 56]
	mov	ecx, eax
	sub	ecx, -1110263627
	mov	dword ptr [rbp - 84], eax 
	mov	dword ptr [rbp - 88], ecx 
	je	.LBB60_3
	jmp	.LBB60_8
.LBB60_8:                               
	mov	eax, dword ptr [rbp - 84] 
	sub	eax, -82221581
	mov	dword ptr [rbp - 92], eax 
	je	.LBB60_6
	jmp	.LBB60_9
.LBB60_9:                               
	mov	eax, dword ptr [rbp - 84] 
	sub	eax, 115479003
	mov	dword ptr [rbp - 96], eax 
	je	.LBB60_4
	jmp	.LBB60_10
.LBB60_10:                              
	mov	eax, dword ptr [rbp - 84] 
	sub	eax, 925938054
	mov	dword ptr [rbp - 100], eax 
	je	.LBB60_5
	jmp	.LBB60_2
.LBB60_2:                               
	jmp	.LBB60_7
.LBB60_3:                               
	mov	eax, 4212745715
	mov	ecx, 115479003
	mov	dl, byte ptr [rbp - 50]
	mov	sil, byte ptr [rbp - 49]
	mov	dil, dl
	and	dil, sil
	xor	dl, sil
	or	dil, dl
	test	dil, 1
	cmovne	eax, ecx
	mov	dword ptr [rbp - 56], eax
	jmp	.LBB60_7
.LBB60_4:                               
	movabs	rdx, .L.str.48
	mov	rax, rsp
	add	rax, -16
	mov	rsp, rax
	mov	rcx, rsp
	add	rcx, -16
	mov	rsp, rcx
	mov	rsi, rsp
	add	rsi, -16
	mov	rsp, rsi
	mov	rdi, qword ptr [rbp - 80] 
	mov	qword ptr [rax], rdi
	mov	r8, qword ptr [rbp - 64] 
	mov	qword ptr [rcx], r8
	mov	r9b, byte ptr [rbp - 65] 
	and	r9b, 1
	mov	byte ptr [rsi], r9b
	mov	rax, qword ptr [rax]
	mov	r10, qword ptr [rcx]
	mov	rdi, rax
	mov	qword ptr [rbp - 112], rsi 
	mov	rsi, r10
	mov	qword ptr [rbp - 120], rax 
	mov	qword ptr [rbp - 128], rcx 
	call	_ZNKSt6bitsetILm32EE8_M_checkEmPKc
	mov	rax, qword ptr [rbp - 128] 
	mov	rsi, qword ptr [rax]
	mov	rcx, qword ptr [rbp - 112] 
	mov	r9b, byte ptr [rcx]
	and	r9b, 1
	movzx	edx, r9b
	mov	rdi, qword ptr [rbp - 120] 
	call	_ZNSt6bitsetILm32EE14_Unchecked_setEmi
	mov	edx, 4212745715
	mov	r11d, 925938054
	mov	r9b, 1
	xor	ebx, ebx
	mov	qword ptr [rbp - 48], rax
	mov	r14d, dword ptr [x.144]
	mov	r15d, dword ptr [y.145]
	sub	ebx, 1
	mov	r12d, r14d
	add	r12d, ebx
	imul	r14d, r12d
	and	r14d, 1
	cmp	r14d, 0
	sete	r13b
	cmp	r15d, 10
	setl	al
	mov	cl, r13b
	xor	cl, -1
	mov	sil, al
	xor	sil, -1
	xor	r9b, 0
	mov	dil, cl
	and	dil, 0
	and	r13b, r9b
	mov	r8b, sil
	and	r8b, 0
	and	al, r9b
	or	dil, r13b
	or	r8b, al
	xor	dil, r8b
	or	cl, sil
	xor	cl, -1
	or	r9b, 0
	and	cl, r9b
	or	dil, cl
	test	dil, 1
	cmovne	edx, r11d
	mov	dword ptr [rbp - 56], edx
	jmp	.LBB60_7
.LBB60_5:
	mov	rax, qword ptr [rbp - 48]
	lea	rsp, [rbp - 40]
	pop	rbx
	pop	r12
	pop	r13
	pop	r14
	pop	r15
	pop	rbp
	ret
.LBB60_6:                               
	movabs	rdx, .L.str.48
	mov	rax, rsp
	add	rax, -16
	mov	rsp, rax
	mov	rcx, rsp
	add	rcx, -16
	mov	rsp, rcx
	mov	rsi, rsp
	add	rsi, -16
	mov	rsp, rsi
	mov	rdi, qword ptr [rbp - 80] 
	mov	qword ptr [rax], rdi
	mov	r8, qword ptr [rbp - 64] 
	mov	qword ptr [rcx], r8
	mov	r9b, byte ptr [rbp - 65] 
	and	r9b, 1
	mov	byte ptr [rsi], r9b
	mov	rax, qword ptr [rax]
	mov	r10, qword ptr [rcx]
	mov	rdi, rax
	mov	qword ptr [rbp - 136], rsi 
	mov	rsi, r10
	mov	qword ptr [rbp - 144], rax 
	mov	qword ptr [rbp - 152], rcx 
	call	_ZNKSt6bitsetILm32EE8_M_checkEmPKc
	mov	rax, qword ptr [rbp - 152] 
	mov	rsi, qword ptr [rax]
	mov	rcx, qword ptr [rbp - 136] 
	mov	r9b, byte ptr [rcx]
	and	r9b, 1
	movzx	edx, r9b
	mov	rdi, qword ptr [rbp - 144] 
	call	_ZNSt6bitsetILm32EE14_Unchecked_setEmi
	mov	dword ptr [rbp - 56], 115479003
	mov	qword ptr [rbp - 160], rax 
.LBB60_7:                               
	jmp	.LBB60_1
.Lfunc_end60:
	.size	_ZNSt6bitsetILm32EE3setEmb, .Lfunc_end60-_ZNSt6bitsetILm32EE3setEmb
	.cfi_endproc

	.section	.text._ZNSt6bitsetILm56EEC2Ev,"axG",@progbits,_ZNSt6bitsetILm56EEC2Ev,comdat
	.weak	_ZNSt6bitsetILm56EEC2Ev 
	.p2align	4, 0x90
	.type	_ZNSt6bitsetILm56EEC2Ev,@function
_ZNSt6bitsetILm56EEC2Ev:                

	push	rbp
	mov	rbp, rsp
	sub	rsp, 16
	mov	qword ptr [rbp - 8], rdi
	mov	rdi, qword ptr [rbp - 8]
	call	_ZNSt12_Base_bitsetILm1EEC2Ev
	add	rsp, 16
	pop	rbp
	ret
.Lfunc_end61:
	.size	_ZNSt6bitsetILm56EEC2Ev, .Lfunc_end61-_ZNSt6bitsetILm56EEC2Ev

	.section	.text._ZNKSt5arrayIiLm56EE5beginEv,"axG",@progbits,_ZNKSt5arrayIiLm56EE5beginEv,comdat
	.weak	_ZNKSt5arrayIiLm56EE5beginEv 
	.p2align	4, 0x90
	.type	_ZNKSt5arrayIiLm56EE5beginEv,@function
_ZNKSt5arrayIiLm56EE5beginEv:           

	push	rbp
	mov	rbp, rsp
	push	r14
	push	rbx
	sub	rsp, 64
	mov	eax, dword ptr [x.148]
	mov	ecx, dword ptr [y.149]
	mov	edx, eax
	add	edx, -1549977387
	sub	edx, 1
	sub	edx, -1549977387
	imul	eax, edx
	and	eax, 1
	cmp	eax, 0
	sete	sil
	and	sil, 1
	mov	byte ptr [rbp - 26], sil
	cmp	ecx, 10
	setl	sil
	and	sil, 1
	mov	byte ptr [rbp - 25], sil
	mov	dword ptr [rbp - 32], -1231741843
	mov	qword ptr [rbp - 40], rdi 
.LBB62_1:                               
	mov	eax, dword ptr [rbp - 32]
	mov	ecx, eax
	sub	ecx, -1513936796
	mov	dword ptr [rbp - 44], eax 
	mov	dword ptr [rbp - 48], ecx 
	je	.LBB62_6
	jmp	.LBB62_8
.LBB62_8:                               
	mov	eax, dword ptr [rbp - 44] 
	sub	eax, -1231741843
	mov	dword ptr [rbp - 52], eax 
	je	.LBB62_3
	jmp	.LBB62_9
.LBB62_9:                               
	mov	eax, dword ptr [rbp - 44] 
	sub	eax, -1008158533
	mov	dword ptr [rbp - 56], eax 
	je	.LBB62_5
	jmp	.LBB62_10
.LBB62_10:                              
	mov	eax, dword ptr [rbp - 44] 
	sub	eax, -732476432
	mov	dword ptr [rbp - 60], eax 
	je	.LBB62_4
	jmp	.LBB62_2
.LBB62_2:                               
	jmp	.LBB62_7
.LBB62_3:                               
	mov	eax, 2781030500
	mov	ecx, 3562490864
	mov	dl, 1
	mov	sil, byte ptr [rbp - 26]
	mov	dil, byte ptr [rbp - 25]
	mov	r8b, sil
	xor	r8b, -1
	mov	r9b, dil
	xor	r9b, -1
	xor	dl, 0
	mov	r10b, r8b
	and	r10b, 0
	and	sil, dl
	mov	r11b, r9b
	and	r11b, 0
	and	dil, dl
	or	r10b, sil
	or	r11b, dil
	xor	r10b, r11b
	or	r8b, r9b
	xor	r8b, -1
	or	dl, 0
	and	r8b, dl
	or	r10b, r8b
	test	r10b, 1
	cmovne	eax, ecx
	mov	dword ptr [rbp - 32], eax
	jmp	.LBB62_7
.LBB62_4:                               
	mov	rax, rsp
	add	rax, -16
	mov	rsp, rax
	mov	rcx, qword ptr [rbp - 40] 
	mov	qword ptr [rax], rcx
	mov	rdi, qword ptr [rax]
	call	_ZNKSt5arrayIiLm56EE4dataEv
	mov	edx, 2781030500
	mov	esi, 3286808763
	mov	qword ptr [rbp - 24], rax
	mov	r8d, dword ptr [x.148]
	mov	r9d, dword ptr [y.149]
	mov	r10d, r8d
	add	r10d, 329521197
	sub	r10d, 1
	sub	r10d, 329521197
	imul	r8d, r10d
	and	r8d, 1
	cmp	r8d, 0
	sete	r11b
	cmp	r9d, 10
	setl	bl
	mov	r14b, r11b
	and	r14b, bl
	xor	r11b, bl
	or	r14b, r11b
	test	r14b, 1
	cmovne	edx, esi
	mov	dword ptr [rbp - 32], edx
	jmp	.LBB62_7
.LBB62_5:
	mov	rax, qword ptr [rbp - 24]
	lea	rsp, [rbp - 16]
	pop	rbx
	pop	r14
	pop	rbp
	ret
.LBB62_6:                               
	mov	rax, rsp
	add	rax, -16
	mov	rsp, rax
	mov	rcx, qword ptr [rbp - 40] 
	mov	qword ptr [rax], rcx
	mov	rdi, qword ptr [rax]
	call	_ZNKSt5arrayIiLm56EE4dataEv
	mov	dword ptr [rbp - 32], -732476432
	mov	qword ptr [rbp - 72], rax 
.LBB62_7:                               
	jmp	.LBB62_1
.Lfunc_end62:
	.size	_ZNKSt5arrayIiLm56EE5beginEv, .Lfunc_end62-_ZNKSt5arrayIiLm56EE5beginEv

	.section	.text._ZSt4findIPKiiET_S2_S2_RKT0_,"axG",@progbits,_ZSt4findIPKiiET_S2_S2_RKT0_,comdat
	.weak	_ZSt4findIPKiiET_S2_S2_RKT0_ 
	.p2align	4, 0x90
	.type	_ZSt4findIPKiiET_S2_S2_RKT0_,@function
_ZSt4findIPKiiET_S2_S2_RKT0_:           
	.cfi_startproc

	push	rbp
.Lcfi182:
	.cfi_def_cfa_offset 16
.Lcfi183:
	.cfi_offset rbp, -16
	mov	rbp, rsp
.Lcfi184:
	.cfi_def_cfa_register rbp
	push	r15
	push	r14
	push	r13
	push	r12
	push	rbx
	sub	rsp, 120
.Lcfi185:
	.cfi_offset rbx, -56
.Lcfi186:
	.cfi_offset r12, -48
.Lcfi187:
	.cfi_offset r13, -40
.Lcfi188:
	.cfi_offset r14, -32
.Lcfi189:
	.cfi_offset r15, -24
	mov	eax, dword ptr [x.150]
	mov	ecx, dword ptr [y.151]
	mov	r8d, eax
	add	r8d, 21407445
	sub	r8d, 1
	sub	r8d, 21407445
	imul	eax, r8d
	and	eax, 1
	cmp	eax, 0
	sete	r9b
	and	r9b, 1
	mov	byte ptr [rbp - 50], r9b
	cmp	ecx, 10
	setl	r9b
	and	r9b, 1
	mov	byte ptr [rbp - 49], r9b
	mov	dword ptr [rbp - 56], -1106675527
	mov	qword ptr [rbp - 64], rsi 
	mov	qword ptr [rbp - 72], rdi 
	mov	qword ptr [rbp - 80], rdx 
.LBB63_1:                               
	mov	eax, dword ptr [rbp - 56]
	mov	ecx, eax
	sub	ecx, -1248205281
	mov	dword ptr [rbp - 84], eax 
	mov	dword ptr [rbp - 88], ecx 
	je	.LBB63_5
	jmp	.LBB63_8
.LBB63_8:                               
	mov	eax, dword ptr [rbp - 84] 
	sub	eax, -1106675527
	mov	dword ptr [rbp - 92], eax 
	je	.LBB63_3
	jmp	.LBB63_9
.LBB63_9:                               
	mov	eax, dword ptr [rbp - 84] 
	sub	eax, 350458378
	mov	dword ptr [rbp - 96], eax 
	je	.LBB63_4
	jmp	.LBB63_10
.LBB63_10:                              
	mov	eax, dword ptr [rbp - 84] 
	sub	eax, 1673613343
	mov	dword ptr [rbp - 100], eax 
	je	.LBB63_6
	jmp	.LBB63_2
.LBB63_2:                               
	jmp	.LBB63_7
.LBB63_3:                               
	mov	eax, 1673613343
	mov	ecx, 350458378
	mov	dl, byte ptr [rbp - 50]
	mov	sil, byte ptr [rbp - 49]
	mov	dil, dl
	and	dil, sil
	xor	dl, sil
	or	dil, dl
	test	dil, 1
	cmovne	eax, ecx
	mov	dword ptr [rbp - 56], eax
	jmp	.LBB63_7
.LBB63_4:                               
	mov	rax, rsp
	add	rax, -16
	mov	rsp, rax
	mov	rcx, rsp
	add	rcx, -16
	mov	rsp, rcx
	mov	rdx, rsp
	add	rdx, -16
	mov	rsp, rdx
	mov	rsi, rsp
	add	rsi, -16
	mov	rsp, rsi
	mov	rdi, qword ptr [rbp - 72] 
	mov	qword ptr [rax], rdi
	mov	r8, qword ptr [rbp - 64] 
	mov	qword ptr [rcx], r8
	mov	r9, qword ptr [rbp - 80] 
	mov	qword ptr [rdx], r9
	mov	rdi, qword ptr [rax]
	mov	rax, qword ptr [rcx]
	mov	rcx, qword ptr [rdx]
	mov	qword ptr [rbp - 112], rdi 
	mov	rdi, rcx
	mov	qword ptr [rbp - 120], rax 
	mov	qword ptr [rbp - 128], rsi 
	call	_ZN9__gnu_cxx5__ops17__iter_equals_valIKiEENS0_16_Iter_equals_valIT_EERS4_
	mov	rcx, qword ptr [rbp - 128] 
	mov	qword ptr [rcx], rax
	mov	rdx, qword ptr [rcx]
	mov	rdi, qword ptr [rbp - 112] 
	mov	rsi, qword ptr [rbp - 120] 
	call	_ZSt9__find_ifIPKiN9__gnu_cxx5__ops16_Iter_equals_valIS0_EEET_S6_S6_T0_
	mov	r10d, 1673613343
	mov	r11d, 3046762015
	mov	bl, 1
	mov	qword ptr [rbp - 48], rax
	mov	r14d, dword ptr [x.150]
	mov	r15d, dword ptr [y.151]
	mov	r12d, r14d
	sub	r12d, -742610728
	sub	r12d, 1
	add	r12d, -742610728
	imul	r14d, r12d
	and	r14d, 1
	cmp	r14d, 0
	sete	r13b
	cmp	r15d, 10
	setl	al
	mov	cl, r13b
	xor	cl, -1
	mov	dl, al
	xor	dl, -1
	xor	bl, 1
	mov	sil, cl
	and	sil, -1
	and	r13b, bl
	mov	dil, dl
	and	dil, -1
	and	al, bl
	or	sil, r13b
	or	dil, al
	xor	sil, dil
	or	cl, dl
	xor	cl, -1
	or	bl, 1
	and	cl, bl
	or	sil, cl
	test	sil, 1
	cmovne	r10d, r11d
	mov	dword ptr [rbp - 56], r10d
	jmp	.LBB63_7
.LBB63_5:
	mov	rax, qword ptr [rbp - 48]
	lea	rsp, [rbp - 40]
	pop	rbx
	pop	r12
	pop	r13
	pop	r14
	pop	r15
	pop	rbp
	ret
.LBB63_6:                               
	mov	rax, rsp
	add	rax, -16
	mov	rsp, rax
	mov	rcx, rsp
	add	rcx, -16
	mov	rsp, rcx
	mov	rdx, rsp
	add	rdx, -16
	mov	rsp, rdx
	mov	rsi, rsp
	add	rsi, -16
	mov	rsp, rsi
	mov	rdi, qword ptr [rbp - 72] 
	mov	qword ptr [rax], rdi
	mov	r8, qword ptr [rbp - 64] 
	mov	qword ptr [rcx], r8
	mov	r9, qword ptr [rbp - 80] 
	mov	qword ptr [rdx], r9
	mov	rdi, qword ptr [rax]
	mov	rax, qword ptr [rcx]
	mov	rcx, qword ptr [rdx]
	mov	qword ptr [rbp - 136], rdi 
	mov	rdi, rcx
	mov	qword ptr [rbp - 144], rax 
	mov	qword ptr [rbp - 152], rsi 
	call	_ZN9__gnu_cxx5__ops17__iter_equals_valIKiEENS0_16_Iter_equals_valIT_EERS4_
	mov	rcx, qword ptr [rbp - 152] 
	mov	qword ptr [rcx], rax
	mov	rdx, qword ptr [rcx]
	mov	rdi, qword ptr [rbp - 136] 
	mov	rsi, qword ptr [rbp - 144] 
	call	_ZSt9__find_ifIPKiN9__gnu_cxx5__ops16_Iter_equals_valIS0_EEET_S6_S6_T0_
	mov	dword ptr [rbp - 56], 350458378
	mov	qword ptr [rbp - 160], rax 
.LBB63_7:                               
	jmp	.LBB63_1
.Lfunc_end63:
	.size	_ZSt4findIPKiiET_S2_S2_RKT0_, .Lfunc_end63-_ZSt4findIPKiiET_S2_S2_RKT0_
	.cfi_endproc

	.section	.text._ZNKSt5arrayIiLm56EE3endEv,"axG",@progbits,_ZNKSt5arrayIiLm56EE3endEv,comdat
	.weak	_ZNKSt5arrayIiLm56EE3endEv 
	.p2align	4, 0x90
	.type	_ZNKSt5arrayIiLm56EE3endEv,@function
_ZNKSt5arrayIiLm56EE3endEv:             

	push	rbp
	mov	rbp, rsp
	push	r15
	push	r14
	push	rbx
	sub	rsp, 56
	mov	eax, dword ptr [x.152]
	mov	ecx, dword ptr [y.153]
	mov	edx, eax
	sub	edx, 270701853
	sub	edx, 1
	add	edx, 270701853
	imul	eax, edx
	and	eax, 1
	cmp	eax, 0
	sete	sil
	and	sil, 1
	mov	byte ptr [rbp - 34], sil
	cmp	ecx, 10
	setl	sil
	and	sil, 1
	mov	byte ptr [rbp - 33], sil
	mov	dword ptr [rbp - 40], -1035320732
	mov	qword ptr [rbp - 48], rdi 
.LBB64_1:                               
	mov	eax, dword ptr [rbp - 40]
	mov	ecx, eax
	sub	ecx, -1035320732
	mov	dword ptr [rbp - 52], eax 
	mov	dword ptr [rbp - 56], ecx 
	je	.LBB64_3
	jmp	.LBB64_8
.LBB64_8:                               
	mov	eax, dword ptr [rbp - 52] 
	sub	eax, -558409563
	mov	dword ptr [rbp - 60], eax 
	je	.LBB64_5
	jmp	.LBB64_9
.LBB64_9:                               
	mov	eax, dword ptr [rbp - 52] 
	sub	eax, 1621224055
	mov	dword ptr [rbp - 64], eax 
	je	.LBB64_4
	jmp	.LBB64_10
.LBB64_10:                              
	mov	eax, dword ptr [rbp - 52] 
	sub	eax, 2119498492
	mov	dword ptr [rbp - 68], eax 
	je	.LBB64_6
	jmp	.LBB64_2
.LBB64_2:                               
	jmp	.LBB64_7
.LBB64_3:                               
	mov	eax, 2119498492
	mov	ecx, 1621224055
	mov	dl, 1
	mov	sil, byte ptr [rbp - 34]
	mov	dil, byte ptr [rbp - 33]
	mov	r8b, sil
	xor	r8b, -1
	mov	r9b, dil
	xor	r9b, -1
	xor	dl, 1
	mov	r10b, r8b
	and	r10b, -1
	and	sil, dl
	mov	r11b, r9b
	and	r11b, -1
	and	dil, dl
	or	r10b, sil
	or	r11b, dil
	xor	r10b, r11b
	or	r8b, r9b
	xor	r8b, -1
	or	dl, 1
	and	r8b, dl
	or	r10b, r8b
	test	r10b, 1
	cmovne	eax, ecx
	mov	dword ptr [rbp - 40], eax
	jmp	.LBB64_7
.LBB64_4:                               
	mov	rax, rsp
	add	rax, -16
	mov	rsp, rax
	mov	rcx, qword ptr [rbp - 48] 
	mov	qword ptr [rax], rcx
	mov	rdi, qword ptr [rax]
	call	_ZNKSt5arrayIiLm56EE4dataEv
	mov	edx, 2119498492
	mov	esi, 3736557733
	xor	r8d, r8d
	add	rax, 224
	mov	qword ptr [rbp - 32], rax
	mov	r9d, dword ptr [x.152]
	mov	r10d, dword ptr [y.153]
	sub	r8d, 1
	mov	r11d, r9d
	add	r11d, r8d
	imul	r9d, r11d
	and	r9d, 1
	cmp	r9d, 0
	sete	bl
	cmp	r10d, 10
	setl	r14b
	mov	r15b, bl
	and	r15b, r14b
	xor	bl, r14b
	or	r15b, bl
	test	r15b, 1
	cmovne	edx, esi
	mov	dword ptr [rbp - 40], edx
	jmp	.LBB64_7
.LBB64_5:
	mov	rax, qword ptr [rbp - 32]
	lea	rsp, [rbp - 24]
	pop	rbx
	pop	r14
	pop	r15
	pop	rbp
	ret
.LBB64_6:                               
	mov	rax, rsp
	add	rax, -16
	mov	rsp, rax
	mov	rcx, qword ptr [rbp - 48] 
	mov	qword ptr [rax], rcx
	mov	rdi, qword ptr [rax]
	call	_ZNKSt5arrayIiLm56EE4dataEv
	mov	dword ptr [rbp - 40], 1621224055
	mov	qword ptr [rbp - 80], rax 
.LBB64_7:                               
	jmp	.LBB64_1
.Lfunc_end64:
	.size	_ZNKSt5arrayIiLm56EE3endEv, .Lfunc_end64-_ZNKSt5arrayIiLm56EE3endEv

	.section	.text._ZNSt6bitsetILm56EE3setEmb,"axG",@progbits,_ZNSt6bitsetILm56EE3setEmb,comdat
	.weak	_ZNSt6bitsetILm56EE3setEmb 
	.p2align	4, 0x90
	.type	_ZNSt6bitsetILm56EE3setEmb,@function
_ZNSt6bitsetILm56EE3setEmb:             
	.cfi_startproc

	push	rbp
.Lcfi190:
	.cfi_def_cfa_offset 16
.Lcfi191:
	.cfi_offset rbp, -16
	mov	rbp, rsp
.Lcfi192:
	.cfi_def_cfa_register rbp
	sub	rsp, 48
	mov	al, dl
	movabs	rdx, .L.str.48
	mov	qword ptr [rbp - 8], rdi
	mov	qword ptr [rbp - 16], rsi
	and	al, 1
	mov	byte ptr [rbp - 17], al
	mov	rsi, qword ptr [rbp - 8]
	mov	rdi, qword ptr [rbp - 16]
	mov	qword ptr [rbp - 32], rdi 
	mov	rdi, rsi
	mov	rcx, qword ptr [rbp - 32] 
	mov	qword ptr [rbp - 40], rsi 
	mov	rsi, rcx
	call	_ZNKSt6bitsetILm56EE8_M_checkEmPKc
	mov	rsi, qword ptr [rbp - 16]
	mov	al, byte ptr [rbp - 17]
	and	al, 1
	movzx	edx, al
	mov	rdi, qword ptr [rbp - 40] 
	call	_ZNSt6bitsetILm56EE14_Unchecked_setEmi
	add	rsp, 48
	pop	rbp
	ret
.Lfunc_end65:
	.size	_ZNSt6bitsetILm56EE3setEmb, .Lfunc_end65-_ZNSt6bitsetILm56EE3setEmb
	.cfi_endproc

	.section	.text._ZNKSt6bitsetILm56EE9to_stringB5cxx11Ev,"axG",@progbits,_ZNKSt6bitsetILm56EE9to_stringB5cxx11Ev,comdat
	.weak	_ZNKSt6bitsetILm56EE9to_stringB5cxx11Ev 
	.p2align	4, 0x90
	.type	_ZNKSt6bitsetILm56EE9to_stringB5cxx11Ev,@function
_ZNKSt6bitsetILm56EE9to_stringB5cxx11Ev: 
	.cfi_startproc

	push	rbp
.Lcfi193:
	.cfi_def_cfa_offset 16
.Lcfi194:
	.cfi_offset rbp, -16
	mov	rbp, rsp
.Lcfi195:
	.cfi_def_cfa_register rbp
	push	r15
	push	r14
	push	r13
	push	r12
	push	rbx
	sub	rsp, 56
.Lcfi196:
	.cfi_offset rbx, -56
.Lcfi197:
	.cfi_offset r12, -48
.Lcfi198:
	.cfi_offset r13, -40
.Lcfi199:
	.cfi_offset r14, -32
.Lcfi200:
	.cfi_offset r15, -24
	mov	rax, rdi
	mov	ecx, dword ptr [x.156]
	mov	edx, dword ptr [y.157]
	mov	r8d, ecx
	sub	r8d, -481123374
	sub	r8d, 1
	add	r8d, -481123374
	imul	ecx, r8d
	and	ecx, 1
	cmp	ecx, 0
	sete	r9b
	and	r9b, 1
	mov	byte ptr [rbp - 42], r9b
	cmp	edx, 10
	setl	r9b
	and	r9b, 1
	mov	byte ptr [rbp - 41], r9b
	mov	dword ptr [rbp - 48], 2093126868
	mov	qword ptr [rbp - 56], rax 
	mov	qword ptr [rbp - 64], rsi 
	mov	qword ptr [rbp - 72], rdi 
.LBB66_1:                               
	mov	eax, dword ptr [rbp - 48]
	mov	ecx, eax
	sub	ecx, -1482688221
	mov	dword ptr [rbp - 76], eax 
	mov	dword ptr [rbp - 80], ecx 
	je	.LBB66_6
	jmp	.LBB66_8
.LBB66_8:                               
	mov	eax, dword ptr [rbp - 76] 
	sub	eax, -201443057
	mov	dword ptr [rbp - 84], eax 
	je	.LBB66_5
	jmp	.LBB66_9
.LBB66_9:                               
	mov	eax, dword ptr [rbp - 76] 
	sub	eax, 419714709
	mov	dword ptr [rbp - 88], eax 
	je	.LBB66_4
	jmp	.LBB66_10
.LBB66_10:                              
	mov	eax, dword ptr [rbp - 76] 
	sub	eax, 2093126868
	mov	dword ptr [rbp - 92], eax 
	je	.LBB66_3
	jmp	.LBB66_2
.LBB66_2:                               
	jmp	.LBB66_7
.LBB66_3:                               
	mov	eax, 2812279075
	mov	ecx, 419714709
	mov	dl, 1
	mov	sil, byte ptr [rbp - 42]
	mov	dil, byte ptr [rbp - 41]
	mov	r8b, sil
	xor	r8b, -1
	mov	r9b, dil
	xor	r9b, -1
	xor	dl, 1
	mov	r10b, r8b
	and	r10b, -1
	and	sil, dl
	mov	r11b, r9b
	and	r11b, -1
	and	dil, dl
	or	r10b, sil
	or	r11b, dil
	xor	r10b, r11b
	or	r8b, r9b
	xor	r8b, -1
	or	dl, 1
	and	r8b, dl
	or	r10b, r8b
	test	r10b, 1
	cmovne	eax, ecx
	mov	dword ptr [rbp - 48], eax
	jmp	.LBB66_7
.LBB66_4:                               
	mov	rax, rsp
	add	rax, -16
	mov	rsp, rax
	mov	rcx, qword ptr [rbp - 64] 
	mov	qword ptr [rax], rcx
	mov	rsi, qword ptr [rax]
	mov	rdi, qword ptr [rbp - 72] 
	call	_ZNKSt6bitsetILm56EE9to_stringIcSt11char_traitsIcESaIcEEENSt7__cxx1112basic_stringIT_T0_T1_EEv
	mov	edx, 2812279075
	mov	r8d, 4093524239
	mov	r9b, 1
	mov	r10d, dword ptr [x.156]
	mov	r11d, dword ptr [y.157]
	mov	ebx, r10d
	sub	ebx, -1928734343
	sub	ebx, 1
	add	ebx, -1928734343
	imul	r10d, ebx
	and	r10d, 1
	cmp	r10d, 0
	sete	r14b
	cmp	r11d, 10
	setl	r15b
	mov	r12b, r14b
	xor	r12b, -1
	mov	r13b, r15b
	xor	r13b, -1
	xor	r9b, 0
	mov	al, r12b
	and	al, 0
	and	r14b, r9b
	mov	cl, r13b
	and	cl, 0
	and	r15b, r9b
	or	al, r14b
	or	cl, r15b
	xor	al, cl
	or	r12b, r13b
	xor	r12b, -1
	or	r9b, 0
	and	r12b, r9b
	or	al, r12b
	test	al, 1
	cmovne	edx, r8d
	mov	dword ptr [rbp - 48], edx
	jmp	.LBB66_7
.LBB66_5:
	mov	rax, qword ptr [rbp - 56] 
	lea	rsp, [rbp - 40]
	pop	rbx
	pop	r12
	pop	r13
	pop	r14
	pop	r15
	pop	rbp
	ret
.LBB66_6:                               
	mov	rax, rsp
	add	rax, -16
	mov	rsp, rax
	mov	rcx, qword ptr [rbp - 64] 
	mov	qword ptr [rax], rcx
	mov	rsi, qword ptr [rax]
	mov	rdi, qword ptr [rbp - 72] 
	call	_ZNKSt6bitsetILm56EE9to_stringIcSt11char_traitsIcESaIcEEENSt7__cxx1112basic_stringIT_T0_T1_EEv
	mov	dword ptr [rbp - 48], 419714709
.LBB66_7:                               
	jmp	.LBB66_1
.Lfunc_end66:
	.size	_ZNKSt6bitsetILm56EE9to_stringB5cxx11Ev, .Lfunc_end66-_ZNKSt6bitsetILm56EE9to_stringB5cxx11Ev
	.cfi_endproc

	.section	.text._ZNKSt5arrayIiLm48EE5beginEv,"axG",@progbits,_ZNKSt5arrayIiLm48EE5beginEv,comdat
