	.text
	.intel_syntax noprefix
	.file	"/mnt/c/Users/Adam/Developer/CryptoFunctionDetection/crypto_implementations/DES-Cryptography/DES.cpp"
	.globl	_ZN3DESC2ENSt7__cxx1112basic_stringIcSt11char_traitsIcESaIcEEES5_ 
	.p2align	4, 0x90
	.type	_ZN3DESC2ENSt7__cxx1112basic_stringIcSt11char_traitsIcESaIcEEES5_,@function
_ZN3DESC2ENSt7__cxx1112basic_stringIcSt11char_traitsIcESaIcEEES5_: 
.Lfunc_begin0:
	.cfi_startproc
	.cfi_personality 3, __gxx_personality_v0
	.cfi_lsda 3, .Lexception0

	push	rbp
.Lcfi0:
	.cfi_def_cfa_offset 16
	push	r15
.Lcfi1:
	.cfi_def_cfa_offset 24
	push	r14
.Lcfi2:
	.cfi_def_cfa_offset 32
	push	r13
.Lcfi3:
	.cfi_def_cfa_offset 40
	push	r12
.Lcfi4:
	.cfi_def_cfa_offset 48
	push	rbx
.Lcfi5:
	.cfi_def_cfa_offset 56
	sub	rsp, 136
.Lcfi6:
	.cfi_def_cfa_offset 192
.Lcfi7:
	.cfi_offset rbx, -56
.Lcfi8:
	.cfi_offset r12, -48
.Lcfi9:
	.cfi_offset r13, -40
.Lcfi10:
	.cfi_offset r14, -32
.Lcfi11:
	.cfi_offset r15, -24
.Lcfi12:
	.cfi_offset rbp, -16
	mov	r12, rdx
	mov	r15, rsi
	mov	r14, rdi
	mov	qword ptr [r14], _ZTV3DES+16
	lea	rdi, [r14 + 24]
	call	_ZSt9addressofIcEPT_RS0_
	mov	ecx, dword ptr [rip + x.350]
	mov	edx, dword ptr [rip + y.351]
	lea	esi, [rcx - 1]
	imul	esi, ecx
	not	esi
	or	esi, -2
	cmp	esi, -1
	sete	bl
	sete	byte ptr [rsp + 7]
	mov	esi, -1202865644
	mov	edi, 889828727
	mov	ecx, 889828727
	cmove	ecx, esi
	cmp	edx, 10
	setl	dl
	setl	byte ptr [rsp + 8]
	cmovge	ecx, edi
	xor	dl, bl
	cmovne	ecx, esi
	mov	esi, 826350111
	mov	edi, 185829745
	jmp	.LBB0_1
.LBB0_8:                                
	mov	esi, 185829745
	.p2align	4, 0x90
.LBB0_1:                                
	cmp	esi, 826350110
	jg	.LBB0_5

	cmp	esi, -1202865644
	je	.LBB0_10

	cmp	esi, 185829745
	jne	.LBB0_1

	mov	esi, ecx
	jmp	.LBB0_1
	.p2align	4, 0x90
.LBB0_5:                                
	cmp	esi, 889828727
	je	.LBB0_8

	cmp	esi, 826350111
	jne	.LBB0_1

	movzx	r8d, byte ptr [rsp + 7]
	movzx	edx, byte ptr [rsp + 8]
	mov	ebx, r8d
	xor	bl, dl
	mov	ebx, 889828727
	cmovne	ebx, edi
	test	dl, dl
	mov	esi, ebx
	cmovne	esi, edi
	test	r8b, r8b
	cmove	esi, ebx
	jmp	.LBB0_1
.LBB0_10:
	lea	rdi, [r14 + 8]
	mov	qword ptr [r14 + 8], rax
.Ltmp0:
	xor	esi, esi
	mov	qword ptr [rsp + 48], rdi 
	call	_ZNSt7__cxx1112basic_stringIcSt11char_traitsIcESaIcEE13_M_set_lengthEm
.Ltmp1:

	lea	rdi, [r14 + 56]
	call	_ZSt9addressofIcEPT_RS0_
	mov	ecx, dword ptr [rip + x.350]
	mov	edx, dword ptr [rip + y.351]
	lea	esi, [rcx - 1]
	imul	esi, ecx
	not	esi
	or	esi, -2
	cmp	esi, -1
	sete	cl
	cmp	edx, 10
	setl	bl
	xor	bl, cl
	mov	ebp, -1202865644
	mov	edi, 889828727
	cmovne	edi, ebp
	cmp	esi, -1
	sete	byte ptr [rsp + 7]
	cmovne	ebp, edi
	cmp	edx, 10
	setl	byte ptr [rsp + 8]
	mov	r8d, 889828727
	cmovge	ebp, edi
	mov	edi, 826350111
	mov	esi, 185829745
	jmp	.LBB0_12
.LBB0_19:                               
	mov	edi, 185829745
	.p2align	4, 0x90
.LBB0_12:                               
	cmp	edi, 826350110
	jg	.LBB0_16

	cmp	edi, -1202865644
	je	.LBB0_21

	cmp	edi, 185829745
	jne	.LBB0_12

	mov	edi, ebp
	jmp	.LBB0_12
	.p2align	4, 0x90
.LBB0_16:                               
	cmp	edi, 889828727
	je	.LBB0_19

	cmp	edi, 826350111
	jne	.LBB0_12

	movzx	ecx, byte ptr [rsp + 7]
	movzx	edx, byte ptr [rsp + 8]
	mov	ebx, ecx
	xor	bl, dl
	test	dl, dl
	mov	edi, 889828727
	cmovne	edi, esi
	test	cl, cl
	cmove	edi, r8d
	test	bl, bl
	cmovne	edi, esi
	jmp	.LBB0_12
.LBB0_21:
	lea	r13, [r14 + 40]
	mov	qword ptr [r14 + 40], rax
.Ltmp3:
	xor	esi, esi
	mov	rdi, r13
	call	_ZNSt7__cxx1112basic_stringIcSt11char_traitsIcESaIcEE13_M_set_lengthEm
.Ltmp4:

	lea	rdi, [r14 + 88]
	call	_ZSt9addressofIcEPT_RS0_
	mov	ecx, dword ptr [rip + x.350]
	mov	esi, dword ptr [rip + y.351]
	mov	edx, ecx
	neg	edx
	not	edx
	imul	edx, ecx
	mov	ecx, edx
	xor	ecx, -2
	and	ecx, edx
	sete	bl
	sete	byte ptr [rsp + 7]
	test	ecx, ecx
	mov	edi, -1202865644
	mov	ebp, 889828727
	mov	edx, 889828727
	cmove	edx, edi
	cmp	esi, 10
	setl	cl
	setl	byte ptr [rsp + 8]
	cmovge	edx, ebp
	xor	cl, bl
	cmovne	edx, edi
	mov	edi, 826350111
	mov	esi, 185829745
	jmp	.LBB0_23
.LBB0_30:                               
	mov	edi, 185829745
	.p2align	4, 0x90
.LBB0_23:                               
	cmp	edi, 826350110
	jg	.LBB0_27

	cmp	edi, -1202865644
	je	.LBB0_32

	cmp	edi, 185829745
	jne	.LBB0_23

	mov	edi, edx
	jmp	.LBB0_23
	.p2align	4, 0x90
.LBB0_27:                               
	cmp	edi, 889828727
	je	.LBB0_30

	cmp	edi, 826350111
	jne	.LBB0_23

	movzx	r8d, byte ptr [rsp + 7]
	movzx	ebx, byte ptr [rsp + 8]
	mov	ecx, r8d
	xor	cl, bl
	test	bl, bl
	mov	edi, 889828727
	cmovne	edi, esi
	test	r8b, r8b
	cmove	edi, ebp
	test	cl, cl
	cmovne	edi, esi
	jmp	.LBB0_23
.LBB0_32:
	lea	rdi, [r14 + 72]
	mov	qword ptr [r14 + 72], rax
.Ltmp6:
	xor	esi, esi
	mov	qword ptr [rsp + 128], rdi 
	call	_ZNSt7__cxx1112basic_stringIcSt11char_traitsIcESaIcEE13_M_set_lengthEm
.Ltmp7:

	lea	rdi, [r14 + 120]
	call	_ZSt9addressofIcEPT_RS0_
	mov	ecx, dword ptr [rip + x.350]
	mov	edx, dword ptr [rip + y.351]
	lea	esi, [rcx - 1]
	imul	esi, ecx
	mov	edi, esi
	xor	edi, -2
	and	edi, esi
	sete	byte ptr [rsp + 7]
	sete	cl
	cmp	edx, 10
	setl	bl
	xor	bl, cl
	mov	ebp, -1202865644
	mov	esi, 889828727
	cmovne	esi, ebp
	test	edi, edi
	cmovne	ebp, esi
	cmp	edx, 10
	setl	byte ptr [rsp + 8]
	cmovge	ebp, esi
	mov	esi, 826350111
	mov	edi, 185829745
	jmp	.LBB0_34
.LBB0_41:                               
	mov	esi, 185829745
	.p2align	4, 0x90
.LBB0_34:                               
	cmp	esi, 826350110
	jg	.LBB0_38

	cmp	esi, -1202865644
	je	.LBB0_43

	cmp	esi, 185829745
	jne	.LBB0_34

	mov	esi, ebp
	jmp	.LBB0_34
	.p2align	4, 0x90
.LBB0_38:                               
	cmp	esi, 889828727
	je	.LBB0_41

	cmp	esi, 826350111
	jne	.LBB0_34

	movzx	ecx, byte ptr [rsp + 7]
	movzx	edx, byte ptr [rsp + 8]
	mov	ebx, ecx
	xor	bl, dl
	mov	ebx, 889828727
	cmovne	ebx, edi
	test	dl, dl
	mov	esi, ebx
	cmovne	esi, edi
	test	cl, cl
	cmove	esi, ebx
	jmp	.LBB0_34
.LBB0_43:
	lea	rdi, [r14 + 104]
	mov	qword ptr [r14 + 104], rax
.Ltmp9:
	xor	esi, esi
	mov	qword ptr [rsp + 120], rdi 
	call	_ZNSt7__cxx1112basic_stringIcSt11char_traitsIcESaIcEE13_M_set_lengthEm
.Ltmp10:

	lea	rdi, [r14 + 152]
	call	_ZSt9addressofIcEPT_RS0_
	mov	ecx, dword ptr [rip + x.350]
	mov	edx, dword ptr [rip + y.351]
	mov	esi, ecx
	neg	esi
	not	esi
	imul	esi, ecx
	not	esi
	or	esi, -2
	cmp	esi, -1
	sete	bl
	sete	byte ptr [rsp + 7]
	mov	esi, -1202865644
	mov	edi, 889828727
	mov	ecx, 889828727
	cmove	ecx, esi
	cmp	edx, 10
	setl	dl
	setl	byte ptr [rsp + 8]
	cmovge	ecx, edi
	xor	dl, bl
	cmovne	ecx, esi
	mov	esi, 826350111
	mov	edi, 185829745
	jmp	.LBB0_45
.LBB0_52:                               
	mov	esi, 185829745
	.p2align	4, 0x90
.LBB0_45:                               
	cmp	esi, 826350110
	jg	.LBB0_49

	cmp	esi, -1202865644
	je	.LBB0_54

	cmp	esi, 185829745
	jne	.LBB0_45

	mov	esi, ecx
	jmp	.LBB0_45
	.p2align	4, 0x90
.LBB0_49:                               
	cmp	esi, 889828727
	je	.LBB0_52

	cmp	esi, 826350111
	jne	.LBB0_45

	movzx	r8d, byte ptr [rsp + 7]
	movzx	edx, byte ptr [rsp + 8]
	mov	ebx, r8d
	xor	bl, dl
	mov	ebp, 889828727
	cmovne	ebp, edi
	test	dl, dl
	mov	esi, ebp
	cmovne	esi, edi
	test	r8b, r8b
	cmove	esi, ebp
	jmp	.LBB0_45
.LBB0_54:
	lea	rdi, [r14 + 136]
	mov	qword ptr [r14 + 136], rax
.Ltmp12:
	xor	esi, esi
	mov	qword ptr [rsp + 112], rdi 
	call	_ZNSt7__cxx1112basic_stringIcSt11char_traitsIcESaIcEE13_M_set_lengthEm
.Ltmp13:

	lea	rdi, [r14 + 184]
	call	_ZSt9addressofIcEPT_RS0_
	mov	ecx, dword ptr [rip + x.350]
	mov	edx, dword ptr [rip + y.351]
	lea	esi, [rcx - 1]
	imul	esi, ecx
	mov	ecx, esi
	xor	ecx, -2
	and	ecx, esi
	sete	bl
	sete	byte ptr [rsp + 7]
	test	ecx, ecx
	mov	esi, -1202865644
	mov	edi, 889828727
	mov	ecx, 889828727
	cmove	ecx, esi
	cmp	edx, 10
	setl	dl
	setl	byte ptr [rsp + 8]
	cmovge	ecx, edi
	xor	dl, bl
	cmovne	ecx, esi
	mov	esi, 826350111
	mov	edi, 185829745
	jmp	.LBB0_56
.LBB0_63:                               
	mov	esi, 185829745
	.p2align	4, 0x90
.LBB0_56:                               
	cmp	esi, 826350110
	jg	.LBB0_60

	cmp	esi, -1202865644
	je	.LBB0_65

	cmp	esi, 185829745
	jne	.LBB0_56

	mov	esi, ecx
	jmp	.LBB0_56
	.p2align	4, 0x90
.LBB0_60:                               
	cmp	esi, 889828727
	je	.LBB0_63

	cmp	esi, 826350111
	jne	.LBB0_56

	movzx	r8d, byte ptr [rsp + 7]
	movzx	edx, byte ptr [rsp + 8]
	mov	ebx, r8d
	xor	bl, dl
	mov	ebp, 889828727
	cmovne	ebp, edi
	test	dl, dl
	mov	esi, ebp
	cmovne	esi, edi
	test	r8b, r8b
	cmove	esi, ebp
	jmp	.LBB0_56
.LBB0_65:
	lea	rdi, [r14 + 168]
	mov	qword ptr [r14 + 168], rax
.Ltmp15:
	xor	esi, esi
	mov	qword ptr [rsp + 104], rdi 
	call	_ZNSt7__cxx1112basic_stringIcSt11char_traitsIcESaIcEE13_M_set_lengthEm
.Ltmp16:

	lea	rdi, [r14 + 216]
	call	_ZSt9addressofIcEPT_RS0_
	mov	ecx, dword ptr [rip + x.350]
	mov	edx, dword ptr [rip + y.351]
	mov	esi, ecx
	neg	esi
	not	esi
	imul	esi, ecx
	not	esi
	or	esi, -2
	cmp	esi, -1
	sete	bl
	sete	byte ptr [rsp + 7]
	mov	esi, -1202865644
	mov	edi, 889828727
	mov	ecx, 889828727
	cmove	ecx, esi
	cmp	edx, 10
	setl	dl
	setl	byte ptr [rsp + 8]
	cmovge	ecx, edi
	xor	dl, bl
	cmovne	ecx, esi
	mov	esi, 826350111
	mov	edi, 185829745
	jmp	.LBB0_67
.LBB0_74:                               
	mov	esi, 185829745
	.p2align	4, 0x90
.LBB0_67:                               
	cmp	esi, 826350110
	jg	.LBB0_71

	cmp	esi, -1202865644
	je	.LBB0_76

	cmp	esi, 185829745
	jne	.LBB0_67

	mov	esi, ecx
	jmp	.LBB0_67
	.p2align	4, 0x90
.LBB0_71:                               
	cmp	esi, 889828727
	je	.LBB0_74

	cmp	esi, 826350111
	jne	.LBB0_67

	movzx	r8d, byte ptr [rsp + 7]
	movzx	edx, byte ptr [rsp + 8]
	mov	ebx, r8d
	xor	bl, dl
	mov	ebp, 889828727
	cmovne	ebp, edi
	test	dl, dl
	mov	esi, ebp
	cmovne	esi, edi
	test	r8b, r8b
	cmove	esi, ebp
	jmp	.LBB0_67
.LBB0_76:
	lea	rdi, [r14 + 200]
	mov	qword ptr [r14 + 200], rax
.Ltmp18:
	xor	esi, esi
	mov	qword ptr [rsp + 40], rdi 
	call	_ZNSt7__cxx1112basic_stringIcSt11char_traitsIcESaIcEE13_M_set_lengthEm
.Ltmp19:

	lea	rdi, [r14 + 248]
	call	_ZSt9addressofIcEPT_RS0_
	mov	ecx, dword ptr [rip + x.350]
	mov	edx, dword ptr [rip + y.351]
	lea	esi, [rcx - 1]
	imul	esi, ecx
	not	esi
	or	esi, -2
	cmp	esi, -1
	sete	cl
	cmp	edx, 10
	setl	bl
	xor	bl, cl
	mov	ebp, -1202865644
	mov	edi, 889828727
	cmovne	edi, ebp
	cmp	esi, -1
	sete	byte ptr [rsp + 7]
	cmovne	ebp, edi
	cmp	edx, 10
	setl	byte ptr [rsp + 8]
	mov	r8d, 889828727
	cmovge	ebp, edi
	mov	edi, 826350111
	mov	esi, 185829745
	jmp	.LBB0_78
.LBB0_85:                               
	mov	edi, 185829745
	.p2align	4, 0x90
.LBB0_78:                               
	cmp	edi, 826350110
	jg	.LBB0_82

	cmp	edi, -1202865644
	je	.LBB0_87

	cmp	edi, 185829745
	jne	.LBB0_78

	mov	edi, ebp
	jmp	.LBB0_78
	.p2align	4, 0x90
.LBB0_82:                               
	cmp	edi, 889828727
	je	.LBB0_85

	cmp	edi, 826350111
	jne	.LBB0_78

	movzx	ecx, byte ptr [rsp + 7]
	movzx	edx, byte ptr [rsp + 8]
	mov	ebx, ecx
	xor	bl, dl
	test	dl, dl
	mov	edi, 889828727
	cmovne	edi, esi
	test	cl, cl
	cmove	edi, r8d
	test	bl, bl
	cmovne	edi, esi
	jmp	.LBB0_78
.LBB0_87:
	lea	rdi, [r14 + 232]
	mov	qword ptr [r14 + 232], rax
.Ltmp21:
	xor	esi, esi
	mov	qword ptr [rsp + 96], rdi 
	call	_ZNSt7__cxx1112basic_stringIcSt11char_traitsIcESaIcEE13_M_set_lengthEm
.Ltmp22:

	lea	rdi, [r14 + 280]
	call	_ZSt9addressofIcEPT_RS0_
	mov	ecx, dword ptr [rip + x.350]
	mov	edx, dword ptr [rip + y.351]
	lea	esi, [rcx - 1]
	imul	esi, ecx
	mov	ecx, esi
	xor	ecx, -2
	and	ecx, esi
	sete	bl
	sete	byte ptr [rsp + 7]
	test	ecx, ecx
	mov	esi, -1202865644
	mov	edi, 889828727
	mov	ecx, 889828727
	cmove	ecx, esi
	cmp	edx, 10
	setl	dl
	setl	byte ptr [rsp + 8]
	cmovge	ecx, edi
	xor	dl, bl
	cmovne	ecx, esi
	mov	esi, 826350111
	mov	edi, 185829745
	jmp	.LBB0_89
.LBB0_96:                               
	mov	esi, 185829745
	.p2align	4, 0x90
.LBB0_89:                               
	cmp	esi, 826350110
	jg	.LBB0_93

	cmp	esi, -1202865644
	je	.LBB0_98

	cmp	esi, 185829745
	jne	.LBB0_89

	mov	esi, ecx
	jmp	.LBB0_89
	.p2align	4, 0x90
.LBB0_93:                               
	cmp	esi, 889828727
	je	.LBB0_96

	cmp	esi, 826350111
	jne	.LBB0_89

	movzx	r8d, byte ptr [rsp + 7]
	movzx	edx, byte ptr [rsp + 8]
	mov	ebx, r8d
	xor	bl, dl
	mov	ebp, 889828727
	cmovne	ebp, edi
	test	dl, dl
	mov	esi, ebp
	cmovne	esi, edi
	test	r8b, r8b
	cmove	esi, ebp
	jmp	.LBB0_89
.LBB0_98:
	lea	rdi, [r14 + 264]
	mov	qword ptr [r14 + 264], rax
.Ltmp24:
	xor	esi, esi
	mov	qword ptr [rsp + 88], rdi 
	call	_ZNSt7__cxx1112basic_stringIcSt11char_traitsIcESaIcEE13_M_set_lengthEm
.Ltmp25:

	lea	rdi, [r14 + 312]
	call	_ZSt9addressofIcEPT_RS0_
	mov	ecx, dword ptr [rip + x.350]
	mov	edx, dword ptr [rip + y.351]
	lea	esi, [rcx - 1]
	imul	esi, ecx
	not	esi
	or	esi, -2
	cmp	esi, -1
	sete	cl
	cmp	edx, 10
	setl	bl
	xor	bl, cl
	mov	ebp, -1202865644
	mov	edi, 889828727
	cmovne	edi, ebp
	cmp	esi, -1
	sete	byte ptr [rsp + 7]
	cmovne	ebp, edi
	cmp	edx, 10
	setl	byte ptr [rsp + 8]
	cmovge	ebp, edi
	mov	esi, 826350111
	mov	edi, 185829745
	jmp	.LBB0_100
.LBB0_107:                              
	mov	esi, 185829745
	.p2align	4, 0x90
.LBB0_100:                              
	cmp	esi, 826350110
	jg	.LBB0_104

	cmp	esi, -1202865644
	je	.LBB0_109

	cmp	esi, 185829745
	jne	.LBB0_100

	mov	esi, ebp
	jmp	.LBB0_100
	.p2align	4, 0x90
.LBB0_104:                              
	cmp	esi, 889828727
	je	.LBB0_107

	cmp	esi, 826350111
	jne	.LBB0_100

	movzx	ecx, byte ptr [rsp + 7]
	movzx	edx, byte ptr [rsp + 8]
	mov	ebx, ecx
	xor	bl, dl
	mov	ebx, 889828727
	cmovne	ebx, edi
	test	dl, dl
	mov	esi, ebx
	cmovne	esi, edi
	test	cl, cl
	cmove	esi, ebx
	jmp	.LBB0_100
.LBB0_109:
	lea	rdi, [r14 + 296]
	mov	qword ptr [r14 + 296], rax
.Ltmp27:
	xor	esi, esi
	mov	qword ptr [rsp + 80], rdi 
	call	_ZNSt7__cxx1112basic_stringIcSt11char_traitsIcESaIcEE13_M_set_lengthEm
.Ltmp28:

	lea	rdi, [r14 + 344]
	call	_ZSt9addressofIcEPT_RS0_
	mov	ecx, dword ptr [rip + x.350]
	mov	edx, dword ptr [rip + y.351]
	lea	esi, [rcx - 1]
	imul	esi, ecx
	mov	edi, esi
	xor	edi, -2
	and	edi, esi
	sete	byte ptr [rsp + 7]
	sete	cl
	cmp	edx, 10
	setl	bl
	xor	bl, cl
	mov	ebp, -1202865644
	mov	esi, 889828727
	cmovne	esi, ebp
	test	edi, edi
	cmovne	ebp, esi
	cmp	edx, 10
	setl	byte ptr [rsp + 8]
	cmovge	ebp, esi
	mov	esi, 826350111
	mov	edi, 185829745
	jmp	.LBB0_111
.LBB0_118:                              
	mov	esi, 185829745
	.p2align	4, 0x90
.LBB0_111:                              
	cmp	esi, 826350110
	jg	.LBB0_115

	cmp	esi, -1202865644
	je	.LBB0_120

	cmp	esi, 185829745
	jne	.LBB0_111

	mov	esi, ebp
	jmp	.LBB0_111
	.p2align	4, 0x90
.LBB0_115:                              
	cmp	esi, 889828727
	je	.LBB0_118

	cmp	esi, 826350111
	jne	.LBB0_111

	movzx	ecx, byte ptr [rsp + 7]
	movzx	edx, byte ptr [rsp + 8]
	mov	ebx, ecx
	xor	bl, dl
	mov	ebx, 889828727
	cmovne	ebx, edi
	test	dl, dl
	mov	esi, ebx
	cmovne	esi, edi
	test	cl, cl
	cmove	esi, ebx
	jmp	.LBB0_111
.LBB0_120:
	lea	rdi, [r14 + 328]
	mov	qword ptr [r14 + 328], rax
.Ltmp30:
	xor	esi, esi
	mov	qword ptr [rsp + 72], rdi 
	call	_ZNSt7__cxx1112basic_stringIcSt11char_traitsIcESaIcEE13_M_set_lengthEm
.Ltmp31:

	lea	rdi, [r14 + 376]
	call	_ZSt9addressofIcEPT_RS0_
	mov	ecx, dword ptr [rip + x.350]
	mov	esi, dword ptr [rip + y.351]
	lea	edx, [rcx - 1]
	imul	edx, ecx
	mov	ecx, edx
	xor	ecx, -2
	and	ecx, edx
	sete	bl
	sete	byte ptr [rsp + 7]
	test	ecx, ecx
	mov	edi, -1202865644
	mov	ebp, 889828727
	mov	edx, 889828727
	cmove	edx, edi
	cmp	esi, 10
	setl	cl
	setl	byte ptr [rsp + 8]
	cmovge	edx, ebp
	xor	cl, bl
	cmovne	edx, edi
	mov	edi, 826350111
	mov	esi, 185829745
	jmp	.LBB0_122
.LBB0_129:                              
	mov	edi, 185829745
	.p2align	4, 0x90
.LBB0_122:                              
	cmp	edi, 826350110
	jg	.LBB0_126

	cmp	edi, -1202865644
	je	.LBB0_131

	cmp	edi, 185829745
	jne	.LBB0_122

	mov	edi, edx
	jmp	.LBB0_122
	.p2align	4, 0x90
.LBB0_126:                              
	cmp	edi, 889828727
	je	.LBB0_129

	cmp	edi, 826350111
	jne	.LBB0_122

	movzx	r8d, byte ptr [rsp + 7]
	movzx	ebx, byte ptr [rsp + 8]
	mov	ecx, r8d
	xor	cl, bl
	test	bl, bl
	mov	edi, 889828727
	cmovne	edi, esi
	test	r8b, r8b
	cmove	edi, ebp
	test	cl, cl
	cmovne	edi, esi
	jmp	.LBB0_122
.LBB0_131:
	lea	rdi, [r14 + 360]
	mov	qword ptr [r14 + 360], rax
.Ltmp33:
	xor	esi, esi
	mov	qword ptr [rsp + 64], rdi 
	call	_ZNSt7__cxx1112basic_stringIcSt11char_traitsIcESaIcEE13_M_set_lengthEm
.Ltmp34:

	lea	rdi, [r14 + 408]
	call	_ZSt9addressofIcEPT_RS0_
	mov	ecx, dword ptr [rip + x.350]
	mov	edx, dword ptr [rip + y.351]
	lea	esi, [rcx - 1]
	imul	esi, ecx
	mov	ecx, esi
	xor	ecx, -2
	and	ecx, esi
	sete	bl
	sete	byte ptr [rsp + 7]
	test	ecx, ecx
	mov	esi, -1202865644
	mov	edi, 889828727
	mov	ecx, 889828727
	cmove	ecx, esi
	cmp	edx, 10
	setl	dl
	setl	byte ptr [rsp + 8]
	cmovge	ecx, edi
	xor	dl, bl
	cmovne	ecx, esi
	mov	esi, 826350111
	mov	edi, 185829745
	jmp	.LBB0_133
.LBB0_140:                              
	mov	esi, 185829745
	.p2align	4, 0x90
.LBB0_133:                              
	cmp	esi, 826350110
	jg	.LBB0_137

	cmp	esi, -1202865644
	je	.LBB0_142

	cmp	esi, 185829745
	jne	.LBB0_133

	mov	esi, ecx
	jmp	.LBB0_133
	.p2align	4, 0x90
.LBB0_137:                              
	cmp	esi, 889828727
	je	.LBB0_140

	cmp	esi, 826350111
	jne	.LBB0_133

	movzx	r8d, byte ptr [rsp + 7]
	movzx	edx, byte ptr [rsp + 8]
	mov	ebx, r8d
	xor	bl, dl
	mov	ebp, 889828727
	cmovne	ebp, edi
	test	dl, dl
	mov	esi, ebp
	cmovne	esi, edi
	test	r8b, r8b
	cmove	esi, ebp
	jmp	.LBB0_133
.LBB0_142:
	mov	qword ptr [rsp + 56], r13 
	mov	r13, r12
	lea	r12, [r14 + 392]
	mov	qword ptr [r14 + 392], rax
.Ltmp36:
	xor	esi, esi
	mov	rdi, r12
	call	_ZNSt7__cxx1112basic_stringIcSt11char_traitsIcESaIcEE13_M_set_lengthEm
.Ltmp37:

	lea	rdi, [r14 + 440]
	call	_ZSt9addressofIcEPT_RS0_
	mov	ecx, dword ptr [rip + x.350]
	mov	edx, dword ptr [rip + y.351]
	lea	esi, [rcx - 1]
	imul	esi, ecx
	mov	edi, esi
	xor	edi, -2
	and	edi, esi
	sete	byte ptr [rsp + 7]
	sete	cl
	cmp	edx, 10
	setl	bl
	xor	bl, cl
	mov	ebp, -1202865644
	mov	esi, 889828727
	cmovne	esi, ebp
	test	edi, edi
	cmovne	ebp, esi
	cmp	edx, 10
	setl	byte ptr [rsp + 8]
	cmovge	ebp, esi
	mov	esi, 826350111
	mov	edi, 185829745
	jmp	.LBB0_144
.LBB0_151:                              
	mov	esi, 185829745
	.p2align	4, 0x90
.LBB0_144:                              
	cmp	esi, 826350110
	jg	.LBB0_148

	cmp	esi, -1202865644
	je	.LBB0_153

	cmp	esi, 185829745
	jne	.LBB0_144

	mov	esi, ebp
	jmp	.LBB0_144
	.p2align	4, 0x90
.LBB0_148:                              
	cmp	esi, 889828727
	je	.LBB0_151

	cmp	esi, 826350111
	jne	.LBB0_144

	movzx	ecx, byte ptr [rsp + 7]
	movzx	edx, byte ptr [rsp + 8]
	mov	ebx, ecx
	xor	bl, dl
	mov	ebx, 889828727
	cmovne	ebx, edi
	test	dl, dl
	mov	esi, ebx
	cmovne	esi, edi
	test	cl, cl
	cmove	esi, ebx
	jmp	.LBB0_144
.LBB0_153:
	mov	qword ptr [r14 + 424], rax
	add	r14, 424
.Ltmp39:
	xor	esi, esi
	mov	rdi, r14
	call	_ZNSt7__cxx1112basic_stringIcSt11char_traitsIcESaIcEE13_M_set_lengthEm
.Ltmp40:

.Ltmp42:
	lea	rdi, [rsp + 8]
	mov	rsi, r15
	call	_ZN3DES7hex2binERKNSt7__cxx1112basic_stringIcSt11char_traitsIcESaIcEEE
.Ltmp43:

.Ltmp45:
	lea	rsi, [rsp + 8]
	mov	rdi, qword ptr [rsp + 48] 
	call	_ZNSt7__cxx1112basic_stringIcSt11char_traitsIcESaIcEE9_M_assignERKS4_
.Ltmp46:

.Ltmp51:
	lea	rdi, [rsp + 8]
	call	_ZNSt7__cxx1112basic_stringIcSt11char_traitsIcESaIcEE10_M_disposeEv
.Ltmp52:

.Ltmp54:
	lea	rdi, [rsp + 8]
	mov	rsi, r13
	call	_ZN3DES7hex2binERKNSt7__cxx1112basic_stringIcSt11char_traitsIcESaIcEEE
.Ltmp55:

.Ltmp57:
	lea	rsi, [rsp + 8]
	mov	rdi, qword ptr [rsp + 40] 
	call	_ZNSt7__cxx1112basic_stringIcSt11char_traitsIcESaIcEE9_M_assignERKS4_
.Ltmp58:

.Ltmp105:
	lea	rdi, [rsp + 8]
	call	_ZNSt7__cxx1112basic_stringIcSt11char_traitsIcESaIcEE10_M_disposeEv
.Ltmp106:

	add	rsp, 136
	pop	rbx
	pop	r12
	pop	r13
	pop	r14
	pop	r15
	pop	rbp
	ret
.LBB0_184:
.Ltmp107:
	mov	rdi, rax
	call	__cxa_call_unexpected
.LBB0_164:
.Ltmp59:
	mov	rbx, rax
.Ltmp60:
	lea	rdi, [rsp + 8]
	call	_ZNSt7__cxx1112basic_stringIcSt11char_traitsIcESaIcEE10_M_disposeEv
.Ltmp61:
	jmp	.LBB0_168
.LBB0_165:
.Ltmp62:
	mov	rdi, rax
	call	__cxa_call_unexpected
.LBB0_166:
.Ltmp56:
	jmp	.LBB0_167
.LBB0_183:
.Ltmp53:
	mov	rdi, rax
	call	__cxa_call_unexpected
.LBB0_161:
.Ltmp47:
	mov	rbx, rax
.Ltmp48:
	lea	rdi, [rsp + 8]
	call	_ZNSt7__cxx1112basic_stringIcSt11char_traitsIcESaIcEE10_M_disposeEv
.Ltmp49:
	jmp	.LBB0_168
.LBB0_162:
.Ltmp50:
	mov	rdi, rax
	call	__cxa_call_unexpected
.LBB0_163:
.Ltmp44:
.LBB0_167:
	mov	rbx, rax
.LBB0_168:
.Ltmp63:
	mov	rdi, r14
	call	_ZNSt7__cxx1112basic_stringIcSt11char_traitsIcESaIcEE10_M_disposeEv
.Ltmp64:

.Ltmp66:
	mov	rdi, r12
	call	_ZNSt7__cxx1112basic_stringIcSt11char_traitsIcESaIcEE10_M_disposeEv
.Ltmp67:

.Ltmp69:
	mov	rdi, qword ptr [rsp + 64] 
	call	_ZNSt7__cxx1112basic_stringIcSt11char_traitsIcESaIcEE10_M_disposeEv
.Ltmp70:

.Ltmp72:
	mov	rdi, qword ptr [rsp + 72] 
	call	_ZNSt7__cxx1112basic_stringIcSt11char_traitsIcESaIcEE10_M_disposeEv
.Ltmp73:

.Ltmp75:
	mov	rdi, qword ptr [rsp + 80] 
	call	_ZNSt7__cxx1112basic_stringIcSt11char_traitsIcESaIcEE10_M_disposeEv
.Ltmp76:

.Ltmp78:
	mov	rdi, qword ptr [rsp + 88] 
	call	_ZNSt7__cxx1112basic_stringIcSt11char_traitsIcESaIcEE10_M_disposeEv
.Ltmp79:

.Ltmp81:
	mov	rdi, qword ptr [rsp + 96] 
	call	_ZNSt7__cxx1112basic_stringIcSt11char_traitsIcESaIcEE10_M_disposeEv
.Ltmp82:

.Ltmp84:
	mov	rdi, qword ptr [rsp + 40] 
	call	_ZNSt7__cxx1112basic_stringIcSt11char_traitsIcESaIcEE10_M_disposeEv
.Ltmp85:

.Ltmp87:
	mov	rdi, qword ptr [rsp + 104] 
	call	_ZNSt7__cxx1112basic_stringIcSt11char_traitsIcESaIcEE10_M_disposeEv
.Ltmp88:

.Ltmp90:
	mov	rdi, qword ptr [rsp + 112] 
	call	_ZNSt7__cxx1112basic_stringIcSt11char_traitsIcESaIcEE10_M_disposeEv
.Ltmp91:

.Ltmp93:
	mov	rdi, qword ptr [rsp + 120] 
	call	_ZNSt7__cxx1112basic_stringIcSt11char_traitsIcESaIcEE10_M_disposeEv
.Ltmp94:

.Ltmp96:
	mov	rdi, qword ptr [rsp + 128] 
	call	_ZNSt7__cxx1112basic_stringIcSt11char_traitsIcESaIcEE10_M_disposeEv
.Ltmp97:

.Ltmp99:
	mov	rdi, qword ptr [rsp + 56] 
	call	_ZNSt7__cxx1112basic_stringIcSt11char_traitsIcESaIcEE10_M_disposeEv
.Ltmp100:

.Ltmp102:
	mov	rdi, qword ptr [rsp + 48] 
	call	_ZNSt7__cxx1112basic_stringIcSt11char_traitsIcESaIcEE10_M_disposeEv
.Ltmp103:

	mov	rdi, rbx
	call	_Unwind_Resume
.LBB0_198:
.Ltmp104:
	mov	rdi, rax
	call	__cxa_call_unexpected
.LBB0_197:
.Ltmp101:
	mov	rdi, rax
	call	__cxa_call_unexpected
.LBB0_196:
.Ltmp98:
	mov	rdi, rax
	call	__cxa_call_unexpected
.LBB0_195:
.Ltmp95:
	mov	rdi, rax
	call	__cxa_call_unexpected
.LBB0_194:
.Ltmp92:
	mov	rdi, rax
	call	__cxa_call_unexpected
.LBB0_193:
.Ltmp89:
	mov	rdi, rax
	call	__cxa_call_unexpected
.LBB0_192:
.Ltmp86:
	mov	rdi, rax
	call	__cxa_call_unexpected
.LBB0_191:
.Ltmp83:
	mov	rdi, rax
	call	__cxa_call_unexpected
.LBB0_190:
.Ltmp80:
	mov	rdi, rax
	call	__cxa_call_unexpected
.LBB0_189:
.Ltmp77:
	mov	rdi, rax
	call	__cxa_call_unexpected
.LBB0_188:
.Ltmp74:
	mov	rdi, rax
	call	__cxa_call_unexpected
.LBB0_187:
.Ltmp71:
	mov	rdi, rax
	call	__cxa_call_unexpected
.LBB0_186:
.Ltmp68:
	mov	rdi, rax
	call	__cxa_call_unexpected
.LBB0_185:
.Ltmp65:
	mov	rdi, rax
	call	__cxa_call_unexpected
.LBB0_152:
.Ltmp41:
	mov	rdi, rax
	call	__clang_call_terminate
.LBB0_141:
.Ltmp38:
	mov	rdi, rax
	call	__clang_call_terminate
.LBB0_130:
.Ltmp35:
	mov	rdi, rax
	call	__clang_call_terminate
.LBB0_119:
.Ltmp32:
	mov	rdi, rax
	call	__clang_call_terminate
.LBB0_108:
.Ltmp29:
	mov	rdi, rax
	call	__clang_call_terminate
.LBB0_97:
.Ltmp26:
	mov	rdi, rax
	call	__clang_call_terminate
.LBB0_86:
.Ltmp23:
	mov	rdi, rax
	call	__clang_call_terminate
.LBB0_75:
.Ltmp20:
	mov	rdi, rax
	call	__clang_call_terminate
.LBB0_64:
.Ltmp17:
	mov	rdi, rax
	call	__clang_call_terminate
.LBB0_53:
.Ltmp14:
	mov	rdi, rax
	call	__clang_call_terminate
.LBB0_42:
.Ltmp11:
	mov	rdi, rax
	call	__clang_call_terminate
.LBB0_31:
.Ltmp8:
	mov	rdi, rax
	call	__clang_call_terminate
.LBB0_20:
.Ltmp5:
	mov	rdi, rax
	call	__clang_call_terminate
.LBB0_9:
.Ltmp2:
	mov	rdi, rax
	call	__clang_call_terminate
.Lfunc_end0:
	.size	_ZN3DESC2ENSt7__cxx1112basic_stringIcSt11char_traitsIcESaIcEEES5_, .Lfunc_end0-_ZN3DESC2ENSt7__cxx1112basic_stringIcSt11char_traitsIcESaIcEEES5_
	.cfi_endproc
	.section	.gcc_except_table,"a",@progbits
	.p2align	2
GCC_except_table0:
.Lexception0:
	.byte	255                     
	.byte	3                       
	.asciz	"\223\204"              
	.byte	3                       
	.ascii	"\210\004"              
	.long	.Ltmp0-.Lfunc_begin0    
	.long	.Ltmp1-.Ltmp0           
	.long	.Ltmp2-.Lfunc_begin0    
	.byte	3                       
	.long	.Ltmp3-.Lfunc_begin0    
	.long	.Ltmp4-.Ltmp3           
	.long	.Ltmp5-.Lfunc_begin0    
	.byte	3                       
	.long	.Ltmp6-.Lfunc_begin0    
	.long	.Ltmp7-.Ltmp6           
	.long	.Ltmp8-.Lfunc_begin0    
	.byte	3                       
	.long	.Ltmp9-.Lfunc_begin0    
	.long	.Ltmp10-.Ltmp9          
	.long	.Ltmp11-.Lfunc_begin0   
	.byte	3                       
	.long	.Ltmp12-.Lfunc_begin0   
	.long	.Ltmp13-.Ltmp12         
	.long	.Ltmp14-.Lfunc_begin0   
	.byte	3                       
	.long	.Ltmp15-.Lfunc_begin0   
	.long	.Ltmp16-.Ltmp15         
	.long	.Ltmp17-.Lfunc_begin0   
	.byte	3                       
	.long	.Ltmp18-.Lfunc_begin0   
	.long	.Ltmp19-.Ltmp18         
	.long	.Ltmp20-.Lfunc_begin0   
	.byte	3                       
	.long	.Ltmp21-.Lfunc_begin0   
	.long	.Ltmp22-.Ltmp21         
	.long	.Ltmp23-.Lfunc_begin0   
	.byte	3                       
	.long	.Ltmp24-.Lfunc_begin0   
	.long	.Ltmp25-.Ltmp24         
	.long	.Ltmp26-.Lfunc_begin0   
	.byte	3                       
	.long	.Ltmp27-.Lfunc_begin0   
	.long	.Ltmp28-.Ltmp27         
	.long	.Ltmp29-.Lfunc_begin0   
	.byte	3                       
	.long	.Ltmp30-.Lfunc_begin0   
	.long	.Ltmp31-.Ltmp30         
	.long	.Ltmp32-.Lfunc_begin0   
	.byte	3                       
	.long	.Ltmp33-.Lfunc_begin0   
	.long	.Ltmp34-.Ltmp33         
	.long	.Ltmp35-.Lfunc_begin0   
	.byte	3                       
	.long	.Ltmp36-.Lfunc_begin0   
	.long	.Ltmp37-.Ltmp36         
	.long	.Ltmp38-.Lfunc_begin0   
	.byte	3                       
	.long	.Ltmp39-.Lfunc_begin0   
	.long	.Ltmp40-.Ltmp39         
	.long	.Ltmp41-.Lfunc_begin0   
	.byte	3                       
	.long	.Ltmp42-.Lfunc_begin0   
	.long	.Ltmp43-.Ltmp42         
	.long	.Ltmp44-.Lfunc_begin0   
	.byte	0                       
	.long	.Ltmp45-.Lfunc_begin0   
	.long	.Ltmp46-.Ltmp45         
	.long	.Ltmp47-.Lfunc_begin0   
	.byte	0                       
	.long	.Ltmp51-.Lfunc_begin0   
	.long	.Ltmp52-.Ltmp51         
	.long	.Ltmp53-.Lfunc_begin0   
	.byte	1                       
	.long	.Ltmp54-.Lfunc_begin0   
	.long	.Ltmp55-.Ltmp54         
	.long	.Ltmp56-.Lfunc_begin0   
	.byte	0                       
	.long	.Ltmp57-.Lfunc_begin0   
	.long	.Ltmp58-.Ltmp57         
	.long	.Ltmp59-.Lfunc_begin0   
	.byte	0                       
	.long	.Ltmp105-.Lfunc_begin0  
	.long	.Ltmp106-.Ltmp105       
	.long	.Ltmp107-.Lfunc_begin0  
	.byte	1                       
	.long	.Ltmp106-.Lfunc_begin0  
	.long	.Ltmp60-.Ltmp106        
	.long	0                       
	.byte	0                       
	.long	.Ltmp60-.Lfunc_begin0   
	.long	.Ltmp61-.Ltmp60         
	.long	.Ltmp62-.Lfunc_begin0   
	.byte	1                       
	.long	.Ltmp61-.Lfunc_begin0   
	.long	.Ltmp48-.Ltmp61         
	.long	0                       
	.byte	0                       
	.long	.Ltmp48-.Lfunc_begin0   
	.long	.Ltmp49-.Ltmp48         
	.long	.Ltmp50-.Lfunc_begin0   
	.byte	1                       
	.long	.Ltmp49-.Lfunc_begin0   
	.long	.Ltmp63-.Ltmp49         
	.long	0                       
	.byte	0                       
	.long	.Ltmp63-.Lfunc_begin0   
	.long	.Ltmp64-.Ltmp63         
	.long	.Ltmp65-.Lfunc_begin0   
	.byte	1                       
	.long	.Ltmp66-.Lfunc_begin0   
	.long	.Ltmp67-.Ltmp66         
	.long	.Ltmp68-.Lfunc_begin0   
	.byte	1                       
	.long	.Ltmp69-.Lfunc_begin0   
	.long	.Ltmp70-.Ltmp69         
	.long	.Ltmp71-.Lfunc_begin0   
	.byte	1                       
	.long	.Ltmp72-.Lfunc_begin0   
	.long	.Ltmp73-.Ltmp72         
	.long	.Ltmp74-.Lfunc_begin0   
	.byte	1                       
	.long	.Ltmp75-.Lfunc_begin0   
	.long	.Ltmp76-.Ltmp75         
	.long	.Ltmp77-.Lfunc_begin0   
	.byte	1                       
	.long	.Ltmp78-.Lfunc_begin0   
	.long	.Ltmp79-.Ltmp78         
	.long	.Ltmp80-.Lfunc_begin0   
	.byte	1                       
	.long	.Ltmp81-.Lfunc_begin0   
	.long	.Ltmp82-.Ltmp81         
	.long	.Ltmp83-.Lfunc_begin0   
	.byte	1                       
	.long	.Ltmp84-.Lfunc_begin0   
	.long	.Ltmp85-.Ltmp84         
	.long	.Ltmp86-.Lfunc_begin0   
	.byte	1                       
	.long	.Ltmp87-.Lfunc_begin0   
	.long	.Ltmp88-.Ltmp87         
	.long	.Ltmp89-.Lfunc_begin0   
	.byte	1                       
	.long	.Ltmp90-.Lfunc_begin0   
	.long	.Ltmp91-.Ltmp90         
	.long	.Ltmp92-.Lfunc_begin0   
	.byte	1                       
	.long	.Ltmp93-.Lfunc_begin0   
	.long	.Ltmp94-.Ltmp93         
	.long	.Ltmp95-.Lfunc_begin0   
	.byte	1                       
	.long	.Ltmp96-.Lfunc_begin0   
	.long	.Ltmp97-.Ltmp96         
	.long	.Ltmp98-.Lfunc_begin0   
	.byte	1                       
	.long	.Ltmp99-.Lfunc_begin0   
	.long	.Ltmp100-.Ltmp99        
	.long	.Ltmp101-.Lfunc_begin0  
	.byte	1                       
	.long	.Ltmp102-.Lfunc_begin0  
	.long	.Ltmp103-.Ltmp102       
	.long	.Ltmp104-.Lfunc_begin0  
	.byte	1                       
	.long	.Ltmp103-.Lfunc_begin0  
	.long	.Lfunc_end0-.Ltmp103    
	.long	0                       
	.byte	0                       
	.byte	127                     

	.byte	0                       
	.byte	1                       

	.byte	0                       

	.long	0                       

	.byte	0
	.p2align	2

	.text
	.globl	_ZN3DES7hex2binERKNSt7__cxx1112basic_stringIcSt11char_traitsIcESaIcEEE 
	.p2align	4, 0x90
	.type	_ZN3DES7hex2binERKNSt7__cxx1112basic_stringIcSt11char_traitsIcESaIcEEE,@function
_ZN3DES7hex2binERKNSt7__cxx1112basic_stringIcSt11char_traitsIcESaIcEEE: 
.Lfunc_begin1:
	.cfi_startproc
	.cfi_personality 3, __gxx_personality_v0
	.cfi_lsda 3, .Lexception1

	push	rbp
.Lcfi13:
	.cfi_def_cfa_offset 16
	push	r15
.Lcfi14:
	.cfi_def_cfa_offset 24
	push	r14
.Lcfi15:
	.cfi_def_cfa_offset 32
	push	r13
.Lcfi16:
	.cfi_def_cfa_offset 40
	push	r12
.Lcfi17:
	.cfi_def_cfa_offset 48
	push	rbx
.Lcfi18:
	.cfi_def_cfa_offset 56
	sub	rsp, 40
.Lcfi19:
	.cfi_def_cfa_offset 96
.Lcfi20:
	.cfi_offset rbx, -56
.Lcfi21:
	.cfi_offset r12, -48
.Lcfi22:
	.cfi_offset r13, -40
.Lcfi23:
	.cfi_offset r14, -32
.Lcfi24:
	.cfi_offset r15, -24
.Lcfi25:
	.cfi_offset rbp, -16
	mov	r15, rsi
	mov	rbp, rdi
	lea	rdi, [rbp + 16]
	call	_ZSt9addressofIcEPT_RS0_
	mov	ecx, dword ptr [rip + x.350]
	mov	edx, dword ptr [rip + y.351]
	mov	esi, ecx
	neg	esi
	not	esi
	imul	esi, ecx
	mov	ecx, esi
	xor	ecx, -2
	and	ecx, esi
	sete	bl
	sete	byte ptr [rsp + 24]
	test	ecx, ecx
	mov	esi, -1202865644
	mov	edi, 889828727
	mov	ecx, 889828727
	cmove	ecx, esi
	cmp	edx, 10
	setl	dl
	setl	byte ptr [rsp + 16]
	cmovge	ecx, edi
	xor	dl, bl
	cmovne	ecx, esi
	mov	esi, 826350111
	mov	edi, 185829745
	mov	qword ptr [rsp + 32], rbp 
	jmp	.LBB1_1
.LBB1_8:                                
	mov	esi, 185829745
	.p2align	4, 0x90
.LBB1_1:                                
	cmp	esi, 826350110
	jg	.LBB1_5

	cmp	esi, -1202865644
	je	.LBB1_10

	cmp	esi, 185829745
	jne	.LBB1_1

	mov	esi, ecx
	jmp	.LBB1_1
	.p2align	4, 0x90
.LBB1_5:                                
	cmp	esi, 889828727
	je	.LBB1_8

	cmp	esi, 826350111
	jne	.LBB1_1

	movzx	r8d, byte ptr [rsp + 24]
	movzx	edx, byte ptr [rsp + 16]
	mov	ebx, r8d
	xor	bl, dl
	mov	ebp, 889828727
	cmovne	ebp, edi
	test	dl, dl
	mov	esi, ebp
	cmovne	esi, edi
	test	r8b, r8b
	cmove	esi, ebp
	mov	rbp, qword ptr [rsp + 32] 
	jmp	.LBB1_1
.LBB1_10:
	mov	qword ptr [rbp], rax
.Ltmp108:
	xor	esi, esi
	mov	rdi, rbp
	call	_ZNSt7__cxx1112basic_stringIcSt11char_traitsIcESaIcEE13_M_set_lengthEm
.Ltmp109:

	mov	eax, dword ptr [rip + x.84]
	mov	edx, dword ptr [rip + y.85]
	lea	esi, [rax - 1]
	imul	esi, eax
	not	esi
	or	esi, -2
	cmp	esi, -1
	sete	al
	cmp	edx, 10
	setl	cl
	xor	cl, al
	mov	ebp, 2056606463
	mov	eax, -1559444858
	cmovne	eax, ebp
	cmp	esi, -1
	sete	byte ptr [rsp + 14]
	cmovne	ebp, eax
	cmp	edx, 10
	setl	byte ptr [rsp + 15]
	cmovge	ebp, eax
	mov	rdi, qword ptr [r15]
	mov	esi, -2098656802
	mov	eax, 306072885
	jmp	.LBB1_12
.LBB1_24:                               
	movzx	ecx, byte ptr [rsp + 14]
	movzx	edx, byte ptr [rsp + 15]
	mov	ebx, ecx
	xor	bl, dl
	mov	ebx, -1559444858
	cmovne	ebx, eax
	test	dl, dl
	mov	esi, ebx
	cmovne	esi, eax
	test	cl, cl
	cmove	esi, ebx
	.p2align	4, 0x90
.LBB1_12:                               
	cmp	esi, 306072884
	jle	.LBB1_13

	cmp	esi, 306072885
	je	.LBB1_25

	cmp	esi, 2056606463
	jne	.LBB1_12
	jmp	.LBB1_18
	.p2align	4, 0x90
.LBB1_13:                               
	cmp	esi, -2098656802
	je	.LBB1_24

	cmp	esi, -1559444858
	jne	.LBB1_12

	mov	esi, 306072885
	jmp	.LBB1_12
.LBB1_25:                               
	mov	qword ptr [rsp + 16], rdi
	mov	esi, ebp
	jmp	.LBB1_12
.LBB1_18:
	mov	rcx, qword ptr [rsp + 16]
	mov	r13d, -334892812
	mov	r12d, 890861893
	mov	r14d, -845894381
	mov	rbp, qword ptr [rsp + 32] 
	jmp	.LBB1_19
	.p2align	4, 0x90
.LBB1_102:                              
	mov	rcx, qword ptr [rsp + 24]
	inc	rcx
	mov	rdi, qword ptr [r15]
.LBB1_19:                               




	mov	qword ptr [rsp + 24], rcx
	mov	ecx, dword ptr [rip + x.88]
	mov	edx, dword ptr [rip + y.89]
	lea	esi, [rcx - 1]
	imul	esi, ecx
	not	esi
	or	esi, -2
	cmp	esi, -1
	sete	byte ptr [rsp + 14]
	sete	bl
	mov	ecx, -334892812
	mov	eax, -2124313413
	cmove	ecx, eax
	cmp	edx, 10
	setl	dl
	setl	byte ptr [rsp + 15]
	cmovge	ecx, r13d
	xor	dl, bl
	cmovne	ecx, eax
	add	rdi, qword ptr [r15 + 8]
	mov	edx, 1258716355
	jmp	.LBB1_20
.LBB1_29:                               
	mov	edx, -845894381
	.p2align	4, 0x90
.LBB1_20:                               

	cmp	edx, -334892813
	jg	.LBB1_26

	cmp	edx, -2124313413
	je	.LBB1_30

	cmp	edx, -845894381
	jne	.LBB1_20

	mov	qword ptr [rsp + 16], rdi
	mov	edx, ecx
	jmp	.LBB1_20
	.p2align	4, 0x90
.LBB1_26:                               
	cmp	edx, -334892812
	je	.LBB1_29

	cmp	edx, 1258716355
	jne	.LBB1_20

	movzx	eax, byte ptr [rsp + 14]
	movzx	edx, byte ptr [rsp + 15]
	mov	ebx, eax
	xor	bl, dl
	test	dl, dl
	mov	edx, -334892812
	cmovne	edx, r14d
	test	al, al
	cmove	edx, r13d
	test	bl, bl
	cmovne	edx, r14d
	jmp	.LBB1_20
	.p2align	4, 0x90
.LBB1_30:                               
	mov	rax, qword ptr [rsp + 16]
	mov	qword ptr [rsp + 16], rax
	lea	rdi, [rsp + 24]
	lea	rsi, [rsp + 16]
	call	_ZN9__gnu_cxxltIPKcNSt7__cxx1112basic_stringIcSt11char_traitsIcESaIcEEEEEbRKNS_17__normal_iteratorIT_T0_EESE_
	test	al, al
	je	.LBB1_103

	mov	eax, dword ptr [rip + x.90]
	mov	ecx, dword ptr [rip + y.91]
	lea	edx, [rax - 1]
	imul	edx, eax
	not	edx
	or	edx, -2
	cmp	edx, -1
	sete	byte ptr [rsp + 14]
	sete	dl
	mov	eax, -470363259
	mov	esi, -338361297
	cmove	eax, esi
	cmp	ecx, 10
	setl	cl
	setl	byte ptr [rsp + 15]
	mov	edi, -470363259
	cmovge	eax, edi
	xor	cl, dl
	cmovne	eax, esi
	mov	edx, -334273138
	mov	rsi, qword ptr [rsp + 24]
	jmp	.LBB1_32
.LBB1_44:                               
	mov	qword ptr [rsp + 16], rsi
	mov	edx, eax
	.p2align	4, 0x90
.LBB1_32:                               

	cmp	edx, -334273139
	jg	.LBB1_41

	cmp	edx, -470363259
	je	.LBB1_45

	cmp	edx, -338361297
	jne	.LBB1_32
	jmp	.LBB1_35
	.p2align	4, 0x90
.LBB1_41:                               
	cmp	edx, 890861893
	je	.LBB1_44

	cmp	edx, -334273138
	jne	.LBB1_32

	movzx	ecx, byte ptr [rsp + 14]
	movzx	edx, byte ptr [rsp + 15]
	mov	ebx, ecx
	xor	bl, dl
	mov	edi, -470363259
	cmovne	edi, r12d
	test	dl, dl
	mov	edx, edi
	cmovne	edx, r12d
	test	cl, cl
	cmove	edx, edi
	jmp	.LBB1_32
.LBB1_45:                               
	mov	edx, 890861893
	jmp	.LBB1_32
	.p2align	4, 0x90
.LBB1_35:                               
	mov	rax, qword ptr [rsp + 16]
	mov	al, byte ptr [rax]
	cmp	al, 56
	jge	.LBB1_36

	cmp	al, 52
	jge	.LBB1_53

	cmp	al, 50
	jge	.LBB1_57

	cmp	al, 48
	je	.LBB1_70

	cmp	al, 49
	jne	.LBB1_61

.Ltmp141:
	mov	esi, .L.str.22
	mov	rdi, rbp
	call	_ZNSt7__cxx1112basic_stringIcSt11char_traitsIcESaIcEE6appendEPKc
.Ltmp142:
	jmp	.LBB1_102
	.p2align	4, 0x90
.LBB1_36:                               
	cmp	al, 67
	jge	.LBB1_37

	cmp	al, 65
	jge	.LBB1_47

	cmp	al, 57
	jge	.LBB1_50

.Ltmp125:
	mov	esi, .L.str.29
	mov	rdi, rbp
	call	_ZNSt7__cxx1112basic_stringIcSt11char_traitsIcESaIcEE6appendEPKc
.Ltmp126:
	jmp	.LBB1_102
	.p2align	4, 0x90
.LBB1_53:                               
	cmp	al, 54
	jge	.LBB1_54

	cmp	al, 53
	jne	.LBB1_77

.Ltmp133:
	mov	esi, .L.str.26
	mov	rdi, rbp
	call	_ZNSt7__cxx1112basic_stringIcSt11char_traitsIcESaIcEE6appendEPKc
.Ltmp134:
	jmp	.LBB1_102
	.p2align	4, 0x90
.LBB1_37:                               
	cmp	al, 69
	jge	.LBB1_38

	cmp	al, 68
	jne	.LBB1_83

.Ltmp117:
	mov	esi, .L.str.34
	mov	rdi, rbp
	call	_ZNSt7__cxx1112basic_stringIcSt11char_traitsIcESaIcEE6appendEPKc
.Ltmp118:
	jmp	.LBB1_102
.LBB1_57:                               
	jne	.LBB1_76

.Ltmp137:
	mov	esi, .L.str.23
	mov	rdi, rbp
	call	_ZNSt7__cxx1112basic_stringIcSt11char_traitsIcESaIcEE6appendEPKc
.Ltmp138:
	jmp	.LBB1_102
.LBB1_47:                               
	jne	.LBB1_82

.Ltmp121:
	mov	esi, .L.str.31
	mov	rdi, rbp
	call	_ZNSt7__cxx1112basic_stringIcSt11char_traitsIcESaIcEE6appendEPKc
.Ltmp122:
	jmp	.LBB1_102
.LBB1_54:                               
	jne	.LBB1_80

.Ltmp129:
	mov	esi, .L.str.27
	mov	rdi, rbp
	call	_ZNSt7__cxx1112basic_stringIcSt11char_traitsIcESaIcEE6appendEPKc
.Ltmp130:
	jmp	.LBB1_102
.LBB1_38:                               
	je	.LBB1_86

	cmp	al, 70
	jne	.LBB1_61

.Ltmp111:
	mov	esi, .L.str.36
	mov	rdi, rbp
	call	_ZNSt7__cxx1112basic_stringIcSt11char_traitsIcESaIcEE6appendEPKc
.Ltmp112:
	jmp	.LBB1_102
.LBB1_50:                               
	jne	.LBB1_61

.Ltmp123:
	mov	esi, .L.str.30
	mov	rdi, rbp
	call	_ZNSt7__cxx1112basic_stringIcSt11char_traitsIcESaIcEE6appendEPKc
.Ltmp124:
	jmp	.LBB1_102
.LBB1_61:                               
	mov	eax, -1233430019
	jmp	.LBB1_62
.LBB1_87:                               
	mov	eax, 94138218
	.p2align	4, 0x90
.LBB1_62:                               

	cmp	eax, -1233430019
	je	.LBB1_88

	cmp	eax, -201862501
	je	.LBB1_87

	cmp	eax, 94138218
	jne	.LBB1_62
	jmp	.LBB1_65
.LBB1_88:                               
	mov	eax, -201862501
	jmp	.LBB1_62
.LBB1_65:                               
.Ltmp143:
	mov	edi, _ZSt4cout
	mov	esi, .L.str.37
	mov	edx, 46
	call	_ZSt16__ostream_insertIcSt11char_traitsIcEERSt13basic_ostreamIT_T0_ES6_PKS3_l
.Ltmp144:

	mov	rax, qword ptr [rip + _ZSt4cout]
	mov	rax, qword ptr [rax - 24]
	mov	rdi, qword ptr [rax + _ZSt4cout+240]
	test	rdi, rdi
	mov	ebp, 1813004520
	mov	eax, 1786465100
	cmove	ebp, eax
	mov	ecx, dword ptr [rip + x.452]
	mov	edx, dword ptr [rip + y.453]
	lea	esi, [rcx - 1]
	imul	esi, ecx
	mov	ecx, esi
	xor	ecx, -2
	and	ecx, esi
	setne	bl
	test	ecx, ecx
	sete	cl
	cmp	edx, 9
	setg	al
	cmp	edx, 10
	setl	dl
	xor	dl, cl
	or	al, bl
	xor	al, 1
	or	al, dl
	mov	ecx, 2114061247
	mov	eax, -1253769672
	cmovne	ecx, eax
	mov	edx, 2114061247
	mov	eax, 1527002529
	cmovne	edx, eax
	mov	esi, -347016779
	jmp	.LBB1_67
.LBB1_92:                               
	mov	esi, ecx
	.p2align	4, 0x90
.LBB1_67:                               

	cmp	esi, 1786465099
	jg	.LBB1_91

	cmp	esi, -1253769672
	je	.LBB1_69

	cmp	esi, -347016779
	je	.LBB1_90

	cmp	esi, 1527002529
	je	.LBB1_99
	jmp	.LBB1_67
	.p2align	4, 0x90
.LBB1_91:                               
	cmp	esi, 1813004520
	je	.LBB1_92

	cmp	esi, 2114061247
	jne	.LBB1_94

	mov	esi, -1253769672
	jmp	.LBB1_67
.LBB1_69:                               
	mov	esi, edx
	jmp	.LBB1_67
.LBB1_90:                               
	mov	esi, ebp
	jmp	.LBB1_67
.LBB1_94:                               
	cmp	esi, 1786465100
	jne	.LBB1_67
	jmp	.LBB1_95
.LBB1_99:                               
.Ltmp145:
	mov	esi, 10
	mov	rbp, qword ptr [rsp + 32] 
	call	_ZNKSt5ctypeIcE5widenEc
.Ltmp146:

.Ltmp147:
	movsx	esi, al
	mov	edi, _ZSt4cout
	call	_ZNSo3putEc
.Ltmp148:

.Ltmp149:
	mov	rdi, rax
	call	_ZNSo5flushEv
.Ltmp150:
	jmp	.LBB1_102
.LBB1_77:                               
.Ltmp131:
	mov	esi, .L.str.25
	mov	rdi, rbp
	call	_ZNSt7__cxx1112basic_stringIcSt11char_traitsIcESaIcEE6appendEPKc
.Ltmp132:
	jmp	.LBB1_102
.LBB1_83:                               
.Ltmp115:
	mov	esi, .L.str.33
	mov	rdi, rbp
	call	_ZNSt7__cxx1112basic_stringIcSt11char_traitsIcESaIcEE6appendEPKc
.Ltmp116:
	jmp	.LBB1_102
.LBB1_76:                               
.Ltmp135:
	mov	esi, .L.str.24
	mov	rdi, rbp
	call	_ZNSt7__cxx1112basic_stringIcSt11char_traitsIcESaIcEE6appendEPKc
.Ltmp136:
	jmp	.LBB1_102
.LBB1_82:                               
.Ltmp119:
	mov	esi, .L.str.32
	mov	rdi, rbp
	call	_ZNSt7__cxx1112basic_stringIcSt11char_traitsIcESaIcEE6appendEPKc
.Ltmp120:
	jmp	.LBB1_102
.LBB1_80:                               
.Ltmp127:
	mov	esi, .L.str.28
	mov	rdi, rbp
	call	_ZNSt7__cxx1112basic_stringIcSt11char_traitsIcESaIcEE6appendEPKc
.Ltmp128:
	jmp	.LBB1_102
.LBB1_70:                               
.Ltmp139:
	mov	esi, .L.str.21
	mov	rdi, rbp
	call	_ZNSt7__cxx1112basic_stringIcSt11char_traitsIcESaIcEE6appendEPKc
.Ltmp140:
	jmp	.LBB1_102
.LBB1_86:                               
.Ltmp113:
	mov	esi, .L.str.35
	mov	rdi, rbp
	call	_ZNSt7__cxx1112basic_stringIcSt11char_traitsIcESaIcEE6appendEPKc
.Ltmp114:
	jmp	.LBB1_102
.LBB1_103:
	mov	rax, rbp
	add	rsp, 40
	pop	rbx
	pop	r12
	pop	r13
	pop	r14
	pop	r15
	pop	rbp
	ret
.LBB1_95:
.Ltmp152:
	call	_ZSt16__throw_bad_castv
.Ltmp153:

.LBB1_72:
.Ltmp154:
	mov	rbx, rax
	mov	rbp, qword ptr [rsp + 32] 
	jmp	.LBB1_73
.LBB1_9:
.Ltmp110:
	mov	rdi, rax
	call	__clang_call_terminate
.LBB1_71:
.Ltmp151:
	mov	rbx, rax
.LBB1_73:
.Ltmp155:
	mov	rdi, rbp
	call	_ZNSt7__cxx1112basic_stringIcSt11char_traitsIcESaIcEE10_M_disposeEv
.Ltmp156:

	mov	rdi, rbx
	call	_Unwind_Resume
.LBB1_104:
.Ltmp157:
	mov	rdi, rax
	call	__cxa_call_unexpected
.Lfunc_end1:
	.size	_ZN3DES7hex2binERKNSt7__cxx1112basic_stringIcSt11char_traitsIcESaIcEEE, .Lfunc_end1-_ZN3DES7hex2binERKNSt7__cxx1112basic_stringIcSt11char_traitsIcESaIcEEE
	.cfi_endproc
	.section	.gcc_except_table,"a",@progbits
	.p2align	2
GCC_except_table1:
.Lexception1:
	.byte	255                     
	.byte	3                       
	.asciz	"\313\200"              
	.byte	3                       
	.byte	65                      
	.long	.Ltmp108-.Lfunc_begin1  
	.long	.Ltmp109-.Ltmp108       
	.long	.Ltmp110-.Lfunc_begin1  
	.byte	3                       
	.long	.Ltmp141-.Lfunc_begin1  
	.long	.Ltmp114-.Ltmp141       
	.long	.Ltmp151-.Lfunc_begin1  
	.byte	0                       
	.long	.Ltmp152-.Lfunc_begin1  
	.long	.Ltmp153-.Ltmp152       
	.long	.Ltmp154-.Lfunc_begin1  
	.byte	0                       
	.long	.Ltmp155-.Lfunc_begin1  
	.long	.Ltmp156-.Ltmp155       
	.long	.Ltmp157-.Lfunc_begin1  
	.byte	1                       
	.long	.Ltmp156-.Lfunc_begin1  
	.long	.Lfunc_end1-.Ltmp156    
	.long	0                       
	.byte	0                       
	.byte	127                     

	.byte	0                       
	.byte	1                       

	.byte	0                       

	.long	0                       

	.byte	0
	.p2align	2

	.text
	.globl	_ZN3DESD2Ev             
	.p2align	4, 0x90
	.type	_ZN3DESD2Ev,@function
_ZN3DESD2Ev:                            
.Lfunc_begin2:
	.cfi_startproc
	.cfi_personality 3, __gxx_personality_v0
	.cfi_lsda 3, .Lexception2

	push	rbx
	mov	rbx, rdi
	mov	qword ptr [rbx], _ZTV3DES+16
	lea	rdi, [rbx + 424]
.Ltmp158:
	call	_ZNSt7__cxx1112basic_stringIcSt11char_traitsIcESaIcEE10_M_disposeEv
.Ltmp159:

	lea	rdi, [rbx + 392]
.Ltmp161:
	call	_ZNSt7__cxx1112basic_stringIcSt11char_traitsIcESaIcEE10_M_disposeEv
.Ltmp162:

	lea	rdi, [rbx + 360]
.Ltmp164:
	call	_ZNSt7__cxx1112basic_stringIcSt11char_traitsIcESaIcEE10_M_disposeEv
.Ltmp165:

	lea	rdi, [rbx + 328]
.Ltmp167:
	call	_ZNSt7__cxx1112basic_stringIcSt11char_traitsIcESaIcEE10_M_disposeEv
.Ltmp168:

	lea	rdi, [rbx + 296]
.Ltmp170:
	call	_ZNSt7__cxx1112basic_stringIcSt11char_traitsIcESaIcEE10_M_disposeEv
.Ltmp171:

	lea	rdi, [rbx + 264]
.Ltmp173:
	call	_ZNSt7__cxx1112basic_stringIcSt11char_traitsIcESaIcEE10_M_disposeEv
.Ltmp174:

	lea	rdi, [rbx + 232]
.Ltmp176:
	call	_ZNSt7__cxx1112basic_stringIcSt11char_traitsIcESaIcEE10_M_disposeEv
.Ltmp177:

	lea	rdi, [rbx + 200]
.Ltmp179:
	call	_ZNSt7__cxx1112basic_stringIcSt11char_traitsIcESaIcEE10_M_disposeEv
.Ltmp180:

	lea	rdi, [rbx + 168]
.Ltmp182:
	call	_ZNSt7__cxx1112basic_stringIcSt11char_traitsIcESaIcEE10_M_disposeEv
.Ltmp183:

	lea	rdi, [rbx + 136]
.Ltmp185:
	call	_ZNSt7__cxx1112basic_stringIcSt11char_traitsIcESaIcEE10_M_disposeEv
.Ltmp186:

	lea	rdi, [rbx + 104]
.Ltmp188:
	call	_ZNSt7__cxx1112basic_stringIcSt11char_traitsIcESaIcEE10_M_disposeEv
.Ltmp189:

	lea	rdi, [rbx + 72]
.Ltmp191:
	call	_ZNSt7__cxx1112basic_stringIcSt11char_traitsIcESaIcEE10_M_disposeEv
.Ltmp192:

	lea	rdi, [rbx + 40]
.Ltmp194:
	call	_ZNSt7__cxx1112basic_stringIcSt11char_traitsIcESaIcEE10_M_disposeEv
.Ltmp195:

	add	rbx, 8
.Ltmp197:
	mov	rdi, rbx
	call	_ZNSt7__cxx1112basic_stringIcSt11char_traitsIcESaIcEE10_M_disposeEv
.Ltmp198:

	pop	rbx
	ret
.LBB2_28:
.Ltmp199:
	mov	rdi, rax
	call	__cxa_call_unexpected
.LBB2_27:
.Ltmp196:
	mov	rdi, rax
	call	__cxa_call_unexpected
.LBB2_26:
.Ltmp193:
	mov	rdi, rax
	call	__cxa_call_unexpected
.LBB2_25:
.Ltmp190:
	mov	rdi, rax
	call	__cxa_call_unexpected
.LBB2_24:
.Ltmp187:
	mov	rdi, rax
	call	__cxa_call_unexpected
.LBB2_23:
.Ltmp184:
	mov	rdi, rax
	call	__cxa_call_unexpected
.LBB2_22:
.Ltmp181:
	mov	rdi, rax
	call	__cxa_call_unexpected
.LBB2_21:
.Ltmp178:
	mov	rdi, rax
	call	__cxa_call_unexpected
.LBB2_20:
.Ltmp175:
	mov	rdi, rax
	call	__cxa_call_unexpected
.LBB2_19:
.Ltmp172:
	mov	rdi, rax
	call	__cxa_call_unexpected
.LBB2_18:
.Ltmp169:
	mov	rdi, rax
	call	__cxa_call_unexpected
.LBB2_17:
.Ltmp166:
	mov	rdi, rax
	call	__cxa_call_unexpected
.LBB2_16:
.Ltmp163:
	mov	rdi, rax
	call	__cxa_call_unexpected
.LBB2_15:
.Ltmp160:
	mov	rdi, rax
	call	__cxa_call_unexpected
.Lfunc_end2:
	.size	_ZN3DESD2Ev, .Lfunc_end2-_ZN3DESD2Ev
	.cfi_endproc
	.section	.gcc_except_table,"a",@progbits
	.p2align	2
GCC_except_table2:
.Lexception2:
	.byte	255                     
	.byte	3                       
	.ascii	"\310\001"              
	.byte	3                       
	.ascii	"\303\001"              
	.long	.Ltmp158-.Lfunc_begin2  
	.long	.Ltmp159-.Ltmp158       
	.long	.Ltmp160-.Lfunc_begin2  
	.byte	1                       
	.long	.Ltmp161-.Lfunc_begin2  
	.long	.Ltmp162-.Ltmp161       
	.long	.Ltmp163-.Lfunc_begin2  
	.byte	1                       
	.long	.Ltmp164-.Lfunc_begin2  
	.long	.Ltmp165-.Ltmp164       
	.long	.Ltmp166-.Lfunc_begin2  
	.byte	1                       
	.long	.Ltmp167-.Lfunc_begin2  
	.long	.Ltmp168-.Ltmp167       
	.long	.Ltmp169-.Lfunc_begin2  
	.byte	1                       
	.long	.Ltmp170-.Lfunc_begin2  
	.long	.Ltmp171-.Ltmp170       
	.long	.Ltmp172-.Lfunc_begin2  
	.byte	1                       
	.long	.Ltmp173-.Lfunc_begin2  
	.long	.Ltmp174-.Ltmp173       
	.long	.Ltmp175-.Lfunc_begin2  
	.byte	1                       
	.long	.Ltmp176-.Lfunc_begin2  
	.long	.Ltmp177-.Ltmp176       
	.long	.Ltmp178-.Lfunc_begin2  
	.byte	1                       
	.long	.Ltmp179-.Lfunc_begin2  
	.long	.Ltmp180-.Ltmp179       
	.long	.Ltmp181-.Lfunc_begin2  
	.byte	1                       
	.long	.Ltmp182-.Lfunc_begin2  
	.long	.Ltmp183-.Ltmp182       
	.long	.Ltmp184-.Lfunc_begin2  
	.byte	1                       
	.long	.Ltmp185-.Lfunc_begin2  
	.long	.Ltmp186-.Ltmp185       
	.long	.Ltmp187-.Lfunc_begin2  
	.byte	1                       
	.long	.Ltmp188-.Lfunc_begin2  
	.long	.Ltmp189-.Ltmp188       
	.long	.Ltmp190-.Lfunc_begin2  
	.byte	1                       
	.long	.Ltmp191-.Lfunc_begin2  
	.long	.Ltmp192-.Ltmp191       
	.long	.Ltmp193-.Lfunc_begin2  
	.byte	1                       
	.long	.Ltmp194-.Lfunc_begin2  
	.long	.Ltmp195-.Ltmp194       
	.long	.Ltmp196-.Lfunc_begin2  
	.byte	1                       
	.long	.Ltmp197-.Lfunc_begin2  
	.long	.Ltmp198-.Ltmp197       
	.long	.Ltmp199-.Lfunc_begin2  
	.byte	1                       
	.long	.Ltmp198-.Lfunc_begin2  
	.long	.Lfunc_end2-.Ltmp198    
	.long	0                       
	.byte	0                       
	.byte	127                     

	.byte	0                       

	.byte	0
	.p2align	2

	.text
	.globl	_ZN3DESD0Ev             
	.p2align	4, 0x90
	.type	_ZN3DESD0Ev,@function
_ZN3DESD0Ev:                            

	push	rbx
	mov	rbx, rdi
	call	_ZN3DESD2Ev
	mov	rdi, rbx
	pop	rbx
	jmp	_ZdlPv                  
.Lfunc_end3:
	.size	_ZN3DESD0Ev, .Lfunc_end3-_ZN3DESD0Ev

	.globl	_ZN3DES5xor48ERKNSt7__cxx1112basic_stringIcSt11char_traitsIcESaIcEEES7_ 
	.p2align	4, 0x90
	.type	_ZN3DES5xor48ERKNSt7__cxx1112basic_stringIcSt11char_traitsIcESaIcEEES7_,@function
_ZN3DES5xor48ERKNSt7__cxx1112basic_stringIcSt11char_traitsIcESaIcEEES7_: 
.Lfunc_begin3:
	.cfi_startproc
	.cfi_personality 3, __gxx_personality_v0
	.cfi_lsda 3, .Lexception3

	push	rbp
.Lcfi26:
	.cfi_def_cfa_offset 16
	push	r15
.Lcfi27:
	.cfi_def_cfa_offset 24
	push	r14
.Lcfi28:
	.cfi_def_cfa_offset 32
	push	r13
.Lcfi29:
	.cfi_def_cfa_offset 40
	push	r12
.Lcfi30:
	.cfi_def_cfa_offset 48
	push	rbx
.Lcfi31:
	.cfi_def_cfa_offset 56
	sub	rsp, 72
.Lcfi32:
	.cfi_def_cfa_offset 128
.Lcfi33:
	.cfi_offset rbx, -56
.Lcfi34:
	.cfi_offset r12, -48
.Lcfi35:
	.cfi_offset r13, -40
.Lcfi36:
	.cfi_offset r14, -32
.Lcfi37:
	.cfi_offset r15, -24
.Lcfi38:
	.cfi_offset rbp, -16
	mov	rbx, rdx
	mov	r12, rdi
	mov	qword ptr [rsp + 32], 0
	mov	qword ptr [rsp + 24], 0
	mov	rax, qword ptr [rsi + 8]
	mov	qword ptr [rsp + 40], rax
	mov	eax, 422344164
	jmp	.LBB4_1
.LBB4_3:                                
	mov	rax, qword ptr [rsp + 40]
	mov	eax, 1522341936
	.p2align	4, 0x90
.LBB4_1:                                
	mov	ecx, eax
	and	ecx, 2147483647
	cmp	ecx, 1522341936
	je	.LBB4_4

	cmp	ecx, 422344164
	jne	.LBB4_1
	jmp	.LBB4_3
.LBB4_4:
	lea	rdi, [rsp + 24]
	xor	edx, edx
	mov	rcx, -1
	mov	r8d, 48
	mov	r9d, 49
	call	_ZNSt6bitsetILm48EE19_M_copy_from_stringIcSt11char_traitsIcESaIcEEEvRKNSt7__cxx1112basic_stringIT_T0_T1_EEmmS7_S7_
	mov	qword ptr [rsp + 16], 0
	mov	rax, qword ptr [rbx + 8]
	mov	qword ptr [rsp + 40], rax
	mov	eax, 422344164
	jmp	.LBB4_5
.LBB4_7:                                
	mov	rax, qword ptr [rsp + 40]
	mov	eax, 1522341936
	.p2align	4, 0x90
.LBB4_5:                                
	mov	ecx, eax
	and	ecx, 2147483647
	cmp	ecx, 1522341936
	je	.LBB4_8

	cmp	ecx, 422344164
	jne	.LBB4_5
	jmp	.LBB4_7
.LBB4_8:
	lea	rdi, [rsp + 16]
	xor	edx, edx
	mov	rcx, -1
	mov	r8d, 48
	mov	r9d, 49
	mov	rsi, rbx
	call	_ZNSt6bitsetILm48EE19_M_copy_from_stringIcSt11char_traitsIcESaIcEEEvRKNSt7__cxx1112basic_stringIT_T0_T1_EEmmS7_S7_
	mov	rax, qword ptr [rsp + 24]
	mov	rcx, qword ptr [rsp + 16]
	mov	rdx, rcx
	not	rdx
	and	rdx, rax
	not	rax
	and	rax, rcx
	or	rax, rdx
	mov	qword ptr [rsp + 32], rax
	mov	eax, dword ptr [rip + x.68]
	mov	ecx, dword ptr [rip + y.69]
	lea	edx, [rax - 1]
	imul	edx, eax
	mov	eax, edx
	xor	eax, -2
	test	eax, edx
	sete	byte ptr [rsp + 14]
	cmp	ecx, 10
	setl	byte ptr [rsp + 15]
	mov	eax, -1083827151
	mov	ebx, 1197382069
	mov	r13d, -859642600
	lea	r14, [rsp + 40]
	lea	r15, [rsp + 32]
	mov	ebp, -24943816
	jmp	.LBB4_9
.LBB4_19:                               
	movzx	ecx, byte ptr [rsp + 14]
	movzx	eax, byte ptr [rsp + 15]
	mov	edx, ecx
	xor	dl, al
	mov	edx, -859642600
	cmovne	edx, ebx
	test	al, al
	mov	eax, edx
	cmovne	eax, ebx
	test	cl, cl
	cmove	eax, edx
	.p2align	4, 0x90
.LBB4_9:                                
	cmp	eax, -24943817
	jg	.LBB4_13

	cmp	eax, -1083827151
	je	.LBB4_19

	cmp	eax, -859642600
	jne	.LBB4_9

	mov	rdi, r14
	mov	rsi, r15
	call	_ZNKSt6bitsetILm48EE9to_stringIcSt11char_traitsIcESaIcEEENSt7__cxx1112basic_stringIT_T0_T1_EEv
	mov	eax, 1197382069
	jmp	.LBB4_9
	.p2align	4, 0x90
.LBB4_13:                               
	cmp	eax, -24943816
	je	.LBB4_17

	cmp	eax, 1197382069
	jne	.LBB4_9

	mov	rdi, r14
	mov	rsi, r15
	call	_ZNKSt6bitsetILm48EE9to_stringIcSt11char_traitsIcESaIcEEENSt7__cxx1112basic_stringIT_T0_T1_EEv
	mov	eax, dword ptr [rip + x.68]
	lea	ecx, [rax - 1]
	imul	ecx, eax
	mov	eax, ecx
	xor	eax, -2
	and	eax, ecx
	sete	cl
	test	eax, eax
	mov	eax, -859642600
	cmove	eax, ebp
	cmp	dword ptr [rip + y.69], 10
	setl	dl
	cmovge	eax, r13d
	xor	dl, cl
	cmovne	eax, ebp
	jmp	.LBB4_9
.LBB4_17:
	add	r12, 296
	lea	rbx, [rsp + 40]
	mov	rdi, r12
	mov	rsi, rbx
	call	_ZNSt7__cxx1112basic_stringIcSt11char_traitsIcESaIcEEaSEOS4_
.Ltmp200:
	mov	rdi, rbx
	call	_ZNSt7__cxx1112basic_stringIcSt11char_traitsIcESaIcEE10_M_disposeEv
.Ltmp201:

	add	rsp, 72
	pop	rbx
	pop	r12
	pop	r13
	pop	r14
	pop	r15
	pop	rbp
	ret
.LBB4_16:
.Ltmp202:
	mov	rdi, rax
	call	__cxa_call_unexpected
.Lfunc_end4:
	.size	_ZN3DES5xor48ERKNSt7__cxx1112basic_stringIcSt11char_traitsIcESaIcEEES7_, .Lfunc_end4-_ZN3DES5xor48ERKNSt7__cxx1112basic_stringIcSt11char_traitsIcESaIcEEES7_
	.cfi_endproc
	.section	.gcc_except_table,"a",@progbits
	.p2align	2
GCC_except_table4:
.Lexception3:
	.byte	255                     
	.byte	3                       
	.asciz	"\253\200"              
	.byte	3                       
	.byte	39                      
	.long	.Lfunc_begin3-.Lfunc_begin3 
	.long	.Ltmp200-.Lfunc_begin3  
	.long	0                       
	.byte	0                       
	.long	.Ltmp200-.Lfunc_begin3  
	.long	.Ltmp201-.Ltmp200       
	.long	.Ltmp202-.Lfunc_begin3  
	.byte	1                       
	.long	.Ltmp201-.Lfunc_begin3  
	.long	.Lfunc_end4-.Ltmp201    
	.long	0                       
	.byte	0                       
	.byte	127                     

	.byte	0                       

	.byte	0
	.p2align	2

	.section	.text._ZNSt7__cxx1112basic_stringIcSt11char_traitsIcESaIcEEaSEOS4_,"axG",@progbits,_ZNSt7__cxx1112basic_stringIcSt11char_traitsIcESaIcEEaSEOS4_,comdat
	.weak	_ZNSt7__cxx1112basic_stringIcSt11char_traitsIcESaIcEEaSEOS4_ 
	.p2align	4, 0x90
	.type	_ZNSt7__cxx1112basic_stringIcSt11char_traitsIcESaIcEEaSEOS4_,@function
_ZNSt7__cxx1112basic_stringIcSt11char_traitsIcESaIcEEaSEOS4_: 
.Lfunc_begin4:
	.cfi_startproc
	.cfi_personality 3, __gxx_personality_v0
	.cfi_lsda 3, .Lexception4

	push	rbp
	push	r15
	push	r14
	push	r12
	push	rbx
	sub	rsp, 16
	mov	r14, rsi
	mov	r15, rdi
	mov	eax, dword ptr [rip + x.262]
	mov	r11d, dword ptr [rip + y.263]
	lea	edi, [rax - 1]
	imul	edi, eax
	mov	r12d, edi
	xor	r12d, -2
	cmp	r11d, 10
	setl	al
	setl	byte ptr [rsp + 6]
	mov	ecx, r12d
	and	ecx, edi
	sete	bl
	sete	byte ptr [rsp + 7]
	xor	bl, al
	mov	ebp, -1224436611
	mov	r8d, 1935838418
	mov	ebx, 1935838418
	cmovne	ebx, ebp
	test	ecx, ecx
	cmovne	ebp, ebx
	cmp	r11d, 10
	cmovge	ebp, ebx
	lea	r9, [r15 + 16]
	mov	ecx, 1644902293
	mov	esi, 1476684012
	jmp	.LBB5_1
.LBB5_7:                                
	movzx	edx, byte ptr [rsp + 7]
	movzx	ecx, byte ptr [rsp + 6]
	mov	ebx, edx
	xor	bl, cl
	test	cl, cl
	mov	ecx, 1935838418
	cmovne	ecx, esi
	test	dl, dl
	cmove	ecx, r8d
	test	bl, bl
	cmovne	ecx, esi
	.p2align	4, 0x90
.LBB5_1:                                
	cmp	ecx, 1644902292
	jg	.LBB5_5

	cmp	ecx, -1224436611
	je	.LBB5_9

	cmp	ecx, 1476684012
	jne	.LBB5_1

	mov	qword ptr [rsp + 8], r9
	mov	ecx, ebp
	jmp	.LBB5_1
	.p2align	4, 0x90
.LBB5_5:                                
	cmp	ecx, 1935838418
	je	.LBB5_8

	cmp	ecx, 1644902293
	jne	.LBB5_1
	jmp	.LBB5_7
.LBB5_8:                                
	mov	ecx, 1476684012
	jmp	.LBB5_1
.LBB5_9:
	mov	rcx, qword ptr [rsp + 8]
	mov	ecx, dword ptr [rip + x.400]
	mov	edx, dword ptr [rip + y.401]
	lea	ebx, [rcx - 1]
	imul	ebx, ecx
	not	ebx
	or	ebx, -2
	cmp	ebx, -1
	sete	cl
	cmp	edx, 10
	setl	al
	xor	al, cl
	mov	esi, 645708419
	mov	eax, 2133612177
	cmovne	eax, esi
	cmp	ebx, -1
	sete	byte ptr [rsp + 6]
	cmovne	esi, eax
	cmp	edx, 10
	setl	byte ptr [rsp + 8]
	cmovge	esi, eax
	mov	ecx, 35361490
	mov	ebx, -1912800139
	jmp	.LBB5_10
.LBB5_12:                               
	mov	ecx, esi
	.p2align	4, 0x90
.LBB5_10:                               
	cmp	ecx, 645708418
	jg	.LBB5_13

	cmp	ecx, -1912800139
	je	.LBB5_12

	cmp	ecx, 35361490
	jne	.LBB5_10

	movzx	eax, byte ptr [rsp + 6]
	movzx	ecx, byte ptr [rsp + 8]
	mov	edx, eax
	xor	dl, cl
	mov	edx, 2133612177
	cmovne	edx, ebx
	test	cl, cl
	mov	ecx, edx
	cmovne	ecx, ebx
	test	al, al
	cmove	ecx, edx
	jmp	.LBB5_10
	.p2align	4, 0x90
.LBB5_13:                               
	cmp	ecx, 645708419
	je	.LBB5_18

	cmp	ecx, 2133612177
	jne	.LBB5_10

	mov	ecx, -1912800139
	jmp	.LBB5_10
.LBB5_18:
	test	r12d, edi
	mov	rsi, qword ptr [r14]
	sete	byte ptr [rsp + 7]
	cmp	r11d, 10
	setl	byte ptr [rsp + 6]
	lea	r8, [r14 + 16]
	mov	ecx, 1644902293
	mov	ebx, 1476684012
	mov	r10d, 1935838418
	jmp	.LBB5_19
.LBB5_25:                               
	movzx	eax, byte ptr [rsp + 7]
	movzx	ecx, byte ptr [rsp + 6]
	mov	edx, eax
	xor	dl, cl
	test	cl, cl
	mov	ecx, 1935838418
	cmovne	ecx, ebx
	test	al, al
	cmove	ecx, r10d
	test	dl, dl
	cmovne	ecx, ebx
	.p2align	4, 0x90
.LBB5_19:                               
	cmp	ecx, 1644902292
	jg	.LBB5_23

	cmp	ecx, -1224436611
	je	.LBB5_27

	cmp	ecx, 1476684012
	jne	.LBB5_19

	mov	qword ptr [rsp + 8], r8
	mov	ecx, ebp
	jmp	.LBB5_19
	.p2align	4, 0x90
.LBB5_23:                               
	cmp	ecx, 1935838418
	je	.LBB5_26

	cmp	ecx, 1644902293
	jne	.LBB5_19
	jmp	.LBB5_25
.LBB5_26:                               
	mov	ecx, 1476684012
	jmp	.LBB5_19
.LBB5_27:
	mov	rax, qword ptr [rsp + 8]
	cmp	rsi, rax
	je	.LBB5_28

	test	r12d, edi
	mov	r10, qword ptr [r15]
	sete	byte ptr [rsp + 7]
	cmp	r11d, 10
	setl	byte ptr [rsp + 6]
	mov	edi, 1644902293
	mov	ecx, 1476684012
	jmp	.LBB5_34
.LBB5_40:                               
	movzx	edx, byte ptr [rsp + 7]
	movzx	ebx, byte ptr [rsp + 6]
	mov	eax, edx
	xor	al, bl
	mov	eax, 1935838418
	cmovne	eax, ecx
	test	bl, bl
	mov	edi, eax
	cmovne	edi, ecx
	test	dl, dl
	cmove	edi, eax
	.p2align	4, 0x90
.LBB5_34:                               
	cmp	edi, 1644902292
	jg	.LBB5_38

	cmp	edi, -1224436611
	je	.LBB5_42

	cmp	edi, 1476684012
	jne	.LBB5_34

	mov	qword ptr [rsp + 8], r9
	mov	edi, ebp
	jmp	.LBB5_34
	.p2align	4, 0x90
.LBB5_38:                               
	cmp	edi, 1935838418
	je	.LBB5_41

	cmp	edi, 1644902293
	jne	.LBB5_34
	jmp	.LBB5_40
.LBB5_41:                               
	mov	edi, 1476684012
	jmp	.LBB5_34
.LBB5_42:
	mov	rax, qword ptr [rsp + 8]
	cmp	r10, rax
	je	.LBB5_43

	mov	r9, qword ptr [r15 + 16]
	jmp	.LBB5_45
.LBB5_28:
	mov	rdx, qword ptr [r14 + 8]
	test	rdx, rdx
	je	.LBB5_29

	mov	rdi, qword ptr [r15]
.Ltmp203:
	call	_ZNSt7__cxx1112basic_stringIcSt11char_traitsIcESaIcEE7_S_copyEPcPKcm
.Ltmp204:

	mov	rsi, qword ptr [r14 + 8]
	jmp	.LBB5_32
.LBB5_43:
	xor	r10d, r10d

.LBB5_45:
	mov	qword ptr [r15], rsi
	mov	eax, dword ptr [rip + x.110]
	mov	ecx, dword ptr [rip + y.111]
	lea	edx, [rax - 1]
	imul	edx, eax
	not	edx
	or	edx, -2
	cmp	edx, -1
	sete	al
	cmp	ecx, 10
	setl	bl
	xor	bl, al
	mov	ebx, -275537174
	mov	esi, 502916628
	mov	eax, 502916628
	cmovne	eax, ebx
	cmp	edx, -1
	sete	byte ptr [rsp + 7]
	cmovne	ebx, eax
	cmp	ecx, 10
	setl	byte ptr [rsp + 6]
	cmovge	ebx, eax
	mov	rdi, qword ptr [r14 + 8]
	mov	eax, -2001064944
	mov	ebp, 1638077408
	jmp	.LBB5_46
.LBB5_85:                               
	movzx	ecx, byte ptr [rsp + 7]
	movzx	eax, byte ptr [rsp + 6]
	mov	edx, ecx
	xor	dl, al
	test	al, al
	mov	eax, 502916628
	cmovne	eax, ebp
	test	cl, cl
	cmove	eax, esi
	test	dl, dl
	cmovne	eax, ebp
	.p2align	4, 0x90
.LBB5_46:                               
	cmp	eax, 502916627
	jg	.LBB5_54

	cmp	eax, -2001064944
	je	.LBB5_85

	cmp	eax, -275537174
	jne	.LBB5_46
	jmp	.LBB5_49
	.p2align	4, 0x90
.LBB5_54:                               
	cmp	eax, 502916628
	je	.LBB5_57

	cmp	eax, 1638077408
	jne	.LBB5_46

	mov	qword ptr [rsp + 8], rdi
	mov	eax, ebx
	jmp	.LBB5_46
.LBB5_57:                               
	mov	eax, 1638077408
	jmp	.LBB5_46
.LBB5_49:
	mov	rbp, qword ptr [rsp + 8]
	mov	ecx, dword ptr [rip + x.328]
	mov	edx, dword ptr [rip + y.329]
	lea	esi, [rcx - 1]
	imul	esi, ecx
	mov	ecx, esi
	xor	ecx, -2
	and	ecx, esi
	sete	byte ptr [rsp + 6]
	sete	bl
	cmp	edx, 10
	setl	al
	xor	al, bl
	mov	esi, -2076216893
	mov	eax, 95383733
	cmovne	eax, esi
	test	ecx, ecx
	cmovne	esi, eax
	cmp	edx, 10
	setl	byte ptr [rsp + 8]
	cmovge	esi, eax
	mov	edi, -882960096
	mov	ecx, 1277347987
	jmp	.LBB5_50
.LBB5_53:                               
	movzx	ebx, byte ptr [rsp + 6]
	movzx	edx, byte ptr [rsp + 8]
	mov	eax, ebx
	xor	al, dl
	mov	eax, 95383733
	cmovne	eax, ecx
	test	dl, dl
	mov	edi, eax
	cmovne	edi, ecx
	test	bl, bl
	cmove	edi, eax
	.p2align	4, 0x90
.LBB5_50:                               
	cmp	edi, 95383732
	jg	.LBB5_58

	cmp	edi, -2076216893
	je	.LBB5_62

	cmp	edi, -882960096
	jne	.LBB5_50
	jmp	.LBB5_53
	.p2align	4, 0x90
.LBB5_58:                               
	cmp	edi, 95383733
	je	.LBB5_61

	cmp	edi, 1277347987
	jne	.LBB5_50

	mov	qword ptr [r15 + 8], rbp
	mov	edi, esi
	jmp	.LBB5_50
.LBB5_61:                               
	mov	qword ptr [r15 + 8], rbp
	mov	edi, 1277347987
	jmp	.LBB5_50
.LBB5_62:
	mov	rdi, qword ptr [r8]
	mov	ecx, dword ptr [rip + x.322]
	mov	edx, dword ptr [rip + y.323]
	lea	esi, [rcx - 1]
	imul	esi, ecx
	not	esi
	or	esi, -2
	cmp	esi, -1
	sete	cl
	cmp	edx, 10
	setl	bl
	xor	bl, cl
	mov	ebx, 1297074108
	mov	ecx, 330472495
	cmovne	ecx, ebx
	cmp	esi, -1
	sete	byte ptr [rsp + 6]
	cmovne	ebx, ecx
	cmp	edx, 10
	setl	byte ptr [rsp + 8]
	mov	r11d, 330472495
	cmovge	ebx, ecx
	mov	esi, -1384104374
	mov	ebp, -977645950
	jmp	.LBB5_63
.LBB5_75:                               
	movzx	eax, byte ptr [rsp + 6]
	movzx	ecx, byte ptr [rsp + 8]
	mov	edx, eax
	xor	dl, cl
	test	cl, cl
	mov	esi, 330472495
	cmovne	esi, ebp
	test	al, al
	cmove	esi, r11d
	test	dl, dl
	cmovne	esi, ebp
	.p2align	4, 0x90
.LBB5_63:                               
	cmp	esi, 330472494
	jle	.LBB5_64

	cmp	esi, 330472495
	je	.LBB5_76

	cmp	esi, 1297074108
	jne	.LBB5_63
	jmp	.LBB5_69
	.p2align	4, 0x90
.LBB5_64:                               
	cmp	esi, -1384104374
	je	.LBB5_75

	cmp	esi, -977645950
	jne	.LBB5_63

	mov	qword ptr [r15 + 16], rdi
	mov	esi, ebx
	jmp	.LBB5_63
.LBB5_76:                               
	mov	qword ptr [r15 + 16], rdi
	mov	esi, -977645950
	jmp	.LBB5_63
.LBB5_69:
	test	r10, r10
	je	.LBB5_81

	mov	qword ptr [r14], r10
	mov	eax, dword ptr [rip + x.322]
	mov	ecx, dword ptr [rip + y.323]
	lea	edx, [rax - 1]
	imul	edx, eax
	mov	esi, edx
	xor	esi, -2
	and	esi, edx
	sete	byte ptr [rsp + 6]
	sete	al
	cmp	ecx, 10
	setl	dl
	xor	dl, al
	mov	eax, 1297074108
	mov	edi, 330472495
	cmovne	edi, eax
	test	esi, esi
	cmovne	eax, edi
	cmp	ecx, 10
	setl	byte ptr [rsp + 8]
	mov	ebp, 330472495
	cmovge	eax, edi
	mov	ecx, -1384104374
	mov	esi, -977645950
	jmp	.LBB5_71
.LBB5_79:                               
	movzx	edx, byte ptr [rsp + 6]
	movzx	ecx, byte ptr [rsp + 8]
	mov	ebx, edx
	xor	bl, cl
	test	cl, cl
	mov	ecx, 330472495
	cmovne	ecx, esi
	test	dl, dl
	cmove	ecx, ebp
	test	bl, bl
	cmovne	ecx, esi
	.p2align	4, 0x90
.LBB5_71:                               
	cmp	ecx, 330472494
	jle	.LBB5_72

	cmp	ecx, 330472495
	je	.LBB5_80

	cmp	ecx, 1297074108
	jne	.LBB5_71
	jmp	.LBB5_82
	.p2align	4, 0x90
.LBB5_72:                               
	cmp	ecx, -1384104374
	je	.LBB5_79

	cmp	ecx, -977645950
	jne	.LBB5_71

	mov	qword ptr [r14 + 16], r9
	mov	ecx, eax
	jmp	.LBB5_71
.LBB5_80:                               
	mov	qword ptr [r14 + 16], r9
	mov	ecx, -977645950
	jmp	.LBB5_71
.LBB5_81:
	mov	qword ptr [r14], r8
	jmp	.LBB5_82
.LBB5_29:
	xor	esi, esi
.LBB5_32:
.Ltmp205:
	mov	rdi, r15
	call	_ZNSt7__cxx1112basic_stringIcSt11char_traitsIcESaIcEE13_M_set_lengthEm
.Ltmp206:
.LBB5_82:
.Ltmp208:
	xor	esi, esi
	mov	rdi, r14
	call	_ZNSt7__cxx1112basic_stringIcSt11char_traitsIcESaIcEE13_M_set_lengthEm
.Ltmp209:

	mov	rax, r15
	add	rsp, 16
	pop	rbx
	pop	r12
	pop	r14
	pop	r15
	pop	rbp
	ret
.LBB5_84:
.Ltmp207:
	mov	rdi, rax
	call	__clang_call_terminate
.LBB5_86:
.Ltmp210:
	mov	rdi, rax
	call	__clang_call_terminate
.Lfunc_end5:
	.size	_ZNSt7__cxx1112basic_stringIcSt11char_traitsIcESaIcEEaSEOS4_, .Lfunc_end5-_ZNSt7__cxx1112basic_stringIcSt11char_traitsIcESaIcEEaSEOS4_
	.cfi_endproc
	.section	.gcc_except_table,"a",@progbits
	.p2align	2
GCC_except_table5:
.Lexception4:
	.byte	255                     
	.byte	3                       
	.asciz	"\242\200\200"          
	.byte	3                       
	.byte	26                      
	.long	.Ltmp203-.Lfunc_begin4  
	.long	.Ltmp206-.Ltmp203       
	.long	.Ltmp207-.Lfunc_begin4  
	.byte	1                       
	.long	.Ltmp208-.Lfunc_begin4  
	.long	.Ltmp209-.Ltmp208       
	.long	.Ltmp210-.Lfunc_begin4  
	.byte	1                       
	.byte	1                       

	.byte	0                       

	.long	0                       
	.p2align	2

	.text
	.globl	_ZN3DES5xor32ERKNSt7__cxx1112basic_stringIcSt11char_traitsIcESaIcEEES7_ 
	.p2align	4, 0x90
	.type	_ZN3DES5xor32ERKNSt7__cxx1112basic_stringIcSt11char_traitsIcESaIcEEES7_,@function
_ZN3DES5xor32ERKNSt7__cxx1112basic_stringIcSt11char_traitsIcESaIcEEES7_: 
.Lfunc_begin5:
	.cfi_startproc
	.cfi_personality 3, __gxx_personality_v0
	.cfi_lsda 3, .Lexception5

	push	r14
.Lcfi39:
	.cfi_def_cfa_offset 16
	push	rbx
.Lcfi40:
	.cfi_def_cfa_offset 24
	sub	rsp, 72
.Lcfi41:
	.cfi_def_cfa_offset 96
.Lcfi42:
	.cfi_offset rbx, -24
.Lcfi43:
	.cfi_offset r14, -16
	mov	rbx, rdx
	mov	r14, rdi
	mov	qword ptr [rsp + 16], 0
	lea	rdi, [rsp + 32]
	xor	edx, edx
	call	_ZNSt6bitsetILm32EEC2IcSt11char_traitsIcESaIcEEERKNSt7__cxx1112basic_stringIT_T0_T1_EEm
	lea	rdi, [rsp + 24]
	xor	edx, edx
	mov	rsi, rbx
	call	_ZNSt6bitsetILm32EEC2IcSt11char_traitsIcESaIcEEERKNSt7__cxx1112basic_stringIT_T0_T1_EEm
	mov	rdi, qword ptr [rsp + 32]
	mov	ecx, dword ptr [rip + x.414]
	mov	edx, dword ptr [rip + y.415]
	lea	esi, [rcx - 1]
	imul	esi, ecx
	not	esi
	or	esi, -2
	cmp	esi, -1
	sete	cl
	sete	byte ptr [rsp + 15]
	mov	eax, -959858146
	mov	r8d, 104793680
	mov	ebx, 104793680
	cmove	ebx, eax
	cmp	edx, 10
	setl	dl
	setl	byte ptr [rsp + 40]
	mov	rsi, qword ptr [rsp + 24]
	cmovge	ebx, r8d
	xor	dl, cl
	cmovne	ebx, eax
	mov	edx, 988706077
	mov	r9d, 1117447049
	jmp	.LBB6_1
.LBB6_9:                                
	mov	rax, rsi
	not	rax
	and	rax, rdi
	not	rdi
	and	rdi, rsi
	or	rax, rdi
	mov	rdi, rax
	.p2align	4, 0x90
.LBB6_1:                                
	cmp	edx, 988706076
	jg	.LBB6_5

	cmp	edx, -959858146
	je	.LBB6_11

	cmp	edx, 104793680
	jne	.LBB6_1

	mov	edx, 1117447049
	jmp	.LBB6_9
	.p2align	4, 0x90
.LBB6_5:                                
	cmp	edx, 1117447049
	je	.LBB6_8

	cmp	edx, 988706077
	jne	.LBB6_1

	movzx	eax, byte ptr [rsp + 15]
	movzx	edx, byte ptr [rsp + 40]
	mov	ecx, eax
	xor	cl, dl
	test	dl, dl
	mov	edx, 104793680
	cmovne	edx, r9d
	test	al, al
	cmove	edx, r8d
	test	cl, cl
	cmovne	edx, r9d
	jmp	.LBB6_1
.LBB6_8:                                
	mov	edx, ebx
	jmp	.LBB6_9
.LBB6_11:
	mov	qword ptr [rsp + 16], rdi
	lea	rbx, [rsp + 40]
	lea	rsi, [rsp + 16]
	mov	rdi, rbx
	call	_ZNKSt6bitsetILm32EE9to_stringB5cxx11Ev
	add	r14, 72
	mov	rdi, r14
	mov	rsi, rbx
	call	_ZNSt7__cxx1112basic_stringIcSt11char_traitsIcESaIcEEaSEOS4_
.Ltmp211:
	mov	rdi, rbx
	call	_ZNSt7__cxx1112basic_stringIcSt11char_traitsIcESaIcEE10_M_disposeEv
.Ltmp212:

	add	rsp, 72
	pop	rbx
	pop	r14
	ret
.LBB6_10:
.Ltmp213:
	mov	rdi, rax
	call	__cxa_call_unexpected
.Lfunc_end6:
	.size	_ZN3DES5xor32ERKNSt7__cxx1112basic_stringIcSt11char_traitsIcESaIcEEES7_, .Lfunc_end6-_ZN3DES5xor32ERKNSt7__cxx1112basic_stringIcSt11char_traitsIcESaIcEEES7_
	.cfi_endproc
	.section	.gcc_except_table,"a",@progbits
	.p2align	2
GCC_except_table6:
.Lexception5:
	.byte	255                     
	.byte	3                       
	.asciz	"\253\200"              
	.byte	3                       
	.byte	39                      
	.long	.Lfunc_begin5-.Lfunc_begin5 
	.long	.Ltmp211-.Lfunc_begin5  
	.long	0                       
	.byte	0                       
	.long	.Ltmp211-.Lfunc_begin5  
	.long	.Ltmp212-.Ltmp211       
	.long	.Ltmp213-.Lfunc_begin5  
	.byte	1                       
	.long	.Ltmp212-.Lfunc_begin5  
	.long	.Lfunc_end6-.Ltmp212    
	.long	0                       
	.byte	0                       
	.byte	127                     

	.byte	0                       

	.byte	0
	.p2align	2

	.section	.text._ZNSt6bitsetILm32EEC2IcSt11char_traitsIcESaIcEEERKNSt7__cxx1112basic_stringIT_T0_T1_EEm,"axG",@progbits,_ZNSt6bitsetILm32EEC2IcSt11char_traitsIcESaIcEEERKNSt7__cxx1112basic_stringIT_T0_T1_EEm,comdat
	.weak	_ZNSt6bitsetILm32EEC2IcSt11char_traitsIcESaIcEEERKNSt7__cxx1112basic_stringIT_T0_T1_EEm 
	.p2align	4, 0x90
	.type	_ZNSt6bitsetILm32EEC2IcSt11char_traitsIcESaIcEEERKNSt7__cxx1112basic_stringIT_T0_T1_EEm,@function
_ZNSt6bitsetILm32EEC2IcSt11char_traitsIcESaIcEEERKNSt7__cxx1112basic_stringIT_T0_T1_EEm: 
	.cfi_startproc

	sub	rsp, 24
.Lcfi44:
	.cfi_def_cfa_offset 32
	mov	r10, rdx
	mov	qword ptr [rdi], 0
	mov	rdx, qword ptr [rsi + 8]
	mov	qword ptr [rsp + 16], rdx
	mov	ecx, 451596611
	mov	eax, -1912032556
	jmp	.LBB7_1
	.p2align	4, 0x90
.LBB7_15:                               
	mov	rcx, qword ptr [rsp + 16]
	cmp	rcx, r10
	mov	ecx, -1025538224
	cmovb	ecx, eax
.LBB7_1:                                
	cmp	ecx, -1025538224
	je	.LBB7_5

	cmp	ecx, 451596611
	je	.LBB7_15

	cmp	ecx, -1912032556
	jne	.LBB7_1

	mov	edi, .L.str.45
	xor	eax, eax
	mov	rsi, r10
	call	_ZSt24__throw_out_of_range_fmtPKcz
.LBB7_5:
	mov	eax, dword ptr [rip + x.358]
	mov	r8d, dword ptr [rip + y.359]
	lea	ecx, [rax - 1]
	imul	ecx, eax
	not	ecx
	or	ecx, -2
	cmp	ecx, -1
	sete	r9b
	cmp	r8d, 10
	setl	al
	xor	al, r9b
	mov	r9d, -1675894318
	mov	eax, -531594072
	cmovne	eax, r9d
	cmp	ecx, -1
	sete	byte ptr [rsp + 14]
	cmovne	r9d, eax
	cmp	r8d, 10
	setl	byte ptr [rsp + 15]
	cmovge	r9d, eax
	mov	rsi, qword ptr [rsi]
	mov	ecx, 887400702
	mov	r8d, 949934965
	jmp	.LBB7_6
.LBB7_13:                               
	mov	qword ptr [rsp + 16], rsi
	mov	ecx, r9d
	.p2align	4, 0x90
.LBB7_6:                                
	cmp	ecx, 887400701
	jg	.LBB7_10

	cmp	ecx, -1675894318
	je	.LBB7_14

	cmp	ecx, -531594072
	jne	.LBB7_6

	mov	ecx, 949934965
	jmp	.LBB7_6
	.p2align	4, 0x90
.LBB7_10:                               
	cmp	ecx, 949934965
	je	.LBB7_13

	cmp	ecx, 887400702
	jne	.LBB7_6

	movzx	r11d, byte ptr [rsp + 14]
	movzx	ecx, byte ptr [rsp + 15]
	mov	eax, r11d
	xor	al, cl
	mov	eax, -531594072
	cmovne	eax, r8d
	test	cl, cl
	mov	ecx, eax
	cmovne	ecx, r8d
	test	r11b, r11b
	cmove	ecx, eax
	jmp	.LBB7_6
.LBB7_14:
	mov	rsi, qword ptr [rsp + 16]
	mov	dword ptr [rsp], 49
	mov	r8, -1
	mov	r9d, 48
	mov	rcx, r10
	call	_ZNSt6bitsetILm32EE16_M_copy_from_ptrIcSt11char_traitsIcEEEvPKT_mmmS4_S4_
	add	rsp, 24
	ret
.Lfunc_end7:
	.size	_ZNSt6bitsetILm32EEC2IcSt11char_traitsIcESaIcEEERKNSt7__cxx1112basic_stringIT_T0_T1_EEm, .Lfunc_end7-_ZNSt6bitsetILm32EEC2IcSt11char_traitsIcESaIcEEERKNSt7__cxx1112basic_stringIT_T0_T1_EEm
	.cfi_endproc

	.section	.text._ZNKSt6bitsetILm32EE9to_stringB5cxx11Ev,"axG",@progbits,_ZNKSt6bitsetILm32EE9to_stringB5cxx11Ev,comdat
	.weak	_ZNKSt6bitsetILm32EE9to_stringB5cxx11Ev 
	.p2align	4, 0x90
	.type	_ZNKSt6bitsetILm32EE9to_stringB5cxx11Ev,@function
_ZNKSt6bitsetILm32EE9to_stringB5cxx11Ev: 
.Lfunc_begin6:
	.cfi_startproc
	.cfi_personality 3, __gxx_personality_v0
	.cfi_lsda 3, .Lexception6

	push	r15
.Lcfi45:
	.cfi_def_cfa_offset 16
	push	r14
.Lcfi46:
	.cfi_def_cfa_offset 24
	push	rbx
.Lcfi47:
	.cfi_def_cfa_offset 32
	sub	rsp, 16
.Lcfi48:
	.cfi_def_cfa_offset 48
.Lcfi49:
	.cfi_offset rbx, -32
.Lcfi50:
	.cfi_offset r14, -24
.Lcfi51:
	.cfi_offset r15, -16
	mov	r14, rsi
	mov	r15, rdi
	lea	rdi, [r15 + 16]
	call	_ZSt9addressofIcEPT_RS0_
	mov	ecx, dword ptr [rip + x.350]
	mov	edx, dword ptr [rip + y.351]
	lea	esi, [rcx - 1]
	imul	esi, ecx
	not	esi
	or	esi, -2
	cmp	esi, -1
	sete	cl
	cmp	edx, 10
	setl	bl
	xor	bl, cl
	mov	r8d, -1202865644
	mov	edi, 889828727
	cmovne	edi, r8d
	cmp	esi, -1
	sete	byte ptr [rsp + 14]
	cmovne	r8d, edi
	cmp	edx, 10
	setl	byte ptr [rsp + 15]
	cmovge	r8d, edi
	mov	esi, 826350111
	mov	edi, 185829745
	jmp	.LBB8_1
.LBB8_8:                                
	mov	esi, 185829745
	.p2align	4, 0x90
.LBB8_1:                                
	cmp	esi, 826350110
	jg	.LBB8_5

	cmp	esi, -1202865644
	je	.LBB8_10

	cmp	esi, 185829745
	jne	.LBB8_1

	mov	esi, r8d
	jmp	.LBB8_1
	.p2align	4, 0x90
.LBB8_5:                                
	cmp	esi, 889828727
	je	.LBB8_8

	cmp	esi, 826350111
	jne	.LBB8_1

	movzx	ecx, byte ptr [rsp + 14]
	movzx	edx, byte ptr [rsp + 15]
	mov	ebx, ecx
	xor	bl, dl
	mov	ebx, 889828727
	cmovne	ebx, edi
	test	dl, dl
	mov	esi, ebx
	cmovne	esi, edi
	test	cl, cl
	cmove	esi, ebx
	jmp	.LBB8_1
.LBB8_10:
	mov	qword ptr [r15], rax
.Ltmp214:
	xor	esi, esi
	mov	rdi, r15
	call	_ZNSt7__cxx1112basic_stringIcSt11char_traitsIcESaIcEE13_M_set_lengthEm
.Ltmp215:

.Ltmp217:
	mov	edx, 48
	mov	ecx, 49
	mov	rdi, r14
	mov	rsi, r15
	call	_ZNKSt6bitsetILm32EE17_M_copy_to_stringIcSt11char_traitsIcESaIcEEEvRNSt7__cxx1112basic_stringIT_T0_T1_EES7_S7_
.Ltmp218:

	mov	rax, r15
	add	rsp, 16
	pop	rbx
	pop	r14
	pop	r15
	ret
.LBB8_14:
.Ltmp219:
	mov	r14, rax
.Ltmp220:
	mov	rdi, r15
	call	_ZNSt7__cxx1112basic_stringIcSt11char_traitsIcESaIcEE10_M_disposeEv
.Ltmp221:

	mov	rdi, r14
	call	_Unwind_Resume
.LBB8_13:
.Ltmp222:
	mov	rdi, rax
	call	__cxa_call_unexpected
.LBB8_9:
.Ltmp216:
	mov	rdi, rax
	call	__clang_call_terminate
.Lfunc_end8:
	.size	_ZNKSt6bitsetILm32EE9to_stringB5cxx11Ev, .Lfunc_end8-_ZNKSt6bitsetILm32EE9to_stringB5cxx11Ev
	.cfi_endproc
	.section	.gcc_except_table,"a",@progbits
	.p2align	2
GCC_except_table8:
.Lexception6:
	.byte	255                     
	.byte	3                       
	.asciz	"\276\200\200"          
	.byte	3                       
	.byte	52                      
	.long	.Ltmp214-.Lfunc_begin6  
	.long	.Ltmp215-.Ltmp214       
	.long	.Ltmp216-.Lfunc_begin6  
	.byte	3                       
	.long	.Ltmp217-.Lfunc_begin6  
	.long	.Ltmp218-.Ltmp217       
	.long	.Ltmp219-.Lfunc_begin6  
	.byte	0                       
	.long	.Ltmp220-.Lfunc_begin6  
	.long	.Ltmp221-.Ltmp220       
	.long	.Ltmp222-.Lfunc_begin6  
	.byte	1                       
	.long	.Ltmp221-.Lfunc_begin6  
	.long	.Lfunc_end8-.Ltmp221    
	.long	0                       
	.byte	0                       
	.byte	127                     

	.byte	0                       
	.byte	1                       

	.byte	0                       

	.long	0                       

	.byte	0
	.p2align	2

	.text
	.globl	_ZN3DES12initialPermuERKNSt7__cxx1112basic_stringIcSt11char_traitsIcESaIcEEE 
	.p2align	4, 0x90
	.type	_ZN3DES12initialPermuERKNSt7__cxx1112basic_stringIcSt11char_traitsIcESaIcEEE,@function
_ZN3DES12initialPermuERKNSt7__cxx1112basic_stringIcSt11char_traitsIcESaIcEEE: 
.Lfunc_begin7:
	.cfi_startproc
	.cfi_personality 3, __gxx_personality_v0
	.cfi_lsda 3, .Lexception7

	push	rbp
.Lcfi52:
	.cfi_def_cfa_offset 16
	push	r15
.Lcfi53:
	.cfi_def_cfa_offset 24
	push	r14
.Lcfi54:
	.cfi_def_cfa_offset 32
	push	r13
.Lcfi55:
	.cfi_def_cfa_offset 40
	push	r12
.Lcfi56:
	.cfi_def_cfa_offset 48
	push	rbx
.Lcfi57:
	.cfi_def_cfa_offset 56
	sub	rsp, 168
.Lcfi58:
	.cfi_def_cfa_offset 224
.Lcfi59:
	.cfi_offset rbx, -56
.Lcfi60:
	.cfi_offset r12, -48
.Lcfi61:
	.cfi_offset r13, -40
.Lcfi62:
	.cfi_offset r14, -32
.Lcfi63:
	.cfi_offset r15, -24
.Lcfi64:
	.cfi_offset rbp, -16
	mov	r15, rdi
	lea	rax, [rsp + 160]
	mov	qword ptr [rsp + 152], rax
	lea	rax, [rsp + 40]
	mov	qword ptr [rsp + 96], rax
	mov	rax, qword ptr [rsp + 96]
	mov	qword ptr [rsp + 40], 0
	lea	r12, [rsp + 80]
	mov	qword ptr [rsp + 128], r12
	mov	rax, qword ptr [rsp + 128]
	mov	ecx, dword ptr [rip + x.84]
	mov	edx, dword ptr [rip + y.85]
	mov	eax, ecx
	neg	eax
	not	eax
	imul	eax, ecx
	not	eax
	or	eax, -2
	cmp	eax, -1
	sete	bl
	cmp	edx, 10
	setl	cl
	xor	cl, bl
	mov	ebp, 2056606463
	mov	r8d, -1559444858
	mov	edi, -1559444858
	cmovne	edi, ebp
	cmp	eax, -1
	sete	byte ptr [rsp + 24]
	cmovne	ebp, edi
	cmp	edx, 10
	setl	byte ptr [rsp + 16]
	cmovge	ebp, edi
	mov	qword ptr [rsp + 88], rsi 
	mov	rax, qword ptr [rsi]
	mov	edi, -2098656802
	mov	esi, 306072885
	jmp	.LBB9_1
.LBB9_17:                               
	movzx	edx, byte ptr [rsp + 24]
	movzx	ecx, byte ptr [rsp + 16]
	mov	ebx, edx
	xor	bl, cl
	test	cl, cl
	mov	edi, -1559444858
	cmovne	edi, esi
	test	dl, dl
	cmove	edi, r8d
	test	bl, bl
	cmovne	edi, esi
	.p2align	4, 0x90
.LBB9_1:                                
	cmp	edi, 306072884
	jle	.LBB9_2

	cmp	edi, 306072885
	je	.LBB9_18

	cmp	edi, 2056606463
	jne	.LBB9_1
	jmp	.LBB9_7
	.p2align	4, 0x90
.LBB9_2:                                
	cmp	edi, -2098656802
	je	.LBB9_17

	cmp	edi, -1559444858
	jne	.LBB9_1

	mov	edi, 306072885
	jmp	.LBB9_1
.LBB9_18:                               
	mov	qword ptr [rsp + 48], rax
	mov	edi, ebp
	jmp	.LBB9_1
.LBB9_7:
	movabs	rcx, 4295071889052167971
	mov	rax, qword ptr [rsp + 48]
	mov	qword ptr [rsp + 120], rax 
	add	r15, 360
	mov	eax, -1383385799
	mov	r14d, -2124313413
	mov	r13d, -334892812
	mov	ebp, -845894381
	mov	edx, 63
	sub	edx, ecx
	mov	dword ptr [rsp + 108], edx 
	mov	qword ptr [rsp + 112], r12 
	jmp	.LBB9_8
.LBB9_152:                              
	mov	rax, qword ptr [rsp + 48]
	mov	qword ptr [rsp + 120], rax 
	mov	rax, qword ptr [rsp + 152]
	mov	qword ptr [rsp + 112], rax 
	mov	eax, -1383385799
	.p2align	4, 0x90
.LBB9_8:                                















	cmp	eax, -508515639
	jle	.LBB9_9

	cmp	eax, -83935491
	jg	.LBB9_32

	cmp	eax, -508515638
	je	.LBB9_70

	cmp	eax, -306970862
	je	.LBB9_160

	cmp	eax, -249624989
	jne	.LBB9_8

	mov	rax, qword ptr [rsp + 144]
	mov	rcx, qword ptr [rsp + 136]
	mov	qword ptr [rax], rcx
	mov	eax, dword ptr [rip + x.88]
	mov	ecx, dword ptr [rip + y.89]
	mov	edx, eax
	neg	edx
	not	edx
	imul	edx, eax
	not	edx
	or	edx, -2
	cmp	edx, -1
	sete	dl
	sete	byte ptr [rsp + 14]
	mov	eax, -334892812
	cmove	eax, r14d
	cmp	ecx, 10
	setl	cl
	setl	byte ptr [rsp + 24]
	cmovge	eax, r13d
	xor	cl, dl
	cmovne	eax, r14d
	mov	rcx, qword ptr [rsp + 88] 
	mov	rsi, qword ptr [rcx]
	add	rsi, qword ptr [rcx + 8]
	mov	edx, 1258716355
	jmp	.LBB9_28
	.p2align	4, 0x90
.LBB9_9:                                
	cmp	eax, -1842444555
	jle	.LBB9_10

	cmp	eax, -1842444554
	je	.LBB9_36

	cmp	eax, -1646691693
	je	.LBB9_47

	cmp	eax, -1383385799
	jne	.LBB9_8

	mov	rax, qword ptr [rsp + 120] 
	mov	qword ptr [rsp + 136], rax
	mov	rax, qword ptr [rsp + 112] 
	mov	qword ptr [rsp + 144], rax
	mov	eax, dword ptr [rip + x.80]
	mov	ecx, eax
	neg	ecx
	not	ecx
	imul	ecx, eax
	mov	eax, ecx
	xor	eax, -2
	and	eax, ecx
	sete	cl
	test	eax, eax
	mov	eax, -249624989
	mov	edi, -1842444554
	cmove	eax, edi
	cmp	dword ptr [rip + y.81], 10
	setl	dl
	mov	esi, -249624989
	cmovge	eax, esi
	xor	dl, cl
	cmovne	eax, edi
	jmp	.LBB9_8
	.p2align	4, 0x90
.LBB9_32:                               
	cmp	eax, -83935490
	je	.LBB9_60

	cmp	eax, 1154026856
	je	.LBB9_48

	cmp	eax, 83338137
	jne	.LBB9_8
	jmp	.LBB9_35
	.p2align	4, 0x90
.LBB9_10:                               
	cmp	eax, -1959249229
	je	.LBB9_46

	cmp	eax, -1888513385
	jne	.LBB9_8

	mov	eax, dword ptr [rip + x.104]
	mov	ecx, dword ptr [rip + y.105]
	lea	edx, [rax - 1]
	imul	edx, eax
	not	edx
	or	edx, -2
	cmp	edx, -1
	sete	al
	cmp	ecx, 10
	setl	bl
	xor	bl, al
	mov	esi, 885081172
	mov	edi, 1128268725
	cmovne	esi, edi
	cmp	edx, -1
	sete	byte ptr [rsp + 24]
	mov	eax, esi
	cmove	eax, edi
	cmp	ecx, 10
	setl	byte ptr [rsp + 16]
	cmovge	eax, esi
	mov	ecx, -727860805
	jmp	.LBB9_13
.LBB9_153:                              
	mov	rcx, qword ptr [rsp + 80]
	lea	rdx, [rcx + 1]
	mov	qword ptr [rsp + 80], rdx
	mov	qword ptr [rsp + 48], rcx
	mov	ecx, eax
	.p2align	4, 0x90
.LBB9_13:                               

	cmp	ecx, 885081171
	jle	.LBB9_14

	cmp	ecx, 885081172
	je	.LBB9_154

	cmp	ecx, 1128268725
	jne	.LBB9_13
	jmp	.LBB9_152
	.p2align	4, 0x90
.LBB9_14:                               
	cmp	ecx, -1885389000
	je	.LBB9_153

	cmp	ecx, -727860805
	jne	.LBB9_13

	movzx	ebx, byte ptr [rsp + 24]
	movzx	ecx, byte ptr [rsp + 16]
	mov	edx, ebx
	xor	dl, cl
	test	cl, cl
	mov	ecx, 885081172
	mov	edi, -1885389000
	cmovne	ecx, edi
	test	bl, bl
	mov	esi, 885081172
	cmove	ecx, esi
	test	dl, dl
	cmovne	ecx, edi
	jmp	.LBB9_13
.LBB9_154:                              
	inc	qword ptr [rsp + 80]
	mov	ecx, -1885389000
	jmp	.LBB9_13
.LBB9_158:                              
	mov	edx, -845894381
	.p2align	4, 0x90
.LBB9_28:                               

	cmp	edx, -334892813
	jg	.LBB9_155

	cmp	edx, -2124313413
	je	.LBB9_159

	cmp	edx, -845894381
	jne	.LBB9_28

	mov	qword ptr [rsp + 48], rsi
	mov	edx, eax
	jmp	.LBB9_28
	.p2align	4, 0x90
.LBB9_155:                              
	cmp	edx, -334892812
	je	.LBB9_158

	cmp	edx, 1258716355
	jne	.LBB9_28

	movzx	ecx, byte ptr [rsp + 14]
	movzx	edx, byte ptr [rsp + 24]
	mov	ebx, ecx
	xor	bl, dl
	test	dl, dl
	mov	edx, -334892812
	cmovne	edx, ebp
	test	cl, cl
	cmove	edx, r13d
	test	bl, bl
	cmovne	edx, ebp
	jmp	.LBB9_28
.LBB9_60:                               
	mov	eax, dword ptr [rip + x.90]
	mov	ecx, dword ptr [rip + y.91]
	lea	edx, [rax - 1]
	imul	edx, eax
	mov	eax, edx
	xor	eax, -2
	and	eax, edx
	sete	dl
	sete	byte ptr [rsp + 24]
	cmp	ecx, 10
	setl	bl
	xor	bl, dl
	mov	edx, -470363259
	mov	esi, -338361297
	cmovne	edx, esi
	test	eax, eax
	mov	eax, edx
	cmove	eax, esi
	cmp	ecx, 10
	setl	byte ptr [rsp + 16]
	cmovge	eax, edx
	mov	edx, -334273138
	mov	rsi, qword ptr [rsp + 80]
	jmp	.LBB9_61
.LBB9_68:                               
	mov	qword ptr [rsp + 48], rsi
	mov	edx, eax
	.p2align	4, 0x90
.LBB9_61:                               

	cmp	edx, -334273139
	jg	.LBB9_65

	cmp	edx, -470363259
	je	.LBB9_69

	cmp	edx, -338361297
	jne	.LBB9_61
	jmp	.LBB9_64
	.p2align	4, 0x90
.LBB9_65:                               
	cmp	edx, 890861893
	je	.LBB9_68

	cmp	edx, -334273138
	jne	.LBB9_61

	movzx	ecx, byte ptr [rsp + 24]
	movzx	edx, byte ptr [rsp + 16]
	mov	ebx, ecx
	xor	bl, dl
	test	dl, dl
	mov	edx, -470363259
	mov	edi, 890861893
	cmovne	edx, edi
	test	cl, cl
	mov	ecx, -470363259
	cmove	edx, ecx
	test	bl, bl
	cmovne	edx, edi
	jmp	.LBB9_61
.LBB9_69:                               
	mov	edx, 890861893
	jmp	.LBB9_61
.LBB9_159:                              
	mov	rax, qword ptr [rsp + 48]
	mov	qword ptr [rsp + 16], rax
	mov	rdi, r12
	lea	rsi, [rsp + 16]
	call	_ZN9__gnu_cxxltIPKcNSt7__cxx1112basic_stringIcSt11char_traitsIcESaIcEEEEEbRKNS_17__normal_iteratorIT_T0_EESE_
	mov	eax, -1842444554
	jmp	.LBB9_8
.LBB9_64:                               
	mov	rax, qword ptr [rsp + 48]
	cmp	byte ptr [rax], 49
	mov	eax, -1888513385
	mov	ecx, -508515638
	cmove	eax, ecx
	jmp	.LBB9_8
.LBB9_48:                               
	mov	eax, dword ptr [rip + x.106]
	mov	ecx, dword ptr [rip + y.107]
	mov	edx, eax
	neg	edx
	not	edx
	imul	edx, eax
	not	edx
	or	edx, -2
	cmp	edx, -1
	sete	byte ptr [rsp + 24]
	cmp	ecx, 10
	setl	byte ptr [rsp + 16]
	mov	eax, -1302611746
	jmp	.LBB9_49
.LBB9_57:                               
	movzx	ecx, byte ptr [rsp + 24]
	movzx	eax, byte ptr [rsp + 16]
	mov	edx, ecx
	xor	dl, al
	test	al, al
	mov	eax, -1007896138
	mov	esi, 302041712
	cmovne	eax, esi
	test	cl, cl
	mov	ecx, -1007896138
	cmove	eax, ecx
	test	dl, dl
	cmovne	eax, esi
	.p2align	4, 0x90
.LBB9_49:                               

	cmp	eax, 302041711
	jle	.LBB9_50

	cmp	eax, 302041712
	je	.LBB9_58

	cmp	eax, 1418783129
	jne	.LBB9_49
	jmp	.LBB9_55
	.p2align	4, 0x90
.LBB9_50:                               
	cmp	eax, -1302611746
	je	.LBB9_57

	cmp	eax, -1007896138
	jne	.LBB9_49

	lea	rdi, [rsp + 48]
	lea	rsi, [rsp + 40]
	call	_ZNKSt6bitsetILm64EE9to_stringIcSt11char_traitsIcESaIcEEENSt7__cxx1112basic_stringIT_T0_T1_EEv
	mov	eax, 302041712
	jmp	.LBB9_49
.LBB9_58:                               
	lea	rdi, [rsp + 48]
	lea	rsi, [rsp + 40]
	call	_ZNKSt6bitsetILm64EE9to_stringIcSt11char_traitsIcESaIcEEENSt7__cxx1112basic_stringIT_T0_T1_EEv
	mov	eax, dword ptr [rip + x.106]
	lea	ecx, [rax - 1]
	imul	ecx, eax
	not	ecx
	or	ecx, -2
	cmp	ecx, -1
	sete	cl
	mov	eax, -1007896138
	mov	edi, 1418783129
	cmove	eax, edi
	cmp	dword ptr [rip + y.107], 10
	setl	dl
	mov	esi, -1007896138
	cmovge	eax, esi
	xor	dl, cl
	cmovne	eax, edi
	jmp	.LBB9_49
.LBB9_55:                               
	mov	rdi, r15
	lea	rbx, [rsp + 48]
	mov	rsi, rbx
	call	_ZNSt7__cxx1112basic_stringIcSt11char_traitsIcESaIcEEaSEOS4_
.Ltmp226:
	mov	rdi, rbx
	call	_ZNSt7__cxx1112basic_stringIcSt11char_traitsIcESaIcEE10_M_disposeEv
.Ltmp227:

	mov	eax, dword ptr [rip + x.80]
	mov	ecx, dword ptr [rip + y.81]
	lea	edx, [rax - 1]
	imul	edx, eax
	not	edx
	or	edx, -2
	cmp	edx, -1
	sete	al
	cmp	ecx, 10
	setl	bl
	xor	bl, al
	mov	esi, -306970862
	mov	edi, 83338137
	cmovne	esi, edi
	cmp	edx, -1
	mov	eax, esi
	cmove	eax, edi
	cmp	ecx, 10
	mov	rcx, qword ptr [rsp + 96]
	cmovge	eax, esi
	jmp	.LBB9_8
.LBB9_46:                               
	mov	al, byte ptr [rsp + 39]
	test	al, al
	mov	eax, -1646691693
	mov	ecx, -83935490
	cmovne	eax, ecx
	jmp	.LBB9_8
.LBB9_160:                              
	mov	eax, dword ptr [rip + x.106]
	mov	ecx, dword ptr [rip + y.107]
	lea	edx, [rax - 1]
	imul	edx, eax
	mov	eax, edx
	xor	eax, -2
	test	eax, edx
	sete	byte ptr [rsp + 24]
	cmp	ecx, 10
	setl	byte ptr [rsp + 16]
	mov	eax, -1302611746
	jmp	.LBB9_161
.LBB9_169:                              
	movzx	ecx, byte ptr [rsp + 24]
	movzx	eax, byte ptr [rsp + 16]
	mov	edx, ecx
	xor	dl, al
	mov	edx, -1007896138
	mov	esi, 302041712
	cmovne	edx, esi
	test	al, al
	mov	eax, edx
	cmovne	eax, esi
	test	cl, cl
	cmove	eax, edx
	.p2align	4, 0x90
.LBB9_161:                              

	cmp	eax, 302041711
	jle	.LBB9_162

	cmp	eax, 302041712
	je	.LBB9_170

	cmp	eax, 1418783129
	jne	.LBB9_161
	jmp	.LBB9_167
	.p2align	4, 0x90
.LBB9_162:                              
	cmp	eax, -1302611746
	je	.LBB9_169

	cmp	eax, -1007896138
	jne	.LBB9_161

	lea	rdi, [rsp + 48]
	lea	rsi, [rsp + 40]
	call	_ZNKSt6bitsetILm64EE9to_stringIcSt11char_traitsIcESaIcEEENSt7__cxx1112basic_stringIT_T0_T1_EEv
	mov	eax, 302041712
	jmp	.LBB9_161
.LBB9_170:                              
	lea	rdi, [rsp + 48]
	lea	rsi, [rsp + 40]
	call	_ZNKSt6bitsetILm64EE9to_stringIcSt11char_traitsIcESaIcEEENSt7__cxx1112basic_stringIT_T0_T1_EEv
	mov	eax, dword ptr [rip + x.106]
	lea	ecx, [rax - 1]
	imul	ecx, eax
	mov	eax, ecx
	xor	eax, -2
	and	eax, ecx
	sete	cl
	test	eax, eax
	mov	eax, -1007896138
	mov	edi, 1418783129
	cmove	eax, edi
	cmp	dword ptr [rip + y.107], 10
	setl	dl
	mov	esi, -1007896138
	cmovge	eax, esi
	xor	dl, cl
	cmovne	eax, edi
	jmp	.LBB9_161
.LBB9_167:                              
	mov	rdi, r15
	lea	rbx, [rsp + 48]
	mov	rsi, rbx
	call	_ZNSt7__cxx1112basic_stringIcSt11char_traitsIcESaIcEEaSEOS4_
.Ltmp223:
	mov	rdi, rbx
	call	_ZNSt7__cxx1112basic_stringIcSt11char_traitsIcESaIcEE10_M_disposeEv
.Ltmp224:

	mov	rax, qword ptr [rsp + 96]
	mov	eax, 1154026856
	jmp	.LBB9_8
.LBB9_70:                               
	mov	eax, dword ptr [rip + x.210]
	mov	r8d, dword ptr [rip + y.211]
	mov	edx, eax
	neg	edx
	not	edx
	imul	edx, eax
	mov	esi, edx
	xor	esi, -2
	mov	eax, esi
	and	eax, edx
	sete	byte ptr [rsp + 24]
	sete	bl
	test	eax, eax
	mov	ebp, -1603436074
	mov	eax, -1303087394
	cmove	ebp, eax
	cmp	r8d, 10
	setl	cl
	setl	byte ptr [rsp + 16]
	mov	edi, -1603436074
	cmovge	ebp, edi
	xor	cl, bl
	cmovne	ebp, eax
	mov	edi, 1619041746
	mov	r9d, -967549546
	jmp	.LBB9_71
.LBB9_90:                               
	mov	qword ptr [rsp + 48], _ZN3DES23initialPermutationTableE
	mov	edi, ebp
	.p2align	4, 0x90
.LBB9_71:                               

	cmp	edi, -967549547
	jg	.LBB9_87

	cmp	edi, -1603436074
	je	.LBB9_91

	cmp	edi, -1303087394
	jne	.LBB9_71
	jmp	.LBB9_74
	.p2align	4, 0x90
.LBB9_87:                               
	cmp	edi, -967549546
	je	.LBB9_90

	cmp	edi, 1619041746
	jne	.LBB9_71

	movzx	eax, byte ptr [rsp + 24]
	movzx	ebx, byte ptr [rsp + 16]
	mov	ecx, eax
	xor	cl, bl
	mov	ecx, -1603436074
	cmovne	ecx, r9d
	test	bl, bl
	mov	edi, ecx
	cmovne	edi, r9d
	test	al, al
	cmove	edi, ecx
	jmp	.LBB9_71
.LBB9_91:                               
	mov	edi, -967549546
	jmp	.LBB9_71
.LBB9_47:                               
	mov	eax, dword ptr [rip + x.80]
	mov	ecx, dword ptr [rip + y.81]
	lea	edx, [rax - 1]
	imul	edx, eax
	not	edx
	or	edx, -2
	cmp	edx, -1
	sete	al
	cmp	ecx, 10
	setl	bl
	xor	bl, al
	mov	esi, -306970862
	mov	edi, 1154026856
	cmovne	esi, edi
	cmp	edx, -1
	mov	eax, esi
	cmove	eax, edi
	cmp	ecx, 10
	mov	rcx, qword ptr [rsp + 128]
	cmovge	eax, esi
	jmp	.LBB9_8
.LBB9_74:                               
	mov	r13, r12
	mov	r12, r15
	test	esi, edx
	mov	r15, qword ptr [rsp + 48]
	sete	byte ptr [rsp + 24]
	cmp	r8d, 10
	setl	byte ptr [rsp + 16]
	mov	edi, 1619041746
	jmp	.LBB9_75
.LBB9_95:                               
	mov	qword ptr [rsp + 48], _ZN3DES23initialPermutationTableE
	mov	edi, ebp
	.p2align	4, 0x90
.LBB9_75:                               

	cmp	edi, -967549547
	jg	.LBB9_92

	cmp	edi, -1603436074
	je	.LBB9_96

	cmp	edi, -1303087394
	jne	.LBB9_75
	jmp	.LBB9_78
	.p2align	4, 0x90
.LBB9_92:                               
	cmp	edi, -967549546
	je	.LBB9_95

	cmp	edi, 1619041746
	jne	.LBB9_75

	movzx	ebx, byte ptr [rsp + 24]
	movzx	ecx, byte ptr [rsp + 16]
	mov	eax, ebx
	xor	al, cl
	mov	eax, -1603436074
	cmovne	eax, r9d
	test	cl, cl
	mov	edi, eax
	cmovne	edi, r9d
	test	bl, bl
	cmove	edi, eax
	jmp	.LBB9_75
.LBB9_96:                               
	mov	edi, -967549546
	jmp	.LBB9_75
.LBB9_78:                               
	test	esi, edx
	mov	rdi, qword ptr [rsp + 48]
	sete	byte ptr [rsp + 24]
	cmp	r8d, 10
	setl	byte ptr [rsp + 16]
	mov	ecx, 1619041746
	jmp	.LBB9_79
.LBB9_100:                              
	mov	qword ptr [rsp + 48], _ZN3DES23initialPermutationTableE
	mov	ecx, ebp
	.p2align	4, 0x90
.LBB9_79:                               

	cmp	ecx, -967549547
	jg	.LBB9_97

	cmp	ecx, -1603436074
	je	.LBB9_101

	cmp	ecx, -1303087394
	jne	.LBB9_79
	jmp	.LBB9_82
	.p2align	4, 0x90
.LBB9_97:                               
	cmp	ecx, -967549546
	je	.LBB9_100

	cmp	ecx, 1619041746
	jne	.LBB9_79

	movzx	eax, byte ptr [rsp + 24]
	movzx	ecx, byte ptr [rsp + 16]
	mov	edx, eax
	xor	dl, cl
	mov	edx, -1603436074
	cmovne	edx, r9d
	test	cl, cl
	mov	ecx, edx
	cmovne	ecx, r9d
	test	al, al
	cmove	ecx, edx
	jmp	.LBB9_79
.LBB9_101:                              
	mov	ecx, -967549546
	jmp	.LBB9_79
.LBB9_82:                               
	mov	rsi, qword ptr [rsp + 48]
	mov	eax, dword ptr [rip + x.84]
	mov	ecx, dword ptr [rip + y.85]
	lea	edx, [rax - 1]
	imul	edx, eax
	mov	eax, edx
	xor	eax, -2
	and	eax, edx
	sete	dl
	sete	byte ptr [rsp + 24]
	cmp	ecx, 10
	setl	bl
	xor	bl, dl
	mov	edx, -1559444858
	mov	ebp, 2056606463
	cmovne	edx, ebp
	test	eax, eax
	mov	eax, edx
	cmove	eax, ebp
	cmp	ecx, 10
	setl	byte ptr [rsp + 16]
	cmovge	eax, edx
	mov	rcx, qword ptr [rsp + 88] 
	mov	r8, qword ptr [rcx]
	mov	edx, -2098656802
	jmp	.LBB9_83
.LBB9_109:                              
	movzx	ecx, byte ptr [rsp + 24]
	movzx	edx, byte ptr [rsp + 16]
	mov	ebx, ecx
	xor	bl, dl
	mov	ebx, -1559444858
	mov	ebp, 306072885
	cmovne	ebx, ebp
	test	dl, dl
	mov	edx, ebx
	cmovne	edx, ebp
	test	cl, cl
	cmove	edx, ebx
	.p2align	4, 0x90
.LBB9_83:                               

	cmp	edx, 306072884
	jle	.LBB9_84

	cmp	edx, 306072885
	je	.LBB9_110

	cmp	edx, 2056606463
	jne	.LBB9_83
	jmp	.LBB9_104
	.p2align	4, 0x90
.LBB9_84:                               
	cmp	edx, -2098656802
	je	.LBB9_109

	cmp	edx, -1559444858
	jne	.LBB9_83

	mov	edx, 306072885
	jmp	.LBB9_83
.LBB9_110:                              
	mov	qword ptr [rsp + 48], r8
	mov	edx, eax
	jmp	.LBB9_83
.LBB9_104:                              
	mov	rax, qword ptr [rsp + 48]
	mov	rcx, qword ptr [rsp + 80]
	mov	qword ptr [rsp + 16], rax
	mov	qword ptr [rsp + 24], rcx
	mov	eax, dword ptr [rip + x.218]
	mov	r8d, dword ptr [rip + y.219]
	mov	edx, eax
	neg	edx
	not	edx
	imul	edx, eax
	mov	ebp, edx
	xor	ebp, -2
	mov	eax, ebp
	and	eax, edx
	sete	bl
	sete	byte ptr [rsp + 15]
	cmp	r8d, 10
	setl	cl
	xor	cl, bl
	mov	ecx, -141576477
	mov	ebx, -808623260
	cmovne	ecx, ebx
	test	eax, eax
	mov	r9d, ecx
	cmove	r9d, ebx
	cmp	r8d, 10
	setl	byte ptr [rsp + 14]
	cmovge	r9d, ecx
	mov	eax, -557863778
	jmp	.LBB9_105
.LBB9_114:                              
	mov	eax, 727089142
	.p2align	4, 0x90
.LBB9_105:                              

	cmp	eax, -141576478
	jg	.LBB9_111

	cmp	eax, -808623260
	je	.LBB9_115

	cmp	eax, -557863778
	jne	.LBB9_105

	movzx	ebx, byte ptr [rsp + 15]
	movzx	eax, byte ptr [rsp + 14]
	mov	ecx, ebx
	xor	cl, al
	test	al, al
	mov	eax, -141576477
	mov	r10d, 727089142
	cmovne	eax, r10d
	test	bl, bl
	mov	ebx, -141576477
	cmove	eax, ebx
	test	cl, cl
	cmovne	eax, r10d
	jmp	.LBB9_105
	.p2align	4, 0x90
.LBB9_111:                              
	cmp	eax, -141576477
	je	.LBB9_114

	cmp	eax, 727089142
	jne	.LBB9_105

	lea	rax, [rsp + 24]
	mov	qword ptr [rsp + 48], rax
	mov	eax, r9d
	jmp	.LBB9_105
.LBB9_115:                              
	test	ebp, edx
	mov	rax, qword ptr [rsp + 48]
	mov	rdx, qword ptr [rax]
	sete	byte ptr [rsp + 15]
	cmp	r8d, 10
	setl	byte ptr [rsp + 14]
	mov	eax, -557863778
	mov	r14d, -2124313413
	jmp	.LBB9_116
.LBB9_123:                              
	mov	eax, 727089142
	.p2align	4, 0x90
.LBB9_116:                              

	cmp	eax, -141576478
	jg	.LBB9_120

	cmp	eax, -808623260
	je	.LBB9_124

	cmp	eax, -557863778
	jne	.LBB9_116

	movzx	ebx, byte ptr [rsp + 15]
	movzx	eax, byte ptr [rsp + 14]
	mov	ecx, ebx
	xor	cl, al
	test	al, al
	mov	eax, -141576477
	mov	r8d, 727089142
	cmovne	eax, r8d
	test	bl, bl
	mov	ebp, -141576477
	cmove	eax, ebp
	test	cl, cl
	cmovne	eax, r8d
	jmp	.LBB9_116
	.p2align	4, 0x90
.LBB9_120:                              
	cmp	eax, -141576477
	je	.LBB9_123

	cmp	eax, 727089142
	jne	.LBB9_116

	lea	rax, [rsp + 16]
	mov	qword ptr [rsp + 48], rax
	mov	eax, r9d
	jmp	.LBB9_116
.LBB9_124:                              
	mov	rax, qword ptr [rsp + 48]
	inc	rdx
	sub	rdx, qword ptr [rax]
	mov	qword ptr [rsp + 48], rdx
	mov	eax, dword ptr [rip + x.430]
	mov	ecx, dword ptr [rip + y.431]
	mov	edx, eax
	neg	edx
	not	edx
	imul	edx, eax
	not	edx
	or	edx, -2
	cmp	edx, -1
	sete	dl
	sete	byte ptr [rsp + 24]
	mov	eax, 964532507
	mov	ebp, 971800540
	cmove	eax, ebp
	cmp	ecx, 10
	setl	cl
	setl	byte ptr [rsp + 16]
	mov	ebx, 964532507
	cmovge	eax, ebx
	xor	cl, dl
	cmovne	eax, ebp
	mov	ecx, 333714691
	jmp	.LBB9_125
.LBB9_127:                              
	mov	ecx, eax
	.p2align	4, 0x90
.LBB9_125:                              

	mov	edx, ecx
	and	edx, 1073741823
	cmp	edx, 964532506
	jle	.LBB9_126

	cmp	edx, 964532507
	je	.LBB9_135

	cmp	edx, 971800540
	jne	.LBB9_125
	jmp	.LBB9_130
	.p2align	4, 0x90
.LBB9_126:                              
	cmp	edx, 287812674
	je	.LBB9_127

	cmp	edx, 333714691
	jne	.LBB9_125

	movzx	ebx, byte ptr [rsp + 24]
	movzx	ecx, byte ptr [rsp + 16]
	mov	edx, ebx
	xor	dl, cl
	test	cl, cl
	mov	ecx, 964532507
	mov	r8d, 287812674
	cmovne	ecx, r8d
	test	bl, bl
	mov	ebp, 964532507
	cmove	ecx, ebp
	test	dl, dl
	cmovne	ecx, r8d
	jmp	.LBB9_125
.LBB9_135:                              
	mov	ecx, 287812674
	jmp	.LBB9_125
.LBB9_130:                              
	add	rsi, 256
	lea	rdx, [rsp + 48]
	call	_ZSt9__find_ifIPKiN9__gnu_cxx5__ops16_Iter_equals_valIKlEEET_S7_S7_T0_St26random_access_iterator_tag
	movabs	rcx, -3486227960111380482
	add	rax, rcx
	sub	rax, r15
	sub	rax, rcx
	shr	rax, 2
	mov	esi, dword ptr [rsp + 108] 
	sub	esi, eax
	movabs	rax, 4295071889052167971
	add	esi, eax
	movsxd	rdx, esi
	cmp	rdx, 63
	mov	eax, 1791994750
	mov	ecx, -2012295445
	cmova	eax, ecx
	mov	ecx, -1404615657
	mov	r15, r12
	mov	r12, r13
	mov	r13d, -334892812
	mov	ebp, -845894381
	jmp	.LBB9_131
.LBB9_36:                               
	mov	rax, qword ptr [rsp + 144]
	mov	rcx, qword ptr [rsp + 136]
	mov	qword ptr [rax], rcx
	mov	eax, dword ptr [rip + x.88]
	mov	ecx, dword ptr [rip + y.89]
	lea	edx, [rax - 1]
	imul	edx, eax
	not	edx
	or	edx, -2
	cmp	edx, -1
	sete	dl
	sete	byte ptr [rsp + 14]
	mov	eax, -334892812
	cmove	eax, r14d
	cmp	ecx, 10
	setl	cl
	setl	byte ptr [rsp + 24]
	cmovge	eax, r13d
	xor	cl, dl
	cmovne	eax, r14d
	mov	rcx, qword ptr [rsp + 88] 
	mov	rsi, qword ptr [rcx]
	add	rsi, qword ptr [rcx + 8]
	mov	edx, 1258716355
	jmp	.LBB9_37
.LBB9_44:                               
	mov	edx, -845894381
	.p2align	4, 0x90
.LBB9_37:                               

	cmp	edx, -334892813
	jg	.LBB9_41

	cmp	edx, -2124313413
	je	.LBB9_45

	cmp	edx, -845894381
	jne	.LBB9_37

	mov	qword ptr [rsp + 48], rsi
	mov	edx, eax
	jmp	.LBB9_37
	.p2align	4, 0x90
.LBB9_41:                               
	cmp	edx, -334892812
	je	.LBB9_44

	cmp	edx, 1258716355
	jne	.LBB9_37

	movzx	ecx, byte ptr [rsp + 14]
	movzx	edx, byte ptr [rsp + 24]
	mov	ebx, ecx
	xor	bl, dl
	test	dl, dl
	mov	edx, -334892812
	cmovne	edx, ebp
	test	cl, cl
	cmove	edx, r13d
	test	bl, bl
	cmovne	edx, ebp
	jmp	.LBB9_37
.LBB9_45:                               
	mov	rax, qword ptr [rsp + 48]
	mov	qword ptr [rsp + 16], rax
	mov	rdi, r12
	lea	rsi, [rsp + 16]
	call	_ZN9__gnu_cxxltIPKcNSt7__cxx1112basic_stringIcSt11char_traitsIcESaIcEEEEEbRKNS_17__normal_iteratorIT_T0_EESE_
	mov	byte ptr [rsp + 39], al
	mov	eax, dword ptr [rip + x.80]
	mov	ecx, dword ptr [rip + y.81]
	lea	edx, [rax - 1]
	imul	edx, eax
	not	edx
	or	edx, -2
	cmp	edx, -1
	sete	al
	cmp	ecx, 10
	setl	bl
	xor	bl, al
	mov	esi, -249624989
	mov	edi, -1959249229
	cmovne	esi, edi
	cmp	edx, -1
	mov	eax, esi
	cmove	eax, edi
	cmp	ecx, 10
	cmovge	eax, esi
	jmp	.LBB9_8
	.p2align	4, 0x90
.LBB9_132:                              
	mov	ecx, eax
.LBB9_131:                              

	cmp	ecx, -1404615657
	je	.LBB9_132

	cmp	ecx, 1791994750
	je	.LBB9_139

	cmp	ecx, -2012295445
	jne	.LBB9_131
	jmp	.LBB9_138
.LBB9_139:                              
	mov	byte ptr [rsp + 16], 1
	mov	ecx, esi
	xor	ecx, 192
	and	ecx, esi
	mov	eax, 1

	shl	rax, cl
	mov	ecx, 1767195565
	jmp	.LBB9_140
.LBB9_148:                              
	mov	qword ptr [rsp + 40], rdx
	mov	ecx, -1430994869
	.p2align	4, 0x90
.LBB9_140:                              

	cmp	ecx, 1767195564
	jg	.LBB9_144

	cmp	ecx, -1430994869
	je	.LBB9_149

	cmp	ecx, 1197954228
	jne	.LBB9_140

	mov	rcx, qword ptr [rsp + 40]
	mov	rdx, qword ptr [rsp + 48]
	mov	rsi, rdx
	and	rsi, rcx
	xor	rdx, rcx
	or	rdx, rsi
	jmp	.LBB9_148
	.p2align	4, 0x90
.LBB9_144:                              
	cmp	ecx, 1880342992
	je	.LBB9_147

	cmp	ecx, 1767195565
	jne	.LBB9_140

	mov	qword ptr [rsp + 48], rax
	movzx	ecx, byte ptr [rsp + 16]
	test	cl, cl
	mov	ecx, 1880342992
	mov	edx, 1197954228
	cmovne	ecx, edx
	jmp	.LBB9_140
.LBB9_147:                              
	mov	rcx, qword ptr [rsp + 40]
	mov	rdx, qword ptr [rsp + 48]
	xor	rdx, rcx
	and	rdx, rcx
	jmp	.LBB9_148
.LBB9_149:                              
	mov	eax, -1888513385
	jmp	.LBB9_8
.LBB9_35:
	add	rsp, 168
	pop	rbx
	pop	r12
	pop	r13
	pop	r14
	pop	r15
	pop	rbp
	ret
.LBB9_138:
	mov	edi, .L.str.49
	mov	esi, .L.str.48
	mov	ecx, 64
	xor	eax, eax
	call	_ZSt24__throw_out_of_range_fmtPKcz
.LBB9_171:
.Ltmp225:
	mov	rdi, rax
	call	__cxa_call_unexpected
.LBB9_59:
.Ltmp228:
	mov	rdi, rax
	call	__cxa_call_unexpected
.Lfunc_end9:
	.size	_ZN3DES12initialPermuERKNSt7__cxx1112basic_stringIcSt11char_traitsIcESaIcEEE, .Lfunc_end9-_ZN3DES12initialPermuERKNSt7__cxx1112basic_stringIcSt11char_traitsIcESaIcEEE
	.cfi_endproc
	.section	.gcc_except_table,"a",@progbits
	.p2align	2
GCC_except_table9:
.Lexception7:
	.byte	255                     
	.byte	3                       
	.byte	69                      
	.byte	3                       
	.byte	65                      
	.long	.Lfunc_begin7-.Lfunc_begin7 
	.long	.Ltmp226-.Lfunc_begin7  
	.long	0                       
	.byte	0                       
	.long	.Ltmp226-.Lfunc_begin7  
	.long	.Ltmp227-.Ltmp226       
	.long	.Ltmp228-.Lfunc_begin7  
	.byte	1                       
	.long	.Ltmp227-.Lfunc_begin7  
	.long	.Ltmp223-.Ltmp227       
	.long	0                       
	.byte	0                       
	.long	.Ltmp223-.Lfunc_begin7  
	.long	.Ltmp224-.Ltmp223       
	.long	.Ltmp225-.Lfunc_begin7  
	.byte	1                       
	.long	.Ltmp224-.Lfunc_begin7  
	.long	.Lfunc_end9-.Ltmp224    
	.long	0                       
	.byte	0                       
	.byte	127                     

	.byte	0                       

	.byte	0
	.p2align	2

	.section	.text._ZN9__gnu_cxxltIPKcNSt7__cxx1112basic_stringIcSt11char_traitsIcESaIcEEEEEbRKNS_17__normal_iteratorIT_T0_EESE_,"axG",@progbits,_ZN9__gnu_cxxltIPKcNSt7__cxx1112basic_stringIcSt11char_traitsIcESaIcEEEEEbRKNS_17__normal_iteratorIT_T0_EESE_,comdat
	.weak	_ZN9__gnu_cxxltIPKcNSt7__cxx1112basic_stringIcSt11char_traitsIcESaIcEEEEEbRKNS_17__normal_iteratorIT_T0_EESE_ 
	.p2align	4, 0x90
	.type	_ZN9__gnu_cxxltIPKcNSt7__cxx1112basic_stringIcSt11char_traitsIcESaIcEEEEEbRKNS_17__normal_iteratorIT_T0_EESE_,@function
_ZN9__gnu_cxxltIPKcNSt7__cxx1112basic_stringIcSt11char_traitsIcESaIcEEEEEbRKNS_17__normal_iteratorIT_T0_EESE_: 

	push	rbp
	push	r15
	push	r14
	push	r12
	push	rbx
	mov	eax, dword ptr [rip + x.86]
	mov	ecx, dword ptr [rip + y.87]
	mov	edx, eax
	neg	edx
	not	edx
	imul	edx, eax
	not	edx
	or	edx, -2
	cmp	edx, -1
	sete	al
	cmp	ecx, 10
	setl	bl
	xor	bl, al
	mov	r15d, 221712256
	mov	r8d, -1700529928
	mov	ebp, -1700529928
	cmovne	ebp, r15d
	cmp	edx, -1
	sete	byte ptr [rsp - 11]
	cmovne	r15d, ebp
	cmp	ecx, 10
	setl	byte ptr [rsp - 10]
	cmovge	r15d, ebp
	mov	edx, -1758656860
	mov	r11d, -808623260
	mov	r9d, -141576477
	mov	r14d, 727089142
	mov	r10d, -2004651209
	jmp	.LBB10_1
.LBB10_4:                               
	mov	cl, byte ptr [rsp - 11]
	mov	dl, byte ptr [rsp - 10]
	mov	ebx, ecx
	xor	bl, dl
	test	dl, dl
	mov	edx, -1700529928
	cmovne	edx, r10d
	test	cl, cl
	cmove	edx, r8d
	test	bl, bl
	cmovne	edx, r10d
	.p2align	4, 0x90
.LBB10_1:                               




	cmp	edx, -1700529929
	jle	.LBB10_2

	cmp	edx, -1700529928
	je	.LBB10_27

	cmp	edx, 221712256
	jne	.LBB10_1
	jmp	.LBB10_7
	.p2align	4, 0x90
.LBB10_2:                               
	cmp	edx, -2004651209
	je	.LBB10_8

	cmp	edx, -1758656860
	jne	.LBB10_1
	jmp	.LBB10_4
.LBB10_27:                              
	mov	eax, dword ptr [rip + x.218]
	mov	r12d, dword ptr [rip + y.219]
	lea	ebp, [rax - 1]
	imul	ebp, eax
	mov	eax, ebp
	not	eax
	or	eax, -2
	cmp	eax, -1
	sete	cl
	cmp	r12d, 10
	setl	byte ptr [rsp - 12]
	setl	dl
	xor	dl, cl
	mov	ecx, -141576477
	cmovne	ecx, r11d
	cmp	eax, -1
	sete	byte ptr [rsp - 13]
	mov	edx, ecx
	cmove	edx, r11d
	cmp	r12d, 10
	cmovge	edx, ecx
	and	ebp, 1
	mov	ecx, -557863778
	jmp	.LBB10_28
.LBB10_8:                               
	mov	ecx, dword ptr [rip + x.218]
	mov	r12d, dword ptr [rip + y.219]
	lea	ebp, [rcx - 1]
	imul	ebp, ecx
	mov	ecx, ebp
	not	ecx
	or	ecx, -2
	cmp	ecx, -1
	sete	dl
	cmp	r12d, 10
	setl	byte ptr [rsp - 12]
	setl	al
	xor	al, dl
	mov	eax, -141576477
	cmovne	eax, r11d
	cmp	ecx, -1
	sete	byte ptr [rsp - 13]
	mov	ecx, eax
	cmove	ecx, r11d
	cmp	r12d, 10
	cmovge	ecx, eax
	and	ebp, 1
	mov	edx, -557863778
	jmp	.LBB10_9
.LBB10_31:                              
	movzx	ebx, byte ptr [rsp - 13]
	movzx	ecx, byte ptr [rsp - 12]
	mov	eax, ebx
	xor	al, cl
	mov	eax, -141576477
	cmovne	eax, r14d
	test	cl, cl
	mov	ecx, eax
	cmovne	ecx, r14d
	test	bl, bl
	cmove	ecx, eax
	.p2align	4, 0x90
.LBB10_28:                              

	cmp	ecx, -141576478
	jg	.LBB10_32

	cmp	ecx, -808623260
	je	.LBB10_36

	cmp	ecx, -557863778
	jne	.LBB10_28
	jmp	.LBB10_31
	.p2align	4, 0x90
.LBB10_32:                              
	cmp	ecx, -141576477
	je	.LBB10_35

	cmp	ecx, 727089142
	jne	.LBB10_28

	mov	qword ptr [rsp - 8], rdi
	mov	ecx, edx
	jmp	.LBB10_28
.LBB10_35:                              
	mov	ecx, 727089142
	jmp	.LBB10_28
.LBB10_12:                              
	movzx	ebx, byte ptr [rsp - 13]
	movzx	edx, byte ptr [rsp - 12]
	mov	eax, ebx
	xor	al, dl
	test	dl, dl
	mov	edx, -141576477
	cmovne	edx, r14d
	test	bl, bl
	cmove	edx, r9d
	test	al, al
	cmovne	edx, r14d
	.p2align	4, 0x90
.LBB10_9:                               

	cmp	edx, -141576478
	jg	.LBB10_13

	cmp	edx, -808623260
	je	.LBB10_17

	cmp	edx, -557863778
	jne	.LBB10_9
	jmp	.LBB10_12
	.p2align	4, 0x90
.LBB10_13:                              
	cmp	edx, -141576477
	je	.LBB10_16

	cmp	edx, 727089142
	jne	.LBB10_9

	mov	qword ptr [rsp - 8], rdi
	mov	edx, ecx
	jmp	.LBB10_9
.LBB10_16:                              
	mov	edx, 727089142
	jmp	.LBB10_9
.LBB10_36:                              
	test	ebp, ebp
	mov	rax, qword ptr [rsp - 8]
	sete	byte ptr [rsp - 13]
	cmp	r12d, 10
	setl	byte ptr [rsp - 12]
	mov	ecx, -557863778
	jmp	.LBB10_37
.LBB10_17:                              
	test	ebp, ebp
	mov	rax, qword ptr [rsp - 8]
	mov	rbp, qword ptr [rax]
	sete	byte ptr [rsp - 13]
	cmp	r12d, 10
	setl	byte ptr [rsp - 12]
	mov	edx, -557863778
	jmp	.LBB10_18
.LBB10_40:                              
	movzx	eax, byte ptr [rsp - 13]
	movzx	ecx, byte ptr [rsp - 12]
	mov	ebx, eax
	xor	bl, cl
	test	cl, cl
	mov	ecx, -141576477
	cmovne	ecx, r14d
	test	al, al
	cmove	ecx, r9d
	test	bl, bl
	cmovne	ecx, r14d
	.p2align	4, 0x90
.LBB10_37:                              

	cmp	ecx, -141576478
	jg	.LBB10_41

	cmp	ecx, -808623260
	je	.LBB10_45

	cmp	ecx, -557863778
	jne	.LBB10_37
	jmp	.LBB10_40
	.p2align	4, 0x90
.LBB10_41:                              
	cmp	ecx, -141576477
	je	.LBB10_44

	cmp	ecx, 727089142
	jne	.LBB10_37

	mov	qword ptr [rsp - 8], rsi
	mov	ecx, edx
	jmp	.LBB10_37
.LBB10_44:                              
	mov	ecx, 727089142
	jmp	.LBB10_37
.LBB10_21:                              
	movzx	eax, byte ptr [rsp - 13]
	movzx	edx, byte ptr [rsp - 12]
	mov	ebx, eax
	xor	bl, dl
	test	dl, dl
	mov	edx, -141576477
	cmovne	edx, r14d
	test	al, al
	cmove	edx, r9d
	test	bl, bl
	cmovne	edx, r14d
	.p2align	4, 0x90
.LBB10_18:                              

	cmp	edx, -141576478
	jg	.LBB10_22

	cmp	edx, -808623260
	je	.LBB10_26

	cmp	edx, -557863778
	jne	.LBB10_18
	jmp	.LBB10_21
	.p2align	4, 0x90
.LBB10_22:                              
	cmp	edx, -141576477
	je	.LBB10_25

	cmp	edx, 727089142
	jne	.LBB10_18

	mov	qword ptr [rsp - 8], rsi
	mov	edx, ecx
	jmp	.LBB10_18
.LBB10_25:                              
	mov	edx, 727089142
	jmp	.LBB10_18
.LBB10_45:                              
	mov	rax, qword ptr [rsp - 8]
	mov	edx, -2004651209
	jmp	.LBB10_1
.LBB10_26:                              
	mov	rax, qword ptr [rsp - 8]
	cmp	rbp, qword ptr [rax]
	setb	byte ptr [rsp - 9]
	mov	edx, r15d
	jmp	.LBB10_1
.LBB10_7:
	mov	al, byte ptr [rsp - 9]
	pop	rbx
	pop	r12
	pop	r14
	pop	r15
	pop	rbp
	ret
.Lfunc_end10:
	.size	_ZN9__gnu_cxxltIPKcNSt7__cxx1112basic_stringIcSt11char_traitsIcESaIcEEEEEbRKNS_17__normal_iteratorIT_T0_EESE_, .Lfunc_end10-_ZN9__gnu_cxxltIPKcNSt7__cxx1112basic_stringIcSt11char_traitsIcESaIcEEEEEbRKNS_17__normal_iteratorIT_T0_EESE_

	.text
	.globl	_ZN3DES10finalPermuERKNSt7__cxx1112basic_stringIcSt11char_traitsIcESaIcEEE 
	.p2align	4, 0x90
	.type	_ZN3DES10finalPermuERKNSt7__cxx1112basic_stringIcSt11char_traitsIcESaIcEEE,@function
_ZN3DES10finalPermuERKNSt7__cxx1112basic_stringIcSt11char_traitsIcESaIcEEE: 
.Lfunc_begin8:
	.cfi_startproc
	.cfi_personality 3, __gxx_personality_v0
	.cfi_lsda 3, .Lexception8

	push	rbp
.Lcfi65:
	.cfi_def_cfa_offset 16
	push	r15
.Lcfi66:
	.cfi_def_cfa_offset 24
	push	r14
.Lcfi67:
	.cfi_def_cfa_offset 32
	push	r13
.Lcfi68:
	.cfi_def_cfa_offset 40
	push	r12
.Lcfi69:
	.cfi_def_cfa_offset 48
	push	rbx
.Lcfi70:
	.cfi_def_cfa_offset 56
	sub	rsp, 168
.Lcfi71:
	.cfi_def_cfa_offset 224
.Lcfi72:
	.cfi_offset rbx, -56
.Lcfi73:
	.cfi_offset r12, -48
.Lcfi74:
	.cfi_offset r13, -40
.Lcfi75:
	.cfi_offset r14, -32
.Lcfi76:
	.cfi_offset r15, -24
.Lcfi77:
	.cfi_offset rbp, -16
	mov	r15, rsi
	mov	qword ptr [rsp + 136], rdi 
	lea	rax, [rsp + 160]
	mov	qword ptr [rsp + 144], rax
	lea	rax, [rsp + 80]
	mov	qword ptr [rsp + 120], rax
	mov	rax, qword ptr [rsp + 120]
	mov	qword ptr [rsp + 80], 0
	lea	rax, [rsp + 40]
	mov	qword ptr [rsp + 128], rax
	mov	rax, qword ptr [rsp + 128]
	mov	eax, dword ptr [rip + x.84]
	mov	ecx, dword ptr [rip + y.85]
	mov	edx, eax
	neg	edx
	not	edx
	imul	edx, eax
	not	edx
	or	edx, -2
	cmp	edx, -1
	sete	dl
	sete	byte ptr [rsp + 24]
	mov	esi, 2056606463
	mov	edi, -1559444858
	mov	eax, -1559444858
	cmove	eax, esi
	cmp	ecx, 10
	setl	cl
	setl	byte ptr [rsp + 16]
	cmovge	eax, edi
	xor	cl, dl
	cmovne	eax, esi
	mov	rbp, qword ptr [r15]
	mov	esi, -2098656802
	mov	edi, 306072885
	jmp	.LBB11_1
.LBB11_14:                              
	movzx	ecx, byte ptr [rsp + 24]
	movzx	edx, byte ptr [rsp + 16]
	mov	ebx, ecx
	xor	bl, dl
	mov	ebx, -1559444858
	cmovne	ebx, edi
	test	dl, dl
	mov	esi, ebx
	cmovne	esi, edi
	test	cl, cl
	cmove	esi, ebx
	.p2align	4, 0x90
.LBB11_1:                               
	cmp	esi, 306072884
	jle	.LBB11_2

	cmp	esi, 306072885
	je	.LBB11_15

	cmp	esi, 2056606463
	jne	.LBB11_1
	jmp	.LBB11_7
	.p2align	4, 0x90
.LBB11_2:                               
	cmp	esi, -2098656802
	je	.LBB11_14

	cmp	esi, -1559444858
	jne	.LBB11_1

	mov	esi, 306072885
	jmp	.LBB11_1
.LBB11_15:                              
	mov	qword ptr [rsp + 48], rbp
	mov	esi, eax
	jmp	.LBB11_1
.LBB11_7:
	movabs	rcx, 2175507234299851068
	mov	rax, qword ptr [rsp + 48]
	mov	qword ptr [rsp + 112], rax 
	mov	eax, 2042626050
	mov	edx, 63
	sub	edx, ecx
	mov	dword ptr [rsp + 100], edx 
	mov	r12d, -470363259
	mov	r14d, 727089142
	mov	r13d, -967549546
	lea	rcx, [rsp + 40]
	mov	qword ptr [rsp + 104], rcx 
	jmp	.LBB11_8
.LBB11_71:                              
	cmovge	eax, edi
	xor	dl, cl
	cmovne	eax, esi
	.p2align	4, 0x90
.LBB11_8:                               























	cmp	eax, 703046566
	jle	.LBB11_9

	cmp	eax, 1409615635
	jle	.LBB11_28

	cmp	eax, 1651198106
	jg	.LBB11_40

	cmp	eax, 1409615636
	je	.LBB11_151

	cmp	eax, 1491219561
	jne	.LBB11_8

	mov	eax, dword ptr [rip + x.104]
	mov	ecx, dword ptr [rip + y.105]
	mov	edx, eax
	neg	edx
	not	edx
	imul	edx, eax
	not	edx
	or	edx, -2
	cmp	edx, -1
	sete	dl
	sete	byte ptr [rsp + 24]
	mov	eax, 885081172
	mov	esi, 1128268725
	cmove	eax, esi
	cmp	ecx, 10
	setl	cl
	setl	byte ptr [rsp + 16]
	mov	edi, 885081172
	cmovge	eax, edi
	xor	cl, dl
	cmovne	eax, esi
	mov	ecx, -727860805
	jmp	.LBB11_36
	.p2align	4, 0x90
.LBB11_9:                               
	cmp	eax, -21242572
	jg	.LBB11_23

	cmp	eax, -1535926520
	jg	.LBB11_16

	cmp	eax, -2001137686
	je	.LBB11_157

	cmp	eax, -1882157357
	jne	.LBB11_8

	mov	al, byte ptr [rsp + 39]
	test	al, al
	mov	eax, 1409615636
	mov	ecx, -807331516
	cmovne	eax, ecx
	jmp	.LBB11_8
	.p2align	4, 0x90
.LBB11_23:                              
	cmp	eax, -21242571
	je	.LBB11_60

	cmp	eax, 78567160
	je	.LBB11_167

	cmp	eax, 534745006
	jne	.LBB11_8

	mov	rax, qword ptr [rsp + 144]
	mov	qword ptr [rsp + 104], rax 
	mov	rax, qword ptr [rsp + 152]
	mov	qword ptr [rsp + 112], rax 
	mov	eax, 2042626050
	jmp	.LBB11_8
	.p2align	4, 0x90
.LBB11_28:                              
	cmp	eax, 703046567
	je	.LBB11_59

	cmp	eax, 819275224
	je	.LBB11_72

	cmp	eax, 1287884221
	jne	.LBB11_8

	mov	eax, 1409615636
	jmp	.LBB11_8
.LBB11_40:                              
	cmp	eax, 1651198107
	je	.LBB11_245

	cmp	eax, 2042626050
	jne	.LBB11_8

	mov	rax, qword ptr [rsp + 112] 
	mov	rcx, qword ptr [rsp + 104] 
	mov	qword ptr [rcx], rax
	mov	eax, dword ptr [rip + x.88]
	mov	ecx, dword ptr [rip + y.89]
	lea	edx, [rax - 1]
	imul	edx, eax
	not	edx
	or	edx, -2
	cmp	edx, -1
	sete	al
	cmp	ecx, 10
	setl	bl
	xor	bl, al
	mov	esi, -334892812
	mov	edi, -2124313413
	cmovne	esi, edi
	cmp	edx, -1
	sete	byte ptr [rsp + 24]
	mov	eax, esi
	cmove	eax, edi
	cmp	ecx, 10
	setl	byte ptr [rsp + 16]
	cmovge	eax, esi
	mov	rsi, qword ptr [r15]
	add	rsi, qword ptr [r15 + 8]
	mov	edx, 1258716355
	jmp	.LBB11_43
.LBB11_16:                              
	cmp	eax, -807331516
	je	.LBB11_70

	cmp	eax, -1535926519
	jne	.LBB11_8
	jmp	.LBB11_18
.LBB11_155:                             
	mov	rcx, qword ptr [rsp + 40]
	lea	rdx, [rcx + 1]
	mov	qword ptr [rsp + 40], rdx
	mov	qword ptr [rsp + 48], rcx
	mov	ecx, eax
	.p2align	4, 0x90
.LBB11_36:                              

	cmp	ecx, 885081171
	jle	.LBB11_37

	cmp	ecx, 885081172
	je	.LBB11_156

	cmp	ecx, 1128268725
	jne	.LBB11_36
	jmp	.LBB11_154
	.p2align	4, 0x90
.LBB11_37:                              
	cmp	ecx, -1885389000
	je	.LBB11_155

	cmp	ecx, -727860805
	jne	.LBB11_36

	movzx	ebx, byte ptr [rsp + 24]
	movzx	ecx, byte ptr [rsp + 16]
	mov	edx, ebx
	xor	dl, cl
	test	cl, cl
	mov	ecx, 885081172
	mov	edi, -1885389000
	cmovne	ecx, edi
	test	bl, bl
	mov	esi, 885081172
	cmove	ecx, esi
	test	dl, dl
	cmovne	ecx, edi
	jmp	.LBB11_36
.LBB11_156:                             
	inc	qword ptr [rsp + 40]
	mov	ecx, -1885389000
	jmp	.LBB11_36
.LBB11_70:                              
	mov	eax, dword ptr [rip + x.108]
	mov	ecx, eax
	neg	ecx
	not	ecx
	imul	ecx, eax
	not	ecx
	or	ecx, -2
	cmp	ecx, -1
	sete	cl
	mov	eax, 78567160
	mov	esi, 819275224
	cmove	eax, esi
	cmp	dword ptr [rip + y.109], 10
	setl	dl
	mov	edi, 78567160
	jmp	.LBB11_71
.LBB11_50:                              
	mov	edx, -845894381
	.p2align	4, 0x90
.LBB11_43:                              

	cmp	edx, -334892813
	jg	.LBB11_47

	cmp	edx, -2124313413
	je	.LBB11_51

	cmp	edx, -845894381
	jne	.LBB11_43

	mov	qword ptr [rsp + 48], rsi
	mov	edx, eax
	jmp	.LBB11_43
	.p2align	4, 0x90
.LBB11_47:                              
	cmp	edx, -334892812
	je	.LBB11_50

	cmp	edx, 1258716355
	jne	.LBB11_43

	movzx	ecx, byte ptr [rsp + 24]
	movzx	edx, byte ptr [rsp + 16]
	mov	ebx, ecx
	xor	bl, dl
	test	dl, dl
	mov	edx, -334892812
	mov	edi, -845894381
	cmovne	edx, edi
	test	cl, cl
	mov	ecx, -334892812
	cmove	edx, ecx
	test	bl, bl
	cmovne	edx, edi
	jmp	.LBB11_43
.LBB11_154:                             
	mov	rdi, qword ptr [rsp + 48]
	mov	eax, dword ptr [rip + x.108]
	mov	edx, dword ptr [rip + y.109]
	mov	esi, eax
	neg	esi
	not	esi
	imul	esi, eax
	mov	eax, esi
	xor	eax, -2
	and	eax, esi
	sete	bl
	cmp	edx, 10
	setl	cl
	xor	cl, bl
	mov	ecx, 1651198107
	mov	esi, 534745006
	cmovne	ecx, esi
	test	eax, eax
	mov	eax, ecx
	cmove	eax, esi
	cmp	edx, 10
	mov	qword ptr [rsp + 152], rdi
	cmovge	eax, ecx
	jmp	.LBB11_8
.LBB11_51:                              
	lea	rdi, [rsp + 40]
	lea	rsi, [rsp + 48]
	call	_ZN9__gnu_cxxltIPKcNSt7__cxx1112basic_stringIcSt11char_traitsIcESaIcEEEEEbRKNS_17__normal_iteratorIT_T0_EESE_
	test	al, al
	mov	eax, -1535926519
	mov	ecx, 703046567
	cmovne	eax, ecx
	jmp	.LBB11_8
.LBB11_157:                             
	mov	eax, dword ptr [rip + x.90]
	mov	ecx, dword ptr [rip + y.91]
	lea	edx, [rax - 1]
	imul	edx, eax
	mov	eax, edx
	xor	eax, -2
	and	eax, edx
	sete	dl
	sete	byte ptr [rsp + 24]
	test	eax, eax
	mov	eax, -470363259
	mov	esi, -338361297
	cmove	eax, esi
	cmp	ecx, 10
	setl	cl
	setl	byte ptr [rsp + 16]
	cmovge	eax, r12d
	xor	cl, dl
	cmovne	eax, esi
	mov	edx, -334273138
	mov	rsi, qword ptr [rsp + 40]
	jmp	.LBB11_158
.LBB11_165:                             
	mov	qword ptr [rsp + 48], rsi
	mov	edx, eax
	.p2align	4, 0x90
.LBB11_158:                             

	cmp	edx, -334273139
	jg	.LBB11_162

	cmp	edx, -470363259
	je	.LBB11_166

	cmp	edx, -338361297
	jne	.LBB11_158
	jmp	.LBB11_161
	.p2align	4, 0x90
.LBB11_162:                             
	cmp	edx, 890861893
	je	.LBB11_165

	cmp	edx, -334273138
	jne	.LBB11_158

	movzx	ecx, byte ptr [rsp + 24]
	movzx	edx, byte ptr [rsp + 16]
	mov	ebx, ecx
	xor	bl, dl
	test	dl, dl
	mov	edx, -470363259
	mov	edi, 890861893
	cmovne	edx, edi
	test	cl, cl
	cmove	edx, r12d
	test	bl, bl
	cmovne	edx, edi
	jmp	.LBB11_158
.LBB11_166:                             
	mov	edx, 890861893
	jmp	.LBB11_158
.LBB11_161:                             
	mov	rax, qword ptr [rsp + 48]
	mov	eax, -21242571
	jmp	.LBB11_8
.LBB11_151:                             
	mov	eax, dword ptr [rip + x.108]
	mov	ecx, eax
	neg	ecx
	not	ecx
	imul	ecx, eax
	not	ecx
	or	ecx, -2
	cmp	ecx, -1
	sete	cl
	mov	eax, 1651198107
	mov	esi, 1491219561
	cmove	eax, esi
	cmp	dword ptr [rip + y.109], 10
	setl	dl
	mov	edi, 1651198107
	jmp	.LBB11_71
.LBB11_245:                             
	mov	eax, dword ptr [rip + x.104]
	mov	ecx, dword ptr [rip + y.105]
	lea	edx, [rax - 1]
	imul	edx, eax
	not	edx
	or	edx, -2
	cmp	edx, -1
	sete	al
	cmp	ecx, 10
	setl	bl
	xor	bl, al
	mov	esi, 885081172
	mov	edi, 1128268725
	cmovne	esi, edi
	cmp	edx, -1
	sete	byte ptr [rsp + 24]
	mov	eax, esi
	cmove	eax, edi
	cmp	ecx, 10
	setl	byte ptr [rsp + 16]
	cmovge	eax, esi
	mov	ecx, -727860805
	jmp	.LBB11_246
.LBB11_253:                             
	mov	rcx, qword ptr [rsp + 40]
	lea	rdx, [rcx + 1]
	mov	qword ptr [rsp + 40], rdx
	mov	qword ptr [rsp + 48], rcx
	mov	ecx, eax
	.p2align	4, 0x90
.LBB11_246:                             

	cmp	ecx, 885081171
	jle	.LBB11_247

	cmp	ecx, 885081172
	je	.LBB11_254

	cmp	ecx, 1128268725
	jne	.LBB11_246
	jmp	.LBB11_252
	.p2align	4, 0x90
.LBB11_247:                             
	cmp	ecx, -1885389000
	je	.LBB11_253

	cmp	ecx, -727860805
	jne	.LBB11_246

	movzx	ebx, byte ptr [rsp + 24]
	movzx	ecx, byte ptr [rsp + 16]
	mov	edx, ebx
	xor	dl, cl
	test	cl, cl
	mov	ecx, 885081172
	mov	edi, -1885389000
	cmovne	ecx, edi
	test	bl, bl
	mov	esi, 885081172
	cmove	ecx, esi
	test	dl, dl
	cmovne	ecx, edi
	jmp	.LBB11_246
.LBB11_254:                             
	inc	qword ptr [rsp + 40]
	mov	ecx, -1885389000
	jmp	.LBB11_246
.LBB11_252:                             
	mov	rax, qword ptr [rsp + 48]
	mov	eax, 1491219561
	jmp	.LBB11_8
.LBB11_60:                              
	mov	eax, dword ptr [rip + x.90]
	mov	ecx, dword ptr [rip + y.91]
	lea	edx, [rax - 1]
	imul	edx, eax
	mov	eax, edx
	xor	eax, -2
	and	eax, edx
	sete	dl
	sete	byte ptr [rsp + 24]
	test	eax, eax
	mov	eax, -470363259
	mov	esi, -338361297
	cmove	eax, esi
	cmp	ecx, 10
	setl	cl
	setl	byte ptr [rsp + 16]
	cmovge	eax, r12d
	xor	cl, dl
	cmovne	eax, esi
	mov	edx, -334273138
	mov	rsi, qword ptr [rsp + 40]
	jmp	.LBB11_61
.LBB11_68:                              
	mov	qword ptr [rsp + 48], rsi
	mov	edx, eax
	.p2align	4, 0x90
.LBB11_61:                              

	cmp	edx, -334273139
	jg	.LBB11_65

	cmp	edx, -470363259
	je	.LBB11_69

	cmp	edx, -338361297
	jne	.LBB11_61
	jmp	.LBB11_64
	.p2align	4, 0x90
.LBB11_65:                              
	cmp	edx, 890861893
	je	.LBB11_68

	cmp	edx, -334273138
	jne	.LBB11_61

	movzx	ecx, byte ptr [rsp + 24]
	movzx	edx, byte ptr [rsp + 16]
	mov	ebx, ecx
	xor	bl, dl
	test	dl, dl
	mov	edx, -470363259
	mov	edi, 890861893
	cmovne	edx, edi
	test	cl, cl
	cmove	edx, r12d
	test	bl, bl
	cmovne	edx, edi
	jmp	.LBB11_61
.LBB11_69:                              
	mov	edx, 890861893
	jmp	.LBB11_61
.LBB11_167:                             
	mov	eax, dword ptr [rip + x.210]
	mov	r8d, dword ptr [rip + y.211]
	lea	edx, [rax - 1]
	imul	edx, eax
	mov	esi, edx
	xor	esi, -2
	mov	eax, esi
	and	eax, edx
	sete	bl
	sete	byte ptr [rsp + 24]
	cmp	r8d, 10
	setl	cl
	xor	cl, bl
	mov	ecx, -1603436074
	mov	edi, -1303087394
	cmovne	ecx, edi
	test	eax, eax
	mov	ebp, ecx
	cmove	ebp, edi
	cmp	r8d, 10
	setl	byte ptr [rsp + 16]
	cmovge	ebp, ecx
	mov	edi, 1619041746
	jmp	.LBB11_168
.LBB11_187:                             
	mov	qword ptr [rsp + 48], _ZN3DES21finalPermutationTableE
	mov	edi, ebp
	.p2align	4, 0x90
.LBB11_168:                             

	cmp	edi, -967549547
	jg	.LBB11_184

	cmp	edi, -1603436074
	je	.LBB11_188

	cmp	edi, -1303087394
	jne	.LBB11_168
	jmp	.LBB11_171
	.p2align	4, 0x90
.LBB11_184:                             
	cmp	edi, -967549546
	je	.LBB11_187

	cmp	edi, 1619041746
	jne	.LBB11_168

	movzx	eax, byte ptr [rsp + 24]
	movzx	ebx, byte ptr [rsp + 16]
	mov	ecx, eax
	xor	cl, bl
	mov	ecx, -1603436074
	cmovne	ecx, r13d
	test	bl, bl
	mov	edi, ecx
	cmovne	edi, r13d
	test	al, al
	cmove	edi, ecx
	jmp	.LBB11_168
.LBB11_188:                             
	mov	edi, -967549546
	jmp	.LBB11_168
.LBB11_64:                              
	mov	rcx, qword ptr [rsp + 48]
	mov	eax, dword ptr [rip + x.108]
	mov	edx, dword ptr [rip + y.109]
	lea	esi, [rax - 1]
	imul	esi, eax
	not	esi
	or	esi, -2
	cmp	esi, -1
	sete	al
	cmp	edx, 10
	setl	bl
	xor	bl, al
	mov	edi, -2001137686
	mov	ebp, -1882157357
	cmovne	edi, ebp
	cmp	esi, -1
	mov	eax, edi
	cmove	eax, ebp
	cmp	edx, 10
	cmovge	eax, edi
	cmp	byte ptr [rcx], 49
	sete	byte ptr [rsp + 39]
	jmp	.LBB11_8
.LBB11_171:                             
	test	esi, edx
	mov	r12, qword ptr [rsp + 48]
	sete	byte ptr [rsp + 24]
	cmp	r8d, 10
	setl	byte ptr [rsp + 16]
	mov	edi, 1619041746
	jmp	.LBB11_172
.LBB11_192:                             
	mov	qword ptr [rsp + 48], _ZN3DES21finalPermutationTableE
	mov	edi, ebp
	.p2align	4, 0x90
.LBB11_172:                             

	cmp	edi, -967549547
	jg	.LBB11_189

	cmp	edi, -1603436074
	je	.LBB11_193

	cmp	edi, -1303087394
	jne	.LBB11_172
	jmp	.LBB11_175
	.p2align	4, 0x90
.LBB11_189:                             
	cmp	edi, -967549546
	je	.LBB11_192

	cmp	edi, 1619041746
	jne	.LBB11_172

	movzx	ebx, byte ptr [rsp + 24]
	movzx	ecx, byte ptr [rsp + 16]
	mov	eax, ebx
	xor	al, cl
	mov	eax, -1603436074
	cmovne	eax, r13d
	test	cl, cl
	mov	edi, eax
	cmovne	edi, r13d
	test	bl, bl
	cmove	edi, eax
	jmp	.LBB11_172
.LBB11_193:                             
	mov	edi, -967549546
	jmp	.LBB11_172
.LBB11_175:                             
	test	esi, edx
	mov	rdi, qword ptr [rsp + 48]
	sete	byte ptr [rsp + 24]
	cmp	r8d, 10
	setl	byte ptr [rsp + 16]
	mov	ecx, 1619041746
	jmp	.LBB11_176
.LBB11_197:                             
	mov	qword ptr [rsp + 48], _ZN3DES21finalPermutationTableE
	mov	ecx, ebp
	.p2align	4, 0x90
.LBB11_176:                             

	cmp	ecx, -967549547
	jg	.LBB11_194

	cmp	ecx, -1603436074
	je	.LBB11_198

	cmp	ecx, -1303087394
	jne	.LBB11_176
	jmp	.LBB11_179
	.p2align	4, 0x90
.LBB11_194:                             
	cmp	ecx, -967549546
	je	.LBB11_197

	cmp	ecx, 1619041746
	jne	.LBB11_176

	movzx	eax, byte ptr [rsp + 24]
	movzx	ecx, byte ptr [rsp + 16]
	mov	edx, eax
	xor	dl, cl
	mov	edx, -1603436074
	cmovne	edx, r13d
	test	cl, cl
	mov	ecx, edx
	cmovne	ecx, r13d
	test	al, al
	cmove	ecx, edx
	jmp	.LBB11_176
.LBB11_198:                             
	mov	ecx, -967549546
	jmp	.LBB11_176
.LBB11_179:                             
	mov	rsi, qword ptr [rsp + 48]
	mov	eax, dword ptr [rip + x.84]
	mov	ecx, dword ptr [rip + y.85]
	lea	edx, [rax - 1]
	imul	edx, eax
	mov	eax, edx
	xor	eax, -2
	and	eax, edx
	sete	dl
	sete	byte ptr [rsp + 24]
	test	eax, eax
	mov	eax, -1559444858
	mov	ebp, 2056606463
	cmove	eax, ebp
	cmp	ecx, 10
	setl	cl
	setl	byte ptr [rsp + 16]
	mov	ebx, -1559444858
	cmovge	eax, ebx
	xor	cl, dl
	cmovne	eax, ebp
	mov	r8, qword ptr [r15]
	mov	edx, -2098656802
	jmp	.LBB11_180
.LBB11_206:                             
	movzx	ecx, byte ptr [rsp + 24]
	movzx	edx, byte ptr [rsp + 16]
	mov	ebx, ecx
	xor	bl, dl
	mov	ebx, -1559444858
	mov	ebp, 306072885
	cmovne	ebx, ebp
	test	dl, dl
	mov	edx, ebx
	cmovne	edx, ebp
	test	cl, cl
	cmove	edx, ebx
	.p2align	4, 0x90
.LBB11_180:                             

	cmp	edx, 306072884
	jle	.LBB11_181

	cmp	edx, 306072885
	je	.LBB11_207

	cmp	edx, 2056606463
	jne	.LBB11_180
	jmp	.LBB11_201
	.p2align	4, 0x90
.LBB11_181:                             
	cmp	edx, -2098656802
	je	.LBB11_206

	cmp	edx, -1559444858
	jne	.LBB11_180

	mov	edx, 306072885
	jmp	.LBB11_180
.LBB11_207:                             
	mov	qword ptr [rsp + 48], r8
	mov	edx, eax
	jmp	.LBB11_180
.LBB11_201:                             
	mov	rax, qword ptr [rsp + 48]
	mov	rcx, qword ptr [rsp + 40]
	mov	qword ptr [rsp + 16], rax
	mov	qword ptr [rsp + 24], rcx
	mov	eax, dword ptr [rip + x.218]
	mov	r8d, dword ptr [rip + y.219]
	lea	r10d, [rax - 1]
	imul	r10d, eax
	mov	r9d, r10d
	xor	r9d, -2
	mov	eax, r9d
	and	eax, r10d
	sete	byte ptr [rsp + 14]
	sete	bl
	test	eax, eax
	mov	ebp, -141576477
	mov	eax, -808623260
	cmove	ebp, eax
	cmp	r8d, 10
	setl	cl
	setl	byte ptr [rsp + 15]
	mov	edx, -141576477
	cmovge	ebp, edx
	xor	cl, bl
	cmovne	ebp, eax
	mov	ebx, -557863778
	jmp	.LBB11_202
.LBB11_211:                             
	mov	ebx, 727089142
	.p2align	4, 0x90
.LBB11_202:                             

	cmp	ebx, -141576478
	jg	.LBB11_208

	cmp	ebx, -808623260
	je	.LBB11_212

	cmp	ebx, -557863778
	jne	.LBB11_202

	movzx	edx, byte ptr [rsp + 14]
	movzx	ebx, byte ptr [rsp + 15]
	mov	ecx, edx
	xor	cl, bl
	mov	ecx, -141576477
	cmovne	ecx, r14d
	test	bl, bl
	mov	ebx, ecx
	cmovne	ebx, r14d
	test	dl, dl
	cmove	ebx, ecx
	jmp	.LBB11_202
	.p2align	4, 0x90
.LBB11_208:                             
	cmp	ebx, -141576477
	je	.LBB11_211

	cmp	ebx, 727089142
	jne	.LBB11_202

	lea	rax, [rsp + 24]
	mov	qword ptr [rsp + 48], rax
	mov	ebx, ebp
	jmp	.LBB11_202
.LBB11_212:                             
	test	r9d, r10d
	mov	rcx, qword ptr [rsp + 48]
	mov	rdx, qword ptr [rcx]
	sete	byte ptr [rsp + 14]
	cmp	r8d, 10
	setl	byte ptr [rsp + 15]
	mov	ecx, -557863778
	jmp	.LBB11_213
.LBB11_220:                             
	mov	ecx, 727089142
	.p2align	4, 0x90
.LBB11_213:                             

	cmp	ecx, -141576478
	jg	.LBB11_217

	cmp	ecx, -808623260
	je	.LBB11_221

	cmp	ecx, -557863778
	jne	.LBB11_213

	movzx	eax, byte ptr [rsp + 14]
	movzx	ecx, byte ptr [rsp + 15]
	mov	ebx, eax
	xor	bl, cl
	test	cl, cl
	mov	ecx, -141576477
	cmovne	ecx, r14d
	test	al, al
	mov	eax, -141576477
	cmove	ecx, eax
	test	bl, bl
	cmovne	ecx, r14d
	jmp	.LBB11_213
	.p2align	4, 0x90
.LBB11_217:                             
	cmp	ecx, -141576477
	je	.LBB11_220

	cmp	ecx, 727089142
	jne	.LBB11_213

	lea	rax, [rsp + 16]
	mov	qword ptr [rsp + 48], rax
	mov	ecx, ebp
	jmp	.LBB11_213
.LBB11_221:                             
	mov	rax, qword ptr [rsp + 48]
	inc	rdx
	movabs	rcx, -101605222628394077
	sub	rdx, rcx
	sub	rdx, qword ptr [rax]
	add	rdx, rcx
	mov	qword ptr [rsp + 88], rdx
	mov	eax, dword ptr [rip + x.430]
	mov	ecx, dword ptr [rip + y.431]
	mov	edx, eax
	neg	edx
	not	edx
	imul	edx, eax
	not	edx
	or	edx, -2
	cmp	edx, -1
	sete	dl
	sete	byte ptr [rsp + 16]
	mov	eax, 964532507
	mov	ebp, 971800540
	cmove	eax, ebp
	cmp	ecx, 10
	setl	cl
	setl	byte ptr [rsp + 48]
	mov	ebx, 964532507
	cmovge	eax, ebx
	xor	cl, dl
	cmovne	eax, ebp
	mov	ecx, 333714691
	jmp	.LBB11_222
.LBB11_224:                             
	mov	ecx, eax
	.p2align	4, 0x90
.LBB11_222:                             

	mov	edx, ecx
	and	edx, 1073741823
	cmp	edx, 964532506
	jle	.LBB11_223

	cmp	edx, 964532507
	je	.LBB11_232

	cmp	edx, 971800540
	jne	.LBB11_222
	jmp	.LBB11_227
	.p2align	4, 0x90
.LBB11_223:                             
	cmp	edx, 287812674
	je	.LBB11_224

	cmp	edx, 333714691
	jne	.LBB11_222

	movzx	ebx, byte ptr [rsp + 16]
	movzx	ecx, byte ptr [rsp + 48]
	mov	edx, ebx
	xor	dl, cl
	test	cl, cl
	mov	ecx, 964532507
	mov	r8d, 287812674
	cmovne	ecx, r8d
	test	bl, bl
	mov	ebp, 964532507
	cmove	ecx, ebp
	test	dl, dl
	cmovne	ecx, r8d
	jmp	.LBB11_222
.LBB11_232:                             
	mov	ecx, 287812674
	jmp	.LBB11_222
.LBB11_227:                             
	add	rsi, 256
	lea	rdx, [rsp + 88]
	call	_ZSt9__find_ifIPKiN9__gnu_cxx5__ops16_Iter_equals_valIKlEEET_S7_S7_T0_St26random_access_iterator_tag
	movabs	rcx, -4613446490249207052
	add	rax, rcx
	sub	rax, r12
	sub	rax, rcx
	shr	rax, 2
	mov	esi, dword ptr [rsp + 100] 
	sub	esi, eax
	movabs	rax, 2175507234299851068
	add	esi, eax
	movsxd	rdx, esi
	cmp	rdx, 63
	mov	eax, 1791994750
	mov	ecx, -2012295445
	cmova	eax, ecx
	mov	ecx, -1404615657
	mov	r12d, -470363259
	jmp	.LBB11_228
.LBB11_59:                              
	mov	eax, dword ptr [rip + x.108]
	lea	ecx, [rax - 1]
	imul	ecx, eax
	not	ecx
	or	ecx, -2
	cmp	ecx, -1
	sete	cl
	mov	eax, -2001137686
	mov	edi, -21242571
	cmove	eax, edi
	cmp	dword ptr [rip + y.109], 10
	setl	dl
	mov	esi, -2001137686
	cmovge	eax, esi
	xor	dl, cl
	cmovne	eax, edi
	jmp	.LBB11_8
.LBB11_72:                              
	mov	eax, dword ptr [rip + x.210]
	mov	r8d, dword ptr [rip + y.211]
	mov	edx, eax
	neg	edx
	not	edx
	imul	edx, eax
	mov	eax, edx
	not	eax
	or	eax, -2
	cmp	eax, -1
	sete	bl
	cmp	r8d, 10
	setl	byte ptr [rsp + 16]
	setl	cl
	xor	cl, bl
	mov	ecx, -1603436074
	mov	esi, -1303087394
	cmovne	ecx, esi
	cmp	eax, -1
	sete	byte ptr [rsp + 24]
	mov	ebp, ecx
	cmove	ebp, esi
	cmp	r8d, 10
	cmovge	ebp, ecx
	and	edx, 1
	mov	esi, 1619041746
	jmp	.LBB11_73
.LBB11_92:                              
	mov	qword ptr [rsp + 48], _ZN3DES21finalPermutationTableE
	mov	esi, ebp
	.p2align	4, 0x90
.LBB11_73:                              

	cmp	esi, -967549547
	jg	.LBB11_89

	cmp	esi, -1603436074
	je	.LBB11_93

	cmp	esi, -1303087394
	jne	.LBB11_73
	jmp	.LBB11_76
	.p2align	4, 0x90
.LBB11_89:                              
	cmp	esi, -967549546
	je	.LBB11_92

	cmp	esi, 1619041746
	jne	.LBB11_73

	movzx	eax, byte ptr [rsp + 24]
	movzx	ebx, byte ptr [rsp + 16]
	mov	ecx, eax
	xor	cl, bl
	test	bl, bl
	mov	esi, -1603436074
	cmovne	esi, r13d
	test	al, al
	mov	eax, -1603436074
	cmove	esi, eax
	test	cl, cl
	cmovne	esi, r13d
	jmp	.LBB11_73
.LBB11_93:                              
	mov	esi, -967549546
	jmp	.LBB11_73
.LBB11_76:                              
	test	edx, edx
	mov	r12, qword ptr [rsp + 48]
	sete	byte ptr [rsp + 24]
	cmp	r8d, 10
	setl	byte ptr [rsp + 16]
	mov	esi, 1619041746
	jmp	.LBB11_77
.LBB11_97:                              
	mov	qword ptr [rsp + 48], _ZN3DES21finalPermutationTableE
	mov	esi, ebp
	.p2align	4, 0x90
.LBB11_77:                              

	cmp	esi, -967549547
	jg	.LBB11_94

	cmp	esi, -1603436074
	je	.LBB11_98

	cmp	esi, -1303087394
	jne	.LBB11_77
	jmp	.LBB11_80
	.p2align	4, 0x90
.LBB11_94:                              
	cmp	esi, -967549546
	je	.LBB11_97

	cmp	esi, 1619041746
	jne	.LBB11_77

	movzx	ebx, byte ptr [rsp + 24]
	movzx	ecx, byte ptr [rsp + 16]
	mov	eax, ebx
	xor	al, cl
	test	cl, cl
	mov	esi, -1603436074
	cmovne	esi, r13d
	test	bl, bl
	mov	ecx, -1603436074
	cmove	esi, ecx
	test	al, al
	cmovne	esi, r13d
	jmp	.LBB11_77
.LBB11_98:                              
	mov	esi, -967549546
	jmp	.LBB11_77
.LBB11_80:                              
	test	edx, edx
	mov	rdi, qword ptr [rsp + 48]
	sete	byte ptr [rsp + 24]
	cmp	r8d, 10
	setl	byte ptr [rsp + 16]
	mov	ecx, 1619041746
	jmp	.LBB11_81
.LBB11_102:                             
	mov	qword ptr [rsp + 48], _ZN3DES21finalPermutationTableE
	mov	ecx, ebp
	.p2align	4, 0x90
.LBB11_81:                              

	cmp	ecx, -967549547
	jg	.LBB11_99

	cmp	ecx, -1603436074
	je	.LBB11_103

	cmp	ecx, -1303087394
	jne	.LBB11_81
	jmp	.LBB11_84
	.p2align	4, 0x90
.LBB11_99:                              
	cmp	ecx, -967549546
	je	.LBB11_102

	cmp	ecx, 1619041746
	jne	.LBB11_81

	movzx	eax, byte ptr [rsp + 24]
	movzx	ecx, byte ptr [rsp + 16]
	mov	edx, eax
	xor	dl, cl
	mov	edx, -1603436074
	cmovne	edx, r13d
	test	cl, cl
	mov	ecx, edx
	cmovne	ecx, r13d
	test	al, al
	cmove	ecx, edx
	jmp	.LBB11_81
.LBB11_103:                             
	mov	ecx, -967549546
	jmp	.LBB11_81
.LBB11_84:                              
	mov	rsi, qword ptr [rsp + 48]
	mov	eax, dword ptr [rip + x.84]
	mov	ecx, dword ptr [rip + y.85]
	mov	edx, eax
	neg	edx
	not	edx
	imul	edx, eax
	not	edx
	or	edx, -2
	cmp	edx, -1
	sete	byte ptr [rsp + 24]
	sete	dl
	mov	eax, -1559444858
	mov	ebp, 2056606463
	cmove	eax, ebp
	cmp	ecx, 10
	setl	cl
	setl	byte ptr [rsp + 16]
	mov	ebx, -1559444858
	cmovge	eax, ebx
	xor	cl, dl
	cmovne	eax, ebp
	mov	r8, qword ptr [r15]
	mov	edx, -2098656802
	jmp	.LBB11_85
.LBB11_111:                             
	movzx	ecx, byte ptr [rsp + 24]
	movzx	edx, byte ptr [rsp + 16]
	mov	ebx, ecx
	xor	bl, dl
	mov	ebx, -1559444858
	mov	ebp, 306072885
	cmovne	ebx, ebp
	test	dl, dl
	mov	edx, ebx
	cmovne	edx, ebp
	test	cl, cl
	cmove	edx, ebx
	.p2align	4, 0x90
.LBB11_85:                              

	cmp	edx, 306072884
	jle	.LBB11_86

	cmp	edx, 306072885
	je	.LBB11_112

	cmp	edx, 2056606463
	jne	.LBB11_85
	jmp	.LBB11_106
	.p2align	4, 0x90
.LBB11_86:                              
	cmp	edx, -2098656802
	je	.LBB11_111

	cmp	edx, -1559444858
	jne	.LBB11_85

	mov	edx, 306072885
	jmp	.LBB11_85
.LBB11_112:                             
	mov	qword ptr [rsp + 48], r8
	mov	edx, eax
	jmp	.LBB11_85
.LBB11_106:                             
	mov	rax, qword ptr [rsp + 48]
	mov	rcx, qword ptr [rsp + 40]
	mov	qword ptr [rsp + 16], rax
	mov	qword ptr [rsp + 24], rcx
	mov	eax, dword ptr [rip + x.218]
	mov	r8d, dword ptr [rip + y.219]
	lea	edx, [rax - 1]
	imul	edx, eax
	mov	ebp, edx
	xor	ebp, -2
	mov	eax, ebp
	and	eax, edx
	sete	cl
	sete	byte ptr [rsp + 14]
	cmp	r8d, 10
	setl	bl
	xor	bl, cl
	mov	ecx, -141576477
	mov	ebx, -808623260
	cmovne	ecx, ebx
	test	eax, eax
	mov	r9d, ecx
	cmove	r9d, ebx
	cmp	r8d, 10
	setl	byte ptr [rsp + 15]
	cmovge	r9d, ecx
	mov	eax, -557863778
	jmp	.LBB11_107
.LBB11_116:                             
	mov	eax, 727089142
	.p2align	4, 0x90
.LBB11_107:                             

	cmp	eax, -141576478
	jg	.LBB11_113

	cmp	eax, -808623260
	je	.LBB11_117

	cmp	eax, -557863778
	jne	.LBB11_107

	movzx	ebx, byte ptr [rsp + 14]
	movzx	eax, byte ptr [rsp + 15]
	mov	ecx, ebx
	xor	cl, al
	test	al, al
	mov	eax, -141576477
	cmovne	eax, r14d
	test	bl, bl
	mov	ebx, -141576477
	cmove	eax, ebx
	test	cl, cl
	cmovne	eax, r14d
	jmp	.LBB11_107
	.p2align	4, 0x90
.LBB11_113:                             
	cmp	eax, -141576477
	je	.LBB11_116

	cmp	eax, 727089142
	jne	.LBB11_107

	lea	rax, [rsp + 24]
	mov	qword ptr [rsp + 48], rax
	mov	eax, r9d
	jmp	.LBB11_107
.LBB11_117:                             
	test	ebp, edx
	mov	rax, qword ptr [rsp + 48]
	mov	rdx, qword ptr [rax]
	sete	byte ptr [rsp + 14]
	cmp	r8d, 10
	setl	byte ptr [rsp + 15]
	mov	eax, -557863778
	jmp	.LBB11_118
.LBB11_125:                             
	mov	eax, 727089142
	.p2align	4, 0x90
.LBB11_118:                             

	cmp	eax, -141576478
	jg	.LBB11_122

	cmp	eax, -808623260
	je	.LBB11_126

	cmp	eax, -557863778
	jne	.LBB11_118

	movzx	ebx, byte ptr [rsp + 14]
	movzx	eax, byte ptr [rsp + 15]
	mov	ecx, ebx
	xor	cl, al
	mov	ecx, -141576477
	cmovne	ecx, r14d
	test	al, al
	mov	eax, ecx
	cmovne	eax, r14d
	test	bl, bl
	cmove	eax, ecx
	jmp	.LBB11_118
	.p2align	4, 0x90
.LBB11_122:                             
	cmp	eax, -141576477
	je	.LBB11_125

	cmp	eax, 727089142
	jne	.LBB11_118

	lea	rax, [rsp + 16]
	mov	qword ptr [rsp + 48], rax
	mov	eax, r9d
	jmp	.LBB11_118
.LBB11_126:                             
	mov	rax, qword ptr [rsp + 48]
	movabs	rcx, -1195999705790091277
	mov	rbp, rcx
	lea	rcx, [rdx + rbp + 1]
	sub	rcx, rbp
	movabs	rdx, -4834011589691326613
	sub	rcx, rdx
	sub	rcx, qword ptr [rax]
	add	rcx, rdx
	mov	qword ptr [rsp + 88], rcx
	mov	eax, dword ptr [rip + x.430]
	mov	ecx, dword ptr [rip + y.431]
	lea	edx, [rax - 1]
	imul	edx, eax
	not	edx
	or	edx, -2
	cmp	edx, -1
	sete	al
	cmp	ecx, 10
	setl	bl
	xor	bl, al
	mov	eax, 964532507
	mov	ebx, 971800540
	cmovne	eax, ebx
	cmp	edx, -1
	sete	byte ptr [rsp + 16]
	mov	ebp, eax
	cmove	ebp, ebx
	cmp	ecx, 10
	setl	byte ptr [rsp + 48]
	cmovge	ebp, eax
	mov	ecx, 333714691
	jmp	.LBB11_127
.LBB11_129:                             
	mov	ecx, ebp
	.p2align	4, 0x90
.LBB11_127:                             

	mov	edx, ecx
	and	edx, 1073741823
	cmp	edx, 964532506
	jle	.LBB11_128

	cmp	edx, 964532507
	je	.LBB11_137

	cmp	edx, 971800540
	jne	.LBB11_127
	jmp	.LBB11_132
	.p2align	4, 0x90
.LBB11_128:                             
	cmp	edx, 287812674
	je	.LBB11_129

	cmp	edx, 333714691
	jne	.LBB11_127

	movzx	eax, byte ptr [rsp + 16]
	movzx	ecx, byte ptr [rsp + 48]
	mov	edx, eax
	xor	dl, cl
	mov	edx, 964532507
	mov	ebx, 287812674
	cmovne	edx, ebx
	test	cl, cl
	mov	ecx, edx
	cmovne	ecx, ebx
	test	al, al
	cmove	ecx, edx
	jmp	.LBB11_127
.LBB11_137:                             
	mov	ecx, 287812674
	jmp	.LBB11_127
.LBB11_132:                             
	add	rsi, 256
	lea	rdx, [rsp + 88]
	call	_ZSt9__find_ifIPKiN9__gnu_cxx5__ops16_Iter_equals_valIKlEEET_S7_S7_T0_St26random_access_iterator_tag
	movabs	rcx, 6660052018937043608
	add	rax, rcx
	sub	rax, r12
	sub	rax, rcx
	shr	rax, 2
	mov	ecx, 63
	movabs	rdx, 6512694406394141006
	sub	ecx, edx
	sub	ecx, eax
	add	ecx, edx
	movsxd	rdx, ecx
	cmp	rdx, 63
	mov	eax, 1791994750
	mov	esi, -2012295445
	cmova	eax, esi
	mov	esi, -1404615657
	mov	r12d, -470363259
	jmp	.LBB11_133
	.p2align	4, 0x90
.LBB11_229:                             
	mov	ecx, eax
.LBB11_228:                             

	cmp	ecx, -1404615657
	je	.LBB11_229

	cmp	ecx, 1791994750
	je	.LBB11_235

	cmp	ecx, -2012295445
	jne	.LBB11_228
	jmp	.LBB11_140
.LBB11_235:                             
	mov	byte ptr [rsp + 16], 1
	mov	ecx, esi
	xor	ecx, 192
	and	ecx, esi
	mov	r8d, 1

	shl	r8, cl
	mov	ecx, 1767195565
	jmp	.LBB11_236
.LBB11_243:                             
	mov	rcx, qword ptr [rsp + 80]
	mov	rdx, qword ptr [rsp + 48]
	xor	rdx, rcx
	and	rdx, rcx
	mov	qword ptr [rsp + 80], rdx
	mov	ecx, -1430994869
	.p2align	4, 0x90
.LBB11_236:                             

	cmp	ecx, 1767195564
	jg	.LBB11_240

	cmp	ecx, -1430994869
	je	.LBB11_244

	cmp	ecx, 1197954228
	jne	.LBB11_236

	mov	rcx, qword ptr [rsp + 80]
	mov	rdx, qword ptr [rsp + 48]
	mov	rsi, rdx
	not	rsi
	mov	rdi, rcx
	not	rdi
	movabs	rbp, 3541889877450074856
	mov	rax, rbp
	not	rbp
	mov	rbx, rsi
	and	rbx, rax
	and	rdx, rbp
	or	rdx, rbx
	or	rsi, rdi
	and	rdi, rax
	and	rcx, rbp
	or	rcx, rdi
	xor	rcx, rdx
	not	rsi
	or	rbp, rax
	and	rbp, rsi
	or	rbp, rcx
	mov	qword ptr [rsp + 80], rbp
	mov	ecx, -1430994869
	jmp	.LBB11_236
	.p2align	4, 0x90
.LBB11_240:                             
	cmp	ecx, 1880342992
	je	.LBB11_243

	cmp	ecx, 1767195565
	jne	.LBB11_236

	mov	qword ptr [rsp + 48], r8
	movzx	ecx, byte ptr [rsp + 16]
	test	cl, cl
	mov	ecx, 1880342992
	mov	eax, 1197954228
	cmovne	ecx, eax
	jmp	.LBB11_236
.LBB11_244:                             
	mov	eax, 819275224
	jmp	.LBB11_8
	.p2align	4, 0x90
.LBB11_134:                             
	mov	esi, eax
.LBB11_133:                             

	cmp	esi, -1404615657
	je	.LBB11_134

	cmp	esi, 1791994750
	je	.LBB11_141

	cmp	esi, -2012295445
	jne	.LBB11_133
	jmp	.LBB11_140
.LBB11_141:                             
	mov	byte ptr [rsp + 16], 1
	movabs	rax, 172256634597223650
	mov	rdx, rax
	not	eax
	or	eax, edx
	and	ecx, eax
	mov	r8d, 1

	shl	r8, cl
	mov	ecx, 1767195565
	jmp	.LBB11_142
.LBB11_149:                             
	mov	rcx, qword ptr [rsp + 48]
	mov	rdx, rcx
	not	rdx
	movabs	rsi, 9203391827605184820
	and	rdx, rsi
	not	rsi
	and	rcx, rsi
	or	rcx, rdx
	xor	rcx, rsi
	mov	rdx, qword ptr [rsp + 80]
	not	rdx
	not	rcx
	or	rcx, rdx
	movabs	rdx, 8958714528312934605
	mov	rsi, rdx
	not	rdx
	or	rdx, rsi
	not	rcx
	and	rcx, rdx
	mov	qword ptr [rsp + 80], rcx
	mov	ecx, -1430994869
	.p2align	4, 0x90
.LBB11_142:                             

	cmp	ecx, 1767195564
	jg	.LBB11_146

	cmp	ecx, -1430994869
	je	.LBB11_150

	cmp	ecx, 1197954228
	jne	.LBB11_142

	mov	rcx, qword ptr [rsp + 80]
	mov	rdx, qword ptr [rsp + 48]
	mov	rsi, rdx
	not	rsi
	mov	rdi, rcx
	not	rdi
	movabs	rbp, 2312391067523606823
	mov	rax, rbp
	not	rbp
	mov	rbx, rsi
	and	rbx, rax
	and	rdx, rbp
	or	rdx, rbx
	or	rsi, rdi
	and	rdi, rax
	and	rcx, rbp
	or	rcx, rdi
	xor	rcx, rdx
	not	rsi
	or	rbp, rax
	and	rbp, rsi
	or	rbp, rcx
	mov	qword ptr [rsp + 80], rbp
	mov	ecx, -1430994869
	jmp	.LBB11_142
	.p2align	4, 0x90
.LBB11_146:                             
	cmp	ecx, 1880342992
	je	.LBB11_149

	cmp	ecx, 1767195565
	jne	.LBB11_142

	mov	qword ptr [rsp + 48], r8
	movzx	ecx, byte ptr [rsp + 16]
	test	cl, cl
	mov	ecx, 1880342992
	mov	eax, 1197954228
	cmovne	ecx, eax
	jmp	.LBB11_142
.LBB11_150:                             
	mov	eax, dword ptr [rip + x.108]
	mov	ecx, dword ptr [rip + y.109]
	lea	edx, [rax - 1]
	imul	edx, eax
	mov	eax, edx
	xor	eax, -2
	and	eax, edx
	sete	dl
	cmp	ecx, 10
	setl	bl
	xor	bl, dl
	mov	edx, 78567160
	mov	esi, 1287884221
	cmovne	edx, esi
	test	eax, eax
	mov	eax, edx
	cmove	eax, esi
	cmp	ecx, 10
	cmovge	eax, edx
	jmp	.LBB11_8
.LBB11_18:
	mov	rax, qword ptr [rsp + 128]
	mov	eax, dword ptr [rip + x.106]
	mov	ecx, dword ptr [rip + y.107]
	lea	edx, [rax - 1]
	imul	edx, eax
	mov	eax, edx
	xor	eax, -2
	test	eax, edx
	sete	byte ptr [rsp + 24]
	cmp	ecx, 10
	setl	byte ptr [rsp + 16]
	mov	eax, -1302611746
	mov	r14d, 302041712
	mov	r12d, -1007896138
	lea	r15, [rsp + 48]
	lea	rbx, [rsp + 80]
	mov	ebp, 1418783129
	jmp	.LBB11_19
.LBB11_56:                              
	movzx	ecx, byte ptr [rsp + 24]
	movzx	eax, byte ptr [rsp + 16]
	mov	edx, ecx
	xor	dl, al
	test	al, al
	mov	eax, -1007896138
	cmovne	eax, r14d
	test	cl, cl
	cmove	eax, r12d
	test	dl, dl
	cmovne	eax, r14d
	.p2align	4, 0x90
.LBB11_19:                              
	cmp	eax, 302041711
	jle	.LBB11_20

	cmp	eax, 302041712
	je	.LBB11_57

	cmp	eax, 1418783129
	jne	.LBB11_19
	jmp	.LBB11_54
	.p2align	4, 0x90
.LBB11_20:                              
	cmp	eax, -1302611746
	je	.LBB11_56

	cmp	eax, -1007896138
	jne	.LBB11_19

	mov	rdi, r15
	mov	rsi, rbx
	call	_ZNKSt6bitsetILm64EE9to_stringIcSt11char_traitsIcESaIcEEENSt7__cxx1112basic_stringIT_T0_T1_EEv
	mov	eax, 302041712
	jmp	.LBB11_19
.LBB11_57:                              
	mov	rdi, r15
	mov	rsi, rbx
	call	_ZNKSt6bitsetILm64EE9to_stringIcSt11char_traitsIcESaIcEEENSt7__cxx1112basic_stringIT_T0_T1_EEv
	mov	eax, dword ptr [rip + x.106]
	lea	ecx, [rax - 1]
	imul	ecx, eax
	mov	eax, ecx
	xor	eax, -2
	and	eax, ecx
	sete	cl
	test	eax, eax
	mov	eax, -1007896138
	cmove	eax, ebp
	cmp	dword ptr [rip + y.107], 10
	setl	dl
	cmovge	eax, r12d
	xor	dl, cl
	cmovne	eax, ebp
	jmp	.LBB11_19
.LBB11_54:
	mov	rdi, qword ptr [rsp + 136] 
	add	rdi, 40
	lea	rbx, [rsp + 48]
	mov	rsi, rbx
	call	_ZNSt7__cxx1112basic_stringIcSt11char_traitsIcESaIcEEaSEOS4_
.Ltmp229:
	mov	rdi, rbx
	call	_ZNSt7__cxx1112basic_stringIcSt11char_traitsIcESaIcEE10_M_disposeEv
.Ltmp230:

	mov	rax, qword ptr [rsp + 120]
	add	rsp, 168
	pop	rbx
	pop	r12
	pop	r13
	pop	r14
	pop	r15
	pop	rbp
	ret
.LBB11_140:
	mov	edi, .L.str.49
	mov	esi, .L.str.48
	mov	ecx, 64
	xor	eax, eax
	call	_ZSt24__throw_out_of_range_fmtPKcz
.LBB11_58:
.Ltmp231:
	mov	rdi, rax
	call	__cxa_call_unexpected
.Lfunc_end11:
	.size	_ZN3DES10finalPermuERKNSt7__cxx1112basic_stringIcSt11char_traitsIcESaIcEEE, .Lfunc_end11-_ZN3DES10finalPermuERKNSt7__cxx1112basic_stringIcSt11char_traitsIcESaIcEEE
	.cfi_endproc
	.section	.gcc_except_table,"a",@progbits
	.p2align	2
GCC_except_table11:
.Lexception8:
	.byte	255                     
	.byte	3                       
	.asciz	"\253\200"              
	.byte	3                       
	.byte	39                      
	.long	.Lfunc_begin8-.Lfunc_begin8 
	.long	.Ltmp229-.Lfunc_begin8  
	.long	0                       
	.byte	0                       
	.long	.Ltmp229-.Lfunc_begin8  
	.long	.Ltmp230-.Ltmp229       
	.long	.Ltmp231-.Lfunc_begin8  
	.byte	1                       
	.long	.Ltmp230-.Lfunc_begin8  
	.long	.Lfunc_end11-.Ltmp230   
	.long	0                       
	.byte	0                       
	.byte	127                     

	.byte	0                       

	.byte	0
	.p2align	2

	.text
	.globl	_ZN3DES14expansionPermuERKNSt7__cxx1112basic_stringIcSt11char_traitsIcESaIcEEE 
	.p2align	4, 0x90
	.type	_ZN3DES14expansionPermuERKNSt7__cxx1112basic_stringIcSt11char_traitsIcESaIcEEE,@function
_ZN3DES14expansionPermuERKNSt7__cxx1112basic_stringIcSt11char_traitsIcESaIcEEE: 
.Lfunc_begin9:
	.cfi_startproc
	.cfi_personality 3, __gxx_personality_v0
	.cfi_lsda 3, .Lexception9

	push	rbp
.Lcfi78:
	.cfi_def_cfa_offset 16
	push	r15
.Lcfi79:
	.cfi_def_cfa_offset 24
	push	r14
.Lcfi80:
	.cfi_def_cfa_offset 32
	push	r13
.Lcfi81:
	.cfi_def_cfa_offset 40
	push	r12
.Lcfi82:
	.cfi_def_cfa_offset 48
	push	rbx
.Lcfi83:
	.cfi_def_cfa_offset 56
	sub	rsp, 72
.Lcfi84:
	.cfi_def_cfa_offset 128
.Lcfi85:
	.cfi_offset rbx, -56
.Lcfi86:
	.cfi_offset r12, -48
.Lcfi87:
	.cfi_offset r13, -40
.Lcfi88:
	.cfi_offset r14, -32
.Lcfi89:
	.cfi_offset r15, -24
.Lcfi90:
	.cfi_offset rbp, -16
	mov	r14, rdi
	mov	eax, dword ptr [rip + x.110]
	mov	ecx, dword ptr [rip + y.111]
	lea	edx, [rax - 1]
	imul	edx, eax
	not	edx
	or	edx, -2
	cmp	edx, -1
	sete	dl
	sete	byte ptr [rsp + 14]
	mov	ebp, -275537174
	mov	edi, 502916628
	mov	eax, 502916628
	cmove	eax, ebp
	cmp	ecx, 10
	setl	cl
	setl	byte ptr [rsp + 16]
	cmovge	eax, edi
	xor	cl, dl
	cmovne	eax, ebp
	mov	qword ptr [rsp + 64], rsi 
	mov	rbp, qword ptr [rsi + 8]
	mov	esi, -2001064944
	mov	edi, 1638077408
	jmp	.LBB12_1
.LBB12_52:                              
	movzx	ecx, byte ptr [rsp + 14]
	movzx	edx, byte ptr [rsp + 16]
	mov	ebx, ecx
	xor	bl, dl
	mov	ebx, 502916628
	cmovne	ebx, edi
	test	dl, dl
	mov	esi, ebx
	cmovne	esi, edi
	test	cl, cl
	cmove	esi, ebx
	.p2align	4, 0x90
.LBB12_1:                               
	cmp	esi, 502916627
	jg	.LBB12_6

	cmp	esi, -2001064944
	je	.LBB12_52

	cmp	esi, -275537174
	jne	.LBB12_1
	jmp	.LBB12_4
	.p2align	4, 0x90
.LBB12_6:                               
	cmp	esi, 502916628
	je	.LBB12_9

	cmp	esi, 1638077408
	jne	.LBB12_1

	mov	qword ptr [rsp + 24], rbp
	mov	esi, eax
	jmp	.LBB12_1
.LBB12_9:                               
	mov	esi, 1638077408
	jmp	.LBB12_1
.LBB12_4:
	mov	rax, qword ptr [rsp + 24]
	cmp	rax, 32
	jne	.LBB12_5

	lea	rdi, [rsp + 40]
	call	_ZSt9addressofIcEPT_RS0_
	mov	ecx, dword ptr [rip + x.350]
	mov	esi, dword ptr [rip + y.351]
	lea	edx, [rcx - 1]
	imul	edx, ecx
	mov	ecx, edx
	xor	ecx, -2
	and	ecx, edx
	sete	bl
	sete	byte ptr [rsp + 14]
	test	ecx, ecx
	mov	edi, -1202865644
	mov	ebp, 889828727
	mov	edx, 889828727
	cmove	edx, edi
	cmp	esi, 10
	setl	cl
	setl	byte ptr [rsp + 16]
	cmovge	edx, ebp
	xor	cl, bl
	cmovne	edx, edi
	mov	edi, 826350111
	mov	esi, 185829745
	jmp	.LBB12_11
.LBB12_18:                              
	mov	edi, 185829745
	.p2align	4, 0x90
.LBB12_11:                              
	cmp	edi, 826350110
	jg	.LBB12_15

	cmp	edi, -1202865644
	je	.LBB12_20

	cmp	edi, 185829745
	jne	.LBB12_11

	mov	edi, edx
	jmp	.LBB12_11
	.p2align	4, 0x90
.LBB12_15:                              
	cmp	edi, 889828727
	je	.LBB12_18

	cmp	edi, 826350111
	jne	.LBB12_11

	movzx	r8d, byte ptr [rsp + 14]
	movzx	ebx, byte ptr [rsp + 16]
	mov	ecx, r8d
	xor	cl, bl
	test	bl, bl
	mov	edi, 889828727
	cmovne	edi, esi
	test	r8b, r8b
	cmove	edi, ebp
	test	cl, cl
	cmovne	edi, esi
	jmp	.LBB12_11
.LBB12_20:
	mov	qword ptr [rsp + 56], r14 
	mov	qword ptr [rsp + 24], rax
.Ltmp232:
	lea	rdi, [rsp + 24]
	xor	esi, esi
	call	_ZNSt7__cxx1112basic_stringIcSt11char_traitsIcESaIcEE13_M_set_lengthEm
.Ltmp233:

	xor	r12d, r12d
	mov	ebp, -598360677
	mov	r14d, 547660766
	.p2align	4, 0x90
.LBB12_22:                              



	mov	eax, 179041423
	jmp	.LBB12_23
.LBB12_25:                              
	mov	eax, -545035199
	.p2align	4, 0x90
.LBB12_23:                              

	cmp	eax, -545035199
	je	.LBB12_26

	cmp	eax, 179041423
	jne	.LBB12_23
	jmp	.LBB12_25
	.p2align	4, 0x90
.LBB12_26:                              
	mov	eax, dword ptr [rip + x.112]
	mov	ecx, dword ptr [rip + y.113]
	lea	edx, [rax - 1]
	imul	edx, eax
	not	edx
	or	edx, -2
	cmp	edx, -1
	sete	al
	cmp	ecx, 10
	setl	bl
	setl	byte ptr [rsp + 14]
	xor	bl, al
	mov	esi, 1892619656
	cmovne	esi, ebp
	cmp	edx, -1
	sete	byte ptr [rsp + 15]
	mov	eax, esi
	cmove	eax, ebp
	cmp	ecx, 10
	mov	ecx, dword ptr [4*r12 + _ZN3DES25expansionPermutationTalbeE]
	cmovge	eax, esi
	dec	ecx
	movsxd	rsi, ecx
	mov	rcx, qword ptr [rsp + 64] 
	add	rsi, qword ptr [rcx]
	mov	edx, -1694099410
	jmp	.LBB12_27
.LBB12_39:                              
	movzx	ecx, byte ptr [rsp + 15]
	movzx	edx, byte ptr [rsp + 14]
	mov	ebx, ecx
	xor	bl, dl
	test	dl, dl
	mov	edx, 1892619656
	cmovne	edx, r14d
	test	cl, cl
	mov	ecx, 1892619656
	cmove	edx, ecx
	test	bl, bl
	cmovne	edx, r14d
	.p2align	4, 0x90
.LBB12_27:                              

	cmp	edx, 547660765
	jg	.LBB12_36

	cmp	edx, -1694099410
	je	.LBB12_39

	cmp	edx, -598360677
	jne	.LBB12_27
	jmp	.LBB12_30
	.p2align	4, 0x90
.LBB12_36:                              
	cmp	edx, 547660766
	je	.LBB12_40

	cmp	edx, 1892619656
	jne	.LBB12_27

	mov	edx, 547660766
	jmp	.LBB12_27
.LBB12_40:                              
	mov	qword ptr [rsp + 16], rsi
	mov	edx, eax
	jmp	.LBB12_27
	.p2align	4, 0x90
.LBB12_30:                              
	mov	rax, qword ptr [rsp + 16]
	mov	r15b, byte ptr [rax]
	mov	eax, dword ptr [rip + x.116]
	mov	ecx, dword ptr [rip + y.117]
	lea	edx, [rax - 1]
	imul	edx, eax
	mov	eax, edx
	xor	eax, -2
	test	eax, edx
	sete	byte ptr [rsp + 14]
	cmp	ecx, 10
	setl	byte ptr [rsp + 16]
	mov	r13d, -716335068
	jmp	.LBB12_31
.LBB12_44:                              
	movzx	eax, byte ptr [rsp + 14]
	movzx	ecx, byte ptr [rsp + 16]
	mov	edx, eax
	xor	dl, cl
	test	cl, cl
	mov	r13d, 1637084981
	mov	ecx, -344566498
	cmovne	r13d, ecx
	test	al, al
	mov	eax, 1637084981
	cmove	r13d, eax
	test	dl, dl
	cmovne	r13d, ecx
	.p2align	4, 0x90
.LBB12_31:                              

	cmp	r13d, 1233911680
	jg	.LBB12_41

	cmp	r13d, -716335068
	je	.LBB12_44

	cmp	r13d, -344566498
	jne	.LBB12_31

.Ltmp243:
	movsx	esi, r15b
	lea	rdi, [rsp + 24]
	call	_ZNSt7__cxx1112basic_stringIcSt11char_traitsIcESaIcEE9push_backEc
.Ltmp244:

	mov	eax, dword ptr [rip + x.116]
	mov	ecx, eax
	neg	ecx
	not	ecx
	imul	ecx, eax
	mov	eax, ecx
	xor	eax, -2
	and	eax, ecx
	sete	cl
	test	eax, eax
	mov	r13d, 1637084981
	mov	esi, 1233911681
	cmove	r13d, esi
	cmp	dword ptr [rip + y.117], 10
	setl	al
	mov	edx, 1637084981
	cmovge	r13d, edx
	xor	al, cl
	cmovne	r13d, esi
	jmp	.LBB12_31
	.p2align	4, 0x90
.LBB12_41:                              
	cmp	r13d, 1233911681
	je	.LBB12_45

	cmp	r13d, 1637084981
	jne	.LBB12_31

	mov	r13d, -344566498
.Ltmp235:
	movsx	esi, r15b
	lea	rdi, [rsp + 24]
	call	_ZNSt7__cxx1112basic_stringIcSt11char_traitsIcESaIcEE9push_backEc
.Ltmp236:
	jmp	.LBB12_31
	.p2align	4, 0x90
.LBB12_45:                              
	cmp	r12, 47
	lea	r12, [r12 + 1]
	jb	.LBB12_22

	mov	rdi, qword ptr [rsp + 56] 
	add	rdi, 392
.Ltmp237:
	lea	rsi, [rsp + 24]
	call	_ZNSt7__cxx1112basic_stringIcSt11char_traitsIcESaIcEE9_M_assignERKS4_
.Ltmp238:

.Ltmp240:
	lea	rdi, [rsp + 24]
	call	_ZNSt7__cxx1112basic_stringIcSt11char_traitsIcESaIcEE10_M_disposeEv
.Ltmp241:

	add	rsp, 72
	pop	rbx
	pop	r12
	pop	r13
	pop	r14
	pop	r15
	pop	rbp
	ret
.LBB12_5:
	mov	edi, _ZSt4cout
	mov	esi, .L.str
	call	_ZStlsISt11char_traitsIcEERSt13basic_ostreamIcT_ES5_PKc
	xor	edi, edi
	call	exit
.LBB12_54:
.Ltmp242:
	mov	rdi, rax
	call	__cxa_call_unexpected
.LBB12_49:
.Ltmp239:
	jmp	.LBB12_50
.LBB12_19:
.Ltmp234:
	mov	rdi, rax
	call	__clang_call_terminate
.LBB12_53:
.Ltmp245:
.LBB12_50:
	mov	rbx, rax
.Ltmp246:
	lea	rdi, [rsp + 24]
	call	_ZNSt7__cxx1112basic_stringIcSt11char_traitsIcESaIcEE10_M_disposeEv
.Ltmp247:

	mov	rdi, rbx
	call	_Unwind_Resume
.LBB12_55:
.Ltmp248:
	mov	rdi, rax
	call	__cxa_call_unexpected
.Lfunc_end12:
	.size	_ZN3DES14expansionPermuERKNSt7__cxx1112basic_stringIcSt11char_traitsIcESaIcEEE, .Lfunc_end12-_ZN3DES14expansionPermuERKNSt7__cxx1112basic_stringIcSt11char_traitsIcESaIcEEE
	.cfi_endproc
	.section	.gcc_except_table,"a",@progbits
	.p2align	2
GCC_except_table12:
.Lexception9:
	.byte	255                     
	.byte	3                       
	.byte	101                     
	.byte	3                       
	.byte	91                      
	.long	.Ltmp232-.Lfunc_begin9  
	.long	.Ltmp233-.Ltmp232       
	.long	.Ltmp234-.Lfunc_begin9  
	.byte	3                       
	.long	.Ltmp243-.Lfunc_begin9  
	.long	.Ltmp236-.Ltmp243       
	.long	.Ltmp245-.Lfunc_begin9  
	.byte	0                       
	.long	.Ltmp237-.Lfunc_begin9  
	.long	.Ltmp238-.Ltmp237       
	.long	.Ltmp239-.Lfunc_begin9  
	.byte	0                       
	.long	.Ltmp240-.Lfunc_begin9  
	.long	.Ltmp241-.Ltmp240       
	.long	.Ltmp242-.Lfunc_begin9  
	.byte	1                       
	.long	.Ltmp241-.Lfunc_begin9  
	.long	.Ltmp246-.Ltmp241       
	.long	0                       
	.byte	0                       
	.long	.Ltmp246-.Lfunc_begin9  
	.long	.Ltmp247-.Ltmp246       
	.long	.Ltmp248-.Lfunc_begin9  
	.byte	1                       
	.long	.Ltmp247-.Lfunc_begin9  
	.long	.Lfunc_end12-.Ltmp247   
	.long	0                       
	.byte	0                       
	.byte	127                     

	.byte	0                       
	.byte	1                       

	.byte	0                       

	.long	0                       

	.byte	0
	.p2align	2

	.text
	.globl	_ZN3DES9shiftLeftERNSt7__cxx1112basic_stringIcSt11char_traitsIcESaIcEEEi 
	.p2align	4, 0x90
	.type	_ZN3DES9shiftLeftERNSt7__cxx1112basic_stringIcSt11char_traitsIcESaIcEEEi,@function
_ZN3DES9shiftLeftERNSt7__cxx1112basic_stringIcSt11char_traitsIcESaIcEEEi: 
	.cfi_startproc

	push	rbp
.Lcfi91:
	.cfi_def_cfa_offset 16
	push	r15
.Lcfi92:
	.cfi_def_cfa_offset 24
	push	r14
.Lcfi93:
	.cfi_def_cfa_offset 32
	push	r13
.Lcfi94:
	.cfi_def_cfa_offset 40
	push	r12
.Lcfi95:
	.cfi_def_cfa_offset 48
	push	rbx
.Lcfi96:
	.cfi_def_cfa_offset 56
	sub	rsp, 24
.Lcfi97:
	.cfi_def_cfa_offset 80
.Lcfi98:
	.cfi_offset rbx, -56
.Lcfi99:
	.cfi_offset r12, -48
.Lcfi100:
	.cfi_offset r13, -40
.Lcfi101:
	.cfi_offset r14, -32
.Lcfi102:
	.cfi_offset r15, -24
.Lcfi103:
	.cfi_offset rbp, -16
	mov	r14d, edx
	mov	r12, rsi
	mov	eax, dword ptr [rip + x.110]
	mov	ecx, dword ptr [rip + y.111]
	lea	edx, [rax - 1]
	imul	edx, eax
	mov	esi, edx
	xor	esi, -2
	and	esi, edx
	sete	byte ptr [rsp + 7]
	sete	al
	cmp	ecx, 10
	setl	dl
	xor	dl, al
	mov	eax, -275537174
	mov	edx, 502916628
	cmovne	edx, eax
	test	esi, esi
	cmovne	eax, edx
	cmp	ecx, 10
	setl	byte ptr [rsp + 6]
	cmovge	eax, edx
	mov	rbp, qword ptr [r12 + 8]
	mov	esi, -2001064944
	mov	edi, 1638077408
	jmp	.LBB13_1
.LBB13_94:                              
	movzx	ecx, byte ptr [rsp + 7]
	movzx	edx, byte ptr [rsp + 6]
	mov	ebx, ecx
	xor	bl, dl
	mov	ebx, 502916628
	cmovne	ebx, edi
	test	dl, dl
	mov	esi, ebx
	cmovne	esi, edi
	test	cl, cl
	cmove	esi, ebx
	.p2align	4, 0x90
.LBB13_1:                               
	cmp	esi, 502916627
	jg	.LBB13_10

	cmp	esi, -2001064944
	je	.LBB13_94

	cmp	esi, -275537174
	jne	.LBB13_1
	jmp	.LBB13_4
	.p2align	4, 0x90
.LBB13_10:                              
	cmp	esi, 502916628
	je	.LBB13_13

	cmp	esi, 1638077408
	jne	.LBB13_1

	mov	qword ptr [rsp + 8], rbp
	mov	esi, eax
	jmp	.LBB13_1
.LBB13_13:                              
	mov	esi, 1638077408
	jmp	.LBB13_1
.LBB13_4:
	mov	rax, qword ptr [rsp + 8]
	mov	dword ptr [rsp + 20], eax
	movsxd	r13, r14d
	mov	eax, 1950776675
	mov	r15d, -997895042
	jmp	.LBB13_5
.LBB13_18:                              
	mov	eax, dword ptr [rip + x.118]
	lea	ecx, [rax - 1]
	imul	ecx, eax
	mov	eax, ecx
	xor	eax, -2
	and	eax, ecx
	sete	cl
	test	eax, eax
	mov	eax, 159452993
	mov	esi, 2095406312
	cmove	eax, esi
	cmp	dword ptr [rip + y.119], 10
	setl	dl
	mov	edi, 159452993
	cmovge	eax, edi
	xor	dl, cl
	cmovne	eax, esi
	.p2align	4, 0x90
.LBB13_5:                               








	cmp	eax, 1866760162
	jle	.LBB13_6

	cmp	eax, 1866760163
	je	.LBB13_56

	cmp	eax, 2095406312
	je	.LBB13_19

	cmp	eax, 1950776675
	jne	.LBB13_5

	mov	eax, dword ptr [rsp + 20]
	cmp	eax, r14d
	mov	eax, -1292489835
	mov	ecx, -2092888771
	cmovl	eax, ecx
	jmp	.LBB13_5
	.p2align	4, 0x90
.LBB13_6:                               
	cmp	eax, -1292489835
	je	.LBB13_18

	cmp	eax, 159452993
	jne	.LBB13_8

	mov	eax, dword ptr [rip + x.122]
	mov	r8d, dword ptr [rip + y.123]
	lea	esi, [rax - 1]
	imul	esi, eax
	mov	eax, esi
	not	eax
	or	eax, -2
	cmp	eax, -1
	sete	dl
	cmp	r8d, 10
	setl	bl
	setl	byte ptr [rsp + 6]
	xor	bl, dl
	mov	edx, -1007804612
	mov	ecx, 1602543218
	cmovne	edx, ecx
	cmp	eax, -1
	sete	byte ptr [rsp + 7]
	mov	ebp, edx
	cmove	ebp, ecx
	cmp	r8d, 10
	cmovge	ebp, edx
	and	esi, 1
	mov	rdx, qword ptr [r12]
	mov	edi, 296539409
	jmp	.LBB13_58
.LBB13_19:                              
	mov	eax, dword ptr [rip + x.122]
	mov	r8d, dword ptr [rip + y.123]
	lea	esi, [rax - 1]
	imul	esi, eax
	mov	edi, esi
	xor	edi, -2
	mov	eax, edi
	and	eax, esi
	sete	dl
	sete	byte ptr [rsp + 7]
	cmp	r8d, 10
	setl	bl
	xor	bl, dl
	mov	edx, -1007804612
	mov	ecx, 1602543218
	cmovne	edx, ecx
	test	eax, eax
	mov	r9d, edx
	cmove	r9d, ecx
	cmp	r8d, 10
	setl	byte ptr [rsp + 6]
	cmovge	r9d, edx
	mov	rdx, qword ptr [r12]
	mov	ebp, 296539409
	jmp	.LBB13_20
.LBB13_65:                              
	mov	edi, -997895042
	.p2align	4, 0x90
.LBB13_58:                              

	cmp	edi, 296539408
	jg	.LBB13_62

	cmp	edi, -1007804612
	je	.LBB13_65

	cmp	edi, -997895042
	jne	.LBB13_58

	mov	qword ptr [rsp + 8], rdx
	mov	edi, ebp
	jmp	.LBB13_58
	.p2align	4, 0x90
.LBB13_62:                              
	cmp	edi, 1602543218
	je	.LBB13_66

	cmp	edi, 296539409
	jne	.LBB13_58

	movzx	eax, byte ptr [rsp + 7]
	movzx	ecx, byte ptr [rsp + 6]
	mov	ebx, eax
	xor	bl, cl
	test	cl, cl
	mov	edi, -1007804612
	cmovne	edi, r15d
	test	al, al
	mov	eax, -1007804612
	cmove	edi, eax
	test	bl, bl
	cmovne	edi, r15d
	jmp	.LBB13_58
.LBB13_27:                              
	mov	ebp, -997895042
	.p2align	4, 0x90
.LBB13_20:                              

	cmp	ebp, 296539408
	jg	.LBB13_24

	cmp	ebp, -1007804612
	je	.LBB13_27

	cmp	ebp, -997895042
	jne	.LBB13_20

	mov	qword ptr [rsp + 8], rdx
	mov	ebp, r9d
	jmp	.LBB13_20
	.p2align	4, 0x90
.LBB13_24:                              
	cmp	ebp, 1602543218
	je	.LBB13_28

	cmp	ebp, 296539409
	jne	.LBB13_20

	movzx	eax, byte ptr [rsp + 7]
	movzx	ecx, byte ptr [rsp + 6]
	mov	ebx, eax
	xor	bl, cl
	mov	ebx, -1007804612
	cmovne	ebx, r15d
	test	cl, cl
	mov	ebp, ebx
	cmovne	ebp, r15d
	test	al, al
	cmove	ebp, ebx
	jmp	.LBB13_20
.LBB13_66:                              
	test	esi, esi
	mov	rdi, qword ptr [rsp + 8]
	sete	byte ptr [rsp + 7]
	cmp	r8d, 10
	setl	byte ptr [rsp + 6]
	mov	ecx, 296539409
	jmp	.LBB13_67
.LBB13_28:                              
	test	edi, esi
	mov	rdi, qword ptr [rsp + 8]
	sete	byte ptr [rsp + 7]
	cmp	r8d, 10
	setl	byte ptr [rsp + 6]
	mov	ecx, 296539409
	jmp	.LBB13_29
.LBB13_74:                              
	mov	ecx, -997895042
	.p2align	4, 0x90
.LBB13_67:                              

	cmp	ecx, 296539408
	jg	.LBB13_71

	cmp	ecx, -1007804612
	je	.LBB13_74

	cmp	ecx, -997895042
	jne	.LBB13_67

	mov	qword ptr [rsp + 8], rdx
	mov	ecx, ebp
	jmp	.LBB13_67
	.p2align	4, 0x90
.LBB13_71:                              
	cmp	ecx, 1602543218
	je	.LBB13_75

	cmp	ecx, 296539409
	jne	.LBB13_67

	movzx	ebx, byte ptr [rsp + 7]
	movzx	ecx, byte ptr [rsp + 6]
	mov	eax, ebx
	xor	al, cl
	mov	eax, -1007804612
	cmovne	eax, r15d
	test	cl, cl
	mov	ecx, eax
	cmovne	ecx, r15d
	test	bl, bl
	cmove	ecx, eax
	jmp	.LBB13_67
.LBB13_36:                              
	mov	ecx, -997895042
	.p2align	4, 0x90
.LBB13_29:                              

	cmp	ecx, 296539408
	jg	.LBB13_33

	cmp	ecx, -1007804612
	je	.LBB13_36

	cmp	ecx, -997895042
	jne	.LBB13_29

	mov	qword ptr [rsp + 8], rdx
	mov	ecx, r9d
	jmp	.LBB13_29
	.p2align	4, 0x90
.LBB13_33:                              
	cmp	ecx, 1602543218
	je	.LBB13_37

	cmp	ecx, 296539409
	jne	.LBB13_29

	movzx	ebx, byte ptr [rsp + 7]
	movzx	ecx, byte ptr [rsp + 6]
	mov	eax, ebx
	xor	al, cl
	test	cl, cl
	mov	ecx, -1007804612
	cmovne	ecx, r15d
	test	bl, bl
	mov	esi, -1007804612
	cmove	ecx, esi
	test	al, al
	cmovne	ecx, r15d
	jmp	.LBB13_29
.LBB13_75:                              
	mov	r8, qword ptr [rsp + 8]
	mov	ecx, dword ptr [rip + x.124]
	mov	esi, dword ptr [rip + y.125]
	lea	ebp, [rcx - 1]
	imul	ebp, ecx
	not	ebp
	or	ebp, -2
	cmp	ebp, -1
	sete	cl
	cmp	esi, 10
	setl	bl
	xor	bl, cl
	mov	ecx, -343695705
	mov	eax, -1775773521
	cmovne	ecx, eax
	cmp	ebp, -1
	sete	byte ptr [rsp + 7]
	mov	r9d, ecx
	cmove	r9d, eax
	cmp	esi, 10
	setl	byte ptr [rsp + 6]
	cmovge	r9d, ecx
	add	r8, r13
	mov	ebp, -73115713
	jmp	.LBB13_76
.LBB13_37:                              
	mov	r8, qword ptr [rsp + 8]
	mov	ecx, dword ptr [rip + x.124]
	mov	esi, dword ptr [rip + y.125]
	lea	ebp, [rcx - 1]
	imul	ebp, ecx
	not	ebp
	or	ebp, -2
	cmp	ebp, -1
	sete	byte ptr [rsp + 7]
	sete	bl
	mov	r9d, -343695705
	mov	ecx, -1775773521
	cmove	r9d, ecx
	cmp	esi, 10
	setl	al
	setl	byte ptr [rsp + 6]
	mov	esi, -343695705
	cmovge	r9d, esi
	xor	al, bl
	cmovne	r9d, ecx
	add	r8, r13
	mov	ebp, -73115713
	jmp	.LBB13_38
.LBB13_83:                              
	mov	qword ptr [rsp + 8], r8
	mov	ebp, r9d
	.p2align	4, 0x90
.LBB13_76:                              

	mov	esi, ebp
	and	esi, 2147483647
	cmp	esi, 1887317557
	jg	.LBB13_80

	cmp	esi, 371710127
	je	.LBB13_84

	cmp	esi, 1803787943
	jne	.LBB13_76

	mov	ebp, -260166090
	jmp	.LBB13_76
	.p2align	4, 0x90
.LBB13_80:                              
	cmp	esi, 1887317558
	je	.LBB13_83

	cmp	esi, 2074367935
	jne	.LBB13_76

	movzx	ebx, byte ptr [rsp + 7]
	movzx	eax, byte ptr [rsp + 6]
	mov	ecx, ebx
	xor	cl, al
	mov	ecx, -343695705
	mov	esi, -260166090
	cmovne	ecx, esi
	test	al, al
	mov	ebp, ecx
	cmovne	ebp, esi
	test	bl, bl
	cmove	ebp, ecx
	jmp	.LBB13_76
.LBB13_45:                              
	mov	qword ptr [rsp + 8], r8
	mov	ebp, r9d
	.p2align	4, 0x90
.LBB13_38:                              

	mov	esi, ebp
	and	esi, 2147483647
	cmp	esi, 1887317557
	jg	.LBB13_42

	cmp	esi, 371710127
	je	.LBB13_46

	cmp	esi, 1803787943
	jne	.LBB13_38

	mov	ebp, -260166090
	jmp	.LBB13_38
	.p2align	4, 0x90
.LBB13_42:                              
	cmp	esi, 1887317558
	je	.LBB13_45

	cmp	esi, 2074367935
	jne	.LBB13_38

	movzx	ecx, byte ptr [rsp + 7]
	movzx	ebx, byte ptr [rsp + 6]
	mov	eax, ecx
	xor	al, bl
	test	bl, bl
	mov	ebp, -343695705
	mov	esi, -260166090
	cmovne	ebp, esi
	test	cl, cl
	mov	ecx, -343695705
	cmove	ebp, ecx
	test	al, al
	cmovne	ebp, esi
	jmp	.LBB13_38
.LBB13_84:                              
	mov	rsi, qword ptr [rsp + 8]
	mov	r8, qword ptr [r12 + 8]
	mov	ecx, dword ptr [rip + x.460]
	mov	ebp, dword ptr [rip + y.461]
	lea	ebx, [rcx - 1]
	imul	ebx, ecx
	mov	ecx, ebx
	xor	ecx, -2
	and	ecx, ebx
	sete	byte ptr [rsp + 6]
	sete	bl
	test	ecx, ecx
	mov	ecx, 1656340010
	mov	r9d, 668941647
	cmove	ecx, r9d
	cmp	ebp, 10
	setl	al
	setl	byte ptr [rsp + 8]
	mov	ebp, 1656340010
	cmovge	ecx, ebp
	xor	al, bl
	cmovne	ecx, r9d
	mov	ebx, 380892861
	jmp	.LBB13_85
.LBB13_90:                              
	mov	ebx, ecx
	.p2align	4, 0x90
.LBB13_85:                              

	mov	ebp, ebx
	and	ebp, 2147483647
	cmp	ebp, 1040630540
	jg	.LBB13_89

	cmp	ebp, 380892861
	je	.LBB13_91

	cmp	ebp, 668941647
	jne	.LBB13_85
	jmp	.LBB13_88
	.p2align	4, 0x90
.LBB13_89:                              
	cmp	ebp, 1040630541
	je	.LBB13_90

	cmp	ebp, 1656340010
	jne	.LBB13_85

	mov	ebx, 1040630541
	jmp	.LBB13_85
.LBB13_91:                              
	movzx	r9d, byte ptr [rsp + 6]
	movzx	ebx, byte ptr [rsp + 8]
	mov	eax, r9d
	xor	al, bl
	mov	eax, 1656340010
	mov	ebp, 1040630541
	cmovne	eax, ebp
	test	bl, bl
	mov	ebx, eax
	cmovne	ebx, ebp
	test	r9b, r9b
	cmove	ebx, eax
	jmp	.LBB13_85
.LBB13_46:                              
	mov	rsi, qword ptr [rsp + 8]
	mov	r8, qword ptr [r12 + 8]
	mov	ebx, dword ptr [rip + x.460]
	mov	ebp, dword ptr [rip + y.461]
	mov	ecx, ebx
	neg	ecx
	not	ecx
	imul	ecx, ebx
	mov	ebx, ecx
	xor	ebx, -2
	and	ebx, ecx
	sete	cl
	sete	byte ptr [rsp + 6]
	cmp	ebp, 10
	setl	al
	xor	al, cl
	mov	eax, 1656340010
	mov	ecx, 668941647
	cmovne	eax, ecx
	test	ebx, ebx
	mov	r9d, eax
	cmove	r9d, ecx
	cmp	ebp, 10
	setl	byte ptr [rsp + 8]
	cmovge	r9d, eax
	mov	ebx, 380892861
	jmp	.LBB13_47
.LBB13_52:                              
	mov	ebx, r9d
	.p2align	4, 0x90
.LBB13_47:                              

	mov	ebp, ebx
	and	ebp, 2147483647
	cmp	ebp, 1040630540
	jg	.LBB13_51

	cmp	ebp, 380892861
	je	.LBB13_53

	cmp	ebp, 668941647
	jne	.LBB13_47
	jmp	.LBB13_50
	.p2align	4, 0x90
.LBB13_51:                              
	cmp	ebp, 1040630541
	je	.LBB13_52

	cmp	ebp, 1656340010
	jne	.LBB13_47

	mov	ebx, 1040630541
	jmp	.LBB13_47
.LBB13_53:                              
	movzx	ecx, byte ptr [rsp + 6]
	movzx	ebx, byte ptr [rsp + 8]
	mov	eax, ecx
	xor	al, bl
	mov	eax, 1656340010
	mov	ebp, 1040630541
	cmovne	eax, ebp
	test	bl, bl
	mov	ebx, eax
	cmovne	ebx, ebp
	test	cl, cl
	cmove	ebx, eax
	jmp	.LBB13_47
.LBB13_88:                              
	add	rdx, r8
	call	_ZNSt3_V28__rotateIN9__gnu_cxx17__normal_iteratorIPcNSt7__cxx1112basic_stringIcSt11char_traitsIcESaIcEEEEEEET_SB_SB_SB_St26random_access_iterator_tag
	mov	eax, 2095406312
	jmp	.LBB13_5
.LBB13_50:                              
	add	rdx, r8
	call	_ZNSt3_V28__rotateIN9__gnu_cxx17__normal_iteratorIPcNSt7__cxx1112basic_stringIcSt11char_traitsIcESaIcEEEEEEET_SB_SB_SB_St26random_access_iterator_tag
	mov	eax, dword ptr [rip + x.118]
	lea	ecx, [rax - 1]
	imul	ecx, eax
	not	ecx
	or	ecx, -2
	cmp	ecx, -1
	sete	cl
	mov	eax, 159452993
	mov	edi, 1866760163
	cmove	eax, edi
	cmp	dword ptr [rip + y.119], 10
	setl	dl
	mov	esi, 159452993
	cmovge	eax, esi
	xor	dl, cl
	cmovne	eax, edi
	jmp	.LBB13_5
.LBB13_8:                               
	cmp	eax, -2092888771
	jne	.LBB13_5

	mov	edi, _ZSt4cout
	mov	esi, .L.str.1
	call	_ZStlsISt11char_traitsIcEERSt13basic_ostreamIcT_ES5_PKc
	mov	rdi, rax
	call	_ZSt4endlIcSt11char_traitsIcEERSt13basic_ostreamIT_T0_ES6_
	xor	edi, edi
	call	exit
.LBB13_56:
	add	rsp, 24
	pop	rbx
	pop	r12
	pop	r13
	pop	r14
	pop	r15
	pop	rbp
	ret
.Lfunc_end13:
	.size	_ZN3DES9shiftLeftERNSt7__cxx1112basic_stringIcSt11char_traitsIcESaIcEEEi, .Lfunc_end13-_ZN3DES9shiftLeftERNSt7__cxx1112basic_stringIcSt11char_traitsIcESaIcEEEi
	.cfi_endproc

	.globl	_ZN3DES6keygenERKNSt7__cxx1112basic_stringIcSt11char_traitsIcESaIcEEEi 
	.p2align	4, 0x90
	.type	_ZN3DES6keygenERKNSt7__cxx1112basic_stringIcSt11char_traitsIcESaIcEEEi,@function
_ZN3DES6keygenERKNSt7__cxx1112basic_stringIcSt11char_traitsIcESaIcEEEi: 
.Lfunc_begin10:
	.cfi_startproc
	.cfi_personality 3, __gxx_personality_v0
	.cfi_lsda 3, .Lexception10

	push	rbp
.Lcfi104:
	.cfi_def_cfa_offset 16
.Lcfi105:
	.cfi_offset rbp, -16
	mov	rbp, rsp
.Lcfi106:
	.cfi_def_cfa_register rbp
	push	r15
	push	r14
	push	r13
	push	r12
	push	rbx
	sub	rsp, 56
.Lcfi107:
	.cfi_offset rbx, -56
.Lcfi108:
	.cfi_offset r12, -48
.Lcfi109:
	.cfi_offset r13, -40
.Lcfi110:
	.cfi_offset r14, -32
.Lcfi111:
	.cfi_offset r15, -24
	mov	r15d, edx
	mov	qword ptr [rbp - 96], rsi 
	mov	r14, rdi
	mov	eax, dword ptr [rip + x.128]
	lea	ecx, [rax - 1]
	imul	ecx, eax
	mov	eax, ecx
	xor	eax, -2
	test	eax, ecx
	sete	byte ptr [rbp - 42]
	mov	eax, dword ptr [rip + y.129]
	cmp	eax, 10
	setl	byte ptr [rbp - 43]
	lea	r13, [r14 + 232]
	lea	rax, [r14 + 136]
	mov	qword ptr [rbp - 88], rax 
	lea	r12, [r14 + 168]
	mov	eax, -1567582043
	jmp	.LBB14_1
.LBB14_20:                              
	cmp	edx, -1
	cmovne	eax, esi
	cmp	ecx, 10
	cmovge	eax, esi
	.p2align	4, 0x90
.LBB14_1:                               
	cmp	eax, 707087368
	jg	.LBB14_26

	cmp	eax, -841540556
	jg	.LBB14_15

	cmp	eax, -1589247173
	jg	.LBB14_10

	cmp	eax, -1656742197
	je	.LBB14_48

	cmp	eax, -1650148139
	jne	.LBB14_1

	mov	eax, dword ptr [rip + x.128]
	mov	ecx, dword ptr [rip + y.129]
	mov	edx, eax
	neg	edx
	not	edx
	imul	edx, eax
	mov	eax, edx
	xor	eax, -2
	and	eax, edx
	sete	bl
	test	eax, eax
	mov	eax, 714982127
	mov	edx, 707087369
	mov	esi, 714982127
	je	.LBB14_8

	mov	esi, 707087369
.LBB14_8:                               
	cmp	ecx, 10
	setl	cl
	cmovl	edx, esi
	xor	cl, bl
	jne	.LBB14_1

	mov	eax, edx
	jmp	.LBB14_1
	.p2align	4, 0x90
.LBB14_26:                              
	cmp	eax, 1055784851
	jle	.LBB14_27

	cmp	eax, 1753653449
	jg	.LBB14_39

	cmp	eax, 1055784852
	je	.LBB14_44

	cmp	eax, 1108484848
	jne	.LBB14_1

	mov	rsi, qword ptr [rbp - 80]
	mov	edx, 1
	call	_ZN3DES9shiftLeftERNSt7__cxx1112basic_stringIcSt11char_traitsIcESaIcEEEi
	mov	edx, 1
	mov	rsi, r12
	call	_ZN3DES9shiftLeftERNSt7__cxx1112basic_stringIcSt11char_traitsIcESaIcEEEi
	mov	eax, 14870213
	jmp	.LBB14_1
	.p2align	4, 0x90
.LBB14_15:                              
	cmp	eax, 14870212
	jg	.LBB14_21

	cmp	eax, -841540555
	je	.LBB14_52

	cmp	eax, -499718777
	jne	.LBB14_1

	mov	eax, dword ptr [rip + x.128]
	mov	ecx, dword ptr [rip + y.129]
	lea	edx, [rax - 1]
	imul	edx, eax
	not	edx
	or	edx, -2
	cmp	edx, -1
	sete	al
	cmp	ecx, 10
	setl	bl
	xor	bl, al
	mov	eax, 734896326
	mov	esi, 734896326
	jne	.LBB14_20

	mov	esi, 257538188
	jmp	.LBB14_20
	.p2align	4, 0x90
.LBB14_27:                              
	cmp	eax, 707087369
	je	.LBB14_63

	cmp	eax, 714982127
	je	.LBB14_54

	cmp	eax, 734896326
	jne	.LBB14_1

	mov	eax, dword ptr [rip + x.128]
	mov	ecx, dword ptr [rip + y.129]
	lea	esi, [rax - 1]
	imul	esi, eax
	mov	edx, esi
	xor	edx, -2
	and	edx, esi
	sete	al
	cmp	ecx, 10
	setl	bl
	xor	bl, al
	mov	esi, -841540555
	mov	eax, -841540555
	jne	.LBB14_32

	mov	eax, 257538188
.LBB14_32:                              
	test	edx, edx
	je	.LBB14_34

	mov	esi, eax
.LBB14_34:                              
	cmp	ecx, 10
	cmovl	eax, esi
	cmp	r15d, 16
	sete	sil
	cmp	r15d, 9
	sete	r8b
	cmp	r15d, 2
	setne	dil
	movzx	ecx, byte ptr [rbp - 41]
	sete	bl
	xor	bl, cl
	xor	cl, 1
	or	cl, dil
	xor	cl, 1
	or	cl, bl
	mov	edx, r8d
	and	dl, cl
	xor	cl, r8b
	or	cl, dl
	mov	edx, esi
	and	dl, cl
	xor	cl, sil
	or	cl, dl
	and	cl, 1
	mov	byte ptr [rbp - 44], cl
	mov	rcx, qword ptr [rbp - 88] 
	mov	qword ptr [rbp - 80], rcx
	jmp	.LBB14_1
.LBB14_39:                              
	cmp	eax, 1753653450
	je	.LBB14_56

	cmp	eax, 1907330675
	jne	.LBB14_1

	mov	rdi, r14
	mov	rsi, qword ptr [rbp - 96] 
	call	_ZN3DES15parityDropPermuERKNSt7__cxx1112basic_stringIcSt11char_traitsIcESaIcEEE
	mov	rax, qword ptr [rbp - 56]
	mov	rbx, qword ptr [rbp - 56]
	xor	esi, esi
	mov	edx, .L.str.50
	mov	rdi, r13
	call	_ZNKSt7__cxx1112basic_stringIcSt11char_traitsIcESaIcEE8_M_checkEmPKc
	mov	ecx, 28
	mov	rdi, rbx
	mov	rsi, r13
	mov	rdx, rax
	call	_ZNSt7__cxx1112basic_stringIcSt11char_traitsIcESaIcEEC2ERKS4_mm
	mov	rsi, qword ptr [rbp - 56]
	mov	rdi, qword ptr [rbp - 88] 
	call	_ZNSt7__cxx1112basic_stringIcSt11char_traitsIcESaIcEEaSEOS4_
	mov	rdi, qword ptr [rbp - 56]
.Ltmp258:
	call	_ZNSt7__cxx1112basic_stringIcSt11char_traitsIcESaIcEE10_M_disposeEv
.Ltmp259:

	mov	rax, qword ptr [rbp - 64]
	mov	rbx, qword ptr [rbp - 64]
	mov	esi, 28
	mov	edx, .L.str.50
	mov	rdi, r13
	call	_ZNKSt7__cxx1112basic_stringIcSt11char_traitsIcESaIcEE8_M_checkEmPKc
	mov	ecx, 28
	mov	rdi, rbx
	mov	rsi, r13
	mov	rdx, rax
	call	_ZNSt7__cxx1112basic_stringIcSt11char_traitsIcESaIcEEC2ERKS4_mm
	mov	rsi, qword ptr [rbp - 64]
	mov	rdi, r12
	call	_ZNSt7__cxx1112basic_stringIcSt11char_traitsIcESaIcEEaSEOS4_
	mov	rdi, qword ptr [rbp - 64]
.Ltmp261:
	call	_ZNSt7__cxx1112basic_stringIcSt11char_traitsIcESaIcEE10_M_disposeEv
.Ltmp262:

	mov	eax, -499718777
	jmp	.LBB14_1
.LBB14_10:                              
	cmp	eax, -1589247172
	je	.LBB14_61

	cmp	eax, -1567582043
	jne	.LBB14_1

	movzx	edx, byte ptr [rbp - 42]
	movzx	eax, byte ptr [rbp - 43]
	mov	ecx, edx
	xor	cl, al
	test	al, al
	mov	esi, 1055784852
	mov	eax, -1589247172
	mov	edi, 1055784852
	jne	.LBB14_14

	mov	edi, -1589247172
.LBB14_14:                              
	test	dl, dl
	cmovne	eax, edi
	test	cl, cl
	cmovne	eax, esi
	jmp	.LBB14_1
.LBB14_21:                              
	cmp	eax, 257538188
	je	.LBB14_62

	cmp	eax, 14870213
	jne	.LBB14_1
	jmp	.LBB14_23
.LBB14_62:                              
	movzx	eax, byte ptr [rbp - 41]
	mov	eax, 734896326
	jmp	.LBB14_1
.LBB14_44:                              
	mov	rax, rsp
	add	rax, -32
	mov	rsp, rax
	mov	qword ptr [rbp - 56], rax
	mov	rax, rsp
	add	rax, -32
	mov	rsp, rax
	mov	qword ptr [rbp - 64], rax
	mov	rax, rsp
	add	rax, -32
	mov	rsp, rax
	cmp	r15d, 1
	sete	byte ptr [rbp - 41]
	mov	qword ptr [rbp - 72], rax
	mov	eax, dword ptr [rip + x.128]
	mov	ecx, dword ptr [rip + y.129]
	lea	edx, [rax - 1]
	imul	edx, eax
	not	edx
	or	edx, -2
	cmp	edx, -1
	sete	bl
	mov	eax, -1656742197
	mov	edx, -1589247172
	mov	esi, -1656742197
	je	.LBB14_46

	mov	esi, -1589247172
.LBB14_46:                              
	cmp	ecx, 10
	setl	cl
	cmovl	edx, esi
	xor	cl, bl
	jne	.LBB14_1

	mov	eax, edx
	jmp	.LBB14_1
.LBB14_56:                              
	mov	eax, 14870213
	jmp	.LBB14_1
.LBB14_52:                              
	movzx	eax, byte ptr [rbp - 44]
	test	al, al
	mov	eax, 1108484848
	jne	.LBB14_1

	mov	eax, -1650148139
	jmp	.LBB14_1
.LBB14_48:                              
	movzx	eax, byte ptr [rbp - 41]
	test	al, al
	mov	eax, 1907330675
	jne	.LBB14_1

	mov	eax, -499718777
	jmp	.LBB14_1
.LBB14_61:                              
	mov	eax, 1055784852
	jmp	.LBB14_1
.LBB14_63:                              
	mov	rsi, qword ptr [rbp - 80]
	mov	edx, 2
	call	_ZN3DES9shiftLeftERNSt7__cxx1112basic_stringIcSt11char_traitsIcESaIcEEEi
	mov	edx, 2
	mov	rsi, r12
	call	_ZN3DES9shiftLeftERNSt7__cxx1112basic_stringIcSt11char_traitsIcESaIcEEEi
	mov	eax, 714982127
	jmp	.LBB14_1
.LBB14_54:                              
	mov	rsi, qword ptr [rbp - 80]
	mov	edx, 2
	call	_ZN3DES9shiftLeftERNSt7__cxx1112basic_stringIcSt11char_traitsIcESaIcEEEi
	mov	edx, 2
	mov	rsi, r12
	call	_ZN3DES9shiftLeftERNSt7__cxx1112basic_stringIcSt11char_traitsIcESaIcEEEi
	mov	eax, dword ptr [rip + x.128]
	mov	ecx, dword ptr [rip + y.129]
	lea	edx, [rax - 1]
	imul	edx, eax
	not	edx
	or	edx, -2
	cmp	edx, -1
	sete	al
	cmp	ecx, 10
	setl	bl
	xor	bl, al
	mov	eax, 1753653450
	mov	esi, 1753653450
	jne	.LBB14_20

	mov	esi, 707087369
	jmp	.LBB14_20
.LBB14_23:
	mov	rax, qword ptr [rbp - 72]
	mov	rbx, qword ptr [rbp - 72]
	mov	rsi, qword ptr [rbp - 80]
	mov	rdi, rbx
	call	_ZNSt7__cxx1112basic_stringIcSt11char_traitsIcESaIcEEC2ERKS4_
	mov	rsi, qword ptr [r14 + 168]
	mov	rdx, qword ptr [r14 + 176]
.Ltmp249:
	mov	rdi, rbx
	call	_ZNSt7__cxx1112basic_stringIcSt11char_traitsIcESaIcEE9_M_appendEPKcm
.Ltmp250:

	mov	rsi, qword ptr [rbp - 72]
	mov	rdi, r13
	call	_ZNSt7__cxx1112basic_stringIcSt11char_traitsIcESaIcEEaSEOS4_
	mov	rdi, qword ptr [rbp - 72]
.Ltmp255:
	call	_ZNSt7__cxx1112basic_stringIcSt11char_traitsIcESaIcEE10_M_disposeEv
.Ltmp256:

	mov	rdi, r14
	mov	rsi, r13
	call	_ZN3DES16compressionPermuERKNSt7__cxx1112basic_stringIcSt11char_traitsIcESaIcEEE
	lea	rsp, [rbp - 40]
	pop	rbx
	pop	r12
	pop	r13
	pop	r14
	pop	r15
	pop	rbp
	ret
.LBB14_60:
.Ltmp257:
	mov	rdi, rax
	call	__cxa_call_unexpected
.LBB14_58:
.Ltmp251:
	mov	r14, rax
.Ltmp252:
	mov	rdi, rbx
	call	_ZNSt7__cxx1112basic_stringIcSt11char_traitsIcESaIcEE10_M_disposeEv
.Ltmp253:

	mov	rdi, r14
	call	_Unwind_Resume
.LBB14_57:
.Ltmp254:
	mov	rdi, rax
	call	__cxa_call_unexpected
.LBB14_51:
.Ltmp263:
	mov	rdi, rax
	call	__cxa_call_unexpected
.LBB14_50:
.Ltmp260:
	mov	rdi, rax
	call	__cxa_call_unexpected
.Lfunc_end14:
	.size	_ZN3DES6keygenERKNSt7__cxx1112basic_stringIcSt11char_traitsIcESaIcEEEi, .Lfunc_end14-_ZN3DES6keygenERKNSt7__cxx1112basic_stringIcSt11char_traitsIcESaIcEEEi
	.cfi_endproc
	.section	.gcc_except_table,"a",@progbits
	.p2align	2
GCC_except_table14:
.Lexception10:
	.byte	255                     
	.byte	3                       
	.asciz	"\207\201"              
	.byte	3                       
	.ascii	"\202\001"              
	.long	.Lfunc_begin10-.Lfunc_begin10 
	.long	.Ltmp258-.Lfunc_begin10 
	.long	0                       
	.byte	0                       
	.long	.Ltmp258-.Lfunc_begin10 
	.long	.Ltmp259-.Ltmp258       
	.long	.Ltmp260-.Lfunc_begin10 
	.byte	1                       
	.long	.Ltmp259-.Lfunc_begin10 
	.long	.Ltmp261-.Ltmp259       
	.long	0                       
	.byte	0                       
	.long	.Ltmp261-.Lfunc_begin10 
	.long	.Ltmp262-.Ltmp261       
	.long	.Ltmp263-.Lfunc_begin10 
	.byte	1                       
	.long	.Ltmp262-.Lfunc_begin10 
	.long	.Ltmp249-.Ltmp262       
	.long	0                       
	.byte	0                       
	.long	.Ltmp249-.Lfunc_begin10 
	.long	.Ltmp250-.Ltmp249       
	.long	.Ltmp251-.Lfunc_begin10 
	.byte	0                       
	.long	.Ltmp255-.Lfunc_begin10 
	.long	.Ltmp256-.Ltmp255       
	.long	.Ltmp257-.Lfunc_begin10 
	.byte	1                       
	.long	.Ltmp256-.Lfunc_begin10 
	.long	.Ltmp252-.Ltmp256       
	.long	0                       
	.byte	0                       
	.long	.Ltmp252-.Lfunc_begin10 
	.long	.Ltmp253-.Ltmp252       
	.long	.Ltmp254-.Lfunc_begin10 
	.byte	1                       
	.long	.Ltmp253-.Lfunc_begin10 
	.long	.Lfunc_end14-.Ltmp253   
	.long	0                       
	.byte	0                       
	.byte	127                     

	.byte	0                       

	.byte	0
	.p2align	2

	.text
	.globl	_ZN3DES15parityDropPermuERKNSt7__cxx1112basic_stringIcSt11char_traitsIcESaIcEEE 
	.p2align	4, 0x90
	.type	_ZN3DES15parityDropPermuERKNSt7__cxx1112basic_stringIcSt11char_traitsIcESaIcEEE,@function
_ZN3DES15parityDropPermuERKNSt7__cxx1112basic_stringIcSt11char_traitsIcESaIcEEE: 
.Lfunc_begin11:
	.cfi_startproc
	.cfi_personality 3, __gxx_personality_v0
	.cfi_lsda 3, .Lexception11

	push	rbp
.Lcfi112:
	.cfi_def_cfa_offset 16
.Lcfi113:
	.cfi_offset rbp, -16
	mov	rbp, rsp
.Lcfi114:
	.cfi_def_cfa_register rbp
	push	r15
	push	r14
	push	r13
	push	r12
	push	rbx
	sub	rsp, 136
.Lcfi115:
	.cfi_offset rbx, -56
.Lcfi116:
	.cfi_offset r12, -48
.Lcfi117:
	.cfi_offset r13, -40
.Lcfi118:
	.cfi_offset r14, -32
.Lcfi119:
	.cfi_offset r15, -24
	mov	r15, rsi
	mov	r14, rdi
	movabs	rdx, -3024073306974499029
	mov	eax, dword ptr [rip + x.130]
	lea	ecx, [rax - 1]
	imul	ecx, eax
	not	ecx
	or	ecx, -2
	cmp	ecx, -1
	sete	byte ptr [rbp - 73]
	mov	eax, dword ptr [rip + y.131]
	cmp	eax, 10
	setl	byte ptr [rbp - 74]
	add	r14, 232
	mov	eax, 956779039
	mov	r12d, 2056606463
	mov	ecx, 55
	sub	ecx, edx
	mov	dword ptr [rbp - 140], ecx 



	jmp	.LBB15_1
.LBB15_32:                              
	cmovge	eax, edi
	xor	dl, cl
	cmovne	eax, esi
	.p2align	4, 0x90
.LBB15_1:                               












	cmp	eax, -299455440
	jle	.LBB15_2

	cmp	eax, 956779038
	jg	.LBB15_20

	cmp	eax, -299455439
	je	.LBB15_86

	cmp	eax, 769177925
	je	.LBB15_47

	cmp	eax, 908527397
	jne	.LBB15_1

	mov	r8, qword ptr [rbp - 96]
	mov	ecx, dword ptr [rip + x.104]
	mov	edx, dword ptr [rip + y.105]
	mov	esi, ecx
	neg	esi
	not	esi
	imul	esi, ecx
	not	esi
	or	esi, -2
	cmp	esi, -1
	sete	byte ptr [rbp - 72]
	cmp	edx, 10
	setl	byte ptr [rbp - 64]
	mov	ecx, -727860805
	jmp	.LBB15_16
	.p2align	4, 0x90
.LBB15_2:                               
	cmp	eax, -988158009
	jg	.LBB15_7

	cmp	eax, -1989060710
	je	.LBB15_24

	cmp	eax, -1778259687
	je	.LBB15_139

	cmp	eax, -1743862898
	jne	.LBB15_1

	mov	r13, qword ptr [rbp - 96]
	mov	eax, 1678318657
	mov	rcx, qword ptr [rbp - 176]
	mov	qword ptr [rbp - 152], rcx 
	jmp	.LBB15_1
	.p2align	4, 0x90
.LBB15_20:                              
	cmp	eax, 1678318657
	je	.LBB15_35

	cmp	eax, 1596319018
	je	.LBB15_45

	cmp	eax, 956779039
	jne	.LBB15_1

	mov	cl, byte ptr [rbp - 73]
	mov	al, byte ptr [rbp - 74]
	mov	edx, ecx
	xor	dl, al
	mov	edx, -988158008
	mov	esi, -1989060710
	cmovne	edx, esi
	test	al, al
	mov	eax, edx
	cmovne	eax, esi
	test	cl, cl
	cmove	eax, edx
	jmp	.LBB15_1
	.p2align	4, 0x90
.LBB15_7:                               
	cmp	eax, -988158008
	je	.LBB15_128

	cmp	eax, -832135619
	je	.LBB15_49

	cmp	eax, -706904219
	jne	.LBB15_1
	jmp	.LBB15_10
.LBB15_86:                              
	mov	eax, dword ptr [rip + x.232]
	mov	r8d, dword ptr [rip + y.233]
	lea	r10d, [rax - 1]
	imul	r10d, eax
	mov	r9d, r10d
	xor	r9d, -2
	mov	eax, r9d
	and	eax, r10d
	sete	byte ptr [rbp - 72]
	sete	bl
	test	eax, eax
	mov	eax, 1474865134
	mov	edx, 1666633132
	cmove	eax, edx
	cmp	r8d, 10
	setl	cl
	setl	byte ptr [rbp - 64]
	mov	edi, 1474865134
	cmovge	eax, edi
	xor	cl, bl
	cmovne	eax, edx
	mov	edi, 1014753601
	jmp	.LBB15_87
.LBB15_47:                              
	mov	rax, qword ptr [rbp - 88]
	mov	rsi, qword ptr [rbp - 104]
	mov	rdi, qword ptr [rbp - 88]
	call	_ZNKSt6bitsetILm56EE9to_stringB5cxx11Ev
	mov	rsi, qword ptr [rbp - 88]
	mov	rdi, r14
	call	_ZNSt7__cxx1112basic_stringIcSt11char_traitsIcESaIcEEaSEOS4_
	mov	rdi, qword ptr [rbp - 88]
.Ltmp267:
	call	_ZNSt7__cxx1112basic_stringIcSt11char_traitsIcESaIcEE10_M_disposeEv
.Ltmp268:

	mov	rax, qword ptr [rbp - 136]
	mov	rax, qword ptr [rbp - 128]
	mov	eax, dword ptr [rip + x.130]
	mov	ecx, eax
	neg	ecx
	not	ecx
	imul	ecx, eax
	mov	eax, ecx
	xor	eax, -2
	and	eax, ecx
	sete	cl
	test	eax, eax
	mov	eax, -1778259687
	mov	esi, -706904219
	cmove	eax, esi
	cmp	dword ptr [rip + y.131], 10
	setl	dl
	mov	edi, -1778259687
	jmp	.LBB15_32
.LBB15_19:                              
	movzx	ebx, byte ptr [rbp - 72]
	movzx	ecx, byte ptr [rbp - 64]
	mov	edx, ebx
	xor	dl, cl
	test	cl, cl
	mov	ecx, 885081172
	mov	esi, -1885389000
	cmovne	ecx, esi
	test	bl, bl
	mov	eax, 885081172
	cmove	ecx, eax
	test	dl, dl
	cmovne	ecx, esi
	.p2align	4, 0x90
.LBB15_16:                              

	cmp	ecx, 885081171
	jle	.LBB15_17

	cmp	ecx, 885081172
	je	.LBB15_127

	cmp	ecx, 1128268725
	jne	.LBB15_16
	jmp	.LBB15_125
	.p2align	4, 0x90
.LBB15_17:                              
	cmp	ecx, -1885389000
	je	.LBB15_126

	cmp	ecx, -727860805
	jne	.LBB15_16
	jmp	.LBB15_19
.LBB15_127:                             
	inc	qword ptr [r8]
	mov	ecx, -1885389000
	jmp	.LBB15_16
.LBB15_126:                             
	mov	rdx, qword ptr [r8]
	lea	rcx, [rdx + 1]
	mov	qword ptr [r8], rcx
	mov	ecx, dword ptr [rip + x.104]
	mov	esi, dword ptr [rip + y.105]
	lea	edi, [rcx - 1]
	imul	edi, ecx
	mov	ecx, edi
	xor	ecx, -2
	and	ecx, edi
	sete	bl
	cmp	esi, 10
	setl	al
	xor	al, bl
	mov	eax, 885081172
	mov	edi, 1128268725
	cmovne	eax, edi
	test	ecx, ecx
	mov	ecx, eax
	cmove	ecx, edi
	cmp	esi, 10
	mov	qword ptr [rbp - 56], rdx
	cmovge	ecx, eax
	jmp	.LBB15_16
.LBB15_24:                              
	mov	rax, rsp
	add	rax, -16
	mov	rsp, rax
	mov	qword ptr [rbp - 104], rax
	mov	rax, rsp
	add	rax, -16
	mov	rsp, rax
	mov	qword ptr [rbp - 112], rax
	mov	rax, rsp
	add	rax, -16
	mov	rsp, rax
	mov	qword ptr [rbp - 96], rax
	mov	rax, rsp
	add	rax, -16
	mov	rsp, rax
	mov	qword ptr [rbp - 120], rax
	mov	rax, rsp
	add	rax, -16
	mov	rsp, rax
	mov	qword ptr [rbp - 168], rax
	mov	rax, rsp
	add	rax, -32
	mov	rsp, rax
	mov	qword ptr [rbp - 88], rax
	mov	rax, qword ptr [rbp - 104]
	mov	qword ptr [rbp - 128], rax
	mov	rax, qword ptr [rbp - 128]
	mov	rax, qword ptr [rbp - 104]
	mov	qword ptr [rax], 0
	mov	rax, qword ptr [rbp - 112]
	mov	qword ptr [rbp - 136], rax
	mov	rax, qword ptr [rbp - 136]
	mov	rax, qword ptr [rbp - 96]
	mov	qword ptr [rbp - 160], rax
	mov	rax, qword ptr [rbp - 160]
	mov	eax, dword ptr [rip + x.84]
	mov	ecx, dword ptr [rip + y.85]
	mov	edx, eax
	neg	edx
	not	edx
	imul	edx, eax
	not	edx
	or	edx, -2
	cmp	edx, -1
	sete	byte ptr [rbp - 72]
	sete	dl
	mov	eax, -1559444858
	cmove	eax, r12d
	cmp	ecx, 10
	setl	cl
	setl	byte ptr [rbp - 64]
	mov	esi, -1559444858
	cmovge	eax, esi
	xor	cl, dl
	cmovne	eax, r12d
	mov	rsi, qword ptr [r15]
	mov	edx, -2098656802
	jmp	.LBB15_25
.LBB15_139:                             
	mov	rax, qword ptr [rbp - 88]
	mov	rsi, qword ptr [rbp - 104]
	mov	rdi, qword ptr [rbp - 88]
	call	_ZNKSt6bitsetILm56EE9to_stringB5cxx11Ev
	mov	rsi, qword ptr [rbp - 88]
	mov	rdi, r14
	call	_ZNSt7__cxx1112basic_stringIcSt11char_traitsIcESaIcEEaSEOS4_
	mov	rdi, qword ptr [rbp - 88]
.Ltmp264:
	call	_ZNSt7__cxx1112basic_stringIcSt11char_traitsIcESaIcEE10_M_disposeEv
.Ltmp265:

	mov	rax, qword ptr [rbp - 136]
	mov	rax, qword ptr [rbp - 128]
	mov	eax, 769177925
	jmp	.LBB15_1
.LBB15_35:                              
	mov	rax, qword ptr [rbp - 152] 
	mov	qword ptr [r13], rax
	mov	rax, qword ptr [rbp - 120]
	mov	eax, dword ptr [rip + x.88]
	mov	ecx, dword ptr [rip + y.89]
	lea	edx, [rax - 1]
	imul	edx, eax
	mov	eax, edx
	xor	eax, -2
	and	eax, edx
	sete	dl
	sete	byte ptr [rbp - 72]
	cmp	ecx, 10
	setl	bl
	xor	bl, dl
	mov	edx, -334892812
	mov	esi, -2124313413
	cmovne	edx, esi
	test	eax, eax
	mov	eax, edx
	cmove	eax, esi
	cmp	ecx, 10
	setl	byte ptr [rbp - 64]
	cmovge	eax, edx
	mov	rsi, qword ptr [r15]
	add	rsi, qword ptr [r15 + 8]
	mov	edx, 1258716355
	jmp	.LBB15_36
.LBB15_45:                              
	mov	eax, dword ptr [rip + x.130]
	mov	ecx, dword ptr [rip + y.131]
	lea	edx, [rax - 1]
	imul	edx, eax
	mov	eax, edx
	xor	eax, -2
	and	eax, edx
	sete	dl
	cmp	ecx, 10
	setl	bl
	xor	bl, dl
	mov	edx, -1778259687
	mov	esi, 769177925
	cmovne	edx, esi
	test	eax, eax
	mov	eax, edx
	cmove	eax, esi
	cmp	ecx, 10
	mov	rcx, qword ptr [rbp - 160]
	cmovge	eax, edx
	jmp	.LBB15_1
.LBB15_128:                             
	mov	eax, dword ptr [rip + x.84]
	mov	ecx, dword ptr [rip + y.85]
	lea	edx, [rax - 1]
	imul	edx, eax
	not	edx
	or	edx, -2
	cmp	edx, -1
	sete	byte ptr [rbp - 72]
	sete	dl
	mov	eax, -1559444858
	cmove	eax, r12d
	cmp	ecx, 10
	setl	cl
	setl	byte ptr [rbp - 64]
	mov	esi, -1559444858
	cmovge	eax, esi
	xor	cl, dl
	cmovne	eax, r12d
	mov	rsi, qword ptr [r15]
	mov	edx, -2098656802
	jmp	.LBB15_129
.LBB15_49:                              
	mov	eax, dword ptr [rip + x.84]
	mov	ecx, dword ptr [rip + y.85]
	lea	edx, [rax - 1]
	imul	edx, eax
	mov	eax, edx
	xor	eax, -2
	and	eax, edx
	sete	dl
	sete	byte ptr [rbp - 72]
	cmp	ecx, 10
	setl	bl
	xor	bl, dl
	mov	edx, -1559444858
	cmovne	edx, r12d
	test	eax, eax
	mov	eax, edx
	cmove	eax, r12d
	cmp	ecx, 10
	setl	byte ptr [rbp - 64]
	cmovge	eax, edx
	mov	rsi, qword ptr [r15]
	mov	edx, -2098656802
	jmp	.LBB15_50
.LBB15_90:                              
	movzx	edx, byte ptr [rbp - 72]
	movzx	ebx, byte ptr [rbp - 64]
	mov	ecx, edx
	xor	cl, bl
	mov	ecx, 1474865134
	mov	esi, -845853349
	cmovne	ecx, esi
	test	bl, bl
	mov	edi, ecx
	cmovne	edi, esi
	test	dl, dl
	cmove	edi, ecx
	.p2align	4, 0x90
.LBB15_87:                              

	cmp	edi, 1474865133
	jle	.LBB15_88

	cmp	edi, 1474865134
	je	.LBB15_99

	cmp	edi, 1666633132
	jne	.LBB15_87
	jmp	.LBB15_93
	.p2align	4, 0x90
.LBB15_88:                              
	cmp	edi, -845853349
	je	.LBB15_98

	cmp	edi, 1014753601
	jne	.LBB15_87
	jmp	.LBB15_90
.LBB15_99:                              
	mov	edi, -845853349
	jmp	.LBB15_87
.LBB15_98:                              
	mov	qword ptr [rbp - 56], _ZN3DES18parityBitDropTableE
	mov	edi, eax
	jmp	.LBB15_87
.LBB15_125:                             
	mov	rax, qword ptr [rbp - 56]
	mov	qword ptr [rbp - 152], rax 
	mov	eax, 1678318657
	mov	r13, qword ptr [rbp - 168]
	jmp	.LBB15_1
.LBB15_33:                              
	movzx	ecx, byte ptr [rbp - 72]
	movzx	edx, byte ptr [rbp - 64]
	mov	ebx, ecx
	xor	bl, dl
	test	dl, dl
	mov	edx, -1559444858
	mov	edi, 306072885
	cmovne	edx, edi
	test	cl, cl
	mov	ecx, -1559444858
	cmove	edx, ecx
	test	bl, bl
	cmovne	edx, edi
	.p2align	4, 0x90
.LBB15_25:                              

	cmp	edx, 306072884
	jle	.LBB15_26

	cmp	edx, 306072885
	je	.LBB15_34

	cmp	edx, 2056606463
	jne	.LBB15_25
	jmp	.LBB15_31
	.p2align	4, 0x90
.LBB15_26:                              
	cmp	edx, -2098656802
	je	.LBB15_33

	cmp	edx, -1559444858
	jne	.LBB15_25

	mov	edx, 306072885
	jmp	.LBB15_25
.LBB15_34:                              
	mov	qword ptr [rbp - 56], rsi
	mov	edx, eax
	jmp	.LBB15_25
.LBB15_42:                              
	movzx	ecx, byte ptr [rbp - 72]
	movzx	edx, byte ptr [rbp - 64]
	mov	ebx, ecx
	xor	bl, dl
	mov	edi, -334892812
	mov	ebx, -845894381
	cmovne	edi, ebx
	test	dl, dl
	mov	edx, edi
	cmovne	edx, ebx
	test	cl, cl
	cmove	edx, edi
	.p2align	4, 0x90
.LBB15_36:                              

	cmp	edx, -334892813
	jg	.LBB15_40

	cmp	edx, -2124313413
	je	.LBB15_44

	cmp	edx, -845894381
	jne	.LBB15_36

	mov	qword ptr [rbp - 56], rsi
	mov	edx, eax
	jmp	.LBB15_36
	.p2align	4, 0x90
.LBB15_40:                              
	cmp	edx, -334892812
	je	.LBB15_43

	cmp	edx, 1258716355
	jne	.LBB15_36
	jmp	.LBB15_42
.LBB15_43:                              
	mov	edx, -845894381
	jmp	.LBB15_36
.LBB15_136:                             
	movzx	ecx, byte ptr [rbp - 72]
	movzx	edx, byte ptr [rbp - 64]
	mov	ebx, ecx
	xor	bl, dl
	mov	edi, -1559444858
	mov	ebx, 306072885
	cmovne	edi, ebx
	test	dl, dl
	mov	edx, edi
	cmovne	edx, ebx
	test	cl, cl
	cmove	edx, edi
	.p2align	4, 0x90
.LBB15_129:                             

	cmp	edx, 306072884
	jle	.LBB15_130

	cmp	edx, 306072885
	je	.LBB15_137

	cmp	edx, 2056606463
	jne	.LBB15_129
	jmp	.LBB15_135
	.p2align	4, 0x90
.LBB15_130:                             
	cmp	edx, -2098656802
	je	.LBB15_136

	cmp	edx, -1559444858
	jne	.LBB15_129

	mov	edx, 306072885
	jmp	.LBB15_129
.LBB15_137:                             
	mov	qword ptr [rbp - 56], rsi
	mov	edx, eax
	jmp	.LBB15_129
.LBB15_61:                              
	movzx	ecx, byte ptr [rbp - 72]
	movzx	edx, byte ptr [rbp - 64]
	mov	ebx, ecx
	xor	bl, dl
	test	dl, dl
	mov	edx, -1559444858
	mov	edi, 306072885
	cmovne	edx, edi
	test	cl, cl
	mov	ecx, -1559444858
	cmove	edx, ecx
	test	bl, bl
	cmovne	edx, edi
	.p2align	4, 0x90
.LBB15_50:                              

	cmp	edx, 306072884
	jle	.LBB15_51

	cmp	edx, 306072885
	je	.LBB15_62

	cmp	edx, 2056606463
	jne	.LBB15_50
	jmp	.LBB15_56
	.p2align	4, 0x90
.LBB15_51:                              
	cmp	edx, -2098656802
	je	.LBB15_61

	cmp	edx, -1559444858
	jne	.LBB15_50

	mov	edx, 306072885
	jmp	.LBB15_50
.LBB15_62:                              
	mov	qword ptr [rbp - 56], rsi
	mov	edx, eax
	jmp	.LBB15_50
.LBB15_93:                              
	mov	r12, r14
	test	r9d, r10d
	mov	r14, qword ptr [rbp - 56]
	sete	byte ptr [rbp - 72]
	cmp	r8d, 10
	setl	byte ptr [rbp - 64]
	mov	edi, 1014753601
	jmp	.LBB15_94
.LBB15_31:                              
	mov	rax, qword ptr [rbp - 56]
	mov	qword ptr [rbp - 176], rax
	mov	eax, dword ptr [rip + x.130]
	lea	ecx, [rax - 1]
	imul	ecx, eax
	not	ecx
	or	ecx, -2
	cmp	ecx, -1
	sete	cl
	mov	eax, -988158008
	mov	esi, -1743862898
	cmove	eax, esi
	cmp	dword ptr [rip + y.131], 10
	setl	dl
	mov	edi, -988158008
	jmp	.LBB15_32
.LBB15_44:                              
	mov	rax, qword ptr [rbp - 56]
	mov	rcx, qword ptr [rbp - 120]
	mov	qword ptr [rcx], rax
	mov	rdi, qword ptr [rbp - 96]
	mov	rsi, qword ptr [rbp - 120]
	call	_ZN9__gnu_cxxltIPKcNSt7__cxx1112basic_stringIcSt11char_traitsIcESaIcEEEEEbRKNS_17__normal_iteratorIT_T0_EESE_
	test	al, al
	mov	eax, 1596319018
	mov	ecx, -832135619
	cmovne	eax, ecx
	jmp	.LBB15_1
.LBB15_135:                             
	mov	rax, qword ptr [rbp - 56]
	mov	eax, -1989060710
	jmp	.LBB15_1
.LBB15_56:                              
	mov	rax, qword ptr [rbp - 56]
	mov	rcx, qword ptr [rbp - 96]
	mov	rcx, qword ptr [rcx]
	mov	qword ptr [rbp - 64], rax
	mov	qword ptr [rbp - 72], rcx
	mov	eax, dword ptr [rip + x.218]
	mov	r8d, dword ptr [rip + y.219]
	mov	edx, eax
	neg	edx
	not	edx
	imul	edx, eax
	mov	r9d, edx
	xor	r9d, -2
	mov	eax, r9d
	and	eax, edx
	sete	byte ptr [rbp - 41]
	sete	bl
	test	eax, eax
	mov	esi, -141576477
	mov	eax, -808623260
	cmove	esi, eax
	cmp	r8d, 10
	setl	cl
	setl	byte ptr [rbp - 42]
	mov	edi, -141576477
	cmovge	esi, edi
	xor	cl, bl
	cmovne	esi, eax
	mov	edi, -557863778
	jmp	.LBB15_57
.LBB15_97:                              
	movzx	ebx, byte ptr [rbp - 72]
	movzx	edx, byte ptr [rbp - 64]
	mov	ecx, ebx
	xor	cl, dl
	test	dl, dl
	mov	edi, 1474865134
	mov	esi, -845853349
	cmovne	edi, esi
	test	bl, bl
	mov	edx, 1474865134
	cmove	edi, edx
	test	cl, cl
	cmovne	edi, esi
	.p2align	4, 0x90
.LBB15_94:                              

	cmp	edi, 1474865133
	jle	.LBB15_95

	cmp	edi, 1474865134
	je	.LBB15_108

	cmp	edi, 1666633132
	jne	.LBB15_94
	jmp	.LBB15_102
	.p2align	4, 0x90
.LBB15_95:                              
	cmp	edi, -845853349
	je	.LBB15_107

	cmp	edi, 1014753601
	jne	.LBB15_94
	jmp	.LBB15_97
.LBB15_108:                             
	mov	edi, -845853349
	jmp	.LBB15_94
.LBB15_107:                             
	mov	qword ptr [rbp - 56], _ZN3DES18parityBitDropTableE
	mov	edi, eax
	jmp	.LBB15_94
.LBB15_60:                              
	movzx	eax, byte ptr [rbp - 41]
	movzx	ebx, byte ptr [rbp - 42]
	mov	ecx, eax
	xor	cl, bl
	test	bl, bl
	mov	edi, -141576477
	mov	ebx, 727089142
	cmovne	edi, ebx
	test	al, al
	mov	eax, -141576477
	cmove	edi, eax
	test	cl, cl
	cmovne	edi, ebx
	.p2align	4, 0x90
.LBB15_57:                              

	cmp	edi, -141576478
	jg	.LBB15_63

	cmp	edi, -808623260
	je	.LBB15_67

	cmp	edi, -557863778
	jne	.LBB15_57
	jmp	.LBB15_60
	.p2align	4, 0x90
.LBB15_63:                              
	cmp	edi, -141576477
	je	.LBB15_66

	cmp	edi, 727089142
	jne	.LBB15_57

	lea	rax, [rbp - 72]
	mov	qword ptr [rbp - 56], rax
	mov	edi, esi
	jmp	.LBB15_57
.LBB15_66:                              
	mov	edi, 727089142
	jmp	.LBB15_57
.LBB15_102:                             
	test	r9d, r10d
	mov	rdi, qword ptr [rbp - 56]
	sete	byte ptr [rbp - 72]
	cmp	r8d, 10
	setl	byte ptr [rbp - 64]
	mov	ecx, 1014753601
	jmp	.LBB15_103
.LBB15_67:                              
	test	r9d, edx
	mov	rax, qword ptr [rbp - 56]
	mov	r9, qword ptr [rax]
	sete	byte ptr [rbp - 41]
	cmp	r8d, 10
	setl	byte ptr [rbp - 42]
	mov	ecx, -557863778
	jmp	.LBB15_68
.LBB15_106:                             
	movzx	ebx, byte ptr [rbp - 72]
	movzx	ecx, byte ptr [rbp - 64]
	mov	edx, ebx
	xor	dl, cl
	test	cl, cl
	mov	ecx, 1474865134
	mov	r8d, -845853349
	cmovne	ecx, r8d
	test	bl, bl
	mov	esi, 1474865134
	cmove	ecx, esi
	test	dl, dl
	cmovne	ecx, r8d
	.p2align	4, 0x90
.LBB15_103:                             

	cmp	ecx, 1474865133
	jle	.LBB15_104

	cmp	ecx, 1474865134
	je	.LBB15_116

	cmp	ecx, 1666633132
	jne	.LBB15_103
	jmp	.LBB15_111
	.p2align	4, 0x90
.LBB15_104:                             
	cmp	ecx, -845853349
	je	.LBB15_115

	cmp	ecx, 1014753601
	jne	.LBB15_103
	jmp	.LBB15_106
.LBB15_116:                             
	mov	ecx, -845853349
	jmp	.LBB15_103
.LBB15_115:                             
	mov	qword ptr [rbp - 56], _ZN3DES18parityBitDropTableE
	mov	ecx, eax
	jmp	.LBB15_103
.LBB15_71:                              
	movzx	ebx, byte ptr [rbp - 41]
	movzx	ecx, byte ptr [rbp - 42]
	mov	eax, ebx
	xor	al, cl
	test	cl, cl
	mov	ecx, -141576477
	mov	edx, 727089142
	cmovne	ecx, edx
	test	bl, bl
	mov	edi, -141576477
	cmove	ecx, edi
	test	al, al
	cmovne	ecx, edx
	.p2align	4, 0x90
.LBB15_68:                              

	cmp	ecx, -141576478
	jg	.LBB15_72

	cmp	ecx, -808623260
	je	.LBB15_76

	cmp	ecx, -557863778
	jne	.LBB15_68
	jmp	.LBB15_71
	.p2align	4, 0x90
.LBB15_72:                              
	cmp	ecx, -141576477
	je	.LBB15_75

	cmp	ecx, 727089142
	jne	.LBB15_68

	lea	rax, [rbp - 64]
	mov	qword ptr [rbp - 56], rax
	mov	ecx, esi
	jmp	.LBB15_68
.LBB15_75:                              
	mov	ecx, 727089142
	jmp	.LBB15_68
.LBB15_111:                             
	mov	rsi, qword ptr [rbp - 56]
	mov	rdx, qword ptr [rbp - 112]
	mov	ebx, dword ptr [rip + x.560]
	mov	ecx, dword ptr [rip + y.561]
	mov	eax, ebx
	neg	eax
	not	eax
	imul	eax, ebx
	not	eax
	or	eax, -2
	cmp	eax, -1
	sete	al
	sete	byte ptr [rbp - 64]
	mov	r9d, 967467452
	mov	r8d, 51183242
	cmove	r9d, r8d
	cmp	ecx, 10
	setl	cl
	setl	byte ptr [rbp - 56]
	mov	ebx, 967467452
	cmovge	r9d, ebx
	xor	cl, al
	cmovne	r9d, r8d
	mov	ecx, 1910415245
	jmp	.LBB15_112
.LBB15_76:                              
	mov	rax, qword ptr [rbp - 56]
	movabs	rcx, -6525151729685970876
	mov	rsi, rcx
	lea	ecx, [r9 + rsi + 1]
	sub	ecx, dword ptr [rax]
	sub	ecx, esi
	mov	rax, qword ptr [rbp - 112]
	mov	dword ptr [rax], ecx
	mov	rdi, qword ptr [rbp - 96]
	mov	ecx, dword ptr [rip + x.90]
	mov	edx, dword ptr [rip + y.91]
	lea	esi, [rcx - 1]
	imul	esi, ecx
	mov	ecx, esi
	xor	ecx, -2
	and	ecx, esi
	sete	byte ptr [rbp - 72]
	sete	bl
	test	ecx, ecx
	mov	ecx, -470363259
	mov	eax, -338361297
	cmove	ecx, eax
	cmp	edx, 10
	setl	dl
	setl	byte ptr [rbp - 64]
	mov	esi, -470363259
	cmovge	ecx, esi
	xor	dl, bl
	cmovne	ecx, eax
	mov	edx, -334273138
	jmp	.LBB15_77
.LBB15_114:                             
	mov	ecx, r9d
	.p2align	4, 0x90
.LBB15_112:                             

	cmp	ecx, 967467451
	jg	.LBB15_117

	cmp	ecx, -1218033486
	je	.LBB15_114

	cmp	ecx, 51183242
	jne	.LBB15_112
	jmp	.LBB15_122
	.p2align	4, 0x90
.LBB15_117:                             
	cmp	ecx, 967467452
	je	.LBB15_120

	cmp	ecx, 1910415245
	jne	.LBB15_112

	movzx	r8d, byte ptr [rbp - 64]
	movzx	ecx, byte ptr [rbp - 56]
	mov	ebx, r8d
	xor	bl, cl
	test	cl, cl
	mov	ecx, 967467452
	mov	r10d, -1218033486
	cmovne	ecx, r10d
	test	r8b, r8b
	mov	eax, 967467452
	cmove	ecx, eax
	test	bl, bl
	cmovne	ecx, r10d
	jmp	.LBB15_112
.LBB15_120:                             
	mov	ecx, -1218033486
	jmp	.LBB15_112
.LBB15_83:                              
	movzx	eax, byte ptr [rbp - 72]
	movzx	edx, byte ptr [rbp - 64]
	mov	ebx, eax
	xor	bl, dl
	test	dl, dl
	mov	edx, -470363259
	mov	esi, 890861893
	cmovne	edx, esi
	test	al, al
	mov	eax, -470363259
	cmove	edx, eax
	test	bl, bl
	cmovne	edx, esi
	.p2align	4, 0x90
.LBB15_77:                              

	cmp	edx, -334273139
	jg	.LBB15_81

	cmp	edx, -470363259
	je	.LBB15_85

	cmp	edx, -338361297
	jne	.LBB15_77
	jmp	.LBB15_80
	.p2align	4, 0x90
.LBB15_81:                              
	cmp	edx, 890861893
	je	.LBB15_84

	cmp	edx, -334273138
	jne	.LBB15_77
	jmp	.LBB15_83
.LBB15_85:                              
	mov	edx, 890861893
	jmp	.LBB15_77
.LBB15_84:                              
	mov	rax, qword ptr [rdi]
	mov	qword ptr [rbp - 56], rax
	mov	edx, ecx
	jmp	.LBB15_77
.LBB15_122:                             
	add	rsi, 224
	call	_ZSt9__find_ifIPKiN9__gnu_cxx5__ops16_Iter_equals_valIS0_EEET_S6_S6_T0_St26random_access_iterator_tag
	movabs	rcx, -2880843140791189678
	add	rax, rcx
	sub	rax, r14
	sub	rax, rcx
	shr	rax, 2
	mov	ecx, dword ptr [rbp - 140] 
	sub	ecx, eax
	movabs	rax, -3024073306974499029
	add	ecx, eax
	movsxd	rsi, ecx
	mov	rdi, qword ptr [rbp - 104]
	mov	edx, 1
	call	_ZNSt6bitsetILm56EE3setEmb
	mov	eax, 908527397
	mov	r14, r12
	mov	r12d, 2056606463
	jmp	.LBB15_1
.LBB15_80:                              
	mov	rax, qword ptr [rbp - 56]
	cmp	byte ptr [rax], 49
	sete	al
	mov	rcx, qword ptr [rbp - 112]
	mov	ecx, dword ptr [rcx]
	cmp	ecx, 8
	setne	dl
	xor	dl, al
	not	dl
	and	dl, al
	mov	eax, ecx
	and	eax, 8
	mov	esi, ecx
	xor	esi, 8
	or	esi, eax
	cmp	esi, 24
	sete	al
	xor	dl, 1
	or	dl, al
	mov	eax, ecx
	not	eax
	and	eax, 1802961088
	mov	esi, ecx
	and	esi, -1802961089
	or	esi, eax
	xor	esi, 1802961112
	mov	eax, ecx
	and	eax, 24
	or	eax, esi
	cmp	eax, 56
	setne	bl
	mov	eax, 908527397
	mov	esi, -299455439
	cmovne	eax, esi
	xor	bl, dl
	mov	edx, 908527397
	cmove	eax, edx
	cmp	ecx, 64
	cmove	eax, edx
	jmp	.LBB15_1
.LBB15_10:
	lea	rsp, [rbp - 40]
	pop	rbx
	pop	r12
	pop	r13
	pop	r14
	pop	r15
	pop	rbp
	ret
.LBB15_138:
.Ltmp266:
	mov	rdi, rax
	call	__cxa_call_unexpected
.LBB15_46:
.Ltmp269:
	mov	rdi, rax
	call	__cxa_call_unexpected
.Lfunc_end15:
	.size	_ZN3DES15parityDropPermuERKNSt7__cxx1112basic_stringIcSt11char_traitsIcESaIcEEE, .Lfunc_end15-_ZN3DES15parityDropPermuERKNSt7__cxx1112basic_stringIcSt11char_traitsIcESaIcEEE
	.cfi_endproc
	.section	.gcc_except_table,"a",@progbits
	.p2align	2
GCC_except_table15:
.Lexception11:
	.byte	255                     
	.byte	3                       
	.byte	69                      
	.byte	3                       
	.byte	65                      
	.long	.Lfunc_begin11-.Lfunc_begin11 
	.long	.Ltmp267-.Lfunc_begin11 
	.long	0                       
	.byte	0                       
	.long	.Ltmp267-.Lfunc_begin11 
	.long	.Ltmp268-.Ltmp267       
	.long	.Ltmp269-.Lfunc_begin11 
	.byte	1                       
	.long	.Ltmp268-.Lfunc_begin11 
	.long	.Ltmp264-.Ltmp268       
	.long	0                       
	.byte	0                       
	.long	.Ltmp264-.Lfunc_begin11 
	.long	.Ltmp265-.Ltmp264       
	.long	.Ltmp266-.Lfunc_begin11 
	.byte	1                       
	.long	.Ltmp265-.Lfunc_begin11 
	.long	.Lfunc_end15-.Ltmp265   
	.long	0                       
	.byte	0                       
	.byte	127                     

	.byte	0                       

	.byte	0
	.p2align	2

	.text
	.globl	_ZN3DES16compressionPermuERKNSt7__cxx1112basic_stringIcSt11char_traitsIcESaIcEEE 
	.p2align	4, 0x90
	.type	_ZN3DES16compressionPermuERKNSt7__cxx1112basic_stringIcSt11char_traitsIcESaIcEEE,@function
_ZN3DES16compressionPermuERKNSt7__cxx1112basic_stringIcSt11char_traitsIcESaIcEEE: 
.Lfunc_begin12:
	.cfi_startproc
	.cfi_personality 3, __gxx_personality_v0
	.cfi_lsda 3, .Lexception12

	push	rbp
.Lcfi120:
	.cfi_def_cfa_offset 16
	push	r15
.Lcfi121:
	.cfi_def_cfa_offset 24
	push	r14
.Lcfi122:
	.cfi_def_cfa_offset 32
	push	r13
.Lcfi123:
	.cfi_def_cfa_offset 40
	push	r12
.Lcfi124:
	.cfi_def_cfa_offset 48
	push	rbx
.Lcfi125:
	.cfi_def_cfa_offset 56
	sub	rsp, 168
.Lcfi126:
	.cfi_def_cfa_offset 224
.Lcfi127:
	.cfi_offset rbx, -56
.Lcfi128:
	.cfi_offset r12, -48
.Lcfi129:
	.cfi_offset r13, -40
.Lcfi130:
	.cfi_offset r14, -32
.Lcfi131:
	.cfi_offset r15, -24
.Lcfi132:
	.cfi_offset rbp, -16
	mov	r12, rsi
	mov	qword ptr [rsp + 136], rdi 
	lea	rax, [rsp + 160]
	mov	qword ptr [rsp + 144], rax
	lea	rax, [rsp + 48]
	mov	qword ptr [rsp + 96], rax
	mov	rax, qword ptr [rsp + 96]
	mov	qword ptr [rsp + 48], 0
	lea	rax, [rsp + 88]
	mov	qword ptr [rsp + 104], rax
	mov	rax, qword ptr [rsp + 104]
	lea	rax, [rsp + 40]
	mov	qword ptr [rsp + 112], rax
	mov	rax, qword ptr [rsp + 112]
	mov	eax, dword ptr [rip + x.84]
	mov	edx, dword ptr [rip + y.85]
	lea	ecx, [rax - 1]
	imul	ecx, eax
	mov	esi, ecx
	xor	esi, -2
	and	esi, ecx
	sete	al
	sete	byte ptr [rsp + 24]
	cmp	edx, 10
	setl	cl
	xor	cl, al
	mov	eax, 2056606463
	mov	r8d, -1559444858
	mov	edi, -1559444858
	cmovne	edi, eax
	test	esi, esi
	cmovne	eax, edi
	cmp	edx, 10
	setl	byte ptr [rsp + 16]
	cmovge	eax, edi
	mov	rbp, qword ptr [r12]
	mov	edi, -2098656802
	mov	esi, 306072885
	jmp	.LBB16_1
.LBB16_17:                              
	movzx	edx, byte ptr [rsp + 24]
	movzx	ebx, byte ptr [rsp + 16]
	mov	ecx, edx
	xor	cl, bl
	test	bl, bl
	mov	edi, -1559444858
	cmovne	edi, esi
	test	dl, dl
	cmove	edi, r8d
	test	cl, cl
	cmovne	edi, esi
	.p2align	4, 0x90
.LBB16_1:                               
	cmp	edi, 306072884
	jle	.LBB16_2

	cmp	edi, 306072885
	je	.LBB16_18

	cmp	edi, 2056606463
	jne	.LBB16_1
	jmp	.LBB16_7
	.p2align	4, 0x90
.LBB16_2:                               
	cmp	edi, -2098656802
	je	.LBB16_17

	cmp	edi, -1559444858
	jne	.LBB16_1

	mov	edi, 306072885
	jmp	.LBB16_1
.LBB16_18:                              
	mov	qword ptr [rsp + 56], rbp
	mov	edi, eax
	jmp	.LBB16_1
.LBB16_7:
	movabs	rcx, -2237147020415617972
	mov	r13, qword ptr [rsp + 56]
	mov	eax, -658635587
	mov	edx, 47
	sub	edx, ecx
	mov	dword ptr [rsp + 92], edx 
	mov	r14d, 727089142
	lea	r15, [rsp + 40]
	jmp	.LBB16_8
.LBB16_139:                             
	cmovge	eax, edi
	xor	dl, cl
	cmovne	eax, esi
	.p2align	4, 0x90
.LBB16_8:                               












	cmp	eax, 332304974
	jle	.LBB16_9

	cmp	eax, 1153118975
	jg	.LBB16_32

	cmp	eax, 332304975
	je	.LBB16_57

	cmp	eax, 661998329
	je	.LBB16_143

	cmp	eax, 725512397
	jne	.LBB16_8

	mov	al, byte ptr [rsp + 39]
	test	al, al
	mov	eax, 1153118976
	mov	ecx, 332304975
	cmovne	eax, ecx
	jmp	.LBB16_8
	.p2align	4, 0x90
.LBB16_9:                               
	cmp	eax, -658635588
	jle	.LBB16_10

	cmp	eax, -658635587
	je	.LBB16_40

	cmp	eax, -21119504
	je	.LBB16_41

	cmp	eax, 32563218
	jne	.LBB16_8

	mov	eax, dword ptr [rip + x.104]
	mov	ecx, dword ptr [rip + y.105]
	lea	edx, [rax - 1]
	imul	edx, eax
	mov	eax, edx
	xor	eax, -2
	and	eax, edx
	sete	dl
	sete	byte ptr [rsp + 24]
	cmp	ecx, 10
	setl	bl
	xor	bl, dl
	mov	edx, 885081172
	mov	esi, 1128268725
	cmovne	edx, esi
	test	eax, eax
	mov	eax, edx
	cmove	eax, esi
	cmp	ecx, 10
	setl	byte ptr [rsp + 16]
	cmovge	eax, edx
	mov	ecx, -727860805
	jmp	.LBB16_23
	.p2align	4, 0x90
.LBB16_32:                              
	cmp	eax, 1180586615
	je	.LBB16_94

	cmp	eax, 1892235401
	je	.LBB16_135

	cmp	eax, 1153118976
	jne	.LBB16_8
	jmp	.LBB16_35
	.p2align	4, 0x90
.LBB16_10:                              
	cmp	eax, -1608673924
	je	.LBB16_142

	cmp	eax, -1215869860
	jne	.LBB16_8

	mov	eax, dword ptr [rip + x.104]
	mov	ecx, dword ptr [rip + y.105]
	lea	edx, [rax - 1]
	imul	edx, eax
	not	edx
	or	edx, -2
	cmp	edx, -1
	sete	al
	cmp	ecx, 10
	setl	bl
	xor	bl, al
	mov	esi, 885081172
	mov	edi, 1128268725
	cmovne	esi, edi
	cmp	edx, -1
	sete	byte ptr [rsp + 24]
	mov	eax, esi
	cmove	eax, edi
	cmp	ecx, 10
	setl	byte ptr [rsp + 16]
	cmovge	eax, esi
	mov	ecx, -727860805
	jmp	.LBB16_13
.LBB16_156:                             
	mov	rcx, qword ptr [rsp + 40]
	lea	rdx, [rcx + 1]
	mov	qword ptr [rsp + 40], rdx
	mov	qword ptr [rsp + 56], rcx
	mov	ecx, eax
	.p2align	4, 0x90
.LBB16_13:                              

	cmp	ecx, 885081171
	jle	.LBB16_14

	cmp	ecx, 885081172
	je	.LBB16_157

	cmp	ecx, 1128268725
	jne	.LBB16_13
	jmp	.LBB16_155
	.p2align	4, 0x90
.LBB16_14:                              
	cmp	ecx, -1885389000
	je	.LBB16_156

	cmp	ecx, -727860805
	jne	.LBB16_13

	movzx	ebx, byte ptr [rsp + 24]
	movzx	ecx, byte ptr [rsp + 16]
	mov	edx, ebx
	xor	dl, cl
	mov	edx, 885081172
	mov	esi, -1885389000
	cmovne	edx, esi
	test	cl, cl
	mov	ecx, edx
	cmovne	ecx, esi
	test	bl, bl
	cmove	ecx, edx
	jmp	.LBB16_13
.LBB16_157:                             
	inc	qword ptr [rsp + 40]
	mov	ecx, -1885389000
	jmp	.LBB16_13
.LBB16_140:                             
	mov	rcx, qword ptr [rsp + 40]
	lea	rdx, [rcx + 1]
	mov	qword ptr [rsp + 40], rdx
	mov	qword ptr [rsp + 56], rcx
	mov	ecx, eax
	.p2align	4, 0x90
.LBB16_23:                              

	cmp	ecx, 885081171
	jle	.LBB16_24

	cmp	ecx, 885081172
	je	.LBB16_141

	cmp	ecx, 1128268725
	jne	.LBB16_23
	jmp	.LBB16_138
	.p2align	4, 0x90
.LBB16_24:                              
	cmp	ecx, -1885389000
	je	.LBB16_140

	cmp	ecx, -727860805
	jne	.LBB16_23

	movzx	ebx, byte ptr [rsp + 24]
	movzx	ecx, byte ptr [rsp + 16]
	mov	edx, ebx
	xor	dl, cl
	test	cl, cl
	mov	ecx, 885081172
	mov	edi, -1885389000
	cmovne	ecx, edi
	test	bl, bl
	mov	esi, 885081172
	cmove	ecx, esi
	test	dl, dl
	cmovne	ecx, edi
	jmp	.LBB16_23
.LBB16_141:                             
	inc	qword ptr [rsp + 40]
	mov	ecx, -1885389000
	jmp	.LBB16_23
.LBB16_155:                             
	mov	rax, qword ptr [rsp + 56]
	mov	eax, 32563218
	jmp	.LBB16_8
.LBB16_94:                              
	mov	eax, dword ptr [rip + x.172]
	mov	ecx, dword ptr [rip + y.173]
	lea	edx, [rax - 1]
	imul	edx, eax
	not	edx
	or	edx, -2
	cmp	edx, -1
	sete	al
	cmp	ecx, 10
	setl	bl
	xor	bl, al
	mov	esi, -1914468566
	mov	edi, 2096117203
	cmovne	esi, edi
	cmp	edx, -1
	sete	byte ptr [rsp + 24]
	mov	eax, esi
	cmove	eax, edi
	cmp	ecx, 10
	setl	byte ptr [rsp + 16]
	cmovge	eax, esi
	mov	ecx, 888705779
	jmp	.LBB16_95
.LBB16_105:                             
	mov	qword ptr [rsp + 56], _ZN3DES19keyCompressionTableE+192
	mov	ecx, eax
	.p2align	4, 0x90
.LBB16_95:                              

	cmp	ecx, 1099473292
	jle	.LBB16_96

	cmp	ecx, 1099473293
	je	.LBB16_105

	cmp	ecx, 2096117203
	jne	.LBB16_95
	jmp	.LBB16_101
	.p2align	4, 0x90
.LBB16_96:                              
	cmp	ecx, -1914468566
	je	.LBB16_106

	cmp	ecx, 888705779
	jne	.LBB16_95

	movzx	ebx, byte ptr [rsp + 24]
	movzx	ecx, byte ptr [rsp + 16]
	mov	edx, ebx
	xor	dl, cl
	test	cl, cl
	mov	ecx, -1914468566
	mov	edi, 1099473293
	cmovne	ecx, edi
	test	bl, bl
	mov	esi, -1914468566
	cmove	ecx, esi
	test	dl, dl
	cmovne	ecx, edi
	jmp	.LBB16_95
.LBB16_106:                             
	mov	ecx, 1099473293
	jmp	.LBB16_95
.LBB16_101:                             
	mov	rsi, qword ptr [rsp + 56]
	mov	eax, dword ptr [rip + x.560]
	mov	ecx, dword ptr [rip + y.561]
	lea	edx, [rax - 1]
	imul	edx, eax
	mov	eax, edx
	xor	eax, -2
	and	eax, edx
	sete	byte ptr [rsp + 16]
	sete	dl
	test	eax, eax
	mov	eax, 967467452
	mov	edi, 51183242
	cmove	eax, edi
	cmp	ecx, 10
	setl	cl
	setl	byte ptr [rsp + 56]
	mov	ebp, 967467452
	cmovge	eax, ebp
	xor	cl, dl
	cmovne	eax, edi
	mov	ecx, 1910415245
	jmp	.LBB16_102
.LBB16_104:                             
	mov	ecx, eax
	.p2align	4, 0x90
.LBB16_102:                             

	cmp	ecx, 967467451
	jg	.LBB16_107

	cmp	ecx, -1218033486
	je	.LBB16_104

	cmp	ecx, 51183242
	jne	.LBB16_102
	jmp	.LBB16_112
	.p2align	4, 0x90
.LBB16_107:                             
	cmp	ecx, 967467452
	je	.LBB16_110

	cmp	ecx, 1910415245
	jne	.LBB16_102

	movzx	ebx, byte ptr [rsp + 16]
	movzx	ecx, byte ptr [rsp + 56]
	mov	edx, ebx
	xor	dl, cl
	test	cl, cl
	mov	ecx, 967467452
	mov	ebp, -1218033486
	cmovne	ecx, ebp
	test	bl, bl
	mov	edi, 967467452
	cmove	ecx, edi
	test	dl, dl
	cmovne	ecx, ebp
	jmp	.LBB16_102
.LBB16_110:                             
	mov	ecx, -1218033486
	jmp	.LBB16_102
.LBB16_112:                             
	mov	edi, _ZN3DES19keyCompressionTableE
	lea	rdx, [rsp + 88]
	call	_ZSt9__find_ifIPKiN9__gnu_cxx5__ops16_Iter_equals_valIS0_EEET_S6_S6_T0_St26random_access_iterator_tag
	mov	ecx, _ZN3DES19keyCompressionTableE
	sub	rax, rcx
	shr	rax, 2
	mov	ecx, dword ptr [rsp + 92] 
	sub	ecx, eax
	movabs	rax, -2237147020415617972
	add	ecx, eax
	movsxd	rdx, ecx
	cmp	rdx, 47
	mov	eax, -454957311
	mov	esi, -1053281970
	cmova	eax, esi
	mov	esi, -1579626111
	jmp	.LBB16_113
.LBB16_138:                             
	mov	rax, qword ptr [rsp + 56]
	mov	qword ptr [rsp + 152], rax
	mov	eax, dword ptr [rip + x.134]
	lea	ecx, [rax - 1]
	imul	ecx, eax
	not	ecx
	or	ecx, -2
	cmp	ecx, -1
	sete	cl
	mov	eax, -1215869860
	mov	esi, -1608673924
	cmove	eax, esi
	cmp	dword ptr [rip + y.135], 10
	setl	dl
	mov	edi, -1215869860
	jmp	.LBB16_139
.LBB16_135:                             
	mov	eax, dword ptr [rip + x.134]
	mov	ecx, dword ptr [rip + y.135]
	lea	edx, [rax - 1]
	imul	edx, eax
	not	edx
	or	edx, -2
	cmp	edx, -1
	sete	al
	cmp	ecx, 10
	setl	bl
	xor	bl, al
	mov	esi, -1215869860
	mov	edi, 32563218
	cmovne	esi, edi
	cmp	edx, -1
	mov	eax, esi
	cmove	eax, edi
	cmp	ecx, 10
	cmovge	eax, esi
	jmp	.LBB16_8
.LBB16_142:                             
	mov	r15, qword ptr [rsp + 144]
	mov	r13, qword ptr [rsp + 152]
	mov	eax, -658635587
	jmp	.LBB16_8
.LBB16_143:                             
	mov	rax, qword ptr [rsp + 128]
	mov	rcx, qword ptr [rsp + 120]
	mov	qword ptr [rax], rcx
	mov	eax, dword ptr [rip + x.88]
	mov	ecx, dword ptr [rip + y.89]
	lea	edx, [rax - 1]
	imul	edx, eax
	mov	eax, edx
	xor	eax, -2
	and	eax, edx
	sete	dl
	sete	byte ptr [rsp + 14]
	cmp	ecx, 10
	setl	bl
	xor	bl, dl
	mov	edx, -334892812
	mov	esi, -2124313413
	cmovne	edx, esi
	test	eax, eax
	mov	eax, edx
	cmove	eax, esi
	cmp	ecx, 10
	setl	byte ptr [rsp + 24]
	cmovge	eax, edx
	mov	rsi, qword ptr [r12]
	add	rsi, qword ptr [r12 + 8]
	mov	edx, 1258716355
	jmp	.LBB16_144
	.p2align	4, 0x90
.LBB16_114:                             
	mov	esi, eax
.LBB16_113:                             

	mov	edi, esi
	and	edi, 2147483647
	cmp	edi, 567857537
	je	.LBB16_114

	cmp	edi, 1692526337
	je	.LBB16_118

	cmp	edi, 1094201678
	jne	.LBB16_113
	jmp	.LBB16_117
.LBB16_118:                             
	mov	byte ptr [rsp + 16], 1
	movabs	rax, 8911968057802494746
	mov	rdx, rax
	not	eax
	or	eax, edx
	and	ecx, eax
	mov	eax, 1

	shl	rax, cl
	mov	ecx, dword ptr [rip + x.572]
	lea	edx, [rcx - 1]
	imul	edx, ecx
	not	edx
	or	edx, -2
	cmp	edx, -1
	setne	cl
	cmp	dword ptr [rip + y.573], 9
	setg	dl
	mov	ebx, edx
	xor	bl, cl
	or	dl, cl
	xor	dl, 1
	or	dl, bl
	mov	ecx, -703220284
	mov	edx, -1331216197
	cmovne	ecx, edx
	mov	edx, -703220284
	mov	esi, 190499760
	cmovne	edx, esi
	mov	esi, 686555375
	jmp	.LBB16_119
.LBB16_123:                             
	mov	esi, ecx
	.p2align	4, 0x90
.LBB16_119:                             

	cmp	esi, 173972207
	jle	.LBB16_120

	cmp	esi, 426865457
	jle	.LBB16_125

	cmp	esi, 426865458
	je	.LBB16_134

	cmp	esi, 686555375
	jne	.LBB16_119

	mov	qword ptr [rsp + 56], rax
	movzx	ebx, byte ptr [rsp + 16]
	test	bl, bl
	mov	esi, -550840946
	mov	edi, 173972208
	cmovne	esi, edi
	jmp	.LBB16_119
	.p2align	4, 0x90
.LBB16_120:                             
	cmp	esi, -1331216197
	je	.LBB16_132

	cmp	esi, -703220284
	je	.LBB16_133

	cmp	esi, -550840946
	jne	.LBB16_119
	jmp	.LBB16_123
	.p2align	4, 0x90
.LBB16_125:                             
	cmp	esi, 173972208
	je	.LBB16_131

	cmp	esi, 190499760
	jne	.LBB16_119

	mov	esi, 426865458
	jmp	.LBB16_119
.LBB16_132:                             
	mov	rsi, qword ptr [rsp + 48]
	mov	rdi, qword ptr [rsp + 56]
	xor	rdi, rsi
	and	rdi, rsi
	mov	qword ptr [rsp + 48], rdi
	mov	esi, edx
	jmp	.LBB16_119
.LBB16_131:                             
	mov	rsi, qword ptr [rsp + 48]
	mov	rdi, qword ptr [rsp + 56]
	mov	rbp, rdi
	and	rbp, rsi
	xor	rdi, rsi
	or	rdi, rbp
	mov	qword ptr [rsp + 48], rdi
	mov	esi, 426865458
	jmp	.LBB16_119
.LBB16_133:                             
	mov	rsi, qword ptr [rsp + 56]
	mov	rsi, qword ptr [rsp + 56]
	mov	rsi, qword ptr [rsp + 56]
	mov	rsi, qword ptr [rsp + 56]
	mov	rsi, qword ptr [rsp + 56]
	mov	rsi, qword ptr [rsp + 48]
	mov	rdi, qword ptr [rsp + 56]
	xor	rdi, rsi
	and	rdi, rsi
	mov	qword ptr [rsp + 48], rdi
	mov	esi, -1331216197
	jmp	.LBB16_119
.LBB16_134:                             
	mov	eax, 1892235401
	jmp	.LBB16_8
.LBB16_151:                             
	mov	edx, -845894381
	.p2align	4, 0x90
.LBB16_144:                             

	cmp	edx, -334892813
	jg	.LBB16_148

	cmp	edx, -2124313413
	je	.LBB16_152

	cmp	edx, -845894381
	jne	.LBB16_144

	mov	qword ptr [rsp + 56], rsi
	mov	edx, eax
	jmp	.LBB16_144
	.p2align	4, 0x90
.LBB16_148:                             
	cmp	edx, -334892812
	je	.LBB16_151

	cmp	edx, 1258716355
	jne	.LBB16_144

	movzx	ecx, byte ptr [rsp + 14]
	movzx	edx, byte ptr [rsp + 24]
	mov	ebx, ecx
	xor	bl, dl
	mov	edi, -334892812
	mov	ebp, -845894381
	cmovne	edi, ebp
	test	dl, dl
	mov	edx, edi
	cmovne	edx, ebp
	test	cl, cl
	cmove	edx, edi
	jmp	.LBB16_144
.LBB16_152:                             
	mov	rax, qword ptr [rsp + 56]
	mov	qword ptr [rsp + 16], rax
	lea	rdi, [rsp + 40]
	lea	rsi, [rsp + 16]
	call	_ZN9__gnu_cxxltIPKcNSt7__cxx1112basic_stringIcSt11char_traitsIcESaIcEEEEEbRKNS_17__normal_iteratorIT_T0_EESE_
	mov	eax, -21119504
	jmp	.LBB16_8
.LBB16_57:                              
	mov	eax, dword ptr [rip + x.84]
	mov	ecx, dword ptr [rip + y.85]
	lea	edx, [rax - 1]
	imul	edx, eax
	not	edx
	or	edx, -2
	cmp	edx, -1
	sete	al
	cmp	ecx, 10
	setl	bl
	xor	bl, al
	mov	esi, -1559444858
	mov	edi, 2056606463
	cmovne	esi, edi
	cmp	edx, -1
	sete	byte ptr [rsp + 24]
	mov	eax, esi
	cmove	eax, edi
	cmp	ecx, 10
	setl	byte ptr [rsp + 16]
	cmovge	eax, esi
	mov	rsi, qword ptr [r12]
	mov	edx, -2098656802
	jmp	.LBB16_58
.LBB16_69:                              
	movzx	ecx, byte ptr [rsp + 24]
	movzx	edx, byte ptr [rsp + 16]
	mov	ebx, ecx
	xor	bl, dl
	test	dl, dl
	mov	edx, -1559444858
	mov	edi, 306072885
	cmovne	edx, edi
	test	cl, cl
	mov	ecx, -1559444858
	cmove	edx, ecx
	test	bl, bl
	cmovne	edx, edi
	.p2align	4, 0x90
.LBB16_58:                              

	cmp	edx, 306072884
	jle	.LBB16_59

	cmp	edx, 306072885
	je	.LBB16_70

	cmp	edx, 2056606463
	jne	.LBB16_58
	jmp	.LBB16_64
	.p2align	4, 0x90
.LBB16_59:                              
	cmp	edx, -2098656802
	je	.LBB16_69

	cmp	edx, -1559444858
	jne	.LBB16_58

	mov	edx, 306072885
	jmp	.LBB16_58
.LBB16_70:                              
	mov	qword ptr [rsp + 56], rsi
	mov	edx, eax
	jmp	.LBB16_58
.LBB16_41:                              
	mov	rax, qword ptr [rsp + 128]
	mov	rcx, qword ptr [rsp + 120]
	mov	qword ptr [rax], rcx
	mov	eax, dword ptr [rip + x.88]
	mov	ecx, dword ptr [rip + y.89]
	lea	edx, [rax - 1]
	imul	edx, eax
	not	edx
	or	edx, -2
	cmp	edx, -1
	sete	dl
	sete	byte ptr [rsp + 14]
	mov	eax, -334892812
	mov	esi, -2124313413
	cmove	eax, esi
	cmp	ecx, 10
	setl	cl
	setl	byte ptr [rsp + 24]
	mov	edi, -334892812
	cmovge	eax, edi
	xor	cl, dl
	cmovne	eax, esi
	mov	rsi, qword ptr [r12]
	add	rsi, qword ptr [r12 + 8]
	mov	edx, 1258716355
	jmp	.LBB16_42
.LBB16_64:                              
	mov	rcx, qword ptr [rsp + 56]
	mov	r8, qword ptr [rsp + 40]
	mov	qword ptr [rsp + 16], rcx
	mov	qword ptr [rsp + 24], r8
	mov	ecx, dword ptr [rip + x.218]
	mov	r9d, dword ptr [rip + y.219]
	lea	esi, [rcx - 1]
	imul	esi, ecx
	mov	edi, esi
	xor	edi, -2
	mov	ecx, edi
	and	ecx, esi
	sete	byte ptr [rsp + 15]
	sete	bl
	test	ecx, ecx
	mov	ecx, -141576477
	mov	edx, -808623260
	cmove	ecx, edx
	cmp	r9d, 10
	setl	al
	setl	byte ptr [rsp + 14]
	mov	ebp, -141576477
	cmovge	ecx, ebp
	xor	al, bl
	cmovne	ecx, edx
	mov	ebp, -557863778
	jmp	.LBB16_65
.LBB16_49:                              
	mov	edx, -845894381
	.p2align	4, 0x90
.LBB16_42:                              

	cmp	edx, -334892813
	jg	.LBB16_46

	cmp	edx, -2124313413
	je	.LBB16_50

	cmp	edx, -845894381
	jne	.LBB16_42

	mov	qword ptr [rsp + 56], rsi
	mov	edx, eax
	jmp	.LBB16_42
	.p2align	4, 0x90
.LBB16_46:                              
	cmp	edx, -334892812
	je	.LBB16_49

	cmp	edx, 1258716355
	jne	.LBB16_42

	movzx	ecx, byte ptr [rsp + 14]
	movzx	edx, byte ptr [rsp + 24]
	mov	ebx, ecx
	xor	bl, dl
	test	dl, dl
	mov	edx, -334892812
	mov	edi, -845894381
	cmovne	edx, edi
	test	cl, cl
	mov	ecx, -334892812
	cmove	edx, ecx
	test	bl, bl
	cmovne	edx, edi
	jmp	.LBB16_42
.LBB16_74:                              
	mov	ebp, 727089142
	.p2align	4, 0x90
.LBB16_65:                              

	cmp	ebp, -141576478
	jg	.LBB16_71

	cmp	ebp, -808623260
	je	.LBB16_75

	cmp	ebp, -557863778
	jne	.LBB16_65

	movzx	edx, byte ptr [rsp + 15]
	movzx	ebx, byte ptr [rsp + 14]
	mov	eax, edx
	xor	al, bl
	mov	eax, -141576477
	cmovne	eax, r14d
	test	bl, bl
	mov	ebp, eax
	cmovne	ebp, r14d
	test	dl, dl
	cmove	ebp, eax
	jmp	.LBB16_65
	.p2align	4, 0x90
.LBB16_71:                              
	cmp	ebp, -141576477
	je	.LBB16_74

	cmp	ebp, 727089142
	jne	.LBB16_65

	lea	rax, [rsp + 24]
	mov	qword ptr [rsp + 56], rax
	mov	ebp, ecx
	jmp	.LBB16_65
.LBB16_50:                              
	mov	rax, qword ptr [rsp + 56]
	mov	qword ptr [rsp + 16], rax
	lea	rdi, [rsp + 40]
	lea	rsi, [rsp + 16]
	call	_ZN9__gnu_cxxltIPKcNSt7__cxx1112basic_stringIcSt11char_traitsIcESaIcEEEEEbRKNS_17__normal_iteratorIT_T0_EESE_
	mov	byte ptr [rsp + 39], al
	mov	eax, dword ptr [rip + x.134]
	mov	ecx, dword ptr [rip + y.135]
	lea	edx, [rax - 1]
	imul	edx, eax
	mov	eax, edx
	xor	eax, -2
	and	eax, edx
	sete	dl
	cmp	ecx, 10
	setl	bl
	xor	bl, dl
	mov	edx, 661998329
	mov	esi, 725512397
	cmovne	edx, esi
	test	eax, eax
	mov	eax, edx
	cmove	eax, esi
	cmp	ecx, 10
	cmovge	eax, edx
	jmp	.LBB16_8
.LBB16_75:                              
	test	edi, esi
	mov	rax, qword ptr [rsp + 56]
	mov	rsi, qword ptr [rax]
	sete	byte ptr [rsp + 15]
	cmp	r9d, 10
	setl	byte ptr [rsp + 14]
	mov	edx, -557863778
	jmp	.LBB16_76
.LBB16_83:                              
	mov	edx, 727089142
	.p2align	4, 0x90
.LBB16_76:                              

	cmp	edx, -141576478
	jg	.LBB16_80

	cmp	edx, -808623260
	je	.LBB16_84

	cmp	edx, -557863778
	jne	.LBB16_76

	movzx	ebx, byte ptr [rsp + 15]
	movzx	edx, byte ptr [rsp + 14]
	mov	eax, ebx
	xor	al, dl
	test	dl, dl
	mov	edx, -141576477
	cmovne	edx, r14d
	test	bl, bl
	mov	edi, -141576477
	cmove	edx, edi
	test	al, al
	cmovne	edx, r14d
	jmp	.LBB16_76
	.p2align	4, 0x90
.LBB16_80:                              
	cmp	edx, -141576477
	je	.LBB16_83

	cmp	edx, 727089142
	jne	.LBB16_76

	lea	rax, [rsp + 16]
	mov	qword ptr [rsp + 56], rax
	mov	edx, ecx
	jmp	.LBB16_76
.LBB16_84:                              
	mov	rax, qword ptr [rsp + 56]
	neg	esi
	mov	ecx, 1
	sub	ecx, esi
	movabs	rdx, 4726393581289358051
	add	ecx, edx
	sub	ecx, dword ptr [rax]
	sub	ecx, edx
	mov	dword ptr [rsp + 88], ecx
	mov	eax, dword ptr [rip + x.90]
	mov	esi, dword ptr [rip + y.91]
	mov	edx, eax
	neg	edx
	not	edx
	imul	edx, eax
	not	edx
	or	edx, -2
	cmp	edx, -1
	sete	al
	cmp	esi, 10
	setl	bl
	xor	bl, al
	mov	eax, -470363259
	mov	ebp, -338361297
	cmovne	eax, ebp
	cmp	edx, -1
	sete	byte ptr [rsp + 24]
	mov	edi, eax
	cmove	edi, ebp
	cmp	esi, 10
	setl	byte ptr [rsp + 16]
	cmovge	edi, eax
	mov	esi, -334273138
	jmp	.LBB16_85
.LBB16_92:                              
	mov	qword ptr [rsp + 56], r8
	mov	esi, edi
	.p2align	4, 0x90
.LBB16_85:                              

	cmp	esi, -334273139
	jg	.LBB16_89

	cmp	esi, -470363259
	je	.LBB16_93

	cmp	esi, -338361297
	jne	.LBB16_85
	jmp	.LBB16_88
	.p2align	4, 0x90
.LBB16_89:                              
	cmp	esi, 890861893
	je	.LBB16_92

	cmp	esi, -334273138
	jne	.LBB16_85

	movzx	edx, byte ptr [rsp + 24]
	movzx	ebx, byte ptr [rsp + 16]
	mov	eax, edx
	xor	al, bl
	mov	eax, -470363259
	mov	ebp, 890861893
	cmovne	eax, ebp
	test	bl, bl
	mov	esi, eax
	cmovne	esi, ebp
	test	dl, dl
	cmove	esi, eax
	jmp	.LBB16_85
.LBB16_93:                              
	mov	esi, 890861893
	jmp	.LBB16_85
.LBB16_88:                              
	mov	rax, qword ptr [rsp + 56]
	cmp	byte ptr [rax], 49
	setne	al
	cmp	ecx, 9
	sete	dl
	mov	esi, ecx
	not	esi
	and	esi, 1892594038
	mov	edi, ecx
	and	edi, -1892594039
	or	edi, esi
	xor	edi, 1892594034
	mov	esi, ecx
	and	esi, 4
	or	esi, edi
	cmp	esi, 22
	sete	bl
	or	bl, dl
	cmp	ecx, 25
	sete	dl
	or	dl, bl
	or	dl, al
	cmp	ecx, 35
	setne	al
	xor	dl, al
	and	dl, al
	cmp	ecx, 38
	setne	al
	xor	dl, al
	not	dl
	and	dl, al
	cmp	ecx, 43
	setne	bl
	mov	eax, 1892235401
	mov	esi, 1180586615
	cmovne	eax, esi
	xor	bl, dl
	mov	edx, 1892235401
	cmovne	eax, edx
	cmp	ecx, 54
	cmove	eax, edx
	jmp	.LBB16_8
.LBB16_40:                              
	mov	qword ptr [rsp + 120], r13
	mov	qword ptr [rsp + 128], r15
	mov	eax, dword ptr [rip + x.134]
	lea	ecx, [rax - 1]
	imul	ecx, eax
	mov	eax, ecx
	xor	eax, -2
	and	eax, ecx
	sete	cl
	test	eax, eax
	mov	eax, 661998329
	mov	esi, -21119504
	cmove	eax, esi
	cmp	dword ptr [rip + y.135], 10
	setl	dl
	mov	edi, 661998329
	jmp	.LBB16_139
.LBB16_35:
	mov	rax, qword ptr [rsp + 112]
	mov	eax, dword ptr [rip + x.68]
	mov	ecx, dword ptr [rip + y.69]
	mov	edx, eax
	neg	edx
	not	edx
	imul	edx, eax
	mov	eax, edx
	xor	eax, -2
	test	eax, edx
	sete	byte ptr [rsp + 24]
	cmp	ecx, 10
	setl	byte ptr [rsp + 16]
	mov	eax, -1083827151
	mov	r12d, 1197382069
	mov	r14d, -859642600
	lea	r15, [rsp + 56]
	lea	rbx, [rsp + 48]
	mov	ebp, -24943816
	jmp	.LBB16_36
.LBB16_158:                             
	movzx	ecx, byte ptr [rsp + 24]
	movzx	eax, byte ptr [rsp + 16]
	mov	edx, ecx
	xor	dl, al
	mov	edx, -859642600
	cmovne	edx, r12d
	test	al, al
	mov	eax, edx
	cmovne	eax, r12d
	test	cl, cl
	cmove	eax, edx
	.p2align	4, 0x90
.LBB16_36:                              
	cmp	eax, -24943817
	jg	.LBB16_51

	cmp	eax, -1083827151
	je	.LBB16_158

	cmp	eax, -859642600
	jne	.LBB16_36

	mov	rdi, r15
	mov	rsi, rbx
	call	_ZNKSt6bitsetILm48EE9to_stringIcSt11char_traitsIcESaIcEEENSt7__cxx1112basic_stringIT_T0_T1_EEv
	mov	eax, 1197382069
	jmp	.LBB16_36
	.p2align	4, 0x90
.LBB16_51:                              
	cmp	eax, -24943816
	je	.LBB16_55

	cmp	eax, 1197382069
	jne	.LBB16_36

	mov	rdi, r15
	mov	rsi, rbx
	call	_ZNKSt6bitsetILm48EE9to_stringIcSt11char_traitsIcESaIcEEENSt7__cxx1112basic_stringIT_T0_T1_EEv
	mov	eax, dword ptr [rip + x.68]
	lea	ecx, [rax - 1]
	imul	ecx, eax
	mov	eax, ecx
	xor	eax, -2
	and	eax, ecx
	sete	cl
	test	eax, eax
	mov	eax, -859642600
	cmove	eax, ebp
	cmp	dword ptr [rip + y.69], 10
	setl	dl
	cmovge	eax, r14d
	xor	dl, cl
	cmovne	eax, ebp
	jmp	.LBB16_36
.LBB16_55:
	mov	rdi, qword ptr [rsp + 136] 
	add	rdi, 264
	lea	rbx, [rsp + 56]
	mov	rsi, rbx
	call	_ZNSt7__cxx1112basic_stringIcSt11char_traitsIcESaIcEEaSEOS4_
.Ltmp270:
	mov	rdi, rbx
	call	_ZNSt7__cxx1112basic_stringIcSt11char_traitsIcESaIcEE10_M_disposeEv
.Ltmp271:

	mov	rax, qword ptr [rsp + 104]
	mov	rax, qword ptr [rsp + 96]
	add	rsp, 168
	pop	rbx
	pop	r12
	pop	r13
	pop	r14
	pop	r15
	pop	rbp
	ret
.LBB16_117:
	mov	edi, .L.str.49
	mov	esi, .L.str.48
	mov	ecx, 48
	xor	eax, eax
	call	_ZSt24__throw_out_of_range_fmtPKcz
.LBB16_54:
.Ltmp272:
	mov	rdi, rax
	call	__cxa_call_unexpected
.Lfunc_end16:
	.size	_ZN3DES16compressionPermuERKNSt7__cxx1112basic_stringIcSt11char_traitsIcESaIcEEE, .Lfunc_end16-_ZN3DES16compressionPermuERKNSt7__cxx1112basic_stringIcSt11char_traitsIcESaIcEEE
	.cfi_endproc
	.section	.gcc_except_table,"a",@progbits
	.p2align	2
GCC_except_table16:
.Lexception12:
	.byte	255                     
	.byte	3                       
	.asciz	"\253\200"              
	.byte	3                       
	.byte	39                      
	.long	.Lfunc_begin12-.Lfunc_begin12 
	.long	.Ltmp270-.Lfunc_begin12 
	.long	0                       
	.byte	0                       
	.long	.Ltmp270-.Lfunc_begin12 
	.long	.Ltmp271-.Ltmp270       
	.long	.Ltmp272-.Lfunc_begin12 
	.byte	1                       
	.long	.Ltmp271-.Lfunc_begin12 
	.long	.Lfunc_end16-.Ltmp271   
	.long	0                       
	.byte	0                       
	.byte	127                     

	.byte	0                       

	.byte	0
	.p2align	2

	.text
	.globl	_ZN3DES4sBoxERKNSt7__cxx1112basic_stringIcSt11char_traitsIcESaIcEEE 
	.p2align	4, 0x90
	.type	_ZN3DES4sBoxERKNSt7__cxx1112basic_stringIcSt11char_traitsIcESaIcEEE,@function
_ZN3DES4sBoxERKNSt7__cxx1112basic_stringIcSt11char_traitsIcESaIcEEE: 
.Lfunc_begin13:
	.cfi_startproc
	.cfi_personality 3, __gxx_personality_v0
	.cfi_lsda 3, .Lexception13

	push	rbp
.Lcfi133:
	.cfi_def_cfa_offset 16
	push	r15
.Lcfi134:
	.cfi_def_cfa_offset 24
	push	r14
.Lcfi135:
	.cfi_def_cfa_offset 32
	push	r13
.Lcfi136:
	.cfi_def_cfa_offset 40
	push	r12
.Lcfi137:
	.cfi_def_cfa_offset 48
	push	rbx
.Lcfi138:
	.cfi_def_cfa_offset 56
	sub	rsp, 184
.Lcfi139:
	.cfi_def_cfa_offset 240
.Lcfi140:
	.cfi_offset rbx, -56
.Lcfi141:
	.cfi_offset r12, -48
.Lcfi142:
	.cfi_offset r13, -40
.Lcfi143:
	.cfi_offset r14, -32
.Lcfi144:
	.cfi_offset r15, -24
.Lcfi145:
	.cfi_offset rbp, -16
	mov	r12, rsi
	movabs	r15, 5733029079269444666
	add	rdi, 328
	mov	esi, .L.str.2
	mov	qword ptr [rsp + 176], rdi 
	call	_ZNSt7__cxx1112basic_stringIcSt11char_traitsIcESaIcEEaSEPKc
	mov	qword ptr [rsp + 104], 0
	xor	r14d, r14d
	lea	rbp, [rsp + 40]
	lea	r13, [rsp + 72]
	lea	rbx, [rsp + 8]
















.LBB17_1:                               









	mov	edx, .L.str.50
	mov	rdi, r12
	mov	rsi, r14
	call	_ZNKSt7__cxx1112basic_stringIcSt11char_traitsIcESaIcEE8_M_checkEmPKc
	mov	ecx, 1
	mov	rdi, rbp
	mov	rsi, r12
	mov	rdx, rax
	call	_ZNSt7__cxx1112basic_stringIcSt11char_traitsIcESaIcEEC2ERKS4_mm
	lea	rsi, [r14 + r15 + 5]
	sub	rsi, r15
.Ltmp273:
	mov	edx, .L.str.50
	mov	rdi, r12
	call	_ZNKSt7__cxx1112basic_stringIcSt11char_traitsIcESaIcEE8_M_checkEmPKc
.Ltmp274:

.Ltmp275:
	mov	ecx, 1
	mov	rdi, r13
	mov	rsi, r12
	mov	rdx, rax
	call	_ZNSt7__cxx1112basic_stringIcSt11char_traitsIcESaIcEEC2ERKS4_mm
.Ltmp276:

.Ltmp278:
	mov	rdi, rbx
	mov	rsi, rbp
	mov	rdx, r13
	call	_ZStplIcSt11char_traitsIcESaIcEENSt7__cxx1112basic_stringIT_T0_T1_EEOS8_S9_
.Ltmp279:

.Ltmp281:
	mov	rax, r15
	mov	r15, r14
	mov	r14, r12
	mov	r12, r13
	mov	r13, rbp
	mov	rbp, rax
	mov	rdi, rbx
	call	_ZN3DES7bin2decERKNSt7__cxx1112basic_stringIcSt11char_traitsIcESaIcEEE
.Ltmp282:

.Ltmp293:
	mov	dword ptr [rsp + 4], eax 
	mov	rdi, rbx
	call	_ZNSt7__cxx1112basic_stringIcSt11char_traitsIcESaIcEE10_M_disposeEv
.Ltmp294:

.Ltmp296:
	mov	rdi, r12
	call	_ZNSt7__cxx1112basic_stringIcSt11char_traitsIcESaIcEE10_M_disposeEv
.Ltmp297:

.Ltmp299:
	mov	rdi, r13
	call	_ZNSt7__cxx1112basic_stringIcSt11char_traitsIcESaIcEE10_M_disposeEv
.Ltmp300:

	mov	r13, r14
	mov	r12, rbp
	mov	r14, r15
	mov	rax, r14
	not	rax
	mov	ecx, eax
	not	ecx
	movabs	rdx, 4380765433269117364
	mov	rbp, rbx
	mov	rbx, rdx
	mov	rsi, rbx
	not	rsi
	and	rax, rbx
	mov	rdx, r14
	and	rdx, rsi
	or	rdx, rax
	mov	rax, rbx
	and	rax, -2
	mov	edi, esi
	and	edi, 1
	or	rdi, rax
	xor	rdi, rdx
	or	esi, ebx
	and	esi, ecx
	and	esi, 1
	or	rsi, rdi
	mov	edx, .L.str.50
	mov	rdi, r13
	call	_ZNKSt7__cxx1112basic_stringIcSt11char_traitsIcESaIcEE8_M_checkEmPKc
	mov	ecx, 4
	mov	rdi, rbp
	mov	rbx, r13
	mov	rsi, r13
	mov	rdx, rax
	call	_ZNSt7__cxx1112basic_stringIcSt11char_traitsIcESaIcEEC2ERKS4_mm
.Ltmp302:
	mov	rdi, rbp
	call	_ZN3DES7bin2decERKNSt7__cxx1112basic_stringIcSt11char_traitsIcESaIcEEE
	mov	r13d, eax
.Ltmp303:

.Ltmp308:
	mov	rdi, rbp
	call	_ZNSt7__cxx1112basic_stringIcSt11char_traitsIcESaIcEE10_M_disposeEv
.Ltmp309:

	cmp	r14, 24
	jae	.LBB17_15

	cmp	r14, 12
	jae	.LBB17_19

	cmp	r14, 6
	jae	.LBB17_25

	test	r14, r14
	jne	.LBB17_122

	mov	eax, dword ptr [rip + x.144]
	mov	esi, dword ptr [rip + y.145]
	lea	edx, [rax - 1]
	imul	edx, eax
	not	edx
	or	edx, -2
	cmp	edx, -1
	sete	al
	cmp	esi, 10
	setl	byte ptr [rsp + 8]
	setl	cl
	xor	cl, al
	mov	ecx, -1225656578
	mov	eax, -518578958
	cmovne	ecx, eax
	cmp	edx, -1
	sete	byte ptr [rsp + 40]
	mov	edi, ecx
	cmove	edi, eax
	cmp	esi, 10
	movsxd	rdx, dword ptr [rsp + 4] 
	movsxd	rsi, r13d
	cmovge	edi, ecx
	shl	rdx, 6
	mov	ebp, dword ptr [rdx + 4*rsi + _ZN3DES2s1E]
	and	ebp, 15
	mov	edx, -1972697443
	mov	r15, r12
	mov	r12, rbx
	lea	r13, [rsp + 72]
	mov	rsi, qword ptr [rsp + 112] 
	jmp	.LBB17_28
	.p2align	4, 0x90
.LBB17_15:                              
	cmp	r14, 36
	jae	.LBB17_22

	cmp	r14, 30
	jae	.LBB17_35

	cmp	r14, 24
	jne	.LBB17_122

	movsxd	rax, dword ptr [rsp + 4] 
	movsxd	rcx, r13d
	shl	rax, 6
	mov	r8d, dword ptr [rax + 4*rcx + _ZN3DES2s5E]
	mov	ecx, dword ptr [rip + x.144]
	mov	edx, dword ptr [rip + y.145]
	lea	esi, [rcx - 1]
	imul	esi, ecx
	mov	ecx, esi
	xor	ecx, -2
	and	ecx, esi
	sete	al
	sete	byte ptr [rsp + 40]
	and	r8d, 15
	test	ecx, ecx
	mov	esi, -1225656578
	mov	ecx, -518578958
	cmove	esi, ecx
	cmp	edx, 10
	setl	dl
	setl	byte ptr [rsp + 8]
	mov	ebp, -1225656578
	cmovge	esi, ebp
	xor	dl, al
	cmovne	esi, ecx
	mov	edx, -1972697443
	mov	r15, r12
	mov	r12, rbx
	lea	r13, [rsp + 72]
	mov	rdi, qword ptr [rsp + 144] 
	jmp	.LBB17_38
.LBB17_19:                              
	cmp	r14, 18
	jae	.LBB17_45

	cmp	r14, 12
	jne	.LBB17_122

	mov	eax, dword ptr [rip + x.144]
	mov	esi, dword ptr [rip + y.145]
	lea	edx, [rax - 1]
	imul	edx, eax
	not	edx
	or	edx, -2
	cmp	edx, -1
	sete	al
	cmp	esi, 10
	setl	byte ptr [rsp + 8]
	setl	cl
	xor	cl, al
	mov	ecx, -1225656578
	mov	eax, -518578958
	cmovne	ecx, eax
	cmp	edx, -1
	sete	byte ptr [rsp + 40]
	mov	edi, ecx
	cmove	edi, eax
	cmp	esi, 10
	movsxd	rdx, dword ptr [rsp + 4] 
	movsxd	rsi, r13d
	cmovge	edi, ecx
	shl	rdx, 6
	mov	ebp, dword ptr [rdx + 4*rsi + _ZN3DES2s3E]
	and	ebp, 15
	mov	edx, -1972697443
	mov	r15, r12
	mov	r12, rbx
	lea	r13, [rsp + 72]
	mov	rsi, qword ptr [rsp + 128] 
	jmp	.LBB17_48
.LBB17_22:                              
	cmp	r14, 42
	jae	.LBB17_55

	cmp	r14, 36
	jne	.LBB17_122

	mov	eax, dword ptr [rip + x.144]
	mov	ecx, dword ptr [rip + y.145]
	lea	edx, [rax - 1]
	imul	edx, eax
	mov	eax, edx
	xor	eax, -2
	cmp	ecx, 10
	setl	sil
	setl	byte ptr [rsp + 8]
	and	eax, edx
	sete	dl
	sete	byte ptr [rsp + 40]
	xor	dl, sil
	mov	edx, -1225656578
	mov	esi, -518578958
	cmovne	edx, esi
	test	eax, eax
	mov	edi, edx
	cmove	edi, esi
	cmp	ecx, 10
	movsxd	rcx, dword ptr [rsp + 4] 
	movsxd	rsi, r13d
	cmovge	edi, edx
	shl	rcx, 6
	mov	edx, dword ptr [rcx + 4*rsi + _ZN3DES2s7E]
	mov	esi, edx
	xor	esi, -16
	and	esi, edx
	mov	edx, -1972697443
	mov	r15, r12
	mov	r12, rbx
	lea	r13, [rsp + 72]
	mov	rbx, qword ptr [rsp + 160] 
	jmp	.LBB17_58
.LBB17_25:                              
	jne	.LBB17_122

	mov	eax, dword ptr [rip + x.144]
	mov	ecx, dword ptr [rip + y.145]
	mov	edx, eax
	neg	edx
	not	edx
	imul	edx, eax
	mov	eax, edx
	xor	eax, -2
	cmp	ecx, 10
	setl	sil
	setl	byte ptr [rsp + 8]
	and	eax, edx
	sete	dl
	sete	byte ptr [rsp + 40]
	xor	dl, sil
	mov	edx, -1225656578
	mov	esi, -518578958
	cmovne	edx, esi
	test	eax, eax
	mov	edi, edx
	cmove	edi, esi
	cmp	ecx, 10
	movsxd	rcx, dword ptr [rsp + 4] 
	movsxd	rsi, r13d
	cmovge	edi, edx
	shl	rcx, 6
	mov	ebp, dword ptr [rcx + 4*rsi + _ZN3DES2s2E]
	and	ebp, 15
	mov	edx, -1972697443
	mov	r15, r12
	mov	r12, rbx
	lea	r13, [rsp + 72]
	mov	rsi, qword ptr [rsp + 120] 
	jmp	.LBB17_66
.LBB17_27:                              
	movzx	eax, byte ptr [rsp + 40]
	movzx	edx, byte ptr [rsp + 8]
	mov	ecx, eax
	xor	cl, dl
	test	dl, dl
	mov	edx, -1225656578
	mov	ebx, 2093959078
	cmovne	edx, ebx
	test	al, al
	mov	eax, -1225656578
	cmove	edx, eax
	test	cl, cl
	cmovne	edx, ebx
	.p2align	4, 0x90
.LBB17_28:                              

	cmp	edx, -518578959
	jg	.LBB17_32

	cmp	edx, -1972697443
	je	.LBB17_27

	cmp	edx, -1225656578
	jne	.LBB17_28

	mov	edx, 2093959078
	mov	rsi, rbp
	jmp	.LBB17_28
	.p2align	4, 0x90
.LBB17_32:                              
	cmp	edx, -518578958
	je	.LBB17_73

	cmp	edx, 2093959078
	jne	.LBB17_28

	mov	rsi, rbp
	mov	edx, edi
	jmp	.LBB17_28
.LBB17_35:                              
	jne	.LBB17_122

	movsxd	rax, dword ptr [rsp + 4] 
	movsxd	rcx, r13d
	shl	rax, 6
	mov	ecx, dword ptr [rax + 4*rcx + _ZN3DES2s6E]
	mov	eax, dword ptr [rip + x.144]
	mov	edi, dword ptr [rip + y.145]
	lea	esi, [rax - 1]
	imul	esi, eax
	not	esi
	or	esi, -2
	mov	ebp, ecx
	xor	ebp, -16
	and	ebp, ecx
	cmp	esi, -1
	sete	sil
	sete	byte ptr [rsp + 40]
	mov	ecx, -1225656578
	mov	eax, -518578958
	cmove	ecx, eax
	cmp	edi, 10
	setl	dl
	setl	byte ptr [rsp + 8]
	mov	edi, -1225656578
	cmovge	ecx, edi
	xor	dl, sil
	cmovne	ecx, eax
	mov	edx, -1972697443
	mov	r15, r12
	mov	r12, rbx
	lea	r13, [rsp + 72]
	mov	rbx, qword ptr [rsp + 152] 
	jmp	.LBB17_75
.LBB17_37:                              
	movzx	ecx, byte ptr [rsp + 40]
	movzx	edx, byte ptr [rsp + 8]
	mov	eax, ecx
	xor	al, dl
	test	dl, dl
	mov	edx, -1225656578
	mov	ebp, 2093959078
	cmovne	edx, ebp
	test	cl, cl
	mov	ecx, -1225656578
	cmove	edx, ecx
	test	al, al
	cmovne	edx, ebp
	.p2align	4, 0x90
.LBB17_38:                              

	cmp	edx, -518578959
	jg	.LBB17_42

	cmp	edx, -1972697443
	je	.LBB17_37

	cmp	edx, -1225656578
	jne	.LBB17_38

	mov	edx, 2093959078
	mov	rdi, r8
	jmp	.LBB17_38
	.p2align	4, 0x90
.LBB17_42:                              
	cmp	edx, -518578958
	je	.LBB17_82

	cmp	edx, 2093959078
	jne	.LBB17_38

	mov	rdi, r8
	mov	edx, esi
	jmp	.LBB17_38
.LBB17_45:                              
	jne	.LBB17_122

	movsxd	rax, dword ptr [rsp + 4] 
	movsxd	rcx, r13d
	shl	rax, 6
	mov	ecx, dword ptr [rax + 4*rcx + _ZN3DES2s4E]
	mov	eax, dword ptr [rip + x.144]
	mov	edx, dword ptr [rip + y.145]
	lea	esi, [rax - 1]
	imul	esi, eax
	not	esi
	or	esi, -2
	mov	ebp, ecx
	xor	ebp, -16
	and	ebp, ecx
	cmp	esi, -1
	sete	sil
	sete	byte ptr [rsp + 40]
	mov	edi, -1225656578
	mov	eax, -518578958
	cmove	edi, eax
	cmp	edx, 10
	setl	dl
	setl	byte ptr [rsp + 8]
	mov	ecx, -1225656578
	cmovge	edi, ecx
	xor	dl, sil
	cmovne	edi, eax
	mov	edx, -1972697443
	mov	r15, r12
	mov	r12, rbx
	lea	r13, [rsp + 72]
	mov	rbx, qword ptr [rsp + 136] 
	jmp	.LBB17_84
.LBB17_47:                              
	movzx	eax, byte ptr [rsp + 40]
	movzx	edx, byte ptr [rsp + 8]
	mov	ecx, eax
	xor	cl, dl
	test	dl, dl
	mov	edx, -1225656578
	mov	ebx, 2093959078
	cmovne	edx, ebx
	test	al, al
	mov	eax, -1225656578
	cmove	edx, eax
	test	cl, cl
	cmovne	edx, ebx
	.p2align	4, 0x90
.LBB17_48:                              

	cmp	edx, -518578959
	jg	.LBB17_52

	cmp	edx, -1972697443
	je	.LBB17_47

	cmp	edx, -1225656578
	jne	.LBB17_48

	mov	edx, 2093959078
	mov	rsi, rbp
	jmp	.LBB17_48
	.p2align	4, 0x90
.LBB17_52:                              
	cmp	edx, -518578958
	je	.LBB17_91

	cmp	edx, 2093959078
	jne	.LBB17_48

	mov	rsi, rbp
	mov	edx, edi
	jmp	.LBB17_48
.LBB17_55:                              
	jne	.LBB17_122

	movsxd	rax, dword ptr [rsp + 4] 
	movsxd	rcx, r13d
	shl	rax, 6
	mov	ecx, dword ptr [rax + 4*rcx + _ZN3DES2s8E]
	mov	eax, dword ptr [rip + x.144]
	mov	edi, dword ptr [rip + y.145]
	lea	esi, [rax - 1]
	imul	esi, eax
	not	esi
	or	esi, -2
	mov	ebp, ecx
	xor	ebp, -16
	and	ebp, ecx
	cmp	esi, -1
	sete	sil
	sete	byte ptr [rsp + 40]
	mov	ecx, -1225656578
	mov	eax, -518578958
	cmove	ecx, eax
	cmp	edi, 10
	setl	dl
	setl	byte ptr [rsp + 8]
	mov	edi, -1225656578
	cmovge	ecx, edi
	xor	dl, sil
	cmovne	ecx, eax
	mov	edx, -1972697443
	mov	r15, r12
	mov	r12, rbx
	lea	r13, [rsp + 72]
	mov	rbx, qword ptr [rsp + 168] 
	jmp	.LBB17_93
.LBB17_57:                              
	movzx	ecx, byte ptr [rsp + 40]
	movzx	edx, byte ptr [rsp + 8]
	mov	eax, ecx
	xor	al, dl
	test	dl, dl
	mov	edx, -1225656578
	mov	ebp, 2093959078
	cmovne	edx, ebp
	test	cl, cl
	mov	ecx, -1225656578
	cmove	edx, ecx
	test	al, al
	cmovne	edx, ebp
	.p2align	4, 0x90
.LBB17_58:                              

	cmp	edx, -518578959
	jg	.LBB17_62

	cmp	edx, -1972697443
	je	.LBB17_57

	cmp	edx, -1225656578
	jne	.LBB17_58

	mov	edx, 2093959078
	mov	rbx, rsi
	jmp	.LBB17_58
	.p2align	4, 0x90
.LBB17_62:                              
	cmp	edx, -518578958
	je	.LBB17_100

	cmp	edx, 2093959078
	jne	.LBB17_58

	mov	rbx, rsi
	mov	edx, edi
	jmp	.LBB17_58
.LBB17_65:                              
	movzx	eax, byte ptr [rsp + 40]
	movzx	edx, byte ptr [rsp + 8]
	mov	ecx, eax
	xor	cl, dl
	mov	ecx, -1225656578
	mov	ebx, 2093959078
	cmovne	ecx, ebx
	test	dl, dl
	mov	edx, ecx
	cmovne	edx, ebx
	test	al, al
	cmove	edx, ecx
	.p2align	4, 0x90
.LBB17_66:                              

	cmp	edx, -518578959
	jg	.LBB17_70

	cmp	edx, -1972697443
	je	.LBB17_65

	cmp	edx, -1225656578
	jne	.LBB17_66

	mov	edx, 2093959078
	mov	rsi, rbp
	jmp	.LBB17_66
	.p2align	4, 0x90
.LBB17_70:                              
	cmp	edx, -518578958
	je	.LBB17_101

	cmp	edx, 2093959078
	jne	.LBB17_66

	mov	rsi, rbp
	mov	edx, edi
	jmp	.LBB17_66
.LBB17_73:                              
	mov	qword ptr [rsp + 112], rsi 
	jmp	.LBB17_102
.LBB17_74:                              
	movzx	esi, byte ptr [rsp + 40]
	movzx	edx, byte ptr [rsp + 8]
	mov	eax, esi
	xor	al, dl
	mov	eax, -1225656578
	mov	edi, 2093959078
	cmovne	eax, edi
	test	dl, dl
	mov	edx, eax
	cmovne	edx, edi
	test	sil, sil
	cmove	edx, eax
	.p2align	4, 0x90
.LBB17_75:                              

	cmp	edx, -518578959
	jg	.LBB17_79

	cmp	edx, -1972697443
	je	.LBB17_74

	cmp	edx, -1225656578
	jne	.LBB17_75

	mov	edx, 2093959078
	mov	rbx, rbp
	jmp	.LBB17_75
	.p2align	4, 0x90
.LBB17_79:                              
	cmp	edx, -518578958
	je	.LBB17_103

	cmp	edx, 2093959078
	jne	.LBB17_75

	mov	rbx, rbp
	mov	edx, ecx
	jmp	.LBB17_75
.LBB17_82:                              
	mov	qword ptr [rsp + 144], rdi 
	mov	rax, rdi
	jmp	.LBB17_107
.LBB17_83:                              
	movzx	ecx, byte ptr [rsp + 40]
	movzx	edx, byte ptr [rsp + 8]
	mov	eax, ecx
	xor	al, dl
	test	dl, dl
	mov	edx, -1225656578
	mov	esi, 2093959078
	cmovne	edx, esi
	test	cl, cl
	mov	ecx, -1225656578
	cmove	edx, ecx
	test	al, al
	cmovne	edx, esi
	.p2align	4, 0x90
.LBB17_84:                              

	cmp	edx, -518578959
	jg	.LBB17_88

	cmp	edx, -1972697443
	je	.LBB17_83

	cmp	edx, -1225656578
	jne	.LBB17_84

	mov	edx, 2093959078
	mov	rbx, rbp
	jmp	.LBB17_84
	.p2align	4, 0x90
.LBB17_88:                              
	cmp	edx, -518578958
	je	.LBB17_104

	cmp	edx, 2093959078
	jne	.LBB17_84

	mov	rbx, rbp
	mov	edx, edi
	jmp	.LBB17_84
.LBB17_91:                              
	mov	qword ptr [rsp + 128], rsi 
	jmp	.LBB17_102
.LBB17_92:                              
	movzx	esi, byte ptr [rsp + 40]
	movzx	edx, byte ptr [rsp + 8]
	mov	eax, esi
	xor	al, dl
	mov	eax, -1225656578
	mov	edi, 2093959078
	cmovne	eax, edi
	test	dl, dl
	mov	edx, eax
	cmovne	edx, edi
	test	sil, sil
	cmove	edx, eax
	.p2align	4, 0x90
.LBB17_93:                              

	cmp	edx, -518578959
	jg	.LBB17_97

	cmp	edx, -1972697443
	je	.LBB17_92

	cmp	edx, -1225656578
	jne	.LBB17_93

	mov	edx, 2093959078
	mov	rbx, rbp
	jmp	.LBB17_93
	.p2align	4, 0x90
.LBB17_97:                              
	cmp	edx, -518578958
	je	.LBB17_105

	cmp	edx, 2093959078
	jne	.LBB17_93

	mov	rbx, rbp
	mov	edx, ecx
	jmp	.LBB17_93
.LBB17_100:                             
	mov	qword ptr [rsp + 160], rbx 
	jmp	.LBB17_106
.LBB17_101:                             
	mov	qword ptr [rsp + 120], rsi 
.LBB17_102:                             
	mov	rax, rsi
	jmp	.LBB17_107
.LBB17_103:                             
	mov	qword ptr [rsp + 152], rbx 
	jmp	.LBB17_106
.LBB17_104:                             
	mov	qword ptr [rsp + 136], rbx 
	jmp	.LBB17_106
.LBB17_105:                             
	mov	qword ptr [rsp + 168], rbx 
.LBB17_106:                             
	mov	rax, rbx
.LBB17_107:                             
	mov	qword ptr [rsp + 104], rax
	lea	rdi, [rsp + 24]
	call	_ZSt9addressofIcEPT_RS0_
	mov	ecx, dword ptr [rip + x.350]
	mov	edi, dword ptr [rip + y.351]
	lea	esi, [rcx - 1]
	imul	esi, ecx
	mov	ecx, esi
	xor	ecx, -2
	and	ecx, esi
	sete	bl
	sete	byte ptr [rsp + 72]
	cmp	edi, 10
	setl	dl
	xor	dl, bl
	mov	edx, 889828727
	mov	ebp, -1202865644
	cmovne	edx, ebp
	test	ecx, ecx
	mov	esi, edx
	cmove	esi, ebp
	cmp	edi, 10
	setl	byte ptr [rsp + 40]
	cmovge	esi, edx
	mov	edx, 826350111
	lea	rbx, [rsp + 8]
	lea	rbp, [rsp + 40]
	jmp	.LBB17_109
.LBB17_108:                             
	mov	edx, 185829745
	.p2align	4, 0x90
.LBB17_109:                             

	cmp	edx, 826350110
	jg	.LBB17_113

	cmp	edx, -1202865644
	je	.LBB17_116

	cmp	edx, 185829745
	jne	.LBB17_109

	mov	edx, esi
	jmp	.LBB17_109
	.p2align	4, 0x90
.LBB17_113:                             
	cmp	edx, 889828727
	je	.LBB17_108

	cmp	edx, 826350111
	jne	.LBB17_109

	movzx	ecx, byte ptr [rsp + 72]
	movzx	edx, byte ptr [rsp + 40]
	mov	ebx, ecx
	xor	bl, dl
	lea	rbx, [rsp + 8]
	mov	edi, 889828727
	mov	ebp, 185829745
	cmovne	edi, ebp
	test	dl, dl
	mov	edx, edi
	cmovne	edx, ebp
	lea	rbp, [rsp + 40]
	test	cl, cl
	cmove	edx, edi
	jmp	.LBB17_109
	.p2align	4, 0x90
.LBB17_116:                             
	mov	qword ptr [rsp + 8], rax
.Ltmp311:
	xor	esi, esi
	mov	rdi, rbx
	call	_ZNSt7__cxx1112basic_stringIcSt11char_traitsIcESaIcEE13_M_set_lengthEm
.Ltmp312:

.Ltmp314:
	mov	edx, 48
	mov	ecx, 49
	lea	rdi, [rsp + 104]
	mov	rsi, rbx
	call	_ZNKSt6bitsetILm4EE17_M_copy_to_stringIcSt11char_traitsIcESaIcEEEvRNSt7__cxx1112basic_stringIT_T0_T1_EES7_S7_
.Ltmp315:

	mov	rsi, qword ptr [rsp + 8]
	mov	rdx, qword ptr [rsp + 16]
.Ltmp320:
	mov	rdi, qword ptr [rsp + 176] 
	call	_ZNSt7__cxx1112basic_stringIcSt11char_traitsIcESaIcEE9_M_appendEPKcm
.Ltmp321:

.Ltmp326:
	mov	rdi, rbx
	call	_ZNSt7__cxx1112basic_stringIcSt11char_traitsIcESaIcEE10_M_disposeEv
.Ltmp327:

	cmp	r14, 42
	lea	r14, [r14 + 6]
	jb	.LBB17_1

	add	rsp, 184
	pop	rbx
	pop	r12
	pop	r13
	pop	r14
	pop	r15
	pop	rbp
	ret
.LBB17_122:
	mov	edi, _ZSt4cout
	mov	esi, .L.str.3
	call	_ZStlsISt11char_traitsIcEERSt13basic_ostreamIcT_ES5_PKc
	mov	rdi, rax
	call	_ZSt4endlIcSt11char_traitsIcEERSt13basic_ostreamIT_T0_ES6_
	xor	edi, edi
	call	exit
.LBB17_123:
.Ltmp328:
	mov	rdi, rax
	call	__cxa_call_unexpected
.LBB17_124:
.Ltmp322:
	mov	rbx, rax
.Ltmp323:
	lea	rdi, [rsp + 8]
	call	_ZNSt7__cxx1112basic_stringIcSt11char_traitsIcESaIcEE10_M_disposeEv
.Ltmp324:
	jmp	.LBB17_142
.LBB17_125:
.Ltmp325:
	mov	rdi, rax
	call	__cxa_call_unexpected
.LBB17_126:
.Ltmp316:
	mov	rbx, rax
.Ltmp317:
	lea	rdi, [rsp + 8]
	call	_ZNSt7__cxx1112basic_stringIcSt11char_traitsIcESaIcEE10_M_disposeEv
.Ltmp318:
	jmp	.LBB17_142
.LBB17_127:
.Ltmp319:
	mov	rdi, rax
	call	__cxa_call_unexpected
.LBB17_128:
.Ltmp313:
	mov	rdi, rax
	call	__clang_call_terminate
.LBB17_129:
.Ltmp310:
	mov	rdi, rax
	call	__cxa_call_unexpected
.LBB17_130:
.Ltmp304:
	mov	rbx, rax
.Ltmp305:
	lea	rdi, [rsp + 8]
	call	_ZNSt7__cxx1112basic_stringIcSt11char_traitsIcESaIcEE10_M_disposeEv
.Ltmp306:
	jmp	.LBB17_142
.LBB17_131:
.Ltmp307:
	mov	rdi, rax
	call	__cxa_call_unexpected
.LBB17_132:
.Ltmp301:
	mov	rdi, rax
	call	__cxa_call_unexpected
.LBB17_133:
.Ltmp298:
	mov	rdi, rax
	call	__cxa_call_unexpected
.LBB17_134:
.Ltmp295:
	mov	rdi, rax
	call	__cxa_call_unexpected
.LBB17_135:
.Ltmp283:
	mov	rbx, rax
.Ltmp284:
	lea	rdi, [rsp + 8]
	call	_ZNSt7__cxx1112basic_stringIcSt11char_traitsIcESaIcEE10_M_disposeEv
.Ltmp285:
	jmp	.LBB17_138
.LBB17_136:
.Ltmp286:
	mov	rdi, rax
	call	__cxa_call_unexpected
.LBB17_137:
.Ltmp280:
	mov	rbx, rax
.LBB17_138:
.Ltmp287:
	lea	rdi, [rsp + 72]
	call	_ZNSt7__cxx1112basic_stringIcSt11char_traitsIcESaIcEE10_M_disposeEv
.Ltmp288:
	jmp	.LBB17_141
.LBB17_139:
.Ltmp289:
	mov	rdi, rax
	call	__cxa_call_unexpected
.LBB17_140:
.Ltmp277:
	mov	rbx, rax
.LBB17_141:
.Ltmp290:
	lea	rdi, [rsp + 40]
	call	_ZNSt7__cxx1112basic_stringIcSt11char_traitsIcESaIcEE10_M_disposeEv
.Ltmp291:
.LBB17_142:
	mov	rdi, rbx
	call	_Unwind_Resume
.LBB17_143:
.Ltmp292:
	mov	rdi, rax
	call	__cxa_call_unexpected
.Lfunc_end17:
	.size	_ZN3DES4sBoxERKNSt7__cxx1112basic_stringIcSt11char_traitsIcESaIcEEE, .Lfunc_end17-_ZN3DES4sBoxERKNSt7__cxx1112basic_stringIcSt11char_traitsIcESaIcEEE
	.cfi_endproc
	.section	.gcc_except_table,"a",@progbits
	.p2align	2
GCC_except_table17:
.Lexception13:
	.byte	255                     
	.byte	3                       
	.asciz	"\352\202\200"          
	.byte	3                       
	.ascii	"\337\002"              
	.long	.Lfunc_begin13-.Lfunc_begin13 
	.long	.Ltmp273-.Lfunc_begin13 
	.long	0                       
	.byte	0                       
	.long	.Ltmp273-.Lfunc_begin13 
	.long	.Ltmp276-.Ltmp273       
	.long	.Ltmp277-.Lfunc_begin13 
	.byte	0                       
	.long	.Ltmp278-.Lfunc_begin13 
	.long	.Ltmp279-.Ltmp278       
	.long	.Ltmp280-.Lfunc_begin13 
	.byte	0                       
	.long	.Ltmp281-.Lfunc_begin13 
	.long	.Ltmp282-.Ltmp281       
	.long	.Ltmp283-.Lfunc_begin13 
	.byte	0                       
	.long	.Ltmp293-.Lfunc_begin13 
	.long	.Ltmp294-.Ltmp293       
	.long	.Ltmp295-.Lfunc_begin13 
	.byte	1                       
	.long	.Ltmp296-.Lfunc_begin13 
	.long	.Ltmp297-.Ltmp296       
	.long	.Ltmp298-.Lfunc_begin13 
	.byte	1                       
	.long	.Ltmp299-.Lfunc_begin13 
	.long	.Ltmp300-.Ltmp299       
	.long	.Ltmp301-.Lfunc_begin13 
	.byte	1                       
	.long	.Ltmp300-.Lfunc_begin13 
	.long	.Ltmp302-.Ltmp300       
	.long	0                       
	.byte	0                       
	.long	.Ltmp302-.Lfunc_begin13 
	.long	.Ltmp303-.Ltmp302       
	.long	.Ltmp304-.Lfunc_begin13 
	.byte	0                       
	.long	.Ltmp308-.Lfunc_begin13 
	.long	.Ltmp309-.Ltmp308       
	.long	.Ltmp310-.Lfunc_begin13 
	.byte	1                       
	.long	.Ltmp311-.Lfunc_begin13 
	.long	.Ltmp312-.Ltmp311       
	.long	.Ltmp313-.Lfunc_begin13 
	.byte	3                       
	.long	.Ltmp314-.Lfunc_begin13 
	.long	.Ltmp315-.Ltmp314       
	.long	.Ltmp316-.Lfunc_begin13 
	.byte	0                       
	.long	.Ltmp320-.Lfunc_begin13 
	.long	.Ltmp321-.Ltmp320       
	.long	.Ltmp322-.Lfunc_begin13 
	.byte	0                       
	.long	.Ltmp326-.Lfunc_begin13 
	.long	.Ltmp327-.Ltmp326       
	.long	.Ltmp328-.Lfunc_begin13 
	.byte	1                       
	.long	.Ltmp327-.Lfunc_begin13 
	.long	.Ltmp323-.Ltmp327       
	.long	0                       
	.byte	0                       
	.long	.Ltmp323-.Lfunc_begin13 
	.long	.Ltmp324-.Ltmp323       
	.long	.Ltmp325-.Lfunc_begin13 
	.byte	1                       
	.long	.Ltmp324-.Lfunc_begin13 
	.long	.Ltmp317-.Ltmp324       
	.long	0                       
	.byte	0                       
	.long	.Ltmp317-.Lfunc_begin13 
	.long	.Ltmp318-.Ltmp317       
	.long	.Ltmp319-.Lfunc_begin13 
	.byte	1                       
	.long	.Ltmp318-.Lfunc_begin13 
	.long	.Ltmp305-.Ltmp318       
	.long	0                       
	.byte	0                       
	.long	.Ltmp305-.Lfunc_begin13 
	.long	.Ltmp306-.Ltmp305       
	.long	.Ltmp307-.Lfunc_begin13 
	.byte	1                       
	.long	.Ltmp306-.Lfunc_begin13 
	.long	.Ltmp284-.Ltmp306       
	.long	0                       
	.byte	0                       
	.long	.Ltmp284-.Lfunc_begin13 
	.long	.Ltmp285-.Ltmp284       
	.long	.Ltmp286-.Lfunc_begin13 
	.byte	1                       
	.long	.Ltmp285-.Lfunc_begin13 
	.long	.Ltmp287-.Ltmp285       
	.long	0                       
	.byte	0                       
	.long	.Ltmp287-.Lfunc_begin13 
	.long	.Ltmp288-.Ltmp287       
	.long	.Ltmp289-.Lfunc_begin13 
	.byte	1                       
	.long	.Ltmp288-.Lfunc_begin13 
	.long	.Ltmp290-.Ltmp288       
	.long	0                       
	.byte	0                       
	.long	.Ltmp290-.Lfunc_begin13 
	.long	.Ltmp291-.Ltmp290       
	.long	.Ltmp292-.Lfunc_begin13 
	.byte	1                       
	.long	.Ltmp291-.Lfunc_begin13 
	.long	.Lfunc_end17-.Ltmp291   
	.long	0                       
	.byte	0                       
	.byte	127                     

	.byte	0                       
	.byte	1                       

	.byte	0                       

	.long	0                       

	.byte	0
	.p2align	2

	.section	.text._ZNSt7__cxx1112basic_stringIcSt11char_traitsIcESaIcEEaSEPKc,"axG",@progbits,_ZNSt7__cxx1112basic_stringIcSt11char_traitsIcESaIcEEaSEPKc,comdat
	.weak	_ZNSt7__cxx1112basic_stringIcSt11char_traitsIcESaIcEEaSEPKc 
	.p2align	4, 0x90
	.type	_ZNSt7__cxx1112basic_stringIcSt11char_traitsIcESaIcEEaSEPKc,@function
_ZNSt7__cxx1112basic_stringIcSt11char_traitsIcESaIcEEaSEPKc: 
	.cfi_startproc

	push	rbp
.Lcfi146:
	.cfi_def_cfa_offset 16
	push	r15
.Lcfi147:
	.cfi_def_cfa_offset 24
	push	r14
.Lcfi148:
	.cfi_def_cfa_offset 32
	push	r13
.Lcfi149:
	.cfi_def_cfa_offset 40
	push	r12
.Lcfi150:
	.cfi_def_cfa_offset 48
	push	rbx
.Lcfi151:
	.cfi_def_cfa_offset 56
	sub	rsp, 24
.Lcfi152:
	.cfi_def_cfa_offset 80
.Lcfi153:
	.cfi_offset rbx, -56
.Lcfi154:
	.cfi_offset r12, -48
.Lcfi155:
	.cfi_offset r13, -40
.Lcfi156:
	.cfi_offset r14, -32
.Lcfi157:
	.cfi_offset r15, -24
.Lcfi158:
	.cfi_offset rbp, -16
	mov	r14, rsi
	mov	r15, rdi
	mov	eax, dword ptr [rip + x.136]
	lea	ecx, [rax - 1]
	imul	ecx, eax
	not	ecx
	or	ecx, -2
	cmp	ecx, -1
	sete	byte ptr [rsp + 14]
	mov	eax, dword ptr [rip + y.137]
	cmp	eax, 10
	setl	byte ptr [rsp + 15]
	mov	ecx, 1645615048
	mov	r13d, -1282729025
	mov	r12d, 75480729
	mov	ebp, 87576390
	jmp	.LBB18_1
.LBB18_11:                              
	mov	al, byte ptr [rsp + 14]
	mov	cl, byte ptr [rsp + 15]
	mov	edx, eax
	xor	dl, cl
	test	cl, cl
	mov	ecx, 75480729
	cmovne	ecx, ebp
	test	al, al
	cmove	ecx, r12d
	test	dl, dl
	cmovne	ecx, ebp
	.p2align	4, 0x90
.LBB18_1:                               


	cmp	ecx, 87576389
	jg	.LBB18_9

	cmp	ecx, -1282729025
	je	.LBB18_19

	cmp	ecx, 75480729
	jne	.LBB18_1

	mov	rbx, qword ptr [r15 + 8]
	mov	ecx, -1233430019

	jmp	.LBB18_5
	.p2align	4, 0x90
.LBB18_9:                               
	cmp	ecx, 87576390
	je	.LBB18_12

	cmp	ecx, 1645615048
	jne	.LBB18_1
	jmp	.LBB18_11
.LBB18_20:                              
	mov	rdi, r14
	call	strlen
	mov	ecx, 94138218
	.p2align	4, 0x90
.LBB18_5:                               

	cmp	ecx, 94138218
	je	.LBB18_21

	cmp	ecx, -201862501
	je	.LBB18_20

	cmp	ecx, -1233430019
	jne	.LBB18_5

	mov	ecx, -201862501
	jmp	.LBB18_5
.LBB18_12:                              
	mov	rbx, qword ptr [r15 + 8]
	mov	ecx, -1233430019

	jmp	.LBB18_13
.LBB18_21:                              
	xor	esi, esi
	mov	rdi, r15
	mov	rdx, rbx
	mov	rcx, r14
	mov	r8, rax
	call	_ZNSt7__cxx1112basic_stringIcSt11char_traitsIcESaIcEE10_M_replaceEmmPKcm
	mov	ecx, 87576390
	jmp	.LBB18_1
.LBB18_17:                              
	mov	rdi, r14
	call	strlen
	mov	ecx, 94138218
	.p2align	4, 0x90
.LBB18_13:                              

	cmp	ecx, 94138218
	je	.LBB18_18

	cmp	ecx, -201862501
	je	.LBB18_17

	cmp	ecx, -1233430019
	jne	.LBB18_13

	mov	ecx, -201862501
	jmp	.LBB18_13
.LBB18_18:                              
	xor	esi, esi
	mov	rdi, r15
	mov	rdx, rbx
	mov	rcx, r14
	mov	r8, rax
	call	_ZNSt7__cxx1112basic_stringIcSt11char_traitsIcESaIcEE10_M_replaceEmmPKcm
	mov	ecx, dword ptr [rip + x.136]
	mov	edx, dword ptr [rip + y.137]
	lea	esi, [rcx - 1]
	imul	esi, ecx
	not	esi
	or	esi, -2
	cmp	esi, -1
	sete	cl
	cmp	edx, 10
	setl	bl
	xor	bl, cl
	mov	edi, 75480729
	cmovne	edi, r13d
	cmp	esi, -1
	mov	ecx, edi
	cmove	ecx, r13d
	cmp	edx, 10
	mov	qword ptr [rsp + 16], rax
	cmovge	ecx, edi
	jmp	.LBB18_1
.LBB18_19:
	mov	rax, qword ptr [rsp + 16]
	add	rsp, 24
	pop	rbx
	pop	r12
	pop	r13
	pop	r14
	pop	r15
	pop	rbp
	ret
.Lfunc_end18:
	.size	_ZNSt7__cxx1112basic_stringIcSt11char_traitsIcESaIcEEaSEPKc, .Lfunc_end18-_ZNSt7__cxx1112basic_stringIcSt11char_traitsIcESaIcEEaSEPKc
	.cfi_endproc

	.text
	.globl	_ZN3DES7bin2decERKNSt7__cxx1112basic_stringIcSt11char_traitsIcESaIcEEE 
	.p2align	4, 0x90
	.type	_ZN3DES7bin2decERKNSt7__cxx1112basic_stringIcSt11char_traitsIcESaIcEEE,@function
_ZN3DES7bin2decERKNSt7__cxx1112basic_stringIcSt11char_traitsIcESaIcEEE: 
	.cfi_startproc

	push	rbp
.Lcfi159:
	.cfi_def_cfa_offset 16
.Lcfi160:
	.cfi_offset rbp, -16
	mov	rbp, rsp
.Lcfi161:
	.cfi_def_cfa_register rbp
	push	r15
	push	r14
	push	r13
	push	r12
	push	rbx
	sub	rsp, 104
.Lcfi162:
	.cfi_offset rbx, -56
.Lcfi163:
	.cfi_offset r12, -48
.Lcfi164:
