	.text
	.intel_syntax noprefix
	.file	"/mnt/c/Users/Adam/Developer/CryptoFunctionDetection/crypto_implementations/DES-Cryptography/DES.cpp"
	.section	.text.startup,"ax",@progbits
	.p2align	4, 0x90         
	.type	__cxx_global_var_init,@function
__cxx_global_var_init:                  
	.cfi_startproc

	push	rax
.Lcfi0:
	.cfi_def_cfa_offset 16
	mov	edi, _ZStL8__ioinit
	call	_ZNSt8ios_base4InitC1Ev
	mov	edi, _ZNSt8ios_base4InitD1Ev
	mov	esi, _ZStL8__ioinit
	mov	edx, __dso_handle
	pop	rax
	jmp	__cxa_atexit            
.Lfunc_end0:
	.size	__cxx_global_var_init, .Lfunc_end0-__cxx_global_var_init
	.cfi_endproc

	.text
	.globl	_ZN3DESC2ENSt7__cxx1112basic_stringIcSt11char_traitsIcESaIcEEES5_ 
	.p2align	4, 0x90
	.type	_ZN3DESC2ENSt7__cxx1112basic_stringIcSt11char_traitsIcESaIcEEES5_,@function
_ZN3DESC2ENSt7__cxx1112basic_stringIcSt11char_traitsIcESaIcEEES5_: 
.Lfunc_begin0:
	.cfi_startproc
	.cfi_personality 3, __gxx_personality_v0
	.cfi_lsda 3, .Lexception0

	push	rbp
.Lcfi1:
	.cfi_def_cfa_offset 16
	push	r15
.Lcfi2:
	.cfi_def_cfa_offset 24
	push	r14
.Lcfi3:
	.cfi_def_cfa_offset 32
	push	r13
.Lcfi4:
	.cfi_def_cfa_offset 40
	push	r12
.Lcfi5:
	.cfi_def_cfa_offset 48
	push	rbx
.Lcfi6:
	.cfi_def_cfa_offset 56
	sub	rsp, 120
.Lcfi7:
	.cfi_def_cfa_offset 176
.Lcfi8:
	.cfi_offset rbx, -56
.Lcfi9:
	.cfi_offset r12, -48
.Lcfi10:
	.cfi_offset r13, -40
.Lcfi11:
	.cfi_offset r14, -32
.Lcfi12:
	.cfi_offset r15, -24
.Lcfi13:
	.cfi_offset rbp, -16
	mov	rbx, rdx
	mov	r12, rsi
	mov	r14, rdi
	mov	qword ptr [r14], _ZTV3DES+16
	lea	r13, [r14 + 8]
	mov	rdi, r13
	call	_ZNSt7__cxx1112basic_stringIcSt11char_traitsIcESaIcEEC2Ev
	lea	rdi, [r14 + 40]
	mov	qword ptr [rsp + 80], rdi 
	call	_ZNSt7__cxx1112basic_stringIcSt11char_traitsIcESaIcEEC2Ev
	lea	rdi, [r14 + 72]
	mov	qword ptr [rsp + 72], rdi 
	call	_ZNSt7__cxx1112basic_stringIcSt11char_traitsIcESaIcEEC2Ev
	lea	rdi, [r14 + 104]
	mov	qword ptr [rsp + 64], rdi 
	call	_ZNSt7__cxx1112basic_stringIcSt11char_traitsIcESaIcEEC2Ev
	lea	rdi, [r14 + 136]
	mov	qword ptr [rsp + 56], rdi 
	call	_ZNSt7__cxx1112basic_stringIcSt11char_traitsIcESaIcEEC2Ev
	lea	rdi, [r14 + 168]
	mov	qword ptr [rsp + 48], rdi 
	call	_ZNSt7__cxx1112basic_stringIcSt11char_traitsIcESaIcEEC2Ev
	lea	r15, [r14 + 200]
	mov	rdi, r15
	call	_ZNSt7__cxx1112basic_stringIcSt11char_traitsIcESaIcEEC2Ev
	lea	rdi, [r14 + 232]
	mov	qword ptr [rsp + 40], rdi 
	call	_ZNSt7__cxx1112basic_stringIcSt11char_traitsIcESaIcEEC2Ev
	lea	rdi, [r14 + 264]
	mov	qword ptr [rsp + 32], rdi 
	call	_ZNSt7__cxx1112basic_stringIcSt11char_traitsIcESaIcEEC2Ev
	lea	rdi, [r14 + 296]
	mov	qword ptr [rsp + 24], rdi 
	call	_ZNSt7__cxx1112basic_stringIcSt11char_traitsIcESaIcEEC2Ev
	lea	rdi, [r14 + 328]
	mov	qword ptr [rsp + 16], rdi 
	call	_ZNSt7__cxx1112basic_stringIcSt11char_traitsIcESaIcEEC2Ev
	lea	rdi, [r14 + 360]
	mov	qword ptr [rsp + 8], rdi 
	call	_ZNSt7__cxx1112basic_stringIcSt11char_traitsIcESaIcEEC2Ev
	lea	rbp, [r14 + 392]
	mov	rdi, rbp
	call	_ZNSt7__cxx1112basic_stringIcSt11char_traitsIcESaIcEEC2Ev
	add	r14, 424
	mov	rdi, r14
	call	_ZNSt7__cxx1112basic_stringIcSt11char_traitsIcESaIcEEC2Ev
.Ltmp0:
	lea	rdi, [rsp + 88]
	mov	rsi, r12
	call	_ZN3DES7hex2binERKNSt7__cxx1112basic_stringIcSt11char_traitsIcESaIcEEE
.Ltmp1:

.Ltmp3:
	lea	rsi, [rsp + 88]
	mov	rdi, r13
	call	_ZNSt7__cxx1112basic_stringIcSt11char_traitsIcESaIcEEaSERKS4_
.Ltmp4:

	lea	rdi, [rsp + 88]
	call	_ZNSt7__cxx1112basic_stringIcSt11char_traitsIcESaIcEED2Ev
.Ltmp6:
	lea	rdi, [rsp + 88]
	mov	rsi, rbx
	call	_ZN3DES7hex2binERKNSt7__cxx1112basic_stringIcSt11char_traitsIcESaIcEEE
.Ltmp7:

.Ltmp9:
	lea	rsi, [rsp + 88]
	mov	rdi, r15
	call	_ZNSt7__cxx1112basic_stringIcSt11char_traitsIcESaIcEEaSERKS4_
.Ltmp10:

	lea	rdi, [rsp + 88]
	call	_ZNSt7__cxx1112basic_stringIcSt11char_traitsIcESaIcEED2Ev
	add	rsp, 120
	pop	rbx
	pop	r12
	pop	r13
	pop	r14
	pop	r15
	pop	rbp
	ret
.LBB1_5:
.Ltmp11:
	jmp	.LBB1_8
.LBB1_6:
.Ltmp8:
	jmp	.LBB1_10
.LBB1_7:
.Ltmp5:
.LBB1_8:
	mov	r12, rax
	lea	rdi, [rsp + 88]
	call	_ZNSt7__cxx1112basic_stringIcSt11char_traitsIcESaIcEED2Ev
	jmp	.LBB1_11
.LBB1_9:
.Ltmp2:
.LBB1_10:
	mov	r12, rax
.LBB1_11:
	mov	rdi, r14
	call	_ZNSt7__cxx1112basic_stringIcSt11char_traitsIcESaIcEED2Ev
	mov	rdi, rbp
	call	_ZNSt7__cxx1112basic_stringIcSt11char_traitsIcESaIcEED2Ev
	mov	rdi, qword ptr [rsp + 8] 
	call	_ZNSt7__cxx1112basic_stringIcSt11char_traitsIcESaIcEED2Ev
	mov	rdi, qword ptr [rsp + 16] 
	call	_ZNSt7__cxx1112basic_stringIcSt11char_traitsIcESaIcEED2Ev
	mov	rdi, qword ptr [rsp + 24] 
	call	_ZNSt7__cxx1112basic_stringIcSt11char_traitsIcESaIcEED2Ev
	mov	rdi, qword ptr [rsp + 32] 
	call	_ZNSt7__cxx1112basic_stringIcSt11char_traitsIcESaIcEED2Ev
	mov	rdi, qword ptr [rsp + 40] 
	call	_ZNSt7__cxx1112basic_stringIcSt11char_traitsIcESaIcEED2Ev
	mov	rdi, r15
	call	_ZNSt7__cxx1112basic_stringIcSt11char_traitsIcESaIcEED2Ev
	mov	rdi, qword ptr [rsp + 48] 
	call	_ZNSt7__cxx1112basic_stringIcSt11char_traitsIcESaIcEED2Ev
	mov	rdi, qword ptr [rsp + 56] 
	call	_ZNSt7__cxx1112basic_stringIcSt11char_traitsIcESaIcEED2Ev
	mov	rdi, qword ptr [rsp + 64] 
	call	_ZNSt7__cxx1112basic_stringIcSt11char_traitsIcESaIcEED2Ev
	mov	rdi, qword ptr [rsp + 72] 
	call	_ZNSt7__cxx1112basic_stringIcSt11char_traitsIcESaIcEED2Ev
	mov	rdi, qword ptr [rsp + 80] 
	call	_ZNSt7__cxx1112basic_stringIcSt11char_traitsIcESaIcEED2Ev
	mov	rdi, r13
	call	_ZNSt7__cxx1112basic_stringIcSt11char_traitsIcESaIcEED2Ev
	mov	rdi, r12
	call	_Unwind_Resume
.Lfunc_end1:
	.size	_ZN3DESC2ENSt7__cxx1112basic_stringIcSt11char_traitsIcESaIcEEES5_, .Lfunc_end1-_ZN3DESC2ENSt7__cxx1112basic_stringIcSt11char_traitsIcESaIcEEES5_
	.cfi_endproc
	.section	.gcc_except_table,"a",@progbits
	.p2align	2
GCC_except_table1:
.Lexception0:
	.byte	255                     
	.byte	3                       
	.asciz	"\303\200"              
	.byte	3                       
	.byte	65                      
	.long	.Ltmp0-.Lfunc_begin0    
	.long	.Ltmp1-.Ltmp0           
	.long	.Ltmp2-.Lfunc_begin0    
	.byte	0                       
	.long	.Ltmp3-.Lfunc_begin0    
	.long	.Ltmp4-.Ltmp3           
	.long	.Ltmp5-.Lfunc_begin0    
	.byte	0                       
	.long	.Ltmp6-.Lfunc_begin0    
	.long	.Ltmp7-.Ltmp6           
	.long	.Ltmp8-.Lfunc_begin0    
	.byte	0                       
	.long	.Ltmp9-.Lfunc_begin0    
	.long	.Ltmp10-.Ltmp9          
	.long	.Ltmp11-.Lfunc_begin0   
	.byte	0                       
	.long	.Ltmp10-.Lfunc_begin0   
	.long	.Lfunc_end1-.Ltmp10     
	.long	0                       
	.byte	0                       
	.p2align	2

	.section	.text._ZNSt7__cxx1112basic_stringIcSt11char_traitsIcESaIcEEC2Ev,"axG",@progbits,_ZNSt7__cxx1112basic_stringIcSt11char_traitsIcESaIcEEC2Ev,comdat
	.weak	_ZNSt7__cxx1112basic_stringIcSt11char_traitsIcESaIcEEC2Ev 
	.p2align	4, 0x90
	.type	_ZNSt7__cxx1112basic_stringIcSt11char_traitsIcESaIcEEC2Ev,@function
_ZNSt7__cxx1112basic_stringIcSt11char_traitsIcESaIcEEC2Ev: 
.Lfunc_begin1:
	.cfi_startproc
	.cfi_personality 3, __gxx_personality_v0
	.cfi_lsda 3, .Lexception1

	push	r15
	push	r14
	push	rbx
	sub	rsp, 16
	mov	rbx, rdi
	call	_ZNSt7__cxx1112basic_stringIcSt11char_traitsIcESaIcEE13_M_local_dataEv
	mov	r14, rax
	lea	r15, [rsp + 8]
	mov	rdi, r15
	call	_ZNSaIcEC2Ev
	mov	rdi, rbx
	mov	rsi, r14
	mov	rdx, r15
	call	_ZNSt7__cxx1112basic_stringIcSt11char_traitsIcESaIcEE12_Alloc_hiderC2EPcOS3_
	mov	rdi, r15
	call	_ZNSaIcED2Ev
.Ltmp12:
	xor	esi, esi
	mov	rdi, rbx
	call	_ZNSt7__cxx1112basic_stringIcSt11char_traitsIcESaIcEE13_M_set_lengthEm
.Ltmp13:

	add	rsp, 16
	pop	rbx
	pop	r14
	pop	r15
	ret
.LBB2_2:
.Ltmp14:
	mov	r14, rax
	mov	rdi, rbx
	call	_ZNSt7__cxx1112basic_stringIcSt11char_traitsIcESaIcEE12_Alloc_hiderD2Ev
	mov	rdi, r14
	call	__clang_call_terminate
.Lfunc_end2:
	.size	_ZNSt7__cxx1112basic_stringIcSt11char_traitsIcESaIcEEC2Ev, .Lfunc_end2-_ZNSt7__cxx1112basic_stringIcSt11char_traitsIcESaIcEEC2Ev
	.cfi_endproc
	.section	.gcc_except_table,"a",@progbits
	.p2align	2
GCC_except_table2:
.Lexception1:
	.byte	255                     
	.byte	3                       
	.byte	21                      
	.byte	3                       
	.byte	13                      
	.long	.Ltmp12-.Lfunc_begin1   
	.long	.Ltmp13-.Ltmp12         
	.long	.Ltmp14-.Lfunc_begin1   
	.byte	1                       
	.byte	1                       

	.byte	0                       

	.long	0                       
	.p2align	2

	.text
	.globl	_ZN3DES7hex2binERKNSt7__cxx1112basic_stringIcSt11char_traitsIcESaIcEEE 
	.p2align	4, 0x90
	.type	_ZN3DES7hex2binERKNSt7__cxx1112basic_stringIcSt11char_traitsIcESaIcEEE,@function
_ZN3DES7hex2binERKNSt7__cxx1112basic_stringIcSt11char_traitsIcESaIcEEE: 
.Lfunc_begin2:
	.cfi_startproc
	.cfi_personality 3, __gxx_personality_v0
	.cfi_lsda 3, .Lexception2

	push	r15
.Lcfi14:
	.cfi_def_cfa_offset 16
	push	r14
.Lcfi15:
	.cfi_def_cfa_offset 24
	push	r12
.Lcfi16:
	.cfi_def_cfa_offset 32
	push	rbx
.Lcfi17:
	.cfi_def_cfa_offset 40
	sub	rsp, 24
.Lcfi18:
	.cfi_def_cfa_offset 64
.Lcfi19:
	.cfi_offset rbx, -40
.Lcfi20:
	.cfi_offset r12, -32
.Lcfi21:
	.cfi_offset r14, -24
.Lcfi22:
	.cfi_offset r15, -16
	mov	r15, rsi
	mov	r14, rdi
	call	_ZNSt7__cxx1112basic_stringIcSt11char_traitsIcESaIcEEC2Ev
	mov	rdi, r15
	call	_ZNKSt7__cxx1112basic_stringIcSt11char_traitsIcESaIcEE5beginEv
	mov	qword ptr [rsp + 16], rax
	mov	rdi, r15
	call	_ZNKSt7__cxx1112basic_stringIcSt11char_traitsIcESaIcEE3endEv
	mov	qword ptr [rsp + 8], rax
	lea	rdi, [rsp + 16]
	lea	rsi, [rsp + 8]
	call	_ZN9__gnu_cxxltIPKcNSt7__cxx1112basic_stringIcSt11char_traitsIcESaIcEEEEEbRKNS_17__normal_iteratorIT_T0_EESE_
	test	al, al
	je	.LBB3_40

	lea	rbx, [rsp + 16]
	lea	r12, [rsp + 8]
	.p2align	4, 0x90
.LBB3_2:                                
	mov	rdi, rbx
	call	_ZNK9__gnu_cxx17__normal_iteratorIPKcNSt7__cxx1112basic_stringIcSt11char_traitsIcESaIcEEEEdeEv
	movzx	eax, byte ptr [rax]
	cmp	al, 56
	jge	.LBB3_3

	cmp	al, 52
	jge	.LBB3_15

	cmp	al, 50
	jge	.LBB3_19

	cmp	al, 49
	je	.LBB3_25

	cmp	al, 48
	jne	.LBB3_37

.Ltmp43:
	mov	esi, .L.str.21
	mov	rdi, r14
	call	_ZNSt7__cxx1112basic_stringIcSt11char_traitsIcESaIcEE6appendEPKc
.Ltmp44:
	jmp	.LBB3_39
	.p2align	4, 0x90
.LBB3_3:                                
	cmp	al, 67
	jge	.LBB3_4

	cmp	al, 65
	jge	.LBB3_9

	cmp	al, 57
	jge	.LBB3_12

.Ltmp29:
	mov	esi, .L.str.29
	mov	rdi, r14
	call	_ZNSt7__cxx1112basic_stringIcSt11char_traitsIcESaIcEE6appendEPKc
.Ltmp30:
	jmp	.LBB3_39
	.p2align	4, 0x90
.LBB3_15:                               
	cmp	al, 54
	jge	.LBB3_16

	cmp	al, 53
	jne	.LBB3_27

.Ltmp37:
	mov	esi, .L.str.26
	mov	rdi, r14
	call	_ZNSt7__cxx1112basic_stringIcSt11char_traitsIcESaIcEE6appendEPKc
.Ltmp38:
	jmp	.LBB3_39
	.p2align	4, 0x90
.LBB3_4:                                
	cmp	al, 69
	jge	.LBB3_5

	cmp	al, 68
	jne	.LBB3_33

.Ltmp21:
	mov	esi, .L.str.34
	mov	rdi, r14
	call	_ZNSt7__cxx1112basic_stringIcSt11char_traitsIcESaIcEE6appendEPKc
.Ltmp22:
	jmp	.LBB3_39
.LBB3_19:                               
	jne	.LBB3_26

.Ltmp41:
	mov	esi, .L.str.23
	mov	rdi, r14
	call	_ZNSt7__cxx1112basic_stringIcSt11char_traitsIcESaIcEE6appendEPKc
.Ltmp42:
	jmp	.LBB3_39
.LBB3_9:                                
	jne	.LBB3_32

.Ltmp25:
	mov	esi, .L.str.31
	mov	rdi, r14
	call	_ZNSt7__cxx1112basic_stringIcSt11char_traitsIcESaIcEE6appendEPKc
.Ltmp26:
	jmp	.LBB3_39
.LBB3_16:                               
	jne	.LBB3_30

.Ltmp33:
	mov	esi, .L.str.27
	mov	rdi, r14
	call	_ZNSt7__cxx1112basic_stringIcSt11char_traitsIcESaIcEE6appendEPKc
.Ltmp34:
	jmp	.LBB3_39
.LBB3_5:                                
	je	.LBB3_36

	cmp	al, 70
	jne	.LBB3_37

.Ltmp15:
	mov	esi, .L.str.36
	mov	rdi, r14
	call	_ZNSt7__cxx1112basic_stringIcSt11char_traitsIcESaIcEE6appendEPKc
.Ltmp16:
	jmp	.LBB3_39
.LBB3_12:                               
	jne	.LBB3_37

.Ltmp27:
	mov	esi, .L.str.30
	mov	rdi, r14
	call	_ZNSt7__cxx1112basic_stringIcSt11char_traitsIcESaIcEE6appendEPKc
.Ltmp28:
	jmp	.LBB3_39
.LBB3_37:                               
.Ltmp47:
	mov	edi, _ZSt4cout
	mov	esi, .L.str.37
	call	_ZStlsISt11char_traitsIcEERSt13basic_ostreamIcT_ES5_PKc
.Ltmp48:

.Ltmp49:
	mov	esi, _ZSt4endlIcSt11char_traitsIcEERSt13basic_ostreamIT_T0_ES6_
	mov	rdi, rax
	call	_ZNSolsEPFRSoS_E
.Ltmp50:
	jmp	.LBB3_39
.LBB3_27:                               
.Ltmp35:
	mov	esi, .L.str.25
	mov	rdi, r14
	call	_ZNSt7__cxx1112basic_stringIcSt11char_traitsIcESaIcEE6appendEPKc
.Ltmp36:
	jmp	.LBB3_39
.LBB3_33:                               
.Ltmp19:
	mov	esi, .L.str.33
	mov	rdi, r14
	call	_ZNSt7__cxx1112basic_stringIcSt11char_traitsIcESaIcEE6appendEPKc
.Ltmp20:
	jmp	.LBB3_39
.LBB3_26:                               
.Ltmp39:
	mov	esi, .L.str.24
	mov	rdi, r14
	call	_ZNSt7__cxx1112basic_stringIcSt11char_traitsIcESaIcEE6appendEPKc
.Ltmp40:
	jmp	.LBB3_39
.LBB3_32:                               
.Ltmp23:
	mov	esi, .L.str.32
	mov	rdi, r14
	call	_ZNSt7__cxx1112basic_stringIcSt11char_traitsIcESaIcEE6appendEPKc
.Ltmp24:
	jmp	.LBB3_39
.LBB3_30:                               
.Ltmp31:
	mov	esi, .L.str.28
	mov	rdi, r14
	call	_ZNSt7__cxx1112basic_stringIcSt11char_traitsIcESaIcEE6appendEPKc
.Ltmp32:
	jmp	.LBB3_39
.LBB3_25:                               
.Ltmp45:
	mov	esi, .L.str.22
	mov	rdi, r14
	call	_ZNSt7__cxx1112basic_stringIcSt11char_traitsIcESaIcEE6appendEPKc
.Ltmp46:
	jmp	.LBB3_39
.LBB3_36:                               
.Ltmp17:
	mov	esi, .L.str.35
	mov	rdi, r14
	call	_ZNSt7__cxx1112basic_stringIcSt11char_traitsIcESaIcEE6appendEPKc
.Ltmp18:
	.p2align	4, 0x90
.LBB3_39:                               
	mov	rdi, rbx
	call	_ZN9__gnu_cxx17__normal_iteratorIPKcNSt7__cxx1112basic_stringIcSt11char_traitsIcESaIcEEEEppEv
	mov	rdi, r15
	call	_ZNKSt7__cxx1112basic_stringIcSt11char_traitsIcESaIcEE3endEv
	mov	qword ptr [rsp + 8], rax
	mov	rdi, rbx
	mov	rsi, r12
	call	_ZN9__gnu_cxxltIPKcNSt7__cxx1112basic_stringIcSt11char_traitsIcESaIcEEEEEbRKNS_17__normal_iteratorIT_T0_EESE_
	test	al, al
	jne	.LBB3_2
.LBB3_40:
	mov	rax, r14
	add	rsp, 24
	pop	rbx
	pop	r12
	pop	r14
	pop	r15
	ret
.LBB3_24:
.Ltmp51:
	mov	rbx, rax
	mov	rdi, r14
	call	_ZNSt7__cxx1112basic_stringIcSt11char_traitsIcESaIcEED2Ev
	mov	rdi, rbx
	call	_Unwind_Resume
.Lfunc_end3:
	.size	_ZN3DES7hex2binERKNSt7__cxx1112basic_stringIcSt11char_traitsIcESaIcEEE, .Lfunc_end3-_ZN3DES7hex2binERKNSt7__cxx1112basic_stringIcSt11char_traitsIcESaIcEEE
	.cfi_endproc
	.section	.gcc_except_table,"a",@progbits
	.p2align	2
GCC_except_table3:
.Lexception2:
	.byte	255                     
	.byte	3                       
	.asciz	"\234"                  
	.byte	3                       
	.byte	26                      
	.long	.Ltmp43-.Lfunc_begin2   
	.long	.Ltmp18-.Ltmp43         
	.long	.Ltmp51-.Lfunc_begin2   
	.byte	0                       
	.long	.Ltmp18-.Lfunc_begin2   
	.long	.Lfunc_end3-.Ltmp18     
	.long	0                       
	.byte	0                       
	.p2align	2

	.section	.text._ZNSt7__cxx1112basic_stringIcSt11char_traitsIcESaIcEEaSERKS4_,"axG",@progbits,_ZNSt7__cxx1112basic_stringIcSt11char_traitsIcESaIcEEaSERKS4_,comdat
	.weak	_ZNSt7__cxx1112basic_stringIcSt11char_traitsIcESaIcEEaSERKS4_ 
	.p2align	4, 0x90
	.type	_ZNSt7__cxx1112basic_stringIcSt11char_traitsIcESaIcEEaSERKS4_,@function
_ZNSt7__cxx1112basic_stringIcSt11char_traitsIcESaIcEEaSERKS4_: 
	.cfi_startproc

	push	rbp
.Lcfi23:
	.cfi_def_cfa_offset 16
	push	r15
.Lcfi24:
	.cfi_def_cfa_offset 24
	push	r14
.Lcfi25:
	.cfi_def_cfa_offset 32
	push	r12
.Lcfi26:
	.cfi_def_cfa_offset 40
	push	rbx
.Lcfi27:
	.cfi_def_cfa_offset 48
	sub	rsp, 16
.Lcfi28:
	.cfi_def_cfa_offset 64
.Lcfi29:
	.cfi_offset rbx, -48
.Lcfi30:
	.cfi_offset r12, -40
.Lcfi31:
	.cfi_offset r14, -32
.Lcfi32:
	.cfi_offset r15, -24
.Lcfi33:
	.cfi_offset rbp, -16
	mov	eax, dword ptr [rip + x.54]
	lea	ecx, [rax - 1]
	imul	ecx, eax
	mov	eax, ecx
	xor	eax, -2
	test	eax, ecx
	sete	byte ptr [rsp + 6]
	mov	eax, dword ptr [rip + y.55]
	cmp	eax, 10
	setl	byte ptr [rsp + 7]
	mov	r14, rsi
	mov	rbp, rdi
	mov	ecx, -501590131
	mov	r15d, 771847704
	mov	r12d, 107164803
	jmp	.LBB4_1
.LBB4_8:                                
	movzx	eax, byte ptr [rsp + 6]
	movzx	ecx, byte ptr [rsp + 7]
	mov	edx, eax
	xor	dl, cl
	mov	edx, 792956271
	cmovne	edx, r15d
	test	cl, cl
	mov	ecx, edx
	cmovne	ecx, r15d
	test	al, al
	cmove	ecx, edx
	.p2align	4, 0x90
.LBB4_1:                                
	cmp	ecx, 771847703
	jg	.LBB4_5

	cmp	ecx, -501590131
	je	.LBB4_8

	cmp	ecx, 107164803
	jne	.LBB4_1
	jmp	.LBB4_4
	.p2align	4, 0x90
.LBB4_5:                                
	cmp	ecx, 771847704
	je	.LBB4_9

	cmp	ecx, 792956271
	jne	.LBB4_1

	mov	rdi, rbp
	mov	rsi, r14
	call	_ZNSt7__cxx1112basic_stringIcSt11char_traitsIcESaIcEE6assignERKS4_
	mov	ecx, 771847704
	jmp	.LBB4_1
.LBB4_9:                                
	mov	rdi, rbp
	mov	rsi, r14
	call	_ZNSt7__cxx1112basic_stringIcSt11char_traitsIcESaIcEE6assignERKS4_
	mov	ecx, dword ptr [rip + x.54]
	mov	edx, dword ptr [rip + y.55]
	lea	esi, [rcx - 1]
	imul	esi, ecx
	not	esi
	or	esi, -2
	cmp	esi, -1
	sete	cl
	cmp	edx, 10
	setl	bl
	xor	bl, cl
	mov	edi, 792956271
	cmovne	edi, r12d
	cmp	esi, -1
	mov	ecx, edi
	cmove	ecx, r12d
	cmp	edx, 10
	mov	qword ptr [rsp + 8], rax
	cmovge	ecx, edi
	jmp	.LBB4_1
.LBB4_4:
	mov	rax, qword ptr [rsp + 8]
	add	rsp, 16
	pop	rbx
	pop	r12
	pop	r14
	pop	r15
	pop	rbp
	ret
.Lfunc_end4:
	.size	_ZNSt7__cxx1112basic_stringIcSt11char_traitsIcESaIcEEaSERKS4_, .Lfunc_end4-_ZNSt7__cxx1112basic_stringIcSt11char_traitsIcESaIcEEaSERKS4_
	.cfi_endproc

	.section	.text._ZNSt7__cxx1112basic_stringIcSt11char_traitsIcESaIcEED2Ev,"axG",@progbits,_ZNSt7__cxx1112basic_stringIcSt11char_traitsIcESaIcEED2Ev,comdat
	.weak	_ZNSt7__cxx1112basic_stringIcSt11char_traitsIcESaIcEED2Ev 
	.p2align	4, 0x90
	.type	_ZNSt7__cxx1112basic_stringIcSt11char_traitsIcESaIcEED2Ev,@function
_ZNSt7__cxx1112basic_stringIcSt11char_traitsIcESaIcEED2Ev: 
.Lfunc_begin3:
	.cfi_startproc
	.cfi_personality 3, __gxx_personality_v0
	.cfi_lsda 3, .Lexception3

	push	r14
	push	rbx
	push	rax
	mov	rbx, rdi
.Ltmp52:
	call	_ZNSt7__cxx1112basic_stringIcSt11char_traitsIcESaIcEE10_M_disposeEv
.Ltmp53:

	mov	rdi, rbx
	add	rsp, 8
	pop	rbx
	pop	r14
	jmp	_ZNSt7__cxx1112basic_stringIcSt11char_traitsIcESaIcEE12_Alloc_hiderD2Ev 
.LBB5_2:
.Ltmp54:
	mov	r14, rax
	mov	rdi, rbx
	call	_ZNSt7__cxx1112basic_stringIcSt11char_traitsIcESaIcEE12_Alloc_hiderD2Ev
	mov	rdi, r14
	call	__cxa_call_unexpected
.Lfunc_end5:
	.size	_ZNSt7__cxx1112basic_stringIcSt11char_traitsIcESaIcEED2Ev, .Lfunc_end5-_ZNSt7__cxx1112basic_stringIcSt11char_traitsIcESaIcEED2Ev
	.cfi_endproc
	.section	.gcc_except_table,"a",@progbits
	.p2align	2
GCC_except_table5:
.Lexception3:
	.byte	255                     
	.byte	3                       
	.asciz	"\236\200\200"          
	.byte	3                       
	.byte	26                      
	.long	.Ltmp52-.Lfunc_begin3   
	.long	.Ltmp53-.Ltmp52         
	.long	.Ltmp54-.Lfunc_begin3   
	.byte	1                       
	.long	.Ltmp53-.Lfunc_begin3   
	.long	.Lfunc_end5-.Ltmp53     
	.long	0                       
	.byte	0                       
	.byte	127                     

	.byte	0                       

	.byte	0
	.p2align	2

	.text
	.globl	_ZN3DESD2Ev             
	.p2align	4, 0x90
	.type	_ZN3DESD2Ev,@function
_ZN3DESD2Ev:                            

	push	rbx
	mov	rbx, rdi
	mov	qword ptr [rbx], _ZTV3DES+16
	lea	rdi, [rbx + 424]
	call	_ZNSt7__cxx1112basic_stringIcSt11char_traitsIcESaIcEED2Ev
	lea	rdi, [rbx + 392]
	call	_ZNSt7__cxx1112basic_stringIcSt11char_traitsIcESaIcEED2Ev
	lea	rdi, [rbx + 360]
	call	_ZNSt7__cxx1112basic_stringIcSt11char_traitsIcESaIcEED2Ev
	lea	rdi, [rbx + 328]
	call	_ZNSt7__cxx1112basic_stringIcSt11char_traitsIcESaIcEED2Ev
	lea	rdi, [rbx + 296]
	call	_ZNSt7__cxx1112basic_stringIcSt11char_traitsIcESaIcEED2Ev
	lea	rdi, [rbx + 264]
	call	_ZNSt7__cxx1112basic_stringIcSt11char_traitsIcESaIcEED2Ev
	lea	rdi, [rbx + 232]
	call	_ZNSt7__cxx1112basic_stringIcSt11char_traitsIcESaIcEED2Ev
	lea	rdi, [rbx + 200]
	call	_ZNSt7__cxx1112basic_stringIcSt11char_traitsIcESaIcEED2Ev
	lea	rdi, [rbx + 168]
	call	_ZNSt7__cxx1112basic_stringIcSt11char_traitsIcESaIcEED2Ev
	lea	rdi, [rbx + 136]
	call	_ZNSt7__cxx1112basic_stringIcSt11char_traitsIcESaIcEED2Ev
	lea	rdi, [rbx + 104]
	call	_ZNSt7__cxx1112basic_stringIcSt11char_traitsIcESaIcEED2Ev
	lea	rdi, [rbx + 72]
	call	_ZNSt7__cxx1112basic_stringIcSt11char_traitsIcESaIcEED2Ev
	lea	rdi, [rbx + 40]
	call	_ZNSt7__cxx1112basic_stringIcSt11char_traitsIcESaIcEED2Ev
	add	rbx, 8
	mov	rdi, rbx
	pop	rbx
	jmp	_ZNSt7__cxx1112basic_stringIcSt11char_traitsIcESaIcEED2Ev 
.Lfunc_end6:
	.size	_ZN3DESD2Ev, .Lfunc_end6-_ZN3DESD2Ev

	.globl	_ZN3DESD0Ev             
	.p2align	4, 0x90
	.type	_ZN3DESD0Ev,@function
_ZN3DESD0Ev:                            

	push	rbp
	push	r15
	push	r14
	push	rbx
	push	rax
	mov	rbx, rdi
	mov	eax, dword ptr [rip + x.58]
	lea	ecx, [rax - 1]
	imul	ecx, eax
	mov	eax, ecx
	xor	eax, -2
	test	eax, ecx
	sete	byte ptr [rsp + 6]
	mov	eax, dword ptr [rip + y.59]
	cmp	eax, 10
	setl	byte ptr [rsp + 7]
	mov	eax, -931117951
	mov	r14d, -1164279807
	mov	r15d, 141493392
	mov	ebp, -1899311043
	jmp	.LBB7_1
.LBB7_7:                                
	movzx	ecx, byte ptr [rsp + 6]
	movzx	eax, byte ptr [rsp + 7]
	mov	edx, ecx
	xor	dl, al
	test	al, al
	mov	eax, 141493392
	cmovne	eax, ebp
	test	cl, cl
	cmove	eax, r15d
	test	dl, dl
	cmovne	eax, ebp
	.p2align	4, 0x90
.LBB7_1:                                
	cmp	eax, -931117952
	jg	.LBB7_5

	cmp	eax, -1899311043
	je	.LBB7_8

	cmp	eax, -1164279807
	jne	.LBB7_1
	jmp	.LBB7_4
	.p2align	4, 0x90
.LBB7_5:                                
	cmp	eax, 141493392
	je	.LBB7_9

	cmp	eax, -931117951
	jne	.LBB7_1
	jmp	.LBB7_7
.LBB7_8:                                
	mov	rdi, rbx
	call	_ZN3DESD2Ev
	mov	rdi, rbx
	call	_ZdlPv
	mov	eax, dword ptr [rip + x.58]
	lea	ecx, [rax - 1]
	imul	ecx, eax
	mov	eax, ecx
	xor	eax, -2
	and	eax, ecx
	sete	cl
	test	eax, eax
	mov	eax, 141493392
	cmove	eax, r14d
	cmp	dword ptr [rip + y.59], 10
	setl	dl
	cmovge	eax, r15d
	xor	dl, cl
	cmovne	eax, r14d
	jmp	.LBB7_1
.LBB7_9:                                
	mov	rdi, rbx
	call	_ZN3DESD2Ev
	mov	rdi, rbx
	call	_ZdlPv
	mov	eax, -1899311043
	jmp	.LBB7_1
.LBB7_4:
	add	rsp, 8
	pop	rbx
	pop	r14
	pop	r15
	pop	rbp
	ret
.Lfunc_end7:
	.size	_ZN3DESD0Ev, .Lfunc_end7-_ZN3DESD0Ev

	.globl	_ZN3DES5xor48ERKNSt7__cxx1112basic_stringIcSt11char_traitsIcESaIcEEES7_ 
	.p2align	4, 0x90
	.type	_ZN3DES5xor48ERKNSt7__cxx1112basic_stringIcSt11char_traitsIcESaIcEEES7_,@function
_ZN3DES5xor48ERKNSt7__cxx1112basic_stringIcSt11char_traitsIcESaIcEEES7_: 
	.cfi_startproc

	push	r15
.Lcfi34:
	.cfi_def_cfa_offset 16
	push	r14
.Lcfi35:
	.cfi_def_cfa_offset 24
	push	r13
.Lcfi36:
	.cfi_def_cfa_offset 32
	push	r12
.Lcfi37:
	.cfi_def_cfa_offset 40
	push	rbx
.Lcfi38:
	.cfi_def_cfa_offset 48
	sub	rsp, 64
.Lcfi39:
	.cfi_def_cfa_offset 112
.Lcfi40:
	.cfi_offset rbx, -48
.Lcfi41:
	.cfi_offset r12, -40
.Lcfi42:
	.cfi_offset r13, -32
.Lcfi43:
	.cfi_offset r14, -24
.Lcfi44:
	.cfi_offset r15, -16
	mov	r14, rdx
	mov	r15, rsi
	mov	rbx, rdi
	lea	r12, [rsp + 8]
	mov	rdi, r12
	call	_ZNSt6bitsetILm48EEC2Ev
	lea	r13, [rsp + 24]
	xor	edx, edx
	mov	rdi, r13
	mov	rsi, r15
	call	_ZNSt6bitsetILm48EEC2IcSt11char_traitsIcESaIcEEERKNSt7__cxx1112basic_stringIT_T0_T1_EEm
	lea	r15, [rsp + 16]
	xor	edx, edx
	mov	rdi, r15
	mov	rsi, r14
	call	_ZNSt6bitsetILm48EEC2IcSt11char_traitsIcESaIcEEERKNSt7__cxx1112basic_stringIT_T0_T1_EEm
	mov	rdi, r13
	mov	rsi, r15
	call	_ZSteoILm48EESt6bitsetIXT_EERKS1_S3_
	mov	qword ptr [rsp + 8], rax
	lea	r14, [rsp + 32]
	mov	rdi, r14
	mov	rsi, r12
	call	_ZNKSt6bitsetILm48EE9to_stringB5cxx11Ev
	add	rbx, 296
	mov	rdi, rbx
	mov	rsi, r14
	call	_ZNSt7__cxx1112basic_stringIcSt11char_traitsIcESaIcEEaSEOS4_
	mov	rdi, r14
	call	_ZNSt7__cxx1112basic_stringIcSt11char_traitsIcESaIcEED2Ev
	add	rsp, 64
	pop	rbx
	pop	r12
	pop	r13
	pop	r14
	pop	r15
	ret
.Lfunc_end8:
	.size	_ZN3DES5xor48ERKNSt7__cxx1112basic_stringIcSt11char_traitsIcESaIcEEES7_, .Lfunc_end8-_ZN3DES5xor48ERKNSt7__cxx1112basic_stringIcSt11char_traitsIcESaIcEEES7_
	.cfi_endproc

	.section	.text._ZNSt6bitsetILm48EEC2Ev,"axG",@progbits,_ZNSt6bitsetILm48EEC2Ev,comdat
	.weak	_ZNSt6bitsetILm48EEC2Ev 
	.p2align	4, 0x90
	.type	_ZNSt6bitsetILm48EEC2Ev,@function
_ZNSt6bitsetILm48EEC2Ev:                

	push	rbp
	push	r15
	push	r14
	push	rbx
	push	rax
	mov	eax, dword ptr [rip + x.62]
	lea	ecx, [rax - 1]
	imul	ecx, eax
	not	ecx
	or	ecx, -2
	cmp	ecx, -1
	sete	byte ptr [rsp + 6]
	mov	eax, dword ptr [rip + y.63]
	cmp	eax, 10
	setl	byte ptr [rsp + 7]
	mov	rbp, rdi
	mov	eax, -2094602258
	mov	r14d, 2112702100
	mov	r15d, 1963697816
	jmp	.LBB9_1
.LBB9_9:                                
	movzx	ecx, byte ptr [rsp + 6]
	movzx	eax, byte ptr [rsp + 7]
	mov	edx, ecx
	xor	dl, al
	mov	edx, -1070085526
	cmovne	edx, r14d
	test	al, al
	mov	eax, edx
	cmovne	eax, r14d
	test	cl, cl
	cmove	eax, edx
	.p2align	4, 0x90
.LBB9_1:                                
	cmp	eax, 1963697815
	jg	.LBB9_5

	cmp	eax, -2094602258
	je	.LBB9_9

	cmp	eax, -1070085526
	jne	.LBB9_1

	mov	rdi, rbp
	call	_ZNSt12_Base_bitsetILm1EEC2Ev
	mov	eax, 2112702100
	jmp	.LBB9_1
	.p2align	4, 0x90
.LBB9_5:                                
	cmp	eax, 1963697816
	je	.LBB9_8

	cmp	eax, 2112702100
	jne	.LBB9_1

	mov	rdi, rbp
	call	_ZNSt12_Base_bitsetILm1EEC2Ev
	mov	eax, dword ptr [rip + x.62]
	mov	ecx, dword ptr [rip + y.63]
	lea	edx, [rax - 1]
	imul	edx, eax
	mov	eax, edx
	xor	eax, -2
	and	eax, edx
	sete	dl
	cmp	ecx, 10
	setl	bl
	xor	bl, dl
	mov	edx, -1070085526
	cmovne	edx, r15d
	test	eax, eax
	mov	eax, edx
	cmove	eax, r15d
	cmp	ecx, 10
	cmovge	eax, edx
	jmp	.LBB9_1
.LBB9_8:
	add	rsp, 8
	pop	rbx
	pop	r14
	pop	r15
	pop	rbp
	ret
.Lfunc_end9:
	.size	_ZNSt6bitsetILm48EEC2Ev, .Lfunc_end9-_ZNSt6bitsetILm48EEC2Ev

	.section	.text._ZNSt6bitsetILm48EEC2IcSt11char_traitsIcESaIcEEERKNSt7__cxx1112basic_stringIT_T0_T1_EEm,"axG",@progbits,_ZNSt6bitsetILm48EEC2IcSt11char_traitsIcESaIcEEERKNSt7__cxx1112basic_stringIT_T0_T1_EEm,comdat
	.weak	_ZNSt6bitsetILm48EEC2IcSt11char_traitsIcESaIcEEERKNSt7__cxx1112basic_stringIT_T0_T1_EEm 
	.p2align	4, 0x90
	.type	_ZNSt6bitsetILm48EEC2IcSt11char_traitsIcESaIcEEERKNSt7__cxx1112basic_stringIT_T0_T1_EEm,@function
_ZNSt6bitsetILm48EEC2IcSt11char_traitsIcESaIcEEERKNSt7__cxx1112basic_stringIT_T0_T1_EEm: 
	.cfi_startproc

	push	rbp
.Lcfi45:
	.cfi_def_cfa_offset 16
	push	r15
.Lcfi46:
	.cfi_def_cfa_offset 24
	push	r14
.Lcfi47:
	.cfi_def_cfa_offset 32
	push	r13
.Lcfi48:
	.cfi_def_cfa_offset 40
	push	r12
.Lcfi49:
	.cfi_def_cfa_offset 48
	push	rbx
.Lcfi50:
	.cfi_def_cfa_offset 56
	push	rax
.Lcfi51:
	.cfi_def_cfa_offset 64
.Lcfi52:
	.cfi_offset rbx, -56
.Lcfi53:
	.cfi_offset r12, -48
.Lcfi54:
	.cfi_offset r13, -40
.Lcfi55:
	.cfi_offset r14, -32
.Lcfi56:
	.cfi_offset r15, -24
.Lcfi57:
	.cfi_offset rbp, -16
	mov	r14, rdx
	mov	r15, rsi
	mov	r12, rdi
	mov	eax, dword ptr [rip + x.64]
	lea	ecx, [rax - 1]
	imul	ecx, eax
	not	ecx
	or	ecx, -2
	cmp	ecx, -1
	sete	byte ptr [rsp + 6]
	mov	eax, dword ptr [rip + y.65]
	cmp	eax, 10
	setl	byte ptr [rsp + 7]
	mov	eax, 2145737479
	mov	r13d, 1912418802
	mov	ebx, -982463212
	mov	ebp, 331290723
	jmp	.LBB10_1
.LBB10_7:                               
	movzx	ecx, byte ptr [rsp + 6]
	movzx	eax, byte ptr [rsp + 7]
	mov	edx, ecx
	xor	dl, al
	test	al, al
	mov	eax, -982463212
	cmovne	eax, ebp
	test	cl, cl
	cmove	eax, ebx
	test	dl, dl
	cmovne	eax, ebp
	.p2align	4, 0x90
.LBB10_1:                               
	cmp	eax, 1912418801
	jg	.LBB10_5

	cmp	eax, -982463212
	je	.LBB10_9

	cmp	eax, 331290723
	jne	.LBB10_1

	mov	rdi, r12
	call	_ZNSt12_Base_bitsetILm1EEC2Ev
	mov	rdi, r12
	mov	rsi, r15
	mov	rdx, r14
	call	_ZNKSt6bitsetILm48EE25_M_check_initial_positionIcSt11char_traitsIcESaIcEEEvRKNSt7__cxx1112basic_stringIT_T0_T1_EEm
	mov	rcx, -1
	mov	r8d, 48
	mov	r9d, 49
	mov	rdi, r12
	mov	rsi, r15
	mov	rdx, r14
	call	_ZNSt6bitsetILm48EE19_M_copy_from_stringIcSt11char_traitsIcESaIcEEEvRKNSt7__cxx1112basic_stringIT_T0_T1_EEmmS7_S7_
	mov	eax, dword ptr [rip + x.64]
	mov	ecx, dword ptr [rip + y.65]
	lea	edx, [rax - 1]
	imul	edx, eax
	not	edx
	or	edx, -2
	cmp	edx, -1
	sete	al
	cmp	ecx, 10
	setl	bl
	xor	bl, al
	mov	ebx, -982463212
	mov	esi, -982463212
	cmovne	esi, r13d
	cmp	edx, -1
	mov	eax, esi
	cmove	eax, r13d
	cmp	ecx, 10
	cmovge	eax, esi
	jmp	.LBB10_1
	.p2align	4, 0x90
.LBB10_5:                               
	cmp	eax, 1912418802
	je	.LBB10_8

	cmp	eax, 2145737479
	jne	.LBB10_1
	jmp	.LBB10_7
.LBB10_9:                               
	mov	rdi, r12
	call	_ZNSt12_Base_bitsetILm1EEC2Ev
	mov	rdi, r12
	mov	rsi, r15
	mov	rdx, r14
	call	_ZNKSt6bitsetILm48EE25_M_check_initial_positionIcSt11char_traitsIcESaIcEEEvRKNSt7__cxx1112basic_stringIT_T0_T1_EEm
	mov	rcx, -1
	mov	r8d, 48
	mov	r9d, 49
	mov	rdi, r12
	mov	rsi, r15
	mov	rdx, r14
	call	_ZNSt6bitsetILm48EE19_M_copy_from_stringIcSt11char_traitsIcESaIcEEEvRKNSt7__cxx1112basic_stringIT_T0_T1_EEmmS7_S7_
	mov	eax, 331290723
	jmp	.LBB10_1
.LBB10_8:
	add	rsp, 8
	pop	rbx
	pop	r12
	pop	r13
	pop	r14
	pop	r15
	pop	rbp
	ret
.Lfunc_end10:
	.size	_ZNSt6bitsetILm48EEC2IcSt11char_traitsIcESaIcEEERKNSt7__cxx1112basic_stringIT_T0_T1_EEm, .Lfunc_end10-_ZNSt6bitsetILm48EEC2IcSt11char_traitsIcESaIcEEERKNSt7__cxx1112basic_stringIT_T0_T1_EEm
	.cfi_endproc

	.section	.text._ZSteoILm48EESt6bitsetIXT_EERKS1_S3_,"axG",@progbits,_ZSteoILm48EESt6bitsetIXT_EERKS1_S3_,comdat
	.weak	_ZSteoILm48EESt6bitsetIXT_EERKS1_S3_ 
	.p2align	4, 0x90
	.type	_ZSteoILm48EESt6bitsetIXT_EERKS1_S3_,@function
_ZSteoILm48EESt6bitsetIXT_EERKS1_S3_:   

	push	rbp
	mov	rbp, rsp
	push	r15
	push	r14
	push	r13
	push	r12
	push	rbx
	sub	rsp, 24
	mov	eax, dword ptr [rip + x.66]
	lea	ecx, [rax - 1]
	imul	ecx, eax
	not	ecx
	or	ecx, -2
	cmp	ecx, -1
	sete	byte ptr [rbp - 41]
	mov	eax, dword ptr [rip + y.67]
	cmp	eax, 10
	setl	byte ptr [rbp - 42]
	mov	r14, rsi
	mov	r13, rdi
	mov	eax, 1824082002
	mov	r15d, 1584739703
	mov	r12d, 854462578
	jmp	.LBB11_1
.LBB11_7:                               
	movzx	ecx, byte ptr [rbp - 41]
	movzx	eax, byte ptr [rbp - 42]
	mov	edx, ecx
	xor	dl, al
	mov	edx, -1387456064
	cmovne	edx, r12d
	test	al, al
	mov	eax, edx
	cmovne	eax, r12d
	test	cl, cl
	cmove	eax, edx
	.p2align	4, 0x90
.LBB11_1:                               
	cmp	eax, 1584739702
	jg	.LBB11_5

	cmp	eax, -1387456064
	je	.LBB11_9

	cmp	eax, 854462578
	jne	.LBB11_1

	mov	rbx, rsp
	lea	rdi, [rbx - 16]
	mov	rsp, rdi
	mov	rax, qword ptr [r13]
	mov	qword ptr [rbx - 16], rax
	mov	rsi, r14
	call	_ZNSt6bitsetILm48EEeOERKS0_
	mov	eax, dword ptr [rip + x.66]
	mov	esi, dword ptr [rip + y.67]
	lea	edx, [rax - 1]
	imul	edx, eax
	mov	eax, edx
	xor	eax, -2
	and	eax, edx
	sete	dl
	cmp	esi, 10
	setl	cl
	xor	cl, dl
	mov	ecx, -1387456064
	cmovne	ecx, r15d
	test	eax, eax
	mov	eax, ecx
	cmove	eax, r15d
	cmp	esi, 10
	mov	rdx, qword ptr [rbx - 16]
	mov	qword ptr [rbp - 56], rdx
	cmovge	eax, ecx
	jmp	.LBB11_1
	.p2align	4, 0x90
.LBB11_5:                               
	cmp	eax, 1584739703
	je	.LBB11_8

	cmp	eax, 1824082002
	jne	.LBB11_1
	jmp	.LBB11_7
.LBB11_9:                               
	mov	rax, rsp
	lea	rdi, [rax - 16]
	mov	rsp, rdi
	mov	rcx, qword ptr [r13]
	mov	qword ptr [rax - 16], rcx
	mov	rsi, r14
	call	_ZNSt6bitsetILm48EEeOERKS0_
	mov	eax, 854462578
	jmp	.LBB11_1
.LBB11_8:
	mov	rax, qword ptr [rbp - 56]
	lea	rsp, [rbp - 40]
	pop	rbx
	pop	r12
	pop	r13
	pop	r14
	pop	r15
	pop	rbp
	ret
.Lfunc_end11:
	.size	_ZSteoILm48EESt6bitsetIXT_EERKS1_S3_, .Lfunc_end11-_ZSteoILm48EESt6bitsetIXT_EERKS1_S3_

	.section	.text._ZNKSt6bitsetILm48EE9to_stringB5cxx11Ev,"axG",@progbits,_ZNKSt6bitsetILm48EE9to_stringB5cxx11Ev,comdat
	.weak	_ZNKSt6bitsetILm48EE9to_stringB5cxx11Ev 
	.p2align	4, 0x90
	.type	_ZNKSt6bitsetILm48EE9to_stringB5cxx11Ev,@function
_ZNKSt6bitsetILm48EE9to_stringB5cxx11Ev: 
	.cfi_startproc

	push	rbx
.Lcfi58:
	.cfi_def_cfa_offset 16
.Lcfi59:
	.cfi_offset rbx, -16
	mov	rbx, rdi
	call	_ZNKSt6bitsetILm48EE9to_stringIcSt11char_traitsIcESaIcEEENSt7__cxx1112basic_stringIT_T0_T1_EEv
	mov	rax, rbx
	pop	rbx
	ret
.Lfunc_end12:
	.size	_ZNKSt6bitsetILm48EE9to_stringB5cxx11Ev, .Lfunc_end12-_ZNKSt6bitsetILm48EE9to_stringB5cxx11Ev
	.cfi_endproc

	.section	.text._ZNSt7__cxx1112basic_stringIcSt11char_traitsIcESaIcEEaSEOS4_,"axG",@progbits,_ZNSt7__cxx1112basic_stringIcSt11char_traitsIcESaIcEEaSEOS4_,comdat
	.weak	_ZNSt7__cxx1112basic_stringIcSt11char_traitsIcESaIcEEaSEOS4_ 
	.p2align	4, 0x90
	.type	_ZNSt7__cxx1112basic_stringIcSt11char_traitsIcESaIcEEaSEOS4_,@function
_ZNSt7__cxx1112basic_stringIcSt11char_traitsIcESaIcEEaSEOS4_: 
.Lfunc_begin4:
	.cfi_startproc
	.cfi_personality 3, __gxx_personality_v0
	.cfi_lsda 3, .Lexception4

	push	r15
	push	r14
	push	r13
	push	r12
	push	rbx
	mov	r13, rsi
	mov	r14, rdi
.Ltmp55:
	call	_ZNKSt7__cxx1112basic_stringIcSt11char_traitsIcESaIcEE11_M_is_localEv
.Ltmp56:

	test	al, al
	jne	.LBB13_5

	call	_ZN9__gnu_cxx14__alloc_traitsISaIcEE15_S_always_equalEv
	test	al, al
	jne	.LBB13_5

	mov	rdi, r14
	call	_ZNSt7__cxx1112basic_stringIcSt11char_traitsIcESaIcEE16_M_get_allocatorEv
	mov	r15, rax
	mov	rdi, r13
	call	_ZNSt7__cxx1112basic_stringIcSt11char_traitsIcESaIcEE16_M_get_allocatorEv
	mov	rdi, r15
	mov	rsi, rax
	call	_ZStneIcEbRKSaIT_ES3_
	test	al, al
	je	.LBB13_5

	mov	rsi, qword ptr [r14 + 16]
	mov	rdi, r14
	call	_ZNSt7__cxx1112basic_stringIcSt11char_traitsIcESaIcEE10_M_destroyEm
	mov	rdi, r14
	call	_ZNSt7__cxx1112basic_stringIcSt11char_traitsIcESaIcEE13_M_local_dataEv
	mov	rdi, r14
	mov	rsi, rax
	call	_ZNSt7__cxx1112basic_stringIcSt11char_traitsIcESaIcEE7_M_dataEPc
.Ltmp57:
	xor	esi, esi
	mov	rdi, r14
	call	_ZNSt7__cxx1112basic_stringIcSt11char_traitsIcESaIcEE13_M_set_lengthEm
.Ltmp58:
.LBB13_5:
	mov	rdi, r14
	call	_ZNSt7__cxx1112basic_stringIcSt11char_traitsIcESaIcEE16_M_get_allocatorEv
	mov	rbx, rax
	mov	rdi, r13
	call	_ZNSt7__cxx1112basic_stringIcSt11char_traitsIcESaIcEE16_M_get_allocatorEv
.Ltmp59:
	mov	rdi, rbx
	mov	rsi, rax
	call	_ZSt15__alloc_on_moveISaIcEEvRT_S2_
.Ltmp60:

.Ltmp61:
	mov	rdi, r13
	call	_ZNKSt7__cxx1112basic_stringIcSt11char_traitsIcESaIcEE11_M_is_localEv
.Ltmp62:

	test	al, al
	je	.LBB13_11

	mov	rdi, r13
	call	_ZNKSt7__cxx1112basic_stringIcSt11char_traitsIcESaIcEE4sizeEv
	test	rax, rax
	je	.LBB13_10

	mov	rdi, r14
	call	_ZNKSt7__cxx1112basic_stringIcSt11char_traitsIcESaIcEE7_M_dataEv
	mov	r15, rax
	mov	rdi, r13
	call	_ZNKSt7__cxx1112basic_stringIcSt11char_traitsIcESaIcEE7_M_dataEv
	mov	rbx, rax
	mov	rdi, r13
	call	_ZNKSt7__cxx1112basic_stringIcSt11char_traitsIcESaIcEE4sizeEv
.Ltmp66:
	mov	rdi, r15
	mov	rsi, rbx
	mov	rdx, rax
	call	_ZNSt7__cxx1112basic_stringIcSt11char_traitsIcESaIcEE7_S_copyEPcPKcm
.Ltmp67:
.LBB13_10:
	mov	rdi, r13
	call	_ZNKSt7__cxx1112basic_stringIcSt11char_traitsIcESaIcEE4sizeEv
.Ltmp68:
	mov	rdi, r14
	mov	rsi, rax
	call	_ZNSt7__cxx1112basic_stringIcSt11char_traitsIcESaIcEE13_M_set_lengthEm
.Ltmp69:
	jmp	.LBB13_19
.LBB13_11:
.Ltmp63:
	mov	rdi, r14
	call	_ZNKSt7__cxx1112basic_stringIcSt11char_traitsIcESaIcEE11_M_is_localEv
.Ltmp64:

	test	al, al
	je	.LBB13_15

	xor	r12d, r12d

	jmp	.LBB13_16
.LBB13_15:
	mov	rdi, r14
	call	_ZNKSt7__cxx1112basic_stringIcSt11char_traitsIcESaIcEE7_M_dataEv
	mov	r12, rax
	mov	r15, qword ptr [r14 + 16]
.LBB13_16:
	mov	rdi, r13
	call	_ZNKSt7__cxx1112basic_stringIcSt11char_traitsIcESaIcEE7_M_dataEv
	mov	rdi, r14
	mov	rsi, rax
	call	_ZNSt7__cxx1112basic_stringIcSt11char_traitsIcESaIcEE7_M_dataEPc
	mov	rdi, r13
	call	_ZNKSt7__cxx1112basic_stringIcSt11char_traitsIcESaIcEE6lengthEv
	mov	rdi, r14
	mov	rsi, rax
	call	_ZNSt7__cxx1112basic_stringIcSt11char_traitsIcESaIcEE9_M_lengthEm
	mov	rsi, qword ptr [r13 + 16]
	mov	rdi, r14
	call	_ZNSt7__cxx1112basic_stringIcSt11char_traitsIcESaIcEE11_M_capacityEm
	test	r12, r12
	je	.LBB13_18

	mov	rdi, r13
	mov	rsi, r12
	call	_ZNSt7__cxx1112basic_stringIcSt11char_traitsIcESaIcEE7_M_dataEPc
	mov	rdi, r13
	mov	rsi, r15
	call	_ZNSt7__cxx1112basic_stringIcSt11char_traitsIcESaIcEE11_M_capacityEm
	jmp	.LBB13_19
.LBB13_18:
	lea	rsi, [r13 + 16]
	mov	rdi, r13
	call	_ZNSt7__cxx1112basic_stringIcSt11char_traitsIcESaIcEE7_M_dataEPc
.LBB13_19:
	mov	rdi, r13
	call	_ZNSt7__cxx1112basic_stringIcSt11char_traitsIcESaIcEE5clearEv
	mov	rax, r14
	pop	rbx
	pop	r12
	pop	r13
	pop	r14
	pop	r15
	ret
.LBB13_14:
.Ltmp65:
	mov	rdi, rax
	call	__clang_call_terminate
.LBB13_20:
.Ltmp70:
	mov	rdi, rax
	call	__clang_call_terminate
.Lfunc_end13:
	.size	_ZNSt7__cxx1112basic_stringIcSt11char_traitsIcESaIcEEaSEOS4_, .Lfunc_end13-_ZNSt7__cxx1112basic_stringIcSt11char_traitsIcESaIcEEaSEOS4_
	.cfi_endproc
	.section	.gcc_except_table,"a",@progbits
	.p2align	2
GCC_except_table13:
.Lexception4:
	.byte	255                     
	.byte	3                       
	.asciz	"\242\200\200"          
	.byte	3                       
	.byte	26                      
	.long	.Ltmp55-.Lfunc_begin4   
	.long	.Ltmp69-.Ltmp55         
	.long	.Ltmp70-.Lfunc_begin4   
	.byte	1                       
	.long	.Ltmp63-.Lfunc_begin4   
	.long	.Ltmp64-.Ltmp63         
	.long	.Ltmp65-.Lfunc_begin4   
	.byte	1                       
	.byte	1                       

	.byte	0                       

	.long	0                       
	.p2align	2

	.text
	.globl	_ZN3DES5xor32ERKNSt7__cxx1112basic_stringIcSt11char_traitsIcESaIcEEES7_ 
	.p2align	4, 0x90
	.type	_ZN3DES5xor32ERKNSt7__cxx1112basic_stringIcSt11char_traitsIcESaIcEEES7_,@function
_ZN3DES5xor32ERKNSt7__cxx1112basic_stringIcSt11char_traitsIcESaIcEEES7_: 
	.cfi_startproc

	push	rbp
.Lcfi60:
	.cfi_def_cfa_offset 16
.Lcfi61:
	.cfi_offset rbp, -16
	mov	rbp, rsp
.Lcfi62:
	.cfi_def_cfa_register rbp
	push	r15
	push	r14
	push	r13
	push	r12
	push	rbx
	sub	rsp, 40
.Lcfi63:
	.cfi_offset rbx, -56
.Lcfi64:
	.cfi_offset r12, -48
.Lcfi65:
	.cfi_offset r13, -40
.Lcfi66:
	.cfi_offset r14, -32
.Lcfi67:
	.cfi_offset r15, -24
	mov	qword ptr [rbp - 72], rdx 
	mov	qword ptr [rbp - 64], rsi 
	mov	eax, dword ptr [rip + x.70]
	mov	ecx, dword ptr [rip + y.71]
	mov	edx, eax
	neg	edx
	not	edx
	imul	edx, eax
	mov	eax, edx
	xor	eax, -2
	test	eax, edx
	sete	byte ptr [rbp - 41]
	cmp	ecx, 10
	setl	byte ptr [rbp - 42]
	add	rdi, 72
	mov	qword ptr [rbp - 56], rdi 
	mov	eax, 1699620775
	jmp	.LBB14_1
.LBB14_7:                               
	movzx	ecx, byte ptr [rbp - 41]
	movzx	eax, byte ptr [rbp - 42]
	mov	edx, ecx
	xor	dl, al
	test	al, al
	mov	eax, 415027248
	mov	esi, 1418981476
	cmovne	eax, esi
	test	cl, cl
	mov	ecx, 415027248
	cmove	eax, ecx
	test	dl, dl
	cmovne	eax, esi
	.p2align	4, 0x90
.LBB14_1:                               
	cmp	eax, 1418981475
	jg	.LBB14_5

	cmp	eax, -1126091118
	je	.LBB14_9

	cmp	eax, 415027248
	jne	.LBB14_1

	mov	r12, rsp
	lea	r13, [r12 - 16]
	mov	rsp, r13
	mov	r14, rsp
	add	r14, -16
	mov	rsp, r14
	mov	rbx, rsp
	add	rbx, -16
	mov	rsp, rbx
	mov	r15, rsp
	add	r15, -32
	mov	rsp, r15
	mov	rdi, r13
	call	_ZNSt6bitsetILm32EEC2Ev
	xor	edx, edx
	mov	rdi, r14
	mov	rsi, qword ptr [rbp - 64] 
	call	_ZNSt6bitsetILm32EEC2IcSt11char_traitsIcESaIcEEERKNSt7__cxx1112basic_stringIT_T0_T1_EEm
	xor	edx, edx
	mov	rdi, rbx
	mov	rsi, qword ptr [rbp - 72] 
	call	_ZNSt6bitsetILm32EEC2IcSt11char_traitsIcESaIcEEERKNSt7__cxx1112basic_stringIT_T0_T1_EEm
	mov	rdi, r14
	mov	rsi, rbx
	call	_ZSteoILm32EESt6bitsetIXT_EERKS1_S3_
	mov	qword ptr [r12 - 16], rax
	mov	rdi, r15
	mov	rsi, r13
	call	_ZNKSt6bitsetILm32EE9to_stringB5cxx11Ev
	mov	rdi, qword ptr [rbp - 56] 
	mov	rsi, r15
	call	_ZNSt7__cxx1112basic_stringIcSt11char_traitsIcESaIcEEaSEOS4_
	mov	rdi, r15
	call	_ZNSt7__cxx1112basic_stringIcSt11char_traitsIcESaIcEED2Ev
	mov	eax, 1418981476
	jmp	.LBB14_1
	.p2align	4, 0x90
.LBB14_5:                               
	cmp	eax, 1418981476
	je	.LBB14_8

	cmp	eax, 1699620775
	jne	.LBB14_1
	jmp	.LBB14_7
.LBB14_8:                               
	mov	r12, rsp
	lea	r13, [r12 - 16]
	mov	rsp, r13
	mov	r14, rsp
	add	r14, -16
	mov	rsp, r14
	mov	r15, rsp
	add	r15, -16
	mov	rsp, r15
	mov	rbx, rsp
	add	rbx, -32
	mov	rsp, rbx
	mov	rdi, r13
	call	_ZNSt6bitsetILm32EEC2Ev
	xor	edx, edx
	mov	rdi, r14
	mov	rsi, qword ptr [rbp - 64] 
	call	_ZNSt6bitsetILm32EEC2IcSt11char_traitsIcESaIcEEERKNSt7__cxx1112basic_stringIT_T0_T1_EEm
	xor	edx, edx
	mov	rdi, r15
	mov	rsi, qword ptr [rbp - 72] 
	call	_ZNSt6bitsetILm32EEC2IcSt11char_traitsIcESaIcEEERKNSt7__cxx1112basic_stringIT_T0_T1_EEm
	mov	rdi, r14
	mov	rsi, r15
	call	_ZSteoILm32EESt6bitsetIXT_EERKS1_S3_
	mov	qword ptr [r12 - 16], rax
	mov	rdi, rbx
	mov	rsi, r13
	call	_ZNKSt6bitsetILm32EE9to_stringB5cxx11Ev
	mov	rdi, qword ptr [rbp - 56] 
	mov	rsi, rbx
	call	_ZNSt7__cxx1112basic_stringIcSt11char_traitsIcESaIcEEaSEOS4_
	mov	rdi, rbx
	call	_ZNSt7__cxx1112basic_stringIcSt11char_traitsIcESaIcEED2Ev
	mov	eax, dword ptr [rip + x.70]
	mov	ecx, dword ptr [rip + y.71]
	lea	edx, [rax - 1]
	imul	edx, eax
	not	edx
	or	edx, -2
	cmp	edx, -1
	sete	al
	cmp	ecx, 10
	setl	bl
	xor	bl, al
	mov	esi, 415027248
	mov	edi, -1126091118
	cmovne	esi, edi
	cmp	edx, -1
	mov	eax, esi
	cmove	eax, edi
	cmp	ecx, 10
	cmovge	eax, esi
	jmp	.LBB14_1
.LBB14_9:
	lea	rsp, [rbp - 40]
	pop	rbx
	pop	r12
	pop	r13
	pop	r14
	pop	r15
	pop	rbp
	ret
.Lfunc_end14:
	.size	_ZN3DES5xor32ERKNSt7__cxx1112basic_stringIcSt11char_traitsIcESaIcEEES7_, .Lfunc_end14-_ZN3DES5xor32ERKNSt7__cxx1112basic_stringIcSt11char_traitsIcESaIcEEES7_
	.cfi_endproc

	.section	.text._ZNSt6bitsetILm32EEC2Ev,"axG",@progbits,_ZNSt6bitsetILm32EEC2Ev,comdat
	.weak	_ZNSt6bitsetILm32EEC2Ev 
	.p2align	4, 0x90
	.type	_ZNSt6bitsetILm32EEC2Ev,@function
_ZNSt6bitsetILm32EEC2Ev:                

	push	rbp
	push	r15
	push	r14
	push	r12
	push	rbx
	sub	rsp, 16
	mov	rbp, rdi
	mov	eax, dword ptr [rip + x.72]
	lea	ecx, [rax - 1]
	imul	ecx, eax
	mov	eax, ecx
	xor	eax, -2
	test	eax, ecx
	sete	byte ptr [rsp + 14]
	mov	eax, dword ptr [rip + y.73]
	cmp	eax, 10
	setl	byte ptr [rsp + 15]
	mov	eax, 875197395
	mov	r15d, -615267824
	mov	r14d, 2142728184
	mov	r12d, 783256676
	jmp	.LBB15_1
.LBB15_7:                               
	movzx	ecx, byte ptr [rsp + 14]
	movzx	eax, byte ptr [rsp + 15]
	mov	edx, ecx
	xor	dl, al
	test	al, al
	mov	eax, 2142728184
	cmovne	eax, r12d
	test	cl, cl
	cmove	eax, r14d
	test	dl, dl
	cmovne	eax, r12d
	.p2align	4, 0x90
.LBB15_1:                               
	cmp	eax, 875197394
	jg	.LBB15_5

	cmp	eax, -615267824
	je	.LBB15_8

	cmp	eax, 783256676
	jne	.LBB15_1

	mov	rdi, rbp
	call	_ZNSt12_Base_bitsetILm1EEC2Ev
	mov	eax, dword ptr [rip + x.72]
	mov	ecx, dword ptr [rip + y.73]
	lea	edx, [rax - 1]
	imul	edx, eax
	mov	eax, edx
	xor	eax, -2
	and	eax, edx
	sete	dl
	cmp	ecx, 10
	setl	bl
	xor	bl, dl
	mov	edx, 2142728184
	cmovne	edx, r15d
	test	eax, eax
	mov	eax, edx
	cmove	eax, r15d
	cmp	ecx, 10
	cmovge	eax, edx
	jmp	.LBB15_1
	.p2align	4, 0x90
.LBB15_5:                               
	cmp	eax, 2142728184
	je	.LBB15_9

	cmp	eax, 875197395
	jne	.LBB15_1
	jmp	.LBB15_7
.LBB15_9:                               
	mov	rdi, rbp
	call	_ZNSt12_Base_bitsetILm1EEC2Ev
	mov	eax, 783256676
	jmp	.LBB15_1
.LBB15_8:
	add	rsp, 16
	pop	rbx
	pop	r12
	pop	r14
	pop	r15
	pop	rbp
	ret
.Lfunc_end15:
	.size	_ZNSt6bitsetILm32EEC2Ev, .Lfunc_end15-_ZNSt6bitsetILm32EEC2Ev

	.section	.text._ZNSt6bitsetILm32EEC2IcSt11char_traitsIcESaIcEEERKNSt7__cxx1112basic_stringIT_T0_T1_EEm,"axG",@progbits,_ZNSt6bitsetILm32EEC2IcSt11char_traitsIcESaIcEEERKNSt7__cxx1112basic_stringIT_T0_T1_EEm,comdat
	.weak	_ZNSt6bitsetILm32EEC2IcSt11char_traitsIcESaIcEEERKNSt7__cxx1112basic_stringIT_T0_T1_EEm 
	.p2align	4, 0x90
	.type	_ZNSt6bitsetILm32EEC2IcSt11char_traitsIcESaIcEEERKNSt7__cxx1112basic_stringIT_T0_T1_EEm,@function
_ZNSt6bitsetILm32EEC2IcSt11char_traitsIcESaIcEEERKNSt7__cxx1112basic_stringIT_T0_T1_EEm: 
	.cfi_startproc

	push	r15
.Lcfi68:
	.cfi_def_cfa_offset 16
	push	r14
.Lcfi69:
	.cfi_def_cfa_offset 24
	push	rbx
.Lcfi70:
	.cfi_def_cfa_offset 32
.Lcfi71:
	.cfi_offset rbx, -32
.Lcfi72:
	.cfi_offset r14, -24
.Lcfi73:
	.cfi_offset r15, -16
	mov	r14, rdx
	mov	r15, rsi
	mov	rbx, rdi
	call	_ZNSt12_Base_bitsetILm1EEC2Ev
	mov	rdi, rbx
	mov	rsi, r15
	mov	rdx, r14
	call	_ZNKSt6bitsetILm32EE25_M_check_initial_positionIcSt11char_traitsIcESaIcEEEvRKNSt7__cxx1112basic_stringIT_T0_T1_EEm
	mov	rcx, -1
	mov	r8d, 48
	mov	r9d, 49
	mov	rdi, rbx
	mov	rsi, r15
	mov	rdx, r14
	pop	rbx
	pop	r14
	pop	r15
	jmp	_ZNSt6bitsetILm32EE19_M_copy_from_stringIcSt11char_traitsIcESaIcEEEvRKNSt7__cxx1112basic_stringIT_T0_T1_EEmmS7_S7_ 
.Lfunc_end16:
	.size	_ZNSt6bitsetILm32EEC2IcSt11char_traitsIcESaIcEEERKNSt7__cxx1112basic_stringIT_T0_T1_EEm, .Lfunc_end16-_ZNSt6bitsetILm32EEC2IcSt11char_traitsIcESaIcEEERKNSt7__cxx1112basic_stringIT_T0_T1_EEm
	.cfi_endproc

	.section	.text._ZSteoILm32EESt6bitsetIXT_EERKS1_S3_,"axG",@progbits,_ZSteoILm32EESt6bitsetIXT_EERKS1_S3_,comdat
	.weak	_ZSteoILm32EESt6bitsetIXT_EERKS1_S3_ 
	.p2align	4, 0x90
	.type	_ZSteoILm32EESt6bitsetIXT_EERKS1_S3_,@function
_ZSteoILm32EESt6bitsetIXT_EERKS1_S3_:   

	push	rax
	mov	rax, qword ptr [rdi]
	mov	qword ptr [rsp], rax
	mov	rdi, rsp
	call	_ZNSt6bitsetILm32EEeOERKS0_
	mov	rax, qword ptr [rsp]
	pop	rcx
	ret
.Lfunc_end17:
	.size	_ZSteoILm32EESt6bitsetIXT_EERKS1_S3_, .Lfunc_end17-_ZSteoILm32EESt6bitsetIXT_EERKS1_S3_

	.section	.text._ZNKSt6bitsetILm32EE9to_stringB5cxx11Ev,"axG",@progbits,_ZNKSt6bitsetILm32EE9to_stringB5cxx11Ev,comdat
	.weak	_ZNKSt6bitsetILm32EE9to_stringB5cxx11Ev 
	.p2align	4, 0x90
	.type	_ZNKSt6bitsetILm32EE9to_stringB5cxx11Ev,@function
_ZNKSt6bitsetILm32EE9to_stringB5cxx11Ev: 
	.cfi_startproc

	push	rbx
.Lcfi74:
	.cfi_def_cfa_offset 16
.Lcfi75:
	.cfi_offset rbx, -16
	mov	rbx, rdi
	call	_ZNKSt6bitsetILm32EE9to_stringIcSt11char_traitsIcESaIcEEENSt7__cxx1112basic_stringIT_T0_T1_EEv
	mov	rax, rbx
	pop	rbx
	ret
.Lfunc_end18:
	.size	_ZNKSt6bitsetILm32EE9to_stringB5cxx11Ev, .Lfunc_end18-_ZNKSt6bitsetILm32EE9to_stringB5cxx11Ev
	.cfi_endproc

	.text
	.globl	_ZN3DES12initialPermuERKNSt7__cxx1112basic_stringIcSt11char_traitsIcESaIcEEE 
	.p2align	4, 0x90
	.type	_ZN3DES12initialPermuERKNSt7__cxx1112basic_stringIcSt11char_traitsIcESaIcEEE,@function
_ZN3DES12initialPermuERKNSt7__cxx1112basic_stringIcSt11char_traitsIcESaIcEEE: 
	.cfi_startproc

	push	rbp
.Lcfi76:
	.cfi_def_cfa_offset 16
	push	r15
.Lcfi77:
	.cfi_def_cfa_offset 24
	push	r14
.Lcfi78:
	.cfi_def_cfa_offset 32
	push	r13
.Lcfi79:
	.cfi_def_cfa_offset 40
	push	r12
.Lcfi80:
	.cfi_def_cfa_offset 48
	push	rbx
.Lcfi81:
	.cfi_def_cfa_offset 56
	sub	rsp, 136
.Lcfi82:
	.cfi_def_cfa_offset 192
.Lcfi83:
	.cfi_offset rbx, -56
.Lcfi84:
	.cfi_offset r12, -48
.Lcfi85:
	.cfi_offset r13, -40
.Lcfi86:
	.cfi_offset r14, -32
.Lcfi87:
	.cfi_offset r15, -24
.Lcfi88:
	.cfi_offset rbp, -16
	mov	rbx, rsi
	mov	qword ptr [rsp + 64], rdi 
	lea	rax, [rsp + 128]
	mov	qword ptr [rsp + 88], rax
	lea	rdi, [rsp + 24]
	mov	qword ptr [rsp + 32], rdi
	mov	rax, qword ptr [rsp + 32]
	call	_ZNSt6bitsetILm64EEC2Ev
	lea	r14, [rsp + 80]
	mov	qword ptr [rsp + 40], r14
	mov	rax, qword ptr [rsp + 40]
	mov	qword ptr [rsp + 16], rbx 
	mov	rdi, rbx
	call	_ZNKSt7__cxx1112basic_stringIcSt11char_traitsIcESaIcEE5beginEv
	mov	rbx, rax
	mov	eax, 758788469
	lea	r12, [rsp + 96]
	mov	r13d, 1802441798
	mov	rbp, r14
	jmp	.LBB19_1
.LBB19_9:                               
	cmove	eax, esi
	cmp	dword ptr [rip + y.81], 10
	setl	dl
	cmovge	eax, r13d
	xor	dl, cl
	cmovne	eax, esi
	.p2align	4, 0x90
.LBB19_1:                               
	cmp	eax, 1297689119
	jg	.LBB19_10

	cmp	eax, -550321377
	jg	.LBB19_6

	cmp	eax, -1760711803
	je	.LBB19_18

	cmp	eax, -643659331
	jne	.LBB19_1

	mov	rdi, r14
	call	_ZNK9__gnu_cxx17__normal_iteratorIPKcNSt7__cxx1112basic_stringIcSt11char_traitsIcESaIcEEEEdeEv
	cmp	byte ptr [rax], 49
	mov	eax, 2031670252
	mov	ecx, 1297689120
	cmove	eax, ecx
	jmp	.LBB19_1
	.p2align	4, 0x90
.LBB19_10:                              
	cmp	eax, 2031670251
	jg	.LBB19_14

	cmp	eax, 1297689120
	je	.LBB19_19

	cmp	eax, 1802441798
	jne	.LBB19_1

	mov	rax, qword ptr [rsp + 56]
	mov	rcx, qword ptr [rsp + 48]
	mov	qword ptr [rax], rcx
	mov	rdi, qword ptr [rsp + 16] 
	call	_ZNKSt7__cxx1112basic_stringIcSt11char_traitsIcESaIcEE3endEv
	mov	qword ptr [rsp + 96], rax
	mov	rdi, r14
	mov	rsi, r12
	call	_ZN9__gnu_cxxltIPKcNSt7__cxx1112basic_stringIcSt11char_traitsIcESaIcEEEEEbRKNS_17__normal_iteratorIT_T0_EESE_
	mov	eax, -550321376
	jmp	.LBB19_1
	.p2align	4, 0x90
.LBB19_6:                               
	cmp	eax, -550321376
	je	.LBB19_17

	cmp	eax, 758788469
	jne	.LBB19_1

	mov	qword ptr [rsp + 48], rbx
	mov	qword ptr [rsp + 56], rbp
	mov	eax, dword ptr [rip + x.80]
	lea	ecx, [rax - 1]
	imul	ecx, eax
	not	ecx
	or	ecx, -2
	cmp	ecx, -1
	sete	cl
	mov	eax, 1802441798
	mov	esi, -550321376
	jmp	.LBB19_9
	.p2align	4, 0x90
.LBB19_14:                              
	cmp	eax, 2031670252
	je	.LBB19_20

	cmp	eax, 2136650584
	jne	.LBB19_1
	jmp	.LBB19_16
.LBB19_18:                              
	movzx	eax, byte ptr [rsp + 15]
	test	al, al
	mov	eax, 2136650584
	mov	ecx, -643659331
	cmovne	eax, ecx
	jmp	.LBB19_1
.LBB19_19:                              
	mov	edi, _ZN3DES23initialPermutationTableE
	call	_ZNKSt5arrayIiLm64EE5beginEv
	mov	qword ptr [rsp + 72], rbp 
	mov	r15, rax
	mov	edi, _ZN3DES23initialPermutationTableE
	call	_ZNKSt5arrayIiLm64EE5beginEv
	mov	r13, r12
	mov	r12, r14
	mov	r14, rax
	mov	edi, _ZN3DES23initialPermutationTableE
	call	_ZNKSt5arrayIiLm64EE3endEv
	mov	rbp, rax
	mov	rdi, qword ptr [rsp + 16] 
	call	_ZNKSt7__cxx1112basic_stringIcSt11char_traitsIcESaIcEE5beginEv
	mov	rsi, qword ptr [rsp + 80]
	mov	rdi, rax
	call	_ZSt8distanceIN9__gnu_cxx17__normal_iteratorIPKcNSt7__cxx1112basic_stringIcSt11char_traitsIcESaIcEEEEEENSt15iterator_traitsIT_E15difference_typeESC_SC_
	inc	rax
	mov	qword ptr [rsp + 96], rax
	mov	rdi, r14
	mov	r14, r12
	mov	r12, r13
	mov	rsi, rbp
	mov	r13d, 1802441798
	mov	rdx, r12
	call	_ZSt4findIPKilET_S2_S2_RKT0_
	mov	rdi, r15
	mov	rbp, qword ptr [rsp + 72] 
	mov	rsi, rax
	call	_ZSt8distanceIPKiENSt15iterator_traitsIT_E15difference_typeES3_S3_
	mov	ecx, 63
	sub	ecx, eax
	movsxd	rsi, ecx
	mov	edx, 1
	lea	rdi, [rsp + 24]
	call	_ZNSt6bitsetILm64EE3setEmb
	mov	eax, 2031670252
	jmp	.LBB19_1
.LBB19_17:                              
	mov	rax, qword ptr [rsp + 56]
	mov	rcx, qword ptr [rsp + 48]
	mov	qword ptr [rax], rcx
	mov	rdi, qword ptr [rsp + 16] 
	call	_ZNKSt7__cxx1112basic_stringIcSt11char_traitsIcESaIcEE3endEv
	mov	qword ptr [rsp + 96], rax
	mov	rdi, r14
	mov	rsi, r12
	call	_ZN9__gnu_cxxltIPKcNSt7__cxx1112basic_stringIcSt11char_traitsIcESaIcEEEEEbRKNS_17__normal_iteratorIT_T0_EESE_
	mov	byte ptr [rsp + 15], al
	mov	eax, dword ptr [rip + x.80]
	lea	ecx, [rax - 1]
	imul	ecx, eax
	not	ecx
	or	ecx, -2
	cmp	ecx, -1
	sete	cl
	mov	eax, 1802441798
	mov	esi, -1760711803
	jmp	.LBB19_9
.LBB19_20:                              
	xor	esi, esi
	mov	rdi, r14
	call	_ZN9__gnu_cxx17__normal_iteratorIPKcNSt7__cxx1112basic_stringIcSt11char_traitsIcESaIcEEEEppEi
	mov	rbx, rax
	mov	rbp, qword ptr [rsp + 88]
	mov	eax, 758788469
	jmp	.LBB19_1
.LBB19_16:
	mov	rax, qword ptr [rsp + 40]
	lea	rbx, [rsp + 96]
	lea	rsi, [rsp + 24]
	mov	rdi, rbx
	call	_ZNKSt6bitsetILm64EE9to_stringB5cxx11Ev
	mov	rdi, qword ptr [rsp + 64] 
	add	rdi, 360
	mov	rsi, rbx
	call	_ZNSt7__cxx1112basic_stringIcSt11char_traitsIcESaIcEEaSEOS4_
	mov	rdi, rbx
	call	_ZNSt7__cxx1112basic_stringIcSt11char_traitsIcESaIcEED2Ev
	mov	rax, qword ptr [rsp + 32]
	add	rsp, 136
	pop	rbx
	pop	r12
	pop	r13
	pop	r14
	pop	r15
	pop	rbp
	ret
.Lfunc_end19:
	.size	_ZN3DES12initialPermuERKNSt7__cxx1112basic_stringIcSt11char_traitsIcESaIcEEE, .Lfunc_end19-_ZN3DES12initialPermuERKNSt7__cxx1112basic_stringIcSt11char_traitsIcESaIcEEE
	.cfi_endproc

	.section	.text._ZNSt6bitsetILm64EEC2Ev,"axG",@progbits,_ZNSt6bitsetILm64EEC2Ev,comdat
	.weak	_ZNSt6bitsetILm64EEC2Ev 
	.p2align	4, 0x90
	.type	_ZNSt6bitsetILm64EEC2Ev,@function
_ZNSt6bitsetILm64EEC2Ev:                

	jmp	_ZNSt12_Base_bitsetILm1EEC2Ev 
.Lfunc_end20:
	.size	_ZNSt6bitsetILm64EEC2Ev, .Lfunc_end20-_ZNSt6bitsetILm64EEC2Ev

	.section	.text._ZNKSt7__cxx1112basic_stringIcSt11char_traitsIcESaIcEE5beginEv,"axG",@progbits,_ZNKSt7__cxx1112basic_stringIcSt11char_traitsIcESaIcEE5beginEv,comdat
	.weak	_ZNKSt7__cxx1112basic_stringIcSt11char_traitsIcESaIcEE5beginEv 
	.p2align	4, 0x90
	.type	_ZNKSt7__cxx1112basic_stringIcSt11char_traitsIcESaIcEE5beginEv,@function
_ZNKSt7__cxx1112basic_stringIcSt11char_traitsIcESaIcEE5beginEv: 

	push	rbp
	mov	rbp, rsp
	push	r15
	push	r14
	push	r13
	push	r12
	push	rbx
	sub	rsp, 24
	mov	r14, rdi
	mov	eax, dword ptr [rip + x.84]
	lea	ecx, [rax - 1]
	imul	ecx, eax
	mov	eax, ecx
	xor	eax, -2
	test	eax, ecx
	sete	byte ptr [rbp - 41]
	mov	eax, dword ptr [rip + y.85]
	cmp	eax, 10
	setl	byte ptr [rbp - 42]
	mov	eax, -1987245561
	jmp	.LBB21_1
.LBB21_9:                               
	movzx	ecx, byte ptr [rbp - 41]
	movzx	eax, byte ptr [rbp - 42]
	mov	edx, ecx
	xor	dl, al
	mov	edx, 1297652504
	mov	esi, 1422508384
	cmovne	edx, esi
	test	al, al
	mov	eax, edx
	cmovne	eax, esi
	test	cl, cl
	cmove	eax, edx
	.p2align	4, 0x90
.LBB21_1:                               
	cmp	eax, 1297652503
	jg	.LBB21_5

	cmp	eax, -1987245561
	je	.LBB21_9

	cmp	eax, -500151813
	jne	.LBB21_1
	jmp	.LBB21_4
	.p2align	4, 0x90
.LBB21_5:                               
	cmp	eax, 1297652504
	je	.LBB21_8

	cmp	eax, 1422508384
	jne	.LBB21_1

	mov	r12, rsp
	lea	r15, [r12 - 16]
	mov	rsp, r15
	mov	r13, rsp
	lea	rbx, [r13 - 16]
	mov	rsp, rbx
	mov	rdi, r14
	call	_ZNKSt7__cxx1112basic_stringIcSt11char_traitsIcESaIcEE7_M_dataEv
	mov	qword ptr [r13 - 16], rax
	mov	rdi, r15
	mov	rsi, rbx
	call	_ZN9__gnu_cxx17__normal_iteratorIPKcNSt7__cxx1112basic_stringIcSt11char_traitsIcESaIcEEEEC2ERKS2_
	mov	rax, qword ptr [r12 - 16]
	mov	qword ptr [rbp - 56], rax
	mov	eax, dword ptr [rip + x.84]
	mov	ecx, eax
	neg	ecx
	not	ecx
	imul	ecx, eax
	not	ecx
	or	ecx, -2
	cmp	ecx, -1
	sete	cl
	mov	eax, 1297652504
	mov	edi, -500151813
	cmove	eax, edi
	cmp	dword ptr [rip + y.85], 10
	setl	dl
	mov	esi, 1297652504
	cmovge	eax, esi
	xor	dl, cl
	cmovne	eax, edi
	jmp	.LBB21_1
.LBB21_8:                               
	mov	rbx, rsp
	add	rbx, -16
	mov	rsp, rbx
	mov	r12, rsp
	lea	r15, [r12 - 16]
	mov	rsp, r15
	mov	rdi, r14
	call	_ZNKSt7__cxx1112basic_stringIcSt11char_traitsIcESaIcEE7_M_dataEv
	mov	qword ptr [r12 - 16], rax
	mov	rdi, rbx
	mov	rsi, r15
	call	_ZN9__gnu_cxx17__normal_iteratorIPKcNSt7__cxx1112basic_stringIcSt11char_traitsIcESaIcEEEEC2ERKS2_
	mov	eax, 1422508384
	jmp	.LBB21_1
.LBB21_4:
	mov	rax, qword ptr [rbp - 56]
	lea	rsp, [rbp - 40]
	pop	rbx
	pop	r12
	pop	r13
	pop	r14
	pop	r15
	pop	rbp
	ret
.Lfunc_end21:
	.size	_ZNKSt7__cxx1112basic_stringIcSt11char_traitsIcESaIcEE5beginEv, .Lfunc_end21-_ZNKSt7__cxx1112basic_stringIcSt11char_traitsIcESaIcEE5beginEv

	.section	.text._ZN9__gnu_cxxltIPKcNSt7__cxx1112basic_stringIcSt11char_traitsIcESaIcEEEEEbRKNS_17__normal_iteratorIT_T0_EESE_,"axG",@progbits,_ZN9__gnu_cxxltIPKcNSt7__cxx1112basic_stringIcSt11char_traitsIcESaIcEEEEEbRKNS_17__normal_iteratorIT_T0_EESE_,comdat
	.weak	_ZN9__gnu_cxxltIPKcNSt7__cxx1112basic_stringIcSt11char_traitsIcESaIcEEEEEbRKNS_17__normal_iteratorIT_T0_EESE_ 
	.p2align	4, 0x90
	.type	_ZN9__gnu_cxxltIPKcNSt7__cxx1112basic_stringIcSt11char_traitsIcESaIcEEEEEbRKNS_17__normal_iteratorIT_T0_EESE_,@function
_ZN9__gnu_cxxltIPKcNSt7__cxx1112basic_stringIcSt11char_traitsIcESaIcEEEEEbRKNS_17__normal_iteratorIT_T0_EESE_: 

	push	r14
	push	rbx
	push	rax
	mov	r14, rsi
	call	_ZNK9__gnu_cxx17__normal_iteratorIPKcNSt7__cxx1112basic_stringIcSt11char_traitsIcESaIcEEEE4baseEv
	mov	rbx, qword ptr [rax]
	mov	rdi, r14
	call	_ZNK9__gnu_cxx17__normal_iteratorIPKcNSt7__cxx1112basic_stringIcSt11char_traitsIcESaIcEEEE4baseEv
	cmp	rbx, qword ptr [rax]
	setb	al
	add	rsp, 8
	pop	rbx
	pop	r14
	ret
.Lfunc_end22:
	.size	_ZN9__gnu_cxxltIPKcNSt7__cxx1112basic_stringIcSt11char_traitsIcESaIcEEEEEbRKNS_17__normal_iteratorIT_T0_EESE_, .Lfunc_end22-_ZN9__gnu_cxxltIPKcNSt7__cxx1112basic_stringIcSt11char_traitsIcESaIcEEEEEbRKNS_17__normal_iteratorIT_T0_EESE_

	.section	.text._ZNKSt7__cxx1112basic_stringIcSt11char_traitsIcESaIcEE3endEv,"axG",@progbits,_ZNKSt7__cxx1112basic_stringIcSt11char_traitsIcESaIcEE3endEv,comdat
	.weak	_ZNKSt7__cxx1112basic_stringIcSt11char_traitsIcESaIcEE3endEv 
	.p2align	4, 0x90
	.type	_ZNKSt7__cxx1112basic_stringIcSt11char_traitsIcESaIcEE3endEv,@function
_ZNKSt7__cxx1112basic_stringIcSt11char_traitsIcESaIcEE3endEv: 

	push	r14
	push	rbx
	sub	rsp, 24
	mov	rbx, rdi
	call	_ZNKSt7__cxx1112basic_stringIcSt11char_traitsIcESaIcEE7_M_dataEv
	mov	r14, rax
	mov	rdi, rbx
	call	_ZNKSt7__cxx1112basic_stringIcSt11char_traitsIcESaIcEE4sizeEv
	add	rax, r14
	mov	qword ptr [rsp + 8], rax
	lea	rdi, [rsp + 16]
	lea	rsi, [rsp + 8]
	call	_ZN9__gnu_cxx17__normal_iteratorIPKcNSt7__cxx1112basic_stringIcSt11char_traitsIcESaIcEEEEC2ERKS2_
	mov	rax, qword ptr [rsp + 16]
	add	rsp, 24
	pop	rbx
	pop	r14
	ret
.Lfunc_end23:
	.size	_ZNKSt7__cxx1112basic_stringIcSt11char_traitsIcESaIcEE3endEv, .Lfunc_end23-_ZNKSt7__cxx1112basic_stringIcSt11char_traitsIcESaIcEE3endEv

	.section	.text._ZNK9__gnu_cxx17__normal_iteratorIPKcNSt7__cxx1112basic_stringIcSt11char_traitsIcESaIcEEEEdeEv,"axG",@progbits,_ZNK9__gnu_cxx17__normal_iteratorIPKcNSt7__cxx1112basic_stringIcSt11char_traitsIcESaIcEEEEdeEv,comdat
	.weak	_ZNK9__gnu_cxx17__normal_iteratorIPKcNSt7__cxx1112basic_stringIcSt11char_traitsIcESaIcEEEEdeEv 
	.p2align	4, 0x90
	.type	_ZNK9__gnu_cxx17__normal_iteratorIPKcNSt7__cxx1112basic_stringIcSt11char_traitsIcESaIcEEEEdeEv,@function
_ZNK9__gnu_cxx17__normal_iteratorIPKcNSt7__cxx1112basic_stringIcSt11char_traitsIcESaIcEEEEdeEv: 

	mov	eax, dword ptr [rip + x.90]
	mov	r8d, dword ptr [rip + y.91]
	lea	edx, [rax - 1]
	imul	edx, eax
	not	edx
	or	edx, -2
	cmp	edx, -1
	sete	al
	cmp	r8d, 10
	setl	cl
	xor	cl, al
	mov	esi, -1564988209
	mov	ecx, -462141821
	cmovne	ecx, esi
	cmp	edx, -1
	sete	byte ptr [rsp - 10]
	cmovne	esi, ecx
	cmp	r8d, 10
	setl	byte ptr [rsp - 9]
	cmovge	esi, ecx
	mov	edx, -749051744
	mov	r8d, 1388256175
	jmp	.LBB24_1
.LBB24_4:                               
	movzx	eax, byte ptr [rsp - 10]
	movzx	edx, byte ptr [rsp - 9]
	mov	ecx, eax
	xor	cl, dl
	mov	ecx, -462141821
	cmovne	ecx, r8d
	test	dl, dl
	mov	edx, ecx
	cmovne	edx, r8d
	test	al, al
	cmove	edx, ecx
	.p2align	4, 0x90
.LBB24_1:                               
	cmp	edx, -462141822
	jg	.LBB24_5

	cmp	edx, -1564988209
	je	.LBB24_8

	cmp	edx, -749051744
	jne	.LBB24_1
	jmp	.LBB24_4
	.p2align	4, 0x90
.LBB24_5:                               
	cmp	edx, -462141821
	je	.LBB24_9

	cmp	edx, 1388256175
	jne	.LBB24_1

	mov	rax, qword ptr [rdi]
	mov	qword ptr [rsp - 8], rax
	mov	edx, esi
	jmp	.LBB24_1
.LBB24_9:                               
	mov	edx, 1388256175
	jmp	.LBB24_1
.LBB24_8:
	mov	rax, qword ptr [rsp - 8]
	ret
.Lfunc_end24:
	.size	_ZNK9__gnu_cxx17__normal_iteratorIPKcNSt7__cxx1112basic_stringIcSt11char_traitsIcESaIcEEEEdeEv, .Lfunc_end24-_ZNK9__gnu_cxx17__normal_iteratorIPKcNSt7__cxx1112basic_stringIcSt11char_traitsIcESaIcEEEEdeEv

	.section	.text._ZSt8distanceIPKiENSt15iterator_traitsIT_E15difference_typeES3_S3_,"axG",@progbits,_ZSt8distanceIPKiENSt15iterator_traitsIT_E15difference_typeES3_S3_,comdat
	.weak	_ZSt8distanceIPKiENSt15iterator_traitsIT_E15difference_typeES3_S3_ 
	.p2align	4, 0x90
	.type	_ZSt8distanceIPKiENSt15iterator_traitsIT_E15difference_typeES3_S3_,@function
_ZSt8distanceIPKiENSt15iterator_traitsIT_E15difference_typeES3_S3_: 
	.cfi_startproc

	push	rbp
.Lcfi89:
	.cfi_def_cfa_offset 16
.Lcfi90:
	.cfi_offset rbp, -16
	mov	rbp, rsp
.Lcfi91:
	.cfi_def_cfa_register rbp
	push	r15
	push	r14
	push	r13
	push	r12
	push	rbx
	sub	rsp, 24
.Lcfi92:
	.cfi_offset rbx, -56
.Lcfi93:
	.cfi_offset r12, -48
.Lcfi94:
	.cfi_offset r13, -40
.Lcfi95:
	.cfi_offset r14, -32
.Lcfi96:
	.cfi_offset r15, -24
	mov	r14, rsi
	mov	r12, rdi
	mov	eax, dword ptr [rip + x.92]
	lea	ecx, [rax - 1]
	imul	ecx, eax
	mov	eax, ecx
	xor	eax, -2
	test	eax, ecx
	sete	byte ptr [rbp - 41]
	mov	eax, dword ptr [rip + y.93]
	cmp	eax, 10
	setl	byte ptr [rbp - 42]
	mov	ecx, -699124405
	mov	r15d, 370475712
	mov	r13d, -406838728
	jmp	.LBB25_1
.LBB25_8:                               
	movzx	eax, byte ptr [rbp - 41]
	movzx	ecx, byte ptr [rbp - 42]
	mov	edx, eax
	xor	dl, cl
	test	cl, cl
	mov	ecx, 1659331114
	cmovne	ecx, r15d
	test	al, al
	mov	eax, 1659331114
	cmove	ecx, eax
	test	dl, dl
	cmovne	ecx, r15d
	.p2align	4, 0x90
.LBB25_1:                               
	cmp	ecx, 370475711
	jg	.LBB25_5

	cmp	ecx, -699124405
	je	.LBB25_8

	cmp	ecx, -406838728
	jne	.LBB25_1
	jmp	.LBB25_4
	.p2align	4, 0x90
.LBB25_5:                               
	cmp	ecx, 370475712
	je	.LBB25_9

	cmp	ecx, 1659331114
	jne	.LBB25_1

	mov	rax, rsp
	lea	rdi, [rax - 16]
	mov	rsp, rdi
	mov	qword ptr [rax - 16], r12
	call	_ZSt19__iterator_categoryIPKiENSt15iterator_traitsIT_E17iterator_categoryERKS3_
	mov	rdi, r12
	mov	rsi, r14
	call	_ZSt10__distanceIPKiENSt15iterator_traitsIT_E15difference_typeES3_S3_St26random_access_iterator_tag
	mov	ecx, 370475712
	jmp	.LBB25_1
.LBB25_9:                               
	mov	rax, rsp
	lea	rdi, [rax - 16]
	mov	rsp, rdi
	mov	qword ptr [rax - 16], r12
	call	_ZSt19__iterator_categoryIPKiENSt15iterator_traitsIT_E17iterator_categoryERKS3_
	mov	rdi, r12
	mov	rsi, r14
	call	_ZSt10__distanceIPKiENSt15iterator_traitsIT_E15difference_typeES3_S3_St26random_access_iterator_tag
	mov	ecx, dword ptr [rip + x.92]
	mov	edi, dword ptr [rip + y.93]
	mov	esi, ecx
	neg	esi
	not	esi
	imul	esi, ecx
	mov	ecx, esi
	xor	ecx, -2
	and	ecx, esi
	sete	bl
	cmp	edi, 10
	setl	dl
	xor	dl, bl
	mov	edx, 1659331114
	cmovne	edx, r13d
	test	ecx, ecx
	mov	ecx, edx
	cmove	ecx, r13d
	cmp	edi, 10
	mov	qword ptr [rbp - 56], rax
	cmovge	ecx, edx
	jmp	.LBB25_1
.LBB25_4:
	mov	rax, qword ptr [rbp - 56]
	lea	rsp, [rbp - 40]
	pop	rbx
	pop	r12
	pop	r13
	pop	r14
	pop	r15
	pop	rbp
	ret
.Lfunc_end25:
	.size	_ZSt8distanceIPKiENSt15iterator_traitsIT_E15difference_typeES3_S3_, .Lfunc_end25-_ZSt8distanceIPKiENSt15iterator_traitsIT_E15difference_typeES3_S3_
	.cfi_endproc

	.section	.text._ZNKSt5arrayIiLm64EE5beginEv,"axG",@progbits,_ZNKSt5arrayIiLm64EE5beginEv,comdat
	.weak	_ZNKSt5arrayIiLm64EE5beginEv 
	.p2align	4, 0x90
	.type	_ZNKSt5arrayIiLm64EE5beginEv,@function
_ZNKSt5arrayIiLm64EE5beginEv:           

	jmp	_ZNKSt5arrayIiLm64EE4dataEv 
.Lfunc_end26:
	.size	_ZNKSt5arrayIiLm64EE5beginEv, .Lfunc_end26-_ZNKSt5arrayIiLm64EE5beginEv

	.section	.text._ZSt4findIPKilET_S2_S2_RKT0_,"axG",@progbits,_ZSt4findIPKilET_S2_S2_RKT0_,comdat
	.weak	_ZSt4findIPKilET_S2_S2_RKT0_ 
	.p2align	4, 0x90
	.type	_ZSt4findIPKilET_S2_S2_RKT0_,@function
_ZSt4findIPKilET_S2_S2_RKT0_:           
	.cfi_startproc

	push	r14
.Lcfi97:
	.cfi_def_cfa_offset 16
	push	rbx
.Lcfi98:
	.cfi_def_cfa_offset 24
	push	rax
.Lcfi99:
	.cfi_def_cfa_offset 32
.Lcfi100:
	.cfi_offset rbx, -24
.Lcfi101:
	.cfi_offset r14, -16
	mov	r14, rsi
	mov	rbx, rdi
	mov	rdi, rdx
	call	_ZN9__gnu_cxx5__ops17__iter_equals_valIKlEENS0_16_Iter_equals_valIT_EERS4_
	mov	rdi, rbx
	mov	rsi, r14
	mov	rdx, rax
	add	rsp, 8
	pop	rbx
	pop	r14
	jmp	_ZSt9__find_ifIPKiN9__gnu_cxx5__ops16_Iter_equals_valIKlEEET_S7_S7_T0_ 
.Lfunc_end27:
	.size	_ZSt4findIPKilET_S2_S2_RKT0_, .Lfunc_end27-_ZSt4findIPKilET_S2_S2_RKT0_
	.cfi_endproc

	.section	.text._ZNKSt5arrayIiLm64EE3endEv,"axG",@progbits,_ZNKSt5arrayIiLm64EE3endEv,comdat
	.weak	_ZNKSt5arrayIiLm64EE3endEv 
	.p2align	4, 0x90
	.type	_ZNKSt5arrayIiLm64EE3endEv,@function
_ZNKSt5arrayIiLm64EE3endEv:             

	push	rax
	call	_ZNKSt5arrayIiLm64EE4dataEv
	add	rax, 256
	pop	rcx
	ret
.Lfunc_end28:
	.size	_ZNKSt5arrayIiLm64EE3endEv, .Lfunc_end28-_ZNKSt5arrayIiLm64EE3endEv

	.section	.text._ZSt8distanceIN9__gnu_cxx17__normal_iteratorIPKcNSt7__cxx1112basic_stringIcSt11char_traitsIcESaIcEEEEEENSt15iterator_traitsIT_E15difference_typeESC_SC_,"axG",@progbits,_ZSt8distanceIN9__gnu_cxx17__normal_iteratorIPKcNSt7__cxx1112basic_stringIcSt11char_traitsIcESaIcEEEEEENSt15iterator_traitsIT_E15difference_typeESC_SC_,comdat
	.weak	_ZSt8distanceIN9__gnu_cxx17__normal_iteratorIPKcNSt7__cxx1112basic_stringIcSt11char_traitsIcESaIcEEEEEENSt15iterator_traitsIT_E15difference_typeESC_SC_ 
	.p2align	4, 0x90
	.type	_ZSt8distanceIN9__gnu_cxx17__normal_iteratorIPKcNSt7__cxx1112basic_stringIcSt11char_traitsIcESaIcEEEEEENSt15iterator_traitsIT_E15difference_typeESC_SC_,@function
_ZSt8distanceIN9__gnu_cxx17__normal_iteratorIPKcNSt7__cxx1112basic_stringIcSt11char_traitsIcESaIcEEEEEENSt15iterator_traitsIT_E15difference_typeESC_SC_: 
	.cfi_startproc

	push	r14
.Lcfi102:
	.cfi_def_cfa_offset 16
	push	rbx
.Lcfi103:
	.cfi_def_cfa_offset 24
	push	rax
.Lcfi104:
	.cfi_def_cfa_offset 32
.Lcfi105:
	.cfi_offset rbx, -24
.Lcfi106:
	.cfi_offset r14, -16
	mov	r14, rsi
	mov	rbx, rdi
	mov	qword ptr [rsp], rbx
	mov	rdi, rsp
	call	_ZSt19__iterator_categoryIN9__gnu_cxx17__normal_iteratorIPKcNSt7__cxx1112basic_stringIcSt11char_traitsIcESaIcEEEEEENSt15iterator_traitsIT_E17iterator_categoryERKSC_
	mov	rdi, rbx
	mov	rsi, r14
	call	_ZSt10__distanceIN9__gnu_cxx17__normal_iteratorIPKcNSt7__cxx1112basic_stringIcSt11char_traitsIcESaIcEEEEEENSt15iterator_traitsIT_E15difference_typeESC_SC_St26random_access_iterator_tag
	add	rsp, 8
	pop	rbx
	pop	r14
	ret
.Lfunc_end29:
	.size	_ZSt8distanceIN9__gnu_cxx17__normal_iteratorIPKcNSt7__cxx1112basic_stringIcSt11char_traitsIcESaIcEEEEEENSt15iterator_traitsIT_E15difference_typeESC_SC_, .Lfunc_end29-_ZSt8distanceIN9__gnu_cxx17__normal_iteratorIPKcNSt7__cxx1112basic_stringIcSt11char_traitsIcESaIcEEEEEENSt15iterator_traitsIT_E15difference_typeESC_SC_
	.cfi_endproc

	.section	.text._ZNSt6bitsetILm64EE3setEmb,"axG",@progbits,_ZNSt6bitsetILm64EE3setEmb,comdat
	.weak	_ZNSt6bitsetILm64EE3setEmb 
	.p2align	4, 0x90
	.type	_ZNSt6bitsetILm64EE3setEmb,@function
_ZNSt6bitsetILm64EE3setEmb:             
	.cfi_startproc

	push	rbp
.Lcfi107:
	.cfi_def_cfa_offset 16
	push	r15
.Lcfi108:
	.cfi_def_cfa_offset 24
	push	r14
.Lcfi109:
	.cfi_def_cfa_offset 32
	push	r13
.Lcfi110:
	.cfi_def_cfa_offset 40
	push	r12
.Lcfi111:
	.cfi_def_cfa_offset 48
	push	rbx
.Lcfi112:
	.cfi_def_cfa_offset 56
	sub	rsp, 24
.Lcfi113:
	.cfi_def_cfa_offset 80
.Lcfi114:
	.cfi_offset rbx, -56
.Lcfi115:
	.cfi_offset r12, -48
.Lcfi116:
	.cfi_offset r13, -40
.Lcfi117:
	.cfi_offset r14, -32
.Lcfi118:
	.cfi_offset r15, -24
.Lcfi119:
	.cfi_offset rbp, -16
	mov	r14, rsi
	mov	rbx, rdi
	mov	eax, dword ptr [rip + x.102]
	mov	ecx, dword ptr [rip + y.103]
	mov	esi, eax
	neg	esi
	not	esi
	imul	esi, eax
	mov	eax, esi
	xor	eax, -2
	test	eax, esi
	sete	byte ptr [rsp + 14]
	cmp	ecx, 10
	setl	byte ptr [rsp + 15]
	movzx	ebp, dl
	mov	eax, -71832023
	mov	r15d, 95839484
	mov	r12d, 2080971042
	mov	r13d, 1158973407
	jmp	.LBB30_1
.LBB30_8:                               
	movzx	ecx, byte ptr [rsp + 14]
	movzx	eax, byte ptr [rsp + 15]
	mov	edx, ecx
	xor	dl, al
	mov	edx, 2080971042
	cmovne	edx, r15d
	test	al, al
	mov	eax, edx
	cmovne	eax, r15d
	test	cl, cl
	cmove	eax, edx
	.p2align	4, 0x90
.LBB30_1:                               
	cmp	eax, 1158973406
	jg	.LBB30_5

	cmp	eax, -71832023
	je	.LBB30_8

	cmp	eax, 95839484
	jne	.LBB30_1

	mov	edx, .L.str.48
	mov	rdi, rbx
	mov	rsi, r14
	call	_ZNKSt6bitsetILm64EE8_M_checkEmPKc
	mov	rdi, rbx
	mov	rsi, r14
	mov	edx, ebp
	call	_ZNSt6bitsetILm64EE14_Unchecked_setEmi
	mov	qword ptr [rsp + 16], rax
	mov	eax, dword ptr [rip + x.102]
	mov	ecx, eax
	neg	ecx
	not	ecx
	imul	ecx, eax
	not	ecx
	or	ecx, -2
	cmp	ecx, -1
	sete	cl
	mov	eax, 2080971042
	cmove	eax, r13d
	cmp	dword ptr [rip + y.103], 10
	setl	dl
	cmovge	eax, r12d
	xor	dl, cl
	cmovne	eax, r13d
	jmp	.LBB30_1
	.p2align	4, 0x90
.LBB30_5:                               
	cmp	eax, 1158973407
	je	.LBB30_9

	cmp	eax, 2080971042
	jne	.LBB30_1

	mov	edx, .L.str.48
	mov	rdi, rbx
	mov	rsi, r14
	call	_ZNKSt6bitsetILm64EE8_M_checkEmPKc
	mov	rdi, rbx
	mov	rsi, r14
	mov	edx, ebp
	call	_ZNSt6bitsetILm64EE14_Unchecked_setEmi
	mov	eax, 95839484
	jmp	.LBB30_1
.LBB30_9:
	mov	rax, qword ptr [rsp + 16]
	add	rsp, 24
	pop	rbx
	pop	r12
	pop	r13
	pop	r14
	pop	r15
	pop	rbp
	ret
.Lfunc_end30:
	.size	_ZNSt6bitsetILm64EE3setEmb, .Lfunc_end30-_ZNSt6bitsetILm64EE3setEmb
	.cfi_endproc

	.section	.text._ZN9__gnu_cxx17__normal_iteratorIPKcNSt7__cxx1112basic_stringIcSt11char_traitsIcESaIcEEEEppEi,"axG",@progbits,_ZN9__gnu_cxx17__normal_iteratorIPKcNSt7__cxx1112basic_stringIcSt11char_traitsIcESaIcEEEEppEi,comdat
	.weak	_ZN9__gnu_cxx17__normal_iteratorIPKcNSt7__cxx1112basic_stringIcSt11char_traitsIcESaIcEEEEppEi 
	.p2align	4, 0x90
	.type	_ZN9__gnu_cxx17__normal_iteratorIPKcNSt7__cxx1112basic_stringIcSt11char_traitsIcESaIcEEEEppEi,@function
_ZN9__gnu_cxx17__normal_iteratorIPKcNSt7__cxx1112basic_stringIcSt11char_traitsIcESaIcEEEEppEi: 

	sub	rsp, 24
	mov	rax, qword ptr [rdi]
	lea	rcx, [rax + 1]
	mov	qword ptr [rdi], rcx
	mov	qword ptr [rsp + 8], rax
	lea	rdi, [rsp + 16]
	lea	rsi, [rsp + 8]
	call	_ZN9__gnu_cxx17__normal_iteratorIPKcNSt7__cxx1112basic_stringIcSt11char_traitsIcESaIcEEEEC2ERKS2_
	mov	rax, qword ptr [rsp + 16]
	add	rsp, 24
	ret
.Lfunc_end31:
	.size	_ZN9__gnu_cxx17__normal_iteratorIPKcNSt7__cxx1112basic_stringIcSt11char_traitsIcESaIcEEEEppEi, .Lfunc_end31-_ZN9__gnu_cxx17__normal_iteratorIPKcNSt7__cxx1112basic_stringIcSt11char_traitsIcESaIcEEEEppEi

	.section	.text._ZNKSt6bitsetILm64EE9to_stringB5cxx11Ev,"axG",@progbits,_ZNKSt6bitsetILm64EE9to_stringB5cxx11Ev,comdat
	.weak	_ZNKSt6bitsetILm64EE9to_stringB5cxx11Ev 
	.p2align	4, 0x90
	.type	_ZNKSt6bitsetILm64EE9to_stringB5cxx11Ev,@function
_ZNKSt6bitsetILm64EE9to_stringB5cxx11Ev: 
	.cfi_startproc

	push	rbx
.Lcfi120:
	.cfi_def_cfa_offset 16
.Lcfi121:
	.cfi_offset rbx, -16
	mov	rbx, rdi
	call	_ZNKSt6bitsetILm64EE9to_stringIcSt11char_traitsIcESaIcEEENSt7__cxx1112basic_stringIT_T0_T1_EEv
	mov	rax, rbx
	pop	rbx
	ret
.Lfunc_end32:
	.size	_ZNKSt6bitsetILm64EE9to_stringB5cxx11Ev, .Lfunc_end32-_ZNKSt6bitsetILm64EE9to_stringB5cxx11Ev
	.cfi_endproc

	.text
	.globl	_ZN3DES10finalPermuERKNSt7__cxx1112basic_stringIcSt11char_traitsIcESaIcEEE 
	.p2align	4, 0x90
	.type	_ZN3DES10finalPermuERKNSt7__cxx1112basic_stringIcSt11char_traitsIcESaIcEEE,@function
_ZN3DES10finalPermuERKNSt7__cxx1112basic_stringIcSt11char_traitsIcESaIcEEE: 
	.cfi_startproc

	push	rbp
.Lcfi122:
	.cfi_def_cfa_offset 16
	push	r15
.Lcfi123:
	.cfi_def_cfa_offset 24
	push	r14
.Lcfi124:
	.cfi_def_cfa_offset 32
	push	r13
.Lcfi125:
	.cfi_def_cfa_offset 40
	push	r12
.Lcfi126:
	.cfi_def_cfa_offset 48
	push	rbx
.Lcfi127:
	.cfi_def_cfa_offset 56
	sub	rsp, 136
.Lcfi128:
	.cfi_def_cfa_offset 192
.Lcfi129:
	.cfi_offset rbx, -56
.Lcfi130:
	.cfi_offset r12, -48
.Lcfi131:
	.cfi_offset r13, -40
.Lcfi132:
	.cfi_offset r14, -32
.Lcfi133:
	.cfi_offset r15, -24
.Lcfi134:
	.cfi_offset rbp, -16
	mov	r12, rsi
	mov	qword ptr [rsp + 72], rdi 
	movabs	rbx, 3297510171167429242
	lea	rax, [rsp + 128]
	mov	qword ptr [rsp + 120], rax
	lea	r15, [rsp + 112]
	mov	qword ptr [rsp + 40], r15
	mov	rax, qword ptr [rsp + 40]
	mov	rdi, r15
	call	_ZNSt6bitsetILm64EEC2Ev
	lea	r13, [rsp + 32]
	mov	qword ptr [rsp + 48], r13
	mov	rax, qword ptr [rsp + 48]
	mov	rdi, r12
	call	_ZNKSt7__cxx1112basic_stringIcSt11char_traitsIcESaIcEE5beginEv
	mov	qword ptr [rsp + 24], rax 
	mov	eax, 1135325082
	lea	rbp, [rsp + 80]
	mov	ecx, 63
	sub	ecx, ebx
	mov	dword ptr [rsp + 12], ecx 
	mov	qword ptr [rsp + 16], r13 
	jmp	.LBB33_1
.LBB33_23:                              
	cmovge	eax, esi
	xor	dl, cl
	cmovne	eax, edi
	.p2align	4, 0x90
.LBB33_1:                               
	cmp	eax, 699070604
	jg	.LBB33_11

	cmp	eax, -1441060521
	jle	.LBB33_3

	cmp	eax, -1441060520
	je	.LBB33_21

	cmp	eax, -662057754
	je	.LBB33_19

	cmp	eax, 412773884
	jne	.LBB33_1

	mov	eax, -1791062199
	jmp	.LBB33_1
	.p2align	4, 0x90
.LBB33_11:                              
	cmp	eax, 1135325081
	jle	.LBB33_12

	cmp	eax, 1789256562
	je	.LBB33_22

	cmp	eax, 1419888573
	je	.LBB33_20

	cmp	eax, 1135325082
	jne	.LBB33_1

	mov	rax, qword ptr [rsp + 24] 
	mov	qword ptr [rsp + 56], rax
	mov	rax, qword ptr [rsp + 16] 
	mov	qword ptr [rsp + 64], rax
	mov	eax, dword ptr [rip + x.108]
	lea	ecx, [rax - 1]
	imul	ecx, eax
	not	ecx
	or	ecx, -2
	cmp	ecx, -1
	sete	cl
	mov	eax, 699070605
	mov	edi, -662057754
	cmove	eax, edi
	cmp	dword ptr [rip + y.109], 10
	setl	dl
	mov	esi, 699070605
	jmp	.LBB33_23
	.p2align	4, 0x90
.LBB33_3:                               
	cmp	eax, -2138386830
	je	.LBB33_24

	cmp	eax, -1791062199
	je	.LBB33_25

	cmp	eax, -1724530338
	jne	.LBB33_1
	jmp	.LBB33_6
	.p2align	4, 0x90
.LBB33_12:                              
	cmp	eax, 699070605
	je	.LBB33_26

	cmp	eax, 957961924
	jne	.LBB33_1

	mov	edi, _ZN3DES21finalPermutationTableE
	call	_ZNKSt5arrayIiLm64EE5beginEv
	mov	r14, rax
	mov	edi, _ZN3DES21finalPermutationTableE
	call	_ZNKSt5arrayIiLm64EE5beginEv
	mov	rbx, rax
	mov	edi, _ZN3DES21finalPermutationTableE
	call	_ZNKSt5arrayIiLm64EE3endEv
	mov	rbp, rax
	mov	rdi, r12
	call	_ZNKSt7__cxx1112basic_stringIcSt11char_traitsIcESaIcEE5beginEv
	mov	rsi, qword ptr [rsp + 32]
	mov	rdi, rax
	call	_ZSt8distanceIN9__gnu_cxx17__normal_iteratorIPKcNSt7__cxx1112basic_stringIcSt11char_traitsIcESaIcEEEEEENSt15iterator_traitsIT_E15difference_typeESC_SC_
	inc	rax
	mov	qword ptr [rsp + 80], rax
	mov	rdi, rbx
	mov	rsi, rbp
	lea	rbp, [rsp + 80]
	mov	rdx, rbp
	call	_ZSt4findIPKilET_S2_S2_RKT0_
	mov	rdi, r14
	mov	rsi, rax
	call	_ZSt8distanceIPKiENSt15iterator_traitsIT_E15difference_typeES3_S3_
	mov	ecx, dword ptr [rsp + 12] 
	sub	ecx, eax
	movabs	rax, 3297510171167429242
	add	ecx, eax
	movsxd	rsi, ecx
	mov	edx, 1
	mov	rdi, r15
	call	_ZNSt6bitsetILm64EE3setEmb
	mov	eax, -2138386830
	jmp	.LBB33_1
.LBB33_21:                              
	mov	rdi, r13
	call	_ZNK9__gnu_cxx17__normal_iteratorIPKcNSt7__cxx1112basic_stringIcSt11char_traitsIcESaIcEEEEdeEv
	cmp	byte ptr [rax], 49
	mov	eax, -1791062199
	mov	ecx, 1789256562
	cmove	eax, ecx
	jmp	.LBB33_1
.LBB33_19:                              
	mov	rax, qword ptr [rsp + 64]
	mov	rcx, qword ptr [rsp + 56]
	mov	qword ptr [rax], rcx
	mov	rdi, r12
	call	_ZNKSt7__cxx1112basic_stringIcSt11char_traitsIcESaIcEE3endEv
	mov	qword ptr [rsp + 80], rax
	mov	rdi, r13
	mov	rsi, rbp
	call	_ZN9__gnu_cxxltIPKcNSt7__cxx1112basic_stringIcSt11char_traitsIcESaIcEEEEEbRKNS_17__normal_iteratorIT_T0_EESE_
	mov	byte ptr [rsp + 11], al
	mov	eax, dword ptr [rip + x.108]
	mov	ecx, dword ptr [rip + y.109]
	mov	edx, eax
	neg	edx
	not	edx
	imul	edx, eax
	mov	eax, edx
	xor	eax, -2
	and	eax, edx
	sete	dl
	cmp	ecx, 10
	setl	bl
	xor	bl, dl
	mov	edx, 699070605
	mov	esi, 1419888573
	cmovne	edx, esi
	test	eax, eax
	mov	eax, edx
	cmove	eax, esi
	cmp	ecx, 10
	cmovge	eax, edx
	jmp	.LBB33_1
.LBB33_22:                              
	mov	eax, dword ptr [rip + x.108]
	lea	ecx, [rax - 1]
	imul	ecx, eax
	not	ecx
	or	ecx, -2
	cmp	ecx, -1
	sete	cl
	mov	eax, 957961924
	mov	edi, -2138386830
	cmove	eax, edi
	cmp	dword ptr [rip + y.109], 10
	setl	dl
	mov	esi, 957961924
	jmp	.LBB33_23
.LBB33_20:                              
	movzx	eax, byte ptr [rsp + 11]
	test	al, al
	mov	eax, -1724530338
	mov	ecx, -1441060520
	cmovne	eax, ecx
	jmp	.LBB33_1
.LBB33_24:                              
	mov	edi, _ZN3DES21finalPermutationTableE
	call	_ZNKSt5arrayIiLm64EE5beginEv
	mov	r14, rax
	mov	edi, _ZN3DES21finalPermutationTableE
	call	_ZNKSt5arrayIiLm64EE5beginEv
	mov	rbx, r15
	mov	r15, rax
	mov	edi, _ZN3DES21finalPermutationTableE
	call	_ZNKSt5arrayIiLm64EE3endEv
	mov	rbp, r13
	mov	r13, rax
	mov	rdi, r12
	call	_ZNKSt7__cxx1112basic_stringIcSt11char_traitsIcESaIcEE5beginEv
	mov	rsi, qword ptr [rsp + 32]
	mov	rdi, rax
	call	_ZSt8distanceIN9__gnu_cxx17__normal_iteratorIPKcNSt7__cxx1112basic_stringIcSt11char_traitsIcESaIcEEEEEENSt15iterator_traitsIT_E15difference_typeESC_SC_
	movabs	rcx, 8613008478569684083
	lea	rax, [rax + rcx + 1]
	sub	rax, rcx
	mov	qword ptr [rsp + 80], rax
	mov	rdi, r15
	mov	r15, rbx
	mov	rsi, r13
	mov	r13, rbp
	lea	rbp, [rsp + 80]
	mov	rdx, rbp
	call	_ZSt4findIPKilET_S2_S2_RKT0_
	mov	rdi, r14
	mov	rsi, rax
	call	_ZSt8distanceIPKiENSt15iterator_traitsIT_E15difference_typeES3_S3_
	movabs	rcx, 6318606794995121655
	mov	rdx, rcx
	lea	ecx, [rdx + 63]
	sub	ecx, eax
	sub	ecx, edx
	movsxd	rsi, ecx
	mov	edx, 1
	mov	rdi, r15
	call	_ZNSt6bitsetILm64EE3setEmb
	mov	eax, dword ptr [rip + x.108]
	mov	ecx, dword ptr [rip + y.109]
	mov	edx, eax
	neg	edx
	not	edx
	imul	edx, eax
	not	edx
	or	edx, -2
	cmp	edx, -1
	sete	al
	cmp	ecx, 10
	setl	bl
	xor	bl, al
	mov	esi, 957961924
	mov	edi, 412773884
	cmovne	esi, edi
	cmp	edx, -1
	mov	eax, esi
	cmove	eax, edi
	cmp	ecx, 10
	cmovge	eax, esi
	jmp	.LBB33_1
.LBB33_25:                              
	xor	esi, esi
	mov	rdi, r13
	call	_ZN9__gnu_cxx17__normal_iteratorIPKcNSt7__cxx1112basic_stringIcSt11char_traitsIcESaIcEEEEppEi
	mov	qword ptr [rsp + 24], rax 
	mov	rax, qword ptr [rsp + 120]
	mov	qword ptr [rsp + 16], rax 
	mov	eax, 1135325082
	jmp	.LBB33_1
.LBB33_26:                              
	mov	rax, qword ptr [rsp + 64]
	mov	rcx, qword ptr [rsp + 56]
	mov	qword ptr [rax], rcx
	mov	rdi, r12
	call	_ZNKSt7__cxx1112basic_stringIcSt11char_traitsIcESaIcEE3endEv
	mov	qword ptr [rsp + 80], rax
	mov	rdi, r13
	mov	rsi, rbp
	call	_ZN9__gnu_cxxltIPKcNSt7__cxx1112basic_stringIcSt11char_traitsIcESaIcEEEEEbRKNS_17__normal_iteratorIT_T0_EESE_
	mov	eax, -662057754
	jmp	.LBB33_1
.LBB33_6:
	mov	rax, qword ptr [rsp + 48]
	lea	rbx, [rsp + 80]
	lea	rsi, [rsp + 112]
	mov	rdi, rbx
	call	_ZNKSt6bitsetILm64EE9to_stringB5cxx11Ev
	mov	rdi, qword ptr [rsp + 72] 
	add	rdi, 40
	mov	rsi, rbx
	call	_ZNSt7__cxx1112basic_stringIcSt11char_traitsIcESaIcEEaSEOS4_
	mov	rdi, rbx
	call	_ZNSt7__cxx1112basic_stringIcSt11char_traitsIcESaIcEED2Ev
	mov	rax, qword ptr [rsp + 40]
	add	rsp, 136
	pop	rbx
	pop	r12
	pop	r13
	pop	r14
	pop	r15
	pop	rbp
	ret
.Lfunc_end33:
	.size	_ZN3DES10finalPermuERKNSt7__cxx1112basic_stringIcSt11char_traitsIcESaIcEEE, .Lfunc_end33-_ZN3DES10finalPermuERKNSt7__cxx1112basic_stringIcSt11char_traitsIcESaIcEEE
	.cfi_endproc

	.globl	_ZN3DES14expansionPermuERKNSt7__cxx1112basic_stringIcSt11char_traitsIcESaIcEEE 
	.p2align	4, 0x90
	.type	_ZN3DES14expansionPermuERKNSt7__cxx1112basic_stringIcSt11char_traitsIcESaIcEEE,@function
_ZN3DES14expansionPermuERKNSt7__cxx1112basic_stringIcSt11char_traitsIcESaIcEEE: 
.Lfunc_begin5:
	.cfi_startproc
	.cfi_personality 3, __gxx_personality_v0
	.cfi_lsda 3, .Lexception5

	push	rbp
.Lcfi135:
	.cfi_def_cfa_offset 16
	push	r15
.Lcfi136:
	.cfi_def_cfa_offset 24
	push	r14
.Lcfi137:
	.cfi_def_cfa_offset 32
	push	r13
.Lcfi138:
	.cfi_def_cfa_offset 40
	push	r12
.Lcfi139:
	.cfi_def_cfa_offset 48
	push	rbx
.Lcfi140:
	.cfi_def_cfa_offset 56
	sub	rsp, 40
.Lcfi141:
	.cfi_def_cfa_offset 96
.Lcfi142:
	.cfi_offset rbx, -56
.Lcfi143:
	.cfi_offset r12, -48
.Lcfi144:
	.cfi_offset r13, -40
.Lcfi145:
	.cfi_offset r14, -32
.Lcfi146:
	.cfi_offset r15, -24
.Lcfi147:
	.cfi_offset rbp, -16
	mov	r12, rsi
	mov	r14, rdi
	mov	rdi, r12
	call	_ZNKSt7__cxx1112basic_stringIcSt11char_traitsIcESaIcEE6lengthEv
	cmp	rax, 32
	jne	.LBB34_9

	movabs	r13, 3293885532693171335
	lea	r15, [rsp + 8]
	mov	rdi, r15
	call	_ZNSt7__cxx1112basic_stringIcSt11char_traitsIcESaIcEEC2Ev
	mov	rbx, -1
	xor	ebp, ebp
	.p2align	4, 0x90
.LBB34_2:                               
	inc	rbx
.Ltmp71:
	mov	edi, _ZN3DES25expansionPermutationTalbeE
	mov	rsi, rbx
	call	_ZNKSt5arrayIiLm48EE2atEm
.Ltmp72:

	mov	eax, dword ptr [rax]
	dec	eax
	movsxd	rsi, eax
	mov	rdi, r12
	call	_ZNKSt7__cxx1112basic_stringIcSt11char_traitsIcESaIcEEixEm
	movsx	esi, byte ptr [rax]
.Ltmp73:
	mov	rdi, r15
	call	_ZNSt7__cxx1112basic_stringIcSt11char_traitsIcESaIcEEpLEc
.Ltmp74:

	lea	rbp, [rbp + r13 + 1]
	sub	rbp, r13
	cmp	rbx, 47
	jb	.LBB34_2

	add	r14, 392
.Ltmp76:
	lea	rsi, [rsp + 8]
	mov	rdi, r14
	call	_ZNSt7__cxx1112basic_stringIcSt11char_traitsIcESaIcEEaSERKS4_
.Ltmp77:

	lea	rdi, [rsp + 8]
	call	_ZNSt7__cxx1112basic_stringIcSt11char_traitsIcESaIcEED2Ev
	add	rsp, 40
	pop	rbx
	pop	r12
	pop	r13
	pop	r14
	pop	r15
	pop	rbp
	ret
.LBB34_9:
	mov	edi, _ZSt4cout
	mov	esi, .L.str
	call	_ZStlsISt11char_traitsIcEERSt13basic_ostreamIcT_ES5_PKc
	xor	edi, edi
	call	exit
.LBB34_7:
.Ltmp78:
	jmp	.LBB34_8
.LBB34_10:
.Ltmp75:
.LBB34_8:
	mov	rbx, rax
	lea	rdi, [rsp + 8]
	call	_ZNSt7__cxx1112basic_stringIcSt11char_traitsIcESaIcEED2Ev
	mov	rdi, rbx
	call	_Unwind_Resume
.Lfunc_end34:
	.size	_ZN3DES14expansionPermuERKNSt7__cxx1112basic_stringIcSt11char_traitsIcESaIcEEE, .Lfunc_end34-_ZN3DES14expansionPermuERKNSt7__cxx1112basic_stringIcSt11char_traitsIcESaIcEEE
	.cfi_endproc
	.section	.gcc_except_table,"a",@progbits
	.p2align	2
GCC_except_table34:
.Lexception5:
	.byte	255                     
	.byte	3                       
	.byte	41                      
	.byte	3                       
	.byte	39                      
	.long	.Ltmp71-.Lfunc_begin5   
	.long	.Ltmp74-.Ltmp71         
	.long	.Ltmp75-.Lfunc_begin5   
	.byte	0                       
	.long	.Ltmp76-.Lfunc_begin5   
	.long	.Ltmp77-.Ltmp76         
	.long	.Ltmp78-.Lfunc_begin5   
	.byte	0                       
	.long	.Ltmp77-.Lfunc_begin5   
	.long	.Lfunc_end34-.Ltmp77    
	.long	0                       
	.byte	0                       
	.p2align	2

	.section	.text._ZNKSt7__cxx1112basic_stringIcSt11char_traitsIcESaIcEE6lengthEv,"axG",@progbits,_ZNKSt7__cxx1112basic_stringIcSt11char_traitsIcESaIcEE6lengthEv,comdat
	.weak	_ZNKSt7__cxx1112basic_stringIcSt11char_traitsIcESaIcEE6lengthEv 
	.p2align	4, 0x90
	.type	_ZNKSt7__cxx1112basic_stringIcSt11char_traitsIcESaIcEE6lengthEv,@function
_ZNKSt7__cxx1112basic_stringIcSt11char_traitsIcESaIcEE6lengthEv: 

	mov	rax, qword ptr [rdi + 8]
	ret
.Lfunc_end35:
	.size	_ZNKSt7__cxx1112basic_stringIcSt11char_traitsIcESaIcEE6lengthEv, .Lfunc_end35-_ZNKSt7__cxx1112basic_stringIcSt11char_traitsIcESaIcEE6lengthEv

	.section	.text._ZNKSt7__cxx1112basic_stringIcSt11char_traitsIcESaIcEEixEm,"axG",@progbits,_ZNKSt7__cxx1112basic_stringIcSt11char_traitsIcESaIcEEixEm,comdat
	.weak	_ZNKSt7__cxx1112basic_stringIcSt11char_traitsIcESaIcEEixEm 
	.p2align	4, 0x90
	.type	_ZNKSt7__cxx1112basic_stringIcSt11char_traitsIcESaIcEEixEm,@function
_ZNKSt7__cxx1112basic_stringIcSt11char_traitsIcESaIcEEixEm: 

	push	rbx
	mov	rbx, rsi
	call	_ZNKSt7__cxx1112basic_stringIcSt11char_traitsIcESaIcEE7_M_dataEv
	add	rax, rbx
	pop	rbx
	ret
.Lfunc_end36:
	.size	_ZNKSt7__cxx1112basic_stringIcSt11char_traitsIcESaIcEEixEm, .Lfunc_end36-_ZNKSt7__cxx1112basic_stringIcSt11char_traitsIcESaIcEEixEm

	.section	.text._ZNKSt5arrayIiLm48EE2atEm,"axG",@progbits,_ZNKSt5arrayIiLm48EE2atEm,comdat
	.weak	_ZNKSt5arrayIiLm48EE2atEm 
	.p2align	4, 0x90
	.type	_ZNKSt5arrayIiLm48EE2atEm,@function
_ZNKSt5arrayIiLm48EE2atEm:              
	.cfi_startproc

	push	rax
.Lcfi148:
	.cfi_def_cfa_offset 16
	cmp	rsi, 48
	mov	ecx, -888290456
	mov	eax, -962544399
	cmovb	eax, ecx
	mov	ecx, -1329980635
	jmp	.LBB37_1
	.p2align	4, 0x90
.LBB37_2:                               
	mov	ecx, eax
.LBB37_1:                               
	mov	edx, ecx
	and	edx, 2147483647
	cmp	edx, 817503013
	je	.LBB37_2

	cmp	edx, 1259193192
	je	.LBB37_6

	cmp	edx, 1184939249
	jne	.LBB37_1

	mov	edi, .L.str.40
	mov	edx, 48
	xor	eax, eax
	call	_ZSt24__throw_out_of_range_fmtPKcz
.LBB37_6:
	pop	rax
	jmp	_ZNSt14__array_traitsIiLm48EE6_S_refERA48_Kim 
.Lfunc_end37:
	.size	_ZNKSt5arrayIiLm48EE2atEm, .Lfunc_end37-_ZNKSt5arrayIiLm48EE2atEm
	.cfi_endproc

	.section	.text._ZNSt7__cxx1112basic_stringIcSt11char_traitsIcESaIcEEpLEc,"axG",@progbits,_ZNSt7__cxx1112basic_stringIcSt11char_traitsIcESaIcEEpLEc,comdat
	.weak	_ZNSt7__cxx1112basic_stringIcSt11char_traitsIcESaIcEEpLEc 
	.p2align	4, 0x90
	.type	_ZNSt7__cxx1112basic_stringIcSt11char_traitsIcESaIcEEpLEc,@function
_ZNSt7__cxx1112basic_stringIcSt11char_traitsIcESaIcEEpLEc: 
	.cfi_startproc

	push	rbx
.Lcfi149:
	.cfi_def_cfa_offset 16
.Lcfi150:
	.cfi_offset rbx, -16
	mov	rbx, rdi
	call	_ZNSt7__cxx1112basic_stringIcSt11char_traitsIcESaIcEE9push_backEc
	mov	rax, rbx
	pop	rbx
	ret
.Lfunc_end38:
	.size	_ZNSt7__cxx1112basic_stringIcSt11char_traitsIcESaIcEEpLEc, .Lfunc_end38-_ZNSt7__cxx1112basic_stringIcSt11char_traitsIcESaIcEEpLEc
	.cfi_endproc

	.text
	.globl	_ZN3DES9shiftLeftERNSt7__cxx1112basic_stringIcSt11char_traitsIcESaIcEEEi 
	.p2align	4, 0x90
	.type	_ZN3DES9shiftLeftERNSt7__cxx1112basic_stringIcSt11char_traitsIcESaIcEEEi,@function
_ZN3DES9shiftLeftERNSt7__cxx1112basic_stringIcSt11char_traitsIcESaIcEEEi: 
	.cfi_startproc

	push	rbp
.Lcfi151:
	.cfi_def_cfa_offset 16
	push	r15
.Lcfi152:
	.cfi_def_cfa_offset 24
	push	r14
.Lcfi153:
	.cfi_def_cfa_offset 32
	push	r13
.Lcfi154:
	.cfi_def_cfa_offset 40
	push	r12
.Lcfi155:
	.cfi_def_cfa_offset 48
	push	rbx
.Lcfi156:
	.cfi_def_cfa_offset 56
	sub	rsp, 24
.Lcfi157:
	.cfi_def_cfa_offset 80
.Lcfi158:
	.cfi_offset rbx, -56
.Lcfi159:
	.cfi_offset r12, -48
.Lcfi160:
	.cfi_offset r13, -40
.Lcfi161:
	.cfi_offset r14, -32
.Lcfi162:
	.cfi_offset r15, -24
.Lcfi163:
	.cfi_offset rbp, -16
	mov	r14d, edx
	mov	r13, rsi
	mov	rdi, r13
	call	_ZNKSt7__cxx1112basic_stringIcSt11char_traitsIcESaIcEE6lengthEv
	mov	dword ptr [rsp + 12], eax
	movsxd	r12, r14d
	mov	eax, 461516085
	lea	r15, [rsp + 16]
	jmp	.LBB39_1
.LBB39_13:                              
	mov	eax, dword ptr [rsp + 12]
	cmp	eax, r14d
	mov	eax, -1826489608
	mov	ecx, -449178996
	cmovl	eax, ecx
	.p2align	4, 0x90
.LBB39_1:                               
	cmp	eax, -449178997
	jg	.LBB39_6

	cmp	eax, -1826489608
	je	.LBB39_10

	cmp	eax, -1161825957
	je	.LBB39_11

	cmp	eax, -751191353
	jne	.LBB39_1

	mov	rdi, r13
	call	_ZNSt7__cxx1112basic_stringIcSt11char_traitsIcESaIcEE5beginEv
	mov	rbp, rax
	mov	rdi, r13
	call	_ZNSt7__cxx1112basic_stringIcSt11char_traitsIcESaIcEE5beginEv
	mov	qword ptr [rsp + 16], rax
	mov	rdi, r15
	mov	rsi, r12
	call	_ZNK9__gnu_cxx17__normal_iteratorIPcNSt7__cxx1112basic_stringIcSt11char_traitsIcESaIcEEEEplEl
	mov	rbx, rax
	mov	rdi, r13
	call	_ZNSt7__cxx1112basic_stringIcSt11char_traitsIcESaIcEE3endEv
	mov	rdi, rbp
	mov	rsi, rbx
	mov	rdx, rax
	call	_ZNSt3_V26rotateIN9__gnu_cxx17__normal_iteratorIPcNSt7__cxx1112basic_stringIcSt11char_traitsIcESaIcEEEEEEET_SB_SB_SB_
	mov	eax, dword ptr [rip + x.118]
	mov	ecx, dword ptr [rip + y.119]
	mov	edx, eax
	neg	edx
	not	edx
	imul	edx, eax
	not	edx
	or	edx, -2
	cmp	edx, -1
	sete	al
	cmp	ecx, 10
	setl	bl
	xor	bl, al
	mov	esi, 1551660892
	mov	edi, -1161825957
	cmovne	esi, edi
	cmp	edx, -1
	mov	eax, esi
	cmove	eax, edi
	cmp	ecx, 10
	cmovge	eax, esi
	jmp	.LBB39_1
	.p2align	4, 0x90
.LBB39_6:                               
	cmp	eax, 461516085
	je	.LBB39_13

	cmp	eax, 1551660892
	jne	.LBB39_8

	mov	rdi, r13
	call	_ZNSt7__cxx1112basic_stringIcSt11char_traitsIcESaIcEE5beginEv
	mov	rbx, rax
	mov	rdi, r13
	call	_ZNSt7__cxx1112basic_stringIcSt11char_traitsIcESaIcEE5beginEv
	mov	qword ptr [rsp + 16], rax
	mov	rdi, r15
	mov	rsi, r12
	call	_ZNK9__gnu_cxx17__normal_iteratorIPcNSt7__cxx1112basic_stringIcSt11char_traitsIcESaIcEEEEplEl
	mov	rbp, rax
	mov	rdi, r13
	call	_ZNSt7__cxx1112basic_stringIcSt11char_traitsIcESaIcEE3endEv
	mov	rdi, rbx
	mov	rsi, rbp
	mov	rdx, rax
	call	_ZNSt3_V26rotateIN9__gnu_cxx17__normal_iteratorIPcNSt7__cxx1112basic_stringIcSt11char_traitsIcESaIcEEEEEEET_SB_SB_SB_
	mov	eax, -751191353
	jmp	.LBB39_1
.LBB39_10:                              
	mov	eax, dword ptr [rip + x.118]
	lea	ecx, [rax - 1]
	imul	ecx, eax
	mov	eax, ecx
	xor	eax, -2
	and	eax, ecx
	sete	cl
	test	eax, eax
	mov	eax, 1551660892
	mov	esi, -751191353
	cmove	eax, esi
	cmp	dword ptr [rip + y.119], 10
	setl	dl
	mov	edi, 1551660892
	cmovge	eax, edi
	xor	dl, cl
	cmovne	eax, esi
	jmp	.LBB39_1
.LBB39_8:                               
	cmp	eax, -449178996
	jne	.LBB39_1

	mov	edi, _ZSt4cout
	mov	esi, .L.str.1
	call	_ZStlsISt11char_traitsIcEERSt13basic_ostreamIcT_ES5_PKc
	mov	esi, _ZSt4endlIcSt11char_traitsIcEERSt13basic_ostreamIT_T0_ES6_
	mov	rdi, rax
	call	_ZNSolsEPFRSoS_E
	xor	edi, edi
	call	exit
.LBB39_11:
	add	rsp, 24
	pop	rbx
	pop	r12
	pop	r13
	pop	r14
	pop	r15
	pop	rbp
	ret
.Lfunc_end39:
	.size	_ZN3DES9shiftLeftERNSt7__cxx1112basic_stringIcSt11char_traitsIcESaIcEEEi, .Lfunc_end39-_ZN3DES9shiftLeftERNSt7__cxx1112basic_stringIcSt11char_traitsIcESaIcEEEi
	.cfi_endproc

	.section	.text._ZNSt3_V26rotateIN9__gnu_cxx17__normal_iteratorIPcNSt7__cxx1112basic_stringIcSt11char_traitsIcESaIcEEEEEEET_SB_SB_SB_,"axG",@progbits,_ZNSt3_V26rotateIN9__gnu_cxx17__normal_iteratorIPcNSt7__cxx1112basic_stringIcSt11char_traitsIcESaIcEEEEEEET_SB_SB_SB_,comdat
	.weak	_ZNSt3_V26rotateIN9__gnu_cxx17__normal_iteratorIPcNSt7__cxx1112basic_stringIcSt11char_traitsIcESaIcEEEEEEET_SB_SB_SB_ 
	.p2align	4, 0x90
	.type	_ZNSt3_V26rotateIN9__gnu_cxx17__normal_iteratorIPcNSt7__cxx1112basic_stringIcSt11char_traitsIcESaIcEEEEEEET_SB_SB_SB_,@function
_ZNSt3_V26rotateIN9__gnu_cxx17__normal_iteratorIPcNSt7__cxx1112basic_stringIcSt11char_traitsIcESaIcEEEEEEET_SB_SB_SB_: 
	.cfi_startproc

	push	r15
.Lcfi164:
	.cfi_def_cfa_offset 16
	push	r14
.Lcfi165:
	.cfi_def_cfa_offset 24
	push	rbx
.Lcfi166:
	.cfi_def_cfa_offset 32
	sub	rsp, 16
.Lcfi167:
	.cfi_def_cfa_offset 48
.Lcfi168:
	.cfi_offset rbx, -32
.Lcfi169:
	.cfi_offset r14, -24
.Lcfi170:
	.cfi_offset r15, -16
	mov	r14, rdx
	mov	r15, rsi
	mov	rbx, rdi
	mov	qword ptr [rsp + 8], rbx
	lea	rdi, [rsp + 8]
	call	_ZSt19__iterator_categoryIN9__gnu_cxx17__normal_iteratorIPcNSt7__cxx1112basic_stringIcSt11char_traitsIcESaIcEEEEEENSt15iterator_traitsIT_E17iterator_categoryERKSB_
	mov	rdi, rbx
	mov	rsi, r15
	mov	rdx, r14
	call	_ZNSt3_V28__rotateIN9__gnu_cxx17__normal_iteratorIPcNSt7__cxx1112basic_stringIcSt11char_traitsIcESaIcEEEEEEET_SB_SB_SB_St26random_access_iterator_tag
	add	rsp, 16
	pop	rbx
	pop	r14
	pop	r15
	ret
.Lfunc_end40:
	.size	_ZNSt3_V26rotateIN9__gnu_cxx17__normal_iteratorIPcNSt7__cxx1112basic_stringIcSt11char_traitsIcESaIcEEEEEEET_SB_SB_SB_, .Lfunc_end40-_ZNSt3_V26rotateIN9__gnu_cxx17__normal_iteratorIPcNSt7__cxx1112basic_stringIcSt11char_traitsIcESaIcEEEEEEET_SB_SB_SB_
	.cfi_endproc

	.section	.text._ZNSt7__cxx1112basic_stringIcSt11char_traitsIcESaIcEE5beginEv,"axG",@progbits,_ZNSt7__cxx1112basic_stringIcSt11char_traitsIcESaIcEE5beginEv,comdat
	.weak	_ZNSt7__cxx1112basic_stringIcSt11char_traitsIcESaIcEE5beginEv 
	.p2align	4, 0x90
	.type	_ZNSt7__cxx1112basic_stringIcSt11char_traitsIcESaIcEE5beginEv,@function
_ZNSt7__cxx1112basic_stringIcSt11char_traitsIcESaIcEE5beginEv: 

	sub	rsp, 24
	call	_ZNKSt7__cxx1112basic_stringIcSt11char_traitsIcESaIcEE7_M_dataEv
	mov	qword ptr [rsp + 8], rax
	lea	rdi, [rsp + 16]
	lea	rsi, [rsp + 8]
	call	_ZN9__gnu_cxx17__normal_iteratorIPcNSt7__cxx1112basic_stringIcSt11char_traitsIcESaIcEEEEC2ERKS1_
	mov	rax, qword ptr [rsp + 16]
	add	rsp, 24
	ret
.Lfunc_end41:
	.size	_ZNSt7__cxx1112basic_stringIcSt11char_traitsIcESaIcEE5beginEv, .Lfunc_end41-_ZNSt7__cxx1112basic_stringIcSt11char_traitsIcESaIcEE5beginEv

	.section	.text._ZNK9__gnu_cxx17__normal_iteratorIPcNSt7__cxx1112basic_stringIcSt11char_traitsIcESaIcEEEEplEl,"axG",@progbits,_ZNK9__gnu_cxx17__normal_iteratorIPcNSt7__cxx1112basic_stringIcSt11char_traitsIcESaIcEEEEplEl,comdat
	.weak	_ZNK9__gnu_cxx17__normal_iteratorIPcNSt7__cxx1112basic_stringIcSt11char_traitsIcESaIcEEEEplEl 
	.p2align	4, 0x90
	.type	_ZNK9__gnu_cxx17__normal_iteratorIPcNSt7__cxx1112basic_stringIcSt11char_traitsIcESaIcEEEEplEl,@function
_ZNK9__gnu_cxx17__normal_iteratorIPcNSt7__cxx1112basic_stringIcSt11char_traitsIcESaIcEEEEplEl: 

	push	rbp
	mov	rbp, rsp
	push	r15
	push	r14
	push	r13
	push	r12
	push	rbx
	sub	rsp, 24
	mov	r14, rsi
	mov	r15, rdi
	mov	eax, dword ptr [rip + x.124]
	lea	ecx, [rax - 1]
	imul	ecx, eax
	mov	eax, ecx
	xor	eax, -2
	test	eax, ecx
	sete	byte ptr [rbp - 41]
	mov	eax, dword ptr [rip + y.125]
	cmp	eax, 10
	setl	byte ptr [rbp - 42]
	mov	eax, -1691521259
	mov	r13d, 743423255
	jmp	.LBB42_1
.LBB42_4:                               
	movzx	ecx, byte ptr [rbp - 41]
	movzx	eax, byte ptr [rbp - 42]
	mov	edx, ecx
	xor	dl, al
	test	al, al
	mov	eax, -1817636416
	mov	esi, -384265853
	cmovne	eax, esi
	test	cl, cl
	mov	ecx, -1817636416
	cmove	eax, ecx
	test	dl, dl
	cmovne	eax, esi
	.p2align	4, 0x90
.LBB42_1:                               
	cmp	eax, -384265854
	jle	.LBB42_2

	cmp	eax, -384265853
	je	.LBB42_9

	cmp	eax, 743423255
	jne	.LBB42_1
	jmp	.LBB42_7
	.p2align	4, 0x90
.LBB42_2:                               
	cmp	eax, -1817636416
	je	.LBB42_8

	cmp	eax, -1691521259
	jne	.LBB42_1
	jmp	.LBB42_4
.LBB42_9:                               
	mov	r12, rsp
	lea	rdi, [r12 - 16]
	mov	rsp, rdi
	mov	rax, rsp
	lea	rsi, [rax - 16]
	mov	rsp, rsi
	mov	rcx, qword ptr [r15]
	add	rcx, r14
	mov	qword ptr [rax - 16], rcx
	call	_ZN9__gnu_cxx17__normal_iteratorIPcNSt7__cxx1112basic_stringIcSt11char_traitsIcESaIcEEEEC2ERKS1_
	mov	eax, dword ptr [rip + x.124]
	mov	ecx, dword ptr [rip + y.125]
	lea	edx, [rax - 1]
	imul	edx, eax
	not	edx
	or	edx, -2
	cmp	edx, -1
	sete	al
	cmp	ecx, 10
	setl	bl
	xor	bl, al
	mov	esi, -1817636416
	cmovne	esi, r13d
	cmp	edx, -1
	mov	eax, esi
	cmove	eax, r13d
	cmp	ecx, 10
	mov	rcx, qword ptr [r12 - 16]
	mov	qword ptr [rbp - 56], rcx
	cmovge	eax, esi
	jmp	.LBB42_1
.LBB42_8:                               
	mov	rdi, rsp
	add	rdi, -16
	mov	rsp, rdi
	mov	rax, rsp
	lea	rsi, [rax - 16]
	mov	rsp, rsi
	mov	rcx, qword ptr [r15]
	add	rcx, r14
	mov	qword ptr [rax - 16], rcx
	call	_ZN9__gnu_cxx17__normal_iteratorIPcNSt7__cxx1112basic_stringIcSt11char_traitsIcESaIcEEEEC2ERKS1_
	mov	eax, -384265853
	jmp	.LBB42_1
.LBB42_7:
	mov	rax, qword ptr [rbp - 56]
	lea	rsp, [rbp - 40]
	pop	rbx
	pop	r12
	pop	r13
	pop	r14
	pop	r15
	pop	rbp
	ret
.Lfunc_end42:
	.size	_ZNK9__gnu_cxx17__normal_iteratorIPcNSt7__cxx1112basic_stringIcSt11char_traitsIcESaIcEEEEplEl, .Lfunc_end42-_ZNK9__gnu_cxx17__normal_iteratorIPcNSt7__cxx1112basic_stringIcSt11char_traitsIcESaIcEEEEplEl

	.section	.text._ZNSt7__cxx1112basic_stringIcSt11char_traitsIcESaIcEE3endEv,"axG",@progbits,_ZNSt7__cxx1112basic_stringIcSt11char_traitsIcESaIcEE3endEv,comdat
	.weak	_ZNSt7__cxx1112basic_stringIcSt11char_traitsIcESaIcEE3endEv 
	.p2align	4, 0x90
	.type	_ZNSt7__cxx1112basic_stringIcSt11char_traitsIcESaIcEE3endEv,@function
_ZNSt7__cxx1112basic_stringIcSt11char_traitsIcESaIcEE3endEv: 

	push	rbp
	mov	rbp, rsp
	push	r15
	push	r14
	push	r13
	push	r12
	push	rbx
	sub	rsp, 40
	mov	qword ptr [rbp - 56], rdi 
	mov	eax, dword ptr [rip + x.126]
	mov	ecx, eax
	neg	ecx
	not	ecx
	imul	ecx, eax
	not	ecx
	or	ecx, -2
	cmp	ecx, -1
	sete	byte ptr [rbp - 41]
	mov	eax, dword ptr [rip + y.127]
	cmp	eax, 10
	setl	byte ptr [rbp - 42]
	mov	eax, -410631093
	jmp	.LBB43_1
.LBB43_9:                               
	movzx	ecx, byte ptr [rbp - 41]
	movzx	eax, byte ptr [rbp - 42]
	mov	edx, ecx
	xor	dl, al
	mov	edx, -15012405
	mov	esi, 695290085
	cmovne	edx, esi
	test	al, al
	mov	eax, edx
	cmovne	eax, esi
	test	cl, cl
	cmove	eax, edx
	.p2align	4, 0x90
.LBB43_1:                               
	cmp	eax, 613104874
	jg	.LBB43_5

	cmp	eax, -410631093
	je	.LBB43_9

	cmp	eax, -15012405
	jne	.LBB43_1

	mov	rbx, rsp
	add	rbx, -16
	mov	rsp, rbx
	mov	r14, rsp
	lea	r15, [r14 - 16]
	mov	rsp, r15
	mov	r13, qword ptr [rbp - 56] 
	mov	rdi, r13
	call	_ZNKSt7__cxx1112basic_stringIcSt11char_traitsIcESaIcEE7_M_dataEv
	mov	r12, rax
	mov	rdi, r13
	call	_ZNKSt7__cxx1112basic_stringIcSt11char_traitsIcESaIcEE4sizeEv
	add	rax, r12
	mov	qword ptr [r14 - 16], rax
	mov	rdi, rbx
	mov	rsi, r15
	call	_ZN9__gnu_cxx17__normal_iteratorIPcNSt7__cxx1112basic_stringIcSt11char_traitsIcESaIcEEEEC2ERKS1_
	mov	eax, 695290085
	jmp	.LBB43_1
	.p2align	4, 0x90
.LBB43_5:                               
	cmp	eax, 613104875
	je	.LBB43_8

	cmp	eax, 695290085
	jne	.LBB43_1

	mov	rax, rsp
	mov	qword ptr [rbp - 64], rax 
	lea	r15, [rax - 16]
	mov	rsp, r15
	mov	r14, rsp
	lea	rbx, [r14 - 16]
	mov	rsp, rbx
	mov	r13, qword ptr [rbp - 56] 
	mov	rdi, r13
	call	_ZNKSt7__cxx1112basic_stringIcSt11char_traitsIcESaIcEE7_M_dataEv
	mov	r12, rax
	mov	rdi, r13
	call	_ZNKSt7__cxx1112basic_stringIcSt11char_traitsIcESaIcEE4sizeEv
	add	rax, r12
	mov	qword ptr [r14 - 16], rax
	mov	rdi, r15
	mov	rsi, rbx
	call	_ZN9__gnu_cxx17__normal_iteratorIPcNSt7__cxx1112basic_stringIcSt11char_traitsIcESaIcEEEEC2ERKS1_
	mov	rax, qword ptr [rbp - 64] 
	mov	rax, qword ptr [rax - 16]
	mov	qword ptr [rbp - 72], rax
	mov	eax, dword ptr [rip + x.126]
	mov	ecx, eax
	neg	ecx
	not	ecx
	imul	ecx, eax
	mov	eax, ecx
	xor	eax, -2
	and	eax, ecx
	sete	cl
	test	eax, eax
	mov	eax, -15012405
	mov	edi, 613104875
	cmove	eax, edi
	cmp	dword ptr [rip + y.127], 10
	setl	dl
	mov	esi, -15012405
	cmovge	eax, esi
	xor	dl, cl
	cmovne	eax, edi
	jmp	.LBB43_1
.LBB43_8:
	mov	rax, qword ptr [rbp - 72]
	lea	rsp, [rbp - 40]
	pop	rbx
	pop	r12
	pop	r13
	pop	r14
	pop	r15
	pop	rbp
	ret
.Lfunc_end43:
	.size	_ZNSt7__cxx1112basic_stringIcSt11char_traitsIcESaIcEE3endEv, .Lfunc_end43-_ZNSt7__cxx1112basic_stringIcSt11char_traitsIcESaIcEE3endEv

	.text
	.globl	_ZN3DES6keygenERKNSt7__cxx1112basic_stringIcSt11char_traitsIcESaIcEEEi 
	.p2align	4, 0x90
	.type	_ZN3DES6keygenERKNSt7__cxx1112basic_stringIcSt11char_traitsIcESaIcEEEi,@function
_ZN3DES6keygenERKNSt7__cxx1112basic_stringIcSt11char_traitsIcESaIcEEEi: 
	.cfi_startproc

	push	rbp
.Lcfi171:
	.cfi_def_cfa_offset 16
	push	r15
.Lcfi172:
	.cfi_def_cfa_offset 24
	push	r14
.Lcfi173:
	.cfi_def_cfa_offset 32
	push	r13
.Lcfi174:
	.cfi_def_cfa_offset 40
	push	r12
.Lcfi175:
	.cfi_def_cfa_offset 48
	push	rbx
.Lcfi176:
	.cfi_def_cfa_offset 56
	sub	rsp, 72
.Lcfi177:
	.cfi_def_cfa_offset 128
.Lcfi178:
	.cfi_offset rbx, -56
.Lcfi179:
	.cfi_offset r12, -48
.Lcfi180:
	.cfi_offset r13, -40
.Lcfi181:
	.cfi_offset r14, -32
.Lcfi182:
	.cfi_offset r15, -24
.Lcfi183:
	.cfi_offset rbp, -16
	mov	r15d, edx
	mov	qword ptr [rsp + 32], rsi 
	lea	r14, [rdi + 232]
	lea	rbp, [rdi + 136]
	mov	qword ptr [rsp + 16], rdi 
	lea	r13, [rdi + 168]
	mov	eax, -204822423
	lea	r12, [rsp + 40]
	jmp	.LBB44_1
.LBB44_28:                              
	mov	rsi, r13
	call	_ZN3DES9shiftLeftERNSt7__cxx1112basic_stringIcSt11char_traitsIcESaIcEEEi
	mov	eax, 1221128100
	.p2align	4, 0x90
.LBB44_1:                               
	cmp	eax, 461933314
	jg	.LBB44_11

	cmp	eax, -497268538
	jg	.LBB44_7

	cmp	eax, -1847663930
	je	.LBB44_22

	cmp	eax, -1362695042
	je	.LBB44_26

	cmp	eax, -1352827064
	jne	.LBB44_1

	mov	rsi, qword ptr [rsp + 24]
	mov	edx, 2
	call	_ZN3DES9shiftLeftERNSt7__cxx1112basic_stringIcSt11char_traitsIcESaIcEEEi
	mov	edx, 2
	jmp	.LBB44_28
	.p2align	4, 0x90
.LBB44_11:                              
	cmp	eax, 1221128099
	jg	.LBB44_16

	cmp	eax, 461933315
	je	.LBB44_20

	cmp	eax, 809994529
	je	.LBB44_27

	cmp	eax, 945802631
	jne	.LBB44_1

	mov	rdi, qword ptr [rsp + 16] 
	mov	rsi, qword ptr [rsp + 32] 
	call	_ZN3DES15parityDropPermuERKNSt7__cxx1112basic_stringIcSt11char_traitsIcESaIcEEE
	xor	edx, edx
	mov	ecx, 28
	mov	rdi, r12
	mov	rsi, r14
	call	_ZNKSt7__cxx1112basic_stringIcSt11char_traitsIcESaIcEE6substrEmm
	mov	rdi, rbp
	mov	rsi, r12
	call	_ZNSt7__cxx1112basic_stringIcSt11char_traitsIcESaIcEEaSEOS4_
	mov	rdi, r12
	call	_ZNSt7__cxx1112basic_stringIcSt11char_traitsIcESaIcEED2Ev
	mov	edx, 28
	mov	ecx, 28
	mov	rdi, r12
	mov	rsi, r14
	call	_ZNKSt7__cxx1112basic_stringIcSt11char_traitsIcESaIcEE6substrEmm
	mov	rdi, r13
	mov	rsi, r12
	call	_ZNSt7__cxx1112basic_stringIcSt11char_traitsIcESaIcEEaSEOS4_
	mov	rdi, r12
	call	_ZNSt7__cxx1112basic_stringIcSt11char_traitsIcESaIcEED2Ev
	mov	eax, -1847663930
	jmp	.LBB44_1
	.p2align	4, 0x90
.LBB44_7:                               
	cmp	eax, -497268537
	je	.LBB44_25

	cmp	eax, -317526966
	je	.LBB44_29

	cmp	eax, -204822423
	jne	.LBB44_1

	cmp	r15d, 1
	sete	byte ptr [rsp + 14]
	movzx	eax, byte ptr [rsp + 14]
	test	al, al
	mov	eax, 1731478302
	mov	ecx, 461933315
	cmovne	eax, ecx
	jmp	.LBB44_1
	.p2align	4, 0x90
.LBB44_16:                              
	cmp	eax, 1429464229
	je	.LBB44_23

	cmp	eax, 1731478302
	je	.LBB44_24

	cmp	eax, 1221128100
	jne	.LBB44_1
	jmp	.LBB44_19
.LBB44_22:                              
	mov	rdi, qword ptr [rsp + 16] 
	mov	rsi, qword ptr [rsp + 32] 
	call	_ZN3DES15parityDropPermuERKNSt7__cxx1112basic_stringIcSt11char_traitsIcESaIcEEE
	xor	edx, edx
	mov	ecx, 28
	mov	rdi, r12
	mov	rsi, r14
	call	_ZNKSt7__cxx1112basic_stringIcSt11char_traitsIcESaIcEE6substrEmm
	mov	rdi, rbp
	mov	rsi, r12
	call	_ZNSt7__cxx1112basic_stringIcSt11char_traitsIcESaIcEEaSEOS4_
	mov	rdi, r12
	call	_ZNSt7__cxx1112basic_stringIcSt11char_traitsIcESaIcEED2Ev
	mov	edx, 28
	mov	ecx, 28
	mov	rdi, r12
	mov	rsi, r14
	call	_ZNKSt7__cxx1112basic_stringIcSt11char_traitsIcESaIcEE6substrEmm
	mov	rdi, r13
	mov	rsi, r12
	call	_ZNSt7__cxx1112basic_stringIcSt11char_traitsIcESaIcEEaSEOS4_
	mov	rdi, r12
	call	_ZNSt7__cxx1112basic_stringIcSt11char_traitsIcESaIcEED2Ev
	mov	eax, dword ptr [rip + x.128]
	mov	ecx, dword ptr [rip + y.129]
	lea	edx, [rax - 1]
	imul	edx, eax
	mov	eax, edx
	xor	eax, -2
	and	eax, edx
	sete	dl
	cmp	ecx, 10
	setl	bl
	xor	bl, dl
	mov	edx, 945802631
	mov	esi, 1429464229
	cmovne	edx, esi
	test	eax, eax
	mov	eax, edx
	cmove	eax, esi
	cmp	ecx, 10
	cmovge	eax, edx
	jmp	.LBB44_1
.LBB44_26:                              
	movzx	eax, byte ptr [rsp + 15]
	test	al, al
	mov	eax, -1352827064
	mov	ecx, 809994529
	cmovne	eax, ecx
	jmp	.LBB44_1
.LBB44_20:                              
	mov	eax, dword ptr [rip + x.128]
	lea	ecx, [rax - 1]
	imul	ecx, eax
	not	ecx
	or	ecx, -2
	cmp	ecx, -1
	sete	cl
	mov	eax, 945802631
	mov	edi, -1847663930
	cmove	eax, edi
	cmp	dword ptr [rip + y.129], 10
	setl	dl
	mov	esi, 945802631
	jmp	.LBB44_21
.LBB44_27:                              
	mov	rsi, qword ptr [rsp + 24]
	mov	edx, 1
	call	_ZN3DES9shiftLeftERNSt7__cxx1112basic_stringIcSt11char_traitsIcESaIcEEEi
	mov	edx, 1
	jmp	.LBB44_28
.LBB44_25:                              
	cmp	r15d, 16
	sete	dil
	cmp	r15d, 9
	setne	sil
	sete	dl
	cmp	r15d, 2
	sete	bl
	movzx	ecx, byte ptr [rsp + 14]
	mov	eax, ebx
	and	al, cl
	xor	bl, cl
	or	bl, al
	xor	dl, bl
	xor	bl, 1
	or	bl, sil
	xor	bl, 1
	or	bl, dl
	mov	eax, edi
	and	al, bl
	xor	bl, dil
	or	bl, al
	and	bl, 1
	mov	byte ptr [rsp + 15], bl
	mov	qword ptr [rsp + 24], rbp
	mov	eax, dword ptr [rip + x.128]
	lea	ecx, [rax - 1]
	imul	ecx, eax
	mov	eax, ecx
	xor	eax, -2
	and	eax, ecx
	sete	cl
	test	eax, eax
	mov	eax, -317526966
	mov	esi, -1362695042
	cmove	eax, esi
	cmp	dword ptr [rip + y.129], 10
	setl	dl
	mov	edi, -317526966
	cmovge	eax, edi
	xor	dl, cl
	cmovne	eax, esi
	jmp	.LBB44_1
.LBB44_29:                              
	movzx	eax, byte ptr [rsp + 14]
	movzx	eax, byte ptr [rsp + 14]
	movzx	eax, byte ptr [rsp + 14]
	movzx	eax, byte ptr [rsp + 14]
	movzx	eax, byte ptr [rsp + 14]
	mov	eax, -497268537
	jmp	.LBB44_1
.LBB44_23:                              
	mov	eax, 1731478302
	jmp	.LBB44_1
.LBB44_24:                              
	mov	eax, dword ptr [rip + x.128]
	lea	ecx, [rax - 1]
	imul	ecx, eax
	not	ecx
	or	ecx, -2
	cmp	ecx, -1
	sete	cl
	mov	eax, -317526966
	mov	edi, -497268537
	cmove	eax, edi
	cmp	dword ptr [rip + y.129], 10
	setl	dl
	mov	esi, -317526966
.LBB44_21:                              
	cmovge	eax, esi
	xor	dl, cl
	cmovne	eax, edi
	jmp	.LBB44_1
.LBB44_19:
	mov	rsi, qword ptr [rsp + 24]
	lea	rbp, [rsp + 40]
	mov	rdi, rbp
	mov	rdx, r13
	call	_ZStplIcSt11char_traitsIcESaIcEENSt7__cxx1112basic_stringIT_T0_T1_EERKS8_SA_
	mov	rdi, r14
	mov	rsi, rbp
	call	_ZNSt7__cxx1112basic_stringIcSt11char_traitsIcESaIcEEaSEOS4_
	mov	rdi, rbp
	call	_ZNSt7__cxx1112basic_stringIcSt11char_traitsIcESaIcEED2Ev
	mov	rdi, qword ptr [rsp + 16] 
	mov	rsi, r14
	call	_ZN3DES16compressionPermuERKNSt7__cxx1112basic_stringIcSt11char_traitsIcESaIcEEE
	add	rsp, 72
	pop	rbx
	pop	r12
	pop	r13
	pop	r14
	pop	r15
	pop	rbp
	ret
.Lfunc_end44:
	.size	_ZN3DES6keygenERKNSt7__cxx1112basic_stringIcSt11char_traitsIcESaIcEEEi, .Lfunc_end44-_ZN3DES6keygenERKNSt7__cxx1112basic_stringIcSt11char_traitsIcESaIcEEEi
	.cfi_endproc

	.globl	_ZN3DES15parityDropPermuERKNSt7__cxx1112basic_stringIcSt11char_traitsIcESaIcEEE 
	.p2align	4, 0x90
	.type	_ZN3DES15parityDropPermuERKNSt7__cxx1112basic_stringIcSt11char_traitsIcESaIcEEE,@function
_ZN3DES15parityDropPermuERKNSt7__cxx1112basic_stringIcSt11char_traitsIcESaIcEEE: 
	.cfi_startproc

	push	rbp
.Lcfi184:
	.cfi_def_cfa_offset 16
.Lcfi185:
	.cfi_offset rbp, -16
	mov	rbp, rsp
.Lcfi186:
	.cfi_def_cfa_register rbp
	push	r15
	push	r14
	push	r13
	push	r12
	push	rbx
	sub	rsp, 104
.Lcfi187:
	.cfi_offset rbx, -56
.Lcfi188:
	.cfi_offset r12, -48
.Lcfi189:
	.cfi_offset r13, -40
.Lcfi190:
	.cfi_offset r14, -32
.Lcfi191:
	.cfi_offset r15, -24
	mov	r12, rsi
	mov	r14, rdi
	mov	eax, dword ptr [rip + x.130]
	mov	ecx, dword ptr [rip + y.131]
	lea	edx, [rax - 1]
	imul	edx, eax
	not	edx
	or	edx, -2
	cmp	edx, -1
	sete	byte ptr [rbp - 41]
	cmp	ecx, 10
	setl	byte ptr [rbp - 42]
	add	r14, 232
	mov	eax, 975488261



	jmp	.LBB45_1
.LBB45_13:                              
	mov	edi, _ZN3DES18parityBitDropTableE
	call	_ZNKSt5arrayIiLm56EE5beginEv
	mov	r13, rax
	mov	edi, _ZN3DES18parityBitDropTableE
	call	_ZNKSt5arrayIiLm56EE5beginEv
	mov	rbx, rax
	mov	edi, _ZN3DES18parityBitDropTableE
	call	_ZNKSt5arrayIiLm56EE3endEv
	mov	rdx, qword ptr [rbp - 80]
	mov	rdi, rbx
	mov	rsi, rax
	call	_ZSt4findIPKiiET_S2_S2_RKT0_
	mov	rdi, r13
	mov	rsi, rax
	call	_ZSt8distanceIPKiENSt15iterator_traitsIT_E15difference_typeES3_S3_
	movabs	rcx, 7724664883781288268
	mov	rdx, rcx
	lea	ecx, [rdx + 55]
	sub	ecx, eax
	sub	ecx, edx
	movsxd	rsi, ecx
	mov	rdi, qword ptr [rbp - 64]
	mov	edx, 1
	call	_ZNSt6bitsetILm56EE3setEmb
	mov	eax, -371944330
	.p2align	4, 0x90
.LBB45_1:                               
	cmp	eax, 15496855
	jg	.LBB45_20

	cmp	eax, -952832867
	jle	.LBB45_3

	cmp	eax, -371944331
	jg	.LBB45_14

	cmp	eax, -952832866
	je	.LBB45_39

	cmp	eax, -888286756
	jne	.LBB45_1
	jmp	.LBB45_13
	.p2align	4, 0x90
.LBB45_20:                              
	cmp	eax, 1308549999
	jle	.LBB45_21

	cmp	eax, 1499991921
	jg	.LBB45_33

	cmp	eax, 1308550000
	je	.LBB45_44

	cmp	eax, 1428369265
	jne	.LBB45_1

	mov	eax, dword ptr [rip + x.130]
	mov	ecx, dword ptr [rip + y.131]
	lea	edx, [rax - 1]
	imul	edx, eax
	not	edx
	or	edx, -2
	cmp	edx, -1
	sete	al
	cmp	ecx, 10
	setl	bl
	xor	bl, al
	mov	eax, -952832866
	mov	esi, -952832866
	jne	.LBB45_32

	mov	esi, 1944105377
.LBB45_32:                              
	cmp	edx, -1
	cmovne	eax, esi
	cmp	ecx, 10
	mov	rcx, qword ptr [rbp - 120]
	cmovge	eax, esi
	jmp	.LBB45_1
	.p2align	4, 0x90
.LBB45_3:                               
	cmp	eax, -1555757240
	jle	.LBB45_4

	cmp	eax, -1555757239
	je	.LBB45_37

	cmp	eax, -1493754612
	jne	.LBB45_1

	mov	eax, 808737582
	jmp	.LBB45_1
	.p2align	4, 0x90
.LBB45_21:                              
	cmp	eax, 15496856
	je	.LBB45_57

	cmp	eax, 808737582
	je	.LBB45_56

	cmp	eax, 975488261
	jne	.LBB45_1

	movzx	ecx, byte ptr [rbp - 41]
	movzx	edx, byte ptr [rbp - 42]
	mov	eax, ecx
	xor	al, dl
	mov	eax, -291623078
	mov	esi, -291623078
	jne	.LBB45_26

	mov	esi, 15496856
.LBB45_26:                              
	test	dl, dl
	cmove	eax, esi
	test	cl, cl
	cmove	eax, esi
	jmp	.LBB45_1
.LBB45_14:                              
	cmp	eax, -371944330
	je	.LBB45_52

	cmp	eax, -291623078
	jne	.LBB45_1

	mov	rax, rsp
	add	rax, -16
	mov	rsp, rax
	mov	qword ptr [rbp - 64], rax
	mov	rax, rsp
	add	rax, -16
	mov	rsp, rax
	mov	qword ptr [rbp - 80], rax
	mov	rax, rsp
	add	rax, -16
	mov	rsp, rax
	mov	qword ptr [rbp - 72], rax
	mov	rax, rsp
	add	rax, -16
	mov	rsp, rax
	mov	qword ptr [rbp - 88], rax
	mov	rax, rsp
	add	rax, -16
	mov	rsp, rax
	mov	qword ptr [rbp - 128], rax
	mov	rax, rsp
	add	rax, -32
	mov	rsp, rax
	mov	qword ptr [rbp - 56], rax
	mov	rax, qword ptr [rbp - 64]
	mov	qword ptr [rbp - 96], rax
	mov	rax, qword ptr [rbp - 96]
	mov	rdi, qword ptr [rbp - 64]
	call	_ZNSt6bitsetILm56EEC2Ev
	mov	rax, qword ptr [rbp - 80]
	mov	qword ptr [rbp - 104], rax
	mov	rax, qword ptr [rbp - 104]
	mov	rax, qword ptr [rbp - 72]
	mov	qword ptr [rbp - 120], rax
	mov	rax, qword ptr [rbp - 120]
	mov	rdi, r12
	call	_ZNKSt7__cxx1112basic_stringIcSt11char_traitsIcESaIcEE5beginEv
	mov	qword ptr [rbp - 136], rax
	mov	eax, dword ptr [rip + x.130]
	mov	ecx, dword ptr [rip + y.131]
	lea	edx, [rax - 1]
	imul	edx, eax
	mov	eax, edx
	xor	eax, -2
	and	eax, edx
	sete	bl
	test	eax, eax
	mov	eax, -1656812677
	mov	edx, 15496856
	mov	esi, -1656812677
	je	.LBB45_18

	mov	esi, 15496856
.LBB45_18:                              
	cmp	ecx, 10
	setl	cl
	cmovl	edx, esi
	xor	cl, bl
	jne	.LBB45_1

	mov	eax, edx
	jmp	.LBB45_1
.LBB45_33:                              
	cmp	eax, 1499991922
	je	.LBB45_48

	cmp	eax, 1944105377
	jne	.LBB45_1

	mov	rax, qword ptr [rbp - 56]
	mov	rsi, qword ptr [rbp - 64]
	mov	rdi, qword ptr [rbp - 56]
	call	_ZNKSt6bitsetILm56EE9to_stringB5cxx11Ev
	mov	rsi, qword ptr [rbp - 56]
	mov	rdi, r14
	call	_ZNSt7__cxx1112basic_stringIcSt11char_traitsIcESaIcEEaSEOS4_
	mov	rdi, qword ptr [rbp - 56]
	call	_ZNSt7__cxx1112basic_stringIcSt11char_traitsIcESaIcEED2Ev
	mov	rax, qword ptr [rbp - 104]
	mov	rax, qword ptr [rbp - 96]
	mov	eax, -952832866
	jmp	.LBB45_1
.LBB45_4:                               
	cmp	eax, -1656812677
	je	.LBB45_36

	cmp	eax, -1755653358
	jne	.LBB45_1
	jmp	.LBB45_6
.LBB45_39:                              
	mov	rax, qword ptr [rbp - 56]
	mov	rsi, qword ptr [rbp - 64]
	mov	rdi, qword ptr [rbp - 56]
	call	_ZNKSt6bitsetILm56EE9to_stringB5cxx11Ev
	mov	rsi, qword ptr [rbp - 56]
	mov	rdi, r14
	call	_ZNSt7__cxx1112basic_stringIcSt11char_traitsIcESaIcEEaSEOS4_
	mov	rdi, qword ptr [rbp - 56]
	call	_ZNSt7__cxx1112basic_stringIcSt11char_traitsIcESaIcEED2Ev
	mov	eax, dword ptr [rip + x.130]
	mov	ecx, dword ptr [rip + y.131]
	lea	edx, [rax - 1]
	imul	edx, eax
	mov	esi, edx
	xor	esi, -2
	and	esi, edx
	sete	al
	cmp	ecx, 10
	setl	dl
	xor	dl, al
	mov	edx, -1755653358
	mov	eax, -1755653358
	jne	.LBB45_41

	mov	eax, 1944105377
.LBB45_41:                              
	test	esi, esi
	je	.LBB45_43

	mov	edx, eax
.LBB45_43:                              
	cmp	ecx, 10
	mov	rcx, qword ptr [rbp - 104]
	mov	rcx, qword ptr [rbp - 96]
	cmovl	eax, edx
	jmp	.LBB45_1
.LBB45_44:                              
	mov	rdi, r12
	call	_ZNKSt7__cxx1112basic_stringIcSt11char_traitsIcESaIcEE5beginEv
	mov	rcx, qword ptr [rbp - 72]
	mov	rsi, qword ptr [rcx]
	mov	rdi, rax
	call	_ZSt8distanceIN9__gnu_cxx17__normal_iteratorIPKcNSt7__cxx1112basic_stringIcSt11char_traitsIcESaIcEEEEEENSt15iterator_traitsIT_E15difference_typeESC_SC_
	inc	eax
	mov	rcx, qword ptr [rbp - 80]
	mov	dword ptr [rcx], eax
	mov	rdi, qword ptr [rbp - 72]
	call	_ZNK9__gnu_cxx17__normal_iteratorIPKcNSt7__cxx1112basic_stringIcSt11char_traitsIcESaIcEEEEdeEv
	cmp	byte ptr [rax], 49
	sete	dl
	mov	rax, qword ptr [rbp - 80]
	mov	eax, dword ptr [rax]
	cmp	eax, 8
	setne	cl
	xor	cl, dl
	not	cl
	and	cl, dl
	mov	edx, eax
	not	edx
	mov	esi, edx
	and	esi, -400350915
	mov	edi, eax
	and	edi, 400350914
	or	edi, esi
	xor	edi, -400350923
	mov	esi, eax
	and	esi, 8
	or	esi, edi
	cmp	esi, 24
	sete	bl
	not	cl
	or	cl, bl
	and	edx, -467970420
	mov	esi, eax
	and	esi, 467970419
	or	esi, edx
	xor	esi, -467970412
	mov	edx, eax
	and	edx, 24
	or	edx, esi
	cmp	edx, 56
	setne	dl
	xor	cl, dl
	and	cl, dl
	cmp	eax, 64
	setne	bl
	mov	edx, 1499991922
	mov	eax, 808737582
	jne	.LBB45_46

	mov	edx, 808737582
.LBB45_46:                              
	xor	bl, cl
	jne	.LBB45_1

	mov	eax, edx
	jmp	.LBB45_1
.LBB45_37:                              
	mov	rax, qword ptr [rbp - 112] 
	mov	qword ptr [rax], r15
	mov	rax, qword ptr [rbp - 88]
	mov	rdi, r12
	call	_ZNKSt7__cxx1112basic_stringIcSt11char_traitsIcESaIcEE3endEv
	mov	rcx, qword ptr [rbp - 88]
	mov	qword ptr [rcx], rax
	mov	rdi, qword ptr [rbp - 72]
	mov	rsi, qword ptr [rbp - 88]
	call	_ZN9__gnu_cxxltIPKcNSt7__cxx1112basic_stringIcSt11char_traitsIcESaIcEEEEEbRKNS_17__normal_iteratorIT_T0_EESE_
	test	al, al
	mov	eax, 1308550000
	jne	.LBB45_1

	mov	eax, 1428369265
	jmp	.LBB45_1
.LBB45_57:                              
	mov	rdi, rsp
	add	rdi, -16
	mov	rsp, rdi
	call	_ZNSt6bitsetILm56EEC2Ev
	mov	rdi, r12
	call	_ZNKSt7__cxx1112basic_stringIcSt11char_traitsIcESaIcEE5beginEv
	mov	eax, -291623078
	jmp	.LBB45_1
.LBB45_56:                              
	mov	rdi, qword ptr [rbp - 72]
	xor	esi, esi
	call	_ZN9__gnu_cxx17__normal_iteratorIPKcNSt7__cxx1112basic_stringIcSt11char_traitsIcESaIcEEEEppEi
	mov	r15, rax
	mov	eax, -1555757239
	mov	rcx, qword ptr [rbp - 128]
	mov	qword ptr [rbp - 112], rcx 
	jmp	.LBB45_1
.LBB45_52:                              
	mov	edi, _ZN3DES18parityBitDropTableE
	call	_ZNKSt5arrayIiLm56EE5beginEv
	mov	r13, rax
	mov	edi, _ZN3DES18parityBitDropTableE
	call	_ZNKSt5arrayIiLm56EE5beginEv
	mov	rbx, rax
	mov	edi, _ZN3DES18parityBitDropTableE
	call	_ZNKSt5arrayIiLm56EE3endEv
	mov	rdx, qword ptr [rbp - 80]
	mov	rdi, rbx
	mov	rsi, rax
	call	_ZSt4findIPKiiET_S2_S2_RKT0_
	mov	rdi, r13
	mov	rsi, rax
	call	_ZSt8distanceIPKiENSt15iterator_traitsIT_E15difference_typeES3_S3_
	movabs	rcx, -1869118210025158366
	mov	rdx, rcx
	lea	ecx, [rdx + 55]
	sub	ecx, eax
	sub	ecx, edx
	movsxd	rsi, ecx
	mov	rdi, qword ptr [rbp - 64]
	mov	edx, 1
	call	_ZNSt6bitsetILm56EE3setEmb
	mov	eax, dword ptr [rip + x.130]
	mov	ecx, dword ptr [rip + y.131]
	mov	edx, eax
	neg	edx
	not	edx
	imul	edx, eax
	mov	eax, edx
	xor	eax, -2
	and	eax, edx
	sete	bl
	test	eax, eax
	mov	eax, -1493754612
	mov	edx, -888286756
	mov	esi, -1493754612
	je	.LBB45_54

	mov	esi, -888286756
.LBB45_54:                              
	cmp	ecx, 10
	setl	cl
	cmovl	edx, esi
	xor	cl, bl
	jne	.LBB45_1

	mov	eax, edx
	jmp	.LBB45_1
.LBB45_48:                              
	mov	eax, dword ptr [rip + x.130]
	mov	ecx, dword ptr [rip + y.131]
	mov	edx, eax
	neg	edx
	not	edx
	imul	edx, eax
	mov	eax, edx
	xor	eax, -2
	and	eax, edx
	sete	bl
	test	eax, eax
	mov	eax, -371944330
	mov	edx, -888286756
	mov	esi, -371944330
	je	.LBB45_50

	mov	esi, -888286756
.LBB45_50:                              
	cmp	ecx, 10
	setl	cl
	cmovl	edx, esi
	xor	cl, bl
	jne	.LBB45_1

	mov	eax, edx
	jmp	.LBB45_1
.LBB45_36:                              
	mov	rax, qword ptr [rbp - 72]
	mov	qword ptr [rbp - 112], rax 
	mov	eax, -1555757239
	mov	r15, qword ptr [rbp - 136]
	jmp	.LBB45_1
.LBB45_6:
	lea	rsp, [rbp - 40]
	pop	rbx
	pop	r12
	pop	r13
	pop	r14
	pop	r15
	pop	rbp
	ret
.Lfunc_end45:
	.size	_ZN3DES15parityDropPermuERKNSt7__cxx1112basic_stringIcSt11char_traitsIcESaIcEEE, .Lfunc_end45-_ZN3DES15parityDropPermuERKNSt7__cxx1112basic_stringIcSt11char_traitsIcESaIcEEE
	.cfi_endproc

	.section	.text._ZNKSt7__cxx1112basic_stringIcSt11char_traitsIcESaIcEE6substrEmm,"axG",@progbits,_ZNKSt7__cxx1112basic_stringIcSt11char_traitsIcESaIcEE6substrEmm,comdat
	.weak	_ZNKSt7__cxx1112basic_stringIcSt11char_traitsIcESaIcEE6substrEmm 
	.p2align	4, 0x90
	.type	_ZNKSt7__cxx1112basic_stringIcSt11char_traitsIcESaIcEE6substrEmm,@function
_ZNKSt7__cxx1112basic_stringIcSt11char_traitsIcESaIcEE6substrEmm: 
	.cfi_startproc

	push	r15
.Lcfi192:
	.cfi_def_cfa_offset 16
	push	r14
.Lcfi193:
	.cfi_def_cfa_offset 24
	push	rbx
.Lcfi194:
	.cfi_def_cfa_offset 32
.Lcfi195:
	.cfi_offset rbx, -32
.Lcfi196:
	.cfi_offset r14, -24
.Lcfi197:
	.cfi_offset r15, -16
	mov	r14, rcx
	mov	rax, rdx
	mov	rbx, rsi
	mov	r15, rdi
	mov	edx, .L.str.50
	mov	rdi, rbx
	mov	rsi, rax
	call	_ZNKSt7__cxx1112basic_stringIcSt11char_traitsIcESaIcEE8_M_checkEmPKc
	mov	rdi, r15
	mov	rsi, rbx
	mov	rdx, rax
	mov	rcx, r14
	call	_ZNSt7__cxx1112basic_stringIcSt11char_traitsIcESaIcEEC2ERKS4_mm
	mov	rax, r15
	pop	rbx
	pop	r14
	pop	r15
	ret
.Lfunc_end46:
	.size	_ZNKSt7__cxx1112basic_stringIcSt11char_traitsIcESaIcEE6substrEmm, .Lfunc_end46-_ZNKSt7__cxx1112basic_stringIcSt11char_traitsIcESaIcEE6substrEmm
	.cfi_endproc

	.section	.text._ZStplIcSt11char_traitsIcESaIcEENSt7__cxx1112basic_stringIT_T0_T1_EERKS8_SA_,"axG",@progbits,_ZStplIcSt11char_traitsIcESaIcEENSt7__cxx1112basic_stringIT_T0_T1_EERKS8_SA_,comdat
	.weak	_ZStplIcSt11char_traitsIcESaIcEENSt7__cxx1112basic_stringIT_T0_T1_EERKS8_SA_ 
	.p2align	4, 0x90
	.type	_ZStplIcSt11char_traitsIcESaIcEENSt7__cxx1112basic_stringIT_T0_T1_EERKS8_SA_,@function
_ZStplIcSt11char_traitsIcESaIcEENSt7__cxx1112basic_stringIT_T0_T1_EERKS8_SA_: 
.Lfunc_begin6:
	.cfi_startproc
	.cfi_personality 3, __gxx_personality_v0
	.cfi_lsda 3, .Lexception6

	push	r14
.Lcfi198:
	.cfi_def_cfa_offset 16
	push	rbx
.Lcfi199:
	.cfi_def_cfa_offset 24
	push	rax
.Lcfi200:
	.cfi_def_cfa_offset 32
.Lcfi201:
	.cfi_offset rbx, -24
.Lcfi202:
	.cfi_offset r14, -16
	mov	r14, rdx
	mov	rbx, rdi
	call	_ZNSt7__cxx1112basic_stringIcSt11char_traitsIcESaIcEEC2ERKS4_
.Ltmp79:
	mov	rdi, rbx
	mov	rsi, r14
	call	_ZNSt7__cxx1112basic_stringIcSt11char_traitsIcESaIcEE6appendERKS4_
.Ltmp80:

	mov	rax, rbx
	add	rsp, 8
	pop	rbx
	pop	r14
	ret
.LBB47_2:
.Ltmp81:
	mov	r14, rax
	mov	rdi, rbx
	call	_ZNSt7__cxx1112basic_stringIcSt11char_traitsIcESaIcEED2Ev
	mov	rdi, r14
	call	_Unwind_Resume
.Lfunc_end47:
	.size	_ZStplIcSt11char_traitsIcESaIcEENSt7__cxx1112basic_stringIT_T0_T1_EERKS8_SA_, .Lfunc_end47-_ZStplIcSt11char_traitsIcESaIcEENSt7__cxx1112basic_stringIT_T0_T1_EERKS8_SA_
	.cfi_endproc
	.section	.gcc_except_table,"a",@progbits
	.p2align	2
GCC_except_table47:
.Lexception6:
	.byte	255                     
	.byte	3                       
	.byte	41                      
	.byte	3                       
	.byte	39                      
	.long	.Lfunc_begin6-.Lfunc_begin6 
	.long	.Ltmp79-.Lfunc_begin6   
	.long	0                       
	.byte	0                       
	.long	.Ltmp79-.Lfunc_begin6   
	.long	.Ltmp80-.Ltmp79         
	.long	.Ltmp81-.Lfunc_begin6   
	.byte	0                       
	.long	.Ltmp80-.Lfunc_begin6   
	.long	.Lfunc_end47-.Ltmp80    
	.long	0                       
	.byte	0                       
	.p2align	2

	.text
	.globl	_ZN3DES16compressionPermuERKNSt7__cxx1112basic_stringIcSt11char_traitsIcESaIcEEE 
	.p2align	4, 0x90
	.type	_ZN3DES16compressionPermuERKNSt7__cxx1112basic_stringIcSt11char_traitsIcESaIcEEE,@function
_ZN3DES16compressionPermuERKNSt7__cxx1112basic_stringIcSt11char_traitsIcESaIcEEE: 
	.cfi_startproc

	push	rbp
.Lcfi203:
	.cfi_def_cfa_offset 16
	push	r15
.Lcfi204:
	.cfi_def_cfa_offset 24
	push	r14
.Lcfi205:
	.cfi_def_cfa_offset 32
	push	r13
.Lcfi206:
	.cfi_def_cfa_offset 40
	push	r12
.Lcfi207:
	.cfi_def_cfa_offset 48
	push	rbx
.Lcfi208:
	.cfi_def_cfa_offset 56
	sub	rsp, 136
.Lcfi209:
	.cfi_def_cfa_offset 192
.Lcfi210:
	.cfi_offset rbx, -56
.Lcfi211:
	.cfi_offset r12, -48
.Lcfi212:
	.cfi_offset r13, -40
.Lcfi213:
	.cfi_offset r14, -32
.Lcfi214:
	.cfi_offset r15, -24
.Lcfi215:
	.cfi_offset rbp, -16
	mov	r14, rsi
	mov	qword ptr [rsp + 80], rdi 
	movabs	rbx, 3072259451270058539
	lea	rax, [rsp + 128]
	mov	qword ptr [rsp + 88], rax
	lea	rdi, [rsp + 32]
	mov	qword ptr [rsp + 40], rdi
	mov	rax, qword ptr [rsp + 40]
	call	_ZNSt6bitsetILm48EEC2Ev
	lea	rax, [rsp + 8]
	mov	qword ptr [rsp + 48], rax
	mov	rax, qword ptr [rsp + 48]
	lea	r13, [rsp + 24]
	mov	qword ptr [rsp + 56], r13
	mov	rax, qword ptr [rsp + 56]
	mov	rdi, r14
	call	_ZNKSt7__cxx1112basic_stringIcSt11char_traitsIcESaIcEE5beginEv
	mov	rbp, rax
	mov	eax, 897217918
	lea	r15, [rsp + 96]
	mov	r12d, -1227623294
	mov	ecx, 47
	sub	ecx, ebx
	mov	dword ptr [rsp + 12], ecx 
	mov	qword ptr [rsp + 16], r13 
	jmp	.LBB48_1
.LBB48_22:                              
	cmove	eax, esi
	cmp	dword ptr [rip + y.135], 10
	setl	dl
	cmovge	eax, r12d
	xor	dl, cl
	cmovne	eax, esi
	.p2align	4, 0x90
.LBB48_1:                               
	cmp	eax, 1319205057
	jg	.LBB48_11

	cmp	eax, -1353676778
	jle	.LBB48_3

	cmp	eax, -1353676777
	je	.LBB48_25

	cmp	eax, -1227623294
	je	.LBB48_26

	cmp	eax, 897217918
	jne	.LBB48_1

	mov	eax, dword ptr [rip + x.134]
	mov	ecx, dword ptr [rip + y.135]
	lea	edx, [rax - 1]
	imul	edx, eax
	not	edx
	or	edx, -2
	cmp	edx, -1
	sete	al
	cmp	ecx, 10
	setl	bl
	xor	bl, al
	mov	esi, -1353676777
	mov	edi, 1541085890
	cmovne	esi, edi
	cmp	edx, -1
	mov	eax, esi
	cmove	eax, edi
	cmp	ecx, 10
	mov	qword ptr [rsp + 64], rbp
	mov	rcx, qword ptr [rsp + 16] 
	mov	qword ptr [rsp + 72], rcx
	cmovge	eax, esi
	jmp	.LBB48_1
	.p2align	4, 0x90
.LBB48_11:                              
	cmp	eax, 1541085889
	jle	.LBB48_12

	cmp	eax, 1541085890
	je	.LBB48_19

	cmp	eax, 1589244600
	je	.LBB48_24

	cmp	eax, 2017886105
	jne	.LBB48_1

	mov	edi, _ZN3DES19keyCompressionTableE
	call	_ZNKSt5arrayIiLm48EE5beginEv
	mov	rbx, r15
	mov	r15, rax
	mov	edi, _ZN3DES19keyCompressionTableE
	call	_ZNKSt5arrayIiLm48EE5beginEv
	mov	r12, rax
	mov	edi, _ZN3DES19keyCompressionTableE
	call	_ZNKSt5arrayIiLm48EE3endEv
	mov	rdi, r12
	mov	r12d, -1227623294
	mov	rsi, rax
	lea	rdx, [rsp + 8]
	call	_ZSt4findIPKiiET_S2_S2_RKT0_
	mov	rdi, r15
	mov	r15, rbx
	mov	rsi, rax
	call	_ZSt8distanceIPKiENSt15iterator_traitsIT_E15difference_typeES3_S3_
	mov	ecx, dword ptr [rsp + 12] 
	sub	ecx, eax
	movabs	rax, 3072259451270058539
	add	ecx, eax
	movsxd	rsi, ecx
	mov	edx, 1
	lea	rdi, [rsp + 32]
	call	_ZNSt6bitsetILm48EE3setEmb
	mov	eax, 1589244600
	jmp	.LBB48_1
	.p2align	4, 0x90
.LBB48_3:                               
	cmp	eax, -2008719969
	je	.LBB48_23

	cmp	eax, -1456539428
	je	.LBB48_20

	cmp	eax, -1941075686
	jne	.LBB48_1
	jmp	.LBB48_6
	.p2align	4, 0x90
.LBB48_12:                              
	cmp	eax, 1319205058
	je	.LBB48_21

	cmp	eax, 1511889891
	jne	.LBB48_1

	mov	rdi, r14
	call	_ZNKSt7__cxx1112basic_stringIcSt11char_traitsIcESaIcEE5beginEv
	mov	rsi, qword ptr [rsp + 24]
	mov	rdi, rax
	call	_ZSt8distanceIN9__gnu_cxx17__normal_iteratorIPKcNSt7__cxx1112basic_stringIcSt11char_traitsIcESaIcEEEEEENSt15iterator_traitsIT_E15difference_typeESC_SC_
	movabs	rcx, -5133612093468145847
	lea	eax, [rax + rcx + 1]
	sub	eax, ecx
	mov	dword ptr [rsp + 8], eax
	mov	rdi, r13
	call	_ZNK9__gnu_cxx17__normal_iteratorIPKcNSt7__cxx1112basic_stringIcSt11char_traitsIcESaIcEEEEdeEv
	cmp	byte ptr [rax], 49
	setne	cl
	mov	eax, dword ptr [rsp + 8]
	cmp	eax, 9
	sete	dl
	or	dl, cl
	mov	ecx, eax
	not	ecx
	and	ecx, -2028794851
	mov	esi, eax
	and	esi, 2028794850
	or	esi, ecx
	xor	esi, -2028794855
	mov	ecx, eax
	and	ecx, 4
	or	ecx, esi
	cmp	ecx, 22
	setne	cl
	xor	dl, cl
	and	dl, cl
	cmp	eax, 25
	setne	cl
	xor	dl, cl
	not	dl
	and	dl, cl
	cmp	eax, 35
	sete	cl
	not	dl
	cmp	eax, 38
	sete	bl
	or	bl, cl
	or	bl, dl
	cmp	eax, 43
	setne	cl
	xor	bl, cl
	and	bl, cl
	cmp	eax, 54
	sete	al
	not	bl
	or	bl, al
	not	bl
	mov	byte ptr [rsp + 7], bl
	mov	eax, dword ptr [rip + x.134]
	lea	ecx, [rax - 1]
	imul	ecx, eax
	mov	eax, ecx
	xor	eax, -2
	and	eax, ecx
	sete	cl
	test	eax, eax
	mov	eax, -1227623294
	mov	esi, -2008719969
	jmp	.LBB48_22
.LBB48_25:                              
	mov	rax, qword ptr [rsp + 72]
	mov	rcx, qword ptr [rsp + 64]
	mov	qword ptr [rax], rcx
	mov	rdi, r14
	call	_ZNKSt7__cxx1112basic_stringIcSt11char_traitsIcESaIcEE3endEv
	mov	qword ptr [rsp + 96], rax
	mov	rdi, r13
	mov	rsi, r15
	call	_ZN9__gnu_cxxltIPKcNSt7__cxx1112basic_stringIcSt11char_traitsIcESaIcEEEEEbRKNS_17__normal_iteratorIT_T0_EESE_
	mov	eax, 1541085890
	jmp	.LBB48_1
.LBB48_26:                              
	mov	rdi, r14
	call	_ZNKSt7__cxx1112basic_stringIcSt11char_traitsIcESaIcEE5beginEv
	mov	rsi, qword ptr [rsp + 24]
	mov	rdi, rax
	call	_ZSt8distanceIN9__gnu_cxx17__normal_iteratorIPKcNSt7__cxx1112basic_stringIcSt11char_traitsIcESaIcEEEEEENSt15iterator_traitsIT_E15difference_typeESC_SC_
	inc	eax
	mov	dword ptr [rsp + 8], eax
	mov	rdi, r13
	call	_ZNK9__gnu_cxx17__normal_iteratorIPKcNSt7__cxx1112basic_stringIcSt11char_traitsIcESaIcEEEEdeEv
	mov	eax, 1511889891
	jmp	.LBB48_1
.LBB48_19:                              
	mov	rax, qword ptr [rsp + 72]
	mov	rcx, qword ptr [rsp + 64]
	mov	qword ptr [rax], rcx
	mov	rdi, r14
	call	_ZNKSt7__cxx1112basic_stringIcSt11char_traitsIcESaIcEE3endEv
	mov	qword ptr [rsp + 96], rax
	mov	rdi, r13
	mov	rsi, r15
	call	_ZN9__gnu_cxxltIPKcNSt7__cxx1112basic_stringIcSt11char_traitsIcESaIcEEEEEbRKNS_17__normal_iteratorIT_T0_EESE_
	mov	byte ptr [rsp + 6], al
	mov	eax, dword ptr [rip + x.134]
	mov	ecx, dword ptr [rip + y.135]
	lea	edx, [rax - 1]
	imul	edx, eax
	mov	eax, edx
	xor	eax, -2
	and	eax, edx
	sete	dl
	cmp	ecx, 10
	setl	bl
	xor	bl, dl
	mov	edx, -1353676777
	mov	esi, -1456539428
	cmovne	edx, esi
	test	eax, eax
	mov	eax, edx
	cmove	eax, esi
	cmp	ecx, 10
	cmovge	eax, edx
	jmp	.LBB48_1
.LBB48_24:                              
	xor	esi, esi
	mov	rdi, r13
	call	_ZN9__gnu_cxx17__normal_iteratorIPKcNSt7__cxx1112basic_stringIcSt11char_traitsIcESaIcEEEEppEi
	mov	rbp, rax
	mov	rax, qword ptr [rsp + 88]
	mov	qword ptr [rsp + 16], rax 
	mov	eax, 897217918
	jmp	.LBB48_1
.LBB48_23:                              
	movzx	eax, byte ptr [rsp + 7]
	test	al, al
	mov	eax, 1589244600
	mov	ecx, 2017886105
	cmovne	eax, ecx
	jmp	.LBB48_1
.LBB48_20:                              
	movzx	eax, byte ptr [rsp + 6]
	test	al, al
	mov	eax, -1941075686
	mov	ecx, 1319205058
	cmovne	eax, ecx
	jmp	.LBB48_1
.LBB48_21:                              
	mov	eax, dword ptr [rip + x.134]
	lea	ecx, [rax - 1]
	imul	ecx, eax
	not	ecx
	or	ecx, -2
	cmp	ecx, -1
	sete	cl
	mov	eax, -1227623294
	mov	esi, 1511889891
	jmp	.LBB48_22
.LBB48_6:
	mov	rax, qword ptr [rsp + 56]
	lea	rbx, [rsp + 96]
	lea	rsi, [rsp + 32]
	mov	rdi, rbx
	call	_ZNKSt6bitsetILm48EE9to_stringB5cxx11Ev
	mov	rdi, qword ptr [rsp + 80] 
	add	rdi, 264
	mov	rsi, rbx
	call	_ZNSt7__cxx1112basic_stringIcSt11char_traitsIcESaIcEEaSEOS4_
	mov	rdi, rbx
	call	_ZNSt7__cxx1112basic_stringIcSt11char_traitsIcESaIcEED2Ev
	mov	rax, qword ptr [rsp + 48]
	mov	rax, qword ptr [rsp + 40]
	add	rsp, 136
	pop	rbx
	pop	r12
	pop	r13
	pop	r14
	pop	r15
	pop	rbp
	ret
.Lfunc_end48:
	.size	_ZN3DES16compressionPermuERKNSt7__cxx1112basic_stringIcSt11char_traitsIcESaIcEEE, .Lfunc_end48-_ZN3DES16compressionPermuERKNSt7__cxx1112basic_stringIcSt11char_traitsIcESaIcEEE
	.cfi_endproc

	.globl	_ZN3DES4sBoxERKNSt7__cxx1112basic_stringIcSt11char_traitsIcESaIcEEE 
	.p2align	4, 0x90
	.type	_ZN3DES4sBoxERKNSt7__cxx1112basic_stringIcSt11char_traitsIcESaIcEEE,@function
_ZN3DES4sBoxERKNSt7__cxx1112basic_stringIcSt11char_traitsIcESaIcEEE: 
.Lfunc_begin7:
	.cfi_startproc
	.cfi_personality 3, __gxx_personality_v0
	.cfi_lsda 3, .Lexception7

	push	rbp
.Lcfi216:
	.cfi_def_cfa_offset 16
	push	r15
.Lcfi217:
	.cfi_def_cfa_offset 24
	push	r14
.Lcfi218:
	.cfi_def_cfa_offset 32
	push	r13
.Lcfi219:
	.cfi_def_cfa_offset 40
	push	r12
.Lcfi220:
	.cfi_def_cfa_offset 48
	push	rbx
.Lcfi221:
	.cfi_def_cfa_offset 56
	sub	rsp, 136
.Lcfi222:
	.cfi_def_cfa_offset 192
.Lcfi223:
	.cfi_offset rbx, -56
.Lcfi224:
	.cfi_offset r12, -48
.Lcfi225:
	.cfi_offset r13, -40
.Lcfi226:
	.cfi_offset r14, -32
.Lcfi227:
	.cfi_offset r15, -24
.Lcfi228:
	.cfi_offset rbp, -16
	mov	r13, rsi
	movabs	r14, -466243819516678384
	add	rdi, 328
	mov	esi, .L.str.2
	mov	qword ptr [rsp + 48], rdi 
	call	_ZNSt7__cxx1112basic_stringIcSt11char_traitsIcESaIcEEaSEPKc
	mov	rdi, rsp
	call	_ZNSt6bitsetILm4EEC2Ev
	mov	qword ptr [rsp + 8], -1 
	xor	r15d, r15d
	lea	rbx, [rsp + 104]
	lea	rbp, [rsp + 72]
	lea	r12, [rsp + 16]
	mov	rcx, r14
	not	rcx
	mov	qword ptr [rsp + 64], rcx 
	mov	rcx, r14
	and	rcx, -2
	mov	qword ptr [rsp + 56], rcx 
	.p2align	4, 0x90
.LBB49_1:                               
	mov	ecx, 1
	mov	rdi, rbx
	mov	rsi, r13
	mov	rdx, r15
	call	_ZNKSt7__cxx1112basic_stringIcSt11char_traitsIcESaIcEE6substrEmm
	lea	rdx, [r15 + 5]
.Ltmp82:
	mov	ecx, 1
	mov	rdi, rbp
	mov	rsi, r13
	call	_ZNKSt7__cxx1112basic_stringIcSt11char_traitsIcESaIcEE6substrEmm
.Ltmp83:

.Ltmp85:
	mov	rdi, r12
	mov	rsi, rbx
	mov	rdx, rbp
	call	_ZStplIcSt11char_traitsIcESaIcEENSt7__cxx1112basic_stringIT_T0_T1_EEOS8_S9_
.Ltmp86:

.Ltmp88:
	mov	rdi, r12
	call	_ZN3DES7bin2decERKNSt7__cxx1112basic_stringIcSt11char_traitsIcESaIcEEE
	mov	r14d, eax
.Ltmp89:

	mov	rdi, r12
	call	_ZNSt7__cxx1112basic_stringIcSt11char_traitsIcESaIcEED2Ev
	mov	rdi, rbp
	call	_ZNSt7__cxx1112basic_stringIcSt11char_traitsIcESaIcEED2Ev
	mov	rdi, rbx
	call	_ZNSt7__cxx1112basic_stringIcSt11char_traitsIcESaIcEED2Ev
	mov	rdx, qword ptr [rsp + 8] 
	mov	rax, rdx
	movabs	rcx, -466243819516678384
	mov	rsi, rcx
	and	rax, rsi
	mov	ecx, edx
	not	ecx
	mov	rdx, r15
	mov	rdi, qword ptr [rsp + 64] 
	and	rdx, rdi
	or	rdx, rax
	mov	eax, edi
	and	eax, 1
	add	rax, qword ptr [rsp + 56] 
	xor	rax, rdx
	mov	edx, esi
	or	edx, edi
	and	edx, ecx
	and	edx, 1
	or	rdx, rax
	mov	ecx, 4
	mov	rdi, r12
	mov	rbx, r13
	mov	rsi, r13
	call	_ZNKSt7__cxx1112basic_stringIcSt11char_traitsIcESaIcEE6substrEmm
.Ltmp91:
	mov	rdi, r12
	call	_ZN3DES7bin2decERKNSt7__cxx1112basic_stringIcSt11char_traitsIcESaIcEEE
	mov	r13d, eax
.Ltmp92:

	mov	rbp, r12
	mov	rdi, r12
	call	_ZNSt7__cxx1112basic_stringIcSt11char_traitsIcESaIcEED2Ev
	cmp	r15, 24
	jae	.LBB49_10

	cmp	r15, 12
	jae	.LBB49_14

	cmp	r15, 6
	jae	.LBB49_20

	test	r15, r15
	jne	.LBB49_31

	movsxd	rax, r14d
	movsxd	rcx, r13d
	shl	rax, 6
	movsxd	rsi, dword ptr [rax + 4*rcx + _ZN3DES2s1E]
	jmp	.LBB49_28
	.p2align	4, 0x90
.LBB49_10:                              
	cmp	r15, 36
	jae	.LBB49_17

	cmp	r15, 30
	jae	.LBB49_22

	cmp	r15, 24
	jne	.LBB49_31

	movsxd	rax, r14d
	movsxd	rcx, r13d
	shl	rax, 6
	movsxd	rsi, dword ptr [rax + 4*rcx + _ZN3DES2s5E]
	jmp	.LBB49_28
	.p2align	4, 0x90
.LBB49_14:                              
	cmp	r15, 18
	jae	.LBB49_24

	cmp	r15, 12
	jne	.LBB49_31

	movsxd	rax, r14d
	movsxd	rcx, r13d
	shl	rax, 6
	movsxd	rsi, dword ptr [rax + 4*rcx + _ZN3DES2s3E]
	jmp	.LBB49_28
	.p2align	4, 0x90
.LBB49_17:                              
	cmp	r15, 42
	jae	.LBB49_26

	cmp	r15, 36
	jne	.LBB49_31

	movsxd	rax, r14d
	movsxd	rcx, r13d
	shl	rax, 6
	movsxd	rsi, dword ptr [rax + 4*rcx + _ZN3DES2s7E]
	jmp	.LBB49_28
.LBB49_20:                              
	jne	.LBB49_31

	movsxd	rax, r14d
	movsxd	rcx, r13d
	shl	rax, 6
	movsxd	rsi, dword ptr [rax + 4*rcx + _ZN3DES2s2E]
	jmp	.LBB49_28
.LBB49_22:                              
	jne	.LBB49_31

	movsxd	rax, r14d
	movsxd	rcx, r13d
	shl	rax, 6
	movsxd	rsi, dword ptr [rax + 4*rcx + _ZN3DES2s6E]
	jmp	.LBB49_28
.LBB49_24:                              
	jne	.LBB49_31

	movsxd	rax, r14d
	movsxd	rcx, r13d
	shl	rax, 6
	movsxd	rsi, dword ptr [rax + 4*rcx + _ZN3DES2s4E]
	jmp	.LBB49_28
.LBB49_26:                              
	jne	.LBB49_31

	movsxd	rax, r14d
	movsxd	rcx, r13d
	shl	rax, 6
	movsxd	rsi, dword ptr [rax + 4*rcx + _ZN3DES2s8E]
	.p2align	4, 0x90
.LBB49_28:                              
	mov	r12, rbp
	mov	rdi, r12
	call	_ZNSt6bitsetILm4EEC2Ey
	mov	rax, qword ptr [rsp + 16]
	mov	qword ptr [rsp], rax
	mov	rdi, r12
	mov	rsi, rsp
	call	_ZNKSt6bitsetILm4EE9to_stringB5cxx11Ev
.Ltmp94:
	mov	rdi, qword ptr [rsp + 48] 
	mov	rsi, r12
	call	_ZNSt7__cxx1112basic_stringIcSt11char_traitsIcESaIcEEpLERKS4_
.Ltmp95:
	mov	r13, rbx
	lea	rbp, [rsp + 72]

	mov	rdi, r12
	call	_ZNSt7__cxx1112basic_stringIcSt11char_traitsIcESaIcEED2Ev
	add	qword ptr [rsp + 8], -6 
	cmp	r15, 42
	lea	r15, [r15 + 6]
	lea	rbx, [rsp + 104]
	jb	.LBB49_1

	add	rsp, 136
	pop	rbx
	pop	r12
	pop	r13
	pop	r14
	pop	r15
	pop	rbp
	ret
.LBB49_31:
	mov	edi, _ZSt4cout
	mov	esi, .L.str.3
	call	_ZStlsISt11char_traitsIcEERSt13basic_ostreamIcT_ES5_PKc
	mov	esi, _ZSt4endlIcSt11char_traitsIcEERSt13basic_ostreamIT_T0_ES6_
	mov	rdi, rax
	call	_ZNSolsEPFRSoS_E
	xor	edi, edi
	call	exit
.LBB49_32:
.Ltmp96:
	jmp	.LBB49_34
.LBB49_33:
.Ltmp93:
.LBB49_34:
	mov	rbx, rax
	lea	rdi, [rsp + 16]
	jmp	.LBB49_40
.LBB49_35:
.Ltmp90:
	mov	rbx, rax
	lea	rdi, [rsp + 16]
	call	_ZNSt7__cxx1112basic_stringIcSt11char_traitsIcESaIcEED2Ev
	jmp	.LBB49_37
.LBB49_36:
.Ltmp87:
	mov	rbx, rax
.LBB49_37:
	lea	rdi, [rsp + 72]
	call	_ZNSt7__cxx1112basic_stringIcSt11char_traitsIcESaIcEED2Ev
	jmp	.LBB49_39
.LBB49_38:
.Ltmp84:
	mov	rbx, rax
.LBB49_39:
	lea	rdi, [rsp + 104]
.LBB49_40:
	call	_ZNSt7__cxx1112basic_stringIcSt11char_traitsIcESaIcEED2Ev
	mov	rdi, rbx
	call	_Unwind_Resume
.Lfunc_end49:
	.size	_ZN3DES4sBoxERKNSt7__cxx1112basic_stringIcSt11char_traitsIcESaIcEEE, .Lfunc_end49-_ZN3DES4sBoxERKNSt7__cxx1112basic_stringIcSt11char_traitsIcESaIcEEE
	.cfi_endproc
	.section	.gcc_except_table,"a",@progbits
	.p2align	2
GCC_except_table49:
.Lexception7:
	.byte	255                     
	.byte	3                       
	.asciz	"\367\200"              
	.byte	3                       
	.byte	117                     
	.long	.Lfunc_begin7-.Lfunc_begin7 
	.long	.Ltmp82-.Lfunc_begin7   
	.long	0                       
	.byte	0                       
	.long	.Ltmp82-.Lfunc_begin7   
	.long	.Ltmp83-.Ltmp82         
	.long	.Ltmp84-.Lfunc_begin7   
	.byte	0                       
	.long	.Ltmp85-.Lfunc_begin7   
	.long	.Ltmp86-.Ltmp85         
	.long	.Ltmp87-.Lfunc_begin7   
	.byte	0                       
	.long	.Ltmp88-.Lfunc_begin7   
	.long	.Ltmp89-.Ltmp88         
	.long	.Ltmp90-.Lfunc_begin7   
	.byte	0                       
	.long	.Ltmp89-.Lfunc_begin7   
	.long	.Ltmp91-.Ltmp89         
	.long	0                       
	.byte	0                       
	.long	.Ltmp91-.Lfunc_begin7   
	.long	.Ltmp92-.Ltmp91         
	.long	.Ltmp93-.Lfunc_begin7   
	.byte	0                       
	.long	.Ltmp92-.Lfunc_begin7   
	.long	.Ltmp94-.Ltmp92         
	.long	0                       
	.byte	0                       
	.long	.Ltmp94-.Lfunc_begin7   
	.long	.Ltmp95-.Ltmp94         
	.long	.Ltmp96-.Lfunc_begin7   
	.byte	0                       
	.long	.Ltmp95-.Lfunc_begin7   
	.long	.Lfunc_end49-.Ltmp95    
	.long	0                       
	.byte	0                       
	.p2align	2

	.section	.text._ZNSt7__cxx1112basic_stringIcSt11char_traitsIcESaIcEEaSEPKc,"axG",@progbits,_ZNSt7__cxx1112basic_stringIcSt11char_traitsIcESaIcEEaSEPKc,comdat
	.weak	_ZNSt7__cxx1112basic_stringIcSt11char_traitsIcESaIcEEaSEPKc 
	.p2align	4, 0x90
	.type	_ZNSt7__cxx1112basic_stringIcSt11char_traitsIcESaIcEEaSEPKc,@function
_ZNSt7__cxx1112basic_stringIcSt11char_traitsIcESaIcEEaSEPKc: 
	.cfi_startproc

	jmp	_ZNSt7__cxx1112basic_stringIcSt11char_traitsIcESaIcEE6assignEPKc 
.Lfunc_end50:
	.size	_ZNSt7__cxx1112basic_stringIcSt11char_traitsIcESaIcEEaSEPKc, .Lfunc_end50-_ZNSt7__cxx1112basic_stringIcSt11char_traitsIcESaIcEEaSEPKc
	.cfi_endproc

	.section	.text._ZNSt6bitsetILm4EEC2Ev,"axG",@progbits,_ZNSt6bitsetILm4EEC2Ev,comdat
	.weak	_ZNSt6bitsetILm4EEC2Ev  
	.p2align	4, 0x90
	.type	_ZNSt6bitsetILm4EEC2Ev,@function
_ZNSt6bitsetILm4EEC2Ev:                 

	jmp	_ZNSt12_Base_bitsetILm1EEC2Ev 
.Lfunc_end51:
	.size	_ZNSt6bitsetILm4EEC2Ev, .Lfunc_end51-_ZNSt6bitsetILm4EEC2Ev

	.text
	.globl	_ZN3DES7bin2decERKNSt7__cxx1112basic_stringIcSt11char_traitsIcESaIcEEE 
	.p2align	4, 0x90
	.type	_ZN3DES7bin2decERKNSt7__cxx1112basic_stringIcSt11char_traitsIcESaIcEEE,@function
_ZN3DES7bin2decERKNSt7__cxx1112basic_stringIcSt11char_traitsIcESaIcEEE: 
	.cfi_startproc

	push	rbp
.Lcfi229:
	.cfi_def_cfa_offset 16
	push	r15
.Lcfi230:
	.cfi_def_cfa_offset 24
	push	r14
.Lcfi231:
	.cfi_def_cfa_offset 32
	push	r13
.Lcfi232:
	.cfi_def_cfa_offset 40
	push	r12
.Lcfi233:
	.cfi_def_cfa_offset 48
	push	rbx
.Lcfi234:
	.cfi_def_cfa_offset 56
	sub	rsp, 56
.Lcfi235:
	.cfi_def_cfa_offset 112
.Lcfi236:
	.cfi_offset rbx, -56
.Lcfi237:
	.cfi_offset r12, -48
.Lcfi238:
	.cfi_offset r13, -40
.Lcfi239:
	.cfi_offset r14, -32
.Lcfi240:
	.cfi_offset r15, -24
.Lcfi241:
	.cfi_offset rbp, -16
	mov	r14, rdi
	lea	r13, [rsp + 48]
	mov	qword ptr [rsp + 16], r13
	mov	rax, qword ptr [rsp + 16]
	mov	rdi, r13
	mov	rsi, r14
	call	_ZNKSt7__cxx1112basic_stringIcSt11char_traitsIcESaIcEE6rbeginEv
	mov	eax, 843298653
	xor	r15d, r15d
	lea	rbp, [rsp + 40]

	jmp	.LBB52_1
.LBB52_19:                              
	xor	edx, edx
	mov	rdi, rbp
	mov	rsi, r13
	call	_ZNSt16reverse_iteratorIN9__gnu_cxx17__normal_iteratorIPKcNSt7__cxx1112basic_stringIcSt11char_traitsIcESaIcEEEEEEppEi
	mov	eax, 99295071
	.p2align	4, 0x90
.LBB52_1:                               
	cmp	eax, 338001990
	jg	.LBB52_9

	cmp	eax, -16109576
	jg	.LBB52_6

	cmp	eax, -1741703569
	je	.LBB52_19

	cmp	eax, -315992103
	jne	.LBB52_1

	mov	rdi, r13
	call	_ZNKSt16reverse_iteratorIN9__gnu_cxx17__normal_iteratorIPKcNSt7__cxx1112basic_stringIcSt11char_traitsIcESaIcEEEEEEdeEv
	cmp	byte ptr [rax], 49
	mov	eax, -16109575
	mov	ecx, 1514933378
	cmove	eax, ecx
	mov	r12d, dword ptr [rsp + 8]
	jmp	.LBB52_1
	.p2align	4, 0x90
.LBB52_9:                               
	cmp	eax, 1514933377
	jg	.LBB52_13

	cmp	eax, 338001991
	je	.LBB52_18

	cmp	eax, 843298653
	jne	.LBB52_1

	mov	dword ptr [rsp + 8], r15d
	mov	rdi, rbp
	mov	rsi, r14
	call	_ZNKSt7__cxx1112basic_stringIcSt11char_traitsIcESaIcEE4rendEv
	mov	rdi, r13
	mov	rsi, rbp
	call	_ZStltIN9__gnu_cxx17__normal_iteratorIPKcNSt7__cxx1112basic_stringIcSt11char_traitsIcESaIcEEEEEEbRKSt16reverse_iteratorIT_ESF_
	test	al, al
	mov	eax, 1815774062
	mov	ecx, -315992103
	cmovne	eax, ecx
	jmp	.LBB52_1
	.p2align	4, 0x90
.LBB52_6:                               
	cmp	eax, -16109575
	je	.LBB52_17

	cmp	eax, 99295071
	jne	.LBB52_1

	xor	edx, edx
	mov	rdi, rbp
	mov	rsi, r13
	call	_ZNSt16reverse_iteratorIN9__gnu_cxx17__normal_iteratorIPKcNSt7__cxx1112basic_stringIcSt11char_traitsIcESaIcEEEEEEppEi
	mov	eax, dword ptr [rip + x.140]
	mov	ecx, dword ptr [rip + y.141]
	lea	edx, [rax - 1]
	imul	edx, eax
	not	edx
	or	edx, -2
	cmp	edx, -1
	sete	al
	cmp	ecx, 10
	setl	bl
	xor	bl, al
	mov	esi, -1741703569
	mov	edi, 338001991
	cmovne	esi, edi
	cmp	edx, -1
	mov	eax, esi
	cmove	eax, edi
	cmp	ecx, 10
	cmovge	eax, esi
	jmp	.LBB52_1
	.p2align	4, 0x90
.LBB52_13:                              
	cmp	eax, 1514933378
	je	.LBB52_16

	cmp	eax, 1815774062
	jne	.LBB52_1
	jmp	.LBB52_15
.LBB52_18:                              
	mov	r15d, dword ptr [rsp + 12]
	mov	eax, 843298653
	jmp	.LBB52_1
.LBB52_17:                              
	mov	dword ptr [rsp + 12], r12d
	mov	eax, dword ptr [rip + x.140]
	lea	ecx, [rax - 1]
	imul	ecx, eax
	not	ecx
	or	ecx, -2
	cmp	ecx, -1
	sete	cl
	mov	eax, -1741703569
	mov	esi, 99295071
	cmove	eax, esi
	cmp	dword ptr [rip + y.141], 10
	setl	dl
	mov	edi, -1741703569
	cmovge	eax, edi
	xor	dl, cl
	cmovne	eax, esi
	jmp	.LBB52_1
.LBB52_16:                              
	lea	r12, [rsp + 32]
	mov	rdi, r12
	mov	rsi, r14
	call	_ZNKSt7__cxx1112basic_stringIcSt11char_traitsIcESaIcEE6rbeginEv
	mov	rbx, rbp
	lea	rbp, [rsp + 24]
	mov	rdi, rbp
	mov	rsi, r13
	call	_ZNSt16reverse_iteratorIN9__gnu_cxx17__normal_iteratorIPKcNSt7__cxx1112basic_stringIcSt11char_traitsIcESaIcEEEEEEC2ERKSB_
	mov	rdi, r12
	mov	rsi, rbp
	mov	rbp, rbx
	call	_ZSt8distanceISt16reverse_iteratorIN9__gnu_cxx17__normal_iteratorIPKcNSt7__cxx1112basic_stringIcSt11char_traitsIcESaIcEEEEEEENSt15iterator_traitsIT_E15difference_typeESE_SE_
	xorps	xmm0, xmm0
	cvtsi2sd	xmm0, rax
	call	exp2
	xorps	xmm1, xmm1
	cvtsi2sd	xmm1, dword ptr [rsp + 8]
	addsd	xmm1, xmm0
	cvttsd2si	r12d, xmm1
	mov	eax, -16109575
	jmp	.LBB52_1
.LBB52_15:
	mov	rax, qword ptr [rsp + 16]
	mov	eax, dword ptr [rsp + 8]
	add	rsp, 56
	pop	rbx
	pop	r12
	pop	r13
	pop	r14
	pop	r15
	pop	rbp
	ret
.Lfunc_end52:
	.size	_ZN3DES7bin2decERKNSt7__cxx1112basic_stringIcSt11char_traitsIcESaIcEEE, .Lfunc_end52-_ZN3DES7bin2decERKNSt7__cxx1112basic_stringIcSt11char_traitsIcESaIcEEE
	.cfi_endproc

	.section	.text._ZStplIcSt11char_traitsIcESaIcEENSt7__cxx1112basic_stringIT_T0_T1_EEOS8_S9_,"axG",@progbits,_ZStplIcSt11char_traitsIcESaIcEENSt7__cxx1112basic_stringIT_T0_T1_EEOS8_S9_,comdat
	.weak	_ZStplIcSt11char_traitsIcESaIcEENSt7__cxx1112basic_stringIT_T0_T1_EEOS8_S9_ 
	.p2align	4, 0x90
	.type	_ZStplIcSt11char_traitsIcESaIcEENSt7__cxx1112basic_stringIT_T0_T1_EEOS8_S9_,@function
_ZStplIcSt11char_traitsIcESaIcEENSt7__cxx1112basic_stringIT_T0_T1_EEOS8_S9_: 
	.cfi_startproc

	push	rbp
.Lcfi242:
	.cfi_def_cfa_offset 16
	push	r15
.Lcfi243:
	.cfi_def_cfa_offset 24
	push	r14
.Lcfi244:
	.cfi_def_cfa_offset 32
	push	r13
.Lcfi245:
	.cfi_def_cfa_offset 40
	push	r12
.Lcfi246:
	.cfi_def_cfa_offset 48
	push	rbx
.Lcfi247:
	.cfi_def_cfa_offset 56
	sub	rsp, 40
.Lcfi248:
	.cfi_def_cfa_offset 96
.Lcfi249:
	.cfi_offset rbx, -56
.Lcfi250:
	.cfi_offset r12, -48
.Lcfi251:
	.cfi_offset r13, -40
.Lcfi252:
	.cfi_offset r14, -32
.Lcfi253:
	.cfi_offset r15, -24
.Lcfi254:
	.cfi_offset rbp, -16
	mov	r15, rdx
	mov	r13, rsi
	mov	r14, rdi
	mov	eax, dword ptr [rip + x.142]
	mov	ecx, dword ptr [rip + y.143]
	lea	edx, [rax - 1]
	imul	edx, eax
	not	edx
	or	edx, -2
	cmp	edx, -1
	sete	byte ptr [rsp + 13]
	cmp	ecx, 10
	setl	byte ptr [rsp + 14]
	mov	ecx, -21370695


	jmp	.LBB53_1
.LBB53_10:                              
	mov	rdi, qword ptr [rsp + 24]
	call	_ZSt4moveIRNSt7__cxx1112basic_stringIcSt11char_traitsIcESaIcEEEEONSt16remove_referenceIT_E4typeEOS8_
	mov	rdi, r14
	mov	rsi, rax
	call	_ZNSt7__cxx1112basic_stringIcSt11char_traitsIcESaIcEEC2EOS4_
	mov	ecx, 416346592
	.p2align	4, 0x90
.LBB53_1:                               
	cmp	ecx, 267631422
	jg	.LBB53_25

	cmp	ecx, -760261185
	jle	.LBB53_3

	cmp	ecx, -21370696
	jle	.LBB53_12

	cmp	ecx, -21370695
	je	.LBB53_41

	cmp	ecx, 99962713
	je	.LBB53_72

	cmp	ecx, 144963586
	jne	.LBB53_1

	mov	ecx, dword ptr [rip + x.142]
	mov	eax, dword ptr [rip + y.143]
	lea	edx, [rcx - 1]
	imul	edx, ecx
	not	edx
	or	edx, -2
	cmp	edx, -1
	sete	cl
	cmp	eax, 10
	setl	bl
	xor	bl, cl
	mov	ecx, 416346592
	mov	esi, 416346592
	jne	.LBB53_24

	mov	esi, -959886441
.LBB53_24:                              
	cmp	edx, -1
	cmovne	ecx, esi
	cmp	eax, 10
	mov	qword ptr [rsp + 24], r12
	cmovge	ecx, esi
	jmp	.LBB53_1
	.p2align	4, 0x90
.LBB53_25:                              
	cmp	ecx, 781343176
	jg	.LBB53_34

	cmp	ecx, 514887598
	jg	.LBB53_31

	cmp	ecx, 416346592
	je	.LBB53_67

	cmp	ecx, 418960754
	je	.LBB53_56

	cmp	ecx, 267631423
	jne	.LBB53_1
	jmp	.LBB53_30
	.p2align	4, 0x90
.LBB53_3:                               
	cmp	ecx, -2023134810
	jg	.LBB53_8

	cmp	ecx, -2091146326
	je	.LBB53_71

	cmp	ecx, -2048948174
	jne	.LBB53_1

	movzx	eax, byte ptr [rsp + 12]
	test	al, al
	mov	ecx, 418960754
	jne	.LBB53_1

	mov	ecx, 514887599
	jmp	.LBB53_1
	.p2align	4, 0x90
.LBB53_34:                              
	cmp	ecx, 1484059377
	jg	.LBB53_38

	cmp	ecx, 781343177
	je	.LBB53_51

	cmp	ecx, 892970269
	jne	.LBB53_1

	mov	rdi, r15
	call	_ZNKSt7__cxx1112basic_stringIcSt11char_traitsIcESaIcEE8capacityEv
	mov	rcx, qword ptr [rsp + 16]
	cmp	rcx, rax
	setbe	bpl
	mov	ecx, 781343177
	jmp	.LBB53_1
.LBB53_12:                              
	cmp	ecx, -760261184
	je	.LBB53_48

	cmp	ecx, -301146838
	jne	.LBB53_1

	mov	ecx, dword ptr [rip + x.142]
	mov	eax, dword ptr [rip + y.143]
	lea	esi, [rcx - 1]
	imul	esi, ecx
	mov	edx, esi
	xor	edx, -2
	and	edx, esi
	sete	cl
	cmp	eax, 10
	setl	bl
	xor	bl, cl
	mov	esi, -2048948174
	mov	ecx, -2048948174
	jne	.LBB53_16

	mov	ecx, 589246018
.LBB53_16:                              
	test	edx, edx
	je	.LBB53_18

	mov	esi, ecx
.LBB53_18:                              
	cmp	eax, 10
	movzx	eax, byte ptr [rsp + 12]
	cmovl	ecx, esi
	jmp	.LBB53_1
.LBB53_31:                              
	cmp	ecx, 514887599
	je	.LBB53_57

	cmp	ecx, 589246018
	jne	.LBB53_1

	movzx	eax, byte ptr [rsp + 12]
	mov	ecx, -301146838
	jmp	.LBB53_1
.LBB53_8:                               
	cmp	ecx, -2023134809
	je	.LBB53_62

	cmp	ecx, -959886441
	jne	.LBB53_1
	jmp	.LBB53_10
.LBB53_38:                              
	cmp	ecx, 1484059378
	je	.LBB53_44

	cmp	ecx, 1801184183
	jne	.LBB53_1

	mov	ecx, 144963586
	mov	r12, qword ptr [rsp + 32]
	jmp	.LBB53_1
.LBB53_41:                              
	movzx	eax, byte ptr [rsp + 13]
	movzx	edx, byte ptr [rsp + 14]
	mov	ecx, eax
	xor	cl, dl
	mov	ecx, 1484059378
	mov	esi, 1484059378
	jne	.LBB53_43

	mov	esi, -2091146326
.LBB53_43:                              
	test	dl, dl
	cmove	ecx, esi
	test	al, al
	cmove	ecx, esi
	jmp	.LBB53_1
.LBB53_72:                              
	mov	rdi, r13
	mov	rsi, r15
	call	_ZNSt7__cxx1112basic_stringIcSt11char_traitsIcESaIcEE6appendERKS4_
	mov	ecx, -2023134809
	jmp	.LBB53_1
.LBB53_67:                              
	mov	rdi, qword ptr [rsp + 24]
	call	_ZSt4moveIRNSt7__cxx1112basic_stringIcSt11char_traitsIcESaIcEEEEONSt16remove_referenceIT_E4typeEOS8_
	mov	rdi, r14
	mov	rsi, rax
	call	_ZNSt7__cxx1112basic_stringIcSt11char_traitsIcESaIcEEC2EOS4_
	mov	ecx, dword ptr [rip + x.142]
	mov	eax, dword ptr [rip + y.143]
	lea	edx, [rcx - 1]
	imul	edx, ecx
	mov	ecx, edx
	xor	ecx, -2
	and	ecx, edx
	sete	bl
	test	ecx, ecx
	mov	ecx, 267631423
	mov	edx, -959886441
	mov	esi, 267631423
	je	.LBB53_69

	mov	esi, -959886441
.LBB53_69:                              
	cmp	eax, 10
	setl	al
	cmovl	edx, esi
	xor	al, bl
	jne	.LBB53_1

	mov	ecx, edx
	jmp	.LBB53_1
.LBB53_56:                              
	xor	esi, esi
	mov	rdi, r15
	mov	rdx, r13
	call	_ZNSt7__cxx1112basic_stringIcSt11char_traitsIcESaIcEE6insertEmRKS4_
	mov	r12, rax
	mov	ecx, 144963586
	jmp	.LBB53_1
.LBB53_71:                              
	mov	rdi, r13
	call	_ZNKSt7__cxx1112basic_stringIcSt11char_traitsIcESaIcEE4sizeEv
	mov	rdi, r15
	call	_ZNKSt7__cxx1112basic_stringIcSt11char_traitsIcESaIcEE4sizeEv
	mov	rdi, r13
	call	_ZNKSt7__cxx1112basic_stringIcSt11char_traitsIcESaIcEE8capacityEv
	mov	ecx, 1484059378
	jmp	.LBB53_1
.LBB53_51:                              
	mov	ecx, dword ptr [rip + x.142]
	mov	eax, dword ptr [rip + y.143]
	lea	esi, [rcx - 1]
	imul	esi, ecx
	mov	edx, esi
	xor	edx, -2
	and	edx, esi
	sete	cl
	cmp	eax, 10
	setl	bl
	xor	bl, cl
	mov	esi, -301146838
	mov	ecx, -301146838
	jne	.LBB53_53

	mov	ecx, 589246018
.LBB53_53:                              
	test	edx, edx
	je	.LBB53_55

	mov	esi, ecx
.LBB53_55:                              
	cmp	eax, 10
	cmovl	ecx, esi
	mov	eax, ebp
	and	al, 1
	mov	byte ptr [rsp + 12], al
	jmp	.LBB53_1
.LBB53_48:                              
	movzx	eax, byte ptr [rsp + 15]
	test	al, al
	mov	ecx, 892970269
	jne	.LBB53_50

	mov	ecx, 781343177
.LBB53_50:                              
	xor	ebp, ebp
	jmp	.LBB53_1
.LBB53_57:                              
	mov	ecx, dword ptr [rip + x.142]
	mov	eax, dword ptr [rip + y.143]
	mov	esi, ecx
	neg	esi
	not	esi
	imul	esi, ecx
	mov	edx, esi
	xor	edx, -2
	and	edx, esi
	sete	cl
	cmp	eax, 10
	setl	bl
	xor	bl, cl
	mov	esi, -2023134809
	mov	ecx, -2023134809
	jne	.LBB53_59

	mov	ecx, 99962713
.LBB53_59:                              
	test	edx, edx
	je	.LBB53_61

	mov	esi, ecx
.LBB53_61:                              
	cmp	eax, 10
	cmovl	ecx, esi
	jmp	.LBB53_1
.LBB53_62:                              
	mov	rdi, r13
	mov	rsi, r15
	call	_ZNSt7__cxx1112basic_stringIcSt11char_traitsIcESaIcEE6appendERKS4_
	mov	ecx, dword ptr [rip + x.142]
	mov	edx, dword ptr [rip + y.143]
	lea	edi, [rcx - 1]
	imul	edi, ecx
	mov	esi, edi
	xor	esi, -2
	and	esi, edi
	sete	cl
	cmp	edx, 10
	setl	bl
	xor	bl, cl
	mov	edi, 1801184183
	mov	ecx, 1801184183
	jne	.LBB53_64

	mov	ecx, 99962713
.LBB53_64:                              
	test	esi, esi
	je	.LBB53_66

	mov	edi, ecx
.LBB53_66:                              
	cmp	edx, 10
	mov	qword ptr [rsp + 32], rax
	cmovl	ecx, edi
	jmp	.LBB53_1
.LBB53_44:                              
	mov	rdi, r13
	call	_ZNKSt7__cxx1112basic_stringIcSt11char_traitsIcESaIcEE4sizeEv
	mov	rbx, rax
	mov	rdi, r15
	call	_ZNKSt7__cxx1112basic_stringIcSt11char_traitsIcESaIcEE4sizeEv
	movabs	rcx, 4399314169472514407
	add	rax, rcx
	add	rax, rbx
	sub	rax, rcx
	mov	qword ptr [rsp + 16], rax
	mov	rdi, r13
	call	_ZNKSt7__cxx1112basic_stringIcSt11char_traitsIcESaIcEE8capacityEv
	mov	rcx, qword ptr [rsp + 16]
	cmp	rcx, rax
	seta	byte ptr [rsp + 15]
	mov	ecx, dword ptr [rip + x.142]
	mov	eax, dword ptr [rip + y.143]
	mov	edx, ecx
	neg	edx
	not	edx
	imul	edx, ecx
	mov	ecx, edx
	xor	ecx, -2
	and	ecx, edx
	sete	bl
	test	ecx, ecx
	mov	ecx, -760261184
	mov	edx, -2091146326
	mov	esi, -760261184
	je	.LBB53_46

	mov	esi, -2091146326
.LBB53_46:                              
	cmp	eax, 10
	setl	al
	cmovl	edx, esi
	xor	al, bl
	jne	.LBB53_1

	mov	ecx, edx
	jmp	.LBB53_1
.LBB53_30:
	mov	rax, r14
	add	rsp, 40
	pop	rbx
	pop	r12
	pop	r13
	pop	r14
	pop	r15
	pop	rbp
	ret
.Lfunc_end53:
	.size	_ZStplIcSt11char_traitsIcESaIcEENSt7__cxx1112basic_stringIT_T0_T1_EEOS8_S9_, .Lfunc_end53-_ZStplIcSt11char_traitsIcESaIcEENSt7__cxx1112basic_stringIT_T0_T1_EEOS8_S9_
	.cfi_endproc

	.section	.text._ZNSt6bitsetILm4EEC2Ey,"axG",@progbits,_ZNSt6bitsetILm4EEC2Ey,comdat
	.weak	_ZNSt6bitsetILm4EEC2Ey  
	.p2align	4, 0x90
	.type	_ZNSt6bitsetILm4EEC2Ey,@function
_ZNSt6bitsetILm4EEC2Ey:                 

	push	rbx
	mov	rbx, rdi
	mov	rdi, rsi
	call	_ZNSt13_Sanitize_valILm4ELb1EE18_S_do_sanitize_valEy
	mov	rdi, rbx
	mov	rsi, rax
	pop	rbx
	jmp	_ZNSt12_Base_bitsetILm1EEC2Ey 
.Lfunc_end54:
	.size	_ZNSt6bitsetILm4EEC2Ey, .Lfunc_end54-_ZNSt6bitsetILm4EEC2Ey

	.section	.text._ZNKSt6bitsetILm4EE9to_stringB5cxx11Ev,"axG",@progbits,_ZNKSt6bitsetILm4EE9to_stringB5cxx11Ev,comdat
	.weak	_ZNKSt6bitsetILm4EE9to_stringB5cxx11Ev 
	.p2align	4, 0x90
	.type	_ZNKSt6bitsetILm4EE9to_stringB5cxx11Ev,@function
_ZNKSt6bitsetILm4EE9to_stringB5cxx11Ev: 
	.cfi_startproc

	push	rbp
.Lcfi255:
	.cfi_def_cfa_offset 16
	push	r15
.Lcfi256:
	.cfi_def_cfa_offset 24
	push	r14
.Lcfi257:
	.cfi_def_cfa_offset 32
	push	r13
.Lcfi258:
	.cfi_def_cfa_offset 40
	push	r12
.Lcfi259:
	.cfi_def_cfa_offset 48
	push	rbx
.Lcfi260:
	.cfi_def_cfa_offset 56
	push	rax
.Lcfi261:
	.cfi_def_cfa_offset 64
.Lcfi262:
	.cfi_offset rbx, -56
.Lcfi263:
	.cfi_offset r12, -48
.Lcfi264:
	.cfi_offset r13, -40
.Lcfi265:
	.cfi_offset r14, -32
.Lcfi266:
	.cfi_offset r15, -24
.Lcfi267:
	.cfi_offset rbp, -16
	mov	r14, rsi
	mov	rbp, rdi
	mov	eax, dword ptr [rip + x.146]
	lea	ecx, [rax - 1]
	imul	ecx, eax
	mov	eax, ecx
	xor	eax, -2
	test	eax, ecx
	sete	byte ptr [rsp + 6]
	mov	eax, dword ptr [rip + y.147]
	cmp	eax, 10
	setl	byte ptr [rsp + 7]
	mov	eax, -1156119253
	mov	r12d, 297664837
	mov	r15d, -1052367561
	mov	r13d, -653960975
	jmp	.LBB55_1
.LBB55_9:                               
	movzx	ecx, byte ptr [rsp + 6]
	movzx	eax, byte ptr [rsp + 7]
	mov	edx, ecx
	xor	dl, al
	test	al, al
	mov	eax, -1052367561
	cmovne	eax, r12d
	test	cl, cl
	cmove	eax, r15d
	test	dl, dl
	cmovne	eax, r12d
	.p2align	4, 0x90
.LBB55_1:                               
	cmp	eax, -653960976
	jg	.LBB55_5

	cmp	eax, -1156119253
	je	.LBB55_9

	cmp	eax, -1052367561
	jne	.LBB55_1

	mov	rdi, rbp
	mov	rsi, r14
	call	_ZNKSt6bitsetILm4EE9to_stringIcSt11char_traitsIcESaIcEEENSt7__cxx1112basic_stringIT_T0_T1_EEv
	mov	eax, 297664837
	jmp	.LBB55_1
	.p2align	4, 0x90
.LBB55_5:                               
	cmp	eax, -653960975
	je	.LBB55_8

	cmp	eax, 297664837
	jne	.LBB55_1

	mov	rdi, rbp
	mov	rsi, r14
	call	_ZNKSt6bitsetILm4EE9to_stringIcSt11char_traitsIcESaIcEEENSt7__cxx1112basic_stringIT_T0_T1_EEv
	mov	eax, dword ptr [rip + x.146]
	mov	ecx, dword ptr [rip + y.147]
	lea	edx, [rax - 1]
	imul	edx, eax
	not	edx
	or	edx, -2
	cmp	edx, -1
	sete	al
	cmp	ecx, 10
	setl	bl
	xor	bl, al
	mov	esi, -1052367561
	cmovne	esi, r13d
	cmp	edx, -1
	mov	eax, esi
	cmove	eax, r13d
	cmp	ecx, 10
	cmovge	eax, esi
	jmp	.LBB55_1
.LBB55_8:
	mov	rax, rbp
	add	rsp, 8
	pop	rbx
	pop	r12
	pop	r13
	pop	r14
	pop	r15
	pop	rbp
	ret
.Lfunc_end55:
	.size	_ZNKSt6bitsetILm4EE9to_stringB5cxx11Ev, .Lfunc_end55-_ZNKSt6bitsetILm4EE9to_stringB5cxx11Ev
	.cfi_endproc

	.section	.text._ZNSt7__cxx1112basic_stringIcSt11char_traitsIcESaIcEEpLERKS4_,"axG",@progbits,_ZNSt7__cxx1112basic_stringIcSt11char_traitsIcESaIcEEpLERKS4_,comdat
	.weak	_ZNSt7__cxx1112basic_stringIcSt11char_traitsIcESaIcEEpLERKS4_ 
	.p2align	4, 0x90
	.type	_ZNSt7__cxx1112basic_stringIcSt11char_traitsIcESaIcEEpLERKS4_,@function
_ZNSt7__cxx1112basic_stringIcSt11char_traitsIcESaIcEEpLERKS4_: 
	.cfi_startproc

	jmp	_ZNSt7__cxx1112basic_stringIcSt11char_traitsIcESaIcEE6appendERKS4_ 
.Lfunc_end56:
	.size	_ZNSt7__cxx1112basic_stringIcSt11char_traitsIcESaIcEEpLERKS4_, .Lfunc_end56-_ZNSt7__cxx1112basic_stringIcSt11char_traitsIcESaIcEEpLERKS4_
	.cfi_endproc

	.text
	.globl	_ZN3DES13straightPermuERKNSt7__cxx1112basic_stringIcSt11char_traitsIcESaIcEEE 
	.p2align	4, 0x90
	.type	_ZN3DES13straightPermuERKNSt7__cxx1112basic_stringIcSt11char_traitsIcESaIcEEE,@function
_ZN3DES13straightPermuERKNSt7__cxx1112basic_stringIcSt11char_traitsIcESaIcEEE: 
	.cfi_startproc

	push	rbp
.Lcfi268:
	.cfi_def_cfa_offset 16
	push	r15
.Lcfi269:
	.cfi_def_cfa_offset 24
	push	r14
.Lcfi270:
	.cfi_def_cfa_offset 32
	push	r13
.Lcfi271:
	.cfi_def_cfa_offset 40
	push	r12
.Lcfi272:
	.cfi_def_cfa_offset 48
	push	rbx
.Lcfi273:
	.cfi_def_cfa_offset 56
	sub	rsp, 120
.Lcfi274:
	.cfi_def_cfa_offset 176
.Lcfi275:
	.cfi_offset rbx, -56
.Lcfi276:
	.cfi_offset r12, -48
.Lcfi277:
	.cfi_offset r13, -40
.Lcfi278:
	.cfi_offset r14, -32
.Lcfi279:
	.cfi_offset r15, -24
.Lcfi280:
	.cfi_offset rbp, -16
	mov	r15, rsi
	mov	qword ptr [rsp + 56], rdi 
	lea	rax, [rsp + 112]
	mov	qword ptr [rsp + 64], rax
	lea	rdi, [rsp + 16]
	mov	qword ptr [rsp + 40], rdi
	mov	rax, qword ptr [rsp + 40]
	call	_ZNSt6bitsetILm32EEC2Ev
	lea	r12, [rsp + 32]
	mov	qword ptr [rsp + 48], r12
	mov	rax, qword ptr [rsp + 48]
	mov	rdi, r15
	call	_ZNKSt7__cxx1112basic_stringIcSt11char_traitsIcESaIcEE5beginEv
	mov	qword ptr [rsp + 24], rax 
	mov	ecx, -208710653
	mov	r13, r12
	jmp	.LBB57_1
.LBB57_19:                              
	cmovge	ecx, edi
	xor	al, dl
	cmovne	ecx, esi
	.p2align	4, 0x90
.LBB57_1:                               
	cmp	ecx, -208710654
	jg	.LBB57_14

	cmp	ecx, -1317983415
	jle	.LBB57_3

	cmp	ecx, -872236285
	jg	.LBB57_11

	cmp	ecx, -1317983414
	je	.LBB57_32

	cmp	ecx, -1218309756
	jne	.LBB57_1

	mov	rdi, r12
	call	_ZNK9__gnu_cxx17__normal_iteratorIPKcNSt7__cxx1112basic_stringIcSt11char_traitsIcESaIcEEEEdeEv
	mov	ecx, 1186701546
	jmp	.LBB57_1
	.p2align	4, 0x90
.LBB57_14:                              
	cmp	ecx, 1272649697
	jle	.LBB57_15

	cmp	ecx, 1494748451
	jg	.LBB57_25

	cmp	ecx, 1272649698
	je	.LBB57_28

	cmp	ecx, 1427182098
	jne	.LBB57_1

	mov	eax, dword ptr [rip + x.150]
	lea	ecx, [rax - 1]
	imul	ecx, eax
	mov	eax, ecx
	xor	eax, -2
	and	eax, ecx
	sete	dl
	test	eax, eax
	mov	ecx, -2145479544
	mov	edi, -1692629230
	cmove	ecx, edi
	cmp	dword ptr [rip + y.151], 10
	setl	al
	mov	esi, -2145479544
	jmp	.LBB57_24
	.p2align	4, 0x90
.LBB57_3:                               
	cmp	ecx, -2145479544
	je	.LBB57_33

	cmp	ecx, -1786847438
	je	.LBB57_31

	cmp	ecx, -1692629230
	jne	.LBB57_1

	mov	edi, _ZN3DES24straightPermutationTableE
	call	_ZNKSt5arrayIiLm32EE5beginEv
	mov	r14, rax
	mov	edi, _ZN3DES24straightPermutationTableE
	call	_ZNKSt5arrayIiLm32EE5beginEv
	mov	rbx, rax
	mov	edi, _ZN3DES24straightPermutationTableE
	call	_ZNKSt5arrayIiLm32EE3endEv
	mov	rbp, rax
	mov	rdi, r15
	call	_ZNKSt7__cxx1112basic_stringIcSt11char_traitsIcESaIcEE5beginEv
	mov	rsi, qword ptr [rsp + 32]
	mov	rdi, rax
	call	_ZSt8distanceIN9__gnu_cxx17__normal_iteratorIPKcNSt7__cxx1112basic_stringIcSt11char_traitsIcESaIcEEEEEENSt15iterator_traitsIT_E15difference_typeESC_SC_
	inc	rax
	mov	qword ptr [rsp + 80], rax
	mov	rdi, rbx
	mov	rsi, rbp
	lea	rdx, [rsp + 80]
	call	_ZSt4findIPKilET_S2_S2_RKT0_
	mov	rdi, r14
	mov	rsi, rax
	call	_ZSt8distanceIPKiENSt15iterator_traitsIT_E15difference_typeES3_S3_
	mov	ecx, 31
	movabs	rdx, -8680837753060504110
	sub	ecx, edx
	sub	ecx, eax
	add	ecx, edx
	movsxd	rsi, ecx
	mov	edx, 1
	lea	rdi, [rsp + 16]
	call	_ZNSt6bitsetILm32EE3setEmb
	mov	eax, dword ptr [rip + x.150]
	lea	ecx, [rax - 1]
	imul	ecx, eax
	mov	eax, ecx
	xor	eax, -2
	and	eax, ecx
	sete	dl
	test	eax, eax
	mov	ecx, -2145479544
	mov	esi, -413974213
	cmove	ecx, esi
	cmp	dword ptr [rip + y.151], 10
	setl	al
	mov	edi, -2145479544
	jmp	.LBB57_19
	.p2align	4, 0x90
.LBB57_15:                              
	cmp	ecx, -208710653
	je	.LBB57_35

	cmp	ecx, 140912765
	je	.LBB57_29

	cmp	ecx, 1186701546
	jne	.LBB57_1

	mov	rdi, r12
	call	_ZNK9__gnu_cxx17__normal_iteratorIPKcNSt7__cxx1112basic_stringIcSt11char_traitsIcESaIcEEEEdeEv
	cmp	byte ptr [rax], 49
	sete	byte ptr [rsp + 15]
	mov	eax, dword ptr [rip + x.150]
	lea	ecx, [rax - 1]
	imul	ecx, eax
	mov	eax, ecx
	xor	eax, -2
	and	eax, ecx
	sete	dl
	test	eax, eax
	mov	ecx, -1218309756
	mov	esi, 140912765
	cmove	ecx, esi
	cmp	dword ptr [rip + y.151], 10
	setl	al
	mov	edi, -1218309756
	jmp	.LBB57_19
.LBB57_11:                              
	cmp	ecx, -872236284
	je	.LBB57_34

	cmp	ecx, -413974213
	jne	.LBB57_1

	mov	ecx, 1959945678
	jmp	.LBB57_1
.LBB57_25:                              
	cmp	ecx, 1959945678
	je	.LBB57_30

	cmp	ecx, 1494748452
	jne	.LBB57_1
	jmp	.LBB57_27
.LBB57_32:                              
	mov	r13, qword ptr [rsp + 64]
	mov	rax, qword ptr [rsp + 72]
	mov	qword ptr [rsp + 24], rax 
	mov	ecx, -208710653
	jmp	.LBB57_1
.LBB57_28:                              
	mov	eax, dword ptr [rip + x.150]
	mov	ecx, eax
	neg	ecx
	not	ecx
	imul	ecx, eax
	mov	eax, ecx
	xor	eax, -2
	and	eax, ecx
	sete	dl
	test	eax, eax
	mov	ecx, -1218309756
	mov	edi, 1186701546
	cmove	ecx, edi
	cmp	dword ptr [rip + y.151], 10
	setl	al
	mov	esi, -1218309756
.LBB57_24:                              
	cmovge	ecx, esi
	xor	al, dl
	cmovne	ecx, edi
	jmp	.LBB57_1
.LBB57_33:                              
	mov	edi, _ZN3DES24straightPermutationTableE
	call	_ZNKSt5arrayIiLm32EE5beginEv
	mov	r14, rax
	mov	edi, _ZN3DES24straightPermutationTableE
	call	_ZNKSt5arrayIiLm32EE5beginEv
	mov	rbx, rax
	mov	edi, _ZN3DES24straightPermutationTableE
	call	_ZNKSt5arrayIiLm32EE3endEv
	mov	rbp, rax
	mov	rdi, r15
	call	_ZNKSt7__cxx1112basic_stringIcSt11char_traitsIcESaIcEE5beginEv
	mov	rsi, qword ptr [rsp + 32]
	mov	rdi, rax
	call	_ZSt8distanceIN9__gnu_cxx17__normal_iteratorIPKcNSt7__cxx1112basic_stringIcSt11char_traitsIcESaIcEEEEEENSt15iterator_traitsIT_E15difference_typeESC_SC_
	movabs	rcx, 4270346913556094442
	lea	rax, [rax + rcx + 1]
	sub	rax, rcx
	mov	qword ptr [rsp + 80], rax
	mov	rdi, rbx
	mov	rsi, rbp
	lea	rdx, [rsp + 80]
	call	_ZSt4findIPKilET_S2_S2_RKT0_
	mov	rdi, r14
	mov	rsi, rax
	call	_ZSt8distanceIPKiENSt15iterator_traitsIT_E15difference_typeES3_S3_
	mov	ecx, 31
	sub	ecx, eax
	movsxd	rsi, ecx
	mov	edx, 1
	lea	rdi, [rsp + 16]
	call	_ZNSt6bitsetILm32EE3setEmb
	mov	ecx, -1692629230
	jmp	.LBB57_1
.LBB57_31:                              
	xor	esi, esi
	mov	rdi, r12
	call	_ZN9__gnu_cxx17__normal_iteratorIPKcNSt7__cxx1112basic_stringIcSt11char_traitsIcESaIcEEEEppEi
	mov	ecx, dword ptr [rip + x.150]
	mov	edi, dword ptr [rip + y.151]
	mov	esi, ecx
	neg	esi
	not	esi
	imul	esi, ecx
	mov	ecx, esi
	xor	ecx, -2
	and	ecx, esi
	sete	bl
	cmp	edi, 10
	setl	dl
	xor	dl, bl
	mov	edx, -872236284
	mov	esi, -1317983414
	cmovne	edx, esi
	test	ecx, ecx
	mov	ecx, edx
	cmove	ecx, esi
	cmp	edi, 10
	mov	qword ptr [rsp + 72], rax
	cmovge	ecx, edx
	jmp	.LBB57_1
.LBB57_35:                              
	mov	rax, qword ptr [rsp + 24] 
	mov	qword ptr [r13], rax
	mov	rdi, r15
	call	_ZNKSt7__cxx1112basic_stringIcSt11char_traitsIcESaIcEE3endEv
	mov	qword ptr [rsp + 80], rax
	mov	rdi, r12
	lea	rsi, [rsp + 80]
	call	_ZN9__gnu_cxxltIPKcNSt7__cxx1112basic_stringIcSt11char_traitsIcESaIcEEEEEbRKNS_17__normal_iteratorIT_T0_EESE_
	test	al, al
	mov	ecx, 1494748452
	mov	eax, 1272649698
	cmovne	ecx, eax
	jmp	.LBB57_1
.LBB57_29:                              
	movzx	eax, byte ptr [rsp + 15]
	test	al, al
	mov	ecx, 1959945678
	mov	eax, 1427182098
	cmovne	ecx, eax
	jmp	.LBB57_1
.LBB57_34:                              
	xor	esi, esi
	mov	rdi, r12
	call	_ZN9__gnu_cxx17__normal_iteratorIPKcNSt7__cxx1112basic_stringIcSt11char_traitsIcESaIcEEEEppEi
	mov	ecx, -1786847438
	jmp	.LBB57_1
.LBB57_30:                              
	mov	eax, dword ptr [rip + x.150]
	lea	ecx, [rax - 1]
	imul	ecx, eax
	not	ecx
	or	ecx, -2
	cmp	ecx, -1
	sete	al
	mov	ecx, -872236284
	mov	edi, -1786847438
	cmove	ecx, edi
	cmp	dword ptr [rip + y.151], 10
	setl	dl
	mov	esi, -872236284
	cmovge	ecx, esi
	xor	dl, al
	cmovne	ecx, edi
	jmp	.LBB57_1
.LBB57_27:
	mov	rax, qword ptr [rsp + 48]
	lea	rbx, [rsp + 80]
	lea	rsi, [rsp + 16]
	mov	rdi, rbx
	call	_ZNKSt6bitsetILm32EE9to_stringB5cxx11Ev
	mov	rdi, qword ptr [rsp + 56] 
	add	rdi, 424
	mov	rsi, rbx
	call	_ZNSt7__cxx1112basic_stringIcSt11char_traitsIcESaIcEEaSEOS4_
	mov	rdi, rbx
	call	_ZNSt7__cxx1112basic_stringIcSt11char_traitsIcESaIcEED2Ev
	mov	rax, qword ptr [rsp + 40]
	add	rsp, 120
	pop	rbx
	pop	r12
	pop	r13
	pop	r14
	pop	r15
	pop	rbp
	ret
.Lfunc_end57:
	.size	_ZN3DES13straightPermuERKNSt7__cxx1112basic_stringIcSt11char_traitsIcESaIcEEE, .Lfunc_end57-_ZN3DES13straightPermuERKNSt7__cxx1112basic_stringIcSt11char_traitsIcESaIcEEE
	.cfi_endproc

	.section	.text._ZNKSt5arrayIiLm32EE5beginEv,"axG",@progbits,_ZNKSt5arrayIiLm32EE5beginEv,comdat
	.weak	_ZNKSt5arrayIiLm32EE5beginEv 
	.p2align	4, 0x90
	.type	_ZNKSt5arrayIiLm32EE5beginEv,@function
_ZNKSt5arrayIiLm32EE5beginEv:           

	push	rbp
	push	r15
	push	r14
	push	r12
	push	rbx
	sub	rsp, 16
	mov	rbp, rdi
	mov	eax, dword ptr [rip + x.152]
	lea	ecx, [rax - 1]
	imul	ecx, eax
	mov	eax, ecx
	xor	eax, -2
	test	eax, ecx
	sete	byte ptr [rsp + 6]
	mov	eax, dword ptr [rip + y.153]
	cmp	eax, 10
	setl	byte ptr [rsp + 7]
	mov	ecx, -485377711
	mov	r15d, 1652431077
	mov	r14d, -630497147
	mov	r12d, 643496450
	jmp	.LBB58_1
.LBB58_4:                               
	movzx	eax, byte ptr [rsp + 6]
	movzx	ecx, byte ptr [rsp + 7]
	mov	edx, eax
	xor	dl, cl
	test	cl, cl
	mov	ecx, -630497147
	cmovne	ecx, r15d
	test	al, al
	cmove	ecx, r14d
	test	dl, dl
	cmovne	ecx, r15d
	.p2align	4, 0x90
.LBB58_1:                               
	cmp	ecx, 643496449
	jg	.LBB58_5

	cmp	ecx, -630497147
	je	.LBB58_9

	cmp	ecx, -485377711
	jne	.LBB58_1
	jmp	.LBB58_4
	.p2align	4, 0x90
.LBB58_5:                               
	cmp	ecx, 643496450
	je	.LBB58_8

	cmp	ecx, 1652431077
	jne	.LBB58_1

	mov	rdi, rbp
	call	_ZNKSt5arrayIiLm32EE4dataEv
	mov	ecx, dword ptr [rip + x.152]
	mov	edx, dword ptr [rip + y.153]
	lea	esi, [rcx - 1]
	imul	esi, ecx
	not	esi
	or	esi, -2
	cmp	esi, -1
	sete	cl
	cmp	edx, 10
	setl	bl
	xor	bl, cl
	mov	edi, -630497147
	cmovne	edi, r12d
	cmp	esi, -1
	mov	ecx, edi
	cmove	ecx, r12d
	cmp	edx, 10
	mov	qword ptr [rsp + 8], rax
	cmovge	ecx, edi
	jmp	.LBB58_1
.LBB58_9:                               
	mov	rdi, rbp
	call	_ZNKSt5arrayIiLm32EE4dataEv
	mov	ecx, 1652431077
	jmp	.LBB58_1
.LBB58_8:
	mov	rax, qword ptr [rsp + 8]
	add	rsp, 16
	pop	rbx
	pop	r12
	pop	r14
	pop	r15
	pop	rbp
	ret
.Lfunc_end58:
	.size	_ZNKSt5arrayIiLm32EE5beginEv, .Lfunc_end58-_ZNKSt5arrayIiLm32EE5beginEv

	.section	.text._ZNKSt5arrayIiLm32EE3endEv,"axG",@progbits,_ZNKSt5arrayIiLm32EE3endEv,comdat
	.weak	_ZNKSt5arrayIiLm32EE3endEv 
	.p2align	4, 0x90
	.type	_ZNKSt5arrayIiLm32EE3endEv,@function
_ZNKSt5arrayIiLm32EE3endEv:             

	push	rax
	call	_ZNKSt5arrayIiLm32EE4dataEv
	sub	rax, -128
	pop	rcx
	ret
.Lfunc_end59:
	.size	_ZNKSt5arrayIiLm32EE3endEv, .Lfunc_end59-_ZNKSt5arrayIiLm32EE3endEv

	.section	.text._ZNSt6bitsetILm32EE3setEmb,"axG",@progbits,_ZNSt6bitsetILm32EE3setEmb,comdat
	.weak	_ZNSt6bitsetILm32EE3setEmb 
	.p2align	4, 0x90
	.type	_ZNSt6bitsetILm32EE3setEmb,@function
_ZNSt6bitsetILm32EE3setEmb:             
	.cfi_startproc

	push	rbp
.Lcfi281:
	.cfi_def_cfa_offset 16
	push	r15
.Lcfi282:
	.cfi_def_cfa_offset 24
	push	r14
.Lcfi283:
	.cfi_def_cfa_offset 32
	push	r13
.Lcfi284:
	.cfi_def_cfa_offset 40
	push	r12
.Lcfi285:
	.cfi_def_cfa_offset 48
	push	rbx
.Lcfi286:
	.cfi_def_cfa_offset 56
	sub	rsp, 24
.Lcfi287:
	.cfi_def_cfa_offset 80
.Lcfi288:
	.cfi_offset rbx, -56
.Lcfi289:
	.cfi_offset r12, -48
.Lcfi290:
	.cfi_offset r13, -40
.Lcfi291:
	.cfi_offset r14, -32
.Lcfi292:
	.cfi_offset r15, -24
.Lcfi293:
	.cfi_offset rbp, -16
	mov	r14, rsi
	mov	rbp, rdi
	mov	eax, dword ptr [rip + x.156]
	lea	ecx, [rax - 1]
	imul	ecx, eax
	not	ecx
	or	ecx, -2
	cmp	ecx, -1
	sete	byte ptr [rsp + 14]
	mov	eax, dword ptr [rip + y.157]
	cmp	eax, 10
	setl	byte ptr [rsp + 15]
	movzx	r13d, dl
	mov	ecx, -1410873826
	mov	r15d, 1531727795
	mov	r12d, -2089428706
	jmp	.LBB60_1
.LBB60_4:                               
	movzx	eax, byte ptr [rsp + 14]
	movzx	ecx, byte ptr [rsp + 15]
	mov	edx, eax
	xor	dl, cl
	mov	edx, 704056330
	cmovne	edx, r15d
	test	cl, cl
	mov	ecx, edx
	cmovne	ecx, r15d
	test	al, al
	cmove	ecx, edx
	.p2align	4, 0x90
.LBB60_1:                               
	cmp	ecx, 704056329
	jg	.LBB60_5

	cmp	ecx, -2089428706
	je	.LBB60_8

	cmp	ecx, -1410873826
	jne	.LBB60_1
	jmp	.LBB60_4
	.p2align	4, 0x90
.LBB60_5:                               
	cmp	ecx, 704056330
	je	.LBB60_9

	cmp	ecx, 1531727795
	jne	.LBB60_1

	mov	edx, .L.str.48
	mov	rdi, rbp
	mov	rsi, r14
	call	_ZNKSt6bitsetILm32EE8_M_checkEmPKc
	mov	rdi, rbp
	mov	rsi, r14
	mov	edx, r13d
	call	_ZNSt6bitsetILm32EE14_Unchecked_setEmi
	mov	ecx, dword ptr [rip + x.156]
	mov	edi, dword ptr [rip + y.157]
	lea	esi, [rcx - 1]
	imul	esi, ecx
	mov	ecx, esi
	xor	ecx, -2
	and	ecx, esi
	sete	bl
	cmp	edi, 10
	setl	dl
	xor	dl, bl
	mov	edx, 704056330
	cmovne	edx, r12d
	test	ecx, ecx
	mov	ecx, edx
	cmove	ecx, r12d
	cmp	edi, 10
	mov	qword ptr [rsp + 16], rax
	cmovge	ecx, edx
	jmp	.LBB60_1
.LBB60_9:                               
	mov	edx, .L.str.48
	mov	rdi, rbp
	mov	rsi, r14
	call	_ZNKSt6bitsetILm32EE8_M_checkEmPKc
	mov	rdi, rbp
	mov	rsi, r14
	mov	edx, r13d
	call	_ZNSt6bitsetILm32EE14_Unchecked_setEmi
	mov	ecx, 1531727795
	jmp	.LBB60_1
.LBB60_8:
	mov	rax, qword ptr [rsp + 16]
	add	rsp, 24
	pop	rbx
	pop	r12
	pop	r13
	pop	r14
	pop	r15
	pop	rbp
	ret
.Lfunc_end60:
	.size	_ZNSt6bitsetILm32EE3setEmb, .Lfunc_end60-_ZNSt6bitsetILm32EE3setEmb
	.cfi_endproc

	.section	.text._ZNSt6bitsetILm56EEC2Ev,"axG",@progbits,_ZNSt6bitsetILm56EEC2Ev,comdat
	.weak	_ZNSt6bitsetILm56EEC2Ev 
	.p2align	4, 0x90
	.type	_ZNSt6bitsetILm56EEC2Ev,@function
_ZNSt6bitsetILm56EEC2Ev:                

	jmp	_ZNSt12_Base_bitsetILm1EEC2Ev 
.Lfunc_end61:
	.size	_ZNSt6bitsetILm56EEC2Ev, .Lfunc_end61-_ZNSt6bitsetILm56EEC2Ev

	.section	.text._ZNKSt5arrayIiLm56EE5beginEv,"axG",@progbits,_ZNKSt5arrayIiLm56EE5beginEv,comdat
	.weak	_ZNKSt5arrayIiLm56EE5beginEv 
	.p2align	4, 0x90
	.type	_ZNKSt5arrayIiLm56EE5beginEv,@function
_ZNKSt5arrayIiLm56EE5beginEv:           

	push	rbp
	push	r15
	push	r14
	push	rbx
	sub	rsp, 24
	mov	rbx, rdi
	mov	eax, dword ptr [rip + x.160]
	lea	ecx, [rax - 1]
	imul	ecx, eax
	mov	eax, ecx
	xor	eax, -2
	test	eax, ecx
	sete	byte ptr [rsp + 14]
	mov	eax, dword ptr [rip + y.161]
	cmp	eax, 10
	setl	byte ptr [rsp + 15]
	mov	eax, 1740340299
	mov	r15d, 88615722
	mov	r14d, -104509522
	mov	ebp, 1532798179
	jmp	.LBB62_1
.LBB62_7:                               
	movzx	ecx, byte ptr [rsp + 14]
	movzx	eax, byte ptr [rsp + 15]
	mov	edx, ecx
	xor	dl, al
	mov	edx, -104509522
	cmovne	edx, ebp
	test	al, al
	mov	eax, edx
	cmovne	eax, ebp
	test	cl, cl
	cmove	eax, edx
	.p2align	4, 0x90
.LBB62_1:                               
	cmp	eax, 1532798178
	jg	.LBB62_5

	cmp	eax, -104509522
	je	.LBB62_9

	cmp	eax, 88615722
	jne	.LBB62_1
	jmp	.LBB62_4
	.p2align	4, 0x90
.LBB62_5:                               
	cmp	eax, 1532798179
	je	.LBB62_8

	cmp	eax, 1740340299
	jne	.LBB62_1
	jmp	.LBB62_7
.LBB62_9:                               
	mov	rdi, rbx
	call	_ZNKSt5arrayIiLm56EE4dataEv
	mov	eax, 1532798179
	jmp	.LBB62_1
.LBB62_8:                               
	mov	rdi, rbx
	call	_ZNKSt5arrayIiLm56EE4dataEv
	mov	qword ptr [rsp + 16], rax
	mov	eax, dword ptr [rip + x.160]
	lea	ecx, [rax - 1]
	imul	ecx, eax
	mov	eax, ecx
	xor	eax, -2
	and	eax, ecx
	sete	cl
	test	eax, eax
	mov	eax, -104509522
	cmove	eax, r15d
	cmp	dword ptr [rip + y.161], 10
	setl	dl
	cmovge	eax, r14d
	xor	dl, cl
	cmovne	eax, r15d
	jmp	.LBB62_1
.LBB62_4:
	mov	rax, qword ptr [rsp + 16]
	add	rsp, 24
	pop	rbx
	pop	r14
	pop	r15
	pop	rbp
	ret
.Lfunc_end62:
	.size	_ZNKSt5arrayIiLm56EE5beginEv, .Lfunc_end62-_ZNKSt5arrayIiLm56EE5beginEv

	.section	.text._ZSt4findIPKiiET_S2_S2_RKT0_,"axG",@progbits,_ZSt4findIPKiiET_S2_S2_RKT0_,comdat
	.weak	_ZSt4findIPKiiET_S2_S2_RKT0_ 
	.p2align	4, 0x90
	.type	_ZSt4findIPKiiET_S2_S2_RKT0_,@function
_ZSt4findIPKiiET_S2_S2_RKT0_:           
	.cfi_startproc

	push	r14
.Lcfi294:
	.cfi_def_cfa_offset 16
	push	rbx
.Lcfi295:
	.cfi_def_cfa_offset 24
	push	rax
.Lcfi296:
	.cfi_def_cfa_offset 32
.Lcfi297:
	.cfi_offset rbx, -24
.Lcfi298:
	.cfi_offset r14, -16
	mov	r14, rsi
	mov	rbx, rdi
	mov	rdi, rdx
	call	_ZN9__gnu_cxx5__ops17__iter_equals_valIKiEENS0_16_Iter_equals_valIT_EERS4_
	mov	rdi, rbx
	mov	rsi, r14
	mov	rdx, rax
	add	rsp, 8
	pop	rbx
	pop	r14
	jmp	_ZSt9__find_ifIPKiN9__gnu_cxx5__ops16_Iter_equals_valIS0_EEET_S6_S6_T0_ 
.Lfunc_end63:
	.size	_ZSt4findIPKiiET_S2_S2_RKT0_, .Lfunc_end63-_ZSt4findIPKiiET_S2_S2_RKT0_
	.cfi_endproc

	.section	.text._ZNKSt5arrayIiLm56EE3endEv,"axG",@progbits,_ZNKSt5arrayIiLm56EE3endEv,comdat
	.weak	_ZNKSt5arrayIiLm56EE3endEv 
	.p2align	4, 0x90
	.type	_ZNKSt5arrayIiLm56EE3endEv,@function
_ZNKSt5arrayIiLm56EE3endEv:             

	push	rax
	call	_ZNKSt5arrayIiLm56EE4dataEv
	add	rax, 224
	pop	rcx
	ret
.Lfunc_end64:
	.size	_ZNKSt5arrayIiLm56EE3endEv, .Lfunc_end64-_ZNKSt5arrayIiLm56EE3endEv

	.section	.text._ZNSt6bitsetILm56EE3setEmb,"axG",@progbits,_ZNSt6bitsetILm56EE3setEmb,comdat
	.weak	_ZNSt6bitsetILm56EE3setEmb 
	.p2align	4, 0x90
	.type	_ZNSt6bitsetILm56EE3setEmb,@function
_ZNSt6bitsetILm56EE3setEmb:             
	.cfi_startproc

	push	rbp
.Lcfi299:
	.cfi_def_cfa_offset 16
	push	r15
.Lcfi300:
	.cfi_def_cfa_offset 24
	push	r14
.Lcfi301:
	.cfi_def_cfa_offset 32
	push	r13
.Lcfi302:
	.cfi_def_cfa_offset 40
	push	r12
.Lcfi303:
	.cfi_def_cfa_offset 48
	push	rbx
.Lcfi304:
	.cfi_def_cfa_offset 56
	sub	rsp, 24
.Lcfi305:
	.cfi_def_cfa_offset 80
.Lcfi306:
	.cfi_offset rbx, -56
.Lcfi307:
	.cfi_offset r12, -48
.Lcfi308:
	.cfi_offset r13, -40
.Lcfi309:
	.cfi_offset r14, -32
.Lcfi310:
	.cfi_offset r15, -24
.Lcfi311:
	.cfi_offset rbp, -16
	mov	r14, rsi
	mov	rbx, rdi
	mov	eax, dword ptr [rip + x.166]
	mov	ecx, dword ptr [rip + y.167]
	lea	esi, [rax - 1]
	imul	esi, eax
	mov	eax, esi
	xor	eax, -2
	test	eax, esi
	sete	byte ptr [rsp + 14]
	cmp	ecx, 10
	setl	byte ptr [rsp + 15]
	movzx	ebp, dl
	mov	eax, 360198148
	mov	r15d, 1756356065
	mov	r12d, -168497826
	mov	r13d, 2030326904
	jmp	.LBB65_1
.LBB65_4:                               
	movzx	ecx, byte ptr [rsp + 14]
	movzx	eax, byte ptr [rsp + 15]
	mov	edx, ecx
	xor	dl, al
	mov	edx, -168497826
	cmovne	edx, r15d
	test	al, al
	mov	eax, edx
	cmovne	eax, r15d
	test	cl, cl
	cmove	eax, edx
	.p2align	4, 0x90
.LBB65_1:                               
	cmp	eax, 1756356064
	jle	.LBB65_2

	cmp	eax, 1756356065
	je	.LBB65_9

	cmp	eax, 2030326904
	jne	.LBB65_1
	jmp	.LBB65_7
	.p2align	4, 0x90
.LBB65_2:                               
	cmp	eax, -168497826
	je	.LBB65_8

	cmp	eax, 360198148
	jne	.LBB65_1
	jmp	.LBB65_4
.LBB65_9:                               
	mov	edx, .L.str.48
	mov	rdi, rbx
	mov	rsi, r14
	call	_ZNKSt6bitsetILm56EE8_M_checkEmPKc
	mov	rdi, rbx
	mov	rsi, r14
	mov	edx, ebp
	call	_ZNSt6bitsetILm56EE14_Unchecked_setEmi
	mov	qword ptr [rsp + 16], rax
	mov	eax, dword ptr [rip + x.166]
	mov	ecx, eax
	neg	ecx
	not	ecx
	imul	ecx, eax
	not	ecx
	or	ecx, -2
	cmp	ecx, -1
	sete	cl
	mov	eax, -168497826
	cmove	eax, r13d
	cmp	dword ptr [rip + y.167], 10
	setl	dl
	cmovge	eax, r12d
	xor	dl, cl
	cmovne	eax, r13d
	jmp	.LBB65_1
.LBB65_8:                               
	mov	edx, .L.str.48
	mov	rdi, rbx
	mov	rsi, r14
	call	_ZNKSt6bitsetILm56EE8_M_checkEmPKc
	mov	rdi, rbx
	mov	rsi, r14
	mov	edx, ebp
	call	_ZNSt6bitsetILm56EE14_Unchecked_setEmi
	mov	eax, 1756356065
	jmp	.LBB65_1
.LBB65_7:
	mov	rax, qword ptr [rsp + 16]
	add	rsp, 24
	pop	rbx
	pop	r12
	pop	r13
	pop	r14
	pop	r15
	pop	rbp
	ret
.Lfunc_end65:
	.size	_ZNSt6bitsetILm56EE3setEmb, .Lfunc_end65-_ZNSt6bitsetILm56EE3setEmb
	.cfi_endproc

	.section	.text._ZNKSt6bitsetILm56EE9to_stringB5cxx11Ev,"axG",@progbits,_ZNKSt6bitsetILm56EE9to_stringB5cxx11Ev,comdat
	.weak	_ZNKSt6bitsetILm56EE9to_stringB5cxx11Ev 
	.p2align	4, 0x90
	.type	_ZNKSt6bitsetILm56EE9to_stringB5cxx11Ev,@function
_ZNKSt6bitsetILm56EE9to_stringB5cxx11Ev: 
	.cfi_startproc

	push	rbx
.Lcfi312:
	.cfi_def_cfa_offset 16
.Lcfi313:
	.cfi_offset rbx, -16
	mov	rbx, rdi
	call	_ZNKSt6bitsetILm56EE9to_stringIcSt11char_traitsIcESaIcEEENSt7__cxx1112basic_stringIT_T0_T1_EEv
	mov	rax, rbx
	pop	rbx
	ret
.Lfunc_end66:
	.size	_ZNKSt6bitsetILm56EE9to_stringB5cxx11Ev, .Lfunc_end66-_ZNKSt6bitsetILm56EE9to_stringB5cxx11Ev
	.cfi_endproc

	.section	.text._ZNKSt5arrayIiLm48EE5beginEv,"axG",@progbits,_ZNKSt5arrayIiLm48EE5beginEv,comdat
	.weak	_ZNKSt5arrayIiLm48EE5beginEv 
	.p2align	4, 0x90
	.type	_ZNKSt5arrayIiLm48EE5beginEv,@function
_ZNKSt5arrayIiLm48EE5beginEv:           

	push	rbp
	push	r15
	push	r14
	push	rbx
	sub	rsp, 24
	mov	rbx, rdi
	mov	eax, dword ptr [rip + x.170]
	lea	ecx, [rax - 1]
	imul	ecx, eax
	not	ecx
	or	ecx, -2
	cmp	ecx, -1
	sete	byte ptr [rsp + 14]
	mov	eax, dword ptr [rip + y.171]
	cmp	eax, 10
	setl	byte ptr [rsp + 15]
	mov	eax, -1905955912
	mov	r14d, 1758030361
	mov	r15d, -1156961697
	mov	ebp, 1284203768
	jmp	.LBB67_1
.LBB67_9:                               
	movzx	ecx, byte ptr [rsp + 14]
	movzx	eax, byte ptr [rsp + 15]
	mov	edx, ecx
	xor	dl, al
	test	al, al
	mov	eax, -1156961697
	cmovne	eax, r14d
	test	cl, cl
	cmove	eax, r15d
	test	dl, dl
	cmovne	eax, r14d
	.p2align	4, 0x90
.LBB67_1:                               
	cmp	eax, 1284203767
	jg	.LBB67_5

	cmp	eax, -1905955912
	je	.LBB67_9

	cmp	eax, -1156961697
	jne	.LBB67_1

	mov	rdi, rbx
	call	_ZNKSt5arrayIiLm48EE4dataEv
	mov	eax, 1758030361
	jmp	.LBB67_1
	.p2align	4, 0x90
.LBB67_5:                               
	cmp	eax, 1284203768
	je	.LBB67_8

	cmp	eax, 1758030361
	jne	.LBB67_1

	mov	rdi, rbx
	call	_ZNKSt5arrayIiLm48EE4dataEv
	mov	qword ptr [rsp + 16], rax
	mov	eax, dword ptr [rip + x.170]
	lea	ecx, [rax - 1]
	imul	ecx, eax
	mov	eax, ecx
	xor	eax, -2
	and	eax, ecx
	sete	cl
	test	eax, eax
	mov	eax, -1156961697
	cmove	eax, ebp
	cmp	dword ptr [rip + y.171], 10
	setl	dl
	cmovge	eax, r15d
	xor	dl, cl
	cmovne	eax, ebp
	jmp	.LBB67_1
.LBB67_8:
	mov	rax, qword ptr [rsp + 16]
	add	rsp, 24
	pop	rbx
	pop	r14
	pop	r15
	pop	rbp
	ret
.Lfunc_end67:
	.size	_ZNKSt5arrayIiLm48EE5beginEv, .Lfunc_end67-_ZNKSt5arrayIiLm48EE5beginEv

	.section	.text._ZNKSt5arrayIiLm48EE3endEv,"axG",@progbits,_ZNKSt5arrayIiLm48EE3endEv,comdat
	.weak	_ZNKSt5arrayIiLm48EE3endEv 
	.p2align	4, 0x90
	.type	_ZNKSt5arrayIiLm48EE3endEv,@function
_ZNKSt5arrayIiLm48EE3endEv:             

	push	rbp
	push	r15
	push	r14
	push	r12
	push	rbx
	sub	rsp, 16
	mov	rbp, rdi
	mov	eax, dword ptr [rip + x.172]
	mov	ecx, eax
	neg	ecx
	not	ecx
	imul	ecx, eax
	not	ecx
	or	ecx, -2
	cmp	ecx, -1
	sete	byte ptr [rsp + 6]
	mov	eax, dword ptr [rip + y.173]
	cmp	eax, 10
	setl	byte ptr [rsp + 7]
	mov	ecx, 563570906
	mov	r15d, -519841730
	mov	r14d, -1755691212
	mov	r12d, -854841979
	jmp	.LBB68_1
.LBB68_7:                               
	movzx	eax, byte ptr [rsp + 6]
	movzx	ecx, byte ptr [rsp + 7]
	mov	edx, eax
	xor	dl, cl
	test	cl, cl
	mov	ecx, -1755691212
	cmovne	ecx, r12d
	test	al, al
	cmove	ecx, r14d
	test	dl, dl
	cmovne	ecx, r12d
	.p2align	4, 0x90
.LBB68_1:                               
	cmp	ecx, -519841731
	jg	.LBB68_5

	cmp	ecx, -1755691212
	je	.LBB68_9

	cmp	ecx, -854841979
	jne	.LBB68_1

	mov	rdi, rbp
	call	_ZNKSt5arrayIiLm48EE4dataEv
	mov	ecx, dword ptr [rip + x.172]
	mov	edi, dword ptr [rip + y.173]
	lea	esi, [rcx - 1]
	imul	esi, ecx
	mov	ecx, esi
	xor	ecx, -2
	and	ecx, esi
	sete	bl
	cmp	edi, 10
	setl	dl
	xor	dl, bl
	mov	edx, -1755691212
	cmovne	edx, r15d
	test	ecx, ecx
	mov	ecx, edx
	cmove	ecx, r15d
	cmp	edi, 10
	cmovge	ecx, edx
	add	rax, 192
	mov	qword ptr [rsp + 8], rax
	jmp	.LBB68_1
	.p2align	4, 0x90
.LBB68_5:                               
	cmp	ecx, -519841730
	je	.LBB68_8

	cmp	ecx, 563570906
	jne	.LBB68_1
	jmp	.LBB68_7
.LBB68_9:                               
	mov	rdi, rbp
	call	_ZNKSt5arrayIiLm48EE4dataEv
	mov	ecx, -854841979
	jmp	.LBB68_1
.LBB68_8:
	mov	rax, qword ptr [rsp + 8]
	add	rsp, 16
	pop	rbx
	pop	r12
	pop	r14
	pop	r15
	pop	rbp
	ret
.Lfunc_end68:
	.size	_ZNKSt5arrayIiLm48EE3endEv, .Lfunc_end68-_ZNKSt5arrayIiLm48EE3endEv

	.section	.text._ZNSt6bitsetILm48EE3setEmb,"axG",@progbits,_ZNSt6bitsetILm48EE3setEmb,comdat
	.weak	_ZNSt6bitsetILm48EE3setEmb 
	.p2align	4, 0x90
	.type	_ZNSt6bitsetILm48EE3setEmb,@function
_ZNSt6bitsetILm48EE3setEmb:             
	.cfi_startproc

	push	rbp
.Lcfi314:
	.cfi_def_cfa_offset 16
	push	r14
.Lcfi315:
	.cfi_def_cfa_offset 24
	push	rbx
.Lcfi316:
	.cfi_def_cfa_offset 32
.Lcfi317:
	.cfi_offset rbx, -32
.Lcfi318:
	.cfi_offset r14, -24
.Lcfi319:
	.cfi_offset rbp, -16
	mov	r14d, edx
	mov	rbx, rsi
	mov	rbp, rdi
	mov	edx, .L.str.48
	call	_ZNKSt6bitsetILm48EE8_M_checkEmPKc
	movzx	edx, r14b
	mov	rdi, rbp
	mov	rsi, rbx
	pop	rbx
	pop	r14
	pop	rbp
	jmp	_ZNSt6bitsetILm48EE14_Unchecked_setEmi 
.Lfunc_end69:
	.size	_ZNSt6bitsetILm48EE3setEmb, .Lfunc_end69-_ZNSt6bitsetILm48EE3setEmb
	.cfi_endproc

	.text
	.globl	_ZN3DES6desFunERKNSt7__cxx1112basic_stringIcSt11char_traitsIcESaIcEEES7_ 
	.p2align	4, 0x90
	.type	_ZN3DES6desFunERKNSt7__cxx1112basic_stringIcSt11char_traitsIcESaIcEEES7_,@function
_ZN3DES6desFunERKNSt7__cxx1112basic_stringIcSt11char_traitsIcESaIcEEES7_: 
	.cfi_startproc

	push	rbp
.Lcfi320:
	.cfi_def_cfa_offset 16
	push	r15
.Lcfi321:
	.cfi_def_cfa_offset 24
	push	r14
.Lcfi322:
	.cfi_def_cfa_offset 32
	push	r13
.Lcfi323:
	.cfi_def_cfa_offset 40
	push	r12
.Lcfi324:
	.cfi_def_cfa_offset 48
	push	rbx
.Lcfi325:
	.cfi_def_cfa_offset 56
	push	rax
.Lcfi326:
	.cfi_def_cfa_offset 64
.Lcfi327:
	.cfi_offset rbx, -56
.Lcfi328:
	.cfi_offset r12, -48
.Lcfi329:
	.cfi_offset r13, -40
.Lcfi330:
	.cfi_offset r14, -32
.Lcfi331:
	.cfi_offset r15, -24
.Lcfi332:
	.cfi_offset rbp, -16
	mov	eax, dword ptr [rip + x.176]
	lea	ecx, [rax - 1]
	imul	ecx, eax
	not	ecx
	or	ecx, -2
	cmp	ecx, -1
	sete	byte ptr [rsp + 6]
	mov	eax, dword ptr [rip + y.177]
	cmp	eax, 10
	setl	byte ptr [rsp + 7]
	mov	r14, rdx
	mov	r15, rsi
	mov	rbx, rdi
	lea	r12, [rbx + 392]
	lea	r13, [rbx + 296]
	lea	rbp, [rbx + 328]
	mov	eax, 1037309916
	jmp	.LBB70_1
.LBB70_7:                               
	movzx	ecx, byte ptr [rsp + 6]
	movzx	eax, byte ptr [rsp + 7]
	mov	edx, ecx
	xor	dl, al
	test	al, al
	mov	eax, -1891360715
	mov	esi, -1450211632
	cmovne	eax, esi
	test	cl, cl
	mov	ecx, -1891360715
	cmove	eax, ecx
	test	dl, dl
	cmovne	eax, esi
	.p2align	4, 0x90
.LBB70_1:                               
	cmp	eax, 420044373
	jg	.LBB70_5

	cmp	eax, -1891360715
	je	.LBB70_9

	cmp	eax, -1450211632
	jne	.LBB70_1

	mov	rdi, rbx
	mov	rsi, r15
	call	_ZN3DES14expansionPermuERKNSt7__cxx1112basic_stringIcSt11char_traitsIcESaIcEEE
	mov	rdi, rbx
	mov	rsi, r12
	mov	rdx, r14
	call	_ZN3DES5xor48ERKNSt7__cxx1112basic_stringIcSt11char_traitsIcESaIcEEES7_
	mov	rdi, rbx
	mov	rsi, r13
	call	_ZN3DES4sBoxERKNSt7__cxx1112basic_stringIcSt11char_traitsIcESaIcEEE
	mov	rdi, rbx
	mov	rsi, rbp
	call	_ZN3DES13straightPermuERKNSt7__cxx1112basic_stringIcSt11char_traitsIcESaIcEEE
	mov	eax, dword ptr [rip + x.176]
	mov	esi, dword ptr [rip + y.177]
	mov	edx, eax
	neg	edx
	not	edx
	imul	edx, eax
	not	edx
	or	edx, -2
	cmp	edx, -1
	sete	al
	cmp	esi, 10
	setl	cl
	xor	cl, al
	mov	ecx, -1891360715
	mov	edi, 420044374
	cmovne	ecx, edi
	cmp	edx, -1
	mov	eax, ecx
	cmove	eax, edi
	cmp	esi, 10
	cmovge	eax, ecx
	jmp	.LBB70_1
	.p2align	4, 0x90
.LBB70_5:                               
	cmp	eax, 420044374
	je	.LBB70_8

	cmp	eax, 1037309916
	jne	.LBB70_1
	jmp	.LBB70_7
.LBB70_9:                               
	mov	rdi, rbx
	mov	rsi, r15
	call	_ZN3DES14expansionPermuERKNSt7__cxx1112basic_stringIcSt11char_traitsIcESaIcEEE
	mov	rdi, rbx
	mov	rsi, r12
	mov	rdx, r14
	call	_ZN3DES5xor48ERKNSt7__cxx1112basic_stringIcSt11char_traitsIcESaIcEEES7_
	mov	rdi, rbx
	mov	rsi, r13
	call	_ZN3DES4sBoxERKNSt7__cxx1112basic_stringIcSt11char_traitsIcESaIcEEE
	mov	rdi, rbx
	mov	rsi, rbp
	call	_ZN3DES13straightPermuERKNSt7__cxx1112basic_stringIcSt11char_traitsIcESaIcEEE
	mov	eax, -1450211632
	jmp	.LBB70_1
.LBB70_8:
	add	rsp, 8
	pop	rbx
	pop	r12
	pop	r13
	pop	r14
	pop	r15
	pop	rbp
	ret
.Lfunc_end70:
	.size	_ZN3DES6desFunERKNSt7__cxx1112basic_stringIcSt11char_traitsIcESaIcEEES7_, .Lfunc_end70-_ZN3DES6desFunERKNSt7__cxx1112basic_stringIcSt11char_traitsIcESaIcEEES7_
	.cfi_endproc

	.globl	_ZN3DES5splitERKNSt7__cxx1112basic_stringIcSt11char_traitsIcESaIcEEE 
	.p2align	4, 0x90
	.type	_ZN3DES5splitERKNSt7__cxx1112basic_stringIcSt11char_traitsIcESaIcEEE,@function
_ZN3DES5splitERKNSt7__cxx1112basic_stringIcSt11char_traitsIcESaIcEEE: 
	.cfi_startproc

	push	rbp
.Lcfi333:
	.cfi_def_cfa_offset 16
.Lcfi334:
	.cfi_offset rbp, -16
	mov	rbp, rsp
.Lcfi335:
	.cfi_def_cfa_register rbp
	push	r15
	push	r14
	push	r13
	push	r12
	push	rbx
	push	rax
.Lcfi336:
	.cfi_offset rbx, -56
.Lcfi337:
	.cfi_offset r12, -48
.Lcfi338:
	.cfi_offset r13, -40
.Lcfi339:
	.cfi_offset r14, -32
.Lcfi340:
	.cfi_offset r15, -24
	mov	r14, rsi
	mov	r12, rdi
	mov	eax, dword ptr [rip + x.178]
	mov	ecx, dword ptr [rip + y.179]
	lea	edx, [rax - 1]
	imul	edx, eax
	mov	eax, edx
	xor	eax, -2
	test	eax, edx
	sete	byte ptr [rbp - 41]
	cmp	ecx, 10
	setl	byte ptr [rbp - 42]
	lea	r15, [r12 + 72]
	add	r12, 104
	mov	eax, 1482931587
	jmp	.LBB71_1
.LBB71_7:                               
	movzx	ecx, byte ptr [rbp - 41]
	movzx	eax, byte ptr [rbp - 42]
	mov	edx, ecx
	xor	dl, al
	mov	edx, -270239676
	mov	esi, 595422528
	cmovne	edx, esi
	test	al, al
	mov	eax, edx
	cmovne	eax, esi
	test	cl, cl
	cmove	eax, edx
	.p2align	4, 0x90
.LBB71_1:                               
	cmp	eax, 595422527
	jg	.LBB71_5

	cmp	eax, -462393482
	je	.LBB71_9

	cmp	eax, -270239676
	jne	.LBB71_1

	mov	rbx, rsp
	add	rbx, -32
	mov	rsp, rbx
	mov	r13, rsp
	add	r13, -32
	mov	rsp, r13
	xor	edx, edx
	mov	ecx, 32
	mov	rdi, rbx
	mov	rsi, r14
	call	_ZNKSt7__cxx1112basic_stringIcSt11char_traitsIcESaIcEE6substrEmm
	mov	rdi, r15
	mov	rsi, rbx
	call	_ZNSt7__cxx1112basic_stringIcSt11char_traitsIcESaIcEEaSEOS4_
	mov	rdi, rbx
	call	_ZNSt7__cxx1112basic_stringIcSt11char_traitsIcESaIcEED2Ev
	mov	edx, 32
	mov	ecx, 32
	mov	rdi, r13
	mov	rsi, r14
	call	_ZNKSt7__cxx1112basic_stringIcSt11char_traitsIcESaIcEE6substrEmm
	mov	rdi, r12
	mov	rsi, r13
	call	_ZNSt7__cxx1112basic_stringIcSt11char_traitsIcESaIcEEaSEOS4_
	mov	rdi, r13
	call	_ZNSt7__cxx1112basic_stringIcSt11char_traitsIcESaIcEED2Ev
	mov	eax, 595422528
	jmp	.LBB71_1
	.p2align	4, 0x90
.LBB71_5:                               
	cmp	eax, 595422528
	je	.LBB71_8

	cmp	eax, 1482931587
	jne	.LBB71_1
	jmp	.LBB71_7
.LBB71_8:                               
	mov	rbx, rsp
	add	rbx, -32
	mov	rsp, rbx
	mov	r13, rsp
	add	r13, -32
	mov	rsp, r13
	xor	edx, edx
	mov	ecx, 32
	mov	rdi, rbx
	mov	rsi, r14
	call	_ZNKSt7__cxx1112basic_stringIcSt11char_traitsIcESaIcEE6substrEmm
	mov	rdi, r15
	mov	rsi, rbx
	call	_ZNSt7__cxx1112basic_stringIcSt11char_traitsIcESaIcEEaSEOS4_
	mov	rdi, rbx
	call	_ZNSt7__cxx1112basic_stringIcSt11char_traitsIcESaIcEED2Ev
	mov	edx, 32
	mov	ecx, 32
	mov	rdi, r13
	mov	rsi, r14
	call	_ZNKSt7__cxx1112basic_stringIcSt11char_traitsIcESaIcEE6substrEmm
	mov	rdi, r12
	mov	rsi, r13
	call	_ZNSt7__cxx1112basic_stringIcSt11char_traitsIcESaIcEEaSEOS4_
	mov	rdi, r13
	call	_ZNSt7__cxx1112basic_stringIcSt11char_traitsIcESaIcEED2Ev
	mov	eax, dword ptr [rip + x.178]
	lea	ecx, [rax - 1]
	imul	ecx, eax
	mov	eax, ecx
	xor	eax, -2
	and	eax, ecx
	sete	cl
	test	eax, eax
	mov	eax, -270239676
	mov	esi, -462393482
	cmove	eax, esi
	cmp	dword ptr [rip + y.179], 10
	setl	dl
	mov	edi, -270239676
	cmovge	eax, edi
	xor	dl, cl
	cmovne	eax, esi
	jmp	.LBB71_1
.LBB71_9:
	lea	rsp, [rbp - 40]
	pop	rbx
	pop	r12
	pop	r13
	pop	r14
	pop	r15
	pop	rbp
	ret
.Lfunc_end71:
	.size	_ZN3DES5splitERKNSt7__cxx1112basic_stringIcSt11char_traitsIcESaIcEEE, .Lfunc_end71-_ZN3DES5splitERKNSt7__cxx1112basic_stringIcSt11char_traitsIcESaIcEEE
	.cfi_endproc

	.globl	_ZN3DES7bin2hexERKNSt7__cxx1112basic_stringIcSt11char_traitsIcESaIcEEE 
	.p2align	4, 0x90
	.type	_ZN3DES7bin2hexERKNSt7__cxx1112basic_stringIcSt11char_traitsIcESaIcEEE,@function
_ZN3DES7bin2hexERKNSt7__cxx1112basic_stringIcSt11char_traitsIcESaIcEEE: 
.Lfunc_begin8:
	.cfi_startproc
	.cfi_personality 3, __gxx_personality_v0
	.cfi_lsda 3, .Lexception8

	push	r15
.Lcfi341:
	.cfi_def_cfa_offset 16
	push	r14
.Lcfi342:
	.cfi_def_cfa_offset 24
	push	r13
.Lcfi343:
	.cfi_def_cfa_offset 32
	push	r12
.Lcfi344:
	.cfi_def_cfa_offset 40
	push	rbx
.Lcfi345:
	.cfi_def_cfa_offset 48
	sub	rsp, 64
.Lcfi346:
	.cfi_def_cfa_offset 112
.Lcfi347:
	.cfi_offset rbx, -48
.Lcfi348:
	.cfi_offset r12, -40
.Lcfi349:
	.cfi_offset r13, -32
.Lcfi350:
	.cfi_offset r14, -24
.Lcfi351:
	.cfi_offset r15, -16
	mov	r15, rsi
	mov	r14, rdi
	call	_ZNSt7__cxx1112basic_stringIcSt11char_traitsIcESaIcEEC2Ev
	mov	rdi, rsp
	call	_ZNSt7__cxx1112basic_stringIcSt11char_traitsIcESaIcEEC2Ev
	mov	rdi, r15
	call	_ZNKSt7__cxx1112basic_stringIcSt11char_traitsIcESaIcEE6lengthEv
	test	eax, eax
	jle	.LBB72_42

	xor	ebx, ebx
	lea	r12, [rsp + 32]
	mov	r13, rsp
	.p2align	4, 0x90
.LBB72_2:                               
.Ltmp97:
	mov	ecx, 4
	mov	rdi, r12
	mov	rsi, r15
	mov	rdx, rbx
	call	_ZNKSt7__cxx1112basic_stringIcSt11char_traitsIcESaIcEE6substrEmm
.Ltmp98:

	mov	rdi, r13
	mov	rsi, r12
	call	_ZNSt7__cxx1112basic_stringIcSt11char_traitsIcESaIcEEaSEOS4_
	mov	rdi, r12
	call	_ZNSt7__cxx1112basic_stringIcSt11char_traitsIcESaIcEED2Ev
.Ltmp100:
	mov	rdi, r13
	call	_ZN3DES7bin2decERKNSt7__cxx1112basic_stringIcSt11char_traitsIcESaIcEEE
.Ltmp101:

	cmp	eax, 8
	jge	.LBB72_5

	cmp	eax, 4
	jge	.LBB72_14

	cmp	eax, 2
	jge	.LBB72_18

	test	eax, eax
	je	.LBB72_40

	cmp	eax, 1
	jne	.LBB72_38

.Ltmp132:
	mov	esi, .L.str.5
	mov	rdi, r14
	call	_ZNSt7__cxx1112basic_stringIcSt11char_traitsIcESaIcEE6appendEPKc
.Ltmp133:
	jmp	.LBB72_41
	.p2align	4, 0x90
.LBB72_5:                               
	cmp	eax, 12
	jge	.LBB72_6

	cmp	eax, 10
	jge	.LBB72_11

	cmp	eax, 9
	jne	.LBB72_30

.Ltmp116:
	mov	esi, .L.str.13
	mov	rdi, r14
	call	_ZNSt7__cxx1112basic_stringIcSt11char_traitsIcESaIcEE6appendEPKc
.Ltmp117:
	jmp	.LBB72_41
	.p2align	4, 0x90
.LBB72_14:                              
	cmp	eax, 6
	jge	.LBB72_15

	cmp	eax, 5
	jne	.LBB72_26

.Ltmp124:
	mov	esi, .L.str.9
	mov	rdi, r14
	call	_ZNSt7__cxx1112basic_stringIcSt11char_traitsIcESaIcEE6appendEPKc
.Ltmp125:
	jmp	.LBB72_41
	.p2align	4, 0x90
.LBB72_6:                               
	cmp	eax, 14
	jge	.LBB72_7

	cmp	eax, 13
	jne	.LBB72_34

.Ltmp108:
	mov	esi, .L.str.17
	mov	rdi, r14
	call	_ZNSt7__cxx1112basic_stringIcSt11char_traitsIcESaIcEE6appendEPKc
.Ltmp109:
	jmp	.LBB72_41
.LBB72_18:                              
	jne	.LBB72_25

.Ltmp128:
	mov	esi, .L.str.6
	mov	rdi, r14
	call	_ZNSt7__cxx1112basic_stringIcSt11char_traitsIcESaIcEE6appendEPKc
.Ltmp129:
	jmp	.LBB72_41
.LBB72_11:                              
	jne	.LBB72_33

.Ltmp112:
	mov	esi, .L.str.14
	mov	rdi, r14
	call	_ZNSt7__cxx1112basic_stringIcSt11char_traitsIcESaIcEE6appendEPKc
.Ltmp113:
	jmp	.LBB72_41
.LBB72_15:                              
	jne	.LBB72_29

.Ltmp120:
	mov	esi, .L.str.10
	mov	rdi, r14
	call	_ZNSt7__cxx1112basic_stringIcSt11char_traitsIcESaIcEE6appendEPKc
.Ltmp121:
	jmp	.LBB72_41
.LBB72_7:                               
	je	.LBB72_37

	cmp	eax, 15
	jne	.LBB72_38

.Ltmp102:
	mov	esi, .L.str.19
	mov	rdi, r14
	call	_ZNSt7__cxx1112basic_stringIcSt11char_traitsIcESaIcEE6appendEPKc
.Ltmp103:
	jmp	.LBB72_41
.LBB72_30:                              
.Ltmp114:
	mov	esi, .L.str.12
	mov	rdi, r14
	call	_ZNSt7__cxx1112basic_stringIcSt11char_traitsIcESaIcEE6appendEPKc
.Ltmp115:
	jmp	.LBB72_41
.LBB72_26:                              
.Ltmp122:
	mov	esi, .L.str.8
	mov	rdi, r14
	call	_ZNSt7__cxx1112basic_stringIcSt11char_traitsIcESaIcEE6appendEPKc
.Ltmp123:
	jmp	.LBB72_41
.LBB72_34:                              
.Ltmp106:
	mov	esi, .L.str.16
	mov	rdi, r14
	call	_ZNSt7__cxx1112basic_stringIcSt11char_traitsIcESaIcEE6appendEPKc
.Ltmp107:
	jmp	.LBB72_41
.LBB72_25:                              
.Ltmp126:
	mov	esi, .L.str.7
	mov	rdi, r14
	call	_ZNSt7__cxx1112basic_stringIcSt11char_traitsIcESaIcEE6appendEPKc
.Ltmp127:
	jmp	.LBB72_41
.LBB72_33:                              
.Ltmp110:
	mov	esi, .L.str.15
	mov	rdi, r14
	call	_ZNSt7__cxx1112basic_stringIcSt11char_traitsIcESaIcEE6appendEPKc
.Ltmp111:
	jmp	.LBB72_41
.LBB72_29:                              
.Ltmp118:
	mov	esi, .L.str.11
	mov	rdi, r14
	call	_ZNSt7__cxx1112basic_stringIcSt11char_traitsIcESaIcEE6appendEPKc
.Ltmp119:
	jmp	.LBB72_41
.LBB72_40:                              
.Ltmp130:
	mov	esi, .L.str.4
	mov	rdi, r14
	call	_ZNSt7__cxx1112basic_stringIcSt11char_traitsIcESaIcEE6appendEPKc
.Ltmp131:
	jmp	.LBB72_41
.LBB72_37:                              
.Ltmp104:
	mov	esi, .L.str.18
	mov	rdi, r14
	call	_ZNSt7__cxx1112basic_stringIcSt11char_traitsIcESaIcEE6appendEPKc
.Ltmp105:
	.p2align	4, 0x90
.LBB72_41:                              
	add	rbx, 4
	mov	rdi, r15
	call	_ZNKSt7__cxx1112basic_stringIcSt11char_traitsIcESaIcEE6lengthEv
	cdqe
	cmp	rbx, rax
	jl	.LBB72_2
.LBB72_42:
	mov	rdi, rsp
	call	_ZNSt7__cxx1112basic_stringIcSt11char_traitsIcESaIcEED2Ev
	mov	rax, r14
	add	rsp, 64
	pop	rbx
	pop	r12
	pop	r13
	pop	r14
	pop	r15
	ret
.LBB72_38:
.Ltmp135:
	mov	edi, _ZSt4cout
	mov	esi, .L.str.20
	call	_ZStlsISt11char_traitsIcEERSt13basic_ostreamIcT_ES5_PKc
.Ltmp136:

	xor	edi, edi
	call	exit
.LBB72_24:
.Ltmp137:
	jmp	.LBB72_44
.LBB72_43:
.Ltmp99:
	jmp	.LBB72_44
.LBB72_23:
.Ltmp134:
.LBB72_44:
	mov	rbx, rax
	mov	rdi, rsp
	call	_ZNSt7__cxx1112basic_stringIcSt11char_traitsIcESaIcEED2Ev
	mov	rdi, r14
	call	_ZNSt7__cxx1112basic_stringIcSt11char_traitsIcESaIcEED2Ev
	mov	rdi, rbx
	call	_Unwind_Resume
.Lfunc_end72:
	.size	_ZN3DES7bin2hexERKNSt7__cxx1112basic_stringIcSt11char_traitsIcESaIcEEE, .Lfunc_end72-_ZN3DES7bin2hexERKNSt7__cxx1112basic_stringIcSt11char_traitsIcESaIcEEE
	.cfi_endproc
	.section	.gcc_except_table,"a",@progbits
	.p2align	2
GCC_except_table72:
.Lexception8:
	.byte	255                     
	.byte	3                       
	.asciz	"\266\200\200"          
	.byte	3                       
	.byte	52                      
	.long	.Ltmp97-.Lfunc_begin8   
	.long	.Ltmp98-.Ltmp97         
	.long	.Ltmp99-.Lfunc_begin8   
	.byte	0                       
	.long	.Ltmp100-.Lfunc_begin8  
	.long	.Ltmp105-.Ltmp100       
	.long	.Ltmp134-.Lfunc_begin8  
	.byte	0                       
	.long	.Ltmp135-.Lfunc_begin8  
	.long	.Ltmp136-.Ltmp135       
	.long	.Ltmp137-.Lfunc_begin8  
	.byte	0                       
	.long	.Ltmp136-.Lfunc_begin8  
	.long	.Lfunc_end72-.Ltmp136   
	.long	0                       
	.byte	0                       
	.p2align	2

	.section	.text._ZNSt7__cxx1112basic_stringIcSt11char_traitsIcESaIcEE6appendEPKc,"axG",@progbits,_ZNSt7__cxx1112basic_stringIcSt11char_traitsIcESaIcEE6appendEPKc,comdat
	.weak	_ZNSt7__cxx1112basic_stringIcSt11char_traitsIcESaIcEE6appendEPKc 
	.p2align	4, 0x90
	.type	_ZNSt7__cxx1112basic_stringIcSt11char_traitsIcESaIcEE6appendEPKc,@function
_ZNSt7__cxx1112basic_stringIcSt11char_traitsIcESaIcEE6appendEPKc: 
	.cfi_startproc

	push	r15
.Lcfi352:
	.cfi_def_cfa_offset 16
	push	r14
.Lcfi353:
	.cfi_def_cfa_offset 24
	push	rbx
.Lcfi354:
	.cfi_def_cfa_offset 32
.Lcfi355:
	.cfi_offset rbx, -32
.Lcfi356:
	.cfi_offset r14, -24
.Lcfi357:
	.cfi_offset r15, -16
	mov	r14, rsi
	mov	r15, rdi
	mov	rdi, r14
	call	_ZNSt11char_traitsIcE6lengthEPKc
	mov	rbx, rax
	xor	esi, esi
	mov	ecx, .L.str.53
	mov	rdi, r15
	mov	rdx, rbx
	call	_ZNKSt7__cxx1112basic_stringIcSt11char_traitsIcESaIcEE15_M_check_lengthEmmPKc
	mov	rdi, r15
	mov	rsi, r14
	mov	rdx, rbx
	pop	rbx
	pop	r14
	pop	r15
	jmp	_ZNSt7__cxx1112basic_stringIcSt11char_traitsIcESaIcEE9_M_appendEPKcm 
.Lfunc_end73:
	.size	_ZNSt7__cxx1112basic_stringIcSt11char_traitsIcESaIcEE6appendEPKc, .Lfunc_end73-_ZNSt7__cxx1112basic_stringIcSt11char_traitsIcESaIcEE6appendEPKc
	.cfi_endproc

	.section	.text._ZN9__gnu_cxx17__normal_iteratorIPKcNSt7__cxx1112basic_stringIcSt11char_traitsIcESaIcEEEEppEv,"axG",@progbits,_ZN9__gnu_cxx17__normal_iteratorIPKcNSt7__cxx1112basic_stringIcSt11char_traitsIcESaIcEEEEppEv,comdat
	.weak	_ZN9__gnu_cxx17__normal_iteratorIPKcNSt7__cxx1112basic_stringIcSt11char_traitsIcESaIcEEEEppEv 
	.p2align	4, 0x90
	.type	_ZN9__gnu_cxx17__normal_iteratorIPKcNSt7__cxx1112basic_stringIcSt11char_traitsIcESaIcEEEEppEv,@function
_ZN9__gnu_cxx17__normal_iteratorIPKcNSt7__cxx1112basic_stringIcSt11char_traitsIcESaIcEEEEppEv: 

	mov	eax, dword ptr [rip + x.182]
	mov	ecx, eax
	neg	ecx
	not	ecx
	imul	ecx, eax
	not	ecx
	or	ecx, -2
	cmp	ecx, -1
	sete	byte ptr [rsp - 2]
	mov	eax, dword ptr [rip + y.183]
	cmp	eax, 10
	setl	byte ptr [rsp - 1]
	mov	esi, -785035920
	mov	r8d, -8571471
	mov	r9d, 397449964
	mov	r10d, -1521023956
	jmp	.LBB74_1
.LBB74_4:                               
	movzx	edx, byte ptr [rsp - 2]
	movzx	ecx, byte ptr [rsp - 1]
	mov	eax, edx
	xor	al, cl
	test	cl, cl
	mov	esi, 397449964
	cmovne	esi, r8d
	test	dl, dl
	cmove	esi, r9d
	test	al, al
	cmovne	esi, r8d
	.p2align	4, 0x90
.LBB74_1:                               
	cmp	esi, -8571472
	jg	.LBB74_5

	cmp	esi, -1521023956
	je	.LBB74_9

	cmp	esi, -785035920
	jne	.LBB74_1
	jmp	.LBB74_4
	.p2align	4, 0x90
.LBB74_5:                               
	cmp	esi, -8571471
	je	.LBB74_8

	cmp	esi, 397449964
	jne	.LBB74_1

	inc	qword ptr [rdi]
	mov	esi, -8571471
	jmp	.LBB74_1
.LBB74_8:                               
	inc	qword ptr [rdi]
	mov	eax, dword ptr [rip + x.182]
	lea	ecx, [rax - 1]
	imul	ecx, eax
	not	ecx
	or	ecx, -2
	cmp	ecx, -1
	sete	al
	mov	esi, 397449964
	cmove	esi, r10d
	cmp	dword ptr [rip + y.183], 10
	setl	cl
	cmovge	esi, r9d
	xor	cl, al
	cmovne	esi, r10d
	jmp	.LBB74_1
.LBB74_9:
	mov	rax, rdi
	ret
.Lfunc_end74:
	.size	_ZN9__gnu_cxx17__normal_iteratorIPKcNSt7__cxx1112basic_stringIcSt11char_traitsIcESaIcEEEEppEv, .Lfunc_end74-_ZN9__gnu_cxx17__normal_iteratorIPKcNSt7__cxx1112basic_stringIcSt11char_traitsIcESaIcEEEEppEv

	.section	.text._ZNKSt7__cxx1112basic_stringIcSt11char_traitsIcESaIcEE6rbeginEv,"axG",@progbits,_ZNKSt7__cxx1112basic_stringIcSt11char_traitsIcESaIcEE6rbeginEv,comdat
	.weak	_ZNKSt7__cxx1112basic_stringIcSt11char_traitsIcESaIcEE6rbeginEv 
	.p2align	4, 0x90
	.type	_ZNKSt7__cxx1112basic_stringIcSt11char_traitsIcESaIcEE6rbeginEv,@function
_ZNKSt7__cxx1112basic_stringIcSt11char_traitsIcESaIcEE6rbeginEv: 

	push	rbp
	push	r15
	push	r14
	push	r12
	push	rbx
	sub	rsp, 16
	mov	eax, dword ptr [rip + x.184]
	lea	ecx, [rax - 1]
	imul	ecx, eax
	mov	eax, ecx
	xor	eax, -2
	test	eax, ecx
	sete	byte ptr [rsp + 14]
	mov	eax, dword ptr [rip + y.185]
	cmp	eax, 10
	setl	byte ptr [rsp + 15]
	mov	r14, rsi
	mov	rbp, rdi
	mov	eax, 592420402
	mov	r15d, 1947484458
	mov	r12d, -1179563045
	jmp	.LBB75_1
.LBB75_7:                               
	movzx	ecx, byte ptr [rsp + 14]
	movzx	eax, byte ptr [rsp + 15]
	mov	edx, ecx
	xor	dl, al
	mov	edx, -1833351300
	cmovne	edx, r12d
	test	al, al
	mov	eax, edx
	cmovne	eax, r12d
	test	cl, cl
	cmove	eax, edx
	.p2align	4, 0x90
.LBB75_1:                               
	cmp	eax, 592420401
	jg	.LBB75_5

	cmp	eax, -1833351300
	je	.LBB75_9

	cmp	eax, -1179563045
	jne	.LBB75_1

	mov	rdi, r14
	call	_ZNKSt7__cxx1112basic_stringIcSt11char_traitsIcESaIcEE3endEv
	mov	rdi, rbp
	mov	rsi, rax
	call	_ZNSt16reverse_iteratorIN9__gnu_cxx17__normal_iteratorIPKcNSt7__cxx1112basic_stringIcSt11char_traitsIcESaIcEEEEEEC2ESA_
	mov	eax, dword ptr [rip + x.184]
	mov	ecx, dword ptr [rip + y.185]
	lea	edx, [rax - 1]
	imul	edx, eax
	not	edx
	or	edx, -2
	cmp	edx, -1
	sete	al
	cmp	ecx, 10
	setl	bl
	xor	bl, al
	mov	esi, -1833351300
	cmovne	esi, r15d
	cmp	edx, -1
	mov	eax, esi
	cmove	eax, r15d
	cmp	ecx, 10
	cmovge	eax, esi
	jmp	.LBB75_1
	.p2align	4, 0x90
.LBB75_5:                               
	cmp	eax, 1947484458
	je	.LBB75_8

	cmp	eax, 592420402
	jne	.LBB75_1
	jmp	.LBB75_7
.LBB75_9:                               
	mov	rdi, r14
	call	_ZNKSt7__cxx1112basic_stringIcSt11char_traitsIcESaIcEE3endEv
	mov	rdi, rbp
	mov	rsi, rax
	call	_ZNSt16reverse_iteratorIN9__gnu_cxx17__normal_iteratorIPKcNSt7__cxx1112basic_stringIcSt11char_traitsIcESaIcEEEEEEC2ESA_
	mov	eax, -1179563045
	jmp	.LBB75_1
.LBB75_8:
	mov	rax, rbp
	add	rsp, 16
	pop	rbx
	pop	r12
	pop	r14
	pop	r15
	pop	rbp
	ret
.Lfunc_end75:
	.size	_ZNKSt7__cxx1112basic_stringIcSt11char_traitsIcESaIcEE6rbeginEv, .Lfunc_end75-_ZNKSt7__cxx1112basic_stringIcSt11char_traitsIcESaIcEE6rbeginEv

	.section	.text._ZStltIN9__gnu_cxx17__normal_iteratorIPKcNSt7__cxx1112basic_stringIcSt11char_traitsIcESaIcEEEEEEbRKSt16reverse_iteratorIT_ESF_,"axG",@progbits,_ZStltIN9__gnu_cxx17__normal_iteratorIPKcNSt7__cxx1112basic_stringIcSt11char_traitsIcESaIcEEEEEEbRKSt16reverse_iteratorIT_ESF_,comdat
	.weak	_ZStltIN9__gnu_cxx17__normal_iteratorIPKcNSt7__cxx1112basic_stringIcSt11char_traitsIcESaIcEEEEEEbRKSt16reverse_iteratorIT_ESF_ 
	.p2align	4, 0x90
	.type	_ZStltIN9__gnu_cxx17__normal_iteratorIPKcNSt7__cxx1112basic_stringIcSt11char_traitsIcESaIcEEEEEEbRKSt16reverse_iteratorIT_ESF_,@function
_ZStltIN9__gnu_cxx17__normal_iteratorIPKcNSt7__cxx1112basic_stringIcSt11char_traitsIcESaIcEEEEEEbRKSt16reverse_iteratorIT_ESF_: 
	.cfi_startproc

	push	rbp
.Lcfi358:
	.cfi_def_cfa_offset 16
.Lcfi359:
	.cfi_offset rbp, -16
	mov	rbp, rsp
.Lcfi360:
	.cfi_def_cfa_register rbp
	push	r15
	push	r14
	push	r13
	push	r12
	push	rbx
	sub	rsp, 24
.Lcfi361:
	.cfi_offset rbx, -56
.Lcfi362:
	.cfi_offset r12, -48
.Lcfi363:
	.cfi_offset r13, -40
.Lcfi364:
	.cfi_offset r14, -32
.Lcfi365:
	.cfi_offset r15, -24
	mov	qword ptr [rbp - 56], rsi 
	mov	r15, rdi
	mov	eax, dword ptr [rip + x.186]
	mov	ecx, eax
	neg	ecx
	not	ecx
	imul	ecx, eax
	not	ecx
	or	ecx, -2
	cmp	ecx, -1
	sete	byte ptr [rbp - 41]
	mov	eax, dword ptr [rip + y.187]
	cmp	eax, 10
	setl	byte ptr [rbp - 42]
	mov	eax, -232787011
	jmp	.LBB76_1
.LBB76_7:                               
	movzx	ecx, byte ptr [rbp - 41]
	movzx	eax, byte ptr [rbp - 42]
	mov	edx, ecx
	xor	dl, al
	test	al, al
	mov	eax, -2067007163
	mov	esi, -1514237716
	cmovne	eax, esi
	test	cl, cl
	mov	ecx, -2067007163
	cmove	eax, ecx
	test	dl, dl
	cmovne	eax, esi
	.p2align	4, 0x90
.LBB76_1:                               
	cmp	eax, -232787012
	jg	.LBB76_5

	cmp	eax, -2067007163
	je	.LBB76_9

	cmp	eax, -1514237716
	jne	.LBB76_1

	mov	r13, rsp
	lea	r12, [r13 - 16]
	mov	rsp, r12
	mov	r14, rsp
	lea	rbx, [r14 - 16]
	mov	rsp, rbx
	mov	rdi, qword ptr [rbp - 56] 
	call	_ZNKSt16reverse_iteratorIN9__gnu_cxx17__normal_iteratorIPKcNSt7__cxx1112basic_stringIcSt11char_traitsIcESaIcEEEEEE4baseEv
	mov	qword ptr [r13 - 16], rax
	mov	rdi, r15
	call	_ZNKSt16reverse_iteratorIN9__gnu_cxx17__normal_iteratorIPKcNSt7__cxx1112basic_stringIcSt11char_traitsIcESaIcEEEEEE4baseEv
	mov	qword ptr [r14 - 16], rax
	mov	rdi, r12
	mov	rsi, rbx
	call	_ZN9__gnu_cxxltIPKcNSt7__cxx1112basic_stringIcSt11char_traitsIcESaIcEEEEEbRKNS_17__normal_iteratorIT_T0_EESE_
	mov	byte ptr [rbp - 43], al
	mov	eax, dword ptr [rip + x.186]
	lea	ecx, [rax - 1]
	imul	ecx, eax
	mov	eax, ecx
	xor	eax, -2
	and	eax, ecx
	sete	cl
	test	eax, eax
	mov	eax, -2067007163
	mov	esi, 1043552660
	cmove	eax, esi
	cmp	dword ptr [rip + y.187], 10
	setl	dl
	mov	edi, -2067007163
	cmovge	eax, edi
	xor	dl, cl
	cmovne	eax, esi
	jmp	.LBB76_1
	.p2align	4, 0x90
.LBB76_5:                               
	cmp	eax, 1043552660
	je	.LBB76_8

	cmp	eax, -232787011
	jne	.LBB76_1
	jmp	.LBB76_7
.LBB76_9:                               
	mov	rbx, rsp
	lea	r12, [rbx - 16]
	mov	rsp, r12
	mov	r13, rsp
	lea	r14, [r13 - 16]
	mov	rsp, r14
	mov	rdi, qword ptr [rbp - 56] 
	call	_ZNKSt16reverse_iteratorIN9__gnu_cxx17__normal_iteratorIPKcNSt7__cxx1112basic_stringIcSt11char_traitsIcESaIcEEEEEE4baseEv
	mov	qword ptr [rbx - 16], rax
	mov	rdi, r15
	call	_ZNKSt16reverse_iteratorIN9__gnu_cxx17__normal_iteratorIPKcNSt7__cxx1112basic_stringIcSt11char_traitsIcESaIcEEEEEE4baseEv
	mov	qword ptr [r13 - 16], rax
	mov	rdi, r12
	mov	rsi, r14
	call	_ZN9__gnu_cxxltIPKcNSt7__cxx1112basic_stringIcSt11char_traitsIcESaIcEEEEEbRKNS_17__normal_iteratorIT_T0_EESE_
	mov	eax, -1514237716
	jmp	.LBB76_1
.LBB76_8:
	mov	al, byte ptr [rbp - 43]
	lea	rsp, [rbp - 40]
	pop	rbx
	pop	r12
	pop	r13
	pop	r14
	pop	r15
	pop	rbp
	ret
.Lfunc_end76:
	.size	_ZStltIN9__gnu_cxx17__normal_iteratorIPKcNSt7__cxx1112basic_stringIcSt11char_traitsIcESaIcEEEEEEbRKSt16reverse_iteratorIT_ESF_, .Lfunc_end76-_ZStltIN9__gnu_cxx17__normal_iteratorIPKcNSt7__cxx1112basic_stringIcSt11char_traitsIcESaIcEEEEEEbRKSt16reverse_iteratorIT_ESF_
	.cfi_endproc

	.section	.text._ZNKSt7__cxx1112basic_stringIcSt11char_traitsIcESaIcEE4rendEv,"axG",@progbits,_ZNKSt7__cxx1112basic_stringIcSt11char_traitsIcESaIcEE4rendEv,comdat
	.weak	_ZNKSt7__cxx1112basic_stringIcSt11char_traitsIcESaIcEE4rendEv 
	.p2align	4, 0x90
	.type	_ZNKSt7__cxx1112basic_stringIcSt11char_traitsIcESaIcEE4rendEv,@function
_ZNKSt7__cxx1112basic_stringIcSt11char_traitsIcESaIcEE4rendEv: 

	push	rbx
	mov	rbx, rdi
	mov	rdi, rsi
	call	_ZNKSt7__cxx1112basic_stringIcSt11char_traitsIcESaIcEE5beginEv
	mov	rdi, rbx
	mov	rsi, rax
	call	_ZNSt16reverse_iteratorIN9__gnu_cxx17__normal_iteratorIPKcNSt7__cxx1112basic_stringIcSt11char_traitsIcESaIcEEEEEEC2ESA_
	mov	rax, rbx
	pop	rbx
	ret
.Lfunc_end77:
	.size	_ZNKSt7__cxx1112basic_stringIcSt11char_traitsIcESaIcEE4rendEv, .Lfunc_end77-_ZNKSt7__cxx1112basic_stringIcSt11char_traitsIcESaIcEE4rendEv

	.section	.text._ZNKSt16reverse_iteratorIN9__gnu_cxx17__normal_iteratorIPKcNSt7__cxx1112basic_stringIcSt11char_traitsIcESaIcEEEEEEdeEv,"axG",@progbits,_ZNKSt16reverse_iteratorIN9__gnu_cxx17__normal_iteratorIPKcNSt7__cxx1112basic_stringIcSt11char_traitsIcESaIcEEEEEEdeEv,comdat
	.weak	_ZNKSt16reverse_iteratorIN9__gnu_cxx17__normal_iteratorIPKcNSt7__cxx1112basic_stringIcSt11char_traitsIcESaIcEEEEEEdeEv 
	.p2align	4, 0x90
	.type	_ZNKSt16reverse_iteratorIN9__gnu_cxx17__normal_iteratorIPKcNSt7__cxx1112basic_stringIcSt11char_traitsIcESaIcEEEEEEdeEv,@function
_ZNKSt16reverse_iteratorIN9__gnu_cxx17__normal_iteratorIPKcNSt7__cxx1112basic_stringIcSt11char_traitsIcESaIcEEEEEEdeEv: 

	push	rax
	mov	rax, qword ptr [rdi]
	mov	qword ptr [rsp], rax
	mov	rdi, rsp
	call	_ZN9__gnu_cxx17__normal_iteratorIPKcNSt7__cxx1112basic_stringIcSt11char_traitsIcESaIcEEEEmmEv
	mov	rdi, rax
	call	_ZNK9__gnu_cxx17__normal_iteratorIPKcNSt7__cxx1112basic_stringIcSt11char_traitsIcESaIcEEEEdeEv
	pop	rcx
	ret
.Lfunc_end78:
	.size	_ZNKSt16reverse_iteratorIN9__gnu_cxx17__normal_iteratorIPKcNSt7__cxx1112basic_stringIcSt11char_traitsIcESaIcEEEEEEdeEv, .Lfunc_end78-_ZNKSt16reverse_iteratorIN9__gnu_cxx17__normal_iteratorIPKcNSt7__cxx1112basic_stringIcSt11char_traitsIcESaIcEEEEEEdeEv

	.section	.text._ZSt8distanceISt16reverse_iteratorIN9__gnu_cxx17__normal_iteratorIPKcNSt7__cxx1112basic_stringIcSt11char_traitsIcESaIcEEEEEEENSt15iterator_traitsIT_E15difference_typeESE_SE_,"axG",@progbits,_ZSt8distanceISt16reverse_iteratorIN9__gnu_cxx17__normal_iteratorIPKcNSt7__cxx1112basic_stringIcSt11char_traitsIcESaIcEEEEEEENSt15iterator_traitsIT_E15difference_typeESE_SE_,comdat
	.weak	_ZSt8distanceISt16reverse_iteratorIN9__gnu_cxx17__normal_iteratorIPKcNSt7__cxx1112basic_stringIcSt11char_traitsIcESaIcEEEEEEENSt15iterator_traitsIT_E15difference_typeESE_SE_ 
	.p2align	4, 0x90
	.type	_ZSt8distanceISt16reverse_iteratorIN9__gnu_cxx17__normal_iteratorIPKcNSt7__cxx1112basic_stringIcSt11char_traitsIcESaIcEEEEEEENSt15iterator_traitsIT_E15difference_typeESE_SE_,@function
_ZSt8distanceISt16reverse_iteratorIN9__gnu_cxx17__normal_iteratorIPKcNSt7__cxx1112basic_stringIcSt11char_traitsIcESaIcEEEEEEENSt15iterator_traitsIT_E15difference_typeESE_SE_: 
	.cfi_startproc

	push	r15
.Lcfi366:
	.cfi_def_cfa_offset 16
	push	r14
.Lcfi367:
	.cfi_def_cfa_offset 24
	push	r12
.Lcfi368:
	.cfi_def_cfa_offset 32
	push	rbx
.Lcfi369:
	.cfi_def_cfa_offset 40
	sub	rsp, 24
.Lcfi370:
	.cfi_def_cfa_offset 64
.Lcfi371:
	.cfi_offset rbx, -40
.Lcfi372:
	.cfi_offset r12, -32
.Lcfi373:
	.cfi_offset r14, -24
.Lcfi374:
	.cfi_offset r15, -16
	mov	r14, rsi
	mov	rbx, rdi
	lea	r15, [rsp + 16]
	mov	rdi, r15
	mov	rsi, rbx
	call	_ZNSt16reverse_iteratorIN9__gnu_cxx17__normal_iteratorIPKcNSt7__cxx1112basic_stringIcSt11char_traitsIcESaIcEEEEEEC2ERKSB_
	lea	r12, [rsp + 8]
	mov	rdi, r12
	mov	rsi, r14
	call	_ZNSt16reverse_iteratorIN9__gnu_cxx17__normal_iteratorIPKcNSt7__cxx1112basic_stringIcSt11char_traitsIcESaIcEEEEEEC2ERKSB_
	mov	rdi, rbx
	call	_ZSt19__iterator_categoryISt16reverse_iteratorIN9__gnu_cxx17__normal_iteratorIPKcNSt7__cxx1112basic_stringIcSt11char_traitsIcESaIcEEEEEEENSt15iterator_traitsIT_E17iterator_categoryERKSE_
	mov	rdi, r15
	mov	rsi, r12
	call	_ZSt10__distanceISt16reverse_iteratorIN9__gnu_cxx17__normal_iteratorIPKcNSt7__cxx1112basic_stringIcSt11char_traitsIcESaIcEEEEEEENSt15iterator_traitsIT_E15difference_typeESE_SE_St26random_access_iterator_tag
	add	rsp, 24
	pop	rbx
	pop	r12
	pop	r14
	pop	r15
	ret
.Lfunc_end79:
	.size	_ZSt8distanceISt16reverse_iteratorIN9__gnu_cxx17__normal_iteratorIPKcNSt7__cxx1112basic_stringIcSt11char_traitsIcESaIcEEEEEEENSt15iterator_traitsIT_E15difference_typeESE_SE_, .Lfunc_end79-_ZSt8distanceISt16reverse_iteratorIN9__gnu_cxx17__normal_iteratorIPKcNSt7__cxx1112basic_stringIcSt11char_traitsIcESaIcEEEEEEENSt15iterator_traitsIT_E15difference_typeESE_SE_
	.cfi_endproc

	.section	.text._ZNSt16reverse_iteratorIN9__gnu_cxx17__normal_iteratorIPKcNSt7__cxx1112basic_stringIcSt11char_traitsIcESaIcEEEEEEC2ERKSB_,"axG",@progbits,_ZNSt16reverse_iteratorIN9__gnu_cxx17__normal_iteratorIPKcNSt7__cxx1112basic_stringIcSt11char_traitsIcESaIcEEEEEEC2ERKSB_,comdat
	.weak	_ZNSt16reverse_iteratorIN9__gnu_cxx17__normal_iteratorIPKcNSt7__cxx1112basic_stringIcSt11char_traitsIcESaIcEEEEEEC2ERKSB_ 
	.p2align	4, 0x90
	.type	_ZNSt16reverse_iteratorIN9__gnu_cxx17__normal_iteratorIPKcNSt7__cxx1112basic_stringIcSt11char_traitsIcESaIcEEEEEEC2ERKSB_,@function
_ZNSt16reverse_iteratorIN9__gnu_cxx17__normal_iteratorIPKcNSt7__cxx1112basic_stringIcSt11char_traitsIcESaIcEEEEEEC2ERKSB_: 

	mov	rax, qword ptr [rsi]
	mov	qword ptr [rdi], rax
	ret
.Lfunc_end80:
	.size	_ZNSt16reverse_iteratorIN9__gnu_cxx17__normal_iteratorIPKcNSt7__cxx1112basic_stringIcSt11char_traitsIcESaIcEEEEEEC2ERKSB_, .Lfunc_end80-_ZNSt16reverse_iteratorIN9__gnu_cxx17__normal_iteratorIPKcNSt7__cxx1112basic_stringIcSt11char_traitsIcESaIcEEEEEEC2ERKSB_

	.section	.text._ZNSt16reverse_iteratorIN9__gnu_cxx17__normal_iteratorIPKcNSt7__cxx1112basic_stringIcSt11char_traitsIcESaIcEEEEEEppEi,"axG",@progbits,_ZNSt16reverse_iteratorIN9__gnu_cxx17__normal_iteratorIPKcNSt7__cxx1112basic_stringIcSt11char_traitsIcESaIcEEEEEEppEi,comdat
	.weak	_ZNSt16reverse_iteratorIN9__gnu_cxx17__normal_iteratorIPKcNSt7__cxx1112basic_stringIcSt11char_traitsIcESaIcEEEEEEppEi 
	.p2align	4, 0x90
	.type	_ZNSt16reverse_iteratorIN9__gnu_cxx17__normal_iteratorIPKcNSt7__cxx1112basic_stringIcSt11char_traitsIcESaIcEEEEEEppEi,@function
_ZNSt16reverse_iteratorIN9__gnu_cxx17__normal_iteratorIPKcNSt7__cxx1112basic_stringIcSt11char_traitsIcESaIcEEEEEEppEi: 
	.cfi_startproc

	push	r14
.Lcfi375:
	.cfi_def_cfa_offset 16
	push	rbx
.Lcfi376:
	.cfi_def_cfa_offset 24
	push	rax
.Lcfi377:
	.cfi_def_cfa_offset 32
.Lcfi378:
	.cfi_offset rbx, -24
.Lcfi379:
	.cfi_offset r14, -16
	mov	rbx, rsi
	mov	r14, rdi
	call	_ZNSt16reverse_iteratorIN9__gnu_cxx17__normal_iteratorIPKcNSt7__cxx1112basic_stringIcSt11char_traitsIcESaIcEEEEEEC2ERKSB_
	mov	rdi, rbx
	call	_ZN9__gnu_cxx17__normal_iteratorIPKcNSt7__cxx1112basic_stringIcSt11char_traitsIcESaIcEEEEmmEv
	mov	rax, r14
	add	rsp, 8
	pop	rbx
	pop	r14
	ret
.Lfunc_end81:
	.size	_ZNSt16reverse_iteratorIN9__gnu_cxx17__normal_iteratorIPKcNSt7__cxx1112basic_stringIcSt11char_traitsIcESaIcEEEEEEppEi, .Lfunc_end81-_ZNSt16reverse_iteratorIN9__gnu_cxx17__normal_iteratorIPKcNSt7__cxx1112basic_stringIcSt11char_traitsIcESaIcEEEEEEppEi
	.cfi_endproc

	.text
	.globl	_ZN3DES6cipherERKNSt7__cxx1112basic_stringIcSt11char_traitsIcESaIcEEES7_ 
	.p2align	4, 0x90
	.type	_ZN3DES6cipherERKNSt7__cxx1112basic_stringIcSt11char_traitsIcESaIcEEES7_,@function
_ZN3DES6cipherERKNSt7__cxx1112basic_stringIcSt11char_traitsIcESaIcEEES7_: 
.Lfunc_begin9:
	.cfi_startproc
	.cfi_personality 3, __gxx_personality_v0
	.cfi_lsda 3, .Lexception9

	push	rbp
.Lcfi380:
	.cfi_def_cfa_offset 16
	push	r15
.Lcfi381:
	.cfi_def_cfa_offset 24
	push	r14
.Lcfi382:
	.cfi_def_cfa_offset 32
	push	r13
.Lcfi383:
	.cfi_def_cfa_offset 40
	push	r12
.Lcfi384:
	.cfi_def_cfa_offset 48
	push	rbx
.Lcfi385:
	.cfi_def_cfa_offset 56
	sub	rsp, 56
.Lcfi386:
	.cfi_def_cfa_offset 112
.Lcfi387:
	.cfi_offset rbx, -56
.Lcfi388:
	.cfi_offset r12, -48
.Lcfi389:
	.cfi_offset r13, -40
.Lcfi390:
	.cfi_offset r14, -32
.Lcfi391:
	.cfi_offset r15, -24
.Lcfi392:
	.cfi_offset rbp, -16
	mov	qword ptr [rsp + 16], rdx 
	mov	rbx, rdi
	call	_ZN3DES12initialPermuERKNSt7__cxx1112basic_stringIcSt11char_traitsIcESaIcEEE
	lea	rsi, [rbx + 360]
	mov	rdi, rbx
	call	_ZN3DES5splitERKNSt7__cxx1112basic_stringIcSt11char_traitsIcESaIcEEE
	lea	r15, [rbx + 104]
	lea	rax, [rbx + 264]
	mov	qword ptr [rsp + 8], rax 
	lea	rax, [rbx + 424]
	mov	qword ptr [rsp], rax    
	lea	r12, [rbx + 72]
	xor	ebp, ebp
	mov	r14d, 1
	.p2align	4, 0x90
.LBB82_1:                               
	neg	ebp
	mov	rdi, rbx
	mov	rsi, qword ptr [rsp + 16] 
	mov	edx, r14d
	call	_ZN3DES6keygenERKNSt7__cxx1112basic_stringIcSt11char_traitsIcESaIcEEEi
	mov	rdi, rbx
	mov	rsi, r15
	mov	rdx, qword ptr [rsp + 8] 
	call	_ZN3DES6desFunERKNSt7__cxx1112basic_stringIcSt11char_traitsIcESaIcEEES7_
	mov	rdi, rbx
	mov	rsi, qword ptr [rsp]    
	mov	rdx, r12
	call	_ZN3DES5xor32ERKNSt7__cxx1112basic_stringIcSt11char_traitsIcESaIcEEES7_
	cmp	r14d, 16
	je	.LBB82_3

	mov	rdi, r12
	mov	rsi, r15
	call	_ZNSt7__cxx1112basic_stringIcSt11char_traitsIcESaIcEE4swapERS4_
.LBB82_3:                               
	mov	r13d, 1
	sub	r13d, ebp
	mov	rdi, rbx
	call	_ZN3DES10showCipherEv
	inc	r14d
	cmp	r14d, 17
	mov	ebp, r13d
	jne	.LBB82_1

	lea	rbp, [rsp + 24]
	mov	rdi, rbp
	mov	rsi, r12
	mov	rdx, r15
	call	_ZStplIcSt11char_traitsIcESaIcEENSt7__cxx1112basic_stringIT_T0_T1_EERKS8_SA_
.Ltmp138:
	mov	rdi, rbx
	mov	rsi, rbp
	call	_ZN3DES10finalPermuERKNSt7__cxx1112basic_stringIcSt11char_traitsIcESaIcEEE
.Ltmp139:

	lea	rdi, [rsp + 24]
	call	_ZNSt7__cxx1112basic_stringIcSt11char_traitsIcESaIcEED2Ev
	add	rsp, 56
	pop	rbx
	pop	r12
	pop	r13
	pop	r14
	pop	r15
	pop	rbp
	ret
.LBB82_6:
.Ltmp140:
	mov	rbx, rax
	lea	rdi, [rsp + 24]
	call	_ZNSt7__cxx1112basic_stringIcSt11char_traitsIcESaIcEED2Ev
	mov	rdi, rbx
	call	_Unwind_Resume
.Lfunc_end82:
	.size	_ZN3DES6cipherERKNSt7__cxx1112basic_stringIcSt11char_traitsIcESaIcEEES7_, .Lfunc_end82-_ZN3DES6cipherERKNSt7__cxx1112basic_stringIcSt11char_traitsIcESaIcEEES7_
	.cfi_endproc
	.section	.gcc_except_table,"a",@progbits
	.p2align	2
GCC_except_table82:
.Lexception9:
	.byte	255                     
	.byte	3                       
	.byte	41                      
	.byte	3                       
	.byte	39                      
	.long	.Lfunc_begin9-.Lfunc_begin9 
	.long	.Ltmp138-.Lfunc_begin9  
	.long	0                       
	.byte	0                       
	.long	.Ltmp138-.Lfunc_begin9  
	.long	.Ltmp139-.Ltmp138       
	.long	.Ltmp140-.Lfunc_begin9  
	.byte	0                       
	.long	.Ltmp139-.Lfunc_begin9  
	.long	.Lfunc_end82-.Ltmp139   
	.long	0                       
	.byte	0                       
	.p2align	2

	.section	.text._ZNSt7__cxx1112basic_stringIcSt11char_traitsIcESaIcEE4swapERS4_,"axG",@progbits,_ZNSt7__cxx1112basic_stringIcSt11char_traitsIcESaIcEE4swapERS4_,comdat
	.weak	_ZNSt7__cxx1112basic_stringIcSt11char_traitsIcESaIcEE4swapERS4_ 
	.p2align	4, 0x90
	.type	_ZNSt7__cxx1112basic_stringIcSt11char_traitsIcESaIcEE4swapERS4_,@function
_ZNSt7__cxx1112basic_stringIcSt11char_traitsIcESaIcEE4swapERS4_: 
.Lfunc_begin10:
	.cfi_startproc
	.cfi_personality 3, __gxx_personality_v0
	.cfi_lsda 3, .Lexception10

	push	r15
	push	r14
	push	r13
	push	r12
	push	rbx
	sub	rsp, 16
	mov	r14, rsi
	mov	r12, rdi
	cmp	r12, r14
	je	.LBB83_22

	mov	rdi, r12
	call	_ZNSt7__cxx1112basic_stringIcSt11char_traitsIcESaIcEE16_M_get_allocatorEv
	mov	rbx, rax
	mov	rdi, r14
	call	_ZNSt7__cxx1112basic_stringIcSt11char_traitsIcESaIcEE16_M_get_allocatorEv
.Ltmp141:
	mov	rdi, rbx
	mov	rsi, rax
	call	_ZN9__gnu_cxx14__alloc_traitsISaIcEE10_S_on_swapERS1_S3_
.Ltmp142:

.Ltmp143:
	mov	rdi, r12
	call	_ZNKSt7__cxx1112basic_stringIcSt11char_traitsIcESaIcEE11_M_is_localEv
.Ltmp144:

	test	al, al
	je	.LBB83_14

.Ltmp148:
	mov	rdi, r14
	call	_ZNKSt7__cxx1112basic_stringIcSt11char_traitsIcESaIcEE11_M_is_localEv
.Ltmp149:

	test	al, al
	je	.LBB83_13

	mov	rdi, r12
	call	_ZNKSt7__cxx1112basic_stringIcSt11char_traitsIcESaIcEE6lengthEv
	test	rax, rax
	je	.LBB83_9

	mov	rdi, r14
	call	_ZNKSt7__cxx1112basic_stringIcSt11char_traitsIcESaIcEE6lengthEv
	test	rax, rax
	je	.LBB83_9

	lea	r13, [r14 + 16]
	mov	r15, rsp
	mov	edx, 16
	mov	rdi, r15
	mov	rsi, r13
	call	_ZNSt11char_traitsIcE4copyEPcPKcm
	lea	rbx, [r12 + 16]
	mov	edx, 16
	mov	rdi, r13
	mov	rsi, rbx
	call	_ZNSt11char_traitsIcE4copyEPcPKcm
	mov	edx, 16
	mov	rdi, rbx
	mov	rsi, r15
	call	_ZNSt11char_traitsIcE4copyEPcPKcm
	jmp	.LBB83_21
.LBB83_14:
	mov	r15, qword ptr [r12 + 16]
.Ltmp145:
	mov	rdi, r14
	call	_ZNKSt7__cxx1112basic_stringIcSt11char_traitsIcESaIcEE11_M_is_localEv
.Ltmp146:

	test	al, al
	je	.LBB83_18

	lea	rbx, [r12 + 16]
	lea	rsi, [r14 + 16]
	mov	edx, 16
	mov	rdi, rbx
	call	_ZNSt11char_traitsIcE4copyEPcPKcm
	mov	rdi, r12
	call	_ZNKSt7__cxx1112basic_stringIcSt11char_traitsIcESaIcEE7_M_dataEv
	mov	rdi, r14
	mov	rsi, rax
	call	_ZNSt7__cxx1112basic_stringIcSt11char_traitsIcESaIcEE7_M_dataEPc
	mov	rdi, r12
	mov	rsi, rbx
	call	_ZNSt7__cxx1112basic_stringIcSt11char_traitsIcESaIcEE7_M_dataEPc
	jmp	.LBB83_19
.LBB83_13:
	lea	rbx, [r14 + 16]
	mov	r15, qword ptr [r14 + 16]
	lea	rsi, [r12 + 16]
	mov	edx, 16
	mov	rdi, rbx
	call	_ZNSt11char_traitsIcE4copyEPcPKcm
	mov	rdi, r14
	call	_ZNKSt7__cxx1112basic_stringIcSt11char_traitsIcESaIcEE7_M_dataEv
	mov	rdi, r12
	mov	rsi, rax
	call	_ZNSt7__cxx1112basic_stringIcSt11char_traitsIcESaIcEE7_M_dataEPc
	mov	rdi, r14
	mov	rsi, rbx
	call	_ZNSt7__cxx1112basic_stringIcSt11char_traitsIcESaIcEE7_M_dataEPc
	mov	rdi, r12
	jmp	.LBB83_20
.LBB83_18:
	mov	rdi, r12
	call	_ZNKSt7__cxx1112basic_stringIcSt11char_traitsIcESaIcEE7_M_dataEv
	mov	rbx, rax
	mov	rdi, r14
	call	_ZNKSt7__cxx1112basic_stringIcSt11char_traitsIcESaIcEE7_M_dataEv
	mov	rdi, r12
	mov	rsi, rax
	call	_ZNSt7__cxx1112basic_stringIcSt11char_traitsIcESaIcEE7_M_dataEPc
	mov	rdi, r14
	mov	rsi, rbx
	call	_ZNSt7__cxx1112basic_stringIcSt11char_traitsIcESaIcEE7_M_dataEPc
	mov	rsi, qword ptr [r14 + 16]
	mov	rdi, r12
	call	_ZNSt7__cxx1112basic_stringIcSt11char_traitsIcESaIcEE11_M_capacityEm
.LBB83_19:
	mov	rdi, r14
.LBB83_20:
	mov	rsi, r15
	call	_ZNSt7__cxx1112basic_stringIcSt11char_traitsIcESaIcEE11_M_capacityEm
.LBB83_21:
	mov	rdi, r12
	call	_ZNKSt7__cxx1112basic_stringIcSt11char_traitsIcESaIcEE6lengthEv
	mov	rbx, rax
	mov	rdi, r14
	call	_ZNKSt7__cxx1112basic_stringIcSt11char_traitsIcESaIcEE6lengthEv
	mov	rdi, r12
	mov	rsi, rax
	call	_ZNSt7__cxx1112basic_stringIcSt11char_traitsIcESaIcEE9_M_lengthEm
	mov	rdi, r14
	mov	rsi, rbx
	call	_ZNSt7__cxx1112basic_stringIcSt11char_traitsIcESaIcEE9_M_lengthEm
.LBB83_22:
	add	rsp, 16
	pop	rbx
	pop	r12
	pop	r13
	pop	r14
	pop	r15
	ret
.LBB83_9:
	mov	rdi, r14
	call	_ZNKSt7__cxx1112basic_stringIcSt11char_traitsIcESaIcEE6lengthEv
	test	rax, rax
	je	.LBB83_11

	lea	rdi, [r12 + 16]
	lea	rsi, [r14 + 16]
	mov	edx, 16
	call	_ZNSt11char_traitsIcE4copyEPcPKcm
	mov	rdi, r14
	call	_ZNKSt7__cxx1112basic_stringIcSt11char_traitsIcESaIcEE6lengthEv
	mov	rdi, r12
	mov	rsi, rax
	call	_ZNSt7__cxx1112basic_stringIcSt11char_traitsIcESaIcEE9_M_lengthEm
.Ltmp150:
	xor	esi, esi
	mov	rdi, r14
	call	_ZNSt7__cxx1112basic_stringIcSt11char_traitsIcESaIcEE13_M_set_lengthEm
.Ltmp151:
	jmp	.LBB83_22
.LBB83_11:
	mov	rdi, r12
	call	_ZNKSt7__cxx1112basic_stringIcSt11char_traitsIcESaIcEE6lengthEv
	test	rax, rax
	je	.LBB83_21

	lea	rdi, [r14 + 16]
	lea	rsi, [r12 + 16]
	mov	edx, 16
	call	_ZNSt11char_traitsIcE4copyEPcPKcm
	mov	rdi, r12
	call	_ZNKSt7__cxx1112basic_stringIcSt11char_traitsIcESaIcEE6lengthEv
	mov	rdi, r14
	mov	rsi, rax
	call	_ZNSt7__cxx1112basic_stringIcSt11char_traitsIcESaIcEE9_M_lengthEm
.Ltmp152:
	xor	esi, esi
	mov	rdi, r12
	call	_ZNSt7__cxx1112basic_stringIcSt11char_traitsIcESaIcEE13_M_set_lengthEm
.Ltmp153:
	jmp	.LBB83_22
.LBB83_17:
.Ltmp147:
	mov	rdi, rax
	call	__clang_call_terminate
.LBB83_23:
.Ltmp154:
	mov	rdi, rax
	call	__clang_call_terminate
.Lfunc_end83:
	.size	_ZNSt7__cxx1112basic_stringIcSt11char_traitsIcESaIcEE4swapERS4_, .Lfunc_end83-_ZNSt7__cxx1112basic_stringIcSt11char_traitsIcESaIcEE4swapERS4_
	.cfi_endproc
	.section	.gcc_except_table,"a",@progbits
	.p2align	2
GCC_except_table83:
.Lexception10:
	.byte	255                     
	.byte	3                       
	.asciz	"\257\200"              
	.byte	3                       
	.byte	39                      
	.long	.Ltmp141-.Lfunc_begin10 
	.long	.Ltmp149-.Ltmp141       
	.long	.Ltmp154-.Lfunc_begin10 
	.byte	1                       
	.long	.Ltmp145-.Lfunc_begin10 
	.long	.Ltmp146-.Ltmp145       
	.long	.Ltmp147-.Lfunc_begin10 
	.byte	1                       
	.long	.Ltmp150-.Lfunc_begin10 
	.long	.Ltmp153-.Ltmp150       
	.long	.Ltmp154-.Lfunc_begin10 
	.byte	1                       
	.byte	1                       

	.byte	0                       

	.long	0                       
	.p2align	2

	.text
	.globl	_ZN3DES10showCipherEv   
	.p2align	4, 0x90
	.type	_ZN3DES10showCipherEv,@function
_ZN3DES10showCipherEv:                  
.Lfunc_begin11:
	.cfi_startproc
	.cfi_personality 3, __gxx_personality_v0
	.cfi_lsda 3, .Lexception11

	push	r15
.Lcfi393:
	.cfi_def_cfa_offset 16
	push	r14
.Lcfi394:
	.cfi_def_cfa_offset 24
	push	rbx
.Lcfi395:
	.cfi_def_cfa_offset 32
	sub	rsp, 96
.Lcfi396:
	.cfi_def_cfa_offset 128
.Lcfi397:
	.cfi_offset rbx, -32
.Lcfi398:
	.cfi_offset r14, -24
.Lcfi399:
	.cfi_offset r15, -16
	mov	r14, rdi
	mov	edi, _ZSt4cout
	mov	esi, .L.str.38
	call	_ZStlsISt11char_traitsIcEERSt13basic_ostreamIcT_ES5_PKc
	mov	rbx, rax
	mov	edi, 4
	call	_ZSt4setwi
	mov	rdi, rbx
	mov	esi, eax
	call	_ZStlsIcSt11char_traitsIcEERSt13basic_ostreamIT_T0_ES6_St5_Setw
	mov	esi, dword ptr [rip + _ZZN3DES10showCipherEvE5round]
	inc	esi
	mov	dword ptr [rip + _ZZN3DES10showCipherEvE5round], esi
	mov	rdi, rax
	call	_ZNSolsEi
	mov	esi, .L.str.39
	mov	rdi, rax
	call	_ZStlsISt11char_traitsIcEERSt13basic_ostreamIcT_ES5_PKc
	mov	rbx, rax
	mov	edi, 12
	call	_ZSt4setwi
	mov	rdi, rbx
	mov	esi, eax
	call	_ZStlsIcSt11char_traitsIcEERSt13basic_ostreamIT_T0_ES6_St5_Setw
	mov	rbx, rax
	lea	rsi, [r14 + 72]
	lea	r15, [rsp + 64]
	mov	rdi, r15
	call	_ZN3DES7bin2hexERKNSt7__cxx1112basic_stringIcSt11char_traitsIcESaIcEEE
.Ltmp155:
	mov	rdi, rbx
	mov	rsi, r15
	call	_ZStlsIcSt11char_traitsIcESaIcEERSt13basic_ostreamIT_T0_ES7_RKNSt7__cxx1112basic_stringIS4_S5_T1_EE
	mov	rbx, rax
.Ltmp156:

	mov	edi, 12
	call	_ZSt4setwi
.Ltmp157:
	mov	rdi, rbx
	mov	esi, eax
	call	_ZStlsIcSt11char_traitsIcEERSt13basic_ostreamIT_T0_ES6_St5_Setw
	mov	rbx, rax
.Ltmp158:

	lea	rsi, [r14 + 104]
.Ltmp160:
	lea	rdi, [rsp + 32]
	call	_ZN3DES7bin2hexERKNSt7__cxx1112basic_stringIcSt11char_traitsIcESaIcEEE
.Ltmp161:

.Ltmp163:
	lea	rsi, [rsp + 32]
	mov	rdi, rbx
	call	_ZStlsIcSt11char_traitsIcESaIcEERSt13basic_ostreamIT_T0_ES7_RKNSt7__cxx1112basic_stringIS4_S5_T1_EE
	mov	rbx, rax
.Ltmp164:

	mov	edi, 14
	call	_ZSt4setwi
.Ltmp165:
	mov	rdi, rbx
	mov	esi, eax
	call	_ZStlsIcSt11char_traitsIcEERSt13basic_ostreamIT_T0_ES6_St5_Setw
	mov	rbx, rax
.Ltmp166:

	add	r14, 264
.Ltmp168:
	mov	rdi, rsp
	mov	rsi, r14
	call	_ZN3DES7bin2hexERKNSt7__cxx1112basic_stringIcSt11char_traitsIcESaIcEEE
.Ltmp169:

.Ltmp171:
	mov	rsi, rsp
	mov	rdi, rbx
	call	_ZStlsIcSt11char_traitsIcESaIcEERSt13basic_ostreamIT_T0_ES7_RKNSt7__cxx1112basic_stringIS4_S5_T1_EE
.Ltmp172:

.Ltmp173:
	mov	esi, _ZSt4endlIcSt11char_traitsIcEERSt13basic_ostreamIT_T0_ES6_
	mov	rdi, rax
	call	_ZNSolsEPFRSoS_E
.Ltmp174:

	mov	rdi, rsp
	call	_ZNSt7__cxx1112basic_stringIcSt11char_traitsIcESaIcEED2Ev
	lea	rdi, [rsp + 32]
	call	_ZNSt7__cxx1112basic_stringIcSt11char_traitsIcESaIcEED2Ev
	lea	rdi, [rsp + 64]
	call	_ZNSt7__cxx1112basic_stringIcSt11char_traitsIcESaIcEED2Ev
	add	rsp, 96
	pop	rbx
	pop	r14
	pop	r15
	ret
.LBB84_9:
.Ltmp170:
	jmp	.LBB84_13
.LBB84_10:
.Ltmp162:
	jmp	.LBB84_16
.LBB84_11:
.Ltmp175:
	mov	rbx, rax
	mov	rdi, rsp
	call	_ZNSt7__cxx1112basic_stringIcSt11char_traitsIcESaIcEED2Ev
	jmp	.LBB84_14
.LBB84_12:
.Ltmp167:
.LBB84_13:
	mov	rbx, rax
.LBB84_14:
	lea	rdi, [rsp + 32]
	call	_ZNSt7__cxx1112basic_stringIcSt11char_traitsIcESaIcEED2Ev
	jmp	.LBB84_17
.LBB84_15:
.Ltmp159:
.LBB84_16:
	mov	rbx, rax
.LBB84_17:
	lea	rdi, [rsp + 64]
	call	_ZNSt7__cxx1112basic_stringIcSt11char_traitsIcESaIcEED2Ev
	mov	rdi, rbx
	call	_Unwind_Resume
.Lfunc_end84:
	.size	_ZN3DES10showCipherEv, .Lfunc_end84-_ZN3DES10showCipherEv
	.cfi_endproc
	.section	.gcc_except_table,"a",@progbits
	.p2align	2
GCC_except_table84:
.Lexception11:
	.byte	255                     
	.byte	3                       
	.byte	93                      
	.byte	3                       
	.byte	91                      
	.long	.Lfunc_begin11-.Lfunc_begin11 
	.long	.Ltmp155-.Lfunc_begin11 
	.long	0                       
	.byte	0                       
	.long	.Ltmp155-.Lfunc_begin11 
	.long	.Ltmp158-.Ltmp155       
	.long	.Ltmp159-.Lfunc_begin11 
	.byte	0                       
	.long	.Ltmp160-.Lfunc_begin11 
	.long	.Ltmp161-.Ltmp160       
	.long	.Ltmp162-.Lfunc_begin11 
	.byte	0                       
	.long	.Ltmp163-.Lfunc_begin11 
	.long	.Ltmp166-.Ltmp163       
	.long	.Ltmp167-.Lfunc_begin11 
	.byte	0                       
	.long	.Ltmp168-.Lfunc_begin11 
	.long	.Ltmp169-.Ltmp168       
	.long	.Ltmp170-.Lfunc_begin11 
	.byte	0                       
	.long	.Ltmp171-.Lfunc_begin11 
	.long	.Ltmp174-.Ltmp171       
	.long	.Ltmp175-.Lfunc_begin11 
	.byte	0                       
	.long	.Ltmp174-.Lfunc_begin11 
	.long	.Lfunc_end84-.Ltmp174   
	.long	0                       
	.byte	0                       
	.p2align	2

	.text
	.globl	_ZN3DES8decipherERKNSt7__cxx1112basic_stringIcSt11char_traitsIcESaIcEEES7_ 
	.p2align	4, 0x90
	.type	_ZN3DES8decipherERKNSt7__cxx1112basic_stringIcSt11char_traitsIcESaIcEEES7_,@function
_ZN3DES8decipherERKNSt7__cxx1112basic_stringIcSt11char_traitsIcESaIcEEES7_: 

	ret
.Lfunc_end85:
	.size	_ZN3DES8decipherERKNSt7__cxx1112basic_stringIcSt11char_traitsIcESaIcEEES7_, .Lfunc_end85-_ZN3DES8decipherERKNSt7__cxx1112basic_stringIcSt11char_traitsIcESaIcEEES7_

	.section	.text._ZSt4setwi,"axG",@progbits,_ZSt4setwi,comdat
	.weak	_ZSt4setwi              
	.p2align	4, 0x90
	.type	_ZSt4setwi,@function
_ZSt4setwi:                             

	mov	eax, dword ptr [rip + x.200]
	mov	ecx, dword ptr [rip + y.201]
	mov	edx, eax
	neg	edx
	not	edx
	imul	edx, eax
	mov	esi, edx
	xor	esi, -2
	and	esi, edx
	sete	byte ptr [rsp - 2]
	sete	al
	cmp	ecx, 10
	setl	dl
	xor	dl, al
	mov	eax, 2133008738
	mov	edx, -579612416
	cmovne	edx, eax
	test	esi, esi
	cmovne	eax, edx
	cmp	ecx, 10
	setl	byte ptr [rsp - 1]
	mov	r8d, -579612416
	cmovge	eax, edx
	mov	esi, 283625632
	mov	r9d, 1654649107
	jmp	.LBB86_1
.LBB86_6:                               
	mov	esi, eax
	.p2align	4, 0x90
.LBB86_1:                               
	cmp	esi, 1654649106
	jle	.LBB86_2

	cmp	esi, 1654649107
	je	.LBB86_6

	cmp	esi, 2133008738
	jne	.LBB86_1
	jmp	.LBB86_8
	.p2align	4, 0x90
.LBB86_2:                               
	cmp	esi, -579612416
	je	.LBB86_9

	cmp	esi, 283625632
	jne	.LBB86_1

	movzx	r10d, byte ptr [rsp - 2]
	movzx	edx, byte ptr [rsp - 1]
	mov	ecx, r10d
	xor	cl, dl
	test	dl, dl
	mov	esi, -579612416
	cmovne	esi, r9d
	test	r10b, r10b
	cmove	esi, r8d
	test	cl, cl
	cmovne	esi, r9d
	jmp	.LBB86_1
.LBB86_9:                               
	mov	esi, 1654649107
	jmp	.LBB86_1
.LBB86_8:
	mov	eax, edi
	ret
.Lfunc_end86:
	.size	_ZSt4setwi, .Lfunc_end86-_ZSt4setwi

	.section	.text._ZNSt12_Base_bitsetILm1EEC2Ev,"axG",@progbits,_ZNSt12_Base_bitsetILm1EEC2Ev,comdat
	.weak	_ZNSt12_Base_bitsetILm1EEC2Ev 
	.p2align	4, 0x90
	.type	_ZNSt12_Base_bitsetILm1EEC2Ev,@function
_ZNSt12_Base_bitsetILm1EEC2Ev:          

	mov	qword ptr [rdi], 0
	ret
.Lfunc_end87:
	.size	_ZNSt12_Base_bitsetILm1EEC2Ev, .Lfunc_end87-_ZNSt12_Base_bitsetILm1EEC2Ev

	.section	.text._ZSt10__distanceIPKiENSt15iterator_traitsIT_E15difference_typeES3_S3_St26random_access_iterator_tag,"axG",@progbits,_ZSt10__distanceIPKiENSt15iterator_traitsIT_E15difference_typeES3_S3_St26random_access_iterator_tag,comdat
	.weak	_ZSt10__distanceIPKiENSt15iterator_traitsIT_E15difference_typeES3_S3_St26random_access_iterator_tag 
	.p2align	4, 0x90
	.type	_ZSt10__distanceIPKiENSt15iterator_traitsIT_E15difference_typeES3_S3_St26random_access_iterator_tag,@function
_ZSt10__distanceIPKiENSt15iterator_traitsIT_E15difference_typeES3_S3_St26random_access_iterator_tag: 

	movabs	rcx, 1731693452205923538
	lea	rax, [rsi + rcx]
	sub	rax, rdi
	sub	rax, rcx
	sar	rax, 2
	ret
.Lfunc_end88:
	.size	_ZSt10__distanceIPKiENSt15iterator_traitsIT_E15difference_typeES3_S3_St26random_access_iterator_tag, .Lfunc_end88-_ZSt10__distanceIPKiENSt15iterator_traitsIT_E15difference_typeES3_S3_St26random_access_iterator_tag

	.section	.text._ZSt19__iterator_categoryIPKiENSt15iterator_traitsIT_E17iterator_categoryERKS3_,"axG",@progbits,_ZSt19__iterator_categoryIPKiENSt15iterator_traitsIT_E17iterator_categoryERKS3_,comdat
	.weak	_ZSt19__iterator_categoryIPKiENSt15iterator_traitsIT_E17iterator_categoryERKS3_ 
	.p2align	4, 0x90
	.type	_ZSt19__iterator_categoryIPKiENSt15iterator_traitsIT_E17iterator_categoryERKS3_,@function
_ZSt19__iterator_categoryIPKiENSt15iterator_traitsIT_E17iterator_categoryERKS3_: 

	mov	eax, dword ptr [rip + x.206]
	mov	esi, dword ptr [rip + y.207]
	lea	edx, [rax - 1]
	imul	edx, eax
	not	edx
	or	edx, -2
	cmp	edx, -1
	sete	al
	cmp	esi, 10
	setl	cl
	xor	cl, al
	mov	r9d, 179889998
	mov	edi, -1106927380
	cmovne	edi, r9d
	cmp	edx, -1
	sete	byte ptr [rsp - 2]
	cmovne	r9d, edi
	cmp	esi, 10
	setl	byte ptr [rsp - 1]
	mov	r8d, -1106927380
	cmovge	r9d, edi
	mov	esi, 187518656
	mov	edi, -1366498708
	jmp	.LBB89_1
.LBB89_3:                               
	mov	esi, r9d
	.p2align	4, 0x90
.LBB89_1:                               
	cmp	esi, 179889997
	jg	.LBB89_4

	cmp	esi, -1366498708
	je	.LBB89_3

	cmp	esi, -1106927380
	jne	.LBB89_1

	mov	esi, -1366498708
	jmp	.LBB89_1
	.p2align	4, 0x90
.LBB89_4:                               
	cmp	esi, 179889998
	je	.LBB89_7

	cmp	esi, 187518656
	jne	.LBB89_1

	movzx	eax, byte ptr [rsp - 2]
	movzx	edx, byte ptr [rsp - 1]
	mov	ecx, eax
	xor	cl, dl
	test	dl, dl
	mov	esi, -1106927380
	cmovne	esi, edi
	test	al, al
	cmove	esi, r8d
	test	cl, cl
	cmovne	esi, edi
	jmp	.LBB89_1
.LBB89_7:
	ret
.Lfunc_end89:
	.size	_ZSt19__iterator_categoryIPKiENSt15iterator_traitsIT_E17iterator_categoryERKS3_, .Lfunc_end89-_ZSt19__iterator_categoryIPKiENSt15iterator_traitsIT_E17iterator_categoryERKS3_

	.section	.text._ZNKSt5arrayIiLm64EE4dataEv,"axG",@progbits,_ZNKSt5arrayIiLm64EE4dataEv,comdat
	.weak	_ZNKSt5arrayIiLm64EE4dataEv 
	.p2align	4, 0x90
	.type	_ZNKSt5arrayIiLm64EE4dataEv,@function
_ZNKSt5arrayIiLm64EE4dataEv:            

	push	rbp
	push	r15
	push	r14
	push	rbx
	sub	rsp, 24
	mov	rbx, rdi
	mov	eax, dword ptr [rip + x.208]
	lea	ecx, [rax - 1]
	imul	ecx, eax
	mov	eax, ecx
	xor	eax, -2
	test	eax, ecx
	sete	byte ptr [rsp + 14]
	mov	eax, dword ptr [rip + y.209]
	cmp	eax, 10
	setl	byte ptr [rsp + 15]
	mov	eax, 1743383822
	mov	r14d, 1072650929
	mov	r15d, -1977768219
	mov	ebp, -613448954
	jmp	.LBB90_1
.LBB90_7:                               
	movzx	ecx, byte ptr [rsp + 14]
	movzx	eax, byte ptr [rsp + 15]
	mov	edx, ecx
	xor	dl, al
	test	al, al
	mov	eax, -1977768219
	cmovne	eax, ebp
	test	cl, cl
	cmove	eax, r15d
	test	dl, dl
	cmovne	eax, ebp
	.p2align	4, 0x90
.LBB90_1:                               
	cmp	eax, 1072650928
	jg	.LBB90_5

	cmp	eax, -1977768219
	je	.LBB90_9

	cmp	eax, -613448954
	jne	.LBB90_1

	mov	rdi, rbx
	call	_ZNSt14__array_traitsIiLm64EE6_S_ptrERA64_Ki
	mov	qword ptr [rsp + 16], rax
	mov	eax, dword ptr [rip + x.208]
	lea	ecx, [rax - 1]
	imul	ecx, eax
	not	ecx
	or	ecx, -2
	cmp	ecx, -1
	sete	cl
	mov	eax, -1977768219
	cmove	eax, r14d
	cmp	dword ptr [rip + y.209], 10
	setl	dl
	cmovge	eax, r15d
	xor	dl, cl
	cmovne	eax, r14d
	jmp	.LBB90_1
	.p2align	4, 0x90
.LBB90_5:                               
	cmp	eax, 1072650929
	je	.LBB90_8

	cmp	eax, 1743383822
	jne	.LBB90_1
	jmp	.LBB90_7
.LBB90_9:                               
	mov	rdi, rbx
	call	_ZNSt14__array_traitsIiLm64EE6_S_ptrERA64_Ki
	mov	eax, -613448954
	jmp	.LBB90_1
.LBB90_8:
	mov	rax, qword ptr [rsp + 16]
	add	rsp, 24
	pop	rbx
	pop	r14
	pop	r15
	pop	rbp
	ret
.Lfunc_end90:
	.size	_ZNKSt5arrayIiLm64EE4dataEv, .Lfunc_end90-_ZNKSt5arrayIiLm64EE4dataEv

	.section	.text._ZNSt14__array_traitsIiLm64EE6_S_ptrERA64_Ki,"axG",@progbits,_ZNSt14__array_traitsIiLm64EE6_S_ptrERA64_Ki,comdat
	.weak	_ZNSt14__array_traitsIiLm64EE6_S_ptrERA64_Ki 
	.p2align	4, 0x90
	.type	_ZNSt14__array_traitsIiLm64EE6_S_ptrERA64_Ki,@function
_ZNSt14__array_traitsIiLm64EE6_S_ptrERA64_Ki: 

	mov	rax, rdi
	ret
.Lfunc_end91:
	.size	_ZNSt14__array_traitsIiLm64EE6_S_ptrERA64_Ki, .Lfunc_end91-_ZNSt14__array_traitsIiLm64EE6_S_ptrERA64_Ki

	.section	.text._ZSt10__distanceIN9__gnu_cxx17__normal_iteratorIPKcNSt7__cxx1112basic_stringIcSt11char_traitsIcESaIcEEEEEENSt15iterator_traitsIT_E15difference_typeESC_SC_St26random_access_iterator_tag,"axG",@progbits,_ZSt10__distanceIN9__gnu_cxx17__normal_iteratorIPKcNSt7__cxx1112basic_stringIcSt11char_traitsIcESaIcEEEEEENSt15iterator_traitsIT_E15difference_typeESC_SC_St26random_access_iterator_tag,comdat
	.weak	_ZSt10__distanceIN9__gnu_cxx17__normal_iteratorIPKcNSt7__cxx1112basic_stringIcSt11char_traitsIcESaIcEEEEEENSt15iterator_traitsIT_E15difference_typeESC_SC_St26random_access_iterator_tag 
	.p2align	4, 0x90
	.type	_ZSt10__distanceIN9__gnu_cxx17__normal_iteratorIPKcNSt7__cxx1112basic_stringIcSt11char_traitsIcESaIcEEEEEENSt15iterator_traitsIT_E15difference_typeESC_SC_St26random_access_iterator_tag,@function
_ZSt10__distanceIN9__gnu_cxx17__normal_iteratorIPKcNSt7__cxx1112basic_stringIcSt11char_traitsIcESaIcEEEEEENSt15iterator_traitsIT_E15difference_typeESC_SC_St26random_access_iterator_tag: 

	push	rbp
	mov	rbp, rsp
	push	r15
	push	r14
	push	r13
	push	r12
	push	rbx
	sub	rsp, 24
	mov	r14, rsi
	mov	r12, rdi
	mov	eax, dword ptr [rip + x.212]
	lea	ecx, [rax - 1]
	imul	ecx, eax
	mov	eax, ecx
	xor	eax, -2
	test	eax, ecx
	sete	byte ptr [rbp - 41]
	mov	eax, dword ptr [rip + y.213]
	cmp	eax, 10
	setl	byte ptr [rbp - 42]
	mov	ecx, 545057836
	mov	r15d, 1187216232
	mov	r13d, 1196861332
	jmp	.LBB92_1
.LBB92_4:                               
	movzx	eax, byte ptr [rbp - 41]
	movzx	ecx, byte ptr [rbp - 42]
	mov	edx, eax
	xor	dl, cl
	test	cl, cl
	mov	ecx, -1813786857
	cmovne	ecx, r15d
	test	al, al
	mov	eax, -1813786857
	cmove	ecx, eax
	test	dl, dl
	cmovne	ecx, r15d
	.p2align	4, 0x90
.LBB92_1:                               
	cmp	ecx, 1187216231
	jle	.LBB92_2

	cmp	ecx, 1187216232
	je	.LBB92_9

	cmp	ecx, 1196861332
	jne	.LBB92_1
	jmp	.LBB92_7
	.p2align	4, 0x90
.LBB92_2:                               
	cmp	ecx, -1813786857
	je	.LBB92_8

	cmp	ecx, 545057836
	jne	.LBB92_1
	jmp	.LBB92_4
.LBB92_9:                               
	mov	rax, rsp
	lea	rsi, [rax - 16]
	mov	rsp, rsi
	mov	rcx, rsp
	lea	rdi, [rcx - 16]
	mov	rsp, rdi
	mov	qword ptr [rax - 16], r12
	mov	qword ptr [rcx - 16], r14
	call	_ZN9__gnu_cxxmiIPKcNSt7__cxx1112basic_stringIcSt11char_traitsIcESaIcEEEEENS_17__normal_iteratorIT_T0_E15difference_typeERKSC_SF_
	mov	ecx, dword ptr [rip + x.212]
	mov	edx, dword ptr [rip + y.213]
	mov	esi, ecx
	neg	esi
	not	esi
	imul	esi, ecx
	not	esi
	or	esi, -2
	cmp	esi, -1
	sete	cl
	cmp	edx, 10
	setl	bl
	xor	bl, cl
	mov	edi, -1813786857
	cmovne	edi, r13d
	cmp	esi, -1
	mov	ecx, edi
	cmove	ecx, r13d
	cmp	edx, 10
	mov	qword ptr [rbp - 56], rax
	cmovge	ecx, edi
	jmp	.LBB92_1
.LBB92_8:                               
	mov	rax, rsp
	lea	rsi, [rax - 16]
	mov	rsp, rsi
	mov	rcx, rsp
	lea	rdi, [rcx - 16]
	mov	rsp, rdi
	mov	qword ptr [rax - 16], r12
	mov	qword ptr [rcx - 16], r14
	call	_ZN9__gnu_cxxmiIPKcNSt7__cxx1112basic_stringIcSt11char_traitsIcESaIcEEEEENS_17__normal_iteratorIT_T0_E15difference_typeERKSC_SF_
	mov	ecx, 1187216232
	jmp	.LBB92_1
.LBB92_7:
	mov	rax, qword ptr [rbp - 56]
	lea	rsp, [rbp - 40]
	pop	rbx
	pop	r12
	pop	r13
	pop	r14
	pop	r15
	pop	rbp
	ret
.Lfunc_end92:
	.size	_ZSt10__distanceIN9__gnu_cxx17__normal_iteratorIPKcNSt7__cxx1112basic_stringIcSt11char_traitsIcESaIcEEEEEENSt15iterator_traitsIT_E15difference_typeESC_SC_St26random_access_iterator_tag, .Lfunc_end92-_ZSt10__distanceIN9__gnu_cxx17__normal_iteratorIPKcNSt7__cxx1112basic_stringIcSt11char_traitsIcESaIcEEEEEENSt15iterator_traitsIT_E15difference_typeESC_SC_St26random_access_iterator_tag

	.section	.text._ZSt19__iterator_categoryIN9__gnu_cxx17__normal_iteratorIPKcNSt7__cxx1112basic_stringIcSt11char_traitsIcESaIcEEEEEENSt15iterator_traitsIT_E17iterator_categoryERKSC_,"axG",@progbits,_ZSt19__iterator_categoryIN9__gnu_cxx17__normal_iteratorIPKcNSt7__cxx1112basic_stringIcSt11char_traitsIcESaIcEEEEEENSt15iterator_traitsIT_E17iterator_categoryERKSC_,comdat
	.weak	_ZSt19__iterator_categoryIN9__gnu_cxx17__normal_iteratorIPKcNSt7__cxx1112basic_stringIcSt11char_traitsIcESaIcEEEEEENSt15iterator_traitsIT_E17iterator_categoryERKSC_ 
	.p2align	4, 0x90
	.type	_ZSt19__iterator_categoryIN9__gnu_cxx17__normal_iteratorIPKcNSt7__cxx1112basic_stringIcSt11char_traitsIcESaIcEEEEEENSt15iterator_traitsIT_E17iterator_categoryERKSC_,@function
_ZSt19__iterator_categoryIN9__gnu_cxx17__normal_iteratorIPKcNSt7__cxx1112basic_stringIcSt11char_traitsIcESaIcEEEEEENSt15iterator_traitsIT_E17iterator_categoryERKSC_: 

	ret
.Lfunc_end93:
	.size	_ZSt19__iterator_categoryIN9__gnu_cxx17__normal_iteratorIPKcNSt7__cxx1112basic_stringIcSt11char_traitsIcESaIcEEEEEENSt15iterator_traitsIT_E17iterator_categoryERKSC_, .Lfunc_end93-_ZSt19__iterator_categoryIN9__gnu_cxx17__normal_iteratorIPKcNSt7__cxx1112basic_stringIcSt11char_traitsIcESaIcEEEEEENSt15iterator_traitsIT_E17iterator_categoryERKSC_

	.section	.text._ZN9__gnu_cxxmiIPKcNSt7__cxx1112basic_stringIcSt11char_traitsIcESaIcEEEEENS_17__normal_iteratorIT_T0_E15difference_typeERKSC_SF_,"axG",@progbits,_ZN9__gnu_cxxmiIPKcNSt7__cxx1112basic_stringIcSt11char_traitsIcESaIcEEEEENS_17__normal_iteratorIT_T0_E15difference_typeERKSC_SF_,comdat
	.weak	_ZN9__gnu_cxxmiIPKcNSt7__cxx1112basic_stringIcSt11char_traitsIcESaIcEEEEENS_17__normal_iteratorIT_T0_E15difference_typeERKSC_SF_ 
	.p2align	4, 0x90
	.type	_ZN9__gnu_cxxmiIPKcNSt7__cxx1112basic_stringIcSt11char_traitsIcESaIcEEEEENS_17__normal_iteratorIT_T0_E15difference_typeERKSC_SF_,@function
_ZN9__gnu_cxxmiIPKcNSt7__cxx1112basic_stringIcSt11char_traitsIcESaIcEEEEENS_17__normal_iteratorIT_T0_E15difference_typeERKSC_SF_: 

	push	r14
	push	rbx
	push	rax
	mov	r14, rsi
	call	_ZNK9__gnu_cxx17__normal_iteratorIPKcNSt7__cxx1112basic_stringIcSt11char_traitsIcESaIcEEEE4baseEv
	mov	rbx, qword ptr [rax]
	mov	rdi, r14
	call	_ZNK9__gnu_cxx17__normal_iteratorIPKcNSt7__cxx1112basic_stringIcSt11char_traitsIcESaIcEEEE4baseEv
	movabs	rcx, -2959868017506569873
	sub	rbx, rcx
	sub	rbx, qword ptr [rax]
	add	rbx, rcx
	mov	rax, rbx
	add	rsp, 8
	pop	rbx
	pop	r14
	ret
.Lfunc_end94:
	.size	_ZN9__gnu_cxxmiIPKcNSt7__cxx1112basic_stringIcSt11char_traitsIcESaIcEEEEENS_17__normal_iteratorIT_T0_E15difference_typeERKSC_SF_, .Lfunc_end94-_ZN9__gnu_cxxmiIPKcNSt7__cxx1112basic_stringIcSt11char_traitsIcESaIcEEEEENS_17__normal_iteratorIT_T0_E15difference_typeERKSC_SF_

	.section	.text._ZNK9__gnu_cxx17__normal_iteratorIPKcNSt7__cxx1112basic_stringIcSt11char_traitsIcESaIcEEEE4baseEv,"axG",@progbits,_ZNK9__gnu_cxx17__normal_iteratorIPKcNSt7__cxx1112basic_stringIcSt11char_traitsIcESaIcEEEE4baseEv,comdat
	.weak	_ZNK9__gnu_cxx17__normal_iteratorIPKcNSt7__cxx1112basic_stringIcSt11char_traitsIcESaIcEEEE4baseEv 
	.p2align	4, 0x90
	.type	_ZNK9__gnu_cxx17__normal_iteratorIPKcNSt7__cxx1112basic_stringIcSt11char_traitsIcESaIcEEEE4baseEv,@function
_ZNK9__gnu_cxx17__normal_iteratorIPKcNSt7__cxx1112basic_stringIcSt11char_traitsIcESaIcEEEE4baseEv: 

	mov	rax, rdi
	ret
.Lfunc_end95:
	.size	_ZNK9__gnu_cxx17__normal_iteratorIPKcNSt7__cxx1112basic_stringIcSt11char_traitsIcESaIcEEEE4baseEv, .Lfunc_end95-_ZNK9__gnu_cxx17__normal_iteratorIPKcNSt7__cxx1112basic_stringIcSt11char_traitsIcESaIcEEEE4baseEv

	.section	.text._ZNSt14__array_traitsIiLm48EE6_S_refERA48_Kim,"axG",@progbits,_ZNSt14__array_traitsIiLm48EE6_S_refERA48_Kim,comdat
	.weak	_ZNSt14__array_traitsIiLm48EE6_S_refERA48_Kim 
	.p2align	4, 0x90
	.type	_ZNSt14__array_traitsIiLm48EE6_S_refERA48_Kim,@function
_ZNSt14__array_traitsIiLm48EE6_S_refERA48_Kim: 

	lea	rax, [rdi + 4*rsi]
	ret
.Lfunc_end96:
	.size	_ZNSt14__array_traitsIiLm48EE6_S_refERA48_Kim, .Lfunc_end96-_ZNSt14__array_traitsIiLm48EE6_S_refERA48_Kim

	.section	.text._ZNSt13_Sanitize_valILm4ELb1EE18_S_do_sanitize_valEy,"axG",@progbits,_ZNSt13_Sanitize_valILm4ELb1EE18_S_do_sanitize_valEy,comdat
	.weak	_ZNSt13_Sanitize_valILm4ELb1EE18_S_do_sanitize_valEy 
	.p2align	4, 0x90
	.type	_ZNSt13_Sanitize_valILm4ELb1EE18_S_do_sanitize_valEy,@function
_ZNSt13_Sanitize_valILm4ELb1EE18_S_do_sanitize_valEy: 

	mov	eax, dword ptr [rip + x.222]
	mov	edx, dword ptr [rip + y.223]
	lea	esi, [rax - 1]
	imul	esi, eax
	not	esi
	or	esi, -2
	cmp	esi, -1
	sete	al
	cmp	edx, 10
	setl	cl
	xor	cl, al
	mov	r10d, 875233849
	mov	r8d, 1408649245
	mov	ecx, 1408649245
	cmovne	ecx, r10d
	cmp	esi, -1
	sete	byte ptr [rsp - 10]
	cmovne	r10d, ecx
	cmp	edx, 10
	setl	byte ptr [rsp - 9]
	cmovge	r10d, ecx
	mov	rsi, rdi
	xor	rsi, -16
	and	rsi, rdi
	mov	edi, -346390506
	mov	r9d, -1931560989
	jmp	.LBB97_1
.LBB97_4:                               
	movzx	eax, byte ptr [rsp - 10]
	movzx	edx, byte ptr [rsp - 9]
	mov	ecx, eax
	xor	cl, dl
	test	dl, dl
	mov	edi, 1408649245
	cmovne	edi, r9d
	test	al, al
	cmove	edi, r8d
	test	cl, cl
	cmovne	edi, r9d
	.p2align	4, 0x90
.LBB97_1:                               
	cmp	edi, 875233848
	jg	.LBB97_5

	cmp	edi, -1931560989
	je	.LBB97_8

	cmp	edi, -346390506
	jne	.LBB97_1
	jmp	.LBB97_4
	.p2align	4, 0x90
.LBB97_5:                               
	cmp	edi, 875233849
	je	.LBB97_9

	cmp	edi, 1408649245
	jne	.LBB97_1

	mov	edi, -1931560989
	jmp	.LBB97_1
.LBB97_8:                               
	mov	qword ptr [rsp - 8], rsi
	mov	edi, r10d
	jmp	.LBB97_1
.LBB97_9:
	mov	rax, qword ptr [rsp - 8]
	ret
.Lfunc_end97:
	.size	_ZNSt13_Sanitize_valILm4ELb1EE18_S_do_sanitize_valEy, .Lfunc_end97-_ZNSt13_Sanitize_valILm4ELb1EE18_S_do_sanitize_valEy

	.section	.text.__clang_call_terminate,"axG",@progbits,__clang_call_terminate,comdat
	.hidden	__clang_call_terminate  
	.weak	__clang_call_terminate
	.p2align	4, 0x90
	.type	__clang_call_terminate,@function
__clang_call_terminate:                 

	push	rax
	call	__cxa_begin_catch
	call	_ZSt9terminatev
.Lfunc_end98:
	.size	__clang_call_terminate, .Lfunc_end98-__clang_call_terminate

	.section	.text._ZNSt12_Base_bitsetILm1EEC2Ey,"axG",@progbits,_ZNSt12_Base_bitsetILm1EEC2Ey,comdat
	.weak	_ZNSt12_Base_bitsetILm1EEC2Ey 
	.p2align	4, 0x90
	.type	_ZNSt12_Base_bitsetILm1EEC2Ey,@function
_ZNSt12_Base_bitsetILm1EEC2Ey:          

	mov	qword ptr [rdi], rsi
	ret
.Lfunc_end99:
	.size	_ZNSt12_Base_bitsetILm1EEC2Ey, .Lfunc_end99-_ZNSt12_Base_bitsetILm1EEC2Ey

	.section	.text._ZNKSt5arrayIiLm32EE4dataEv,"axG",@progbits,_ZNKSt5arrayIiLm32EE4dataEv,comdat
	.weak	_ZNKSt5arrayIiLm32EE4dataEv 
	.p2align	4, 0x90
	.type	_ZNKSt5arrayIiLm32EE4dataEv,@function
_ZNKSt5arrayIiLm32EE4dataEv:            

	push	rbp
	push	r15
	push	r14
	push	r12
	push	rbx
	sub	rsp, 16
	mov	rbp, rdi
	mov	eax, dword ptr [rip + x.228]
	lea	ecx, [rax - 1]
	imul	ecx, eax
	mov	eax, ecx
	xor	eax, -2
	test	eax, ecx
	sete	byte ptr [rsp + 6]
	mov	eax, dword ptr [rip + y.229]
	cmp	eax, 10
	setl	byte ptr [rsp + 7]
	mov	ecx, -1128682768
	mov	r15d, -942317225
	mov	r14d, 869749207
	mov	r12d, -904480096
	jmp	.LBB100_1
.LBB100_8:                              
	movzx	eax, byte ptr [rsp + 6]
	movzx	ecx, byte ptr [rsp + 7]
	mov	edx, eax
	xor	dl, cl
	test	cl, cl
	mov	ecx, 869749207
	cmovne	ecx, r15d
	test	al, al
	cmove	ecx, r14d
	test	dl, dl
	cmovne	ecx, r15d
	.p2align	4, 0x90
.LBB100_1:                              
	cmp	ecx, -904480097
	jg	.LBB100_5

	cmp	ecx, -1128682768
	je	.LBB100_8

	cmp	ecx, -942317225
	jne	.LBB100_1

	mov	rdi, rbp
	call	_ZNSt14__array_traitsIiLm32EE6_S_ptrERA32_Ki
	mov	ecx, dword ptr [rip + x.228]
	mov	edx, dword ptr [rip + y.229]
	lea	esi, [rcx - 1]
	imul	esi, ecx
	not	esi
	or	esi, -2
	cmp	esi, -1
	sete	cl
	cmp	edx, 10
	setl	bl
	xor	bl, cl
	mov	edi, 869749207
	cmovne	edi, r12d
	cmp	esi, -1
	mov	ecx, edi
	cmove	ecx, r12d
	cmp	edx, 10
	mov	qword ptr [rsp + 8], rax
	cmovge	ecx, edi
	jmp	.LBB100_1
	.p2align	4, 0x90
.LBB100_5:                              
	cmp	ecx, -904480096
	je	.LBB100_9

	cmp	ecx, 869749207
	jne	.LBB100_1

	mov	rdi, rbp
	call	_ZNSt14__array_traitsIiLm32EE6_S_ptrERA32_Ki
	mov	ecx, -942317225
	jmp	.LBB100_1
.LBB100_9:
	mov	rax, qword ptr [rsp + 8]
	add	rsp, 16
	pop	rbx
	pop	r12
	pop	r14
	pop	r15
	pop	rbp
	ret
.Lfunc_end100:
	.size	_ZNKSt5arrayIiLm32EE4dataEv, .Lfunc_end100-_ZNKSt5arrayIiLm32EE4dataEv

	.section	.text._ZNSt14__array_traitsIiLm32EE6_S_ptrERA32_Ki,"axG",@progbits,_ZNSt14__array_traitsIiLm32EE6_S_ptrERA32_Ki,comdat
	.weak	_ZNSt14__array_traitsIiLm32EE6_S_ptrERA32_Ki 
	.p2align	4, 0x90
	.type	_ZNSt14__array_traitsIiLm32EE6_S_ptrERA32_Ki,@function
_ZNSt14__array_traitsIiLm32EE6_S_ptrERA32_Ki: 

	mov	rax, rdi
	ret
.Lfunc_end101:
	.size	_ZNSt14__array_traitsIiLm32EE6_S_ptrERA32_Ki, .Lfunc_end101-_ZNSt14__array_traitsIiLm32EE6_S_ptrERA32_Ki

	.section	.text._ZNKSt5arrayIiLm56EE4dataEv,"axG",@progbits,_ZNKSt5arrayIiLm56EE4dataEv,comdat
	.weak	_ZNKSt5arrayIiLm56EE4dataEv 
	.p2align	4, 0x90
	.type	_ZNKSt5arrayIiLm56EE4dataEv,@function
_ZNKSt5arrayIiLm56EE4dataEv:            

	jmp	_ZNSt14__array_traitsIiLm56EE6_S_ptrERA56_Ki 
.Lfunc_end102:
	.size	_ZNKSt5arrayIiLm56EE4dataEv, .Lfunc_end102-_ZNKSt5arrayIiLm56EE4dataEv

	.section	.text._ZNSt14__array_traitsIiLm56EE6_S_ptrERA56_Ki,"axG",@progbits,_ZNSt14__array_traitsIiLm56EE6_S_ptrERA56_Ki,comdat
	.weak	_ZNSt14__array_traitsIiLm56EE6_S_ptrERA56_Ki 
	.p2align	4, 0x90
	.type	_ZNSt14__array_traitsIiLm56EE6_S_ptrERA56_Ki,@function
_ZNSt14__array_traitsIiLm56EE6_S_ptrERA56_Ki: 

	mov	rax, rdi
	ret
.Lfunc_end103:
	.size	_ZNSt14__array_traitsIiLm56EE6_S_ptrERA56_Ki, .Lfunc_end103-_ZNSt14__array_traitsIiLm56EE6_S_ptrERA56_Ki

	.section	.text._ZNKSt5arrayIiLm48EE4dataEv,"axG",@progbits,_ZNKSt5arrayIiLm48EE4dataEv,comdat
	.weak	_ZNKSt5arrayIiLm48EE4dataEv 
	.p2align	4, 0x90
	.type	_ZNKSt5arrayIiLm48EE4dataEv,@function
_ZNKSt5arrayIiLm48EE4dataEv:            

	jmp	_ZNSt14__array_traitsIiLm48EE6_S_ptrERA48_Ki 
.Lfunc_end104:
	.size	_ZNKSt5arrayIiLm48EE4dataEv, .Lfunc_end104-_ZNKSt5arrayIiLm48EE4dataEv

	.section	.text._ZNSt14__array_traitsIiLm48EE6_S_ptrERA48_Ki,"axG",@progbits,_ZNSt14__array_traitsIiLm48EE6_S_ptrERA48_Ki,comdat
	.weak	_ZNSt14__array_traitsIiLm48EE6_S_ptrERA48_Ki 
	.p2align	4, 0x90
	.type	_ZNSt14__array_traitsIiLm48EE6_S_ptrERA48_Ki,@function
_ZNSt14__array_traitsIiLm48EE6_S_ptrERA48_Ki: 

	mov	rax, rdi
	ret
.Lfunc_end105:
	.size	_ZNSt14__array_traitsIiLm48EE6_S_ptrERA48_Ki, .Lfunc_end105-_ZNSt14__array_traitsIiLm48EE6_S_ptrERA48_Ki

	.section	.text._ZNKSt16reverse_iteratorIN9__gnu_cxx17__normal_iteratorIPKcNSt7__cxx1112basic_stringIcSt11char_traitsIcESaIcEEEEEE4baseEv,"axG",@progbits,_ZNKSt16reverse_iteratorIN9__gnu_cxx17__normal_iteratorIPKcNSt7__cxx1112basic_stringIcSt11char_traitsIcESaIcEEEEEE4baseEv,comdat
	.weak	_ZNKSt16reverse_iteratorIN9__gnu_cxx17__normal_iteratorIPKcNSt7__cxx1112basic_stringIcSt11char_traitsIcESaIcEEEEEE4baseEv 
	.p2align	4, 0x90
	.type	_ZNKSt16reverse_iteratorIN9__gnu_cxx17__normal_iteratorIPKcNSt7__cxx1112basic_stringIcSt11char_traitsIcESaIcEEEEEE4baseEv,@function
_ZNKSt16reverse_iteratorIN9__gnu_cxx17__normal_iteratorIPKcNSt7__cxx1112basic_stringIcSt11char_traitsIcESaIcEEEEEE4baseEv: 

	mov	rax, qword ptr [rdi]
	ret
.Lfunc_end106:
	.size	_ZNKSt16reverse_iteratorIN9__gnu_cxx17__normal_iteratorIPKcNSt7__cxx1112basic_stringIcSt11char_traitsIcESaIcEEEEEE4baseEv, .Lfunc_end106-_ZNKSt16reverse_iteratorIN9__gnu_cxx17__normal_iteratorIPKcNSt7__cxx1112basic_stringIcSt11char_traitsIcESaIcEEEEEE4baseEv

	.section	.text._ZN9__gnu_cxx17__normal_iteratorIPKcNSt7__cxx1112basic_stringIcSt11char_traitsIcESaIcEEEEmmEv,"axG",@progbits,_ZN9__gnu_cxx17__normal_iteratorIPKcNSt7__cxx1112basic_stringIcSt11char_traitsIcESaIcEEEEmmEv,comdat
	.weak	_ZN9__gnu_cxx17__normal_iteratorIPKcNSt7__cxx1112basic_stringIcSt11char_traitsIcESaIcEEEEmmEv 
	.p2align	4, 0x90
	.type	_ZN9__gnu_cxx17__normal_iteratorIPKcNSt7__cxx1112basic_stringIcSt11char_traitsIcESaIcEEEEmmEv,@function
_ZN9__gnu_cxx17__normal_iteratorIPKcNSt7__cxx1112basic_stringIcSt11char_traitsIcESaIcEEEEmmEv: 

	dec	qword ptr [rdi]
	mov	rax, rdi
	ret
.Lfunc_end107:
	.size	_ZN9__gnu_cxx17__normal_iteratorIPKcNSt7__cxx1112basic_stringIcSt11char_traitsIcESaIcEEEEmmEv, .Lfunc_end107-_ZN9__gnu_cxx17__normal_iteratorIPKcNSt7__cxx1112basic_stringIcSt11char_traitsIcESaIcEEEEmmEv

	.section	.text._ZSt10__distanceISt16reverse_iteratorIN9__gnu_cxx17__normal_iteratorIPKcNSt7__cxx1112basic_stringIcSt11char_traitsIcESaIcEEEEEEENSt15iterator_traitsIT_E15difference_typeESE_SE_St26random_access_iterator_tag,"axG",@progbits,_ZSt10__distanceISt16reverse_iteratorIN9__gnu_cxx17__normal_iteratorIPKcNSt7__cxx1112basic_stringIcSt11char_traitsIcESaIcEEEEEEENSt15iterator_traitsIT_E15difference_typeESE_SE_St26random_access_iterator_tag,comdat
	.weak	_ZSt10__distanceISt16reverse_iteratorIN9__gnu_cxx17__normal_iteratorIPKcNSt7__cxx1112basic_stringIcSt11char_traitsIcESaIcEEEEEEENSt15iterator_traitsIT_E15difference_typeESE_SE_St26random_access_iterator_tag 
	.p2align	4, 0x90
	.type	_ZSt10__distanceISt16reverse_iteratorIN9__gnu_cxx17__normal_iteratorIPKcNSt7__cxx1112basic_stringIcSt11char_traitsIcESaIcEEEEEEENSt15iterator_traitsIT_E15difference_typeESE_SE_St26random_access_iterator_tag,@function
_ZSt10__distanceISt16reverse_iteratorIN9__gnu_cxx17__normal_iteratorIPKcNSt7__cxx1112basic_stringIcSt11char_traitsIcESaIcEEEEEEENSt15iterator_traitsIT_E15difference_typeESE_SE_St26random_access_iterator_tag: 
	.cfi_startproc

	mov	rax, rdi
	mov	rdi, rsi
	mov	rsi, rax
	jmp	_ZStmiIN9__gnu_cxx17__normal_iteratorIPKcNSt7__cxx1112basic_stringIcSt11char_traitsIcESaIcEEEEESA_EDTmicldtfp0_4baseEcldtfp_4baseEERKSt16reverse_iteratorIT_ERKSC_IT0_E 
.Lfunc_end108:
	.size	_ZSt10__distanceISt16reverse_iteratorIN9__gnu_cxx17__normal_iteratorIPKcNSt7__cxx1112basic_stringIcSt11char_traitsIcESaIcEEEEEEENSt15iterator_traitsIT_E15difference_typeESE_SE_St26random_access_iterator_tag, .Lfunc_end108-_ZSt10__distanceISt16reverse_iteratorIN9__gnu_cxx17__normal_iteratorIPKcNSt7__cxx1112basic_stringIcSt11char_traitsIcESaIcEEEEEEENSt15iterator_traitsIT_E15difference_typeESE_SE_St26random_access_iterator_tag
	.cfi_endproc

	.section	.text._ZSt19__iterator_categoryISt16reverse_iteratorIN9__gnu_cxx17__normal_iteratorIPKcNSt7__cxx1112basic_stringIcSt11char_traitsIcESaIcEEEEEEENSt15iterator_traitsIT_E17iterator_categoryERKSE_,"axG",@progbits,_ZSt19__iterator_categoryISt16reverse_iteratorIN9__gnu_cxx17__normal_iteratorIPKcNSt7__cxx1112basic_stringIcSt11char_traitsIcESaIcEEEEEEENSt15iterator_traitsIT_E17iterator_categoryERKSE_,comdat
	.weak	_ZSt19__iterator_categoryISt16reverse_iteratorIN9__gnu_cxx17__normal_iteratorIPKcNSt7__cxx1112basic_stringIcSt11char_traitsIcESaIcEEEEEEENSt15iterator_traitsIT_E17iterator_categoryERKSE_ 
	.p2align	4, 0x90
	.type	_ZSt19__iterator_categoryISt16reverse_iteratorIN9__gnu_cxx17__normal_iteratorIPKcNSt7__cxx1112basic_stringIcSt11char_traitsIcESaIcEEEEEEENSt15iterator_traitsIT_E17iterator_categoryERKSE_,@function
_ZSt19__iterator_categoryISt16reverse_iteratorIN9__gnu_cxx17__normal_iteratorIPKcNSt7__cxx1112basic_stringIcSt11char_traitsIcESaIcEEEEEEENSt15iterator_traitsIT_E17iterator_categoryERKSE_: 

	mov	eax, dword ptr [rip + x.246]
	mov	ecx, dword ptr [rip + y.247]
	lea	edx, [rax - 1]
	imul	edx, eax
	mov	esi, edx
	xor	esi, -2
	and	esi, edx
	sete	byte ptr [rsp - 2]
	sete	al
	cmp	ecx, 10
	setl	dl
	xor	dl, al
	mov	eax, 993313848
	mov	edx, 980659070
	cmovne	edx, eax
	test	esi, esi
	cmovne	eax, edx
	cmp	ecx, 10
	setl	byte ptr [rsp - 1]
	mov	r8d, 980659070
	cmovge	eax, edx
	mov	esi, -1646061879
	mov	edi, -2004890823
	jmp	.LBB109_1
.LBB109_3:                              
	mov	esi, eax
	.p2align	4, 0x90
.LBB109_1:                              
	cmp	esi, 980659069
	jle	.LBB109_2

	cmp	esi, 980659070
	je	.LBB109_9

	cmp	esi, 993313848
	jne	.LBB109_1
	jmp	.LBB109_6
	.p2align	4, 0x90
.LBB109_2:                              
	cmp	esi, -2004890823
	je	.LBB109_3

	cmp	esi, -1646061879
	jne	.LBB109_1

	movzx	r9d, byte ptr [rsp - 2]
	movzx	edx, byte ptr [rsp - 1]
	mov	ecx, r9d
	xor	cl, dl
	test	dl, dl
	mov	esi, 980659070
	cmovne	esi, edi
	test	r9b, r9b
	cmove	esi, r8d
	test	cl, cl
	cmovne	esi, edi
	jmp	.LBB109_1
.LBB109_9:                              
	mov	esi, -2004890823
	jmp	.LBB109_1
.LBB109_6:
	ret
.Lfunc_end109:
	.size	_ZSt19__iterator_categoryISt16reverse_iteratorIN9__gnu_cxx17__normal_iteratorIPKcNSt7__cxx1112basic_stringIcSt11char_traitsIcESaIcEEEEEEENSt15iterator_traitsIT_E17iterator_categoryERKSE_, .Lfunc_end109-_ZSt19__iterator_categoryISt16reverse_iteratorIN9__gnu_cxx17__normal_iteratorIPKcNSt7__cxx1112basic_stringIcSt11char_traitsIcESaIcEEEEEEENSt15iterator_traitsIT_E17iterator_categoryERKSE_

	.section	.text._ZStmiIN9__gnu_cxx17__normal_iteratorIPKcNSt7__cxx1112basic_stringIcSt11char_traitsIcESaIcEEEEESA_EDTmicldtfp0_4baseEcldtfp_4baseEERKSt16reverse_iteratorIT_ERKSC_IT0_E,"axG",@progbits,_ZStmiIN9__gnu_cxx17__normal_iteratorIPKcNSt7__cxx1112basic_stringIcSt11char_traitsIcESaIcEEEEESA_EDTmicldtfp0_4baseEcldtfp_4baseEERKSt16reverse_iteratorIT_ERKSC_IT0_E,comdat
	.weak	_ZStmiIN9__gnu_cxx17__normal_iteratorIPKcNSt7__cxx1112basic_stringIcSt11char_traitsIcESaIcEEEEESA_EDTmicldtfp0_4baseEcldtfp_4baseEERKSt16reverse_iteratorIT_ERKSC_IT0_E 
	.p2align	4, 0x90
	.type	_ZStmiIN9__gnu_cxx17__normal_iteratorIPKcNSt7__cxx1112basic_stringIcSt11char_traitsIcESaIcEEEEESA_EDTmicldtfp0_4baseEcldtfp_4baseEERKSt16reverse_iteratorIT_ERKSC_IT0_E,@function
_ZStmiIN9__gnu_cxx17__normal_iteratorIPKcNSt7__cxx1112basic_stringIcSt11char_traitsIcESaIcEEEEESA_EDTmicldtfp0_4baseEcldtfp_4baseEERKSt16reverse_iteratorIT_ERKSC_IT0_E: 

	push	rbp
	mov	rbp, rsp
	push	r15
	push	r14
	push	r13
	push	r12
	push	rbx
	sub	rsp, 24
	mov	qword ptr [rbp - 56], rsi 
	mov	r15, rdi
	mov	eax, dword ptr [rip + x.248]
	lea	ecx, [rax - 1]
	imul	ecx, eax
	mov	eax, ecx
	xor	eax, -2
	test	eax, ecx
	sete	byte ptr [rbp - 41]
	mov	eax, dword ptr [rip + y.249]
	cmp	eax, 10
	setl	byte ptr [rbp - 42]
	mov	ecx, -1587040152
	jmp	.LBB110_1
.LBB110_8:                              
	movzx	eax, byte ptr [rbp - 41]
	movzx	ecx, byte ptr [rbp - 42]
	mov	edx, eax
	xor	dl, cl
	test	cl, cl
	mov	ecx, -153068568
	mov	esi, -432521280
	cmovne	ecx, esi
	test	al, al
	mov	eax, -153068568
	cmove	ecx, eax
	test	dl, dl
	cmovne	ecx, esi
	.p2align	4, 0x90
.LBB110_1:                              
	cmp	ecx, -153068569
	jle	.LBB110_2

	cmp	ecx, -153068568
	je	.LBB110_9

	cmp	ecx, 278377373
	jne	.LBB110_1
	jmp	.LBB110_7
	.p2align	4, 0x90
.LBB110_2:                              
	cmp	ecx, -1587040152
	je	.LBB110_8

	cmp	ecx, -432521280
	jne	.LBB110_1

	mov	r13, rsp
	lea	r12, [r13 - 16]
	mov	rsp, r12
	mov	r14, rsp
	lea	rbx, [r14 - 16]
	mov	rsp, rbx
	mov	rdi, qword ptr [rbp - 56] 
	call	_ZNKSt16reverse_iteratorIN9__gnu_cxx17__normal_iteratorIPKcNSt7__cxx1112basic_stringIcSt11char_traitsIcESaIcEEEEEE4baseEv
	mov	qword ptr [r13 - 16], rax
	mov	rdi, r15
	call	_ZNKSt16reverse_iteratorIN9__gnu_cxx17__normal_iteratorIPKcNSt7__cxx1112basic_stringIcSt11char_traitsIcESaIcEEEEEE4baseEv
	mov	qword ptr [r14 - 16], rax
	mov	rdi, r12
	mov	rsi, rbx
	call	_ZN9__gnu_cxxmiIPKcNSt7__cxx1112basic_stringIcSt11char_traitsIcESaIcEEEEENS_17__normal_iteratorIT_T0_E15difference_typeERKSC_SF_
	mov	ecx, dword ptr [rip + x.248]
	mov	edx, dword ptr [rip + y.249]
	lea	esi, [rcx - 1]
	imul	esi, ecx
	not	esi
	or	esi, -2
	cmp	esi, -1
	sete	cl
	cmp	edx, 10
	setl	bl
	xor	bl, cl
	mov	edi, -153068568
	mov	ebx, 278377373
	cmovne	edi, ebx
	cmp	esi, -1
	mov	ecx, edi
	cmove	ecx, ebx
	cmp	edx, 10
	mov	qword ptr [rbp - 64], rax
	cmovge	ecx, edi
	jmp	.LBB110_1
.LBB110_9:                              
	mov	rbx, rsp
	lea	r12, [rbx - 16]
	mov	rsp, r12
	mov	r13, rsp
	lea	r14, [r13 - 16]
	mov	rsp, r14
	mov	rdi, qword ptr [rbp - 56] 
	call	_ZNKSt16reverse_iteratorIN9__gnu_cxx17__normal_iteratorIPKcNSt7__cxx1112basic_stringIcSt11char_traitsIcESaIcEEEEEE4baseEv
	mov	qword ptr [rbx - 16], rax
	mov	rdi, r15
	call	_ZNKSt16reverse_iteratorIN9__gnu_cxx17__normal_iteratorIPKcNSt7__cxx1112basic_stringIcSt11char_traitsIcESaIcEEEEEE4baseEv
	mov	qword ptr [r13 - 16], rax
	mov	rdi, r12
	mov	rsi, r14
