	.text
	.intel_syntax noprefix
	.file	"/mnt/c/Users/Adam/Developer/CryptoFunctionDetection/crypto_implementations/botan/src/lib/block/des/des.cpp"
	.globl	_ZNK5Botan3DES9encrypt_nEPKhPhm 
	.p2align	4, 0x90
	.type	_ZNK5Botan3DES9encrypt_nEPKhPhm,@function
_ZNK5Botan3DES9encrypt_nEPKhPhm:        
	.cfi_startproc

	push	rbp
.Lcfi0:
	.cfi_def_cfa_offset 16
.Lcfi1:
	.cfi_offset rbp, -16
	mov	rbp, rsp
.Lcfi2:
	.cfi_def_cfa_register rbp
	push	r15
	push	r14
	push	r13
	push	r12
	push	rbx
	sub	rsp, 200
.Lcfi3:
	.cfi_offset rbx, -56
.Lcfi4:
	.cfi_offset r12, -48
.Lcfi5:
	.cfi_offset r13, -40
.Lcfi6:
	.cfi_offset r14, -32
.Lcfi7:
	.cfi_offset r15, -24
	mov	qword ptr [rbp - 224], rcx 
	mov	qword ptr [rbp - 216], rdx 
	mov	qword ptr [rbp - 208], rsi 
	mov	r13, rdi
	mov	eax, dword ptr [rip + x]
	mov	ecx, dword ptr [rip + y]
	lea	edx, [rax - 1]
	imul	edx, eax
	not	edx
	or	edx, -2
	cmp	edx, -1
	sete	byte ptr [rbp - 57]
	cmp	ecx, 10
	setl	byte ptr [rbp - 58]
	lea	rax, [r13 + 8]
	mov	qword ptr [rbp - 160], rax 
	mov	eax, -1551063147









	jmp	.LBB0_1
.LBB0_91:                               
	xor	esi, esi
	cmp	r8, rdi
	setne	sil
	mov	rdi, r13
	call	_ZNK5Botan18SymmetricAlgorithm14verify_key_setEb
	mov	eax, -1348647939
	.p2align	4, 0x90
.LBB0_1:                                









	cmp	eax, 330700662
	jle	.LBB0_2

	cmp	eax, 1101945379
	jle	.LBB0_15

	cmp	eax, 1101945380
	je	.LBB0_51

	cmp	eax, 1612154593
	je	.LBB0_41

	cmp	eax, 1886391923
	jne	.LBB0_1

	mov	eax, 330700663
	mov	rcx, qword ptr [rbp - 224] 
	mov	qword ptr [rbp - 168], rcx 
	mov	rcx, qword ptr [rbp - 216] 
	mov	qword ptr [rbp - 176], rcx 
	mov	rcx, qword ptr [rbp - 208] 
	mov	qword ptr [rbp - 184], rcx 
	jmp	.LBB0_1
	.p2align	4, 0x90
.LBB0_2:                                
	cmp	eax, -1196690511
	jle	.LBB0_3

	cmp	eax, -1196690510
	je	.LBB0_75

	cmp	eax, -368965116
	je	.LBB0_52

	cmp	eax, -379784416
	jne	.LBB0_1
	jmp	.LBB0_13
	.p2align	4, 0x90
.LBB0_15:                               
	cmp	eax, 330700663
	je	.LBB0_40

	cmp	eax, 646572351
	jne	.LBB0_1

	mov	rax, qword ptr [rbp - 104]
	mov	rax, qword ptr [rbp - 152]
	mov	eax, dword ptr [rax]
	bswap	eax
	mov	rcx, qword ptr [rbp - 104]
	mov	dword ptr [rcx], eax
	mov	rax, qword ptr [rbp - 112]
	mov	rax, qword ptr [rbp - 152]
	mov	eax, dword ptr [rax + 4]
	bswap	eax
	mov	rcx, qword ptr [rbp - 112]
	mov	dword ptr [rcx], eax
	mov	rdi, qword ptr [rbp - 104]
	mov	rsi, qword ptr [rbp - 112]
	call	_ZN5Botan12_GLOBAL__N_16des_IPERjS1_
	mov	rax, qword ptr [rbp - 128]
	mov	r10, qword ptr [rax]
	mov	eax, dword ptr [rip + x.421]
	mov	ecx, dword ptr [rip + y.422]
	mov	edx, eax
	neg	edx
	not	edx
	imul	edx, eax
	not	edx
	or	edx, -2
	cmp	edx, -1
	sete	al
	cmp	ecx, 10
	setl	bl
	xor	bl, al
	mov	esi, -777574955
	mov	edi, 526302726
	cmovne	esi, edi
	cmp	edx, -1
	sete	byte ptr [rbp - 44]
	mov	eax, esi
	cmove	eax, edi
	cmp	ecx, 10
	setl	byte ptr [rbp - 56]
	cmovge	eax, esi
	mov	ecx, 1934579201
	jmp	.LBB0_18
	.p2align	4, 0x90
.LBB0_3:                                
	cmp	eax, -1551063147
	je	.LBB0_25

	cmp	eax, -1348647939
	jne	.LBB0_1

	mov	rax, rsp
	add	rax, -16
	mov	rsp, rax
	mov	qword ptr [rbp - 72], rax
	mov	rax, rsp
	add	rax, -16
	mov	rsp, rax
	mov	qword ptr [rbp - 80], rax
	mov	rax, rsp
	add	rax, -16
	mov	rsp, rax
	mov	qword ptr [rbp - 88], rax
	mov	rax, rsp
	add	rax, -16
	mov	rsp, rax
	mov	qword ptr [rbp - 96], rax
	mov	rax, rsp
	add	rax, -16
	mov	rsp, rax
	mov	qword ptr [rbp - 104], rax
	mov	rax, rsp
	add	rax, -16
	mov	rsp, rax
	mov	qword ptr [rbp - 112], rax
	mov	rax, qword ptr [rbp - 160] 
	mov	qword ptr [rbp - 128], rax
	mov	r9, qword ptr [rbp - 128]
	mov	r8, qword ptr [r9]
	mov	eax, dword ptr [rip + x.419]
	mov	r10d, dword ptr [rip + y.420]
	mov	edi, eax
	neg	edi
	not	edi
	imul	edi, eax
	mov	eax, edi
	not	eax
	or	eax, -2
	and	edi, 1
	cmp	eax, -1
	sete	al
	sete	byte ptr [rbp - 44]
	mov	ecx, 1324114347
	mov	edx, 1722250601
	cmove	ecx, edx
	cmp	r10d, 10
	setl	bl
	setl	byte ptr [rbp - 56]
	mov	esi, 1324114347
	cmovge	ecx, esi
	xor	bl, al
	cmovne	ecx, edx
	mov	eax, 114725738
	jmp	.LBB0_6
.LBB0_51:                               
	mov	r15, qword ptr [rbp - 120]
	mov	r12, qword ptr [rbp - 144]
	mov	eax, -368965116
	mov	r14, qword ptr [rbp - 136]
	jmp	.LBB0_1
.LBB0_41:                               
	mov	rax, qword ptr [rbp - 72]
	mov	rax, qword ptr [rbp - 120]
	mov	eax, dword ptr [rax]
	bswap	eax
	mov	rcx, qword ptr [rbp - 72]
	mov	dword ptr [rcx], eax
	mov	rax, qword ptr [rbp - 80]
	mov	rax, qword ptr [rbp - 120]
	mov	eax, dword ptr [rax + 4]
	bswap	eax
	mov	rcx, qword ptr [rbp - 80]
	mov	dword ptr [rcx], eax
	mov	rax, qword ptr [rbp - 88]
	mov	rax, qword ptr [rbp - 120]
	mov	eax, dword ptr [rax + 8]
	bswap	eax
	mov	rcx, qword ptr [rbp - 88]
	mov	dword ptr [rcx], eax
	mov	rax, qword ptr [rbp - 96]
	mov	rax, qword ptr [rbp - 120]
	mov	eax, dword ptr [rax + 12]
	bswap	eax
	mov	rcx, qword ptr [rbp - 96]
	mov	dword ptr [rcx], eax
	mov	rdi, qword ptr [rbp - 72]
	mov	rsi, qword ptr [rbp - 80]
	call	_ZN5Botan12_GLOBAL__N_16des_IPERjS1_
	mov	rdi, qword ptr [rbp - 88]
	mov	rsi, qword ptr [rbp - 96]
	call	_ZN5Botan12_GLOBAL__N_16des_IPERjS1_
	mov	rax, qword ptr [rbp - 128]
	mov	r8, qword ptr [rax]
	mov	eax, dword ptr [rip + x.421]
	mov	ecx, dword ptr [rip + y.422]
	lea	edx, [rax - 1]
	imul	edx, eax
	not	edx
	or	edx, -2
	cmp	edx, -1
	sete	al
	cmp	ecx, 10
	setl	bl
	xor	bl, al
	mov	esi, -777574955
	mov	edi, 526302726
	cmovne	esi, edi
	cmp	edx, -1
	sete	byte ptr [rbp - 44]
	mov	eax, esi
	cmove	eax, edi
	cmp	ecx, 10
	setl	byte ptr [rbp - 56]
	cmovge	eax, esi
	mov	ecx, 1934579201
	jmp	.LBB0_42
.LBB0_75:                               
	mov	rax, qword ptr [rbp - 160] 
	mov	r8, qword ptr [rax]
	mov	ecx, dword ptr [rip + x.419]
	mov	r9d, dword ptr [rip + y.420]
	lea	esi, [rcx - 1]
	imul	esi, ecx
	mov	ecx, esi
	not	ecx
	or	ecx, -2
	cmp	ecx, -1
	sete	bl
	cmp	r9d, 10
	setl	byte ptr [rbp - 56]
	setl	al
	xor	al, bl
	mov	eax, 1324114347
	mov	edx, 1722250601
	cmovne	eax, edx
	cmp	ecx, -1
	sete	byte ptr [rbp - 44]
	mov	ecx, eax
	cmove	ecx, edx
	cmp	r9d, 10
	cmovge	ecx, eax
	and	esi, 1
	mov	ebx, 114725738
	jmp	.LBB0_76
.LBB0_52:                               
	mov	qword ptr [rbp - 192], r14
	mov	qword ptr [rbp - 200], r12
	mov	qword ptr [rbp - 152], r15
	cmp	qword ptr [rbp - 192], 0
	mov	eax, 646572351
	mov	ecx, -379784416
	cmove	eax, ecx
	jmp	.LBB0_1
.LBB0_40:                               
	mov	rax, qword ptr [rbp - 168] 
	mov	qword ptr [rbp - 136], rax
	mov	rax, qword ptr [rbp - 176] 
	mov	qword ptr [rbp - 144], rax
	mov	rax, qword ptr [rbp - 184] 
	mov	qword ptr [rbp - 120], rax
	mov	rax, qword ptr [rbp - 136]
	cmp	rax, 1
	mov	eax, 1101945380
	mov	ecx, 1612154593
	cmova	eax, ecx
	jmp	.LBB0_1
.LBB0_20:                               
	mov	ecx, eax
	.p2align	4, 0x90
.LBB0_18:                               

	cmp	ecx, 526302725
	jg	.LBB0_53

	cmp	ecx, -1741699557
	je	.LBB0_20

	cmp	ecx, -777574955
	jne	.LBB0_18

	mov	ecx, -1741699557
	jmp	.LBB0_18
	.p2align	4, 0x90
.LBB0_53:                               
	cmp	ecx, 526302726
	je	.LBB0_58

	cmp	ecx, 1934579201
	jne	.LBB0_18

	movzx	ebx, byte ptr [rbp - 44]
	movzx	ecx, byte ptr [rbp - 56]
	mov	edx, ebx
	xor	dl, cl
	test	cl, cl
	mov	ecx, -777574955
	mov	edi, -1741699557
	cmovne	ecx, edi
	test	bl, bl
	mov	esi, -777574955
	cmove	ecx, esi
	test	dl, dl
	cmovne	ecx, edi
	jmp	.LBB0_18
.LBB0_25:                               
	mov	cl, byte ptr [rbp - 57]
	mov	al, byte ptr [rbp - 58]
	mov	edx, ecx
	xor	dl, al
	test	al, al
	mov	eax, -1196690510
	mov	esi, -1348647939
	cmovne	eax, esi
	test	cl, cl
	mov	ecx, -1196690510
	cmove	eax, ecx
	test	dl, dl
	cmovne	eax, esi
	jmp	.LBB0_1
.LBB0_9:                                
	mov	eax, ecx
	.p2align	4, 0x90
.LBB0_6:                                

	mov	ebx, eax
	and	ebx, 2147483647
	cmp	ebx, 1324114346
	jle	.LBB0_7

	cmp	ebx, 1324114347
	je	.LBB0_34

	cmp	ebx, 1722250601
	jne	.LBB0_6
	jmp	.LBB0_28
	.p2align	4, 0x90
.LBB0_7:                                
	cmp	ebx, 114725738
	je	.LBB0_33

	cmp	ebx, 918865027
	jne	.LBB0_6
	jmp	.LBB0_9
.LBB0_34:                               
	mov	eax, 918865027
	jmp	.LBB0_6
.LBB0_33:                               
	movzx	edx, byte ptr [rbp - 44]
	movzx	eax, byte ptr [rbp - 56]
	mov	ebx, edx
	xor	bl, al
	test	al, al
	mov	eax, 1324114347
	mov	esi, 918865027
	cmovne	eax, esi
	test	dl, dl
	mov	edx, 1324114347
	cmove	eax, edx
	test	bl, bl
	cmovne	eax, esi
	jmp	.LBB0_6
.LBB0_44:                               
	mov	ecx, eax
	.p2align	4, 0x90
.LBB0_42:                               

	cmp	ecx, 526302725
	jg	.LBB0_45

	cmp	ecx, -1741699557
	je	.LBB0_44

	cmp	ecx, -777574955
	jne	.LBB0_42

	mov	ecx, -1741699557
	jmp	.LBB0_42
	.p2align	4, 0x90
.LBB0_45:                               
	cmp	ecx, 526302726
	je	.LBB0_50

	cmp	ecx, 1934579201
	jne	.LBB0_42

	movzx	ebx, byte ptr [rbp - 44]
	movzx	ecx, byte ptr [rbp - 56]
	mov	edx, ebx
	xor	dl, cl
	mov	edx, -777574955
	mov	esi, -1741699557
	cmovne	edx, esi
	test	cl, cl
	mov	ecx, edx
	cmovne	ecx, esi
	test	bl, bl
	cmove	ecx, edx
	jmp	.LBB0_42
.LBB0_79:                               
	mov	ebx, ecx
	.p2align	4, 0x90
.LBB0_76:                               

	mov	edi, ebx
	and	edi, 2147483647
	cmp	edi, 1324114346
	jle	.LBB0_77

	cmp	edi, 1324114347
	je	.LBB0_88

	cmp	edi, 1722250601
	jne	.LBB0_76
	jmp	.LBB0_82
	.p2align	4, 0x90
.LBB0_77:                               
	cmp	edi, 114725738
	je	.LBB0_87

	cmp	edi, 918865027
	jne	.LBB0_76
	jmp	.LBB0_79
.LBB0_88:                               
	mov	ebx, 918865027
	jmp	.LBB0_76
.LBB0_87:                               
	movzx	edx, byte ptr [rbp - 44]
	movzx	ebx, byte ptr [rbp - 56]
	mov	eax, edx
	xor	al, bl
	test	bl, bl
	mov	ebx, 1324114347
	mov	edi, 918865027
	cmovne	ebx, edi
	test	dl, dl
	mov	edx, 1324114347
	cmove	ebx, edx
	test	al, al
	cmovne	ebx, edi
	jmp	.LBB0_76
.LBB0_58:                               
	mov	rcx, qword ptr [rbp - 104]
	mov	rax, qword ptr [rbp - 112]
	mov	qword ptr [rbp - 232], rcx 
	mov	r8d, dword ptr [rcx]
	mov	qword ptr [rbp - 240], rax 
	mov	eax, dword ptr [rax]
	xor	ecx, ecx
	jmp	.LBB0_59
.LBB0_28:                               
	test	edi, edi
	mov	rdi, qword ptr [r9 + 8]
	sete	byte ptr [rbp - 44]
	cmp	r10d, 10
	setl	byte ptr [rbp - 56]
	mov	esi, 114725738
	jmp	.LBB0_29
.LBB0_50:                               
	mov	rdi, qword ptr [rbp - 72]
	mov	rsi, qword ptr [rbp - 80]
	mov	rdx, qword ptr [rbp - 88]
	mov	rcx, qword ptr [rbp - 96]
	call	_ZN5Botan12_GLOBAL__N_114des_encrypt_x2ERjS1_S1_S1_PKj
	mov	rdi, qword ptr [rbp - 72]
	mov	rsi, qword ptr [rbp - 80]
	call	_ZN5Botan12_GLOBAL__N_16des_FPERjS1_
	mov	rdi, qword ptr [rbp - 88]
	mov	rsi, qword ptr [rbp - 96]
	call	_ZN5Botan12_GLOBAL__N_16des_FPERjS1_
	mov	rax, qword ptr [rbp - 80]
	mov	eax, dword ptr [rax]
	mov	rcx, qword ptr [rbp - 72]
	mov	ecx, dword ptr [rcx]
	mov	rdx, qword ptr [rbp - 96]
	mov	edx, dword ptr [rdx]
	mov	rsi, qword ptr [rbp - 88]
	mov	esi, dword ptr [rsi]
	mov	rdi, qword ptr [rbp - 144]
	bswap	eax
	mov	dword ptr [rdi], eax
	bswap	ecx
	mov	dword ptr [rdi + 4], ecx
	bswap	edx
	mov	dword ptr [rdi + 8], edx
	bswap	esi
	mov	dword ptr [rdi + 12], esi
	mov	rax, qword ptr [rbp - 120]
	add	rax, 16
	mov	qword ptr [rbp - 184], rax 
	mov	rax, qword ptr [rbp - 144]
	add	rax, 16
	mov	qword ptr [rbp - 176], rax 
	mov	rax, qword ptr [rbp - 136]
	movabs	rcx, -1784132871221433473
	lea	rax, [rax + rcx - 2]
	sub	rax, rcx
	mov	qword ptr [rbp - 168], rax 
	mov	eax, 330700663
	jmp	.LBB0_1
.LBB0_82:                               
	test	esi, esi
	mov	rdi, qword ptr [r13 + 16]
	sete	byte ptr [rbp - 44]
	cmp	r9d, 10
	setl	byte ptr [rbp - 56]
	mov	edx, 114725738
	jmp	.LBB0_83
	.p2align	4, 0x90
.LBB0_64:                               
	mov	edx, dword ptr [rbp - 64]
	rol	edx, 28
	mov	r11, qword ptr [rbp - 56]
	lea	rax, [8*r11]
	mov	r14, -12
	sub	r14, rax
	mov	eax, edx
	not	eax
	and	eax, 1784039076
	and	edx, -1784039077
	or	edx, eax
	mov	ecx, dword ptr [r10 + 8*r11]
	mov	r12d, dword ptr [r10 + 8*r11 + 4]
	mov	esi, ecx
	not	esi
	and	esi, 1784039076
	and	ecx, -1784039077
	or	ecx, esi
	xor	ecx, edx
	mov	edx, dword ptr [rbp - 64]
	mov	esi, edx
	not	esi
	and	esi, r12d
	not	r12d
	and	r12d, edx
	or	r12d, esi
	mov	r8d, ecx
	mov	r15d, ecx
	mov	edi, ecx
	xor	edi, -64
	and	edi, ecx
	shr	ecx, 24
	mov	esi, ecx
	xor	esi, 192
	and	esi, ecx
	movzx	ecx, byte ptr [rsi + _ZN5Botan12_GLOBAL__N_1L10SPBOX_CATSE]
	imul	esi, ecx, 1879314694
	mov	ecx, esi
	xor	ecx, -16843782
	and	ecx, esi
	mov	esi, r12d
	mov	ebx, r12d
	mov	edx, r12d
	xor	edx, -64
	and	edx, r12d
	shr	r12d, 24
	mov	r9, r13
	mov	r13d, r12d
	xor	r13d, 192
	and	r13d, r12d
	mov	r12d, r13d
	and	r12d, 64
	xor	r13d, 64
	or	r13d, r12d
	movzx	eax, byte ptr [r13 + _ZN5Botan12_GLOBAL__N_1L10SPBOX_CATSE]
	imul	r12d, eax, 33628192
	mov	eax, r12d
	xor	eax, 2146402240
	and	eax, r12d
	mov	r12d, eax
	not	r12d
	mov	r13d, r12d
	and	r13d, 2067059905
	and	eax, -2067059936
	or	eax, r13d
	mov	r13d, ecx
	not	r13d
	or	r12d, r13d
	and	r13d, 2067059905
	and	ecx, -2067059906
	or	ecx, r13d
	mov	r13, r9
	xor	ecx, eax
	not	r12d
	or	r12d, ecx
	shr	r8d, 16
	mov	eax, r8d
	not	eax
	or	eax, 1619846912
	and	eax, 1619846964
	and	r8d, 11
	or	r8d, eax
	xor	r8d, 1619847092
	movzx	eax, byte ptr [r8 + _ZN5Botan12_GLOBAL__N_1L10SPBOX_CATSE]
	imul	eax, eax, 9441352
	and	eax, 134349320
	mov	ecx, r12d
	and	ecx, eax
	xor	eax, r12d
	or	eax, ecx
	shr	esi, 16
	mov	ecx, esi
	xor	ecx, 65472
	and	ecx, esi
	mov	r8d, ecx
	not	r8d
	and	r8d, -909777858
	mov	esi, ecx
	and	esi, 7105
	or	esi, r8d
	xor	esi, -909777666
	and	ecx, 192
	or	ecx, esi
	movzx	ecx, byte ptr [rcx + _ZN5Botan12_GLOBAL__N_1L10SPBOX_CATSE]
	imul	ecx, ecx, -1912208863
	mov	esi, ecx
	not	esi
	mov	r8d, eax
	not	r8d
	or	esi, r8d
	and	r8d, 1580828420
	and	eax, -1580828421
	or	eax, r8d
	and	ecx, 8396929
	not	esi
	or	ecx, 1580828420
	xor	ecx, eax
	and	esi, 8396929
	or	esi, ecx
	shr	r15d, 8
	mov	eax, r15d
	xor	eax, 16777152
	and	eax, r15d
	mov	ecx, eax
	and	ecx, 256
	xor	eax, 256
	or	eax, ecx
	movzx	eax, byte ptr [rax + _ZN5Botan12_GLOBAL__N_1L10SPBOX_CATSE]
	imul	r15d, eax, 9511232
	mov	ecx, esi
	not	ecx
	mov	r8d, ecx
	and	r8d, -1532166786
	and	esi, 1532166785
	or	esi, r8d
	mov	eax, r15d
	not	eax
	or	eax, -1107820801
	or	ecx, eax
	and	eax, -1532166786
	and	r15d, 1107296256
	or	r15d, eax
	xor	r15d, esi
	not	ecx
	or	ecx, r15d
	shr	ebx, 8
	mov	eax, ebx
	xor	eax, 16777152
	and	eax, ebx
	mov	esi, eax
	not	esi
	and	esi, 1441667288
	mov	ebx, eax
	and	ebx, 1173287
	or	ebx, esi
	xor	ebx, 1441667480
	and	eax, 320
	or	eax, ebx
	movzx	eax, byte ptr [rax + _ZN5Botan12_GLOBAL__N_1L10SPBOX_CATSE]
	imul	eax, eax, -2138828776
	and	eax, 541081616
	mov	esi, ecx
	and	esi, eax
	xor	eax, ecx
	or	eax, esi
	mov	ecx, edi
	and	ecx, 384
	xor	edi, 384
	or	edi, ecx
	movzx	ecx, byte ptr [rdi + _ZN5Botan12_GLOBAL__N_1L10SPBOX_CATSE]
	imul	ecx, ecx, -535690750
	mov	esi, ecx
	xor	esi, -69208068
	and	esi, ecx
	mov	ecx, edx
	not	ecx
	and	ecx, -245842322
	mov	edi, edx
	and	edi, 245842321
	or	edi, ecx
	xor	edi, -245842002
	and	edx, 448
	or	edx, edi
	movzx	ecx, byte ptr [rdx + _ZN5Botan12_GLOBAL__N_1L10SPBOX_CATSE]
	imul	ecx, ecx, 2171456
	mov	r8d, ecx
	xor	r8d, 805040000
	and	r8d, ecx
	mov	ecx, dword ptr [rbp - 44]
	mov	edx, esi
	not	edx
	and	edx, ecx
	not	ecx
	and	ecx, esi
	or	ecx, edx
	mov	edx, ecx
	not	edx
	and	edx, 1355391253
	and	ecx, -1355391254
	or	ecx, edx
	mov	edx, eax
	not	edx
	and	edx, 1355391253
	and	eax, -1355391254
	or	eax, edx
	xor	eax, ecx
	mov	ecx, eax
	not	ecx
	and	ecx, r8d
	not	r8d
	and	r8d, eax
	or	r8d, ecx
	shld	eax, r8d, 28
	movabs	rcx, 6065338521166331131
	mov	rdx, rcx
	lea	rcx, [rdx + 2*r11 + 2]
	sub	rcx, rdx
	mov	edi, dword ptr [r10 + 4*rcx]
	mov	ecx, eax
	not	ecx
	and	ecx, edi
	not	edi
	and	edi, eax
	or	edi, ecx
	neg	r14
	mov	r11d, dword ptr [r10 + r14]
	mov	eax, r8d
	not	eax
	and	eax, r11d
	not	r11d
	and	r11d, r8d
	or	r11d, eax
	mov	eax, edi
	shr	eax, 24
	mov	edx, eax
	xor	edx, 192
	and	edx, eax
	movzx	eax, byte ptr [rdx + _ZN5Botan12_GLOBAL__N_1L10SPBOX_CATSE]
	imul	edx, eax, 1879314694
	mov	eax, edx
	not	eax
	or	eax, -557407325
	mov	esi, r11d
	shr	esi, 24
	mov	ebx, esi
	xor	ebx, 192
	and	ebx, esi
	mov	esi, ebx
	and	esi, 64
	xor	ebx, 64
	or	ebx, esi
	movzx	esi, byte ptr [rbx + _ZN5Botan12_GLOBAL__N_1L10SPBOX_CATSE]
	imul	ebx, esi, 33628192
	mov	esi, ebx
	not	esi
	or	esi, 1606886279
	and	esi, -540564569
	and	ebx, 1048576
	or	ebx, esi
	and	eax, -540564569
	and	edx, 1024
	or	edx, eax
	xor	edx, ebx
	mov	eax, edi
	shr	eax, 16
	mov	esi, eax
	xor	esi, 65472
	and	esi, eax
	mov	eax, esi
	and	eax, 128
	xor	esi, 128
	or	esi, eax
	movzx	eax, byte ptr [rsi + _ZN5Botan12_GLOBAL__N_1L10SPBOX_CATSE]
	imul	eax, eax, 9441352
	mov	esi, eax
	xor	esi, -134349328
	and	esi, eax
	mov	eax, edx
	not	eax
	mov	ebx, esi
	not	ebx
	mov	ecx, eax
	and	ecx, 2124400524
	and	edx, -2130706400
	or	edx, ecx
	or	eax, ebx
	and	ebx, 2124400524
	and	esi, -2124400528
	or	esi, ebx
	xor	esi, edx
	not	eax
	or	eax, esi
	mov	ecx, r11d
	shr	ecx, 16
	mov	edx, ecx
	xor	edx, 65472
	and	edx, ecx
	mov	ecx, edx
	not	ecx
	and	ecx, -1677871365
	mov	esi, edx
	and	esi, 18692
	or	esi, ecx
	xor	esi, -1677871557
	and	edx, 192
	or	edx, esi
	movzx	ecx, byte ptr [rdx + _ZN5Botan12_GLOBAL__N_1L10SPBOX_CATSE]
	imul	ecx, ecx, -1912208863
	mov	esi, ecx
	not	esi
	or	esi, -8396930
	mov	edx, eax
	not	edx
	mov	ebx, edx
	and	ebx, 1525851925
	and	eax, -1525851926
	or	eax, ebx
	or	edx, esi
	and	esi, 1525851925
	and	ecx, 128
	or	ecx, esi
	xor	ecx, eax
	not	edx
	or	edx, ecx
	mov	eax, edi
	shr	eax, 8
	mov	ecx, eax
	xor	ecx, 16777152
	and	ecx, eax
	mov	eax, ecx
	not	eax
	and	eax, 1006017833
	mov	esi, ecx
	and	esi, 615126
	or	esi, eax
	xor	esi, 1006017577
	and	ecx, 256
	or	ecx, esi
	movzx	eax, byte ptr [rcx + _ZN5Botan12_GLOBAL__N_1L10SPBOX_CATSE]
	imul	eax, eax, 9511232
	and	eax, 1107820800
	mov	ecx, edx
	and	ecx, eax
	xor	eax, edx
	or	eax, ecx
	mov	ecx, r11d
	shr	ecx, 8
	or	ecx, 320
	and	ecx, 383
	movzx	ecx, byte ptr [rcx + _ZN5Botan12_GLOBAL__N_1L10SPBOX_CATSE]
	imul	edx, ecx, -2138828776
	and	edx, 541081616
	mov	ecx, eax
	and	ecx, edx
	xor	edx, eax
	or	edx, ecx
	mov	eax, edi
	not	eax
	or	eax, 1377304000
	and	eax, 1377304018
	and	edi, 45
	or	edi, eax
	xor	edi, 1377303634
	movzx	eax, byte ptr [rdi + _ZN5Botan12_GLOBAL__N_1L10SPBOX_CATSE]
	imul	eax, eax, -535690750
	mov	esi, eax
	xor	esi, -69208068
	and	esi, eax
	mov	eax, r11d
	not	eax
	or	eax, -698175616
	and	eax, -698175587
	and	r11d, 34
	or	r11d, eax
	xor	r11d, -698175907
	movzx	eax, byte ptr [r11 + _ZN5Botan12_GLOBAL__N_1L10SPBOX_CATSE]
	imul	ecx, eax, 2171456
	mov	eax, ecx
	xor	eax, 805040000
	and	eax, ecx
	mov	ecx, dword ptr [rbp - 64]
	mov	edi, esi
	not	edi
	and	edi, 232359599
	and	esi, -232359600
	or	esi, edi
	mov	edi, ecx
	not	edi
	and	edi, 232359599
	and	ecx, -232359600
	or	ecx, edi
	xor	ecx, esi
	mov	esi, ecx
	not	esi
	and	esi, 1566344987
	and	ecx, -1566344988
	or	ecx, esi
	mov	esi, edx
	not	esi
	and	esi, 1566344987
	and	edx, -1566344988
	or	edx, esi
	xor	edx, ecx
	mov	ecx, edx
	not	ecx
	and	ecx, 1249114195
	and	edx, -1249114196
	or	edx, ecx
	mov	ecx, eax
	not	ecx
	and	ecx, 1249114195
	and	eax, 898369408
	or	eax, ecx
	xor	eax, edx
	mov	rcx, qword ptr [rbp - 56]
	xor	edx, edx
	sub	rdx, rcx
	mov	ecx, 2
	sub	rcx, rdx
.LBB0_59:                               


	mov	edx, -1388454856
	jmp	.LBB0_60
.LBB0_63:                               
	mov	qword ptr [rbp - 56], rcx
	mov	dword ptr [rbp - 64], eax
	mov	dword ptr [rbp - 44], r8d
	mov	rdx, qword ptr [rbp - 56]
	cmp	rdx, 16
	mov	edx, -1872358086
	mov	esi, 1508744705
	cmove	edx, esi
	.p2align	4, 0x90
.LBB0_60:                               


	cmp	edx, -1872358086
	je	.LBB0_64

	cmp	edx, 1508744705
	je	.LBB0_65

	cmp	edx, -1388454856
	jne	.LBB0_60
	jmp	.LBB0_63
.LBB0_32:                               
	mov	esi, ecx
	.p2align	4, 0x90
.LBB0_29:                               

	mov	eax, esi
	and	eax, 2147483647
	cmp	eax, 1324114346
	jle	.LBB0_30

	cmp	eax, 1324114347
	je	.LBB0_39

	cmp	eax, 1722250601
	jne	.LBB0_29
	jmp	.LBB0_37
	.p2align	4, 0x90
.LBB0_30:                               
	cmp	eax, 114725738
	je	.LBB0_38

	cmp	eax, 918865027
	jne	.LBB0_29
	jmp	.LBB0_32
.LBB0_39:                               
	mov	esi, 918865027
	jmp	.LBB0_29
.LBB0_38:                               
	movzx	edx, byte ptr [rbp - 44]
	movzx	ebx, byte ptr [rbp - 56]
	mov	eax, edx
	xor	al, bl
	test	bl, bl
	mov	esi, 1324114347
	mov	ebx, 918865027
	cmovne	esi, ebx
	test	dl, dl
	mov	edx, 1324114347
	cmove	esi, edx
	test	al, al
	cmovne	esi, ebx
	jmp	.LBB0_29
.LBB0_86:                               
	mov	edx, ecx
	.p2align	4, 0x90
.LBB0_83:                               

	mov	esi, edx
	and	esi, 2147483647
	cmp	esi, 1324114346
	jle	.LBB0_84

	cmp	esi, 1324114347
	je	.LBB0_93

	cmp	esi, 1722250601
	jne	.LBB0_83
	jmp	.LBB0_91
	.p2align	4, 0x90
.LBB0_84:                               
	cmp	esi, 114725738
	je	.LBB0_92

	cmp	esi, 918865027
	jne	.LBB0_83
	jmp	.LBB0_86
.LBB0_93:                               
	mov	edx, 918865027
	jmp	.LBB0_83
.LBB0_92:                               
	movzx	ebx, byte ptr [rbp - 44]
	movzx	edx, byte ptr [rbp - 56]
	mov	eax, ebx
	xor	al, dl
	mov	eax, 1324114347
	mov	esi, 918865027
	cmovne	eax, esi
	test	dl, dl
	mov	edx, eax
	cmovne	edx, esi
	test	bl, bl
	cmove	edx, eax
	jmp	.LBB0_83
.LBB0_65:                               
	mov	eax, dword ptr [rbp - 44]
	mov	rcx, qword ptr [rbp - 232] 
	mov	dword ptr [rcx], eax
	mov	eax, dword ptr [rbp - 64]
	mov	rcx, qword ptr [rbp - 240] 
	mov	dword ptr [rcx], eax
	mov	rdi, qword ptr [rbp - 104]
	mov	rsi, qword ptr [rbp - 112]
	call	_ZN5Botan12_GLOBAL__N_16des_FPERjS1_
	mov	rax, qword ptr [rbp - 112]
	mov	r8d, dword ptr [rax]
	mov	rcx, qword ptr [rbp - 104]
	mov	r9d, dword ptr [rcx]
	mov	rdx, qword ptr [rbp - 200]
	mov	esi, dword ptr [rip + x.27]
	mov	edi, esi
	neg	edi
	not	edi
	imul	edi, esi
	mov	esi, edi
	xor	esi, -2
	test	esi, edi
	sete	byte ptr [rbp - 44]
	mov	esi, dword ptr [rip + y.28]
	cmp	esi, 10
	setl	byte ptr [rbp - 56]
	bswap	r8d
	bswap	r9d
	mov	esi, -644910307
	jmp	.LBB0_66
.LBB0_37:                               
	xor	esi, esi
	cmp	r8, rdi
	setne	sil
	mov	rdi, r13
	call	_ZNK5Botan18SymmetricAlgorithm14verify_key_setEb
	mov	eax, dword ptr [rip + x]
	mov	ecx, eax
	neg	ecx
	not	ecx
	imul	ecx, eax
	not	ecx
	or	ecx, -2
	cmp	ecx, -1
	sete	cl
	mov	eax, -1196690510
	mov	edi, 1886391923
	cmove	eax, edi
	cmp	dword ptr [rip + y], 10
	setl	dl
	mov	esi, -1196690510
	cmovge	eax, esi
	xor	dl, cl
	cmovne	eax, edi
	jmp	.LBB0_1
.LBB0_69:                               
	movzx	ecx, byte ptr [rbp - 44]
	movzx	eax, byte ptr [rbp - 56]
	mov	ebx, ecx
	xor	bl, al
	test	al, al
	mov	esi, -266241031
	mov	eax, 1444073801
	cmovne	esi, eax
	test	cl, cl
	mov	ecx, -266241031
	cmove	esi, ecx
	test	bl, bl
	cmovne	esi, eax
	.p2align	4, 0x90
.LBB0_66:                               

	cmp	esi, -266241032
	jg	.LBB0_70

	cmp	esi, -931930484
	je	.LBB0_74

	cmp	esi, -644910307
	jne	.LBB0_66
	jmp	.LBB0_69
	.p2align	4, 0x90
.LBB0_70:                               
	cmp	esi, -266241031
	je	.LBB0_73

	cmp	esi, 1444073801
	jne	.LBB0_66

	mov	dword ptr [rdx], r8d
	mov	dword ptr [rdx + 4], r9d
	mov	eax, dword ptr [rip + x.27]
	lea	ecx, [rax - 1]
	imul	ecx, eax
	not	ecx
	or	ecx, -2
	cmp	ecx, -1
	sete	al
	mov	esi, -266241031
	mov	ebx, -931930484
	cmove	esi, ebx
	cmp	dword ptr [rip + y.28], 10
	setl	cl
	mov	edi, -266241031
	cmovge	esi, edi
	xor	cl, al
	cmovne	esi, ebx
	jmp	.LBB0_66
.LBB0_73:                               
	mov	dword ptr [rdx], r8d
	mov	dword ptr [rdx + 4], r9d
	mov	esi, 1444073801
	jmp	.LBB0_66
.LBB0_74:                               
	mov	r15, qword ptr [rbp - 152]
	add	r15, 8
	mov	r12, qword ptr [rbp - 200]
	add	r12, 8
	mov	r14, qword ptr [rbp - 192]
	dec	r14
	mov	eax, -368965116
	jmp	.LBB0_1
.LBB0_13:
	lea	rsp, [rbp - 40]
	pop	rbx
	pop	r12
	pop	r13
	pop	r14
	pop	r15
	pop	rbp
	ret
.Lfunc_end0:
	.size	_ZNK5Botan3DES9encrypt_nEPKhPhm, .Lfunc_end0-_ZNK5Botan3DES9encrypt_nEPKhPhm
	.cfi_endproc

	.section	.text._ZNK5Botan18SymmetricAlgorithm14verify_key_setEb,"axG",@progbits,_ZNK5Botan18SymmetricAlgorithm14verify_key_setEb,comdat
	.weak	_ZNK5Botan18SymmetricAlgorithm14verify_key_setEb 
	.p2align	4, 0x90
	.type	_ZNK5Botan18SymmetricAlgorithm14verify_key_setEb,@function
_ZNK5Botan18SymmetricAlgorithm14verify_key_setEb: 
	.cfi_startproc

	push	rbp
.Lcfi8:
	.cfi_def_cfa_offset 16
	push	r14
.Lcfi9:
	.cfi_def_cfa_offset 24
	push	rbx
.Lcfi10:
	.cfi_def_cfa_offset 32
	sub	rsp, 16
.Lcfi11:
	.cfi_def_cfa_offset 48
.Lcfi12:
	.cfi_offset rbx, -32
.Lcfi13:
	.cfi_offset r14, -24
.Lcfi14:
	.cfi_offset rbp, -16
	mov	r14d, esi
	mov	rbp, rdi
	mov	eax, dword ptr [rip + x.9]
	mov	ecx, dword ptr [rip + y.10]
	lea	edx, [rax - 1]
	imul	edx, eax
	not	edx
	or	edx, -2
	cmp	edx, -1
	sete	byte ptr [rsp + 13]
	cmp	ecx, 10
	setl	byte ptr [rsp + 14]
	xor	r14b, 1
	mov	eax, -229245066
	jmp	.LBB1_1
.LBB1_46:                               
	mov	eax, 72913447
	.p2align	4, 0x90
.LBB1_1:                                
	cmp	eax, 1064780893
	jg	.LBB1_15

	cmp	eax, -533156338
	jg	.LBB1_8

	cmp	eax, -1629664376
	je	.LBB1_31

	cmp	eax, -1444984950
	je	.LBB1_44

	cmp	eax, -914099024
	jne	.LBB1_1

	movzx	eax, byte ptr [rsp + 15]
	test	al, al
	mov	eax, 1888229573
	jne	.LBB1_1

	mov	eax, 1452668002
	jmp	.LBB1_1
	.p2align	4, 0x90
.LBB1_15:                               
	cmp	eax, 1452668001
	jle	.LBB1_16

	cmp	eax, 1452668002
	je	.LBB1_40

	cmp	eax, 1522744502
	je	.LBB1_35

	cmp	eax, 1888229573
	jne	.LBB1_1

	mov	eax, dword ptr [rip + x.9]
	mov	ecx, dword ptr [rip + y.10]
	mov	edx, eax
	neg	edx
	not	edx
	imul	edx, eax
	not	edx
	or	edx, -2
	cmp	edx, -1
	sete	al
	cmp	ecx, 10
	setl	bl
	xor	bl, al
	mov	esi, 1522744502
	mov	eax, 1522744502
	jne	.LBB1_25

	mov	eax, 1216790304
.LBB1_25:                               
	cmp	edx, -1
	je	.LBB1_27

	mov	esi, eax
.LBB1_27:                               
	cmp	ecx, 10
	cmovl	eax, esi
	jmp	.LBB1_1
	.p2align	4, 0x90
.LBB1_8:                                
	cmp	eax, -533156337
	je	.LBB1_46

	cmp	eax, -229245066
	je	.LBB1_28

	cmp	eax, 72913447
	jne	.LBB1_1

	mov	eax, dword ptr [rip + x.9]
	mov	ecx, dword ptr [rip + y.10]
	lea	edx, [rax - 1]
	imul	edx, eax
	mov	eax, edx
	xor	eax, -2
	and	eax, edx
	sete	bl
	test	eax, eax
	mov	eax, 1064780894
	mov	edx, -533156337
	mov	esi, 1064780894
	je	.LBB1_13

	mov	esi, -533156337
.LBB1_13:                               
	cmp	ecx, 10
	setl	cl
	cmovl	edx, esi
	xor	cl, bl
	jne	.LBB1_1

	mov	eax, edx
	jmp	.LBB1_1
	.p2align	4, 0x90
.LBB1_16:                               
	cmp	eax, 1216790304
	je	.LBB1_45

	cmp	eax, 1363289837
	je	.LBB1_39

	cmp	eax, 1064780894
	jne	.LBB1_1
	jmp	.LBB1_19
.LBB1_31:                               
	mov	byte ptr [rsp + 15], r14b
	mov	eax, dword ptr [rip + x.9]
	mov	ecx, dword ptr [rip + y.10]
	lea	edx, [rax - 1]
	imul	edx, eax
	mov	eax, edx
	xor	eax, -2
	and	eax, edx
	sete	bl
	test	eax, eax
	mov	eax, -914099024
	mov	edx, -1444984950
	mov	esi, -914099024
	je	.LBB1_33

	mov	esi, -1444984950
.LBB1_33:                               
	cmp	ecx, 10
	setl	cl
	cmovl	edx, esi
	xor	cl, bl
	jne	.LBB1_1

	mov	eax, edx
	jmp	.LBB1_1
.LBB1_44:                               
	mov	eax, -1629664376
	jmp	.LBB1_1
.LBB1_40:                               
	mov	eax, dword ptr [rip + x.9]
	mov	ecx, dword ptr [rip + y.10]
	lea	edx, [rax - 1]
	imul	edx, eax
	mov	eax, edx
	xor	eax, -2
	and	eax, edx
	sete	bl
	test	eax, eax
	mov	eax, 72913447
	mov	edx, -533156337
	mov	esi, 72913447
	je	.LBB1_42

	mov	esi, -533156337
.LBB1_42:                               
	cmp	ecx, 10
	setl	cl
	cmovl	edx, esi
	xor	cl, bl
	jne	.LBB1_1

	mov	eax, edx
	jmp	.LBB1_1
.LBB1_35:                               
	mov	rdi, rbp
	call	_ZNK5Botan18SymmetricAlgorithm23throw_key_not_set_errorEv
	mov	eax, dword ptr [rip + x.9]
	mov	ecx, dword ptr [rip + y.10]
	lea	edx, [rax - 1]
	imul	edx, eax
	mov	eax, edx
	xor	eax, -2
	and	eax, edx
	sete	bl
	test	eax, eax
	mov	eax, 1363289837
	mov	edx, 1216790304
	mov	esi, 1363289837
	je	.LBB1_37

	mov	esi, 1216790304
.LBB1_37:                               
	cmp	ecx, 10
	setl	cl
	cmovl	edx, esi
	xor	cl, bl
	jne	.LBB1_1

	mov	eax, edx
	jmp	.LBB1_1
.LBB1_28:                               
	movzx	ecx, byte ptr [rsp + 13]
	movzx	edx, byte ptr [rsp + 14]
	mov	eax, ecx
	xor	al, dl
	mov	eax, -1629664376
	mov	esi, -1629664376
	jne	.LBB1_30

	mov	esi, -1444984950
.LBB1_30:                               
	test	dl, dl
	cmove	eax, esi
	test	cl, cl
	cmove	eax, esi
	jmp	.LBB1_1
.LBB1_45:                               
	mov	rdi, rbp
	call	_ZNK5Botan18SymmetricAlgorithm23throw_key_not_set_errorEv
	mov	eax, 1522744502
	jmp	.LBB1_1
.LBB1_39:                               
	mov	eax, 1452668002
	jmp	.LBB1_1
.LBB1_19:
	add	rsp, 16
	pop	rbx
	pop	r14
	pop	rbp
	ret
.Lfunc_end1:
	.size	_ZNK5Botan18SymmetricAlgorithm14verify_key_setEb, .Lfunc_end1-_ZNK5Botan18SymmetricAlgorithm14verify_key_setEb
	.cfi_endproc

	.text
	.p2align	4, 0x90         
	.type	_ZN5Botan12_GLOBAL__N_16des_IPERjS1_,@function
_ZN5Botan12_GLOBAL__N_16des_IPERjS1_:   

	push	rbx
	mov	ecx, dword ptr [rsi]
	mov	eax, ecx
	shl	eax, 4
	shr	ecx, 28
	mov	r9d, eax
	not	r9d
	mov	r10d, ecx
	not	r10d
	mov	r8d, r9d
	and	r8d, -648329583
	mov	edx, eax
	and	edx, 648329568
	or	edx, r8d
	and	r10d, -648329583
	and	ecx, 14
	or	ecx, r10d
	xor	ecx, edx
	mov	dword ptr [rsi], ecx
	mov	edx, dword ptr [rdi]
	mov	r8d, edx
	not	r8d
	mov	r10d, r8d
	and	r10d, 906056355
	mov	ecx, edx
	and	ecx, -906056356
	or	ecx, r10d
	and	r9d, 906056355
	and	eax, -906056368
	or	eax, r9d
	xor	eax, ecx
	mov	r10d, eax
	xor	r10d, 252645135
	and	r10d, eax
	mov	r9d, r10d
	not	r9d
	mov	eax, r9d
	and	eax, -1162889880
	mov	ecx, r10d
	and	ecx, 1162889879
	or	ecx, eax
	and	r8d, -1162889880
	and	edx, 1162889879
	or	edx, r8d
	xor	edx, ecx
	mov	dword ptr [rdi], edx
	mov	r11d, dword ptr [rsi]
	mov	eax, dword ptr [rip + x.99]
	mov	ebx, dword ptr [rip + y.100]
	lea	edx, [rax - 1]
	imul	edx, eax
	mov	eax, edx
	xor	eax, -2
	and	eax, edx
	sete	byte ptr [rsp - 10]
	sete	dl
	cmp	ebx, 10
	setl	cl
	xor	cl, dl
	mov	r8d, 1657668042
	mov	ecx, -1978238848
	cmovne	ecx, r8d
	test	eax, eax
	cmovne	r8d, ecx
	cmp	ebx, 10
	setl	byte ptr [rsp - 9]
	cmovge	r8d, ecx
	and	r9d, r11d
	not	r11d
	and	r11d, r10d
	or	r9d, r11d
	rol	r9d, 12
	mov	ecx, -1984050498
	mov	edx, 1416079324
	jmp	.LBB2_1
.LBB2_12:                               
	movzx	ebx, byte ptr [rsp - 10]
	movzx	ecx, byte ptr [rsp - 9]
	mov	eax, ebx
	xor	al, cl
	mov	eax, -1978238848
	cmovne	eax, edx
	test	cl, cl
	mov	ecx, eax
	cmovne	ecx, edx
	test	bl, bl
	cmove	ecx, eax
	.p2align	4, 0x90
.LBB2_1:                                
	cmp	ecx, 1416079323
	jle	.LBB2_2

	cmp	ecx, 1416079324
	je	.LBB2_13

	cmp	ecx, 1657668042
	jne	.LBB2_1
	jmp	.LBB2_7
	.p2align	4, 0x90
.LBB2_2:                                
	cmp	ecx, -1984050498
	je	.LBB2_12

	cmp	ecx, -1978238848
	jne	.LBB2_1

	mov	ecx, 1416079324
	jmp	.LBB2_1
.LBB2_13:                               
	mov	dword ptr [rsp - 4], r9d
	mov	ecx, r8d
	jmp	.LBB2_1
.LBB2_7:
	mov	eax, dword ptr [rsp - 4]
	mov	dword ptr [rsi], eax
	mov	ecx, dword ptr [rdi]
	mov	edx, ecx
	not	edx
	mov	ebx, eax
	and	ebx, edx
	not	eax
	and	eax, ecx
	or	eax, ebx
	mov	ebx, eax
	not	ebx
	or	ebx, 65535
	and	edx, eax
	and	ecx, ebx
	and	edx, -65536
	or	edx, ecx
	mov	dword ptr [rdi], edx
	mov	ecx, dword ptr [rsi]
	mov	edx, ecx
	not	edx
	and	edx, 1721251862
	and	ecx, -1721251863
	or	ecx, edx
	and	ebx, 1721251862
	and	eax, -1721303040
	or	eax, ebx
	xor	eax, ecx
	rol	eax, 14
	mov	dword ptr [rsi], eax
	mov	edx, dword ptr [rdi]
	mov	ecx, eax
	not	ecx
	and	ecx, edx
	mov	ebx, edx
	not	ebx
	and	eax, ebx
	or	eax, ecx
	mov	ecx, eax
	xor	ecx, -858993460
	and	ecx, eax
	mov	r9d, ecx
	not	r9d
	mov	r8d, r9d
	and	r8d, 1526452403
	mov	eax, ecx
	and	eax, -1526452404
	or	eax, r8d
	and	ebx, 1526452403
	and	edx, -1526452404
	or	edx, ebx
	xor	edx, eax
	mov	dword ptr [rdi], edx
	mov	eax, dword ptr [rsi]
	and	r9d, -1743488492
	and	ecx, 1743488491
	or	ecx, r9d
	mov	edx, eax
	not	edx
	and	edx, -1743488492
	and	eax, 1743488491
	or	eax, edx
	xor	eax, ecx
	mov	ecx, eax
	shr	ecx, 6
	rol	eax, 26
	mov	dword ptr [rsi], eax
	mov	ebx, dword ptr [rdi]
	mov	edx, ecx
	not	edx
	and	edx, -1225693340
	and	ecx, 17733787
	or	ecx, edx
	mov	r9d, ebx
	not	r9d
	mov	r8d, r9d
	and	r8d, -1225693340
	mov	eax, ebx
	and	eax, 1225693339
	or	eax, r8d
	xor	eax, ecx
	mov	ecx, eax
	not	ecx
	or	ecx, -16711936
	mov	r8d, ecx
	and	r8d, 954846339
	mov	edx, eax
	and	edx, 1441916
	or	edx, r8d
	and	r9d, 954846339
	and	ebx, -954846340
	or	ebx, r9d
	xor	ebx, edx
	mov	dword ptr [rdi], ebx
	mov	ebx, dword ptr [rsi]
	and	ecx, ebx
	not	ebx
	and	ebx, eax
	and	ebx, 16711935
	or	ebx, ecx
	mov	eax, dword ptr [rip + x.105]
	mov	edx, dword ptr [rip + y.106]
	mov	ecx, eax
	neg	ecx
	not	ecx
	imul	ecx, eax
	not	ecx
	or	ecx, -2
	rol	ebx, 9
	cmp	ecx, -1
	sete	al
	sete	byte ptr [rsp - 12]
	mov	r8d, -363467554
	mov	r9d, 1786670296
	mov	ecx, 1786670296
	cmove	ecx, r8d
	cmp	edx, 10
	setl	dl
	setl	byte ptr [rsp - 11]
	cmovge	ecx, r9d
	xor	dl, al
	cmovne	ecx, r8d
	mov	edx, 1113510213
	mov	r8d, -868891782
	jmp	.LBB2_8
.LBB2_16:                               
	movzx	r9d, byte ptr [rsp - 12]
	movzx	edx, byte ptr [rsp - 11]
	mov	eax, r9d
	xor	al, dl
	mov	eax, 1786670296
	cmovne	eax, r8d
	test	dl, dl
	mov	edx, eax
	cmovne	edx, r8d
	test	r9b, r9b
	cmove	edx, eax
	.p2align	4, 0x90
.LBB2_8:                                
	cmp	edx, 1113510212
	jg	.LBB2_14

	cmp	edx, -868891782
	je	.LBB2_17

	cmp	edx, -363467554
	jne	.LBB2_8
	jmp	.LBB2_11
	.p2align	4, 0x90
.LBB2_14:                               
	cmp	edx, 1786670296
	je	.LBB2_18

	cmp	edx, 1113510213
	jne	.LBB2_8
	jmp	.LBB2_16
.LBB2_17:                               
	mov	dword ptr [rsp - 8], ebx
	mov	edx, ecx
	jmp	.LBB2_8
.LBB2_18:                               
	mov	edx, -868891782
	jmp	.LBB2_8
.LBB2_11:
	mov	eax, dword ptr [rsp - 8]
	mov	dword ptr [rsi], eax
	mov	ecx, dword ptr [rdi]
	mov	edx, ecx
	not	edx
	mov	ebx, eax
	and	ebx, edx
	not	eax
	and	eax, ecx
	or	eax, ebx
	mov	ebx, eax
	xor	ebx, 1431655765
	and	ebx, eax
	mov	eax, ebx
	not	eax
	and	ecx, eax
	and	edx, ebx
	or	edx, ecx
	rol	edx
	mov	dword ptr [rdi], edx
	mov	ecx, dword ptr [rsi]
	and	eax, ecx
	not	ecx
	and	ecx, ebx
	or	eax, ecx
	mov	dword ptr [rsi], eax
	pop	rbx
	ret
.Lfunc_end2:
	.size	_ZN5Botan12_GLOBAL__N_16des_IPERjS1_, .Lfunc_end2-_ZN5Botan12_GLOBAL__N_16des_IPERjS1_

	.p2align	4, 0x90         
	.type	_ZN5Botan12_GLOBAL__N_114des_encrypt_x2ERjS1_S1_S1_PKj,@function
_ZN5Botan12_GLOBAL__N_114des_encrypt_x2ERjS1_S1_S1_PKj: 

	push	rbp
	push	r15
	push	r14
	push	r13
	push	r12
	push	rbx
	sub	rsp, 24
	mov	eax, dword ptr [rip + x.17]
	mov	ebp, dword ptr [rip + y.18]
	lea	ebx, [rax - 1]
	imul	ebx, eax
	mov	eax, ebx
	xor	eax, -2
	and	eax, ebx
	setne	r9b
	test	eax, eax
	sete	byte ptr [rsp - 119]
	cmp	ebp, 9
	setg	al
	cmp	ebp, 10
	setl	byte ptr [rsp - 118]
	mov	qword ptr [rsp - 16], rdi 
	mov	edi, dword ptr [rdi]
	mov	dword ptr [rsp - 60], edi 
	mov	ebx, eax
	xor	bl, r9b
	or	al, r9b
	xor	al, 1
	or	al, bl
	mov	edi, -1673798764
	mov	ebp, -18647438
	mov	eax, -1176368213
	cmove	ebp, eax
	mov	dword ptr [rsp - 68], ebp 
	mov	ebp, -1979423643
	cmove	ebp, eax
	mov	dword ptr [rsp - 72], ebp 
	mov	r13d, 1605100241
	mov	eax, -1545144496
	cmove	r13d, eax
	mov	ebp, -925046489
	cmove	ebp, eax
	mov	dword ptr [rsp - 76], ebp 
	mov	eax, -1691046871
	cmove	edi, eax
	mov	dword ptr [rsp - 64], edi 
	mov	qword ptr [rsp - 8], rsi 
	mov	eax, dword ptr [rsi]
	mov	dword ptr [rsp - 80], eax 
	mov	qword ptr [rsp], rdx    
	mov	eax, dword ptr [rdx]
	mov	dword ptr [rsp - 84], eax 
	mov	qword ptr [rsp + 8], rcx 
	mov	eax, dword ptr [rcx]
	mov	dword ptr [rsp - 88], eax 
	mov	eax, 134656620





	jmp	.LBB3_1
.LBB3_29:                               
	mov	eax, dword ptr [rsp - 128]
	mov	rax, qword ptr [rsp - 112]
	mov	rax, qword ptr [rsp - 112]
	mov	rax, qword ptr [rsp - 112]
	mov	rax, qword ptr [rsp - 112]
	mov	eax, dword ptr [rsp - 128]
	mov	eax, dword ptr [rsp - 128]
	mov	eax, dword ptr [rsp - 128]
	mov	eax, dword ptr [rsp - 128]
	mov	eax, dword ptr [rsp - 128]
	mov	eax, dword ptr [rsp - 128]
	mov	eax, dword ptr [rsp - 128]
	mov	eax, dword ptr [rsp - 128]
	mov	eax, dword ptr [rsp - 128]
	mov	eax, dword ptr [rsp - 128]
	mov	eax, dword ptr [rsp - 100]
	mov	eax, dword ptr [rsp - 100]
	mov	eax, dword ptr [rsp - 100]
	mov	eax, dword ptr [rsp - 124]
	mov	eax, dword ptr [rsp - 124]
	mov	eax, dword ptr [rsp - 124]
	mov	eax, dword ptr [rsp - 124]
	mov	eax, dword ptr [rsp - 124]
	mov	eax, dword ptr [rsp - 116]
	mov	eax, dword ptr [rsp - 116]
	mov	eax, dword ptr [rsp - 116]
	mov	eax, dword ptr [rsp - 116]
	mov	eax, dword ptr [rsp - 128]
	mov	eax, dword ptr [rsp - 128]
	mov	eax, dword ptr [rsp - 128]
	mov	eax, dword ptr [rsp - 128]
	mov	eax, dword ptr [rsp - 128]
	mov	eax, dword ptr [rsp - 128]
	mov	eax, dword ptr [rsp - 128]
	mov	eax, dword ptr [rsp - 128]
	mov	eax, dword ptr [rsp - 124]
	mov	eax, dword ptr [rsp - 124]
	mov	eax, dword ptr [rsp - 124]
	mov	eax, dword ptr [rsp - 124]
	mov	eax, dword ptr [rsp - 124]
	mov	eax, dword ptr [rsp - 124]
	mov	eax, dword ptr [rsp - 124]
	mov	rax, qword ptr [rsp - 112]
	mov	rax, qword ptr [rsp - 112]
	mov	rax, qword ptr [rsp - 112]
	mov	eax, 1605100241
	.p2align	4, 0x90
.LBB3_1:                                
	mov	ecx, eax
	cmp	ecx, -709028302
	jle	.LBB3_2

	cmp	ecx, 1205027928
	jle	.LBB3_12

	cmp	ecx, 1826972428
	jg	.LBB3_20

	cmp	ecx, 1205027929
	je	.LBB3_24

	cmp	ecx, 1605100241
	mov	eax, ecx
	jne	.LBB3_1

	mov	eax, dword ptr [rsp - 128]
	mov	ecx, eax
	shr	ecx, 4
	shl	eax, 28
	mov	edx, ecx
	not	edx
	and	edx, 49748426
	and	ecx, 218687029
	or	ecx, edx
	or	eax, 49748426
	xor	eax, ecx
	mov	r12, qword ptr [rsp - 112]
	lea	rcx, [8*r12]
	mov	dword ptr [rsp - 52], r9d 
	mov	dword ptr [rsp - 48], r10d 
	mov	dword ptr [rsp - 56], ebp 
	mov	r10, -12
	sub	r10, rcx
	mov	ecx, eax
	not	ecx
	and	ecx, 941451513
	and	eax, -941451514
	or	eax, ecx
	mov	r14d, dword ptr [r8 + 8*r12]
	mov	ebx, dword ptr [r8 + 8*r12 + 4]
	mov	r9, r11
	mov	r11d, r14d
	not	r11d
	mov	edx, r11d
	and	edx, 941451513
	mov	ecx, r14d
	and	ecx, -941451514
	or	ecx, edx
	xor	ecx, eax
	mov	eax, dword ptr [rsp - 128]
	mov	edx, eax
	not	edx
	and	edx, ebx
	mov	r15d, ebx
	not	r15d
	and	eax, r15d
	or	eax, edx
	mov	edx, ecx
	shr	edx, 24
	mov	esi, edx
	xor	esi, 192
	and	esi, edx
	movzx	edx, byte ptr [rsi + _ZN5Botan12_GLOBAL__N_1L10SPBOX_CATSE]
	imul	esi, edx, 1879314694
	mov	edx, esi
	xor	edx, -16843782
	and	edx, esi
	mov	esi, eax
	shr	esi, 24
	mov	dword ptr [rsp - 44], edi 
	mov	edi, esi
	xor	edi, 192
	and	edi, esi
	mov	esi, edi
	not	esi
	and	esi, 912188637
	mov	ebp, edi
	and	ebp, 34
	or	ebp, esi
	xor	ebp, 912188573
	and	edi, 64
	or	edi, ebp
	movzx	esi, byte ptr [rdi + _ZN5Botan12_GLOBAL__N_1L10SPBOX_CATSE]
	imul	esi, esi, 33628192
	mov	edi, esi
	xor	edi, 2146402240
	and	edi, esi
	mov	esi, edi
	not	esi
	mov	ebp, esi
	and	ebp, 1161340906
	and	edi, -1161340928
	or	edi, ebp
	mov	ebp, edx
	not	ebp
	or	esi, ebp
	and	ebp, 1161340906
	and	edx, -1161340908
	or	edx, ebp
	xor	edx, edi
	not	esi
	or	esi, edx
	mov	edx, ecx
	shr	edx, 16
	mov	edi, edx
	xor	edi, 65472
	and	edi, edx
	mov	edx, edi
	and	edx, 128
	xor	edi, 128
	or	edi, edx
	movzx	edx, byte ptr [rdi + _ZN5Botan12_GLOBAL__N_1L10SPBOX_CATSE]
	imul	edx, edx, 9441352
	mov	edi, edx
	xor	edi, -134349328
	and	edi, edx
	mov	edx, esi
	not	edx
	mov	ebp, edx
	and	ebp, 1770019273
	and	esi, -1770019274
	or	esi, ebp
	mov	ebp, edi
	not	ebp
	or	edx, ebp
	and	ebp, 1770019273
	and	edi, -1770019280
	or	edi, ebp
	xor	edi, esi
	not	edx
	or	edx, edi
	mov	esi, eax
	shr	esi, 16
	mov	edi, esi
	xor	edi, 65472
	and	edi, esi
	mov	esi, edi
	not	esi
	and	esi, -110285900
	mov	ebp, edi
	and	ebp, 54347
	or	ebp, esi
	xor	ebp, -110285964
	and	edi, 192
	or	edi, ebp
	movzx	esi, byte ptr [rdi + _ZN5Botan12_GLOBAL__N_1L10SPBOX_CATSE]
	imul	esi, esi, -1912208863
	mov	edi, esi
	xor	edi, -8396930
	and	edi, esi
	mov	esi, edx
	not	esi
	mov	ebp, esi
	and	ebp, 2064185187
	and	edx, -2064185188
	or	edx, ebp
	mov	ebp, edi
	not	ebp
	or	esi, ebp
	and	ebp, 2064185187
	and	edi, -2064185188
	or	edi, ebp
	xor	edi, edx
	not	esi
	or	esi, edi
	mov	edx, ecx
	shr	edx, 8
	mov	edi, edx
	xor	edi, 16777152
	and	edi, edx
	mov	edx, edi
	and	edx, 256
	xor	edi, 256
	or	edi, edx
	movzx	edx, byte ptr [rdi + _ZN5Botan12_GLOBAL__N_1L10SPBOX_CATSE]
	imul	edx, edx, 9511232
	mov	ebp, edx
	xor	ebp, -1107820864
	and	ebp, edx
	mov	edi, esi
	not	edi
	mov	edx, edi
	and	edx, 75221843
	and	esi, -75221844
	or	esi, edx
	mov	edx, ebp
	not	edx
	or	edi, edx
	and	edx, 75221843
	and	ebp, -75221888
	or	ebp, edx
	xor	ebp, esi
	not	edi
	or	edi, ebp
	mov	edx, eax
	shr	edx, 8
	mov	esi, edx
	xor	esi, 16777152
	and	esi, edx
	mov	edx, esi
	not	edx
	and	edx, 1898565403
	mov	ebp, esi
	and	ebp, 14037220
	or	ebp, edx
	xor	ebp, 1898565211
	and	esi, 320
	or	esi, ebp
	movzx	edx, byte ptr [rsi + _ZN5Botan12_GLOBAL__N_1L10SPBOX_CATSE]
	imul	edx, edx, -2138828776
	and	edx, 541081616
	mov	esi, edi
	and	esi, edx
	xor	edx, edi
	or	edx, esi
	or	ecx, 384
	and	ecx, 447
	movzx	ecx, byte ptr [rcx + _ZN5Botan12_GLOBAL__N_1L10SPBOX_CATSE]
	imul	ecx, ecx, -535690750
	mov	esi, ecx
	not	esi
	or	esi, -1308068112
	or	eax, 448
	and	eax, 511
	movzx	eax, byte ptr [rax + _ZN5Botan12_GLOBAL__N_1L10SPBOX_CATSE]
	imul	edi, eax, 2171456
	mov	eax, edi
	xor	eax, 805040000
	and	eax, edi
	mov	edi, dword ptr [rsp - 100]
	and	esi, -1238862094
	and	ecx, 2048
	or	ecx, esi
	mov	esi, edi
	not	esi
	and	esi, -1238862094
	and	edi, 1238862093
	or	edi, esi
	xor	edi, ecx
	mov	ecx, edi
	not	ecx
	and	ecx, edx
	not	edx
	and	edx, edi
	or	edx, ecx
	mov	ecx, edx
	not	ecx
	and	ecx, -352366347
	and	edx, 352366346
	or	edx, ecx
	mov	ecx, eax
	not	ecx
	and	ecx, -352366347
	and	eax, 352366336
	or	eax, ecx
	xor	eax, edx
	mov	dword ptr [rsp - 96], eax
	mov	eax, dword ptr [rsp - 124]
	rol	eax, 28
	mov	ecx, eax
	not	ecx
	and	ecx, r14d
	and	eax, r11d
	or	eax, ecx
	mov	ecx, dword ptr [rsp - 124]
	mov	edx, ecx
	not	edx
	and	edx, -132914700
	and	ecx, 132914699
	or	ecx, edx
	and	r15d, -132914700
	and	ebx, 132914699
	or	ebx, r15d
	xor	ebx, ecx
	mov	ecx, eax
	shr	ecx, 24
	and	ecx, 63
	movzx	ecx, byte ptr [rcx + _ZN5Botan12_GLOBAL__N_1L10SPBOX_CATSE]
	imul	ecx, ecx, 1879314694
	and	ecx, 16843780
	mov	edx, ebx
	shr	edx, 24
	or	edx, 1361729792
	and	edx, 1361729855
	xor	edx, 1361729856
	movzx	edx, byte ptr [rdx + _ZN5Botan12_GLOBAL__N_1L10SPBOX_CATSE]
	imul	edx, edx, 33628192
	mov	esi, edx
	xor	esi, 2146402240
	and	esi, edx
	mov	edx, esi
	and	edx, ecx
	xor	esi, ecx
	or	esi, edx
	mov	ecx, eax
	shr	ecx, 16
	mov	edx, ecx
	xor	edx, 65472
	and	edx, ecx
	mov	ecx, edx
	and	ecx, 128
	xor	edx, 128
	or	edx, ecx
	movzx	ecx, byte ptr [rdx + _ZN5Botan12_GLOBAL__N_1L10SPBOX_CATSE]
	imul	ecx, ecx, 9441352
	and	ecx, 134349320
	mov	edx, esi
	and	edx, ecx
	xor	ecx, esi
	or	ecx, edx
	mov	edx, ebx
	shr	edx, 16
	or	edx, 192
	movzx	edx, dl
	movzx	edx, byte ptr [rdx + _ZN5Botan12_GLOBAL__N_1L10SPBOX_CATSE]
	imul	esi, edx, -1912208863
	and	esi, 8396929
	mov	edx, ecx
	and	edx, esi
	xor	esi, ecx
	or	esi, edx
	mov	ecx, eax
	shr	ecx, 8
	mov	edx, ecx
	not	edx
	or	edx, -550928064
	and	edx, -550928015
	and	ecx, 14
	or	ecx, edx
	xor	ecx, -550928271
	movzx	ecx, byte ptr [rcx + _ZN5Botan12_GLOBAL__N_1L10SPBOX_CATSE]
	imul	edx, ecx, 9511232
	and	edx, 1107820800
	mov	ecx, esi
	and	ecx, edx
	xor	edx, esi
	or	edx, ecx
	mov	ecx, ebx
	shr	ecx, 8
	mov	esi, ecx
	not	esi
	or	esi, -1375426432
	and	esi, -1375426386
	and	ecx, 17
	or	ecx, esi
	xor	ecx, -1375426066
	movzx	ecx, byte ptr [rcx + _ZN5Botan12_GLOBAL__N_1L10SPBOX_CATSE]
	imul	esi, ecx, -2138828776
	mov	edi, esi
	not	edi
	or	edi, -541081617
	mov	ecx, edx
	not	ecx
	mov	ebp, ecx
	and	ebp, -1499754005
	and	edx, 1499754004
	or	edx, ebp
	or	ecx, edi
	and	edi, -1499754005
	and	esi, 4210704
	or	esi, edi
	xor	esi, edx
	not	ecx
	or	ecx, esi
	mov	edx, eax
	not	edx
	or	edx, 507082752
	and	edx, 507082778
	and	eax, 37
	or	eax, edx
	xor	eax, 507083162
	movzx	eax, byte ptr [rax + _ZN5Botan12_GLOBAL__N_1L10SPBOX_CATSE]
	imul	edx, eax, -535690750
	mov	esi, edx
	not	esi
	or	esi, -86707624
	mov	eax, ebx
	not	eax
	or	eax, 2122374528
	and	eax, 2122374577
	and	ebx, 14
	or	ebx, eax
	xor	ebx, 2122374257
	movzx	eax, byte ptr [rbx + _ZN5Botan12_GLOBAL__N_1L10SPBOX_CATSE]
	imul	edi, eax, 2171456
	mov	eax, edi
	xor	eax, 805040000
	and	eax, edi
	mov	edi, dword ptr [rsp - 116]
	and	esi, -86705576
	and	edx, 69206018
	or	edx, esi
	mov	esi, edi
	not	esi
	and	esi, -86705576
	and	edi, 86705575
	or	edi, esi
	xor	edi, edx
	mov	edx, edi
	not	edx
	and	edx, ecx
	not	ecx
	and	ecx, edi
	or	ecx, edx
	mov	edx, ecx
	not	edx
	and	edx, eax
	not	eax
	and	eax, ecx
	or	eax, edx
	mov	dword ptr [rsp - 92], eax
	mov	esi, dword ptr [rsp - 96]
	rol	esi, 28
	mov	r11d, dword ptr [r8 + 8*r12 + 8]
	mov	ecx, esi
	not	ecx
	and	ecx, r11d
	mov	r14d, r11d
	not	r14d
	and	esi, r14d
	or	esi, ecx
	neg	r10
	mov	r10d, dword ptr [r8 + r10]
	mov	ecx, dword ptr [rsp - 96]
	mov	edi, ecx
	not	edi
	and	edi, 1702967506
	and	ecx, -1702967507
	or	ecx, edi
	mov	ebx, r10d
	not	ebx
	mov	ebp, ebx
	and	ebp, 1702967506
	mov	edi, r10d
	and	edi, -1702967507
	or	edi, ebp
	xor	edi, ecx
	mov	ecx, esi
	shr	ecx, 24
	and	ecx, 63
	movzx	ecx, byte ptr [rcx + _ZN5Botan12_GLOBAL__N_1L10SPBOX_CATSE]
	imul	ebp, ecx, 1879314694
	mov	ecx, edi
	shr	ecx, 24
	mov	edx, ecx
	xor	edx, 192
	and	edx, ecx
	mov	ecx, edx
	not	ecx
	and	ecx, -1905120159
	mov	eax, edx
	and	eax, 158
	or	eax, ecx
	mov	ecx, ebp
	not	ecx
	or	ecx, 1456746530
	xor	eax, -1905120223
	and	edx, 64
	or	edx, eax
	movzx	eax, byte ptr [rdx + _ZN5Botan12_GLOBAL__N_1L10SPBOX_CATSE]
	imul	eax, eax, 33628192
	mov	edx, eax
	not	edx
	or	edx, 1472476166
	and	edx, 1473524774
	and	eax, -2147450880
	or	eax, edx
	and	ecx, 1473524774
	and	ebp, 65536
	or	ebp, ecx
	xor	ebp, eax
	mov	eax, esi
	shr	eax, 16
	mov	ecx, eax
	xor	ecx, 65472
	and	ecx, eax
	mov	eax, ecx
	not	eax
	and	eax, -1286767718
	mov	edx, ecx
	and	edx, 33893
	or	edx, eax
	xor	edx, -1286767846
	and	ecx, 128
	or	ecx, edx
	movzx	eax, byte ptr [rcx + _ZN5Botan12_GLOBAL__N_1L10SPBOX_CATSE]
	imul	eax, eax, 9441352
	and	eax, 134349320
	or	eax, ebp
	mov	ecx, edi
	shr	ecx, 16
	mov	edx, ecx
	xor	edx, 65472
	and	edx, ecx
	mov	ecx, edx
	and	ecx, 192
	xor	edx, 192
	or	edx, ecx
	movzx	ecx, byte ptr [rdx + _ZN5Botan12_GLOBAL__N_1L10SPBOX_CATSE]
	imul	ecx, ecx, -1912208863
	mov	ebp, ecx
	xor	ebp, -8396930
	and	ebp, ecx
	mov	ecx, eax
	and	ecx, ebp
	xor	ebp, eax
	or	ebp, ecx
	mov	eax, esi
	shr	eax, 8
	mov	ecx, eax
	not	ecx
	or	ecx, 1751440576
	and	ecx, 1751440624
	and	eax, 15
	or	eax, ecx
	xor	eax, 1751440880
	movzx	eax, byte ptr [rax + _ZN5Botan12_GLOBAL__N_1L10SPBOX_CATSE]
	imul	eax, eax, 9511232
	mov	ecx, ebp
	not	ecx
	mov	edx, ecx
	and	edx, -683684831
	and	ebp, 683684830
	or	ebp, edx
	mov	edx, eax
	not	edx
	or	edx, -1107820801
	or	ecx, edx
	and	edx, -683684831
	and	eax, 256
	or	eax, edx
	xor	eax, ebp
	not	ecx
	or	ecx, eax
	mov	eax, edi
	shr	eax, 8
	mov	edx, eax
	not	edx
	or	edx, 1127231424
	and	edx, 1127231474
	and	eax, 13
	or	eax, edx
	xor	eax, 1127231154
	movzx	eax, byte ptr [rax + _ZN5Botan12_GLOBAL__N_1L10SPBOX_CATSE]
	imul	ebp, eax, -2138828776
	and	ebp, 541081616
	mov	eax, ecx
	and	eax, ebp
	xor	ebp, ecx
	or	ebp, eax
	mov	eax, esi
	not	eax
	or	eax, -777777920
	and	eax, -777777909
	and	esi, 52
	or	esi, eax
	xor	esi, -777778037
	movzx	eax, byte ptr [rsi + _ZN5Botan12_GLOBAL__N_1L10SPBOX_CATSE]
	imul	eax, eax, -535690750
	mov	ecx, dword ptr [rsp - 128]
	mov	edx, edi
	not	edx
	or	edx, 1190792896
	and	edx, 1190792921
	and	edi, 38
	or	edi, edx
	xor	edi, 1190792985
	movzx	edx, byte ptr [rdi + _ZN5Botan12_GLOBAL__N_1L10SPBOX_CATSE]
	imul	edx, edx, 2171456
	mov	esi, edx
	xor	esi, 805040000
	and	esi, edx
	mov	edx, ecx
	not	edx
	and	edx, eax
	not	eax
	or	eax, -69208067
	and	eax, ecx
	and	edx, 69208066
	or	edx, eax
	mov	eax, edx
	not	eax
	and	eax, -929070801
	and	edx, 929070800
	or	edx, eax
	mov	eax, ebp
	not	eax
	and	eax, -929070801
	and	ebp, 929070800
	or	ebp, eax
	xor	ebp, edx
	mov	eax, ebp
	not	eax
	and	eax, 719446543
	and	ebp, -719446544
	or	ebp, eax
	mov	eax, esi
	not	eax
	and	eax, 719446543
	and	esi, 354295232
	or	esi, eax
	xor	esi, ebp
	mov	dword ptr [rsp - 24], esi
	mov	esi, dword ptr [rsp - 92]
	mov	eax, esi
	shr	eax, 4
	shl	esi, 28
	mov	ecx, eax
	not	ecx
	and	ecx, -1495473862
	and	eax, 153296581
	or	eax, ecx
	mov	ecx, esi
	not	ecx
	and	ecx, -1495473862
	and	esi, 1342177280
	or	esi, ecx
	xor	esi, eax
	mov	eax, esi
	not	eax
	and	eax, r11d
	mov	r11, r9
	and	esi, r14d
	or	esi, eax
	mov	eax, dword ptr [rsp - 92]
	and	ebx, eax
	not	eax
	and	eax, r10d
	mov	ebp, dword ptr [rsp - 56] 
	mov	r10d, dword ptr [rsp - 48] 
	mov	r9d, dword ptr [rsp - 52] 
	or	ebx, eax
	mov	eax, esi
	shr	eax, 24
	and	eax, 63
	movzx	eax, byte ptr [rax + _ZN5Botan12_GLOBAL__N_1L10SPBOX_CATSE]
	imul	ecx, eax, 1879314694
	mov	eax, ecx
	xor	eax, -16843782
	and	eax, ecx
	mov	ecx, ebx
	shr	ecx, 24
	mov	edx, ecx
	xor	edx, 192
	and	edx, ecx
	mov	ecx, edx
	and	ecx, 64
	xor	edx, 64
	or	edx, ecx
	movzx	ecx, byte ptr [rdx + _ZN5Botan12_GLOBAL__N_1L10SPBOX_CATSE]
	imul	ecx, ecx, 33628192
	mov	edx, ecx
	xor	edx, 2146402240
	and	edx, ecx
	mov	ecx, edx
	not	ecx
	mov	edi, ecx
	and	edi, -1797276650
	and	edx, 1797276640
	or	edx, edi
	mov	edi, eax
	not	edi
	or	ecx, edi
	and	edi, -1797276650
	and	eax, 1797276648
	or	eax, edi
	mov	edi, esi
	xor	eax, edx
	not	ecx
	or	ecx, eax
	shr	edi, 16
	mov	eax, edi
	not	eax
	or	eax, -1416695168
	and	eax, -1416695150
	and	edi, 45
	or	edi, eax
	xor	edi, -1416695278
	movzx	eax, byte ptr [rdi + _ZN5Botan12_GLOBAL__N_1L10SPBOX_CATSE]
	imul	edx, eax, 9441352
	mov	eax, edx
	xor	eax, -134349328
	and	eax, edx
	mov	edx, ecx
	and	edx, eax
	xor	eax, ecx
	or	eax, edx
	mov	ecx, ebx
	shr	ecx, 16
	mov	edx, ecx
	xor	edx, 65472
	and	edx, ecx
	mov	ecx, edx
	not	ecx
	and	ecx, -765431931
	mov	edi, edx
	and	edi, 36986
	or	edi, ecx
	xor	edi, -765431995
	and	edx, 192
	or	edx, edi
	movzx	ecx, byte ptr [rdx + _ZN5Botan12_GLOBAL__N_1L10SPBOX_CATSE]
	imul	ecx, ecx, -1912208863
	mov	edx, ecx
	xor	edx, -8396930
	and	edx, ecx
	mov	ecx, eax
	not	ecx
	mov	edi, ecx
	and	edi, 2098120377
	and	eax, -2098120378
	or	eax, edi
	mov	edi, edx
	not	edi
	or	ecx, edi
	and	edi, 2098120377
	and	edx, -2098120378
	or	edx, edi
	mov	edi, esi
	xor	edi, -64
	and	edi, esi

	xor	edx, eax
	not	ecx
	or	ecx, edx
	shr	esi, 8
	or	esi, 256
	and	esi, 319
	movzx	eax, byte ptr [rsi + _ZN5Botan12_GLOBAL__N_1L10SPBOX_CATSE]
	imul	edx, eax, 9511232
	and	edx, 1107820800
	mov	eax, ecx
	and	eax, edx
	xor	edx, ecx
	or	edx, eax
	mov	eax, ebx
	shr	eax, 8
	mov	ecx, eax
	not	ecx
	or	ecx, 1577074560
	and	ecx, 1577074590
	and	eax, 33
	or	eax, ecx
	xor	eax, 1577074398
	movzx	eax, byte ptr [rax + _ZN5Botan12_GLOBAL__N_1L10SPBOX_CATSE]
	imul	ecx, eax, -2138828776
	mov	eax, edx
	not	eax
	mov	esi, eax
	and	esi, 1125843572
	and	edx, -1125843573
	or	edx, esi
	mov	esi, ecx
	not	esi
	or	esi, -541081617
	or	eax, esi
	and	esi, 1125843572
	and	ecx, 541081600
	or	ecx, esi
	xor	ecx, edx
	not	eax
	or	eax, ecx
	mov	ecx, edi
	and	ecx, 384
	xor	edi, 384
	or	edi, ecx
	movzx	ecx, byte ptr [rdi + _ZN5Botan12_GLOBAL__N_1L10SPBOX_CATSE]
	imul	ecx, ecx, -535690750
	mov	edx, ecx
	xor	edx, -69208068
	and	edx, ecx
	mov	ecx, ebx
	not	ecx
	or	ecx, 420734208
	and	ecx, 420734248
	and	ebx, 23
	or	ebx, ecx
	xor	ebx, 420734184
	movzx	ecx, byte ptr [rbx + _ZN5Botan12_GLOBAL__N_1L10SPBOX_CATSE]
	imul	esi, ecx, 2171456
	mov	ecx, esi
	xor	ecx, 805040000
	and	ecx, esi
	mov	esi, dword ptr [rsp - 124]
	mov	edi, edx
	not	edi
	and	edi, esi
	not	esi
	and	esi, edx
	or	esi, edi
	mov	edi, dword ptr [rsp - 44] 
	mov	edx, esi
	not	edx
	and	edx, eax
	not	eax
	and	eax, esi
	or	eax, edx
	mov	edx, eax
	not	edx
	and	edx, 2122332758
	and	eax, -2122332759
	or	eax, edx
	mov	edx, ecx
	not	edx
	and	edx, 2122332758
	and	ecx, 25150848
	or	ecx, edx
	xor	ecx, eax
	mov	dword ptr [rsp - 20], ecx
	mov	rax, qword ptr [rsp - 112]
	movabs	rcx, -7295934548125233207
	lea	rax, [rax + rcx + 2]
	sub	rax, rcx
	mov	qword ptr [rsp + 16], rax
	mov	eax, dword ptr [rsp - 76] 
	jmp	.LBB3_1
	.p2align	4, 0x90
.LBB3_2:                                
	cmp	ecx, -1545144497
	jg	.LBB3_7

	cmp	ecx, -1979423643
	je	.LBB3_26

	cmp	ecx, -1691046871
	je	.LBB3_27

	cmp	ecx, -1673798764
	mov	eax, ecx
	jne	.LBB3_1

	mov	edi, dword ptr [rsp - 40]
	mov	r10d, dword ptr [rsp - 36]
	mov	r9d, dword ptr [rsp - 32]
	mov	eax, 1205027929
	mov	ebp, dword ptr [rsp - 28]
	mov	r11d, 0
	jmp	.LBB3_1
	.p2align	4, 0x90
.LBB3_12:                               
	cmp	ecx, -709028301
	je	.LBB3_23

	cmp	ecx, -18647438
	je	.LBB3_25

	cmp	ecx, 134656620
	mov	eax, ecx
	jne	.LBB3_1

	movzx	ecx, byte ptr [rsp - 119]
	movzx	eax, byte ptr [rsp - 118]
	mov	edx, ecx
	xor	dl, al
	test	al, al
	mov	eax, -1691046871
	mov	esi, -709028301
	cmovne	eax, esi
	test	cl, cl
	mov	ecx, -1691046871
	cmove	eax, ecx
	test	dl, dl
	cmovne	eax, esi
	jmp	.LBB3_1
	.p2align	4, 0x90
.LBB3_7:                                
	cmp	ecx, -1545144496
	je	.LBB3_29

	cmp	ecx, -1176368213
	je	.LBB3_28

	cmp	ecx, -925046489
	mov	eax, ecx
	jne	.LBB3_1

	mov	edi, dword ptr [rsp - 96]
	mov	r9d, dword ptr [rsp - 92]
	mov	r10d, dword ptr [rsp - 24]
	mov	ebp, dword ptr [rsp - 20]
	mov	eax, 1205027929
	mov	r11, qword ptr [rsp + 16]
	jmp	.LBB3_1
.LBB3_20:                               
	cmp	ecx, 2099770696
	mov	eax, r13d
	je	.LBB3_1

	cmp	ecx, 1826972429
	mov	eax, ecx
	jne	.LBB3_1
	jmp	.LBB3_22
.LBB3_24:                               
	mov	qword ptr [rsp - 112], r11
	mov	dword ptr [rsp - 124], ebp
	mov	dword ptr [rsp - 116], r9d
	mov	dword ptr [rsp - 128], r10d
	mov	dword ptr [rsp - 100], edi
	mov	eax, dword ptr [rsp - 68] 
	jmp	.LBB3_1
.LBB3_26:                               
	movzx	eax, byte ptr [rsp - 117]
	test	al, al
	mov	eax, 1826972429
	mov	ecx, 2099770696
	cmovne	eax, ecx
	jmp	.LBB3_1
.LBB3_27:                               
	mov	eax, -709028301
	jmp	.LBB3_1
.LBB3_23:                               
	mov	eax, dword ptr [rsp - 60] 
	mov	dword ptr [rsp - 40], eax
	mov	eax, dword ptr [rsp - 80] 
	mov	dword ptr [rsp - 36], eax
	mov	eax, dword ptr [rsp - 84] 
	mov	dword ptr [rsp - 32], eax
	mov	eax, dword ptr [rsp - 88] 
	mov	dword ptr [rsp - 28], eax
	mov	eax, dword ptr [rsp - 64] 
	jmp	.LBB3_1
.LBB3_25:                               
	mov	rax, qword ptr [rsp - 112]
	cmp	rax, 16
	setne	byte ptr [rsp - 117]
	mov	eax, dword ptr [rsp - 72] 
	jmp	.LBB3_1
.LBB3_28:                               
	mov	rax, qword ptr [rsp - 112]
	mov	eax, -18647438
	jmp	.LBB3_1
.LBB3_22:
	mov	eax, dword ptr [rsp - 100]
	mov	rcx, qword ptr [rsp - 16] 
	mov	dword ptr [rcx], eax
	mov	eax, dword ptr [rsp - 128]
	mov	rcx, qword ptr [rsp - 8] 
	mov	dword ptr [rcx], eax
	mov	eax, dword ptr [rsp - 116]
	mov	rcx, qword ptr [rsp]    
	mov	dword ptr [rcx], eax
	mov	eax, dword ptr [rsp - 124]
	mov	rcx, qword ptr [rsp + 8] 
	mov	dword ptr [rcx], eax
	add	rsp, 24
	pop	rbx
	pop	r12
	pop	r13
	pop	r14
	pop	r15
	pop	rbp
	ret
.Lfunc_end3:
	.size	_ZN5Botan12_GLOBAL__N_114des_encrypt_x2ERjS1_S1_S1_PKj, .Lfunc_end3-_ZN5Botan12_GLOBAL__N_114des_encrypt_x2ERjS1_S1_S1_PKj

	.p2align	4, 0x90         
	.type	_ZN5Botan12_GLOBAL__N_16des_FPERjS1_,@function
_ZN5Botan12_GLOBAL__N_16des_FPERjS1_:   

	mov	eax, dword ptr [rsi]
	mov	ecx, eax
	shr	ecx
	shl	eax, 31
	mov	edx, ecx
	not	edx
	not	eax
	and	edx, -1130577879
	and	ecx, 1130577878
	or	ecx, edx
	and	eax, -1130577879
	xor	eax, ecx
	mov	dword ptr [rsi], eax
	mov	r8d, dword ptr [rdi]
	mov	ecx, r8d
	not	ecx
	and	ecx, eax
	mov	r10d, eax
	not	r10d
	and	r8d, r10d
	or	r8d, ecx
	mov	ecx, r8d
	not	ecx
	or	ecx, 1431655765
	mov	r9d, ecx
	and	r9d, -1911486433
	mov	edx, r8d
	and	edx, 548053664
	or	edx, r9d
	and	r10d, -1911486433
	and	eax, 1911486432
	or	eax, r10d
	xor	eax, edx
	mov	dword ptr [rsi], eax
	mov	eax, dword ptr [rdi]
	and	ecx, eax
	not	eax
	and	eax, r8d
	and	eax, -1431655766
	or	ecx, eax
	rol	ecx, 23
	mov	dword ptr [rdi], ecx
	mov	eax, dword ptr [rsi]
	mov	edx, ecx
	not	edx
	and	edx, eax
	mov	r8d, eax
	not	r8d
	and	ecx, r8d
	or	ecx, edx
	mov	edx, ecx
	xor	edx, -16711936
	and	edx, ecx
	mov	r10d, edx
	not	r10d
	mov	r9d, r10d
	and	r9d, -1903498521
	mov	ecx, edx
	and	ecx, 1903498520
	or	ecx, r9d
	and	r8d, -1903498521
	and	eax, 1903498520
	or	eax, r8d
	xor	eax, ecx
	mov	dword ptr [rsi], eax
	mov	ecx, dword ptr [rdi]
	and	r10d, 34256297
	and	edx, 32852566
	or	edx, r10d
	mov	r8d, ecx
	not	r8d
	and	r8d, 34256297
	mov	eax, ecx
	and	eax, 32852566
	or	eax, r8d
	xor	eax, edx
	shl	eax, 6
	shr	ecx, 26
	mov	edx, eax
	not	edx
	mov	r8d, ecx
	not	r8d
	and	edx, -1789337752
	and	eax, 1789337728
	or	eax, edx
	and	r8d, -1789337752
	and	ecx, 23
	or	ecx, r8d
	xor	ecx, eax
	mov	dword ptr [rdi], ecx
	mov	r9d, dword ptr [rsi]
	mov	edx, ecx
	not	edx
	and	edx, 1355594577
	and	ecx, -1355594578
	or	ecx, edx
	mov	r10d, r9d
	not	r10d
	mov	r8d, r10d
	and	r8d, 1355594577
	mov	eax, r9d
	and	eax, -1355594578
	or	eax, r8d
	xor	eax, ecx
	mov	edx, eax
	xor	edx, -858993460
	and	edx, eax
	mov	r8d, edx
	not	r8d
	mov	eax, r8d
	and	eax, 1509169752
	mov	ecx, edx
	and	ecx, -1509169753
	or	ecx, eax
	and	r10d, 1509169752
	and	r9d, -1509169753
	or	r9d, r10d
	xor	r9d, ecx
	mov	dword ptr [rsi], r9d
	mov	eax, dword ptr [rdi]
	and	r8d, eax
	not	eax
	and	eax, edx
	or	eax, r8d
	mov	ecx, eax
	shl	ecx, 18
	shr	eax, 14
	mov	edx, ecx
	not	edx
	mov	r8d, eax
	not	r8d
	and	edx, -1095015435
	and	ecx, 1094975488
	or	ecx, edx
	and	r8d, -1095015435
	and	eax, 39946
	or	eax, r8d
	xor	eax, ecx
	mov	dword ptr [rdi], eax
	mov	r8d, dword ptr [rsi]
	mov	edx, eax
	not	edx
	and	edx, r8d
	mov	ecx, r8d
	not	ecx
	and	eax, ecx
	or	eax, edx
	mov	edx, eax
	xor	edx, 65535
	and	edx, eax
	mov	eax, edx
	not	eax
	and	r8d, eax
	and	ecx, edx
	or	ecx, r8d
	mov	dword ptr [rsi], ecx
	mov	r10d, dword ptr [rdi]
	and	eax, r10d
	mov	ecx, r10d
	not	ecx
	and	ecx, edx
	or	ecx, eax
	mov	eax, dword ptr [rip + x.121]
	mov	r8d, dword ptr [rip + y.122]
	lea	r9d, [rax - 1]
	imul	r9d, eax
	not	r9d
	or	r9d, -2
	shl	r10d, 20
	shr	ecx, 12
	mov	eax, ecx
	not	eax
	mov	edx, r10d
	not	edx
	and	eax, -991557074
	and	ecx, 652753
	or	ecx, eax
	and	edx, -991557074
	and	r10d, 990904320
	or	r10d, edx
	xor	r10d, ecx
	cmp	r9d, -1
	sete	al
	sete	byte ptr [rsp - 6]
	mov	ecx, -1693628638
	mov	r11d, -1292010724
	mov	r9d, -1292010724
	cmove	r9d, ecx
	cmp	r8d, 10
	setl	dl
	setl	byte ptr [rsp - 5]
	cmovge	r9d, r11d
	xor	dl, al
	cmovne	r9d, ecx
	mov	ecx, -732255391
	mov	r8d, -354053782
	jmp	.LBB4_1
.LBB4_7:                                
	movzx	eax, byte ptr [rsp - 6]
	movzx	ecx, byte ptr [rsp - 5]
	mov	edx, eax
	xor	dl, cl
	mov	edx, -1292010724
	cmovne	edx, r8d
	test	cl, cl
	mov	ecx, edx
	cmovne	ecx, r8d
	test	al, al
	cmove	ecx, edx
	.p2align	4, 0x90
.LBB4_1:                                
	mov	edx, ecx
	and	edx, 2147483647
	cmp	edx, 1415228256
	jg	.LBB4_5

	cmp	edx, 453855010
	je	.LBB4_9

	cmp	edx, 855472924
	jne	.LBB4_1

	mov	ecx, -354053782
	jmp	.LBB4_1
	.p2align	4, 0x90
.LBB4_5:                                
	cmp	edx, 1793429866
	je	.LBB4_8

	cmp	edx, 1415228257
	jne	.LBB4_1
	jmp	.LBB4_7
.LBB4_8:                                
	mov	dword ptr [rsp - 4], r10d
	mov	ecx, r9d
	jmp	.LBB4_1
.LBB4_9:
	mov	ecx, dword ptr [rsp - 4]
	mov	dword ptr [rdi], ecx
	mov	edx, dword ptr [rsi]
	mov	r8d, edx
	not	r8d
	mov	eax, ecx
	and	eax, r8d
	not	ecx
	and	ecx, edx
	or	ecx, eax
	mov	eax, ecx
	xor	eax, 252645135
	and	eax, ecx
	mov	r9d, eax
	not	r9d
	mov	r10d, r9d
	and	r10d, -2130701763
	mov	ecx, eax
	and	ecx, 2130701762
	or	ecx, r10d
	and	r8d, -2130701763
	and	edx, 2130701762
	or	edx, r8d
	xor	edx, ecx
	mov	dword ptr [rsi], edx
	mov	ecx, dword ptr [rdi]
	mov	edx, ecx
	not	edx
	and	edx, -1408306320
	mov	esi, ecx
	and	esi, 1408306304
	or	esi, edx
	and	r9d, -1408306320
	and	eax, 1408306304
	or	eax, r9d
	xor	eax, esi
	shrd	eax, ecx, 4
	mov	dword ptr [rdi], eax
	ret
.Lfunc_end4:
	.size	_ZN5Botan12_GLOBAL__N_16des_FPERjS1_, .Lfunc_end4-_ZN5Botan12_GLOBAL__N_16des_FPERjS1_

	.globl	_ZNK5Botan3DES9decrypt_nEPKhPhm 
	.p2align	4, 0x90
	.type	_ZNK5Botan3DES9decrypt_nEPKhPhm,@function
_ZNK5Botan3DES9decrypt_nEPKhPhm:        
	.cfi_startproc

	push	rbp
.Lcfi15:
	.cfi_def_cfa_offset 16
.Lcfi16:
	.cfi_offset rbp, -16
	mov	rbp, rsp
.Lcfi17:
	.cfi_def_cfa_register rbp
	push	r15
	push	r14
	push	r13
	push	r12
	push	rbx
	sub	rsp, 168
.Lcfi18:
	.cfi_offset rbx, -56
.Lcfi19:
	.cfi_offset r12, -48
.Lcfi20:
	.cfi_offset r13, -40
.Lcfi21:
	.cfi_offset r14, -32
.Lcfi22:
	.cfi_offset r15, -24
	mov	qword ptr [rbp - 208], rcx 
	mov	qword ptr [rbp - 200], rdx 
	mov	qword ptr [rbp - 192], rsi 
	mov	eax, dword ptr [rip + x.29]
	mov	ecx, dword ptr [rip + y.30]
	lea	edx, [rax - 1]
	imul	edx, eax
	not	edx
	or	edx, -2
	cmp	edx, -1
	sete	byte ptr [rbp - 43]
	cmp	ecx, 10
	setl	byte ptr [rbp - 44]
	mov	qword ptr [rbp - 120], rdi 
	lea	rax, [rdi + 8]
	mov	qword ptr [rbp - 152], rax 
	mov	eax, -1351288465








	jmp	.LBB5_1
.LBB5_93:                               
	mov	rax, qword ptr [rbp - 112]
	mov	eax, 1794032593
	.p2align	4, 0x90
.LBB5_1:                                







	cmp	eax, 1008755655
	jg	.LBB5_21

	cmp	eax, -1351288466
	jle	.LBB5_3

	cmp	eax, 627924119
	jle	.LBB5_11

	cmp	eax, 627924120
	je	.LBB5_51

	cmp	eax, 934615387
	jne	.LBB5_1

	mov	rax, qword ptr [rbp - 152] 
	mov	r8, qword ptr [rax]
	mov	eax, dword ptr [rip + x.419]
	mov	r10d, dword ptr [rip + y.420]
	lea	esi, [rax - 1]
	imul	esi, eax
	mov	edi, esi
	xor	edi, -2
	mov	eax, edi
	and	eax, esi
	sete	cl
	sete	byte ptr [rbp - 41]
	cmp	r10d, 10
	setl	bl
	xor	bl, cl
	mov	ecx, 1324114347
	mov	ebx, 1722250601
	cmovne	ecx, ebx
	test	eax, eax
	mov	r9d, ecx
	cmove	r9d, ebx
	cmp	r10d, 10
	setl	byte ptr [rbp - 42]
	cmovge	r9d, ecx
	mov	eax, 114725738
	jmp	.LBB5_17
	.p2align	4, 0x90
.LBB5_21:                               
	cmp	eax, 1426521034
	jg	.LBB5_26

	cmp	eax, 1008755656
	je	.LBB5_59

	cmp	eax, 1155900508
	je	.LBB5_52

	cmp	eax, 1170357045
	jne	.LBB5_1

	mov	qword ptr [rbp - 176], r15
	mov	qword ptr [rbp - 184], r14
	mov	qword ptr [rbp - 144], r12
	cmp	qword ptr [rbp - 176], 0
	mov	eax, -1953711495
	mov	ecx, -543929202
	cmove	eax, ecx
	jmp	.LBB5_1
	.p2align	4, 0x90
.LBB5_3:                                
	cmp	eax, -1953711495
	je	.LBB5_60

	cmp	eax, -1648982531
	je	.LBB5_50

	cmp	eax, -1424413795
	jne	.LBB5_1

	mov	rax, qword ptr [rbp - 56]
	mov	rax, qword ptr [rbp - 104]
	mov	eax, dword ptr [rax]
	bswap	eax
	mov	rcx, qword ptr [rbp - 56]
	mov	dword ptr [rcx], eax
	mov	rax, qword ptr [rbp - 64]
	mov	rax, qword ptr [rbp - 104]
	mov	eax, dword ptr [rax + 4]
	bswap	eax
	mov	rcx, qword ptr [rbp - 64]
	mov	dword ptr [rcx], eax
	mov	rax, qword ptr [rbp - 72]
	mov	rax, qword ptr [rbp - 104]
	mov	eax, dword ptr [rax + 8]
	bswap	eax
	mov	rcx, qword ptr [rbp - 72]
	mov	dword ptr [rcx], eax
	mov	rax, qword ptr [rbp - 80]
	mov	rax, qword ptr [rbp - 104]
	mov	eax, dword ptr [rax + 12]
	bswap	eax
	mov	rcx, qword ptr [rbp - 80]
	mov	dword ptr [rcx], eax
	mov	rdi, qword ptr [rbp - 56]
	mov	rsi, qword ptr [rbp - 64]
	call	_ZN5Botan12_GLOBAL__N_16des_IPERjS1_
	mov	rdi, qword ptr [rbp - 72]
	mov	rsi, qword ptr [rbp - 80]
	call	_ZN5Botan12_GLOBAL__N_16des_IPERjS1_
	mov	rax, qword ptr [rbp - 128]
	mov	r8, qword ptr [rax]
	mov	eax, dword ptr [rip + x.421]
	mov	ecx, dword ptr [rip + y.422]
	lea	edx, [rax - 1]
	imul	edx, eax
	mov	eax, edx
	xor	eax, -2
	and	eax, edx
	sete	dl
	sete	byte ptr [rbp - 41]
	cmp	ecx, 10
	setl	bl
	xor	bl, dl
	mov	edx, -777574955
	mov	esi, 526302726
	cmovne	edx, esi
	test	eax, eax
	mov	eax, edx
	cmove	eax, esi
	cmp	ecx, 10
	setl	byte ptr [rbp - 42]
	cmovge	eax, edx
	mov	ecx, 1934579201
	jmp	.LBB5_7
	.p2align	4, 0x90
.LBB5_26:                               
	cmp	eax, 1426521035
	je	.LBB5_31

	cmp	eax, 1501563633
	je	.LBB5_93

	cmp	eax, 1794032593
	jne	.LBB5_1

	mov	eax, dword ptr [rip + x.29]
	mov	ecx, dword ptr [rip + y.30]
	lea	edx, [rax - 1]
	imul	edx, eax
	not	edx
	or	edx, -2
	cmp	edx, -1
	sete	al
	cmp	ecx, 10
	setl	bl
	xor	bl, al
	mov	esi, 1501563633
	mov	edi, 1155900508
	cmovne	esi, edi
	cmp	edx, -1
	mov	eax, esi
	cmove	eax, edi
	cmp	ecx, 10
	mov	rcx, qword ptr [rbp - 112]
	cmovge	eax, esi
	cmp	rcx, 1
	seta	byte ptr [rbp - 45]
	jmp	.LBB5_1
.LBB5_11:                               
	cmp	eax, -1351288465
	je	.LBB5_30

	cmp	eax, -543929202
	jne	.LBB5_1
	jmp	.LBB5_13
.LBB5_51:                               
	mov	eax, dword ptr [rip + x.29]
	mov	ecx, dword ptr [rip + y.30]
	lea	edx, [rax - 1]
	imul	edx, eax
	not	edx
	or	edx, -2
	cmp	edx, -1
	sete	al
	cmp	ecx, 10
	setl	bl
	xor	bl, al
	mov	esi, 1501563633
	mov	edi, 1794032593
	cmovne	esi, edi
	cmp	edx, -1
	mov	eax, esi
	cmove	eax, edi
	cmp	ecx, 10
	mov	qword ptr [rbp - 112], r13
	mov	rcx, qword ptr [rbp - 160] 
	mov	qword ptr [rbp - 136], rcx
	mov	rcx, qword ptr [rbp - 168] 
	mov	qword ptr [rbp - 104], rcx
	cmovge	eax, esi
	jmp	.LBB5_1
.LBB5_20:                               
	mov	eax, r9d
	.p2align	4, 0x90
.LBB5_17:                               

	mov	ebx, eax
	and	ebx, 2147483647
	cmp	ebx, 1324114346
	jle	.LBB5_18

	cmp	ebx, 1324114347
	je	.LBB5_87

	cmp	ebx, 1722250601
	jne	.LBB5_17
	jmp	.LBB5_81
	.p2align	4, 0x90
.LBB5_18:                               
	cmp	ebx, 114725738
	je	.LBB5_86

	cmp	ebx, 918865027
	jne	.LBB5_17
	jmp	.LBB5_20
.LBB5_87:                               
	mov	eax, 918865027
	jmp	.LBB5_17
.LBB5_86:                               
	movzx	ebx, byte ptr [rbp - 41]
	movzx	eax, byte ptr [rbp - 42]
	mov	ecx, ebx
	xor	cl, al
	mov	ecx, 1324114347
	mov	edx, 918865027
	cmovne	ecx, edx
	test	al, al
	mov	eax, ecx
	cmovne	eax, edx
	test	bl, bl
	cmove	eax, ecx
	jmp	.LBB5_17
.LBB5_59:                               
	mov	r12, qword ptr [rbp - 104]
	mov	r14, qword ptr [rbp - 136]
	mov	eax, 1170357045
	mov	r15, qword ptr [rbp - 112]
	jmp	.LBB5_1
.LBB5_52:                               
	mov	al, byte ptr [rbp - 45]
	test	al, al
	mov	eax, 1008755656
	mov	ecx, -1424413795
	cmovne	eax, ecx
	jmp	.LBB5_1
.LBB5_60:                               
	mov	rax, qword ptr [rbp - 88]
	mov	rax, qword ptr [rbp - 144]
	mov	eax, dword ptr [rax]
	bswap	eax
	mov	rcx, qword ptr [rbp - 88]
	mov	dword ptr [rcx], eax
	mov	rax, qword ptr [rbp - 96]
	mov	rax, qword ptr [rbp - 144]
	mov	eax, dword ptr [rax + 4]
	bswap	eax
	mov	rcx, qword ptr [rbp - 96]
	mov	dword ptr [rcx], eax
	mov	rdi, qword ptr [rbp - 88]
	mov	rsi, qword ptr [rbp - 96]
	call	_ZN5Botan12_GLOBAL__N_16des_IPERjS1_
	mov	rax, qword ptr [rbp - 128]
	mov	rdx, qword ptr [rax]
	mov	eax, dword ptr [rip + x.421]
	mov	ecx, dword ptr [rip + y.422]
	mov	esi, eax
	neg	esi
	not	esi
	imul	esi, eax
	not	esi
	or	esi, -2
	cmp	esi, -1
	sete	al
	cmp	ecx, 10
	setl	bl
	xor	bl, al
	mov	edi, -777574955
	mov	eax, 526302726
	cmovne	edi, eax
	cmp	esi, -1
	sete	byte ptr [rbp - 41]
	mov	esi, edi
	cmove	esi, eax
	cmp	ecx, 10
	setl	byte ptr [rbp - 42]
	cmovge	esi, edi
	mov	ecx, 1934579201
	jmp	.LBB5_61
.LBB5_50:                               
	mov	eax, 627924120
	mov	r13, qword ptr [rbp - 208] 
	mov	rcx, qword ptr [rbp - 200] 
	mov	qword ptr [rbp - 160], rcx 
	mov	rcx, qword ptr [rbp - 192] 
	mov	qword ptr [rbp - 168], rcx 
	jmp	.LBB5_1
.LBB5_9:                                
	mov	ecx, eax
	.p2align	4, 0x90
.LBB5_7:                                

	cmp	ecx, 526302725
	jg	.LBB5_53

	cmp	ecx, -1741699557
	je	.LBB5_9

	cmp	ecx, -777574955
	jne	.LBB5_7

	mov	ecx, -1741699557
	jmp	.LBB5_7
	.p2align	4, 0x90
.LBB5_53:                               
	cmp	ecx, 526302726
	je	.LBB5_58

	cmp	ecx, 1934579201
	jne	.LBB5_7

	movzx	ebx, byte ptr [rbp - 41]
	movzx	ecx, byte ptr [rbp - 42]
	mov	edx, ebx
	xor	dl, cl
	mov	edx, -777574955
	mov	esi, -1741699557
	cmovne	edx, esi
	test	cl, cl
	mov	ecx, edx
	cmovne	ecx, esi
	test	bl, bl
	cmove	ecx, edx
	jmp	.LBB5_7
.LBB5_31:                               
	mov	rax, rsp
	add	rax, -16
	mov	rsp, rax
	mov	qword ptr [rbp - 56], rax
	mov	rax, rsp
	add	rax, -16
	mov	rsp, rax
	mov	qword ptr [rbp - 64], rax
	mov	rax, rsp
	add	rax, -16
	mov	rsp, rax
	mov	qword ptr [rbp - 72], rax
	mov	rax, rsp
	add	rax, -16
	mov	rsp, rax
	mov	qword ptr [rbp - 80], rax
	mov	rax, rsp
	add	rax, -16
	mov	rsp, rax
	mov	qword ptr [rbp - 88], rax
	mov	rax, rsp
	add	rax, -16
	mov	rsp, rax
	mov	qword ptr [rbp - 96], rax
	mov	rax, qword ptr [rbp - 152] 
	mov	qword ptr [rbp - 128], rax
	mov	r9, qword ptr [rbp - 128]
	mov	r8, qword ptr [r9]
	mov	eax, dword ptr [rip + x.419]
	mov	r10d, dword ptr [rip + y.420]
	mov	edi, eax
	neg	edi
	not	edi
	imul	edi, eax
	mov	esi, edi
	xor	esi, -2
	mov	eax, esi
	and	eax, edi
	sete	byte ptr [rbp - 41]
	sete	dl
	test	eax, eax
	mov	ecx, 1324114347
	mov	r11d, 1722250601
	cmove	ecx, r11d
	cmp	r10d, 10
	setl	al
	setl	byte ptr [rbp - 42]
	mov	ebx, 1324114347
	cmovge	ecx, ebx
	xor	al, dl
	cmovne	ecx, r11d
	mov	edx, 114725738
	jmp	.LBB5_32
.LBB5_30:                               
	mov	cl, byte ptr [rbp - 43]
	mov	al, byte ptr [rbp - 44]
	mov	edx, ecx
	xor	dl, al
	test	al, al
	mov	eax, 934615387
	mov	esi, 1426521035
	cmovne	eax, esi
	test	cl, cl
	mov	ecx, 934615387
	cmove	eax, ecx
	test	dl, dl
	cmovne	eax, esi
	jmp	.LBB5_1
.LBB5_81:                               
	test	edi, esi
	mov	rax, qword ptr [rbp - 120] 
	mov	rdi, qword ptr [rax + 16]
	sete	byte ptr [rbp - 41]
	cmp	r10d, 10
	setl	byte ptr [rbp - 42]
	mov	edx, 114725738
	jmp	.LBB5_82
.LBB5_63:                               
	mov	ecx, esi
	.p2align	4, 0x90
.LBB5_61:                               

	cmp	ecx, 526302725
	jg	.LBB5_64

	cmp	ecx, -1741699557
	je	.LBB5_63

	cmp	ecx, -777574955
	jne	.LBB5_61

	mov	ecx, -1741699557
	jmp	.LBB5_61
	.p2align	4, 0x90
.LBB5_64:                               
	cmp	ecx, 526302726
	je	.LBB5_69

	cmp	ecx, 1934579201
	jne	.LBB5_61

	movzx	eax, byte ptr [rbp - 41]
	movzx	ecx, byte ptr [rbp - 42]
	mov	ebx, eax
	xor	bl, cl
	test	cl, cl
	mov	ecx, -777574955
	mov	edi, -1741699557
	cmovne	ecx, edi
	test	al, al
	mov	eax, -777574955
	cmove	ecx, eax
	test	bl, bl
	cmovne	ecx, edi
	jmp	.LBB5_61
.LBB5_58:                               
	mov	rdi, qword ptr [rbp - 56]
	mov	rsi, qword ptr [rbp - 64]
	mov	rdx, qword ptr [rbp - 72]
	mov	rcx, qword ptr [rbp - 80]
	call	_ZN5Botan12_GLOBAL__N_114des_decrypt_x2ERjS1_S1_S1_PKj
	mov	rdi, qword ptr [rbp - 56]
	mov	rsi, qword ptr [rbp - 64]
	call	_ZN5Botan12_GLOBAL__N_16des_FPERjS1_
	mov	rdi, qword ptr [rbp - 72]
	mov	rsi, qword ptr [rbp - 80]
	call	_ZN5Botan12_GLOBAL__N_16des_FPERjS1_
	mov	rax, qword ptr [rbp - 64]
	mov	eax, dword ptr [rax]
	mov	rcx, qword ptr [rbp - 56]
	mov	ecx, dword ptr [rcx]
	mov	rdx, qword ptr [rbp - 80]
	mov	edx, dword ptr [rdx]
	mov	rsi, qword ptr [rbp - 72]
	mov	esi, dword ptr [rsi]
	mov	rdi, qword ptr [rbp - 136]
	bswap	eax
	mov	dword ptr [rdi], eax
	bswap	ecx
	mov	dword ptr [rdi + 4], ecx
	bswap	edx
	mov	dword ptr [rdi + 8], edx
	bswap	esi
	mov	dword ptr [rdi + 12], esi
	mov	rax, qword ptr [rbp - 104]
	add	rax, 16
	mov	qword ptr [rbp - 168], rax 
	mov	rax, qword ptr [rbp - 136]
	add	rax, 16
	mov	qword ptr [rbp - 160], rax 
	mov	r13, qword ptr [rbp - 112]
	add	r13, -2
	mov	eax, 627924120
	jmp	.LBB5_1
.LBB5_35:                               
	mov	edx, ecx
	.p2align	4, 0x90
.LBB5_32:                               

	mov	eax, edx
	and	eax, 2147483647
	cmp	eax, 1324114346
	jle	.LBB5_33

	cmp	eax, 1324114347
	je	.LBB5_44

	cmp	eax, 1722250601
	jne	.LBB5_32
	jmp	.LBB5_38
	.p2align	4, 0x90
.LBB5_33:                               
	cmp	eax, 114725738
	je	.LBB5_43

	cmp	eax, 918865027
	jne	.LBB5_32
	jmp	.LBB5_35
.LBB5_44:                               
	mov	edx, 918865027
	jmp	.LBB5_32
.LBB5_43:                               
	movzx	ebx, byte ptr [rbp - 41]
	movzx	edx, byte ptr [rbp - 42]
	mov	eax, ebx
	xor	al, dl
	test	dl, dl
	mov	edx, 1324114347
	mov	r11d, 918865027
	cmovne	edx, r11d
	test	bl, bl
	mov	ebx, 1324114347
	cmove	edx, ebx
	test	al, al
	cmovne	edx, r11d
	jmp	.LBB5_32
.LBB5_85:                               
	mov	edx, r9d
	.p2align	4, 0x90
.LBB5_82:                               

	mov	eax, edx
	and	eax, 2147483647
	cmp	eax, 1324114346
	jle	.LBB5_83

	cmp	eax, 1324114347
	je	.LBB5_92

	cmp	eax, 1722250601
	jne	.LBB5_82
	jmp	.LBB5_90
	.p2align	4, 0x90
.LBB5_83:                               
	cmp	eax, 114725738
	je	.LBB5_91

	cmp	eax, 918865027
	jne	.LBB5_82
	jmp	.LBB5_85
.LBB5_92:                               
	mov	edx, 918865027
	jmp	.LBB5_82
.LBB5_91:                               
	movzx	ebx, byte ptr [rbp - 41]
	movzx	ecx, byte ptr [rbp - 42]
	mov	eax, ebx
	xor	al, cl
	test	cl, cl
	mov	edx, 1324114347
	mov	esi, 918865027
	cmovne	edx, esi
	test	bl, bl
	mov	ecx, 1324114347
	cmove	edx, ecx
	test	al, al
	cmovne	edx, esi
	jmp	.LBB5_82
.LBB5_69:                               
	mov	rdi, qword ptr [rbp - 88]
	mov	rsi, qword ptr [rbp - 96]
	call	_ZN5Botan12_GLOBAL__N_111des_decryptERjS1_PKj
	mov	rdi, qword ptr [rbp - 88]
	mov	rsi, qword ptr [rbp - 96]
	call	_ZN5Botan12_GLOBAL__N_16des_FPERjS1_
	mov	rax, qword ptr [rbp - 96]
	mov	r8d, dword ptr [rax]
	mov	rcx, qword ptr [rbp - 88]
	mov	r9d, dword ptr [rcx]
	mov	rdx, qword ptr [rbp - 184]
	mov	esi, dword ptr [rip + x.27]
	lea	edi, [rsi - 1]
	imul	edi, esi
	mov	esi, edi
	xor	esi, -2
	test	esi, edi
	sete	byte ptr [rbp - 41]
	mov	esi, dword ptr [rip + y.28]
	cmp	esi, 10
	setl	byte ptr [rbp - 42]
	bswap	r8d
	bswap	r9d
	mov	esi, -644910307
	jmp	.LBB5_70
.LBB5_38:                               
	test	esi, edi
	mov	rdi, qword ptr [r9 + 8]
	sete	byte ptr [rbp - 41]
	cmp	r10d, 10
	setl	byte ptr [rbp - 42]
	mov	eax, 114725738
	jmp	.LBB5_39
.LBB5_90:                               
	xor	esi, esi
	cmp	r8, rdi
	setne	sil
	mov	rdi, qword ptr [rbp - 120] 
	call	_ZNK5Botan18SymmetricAlgorithm14verify_key_setEb
	mov	eax, 1426521035
	jmp	.LBB5_1
.LBB5_73:                               
	movzx	ecx, byte ptr [rbp - 41]
	movzx	eax, byte ptr [rbp - 42]
	mov	ebx, ecx
	xor	bl, al
	test	al, al
	mov	esi, -266241031
	mov	eax, 1444073801
	cmovne	esi, eax
	test	cl, cl
	mov	ecx, -266241031
	cmove	esi, ecx
	test	bl, bl
	cmovne	esi, eax
	.p2align	4, 0x90
.LBB5_70:                               

	cmp	esi, -266241032
	jg	.LBB5_74

	cmp	esi, -931930484
	je	.LBB5_78

	cmp	esi, -644910307
	jne	.LBB5_70
	jmp	.LBB5_73
	.p2align	4, 0x90
.LBB5_74:                               
	cmp	esi, -266241031
	je	.LBB5_77

	cmp	esi, 1444073801
	jne	.LBB5_70

	mov	dword ptr [rdx], r8d
	mov	dword ptr [rdx + 4], r9d
	mov	eax, dword ptr [rip + x.27]
	mov	ecx, dword ptr [rip + y.28]
	lea	esi, [rax - 1]
	imul	esi, eax
	not	esi
	or	esi, -2
	cmp	esi, -1
	sete	al
	cmp	ecx, 10
	setl	bl
	xor	bl, al
	mov	eax, -266241031
	mov	edi, -931930484
	cmovne	eax, edi
	cmp	esi, -1
	mov	esi, eax
	cmove	esi, edi
	cmp	ecx, 10
	cmovge	esi, eax
	jmp	.LBB5_70
.LBB5_77:                               
	mov	dword ptr [rdx], r8d
	mov	dword ptr [rdx + 4], r9d
	mov	esi, 1444073801
	jmp	.LBB5_70
.LBB5_42:                               
	mov	eax, ecx
	.p2align	4, 0x90
.LBB5_39:                               

	mov	esi, eax
	and	esi, 2147483647
	cmp	esi, 1324114346
	jle	.LBB5_40

	cmp	esi, 1324114347
	je	.LBB5_49

	cmp	esi, 1722250601
	jne	.LBB5_39
	jmp	.LBB5_47
	.p2align	4, 0x90
.LBB5_40:                               
	cmp	esi, 114725738
	je	.LBB5_48

	cmp	esi, 918865027
	jne	.LBB5_39
	jmp	.LBB5_42
.LBB5_49:                               
	mov	eax, 918865027
	jmp	.LBB5_39
.LBB5_48:                               
	movzx	edx, byte ptr [rbp - 41]
	movzx	eax, byte ptr [rbp - 42]
	mov	ebx, edx
	xor	bl, al
	mov	esi, 1324114347
	mov	ebx, 918865027
	cmovne	esi, ebx
	test	al, al
	mov	eax, esi
	cmovne	eax, ebx
	test	dl, dl
	cmove	eax, esi
	jmp	.LBB5_39
.LBB5_78:                               
	mov	r12, qword ptr [rbp - 144]
	add	r12, 8
	mov	r14, qword ptr [rbp - 184]
	add	r14, 8
	mov	rax, qword ptr [rbp - 176]
	movabs	rcx, 8277313804732405074
	lea	r15, [rax + rcx - 1]
	sub	r15, rcx
	mov	eax, 1170357045
	jmp	.LBB5_1
.LBB5_47:                               
	xor	esi, esi
	cmp	r8, rdi
	setne	sil
	mov	rdi, qword ptr [rbp - 120] 
	call	_ZNK5Botan18SymmetricAlgorithm14verify_key_setEb
	mov	eax, dword ptr [rip + x.29]
	lea	ecx, [rax - 1]
	imul	ecx, eax
	mov	eax, ecx
	xor	eax, -2
	and	eax, ecx
	sete	cl
	test	eax, eax
	mov	eax, 934615387
	mov	edi, -1648982531
	cmove	eax, edi
	cmp	dword ptr [rip + y.30], 10
	setl	dl
	mov	esi, 934615387
	cmovge	eax, esi
	xor	dl, cl
	cmovne	eax, edi
	jmp	.LBB5_1
.LBB5_13:
	lea	rsp, [rbp - 40]
	pop	rbx
	pop	r12
	pop	r13
	pop	r14
	pop	r15
	pop	rbp
	ret
.Lfunc_end5:
	.size	_ZNK5Botan3DES9decrypt_nEPKhPhm, .Lfunc_end5-_ZNK5Botan3DES9decrypt_nEPKhPhm
	.cfi_endproc

	.p2align	4, 0x90         
	.type	_ZN5Botan12_GLOBAL__N_114des_decrypt_x2ERjS1_S1_S1_PKj,@function
_ZN5Botan12_GLOBAL__N_114des_decrypt_x2ERjS1_S1_S1_PKj: 

	push	rbp
	push	r15
	push	r14
	push	r13
	push	r12
	push	rbx
	mov	qword ptr [rsp - 32], rdi 
	mov	r13d, dword ptr [rdi]
	mov	qword ptr [rsp - 24], rsi 
	mov	ebx, dword ptr [rsi]
	mov	qword ptr [rsp - 16], rdx 
	mov	r15d, dword ptr [rdx]
	mov	qword ptr [rsp - 8], rcx 
	mov	eax, dword ptr [rcx]
	mov	ecx, 16
	jmp	.LBB6_1
	.p2align	4, 0x90
.LBB6_7:                                
	mov	esi, dword ptr [rsp - 52]
	rol	esi, 28
	mov	r14, qword ptr [rsp - 40]
	mov	r10d, dword ptr [r8 + 8*r14 - 8]
	mov	ecx, esi
	not	ecx
	and	ecx, r10d
	mov	r15d, r10d
	not	r15d
	and	esi, r15d
	or	esi, ecx
	movabs	rax, 4315512057874503118
	lea	rcx, [rax + 2*r14 - 1]
	sub	rcx, rax
	mov	ebp, dword ptr [r8 + 4*rcx]
	mov	ebx, dword ptr [rsp - 52]
	mov	r13d, ebx
	not	r13d
	and	r13d, ebp
	mov	r9d, dword ptr [rsp - 44]
	mov	r11d, dword ptr [rsp - 56]
	mov	edi, dword ptr [rsp - 56]
	mov	r12d, edi
	not	r12d
	and	r12d, ebp
	not	ebp
	and	ebx, ebp
	or	ebx, r13d
	mov	ecx, esi
	shr	ecx, 24
	and	ecx, 63
	movzx	ecx, byte ptr [rcx + _ZN5Botan12_GLOBAL__N_1L10SPBOX_CATSE]
	imul	ecx, ecx, 1879314694
	mov	edx, ecx
	xor	edx, -16843782
	and	edx, ecx
	mov	r13d, ebx
	shr	r13d, 24
	mov	ecx, r13d
	xor	ecx, 192
	and	ecx, r13d
	mov	r13d, ecx
	and	r13d, 64
	xor	ecx, 64
	or	ecx, r13d
	movzx	ecx, byte ptr [rcx + _ZN5Botan12_GLOBAL__N_1L10SPBOX_CATSE]
	imul	ecx, ecx, 33628192
	and	ecx, -2146402272
	mov	r13d, ecx
	and	r13d, edx
	xor	ecx, edx
	mov	edx, esi
	or	ecx, r13d
	shr	edx, 16
	mov	r13d, edx
	not	r13d
	or	r13d, 1123463232
	and	r13d, 1123463266
	and	edx, 29
	or	edx, r13d
	xor	edx, 1123463394
	movzx	edx, byte ptr [rdx + _ZN5Botan12_GLOBAL__N_1L10SPBOX_CATSE]
	imul	r13d, edx, 9441352
	mov	edx, r13d
	xor	edx, -134349328
	and	edx, r13d
	mov	r13d, ecx
	not	r13d
	mov	eax, r13d
	and	eax, 1871145412
	and	ecx, -1871145414
	or	ecx, eax
	mov	eax, edx
	not	eax
	or	r13d, eax
	and	eax, 1871145412
	and	edx, -1871145416
	or	edx, eax
	xor	edx, ecx
	mov	eax, ebx
	not	r13d
	or	r13d, edx
	shr	eax, 16
	mov	ecx, eax
	xor	ecx, 65472
	and	ecx, eax
	mov	eax, ecx
	not	eax
	and	eax, -1904976148
	mov	edx, ecx
	and	edx, 41235
	or	edx, eax
	xor	edx, -1904976340
	and	ecx, 192
	or	ecx, edx
	movzx	eax, byte ptr [rcx + _ZN5Botan12_GLOBAL__N_1L10SPBOX_CATSE]
	imul	eax, eax, -1912208863
	mov	edx, eax
	xor	edx, -8396930
	and	edx, eax
	mov	eax, r13d
	not	eax
	mov	ecx, eax
	and	ecx, -1023588324
	and	r13d, 1023588323
	or	r13d, ecx
	mov	ecx, edx
	not	ecx
	or	eax, ecx
	and	ecx, -1023588324
	and	edx, 1023588323
	or	edx, ecx
	xor	edx, r13d
	mov	ecx, esi
	xor	ecx, -64
	and	ecx, esi

	not	eax
	or	eax, edx
	shr	esi, 8
	mov	edx, esi
	not	edx
	or	edx, -1663671616
	and	edx, -1663671614
	and	esi, 61
	or	esi, edx
	xor	esi, -1663671358
	movzx	edx, byte ptr [rsi + _ZN5Botan12_GLOBAL__N_1L10SPBOX_CATSE]
	imul	edx, edx, 9511232
	mov	esi, edx
	xor	esi, -1107820864
	and	esi, edx
	mov	edx, eax
	not	edx
	mov	r13d, edx
	and	r13d, 181101980
	and	eax, -181101981
	or	eax, r13d
	mov	r13d, esi
	not	r13d
	or	edx, r13d
	and	r13d, 181101980
	and	esi, -181102016
	or	esi, r13d
	xor	esi, eax
	mov	eax, ebx
	xor	eax, -64
	and	eax, ebx
	not	edx
	or	edx, esi
	shr	ebx, 8
	mov	esi, ebx
	xor	esi, 16777152
	and	esi, ebx
	mov	ebx, esi
	and	ebx, 320
	xor	esi, 320
	or	esi, ebx
	mov	ebx, edx
	not	ebx
	mov	r13d, ebx
	and	r13d, -1102274496
	and	edx, 1102274495
	or	edx, r13d
	movzx	esi, byte ptr [rsi + _ZN5Botan12_GLOBAL__N_1L10SPBOX_CATSE]
	imul	r13d, esi, -2138828776
	mov	esi, r13d
	not	esi
	or	esi, -541081617
	or	ebx, esi
	and	esi, -1102274496
	and	r13d, 16400
	or	r13d, esi
	xor	r13d, edx
	not	ebx
	or	ebx, r13d
	mov	edx, ecx
	not	edx
	and	edx, -991058131
	mov	esi, ecx
	and	esi, 991058130
	or	esi, edx
	xor	esi, -991058259
	and	ecx, 384
	or	ecx, esi
	movzx	ecx, byte ptr [rcx + _ZN5Botan12_GLOBAL__N_1L10SPBOX_CATSE]
	imul	ecx, ecx, -535690750
	mov	edx, ecx
	not	edx
	or	edx, 441997233
	mov	esi, eax
	and	esi, 448
	xor	eax, 448
	or	eax, esi
	movzx	eax, byte ptr [rax + _ZN5Botan12_GLOBAL__N_1L10SPBOX_CATSE]
	imul	eax, eax, 2171456
	mov	r13d, eax
	xor	r13d, 805040000
	and	r13d, eax
	and	edx, 511203251
	and	ecx, 2048
	or	ecx, edx
	mov	eax, r9d
	not	eax
	and	eax, 511203251
	and	r9d, -511203252
	or	r9d, eax
	xor	r9d, ecx
	mov	eax, r9d
	not	eax
	and	eax, ebx
	not	ebx
	and	ebx, r9d
	or	ebx, eax
	mov	eax, ebx
	not	eax
	and	eax, -1509133413
	mov	ecx, ebx
	and	ecx, 1509133412
	or	ecx, eax
	mov	eax, r13d
	not	eax
	and	eax, -1509133413
	and	r13d, 435391552
	or	r13d, eax
	xor	r13d, ecx
	rol	r11d, 28
	mov	eax, r11d
	not	eax
	and	eax, 621204054
	and	r11d, -621204055
	or	r11d, eax
	and	r15d, 621204054
	and	r10d, -621204055
	or	r10d, r15d
	xor	r10d, r11d
	and	ebp, edi
	or	ebp, r12d
	mov	r9d, r10d
	mov	r11d, r10d
	mov	ecx, r10d
	xor	ecx, -64
	and	ecx, r10d
	shr	r10d, 24
	mov	eax, r10d
	xor	eax, 192
	and	eax, r10d
	movzx	eax, byte ptr [rax + _ZN5Botan12_GLOBAL__N_1L10SPBOX_CATSE]
	imul	edi, eax, 1879314694
	mov	eax, edi
	not	eax
	or	eax, -1540877934
	mov	r15d, ebp
	mov	r10d, ebp
	mov	edx, ebp
	xor	edx, -64
	and	edx, ebp

	shr	ebp, 24
	mov	esi, ebp
	not	esi
	and	esi, -912456387
	and	ebp, 2
	or	ebp, esi
	xor	ebp, -912456323
	movzx	esi, byte ptr [rbp + _ZN5Botan12_GLOBAL__N_1L10SPBOX_CATSE]
	imul	esi, esi, 33628192
	mov	ebp, esi
	not	ebp
	or	ebp, 606606738
	and	ebp, -1540876910
	and	esi, 1081376
	or	esi, ebp
	and	eax, -1540876910
	and	edi, 16842756
	or	edi, eax
	xor	edi, esi
	shr	r9d, 16
	or	r9d, 128
	and	r9d, 191
	movzx	eax, byte ptr [r9 + _ZN5Botan12_GLOBAL__N_1L10SPBOX_CATSE]
	imul	eax, eax, 9441352
	and	eax, 134349320
	or	eax, edi
	shr	r15d, 16
	mov	esi, r15d
	xor	esi, 65472
	and	esi, r15d
	mov	edi, esi
	and	edi, 192
	xor	esi, 192
	or	esi, edi
	movzx	esi, byte ptr [rsi + _ZN5Botan12_GLOBAL__N_1L10SPBOX_CATSE]
	imul	esi, esi, -1912208863
	mov	edi, esi
	xor	edi, -8396930
	and	edi, esi
	mov	esi, eax
	and	esi, edi
	xor	edi, eax
	or	edi, esi
	shr	r11d, 8
	or	r11d, 256
	and	r11d, 319
	movzx	eax, byte ptr [r11 + _ZN5Botan12_GLOBAL__N_1L10SPBOX_CATSE]
	imul	eax, eax, 9511232
	mov	esi, eax
	xor	esi, -1107820864
	and	esi, eax
	mov	eax, edi
	and	eax, esi
	xor	esi, edi
	or	esi, eax
	shr	r10d, 8
	mov	eax, r10d
	xor	eax, 16777152
	and	eax, r10d
	mov	edi, eax
	and	edi, 320
	xor	eax, 320
	or	eax, edi
	movzx	eax, byte ptr [rax + _ZN5Botan12_GLOBAL__N_1L10SPBOX_CATSE]
	imul	eax, eax, -2138828776
	mov	edi, eax
	xor	edi, -541081624
	and	edi, eax
	mov	r11d, esi
	not	r11d
	mov	ebp, edi
	not	ebp
	mov	eax, r11d
	and	eax, -1080883663
	and	esi, 1080883662
	or	esi, eax
	or	r11d, ebp
	and	ebp, -1080883663
	and	edi, 1080883656
	or	edi, ebp
	xor	edi, esi
	not	r11d
	or	r11d, edi
	mov	eax, ecx
	and	eax, 384
	xor	ecx, 384
	or	ecx, eax
	movzx	eax, byte ptr [rcx + _ZN5Botan12_GLOBAL__N_1L10SPBOX_CATSE]
	imul	eax, eax, -535690750
	mov	ecx, eax
	xor	ecx, -69208068
	and	ecx, eax
	mov	eax, edx
	and	eax, 448
	xor	edx, 448
	or	edx, eax
	movzx	eax, byte ptr [rdx + _ZN5Botan12_GLOBAL__N_1L10SPBOX_CATSE]
	imul	r15d, eax, 2171456
	mov	eax, r15d
	not	eax
	or	eax, 1082903605
	mov	edx, dword ptr [rsp - 48]
	mov	esi, ecx
	not	esi
	and	esi, -394487751
	and	ecx, 394487750
	or	ecx, esi
	mov	esi, edx
	not	esi
	and	esi, -394487751
	and	edx, 394487750
	or	edx, esi
	xor	edx, ecx
	mov	ecx, edx
	not	ecx
	and	ecx, -557047952
	and	edx, 557047951
	or	edx, ecx
	mov	ecx, r11d
	not	ecx
	and	ecx, -557047952
	and	r11d, 557047951
	or	r11d, ecx
	xor	r11d, edx
	mov	ecx, r11d
	not	ecx
	and	ecx, 1082907765
	mov	edx, r11d
	and	edx, -1082907766
	or	edx, ecx
	and	eax, 1082907765
	and	r15d, 268697600
	or	r15d, eax
	xor	r15d, edx
	mov	eax, r13d
	shr	eax, 4
	shl	ebx, 28
	mov	ecx, eax
	not	ecx
	mov	edx, ebx
	not	edx
	and	ecx, 549088379
	and	eax, 256217988
	or	eax, ecx
	and	edx, 549088379
	and	ebx, -805306368
	or	ebx, edx
	xor	ebx, eax
	lea	rax, [8*r14]
	mov	ecx, 16
	sub	rcx, rax
	neg	rcx
	mov	r12d, dword ptr [r8 + rcx]
	mov	r9d, r12d
	not	r9d
	mov	eax, r9d
	and	eax, -1988218374
	mov	ecx, r12d
	and	ecx, 1988218373
	or	ecx, eax
	mov	eax, ebx
	not	eax
	and	eax, -1988218374
	and	ebx, 1988218373
	or	ebx, eax
	xor	ebx, ecx
	movabs	rax, 627257954198640898
	mov	rcx, rax
	lea	rax, [rcx + 2*r14 - 3]
	sub	rax, rcx
	mov	r10d, dword ptr [r8 + 4*rax]
	mov	r14d, r10d
	mov	esi, r15d
	not	esi
	and	esi, r10d

	not	r10d
	mov	eax, r10d
	and	eax, 1797055955
	and	r14d, -1797055956
	or	r14d, eax
	mov	eax, r13d
	not	eax
	and	eax, 1797055955
	mov	ecx, r13d
	and	ecx, -1797055956
	or	ecx, eax
	xor	ecx, r14d
	mov	eax, ebx
	mov	edx, ebx
	shr	edx, 24
	mov	edi, edx
	xor	edi, 192
	and	edi, edx
	movzx	edx, byte ptr [rdi + _ZN5Botan12_GLOBAL__N_1L10SPBOX_CATSE]
	imul	edx, edx, 1879314694
	and	edx, 16843780
	mov	edi, ecx
	shr	edi, 24
	mov	ebp, edi
	not	ebp
	or	ebp, 869058112
	and	ebp, 869058133
	and	edi, 42
	or	edi, ebp
	xor	edi, 869058069
	movzx	edi, byte ptr [rdi + _ZN5Botan12_GLOBAL__N_1L10SPBOX_CATSE]
	imul	edi, edi, 33628192
	mov	ebp, edi
	xor	ebp, 2146402240
	and	ebp, edi
	mov	edi, ebp
	and	edi, edx
	xor	ebp, edx
	mov	edx, ecx
	or	ebp, edi
	shr	eax, 16
	or	eax, 128
	and	eax, 191
	movzx	eax, byte ptr [rax + _ZN5Botan12_GLOBAL__N_1L10SPBOX_CATSE]
	imul	eax, eax, 9441352
	mov	edi, eax
	xor	edi, -134349328
	and	edi, eax
	mov	eax, ebp
	and	eax, edi
	xor	edi, ebp
	or	edi, eax
	shr	edx, 16
	or	edx, 192
	movzx	eax, dl
	movzx	eax, byte ptr [rax + _ZN5Botan12_GLOBAL__N_1L10SPBOX_CATSE]
	imul	eax, eax, -1912208863
	mov	edx, edi
	not	edx
	mov	ebp, edx
	and	ebp, -583971645
	and	edi, 583971644
	or	edi, ebp
	mov	ebp, eax
	not	ebp
	or	ebp, -8396930
	or	edx, ebp
	and	ebp, -583971645
	and	eax, 8396800
	or	eax, ebp
	mov	ebp, ebx
	xor	ebp, -64
	and	ebp, ebx
	xor	eax, edi
	not	edx
	or	edx, eax
	shr	ebx, 8
	mov	eax, ebx
	xor	eax, 16777152
	and	eax, ebx
	mov	edi, eax
	and	edi, 256
	xor	eax, 256
	or	eax, edi
	movzx	eax, byte ptr [rax + _ZN5Botan12_GLOBAL__N_1L10SPBOX_CATSE]
	imul	eax, eax, 9511232
	mov	edi, edx
	not	edi
	mov	ebx, edi
	and	ebx, -1456171580
	and	edx, 1456171579
	or	edx, ebx
	mov	ebx, eax
	not	ebx
	or	ebx, -1107820801
	or	edi, ebx
	and	ebx, -1456171580
	and	eax, 1107820544
	or	eax, ebx
	xor	eax, edx
	mov	edx, ecx
	xor	edx, -64
	and	edx, ecx

	not	edi
	or	edi, eax
	shr	ecx, 8
	or	ecx, 320
	and	ecx, 383
	movzx	eax, byte ptr [rcx + _ZN5Botan12_GLOBAL__N_1L10SPBOX_CATSE]
	imul	ebx, eax, -2138828776
	and	ebx, 541081616
	mov	eax, edi
	and	eax, ebx
	xor	ebx, edi
	or	ebx, eax
	mov	eax, ebp
	and	eax, 384
	xor	ebp, 384
	or	ebp, eax
	movzx	eax, byte ptr [rbp + _ZN5Botan12_GLOBAL__N_1L10SPBOX_CATSE]
	imul	eax, eax, -535690750
	mov	ecx, edx
	not	ecx
	and	ecx, -1054807995
	mov	edi, edx
	and	edi, 1054807994
	or	edi, ecx
	mov	ecx, eax
	not	ecx
	or	ecx, 1112180464
	xor	edi, -1054807675
	and	edx, 448
	or	edx, edi
	mov	edi, dword ptr [rsp - 52]
	and	ecx, 1179289328
	and	eax, 2099202
	or	eax, ecx
	mov	ecx, edi
	not	ecx
	and	ecx, 1179289328
	and	edi, -1179289329
	or	edi, ecx
	xor	edi, eax
	mov	eax, edi
	not	eax
	and	eax, 2125059157
	and	edi, -2125059158
	or	edi, eax
	mov	eax, ebx
	not	eax
	and	eax, 2125059157
	and	ebx, -2125059158
	or	ebx, eax
	movzx	eax, byte ptr [rdx + _ZN5Botan12_GLOBAL__N_1L10SPBOX_CATSE]
	imul	eax, eax, 2171456
	xor	ebx, edi
	mov	ecx, ebx
	not	ecx
	and	ecx, eax
	not	eax
	or	eax, -268701761
	and	ebx, eax
	and	ecx, 268701760
	or	ebx, ecx
	shld	r11d, r15d, 28
	mov	eax, r11d
	not	eax
	and	eax, 688129591
	and	r11d, -688129592
	or	r11d, eax
	and	r9d, 688129591
	and	r12d, -688129592
	or	r12d, r9d
	xor	r12d, r11d
	and	r10d, r15d
	or	r10d, esi
	mov	eax, r12d
	shr	eax, 24
	mov	ecx, eax
	xor	ecx, 192
	and	ecx, eax
	movzx	eax, byte ptr [rcx + _ZN5Botan12_GLOBAL__N_1L10SPBOX_CATSE]
	imul	eax, eax, 1879314694
	mov	ecx, r10d
	shr	ecx, 24
	mov	edx, ecx
	xor	edx, 192
	and	edx, ecx
	mov	ecx, edx
	and	ecx, 64
	xor	edx, 64
	or	edx, ecx
	movzx	ecx, byte ptr [rdx + _ZN5Botan12_GLOBAL__N_1L10SPBOX_CATSE]
	imul	ecx, ecx, 33628192
	mov	edx, ecx
	xor	edx, 2146402240
	and	edx, ecx
	mov	ecx, edx
	not	ecx
	mov	esi, ecx
	and	esi, 1250026190
	and	edx, -1250026208
	or	edx, esi
	mov	esi, eax
	not	esi
	or	esi, -16843781
	or	ecx, esi
	and	esi, 1250026190
	and	eax, 16778240
	or	eax, esi
	xor	eax, edx
	not	ecx
	or	ecx, eax
	mov	eax, r12d
	shr	eax, 16
	mov	edx, eax
	xor	edx, 65472
	and	edx, eax
	mov	eax, edx
	and	eax, 128
	xor	edx, 128
	or	edx, eax
	movzx	eax, byte ptr [rdx + _ZN5Botan12_GLOBAL__N_1L10SPBOX_CATSE]
	imul	eax, eax, 9441352
	mov	edx, eax
	xor	edx, -134349328
	and	edx, eax
	mov	eax, ecx
	and	eax, edx
	xor	edx, ecx
	or	edx, eax
	mov	eax, r10d
	shr	eax, 16
	mov	ecx, eax
	not	ecx
	or	ecx, 1230283648
	and	ecx, 1230283710
	and	eax, 1
	or	eax, ecx
	xor	eax, 1230283646
	movzx	eax, byte ptr [rax + _ZN5Botan12_GLOBAL__N_1L10SPBOX_CATSE]
	imul	eax, eax, -1912208863
	mov	ecx, eax
	xor	ecx, -8396930
	and	ecx, eax
	mov	eax, edx
	not	eax
	mov	esi, eax
	and	esi, 1284898638
	and	edx, -1284898639
	or	edx, esi
	mov	esi, ecx
	not	esi
	or	eax, esi
	and	esi, 1284898638
	and	ecx, -1284898639
	or	ecx, esi
	xor	ecx, edx
	not	eax
	or	eax, ecx
	mov	ecx, r12d
	shr	ecx, 8
	or	ecx, 256
	and	ecx, 319
	movzx	ecx, byte ptr [rcx + _ZN5Botan12_GLOBAL__N_1L10SPBOX_CATSE]
	imul	ecx, ecx, 9511232
	and	ecx, 1107820800
	mov	edx, eax
	and	edx, ecx
	xor	ecx, eax
	or	ecx, edx
	mov	eax, r10d
	shr	eax, 8
	mov	edx, eax
	not	edx
	or	edx, 1697262400
	and	edx, 1697262428
	and	eax, 35
	or	eax, edx
	xor	eax, 1697262108
	movzx	eax, byte ptr [rax + _ZN5Botan12_GLOBAL__N_1L10SPBOX_CATSE]
	imul	esi, eax, -2138828776
	and	esi, 541081616
	mov	eax, ecx
	and	eax, esi
	xor	esi, ecx
	or	esi, eax
	mov	eax, r12d
	not	eax
	or	eax, 557890048
	and	eax, 557890049
	and	r12d, 62
	or	r12d, eax
	xor	r12d, 557890433
	movzx	eax, byte ptr [r12 + _ZN5Botan12_GLOBAL__N_1L10SPBOX_CATSE]
	imul	eax, eax, -535690750
	mov	ecx, eax
	xor	ecx, -69208068
	and	ecx, eax
	or	r10d, 448
	and	r10d, 511
	movzx	eax, byte ptr [r10 + _ZN5Botan12_GLOBAL__N_1L10SPBOX_CATSE]
	imul	edx, eax, 2171456
	mov	eax, edx
	xor	eax, 805040000
	and	eax, edx
	mov	edx, dword ptr [rsp - 56]
	mov	edi, ecx
	not	edi
	and	edi, edx
	not	edx
	and	edx, ecx
	or	edx, edi
	mov	ecx, edx
	not	ecx
	and	ecx, -1114440908
	and	edx, 1114440907
	or	edx, ecx
	mov	ecx, esi
	not	ecx
	and	ecx, -1114440908
	and	esi, 1114440907
	or	esi, ecx
	xor	esi, edx
	mov	ecx, esi
	not	ecx
	and	ecx, eax
	not	eax
	and	eax, esi
	or	eax, ecx
	mov	rcx, qword ptr [rsp - 40]
	add	rcx, -2
.LBB6_1:                                

	mov	edx, 304079138
	jmp	.LBB6_2
.LBB6_5:                                
	mov	qword ptr [rsp - 40], rcx
	mov	dword ptr [rsp - 56], eax
	mov	dword ptr [rsp - 48], r15d
	mov	dword ptr [rsp - 52], ebx
	mov	dword ptr [rsp - 44], r13d
	cmp	qword ptr [rsp - 40], 0
	mov	edx, 2096611725
	mov	esi, -1659608813
	cmove	edx, esi
	.p2align	4, 0x90
.LBB6_2:                                

	cmp	edx, -1659608813
	je	.LBB6_6

	cmp	edx, 2096611725
	je	.LBB6_7

	cmp	edx, 304079138
	jne	.LBB6_2
	jmp	.LBB6_5
.LBB6_6:
	mov	eax, dword ptr [rsp - 44]
	mov	rcx, qword ptr [rsp - 32] 
	mov	dword ptr [rcx], eax
	mov	eax, dword ptr [rsp - 52]
	mov	rcx, qword ptr [rsp - 24] 
	mov	dword ptr [rcx], eax
	mov	eax, dword ptr [rsp - 48]
	mov	rcx, qword ptr [rsp - 16] 
	mov	dword ptr [rcx], eax
	mov	eax, dword ptr [rsp - 56]
	mov	rcx, qword ptr [rsp - 8] 
	mov	dword ptr [rcx], eax
	pop	rbx
	pop	r12
	pop	r13
	pop	r14
	pop	r15
	pop	rbp
	ret
.Lfunc_end6:
	.size	_ZN5Botan12_GLOBAL__N_114des_decrypt_x2ERjS1_S1_S1_PKj, .Lfunc_end6-_ZN5Botan12_GLOBAL__N_114des_decrypt_x2ERjS1_S1_S1_PKj

	.p2align	4, 0x90         
	.type	_ZN5Botan12_GLOBAL__N_111des_decryptERjS1_PKj,@function
_ZN5Botan12_GLOBAL__N_111des_decryptERjS1_PKj: 

	push	rbp
	push	r15
	push	r14
	push	r13
	push	r12
	push	rbx
	mov	r14d, dword ptr [rdi]
	mov	r8d, dword ptr [rsi]
	mov	r15d, 16
	movabs	r10, -1874416983722744870
	mov	r11d, -896891254
	jmp	.LBB7_1
	.p2align	4, 0x90
.LBB7_6:                                
	mov	eax, dword ptr [rsp - 16]
	mov	ecx, eax
	shr	ecx, 4
	shl	eax, 28
	mov	ebx, ecx
	not	ebx
	mov	ebp, eax
	not	ebp
	and	ebx, -1316137605
	and	ecx, 242395780
	or	ecx, ebx
	and	ebp, -1316137605
	and	eax, 1073741824
	or	eax, ebp
	xor	eax, ecx
	mov	r15, qword ptr [rsp - 8]
	lea	rcx, [r15 + r15]
	neg	rcx
	lea	rbx, [8*r15]
	mov	ebp, 8
	sub	rbp, rbx
	neg	rbp
	mov	ebx, dword ptr [rdx + rbp]
	mov	ebp, eax
	not	ebp
	and	ebp, ebx
	not	ebx
	and	ebx, eax
	or	ebx, ebp
	lea	rax, [4*rcx + 4]
	neg	rax
	mov	r12d, dword ptr [rdx + rax]
	mov	eax, dword ptr [rsp - 16]
	mov	ebp, eax
	not	ebp
	and	ebp, r12d
	not	r12d
	and	r12d, eax
	or	r12d, ebp
	mov	r14d, ebx
	mov	r13d, ebx
	mov	ebp, ebx
	xor	ebp, -64
	and	ebp, ebx
	shr	ebx, 24
	mov	ecx, ebx
	xor	ecx, 192
	and	ecx, ebx
	movzx	ecx, byte ptr [rcx + _ZN5Botan12_GLOBAL__N_1L10SPBOX_CATSE]
	imul	ecx, ecx, 1879314694
	mov	ebx, r12d
	shr	ebx, 24
	mov	eax, ebx
	xor	eax, 192
	and	eax, ebx
	mov	ebx, eax
	not	ebx
	and	ebx, -746777437
	mov	r9d, eax
	and	r9d, 92
	or	r9d, ebx
	xor	r9d, -746777373
	and	eax, 64
	or	eax, r9d
	movzx	eax, byte ptr [rax + _ZN5Botan12_GLOBAL__N_1L10SPBOX_CATSE]
	imul	eax, eax, 33628192
	mov	ebx, eax
	xor	ebx, 2146402240
	and	ebx, eax
	mov	eax, ebx
	not	eax
	mov	r9d, eax
	and	r9d, 1054291489
	and	ebx, -1054291520
	or	ebx, r9d
	mov	r9d, ecx
	not	r9d
	or	r9d, -16843781
	or	eax, r9d
	and	r9d, 1054291489
	and	ecx, 16777220
	or	ecx, r9d
	xor	ecx, ebx
	not	eax
	or	eax, ecx
	shr	r14d, 16
	mov	ecx, r14d
	xor	ecx, 65472
	and	ecx, r14d
	mov	r9d, ecx
	not	r9d
	and	r9d, 1349218060
	mov	ebx, ecx
	and	ebx, 37107
	or	ebx, r9d
	xor	ebx, 1349218188
	and	ecx, 128
	or	ecx, ebx
	movzx	ecx, byte ptr [rcx + _ZN5Botan12_GLOBAL__N_1L10SPBOX_CATSE]
	imul	ebx, ecx, 9441352
	mov	ecx, ebx
	xor	ecx, -134349328
	and	ecx, ebx
	mov	ebx, eax
	not	ebx
	mov	r9d, ecx
	not	r9d
	mov	r14d, ebx
	and	r14d, -1692584886
	and	eax, 1692584869
	or	eax, r14d
	or	ebx, r9d
	and	r9d, -1692584886
	and	ecx, 1692584880
	or	ecx, r9d
	xor	ecx, eax
	not	ebx
	or	ebx, ecx
	mov	eax, r12d
	shr	eax, 16
	or	eax, 192
	movzx	eax, al
	movzx	eax, byte ptr [rax + _ZN5Botan12_GLOBAL__N_1L10SPBOX_CATSE]
	imul	eax, eax, -1912208863
	mov	ecx, eax
	xor	ecx, -8396930
	and	ecx, eax
	mov	eax, ebx
	and	eax, ecx
	xor	ecx, ebx
	or	ecx, eax
	shr	r13d, 8
	mov	eax, r13d
	not	eax
	or	eax, -425672704
	and	eax, -425672650
	and	r13d, 9
	or	r13d, eax
	xor	r13d, -425672394
	movzx	eax, byte ptr [r13 + _ZN5Botan12_GLOBAL__N_1L10SPBOX_CATSE]
	imul	ebx, eax, 9511232
	mov	eax, ebx
	xor	eax, -1107820864
	and	eax, ebx
	mov	ebx, ecx
	not	ebx
	mov	r9d, eax
	not	r9d
	mov	r14d, ebx
	and	r14d, 1873988027
	and	ecx, -1873988028
	or	ecx, r14d
	or	ebx, r9d
	and	r9d, 1873988027
	and	eax, -1873988032
	or	eax, r9d
	xor	eax, ecx
	not	ebx
	or	ebx, eax
	mov	eax, r12d
	shr	eax, 8
	or	eax, 320
	and	eax, 383
	movzx	eax, byte ptr [rax + _ZN5Botan12_GLOBAL__N_1L10SPBOX_CATSE]
	imul	ecx, eax, -2138828776
	mov	eax, ecx
	xor	eax, -541081624
	and	eax, ecx
	mov	ecx, ebx
	and	ecx, eax
	xor	eax, ebx
	or	eax, ecx
	mov	ecx, ebp
	not	ecx
	and	ecx, 1719092193
	mov	ebx, ebp
	and	ebx, -1719092194
	or	ebx, ecx
	xor	ebx, 1719091809
	and	ebp, 384
	or	ebp, ebx
	movzx	ecx, byte ptr [rbp + _ZN5Botan12_GLOBAL__N_1L10SPBOX_CATSE]
	imul	ecx, ecx, -535690750
	not	ecx
	or	ecx, -111581376
	mov	ebp, r12d
	not	ebp
	or	ebp, -933836416
	and	ebp, -933836373
	and	r12d, 20
	or	r12d, ebp
	xor	r12d, -933836693
	movzx	ebp, byte ptr [r12 + _ZN5Botan12_GLOBAL__N_1L10SPBOX_CATSE]
	imul	ebp, ebp, 2171456
	mov	r14d, ebp
	xor	r14d, 805040000
	and	r14d, ebp
	mov	ebp, dword ptr [rsp - 12]
	and	ecx, -42373310
	mov	ebx, ebp
	not	ebx
	and	ebx, -42373310
	and	ebp, 42373309
	or	ebp, ebx
	xor	ebp, ecx
	mov	ecx, ebp
	not	ecx
	and	ecx, -2035237735
	and	ebp, 2035237734
	or	ebp, ecx
	mov	ecx, eax
	not	ecx
	and	ecx, -2035237735
	and	eax, 2035237734
	or	eax, ecx
	xor	eax, ebp
	mov	ecx, eax
	not	ecx
	and	ecx, -1180169853
	mov	ebp, eax
	and	ebp, 1180169852
	or	ebp, ecx
	mov	ecx, r14d
	not	ecx
	and	ecx, -1180169853
	and	r14d, 106427968
	or	r14d, ecx
	xor	r14d, ebp
	mov	ecx, r14d
	shr	ecx, 4
	shl	eax, 28
	mov	ebp, ecx
	not	ebp
	mov	ebx, eax
	not	ebx
	and	ebp, -506749147
	and	ecx, 238313690
	or	ecx, ebp
	and	ebx, -506749147
	and	eax, 268435456
	or	eax, ebx
	xor	eax, ecx
	mov	ebx, dword ptr [rdx + 8*r15 - 16]
	mov	ecx, eax
	not	ecx
	and	ecx, 2123444122
	and	eax, -2123444123
	or	eax, ecx
	mov	ecx, ebx
	not	ecx
	and	ecx, 2123444122
	and	ebx, -2123444123
	or	ebx, ecx
	xor	ebx, eax
	lea	rax, [r10 + 2*r15 - 3]
	sub	rax, r10
	mov	r13d, dword ptr [rdx + 4*rax]
	mov	eax, r14d
	not	eax
	and	eax, r13d
	not	r13d
	and	r13d, r14d
	or	r13d, eax
	mov	eax, ebx
	shr	eax, 24
	mov	ecx, eax
	xor	ecx, 192
	and	ecx, eax
	movzx	eax, byte ptr [rcx + _ZN5Botan12_GLOBAL__N_1L10SPBOX_CATSE]
	imul	r9d, eax, 1879314694
	mov	r15d, r9d
	not	r15d
	or	r15d, 517266074
	mov	ecx, r13d
	mov	r12d, r13d
	mov	r8d, r13d
	xor	r8d, -64
	and	r8d, r13d
	shr	r13d, 24
	mov	eax, r13d
	xor	eax, 192
	and	eax, r13d
	mov	r13d, eax
	and	r13d, 64
	xor	eax, 64
	or	eax, r13d
	movzx	eax, byte ptr [rax + _ZN5Botan12_GLOBAL__N_1L10SPBOX_CATSE]
	imul	r13d, eax, 33628192
	mov	eax, r13d
	not	eax
	or	eax, 532961950
	and	eax, 534043294
	and	r13d, -2147483616
	or	r13d, eax
	and	r15d, 534043294
	and	r9d, 66560
	or	r9d, r15d
	xor	r9d, r13d
	mov	eax, ebx
	shr	eax, 16
	mov	r15d, eax
	not	r15d
	or	r15d, -87353664
	and	r15d, -87353637
	and	eax, 36
	or	eax, r15d
	xor	eax, -87353765
	movzx	eax, byte ptr [rax + _ZN5Botan12_GLOBAL__N_1L10SPBOX_CATSE]
	imul	r15d, eax, 9441352
	mov	eax, r9d
	not	eax
	mov	r13d, eax
	and	r13d, 1441396125
	and	r9d, -2146435040
	or	r9d, r13d
	mov	r13d, r15d
	not	r13d
	or	r13d, -134349321
	or	eax, r13d
	and	r13d, 1441396125
	and	r15d, 134349312
	or	r15d, r13d
	xor	r15d, r9d
	not	eax
	or	eax, r15d
	shr	ecx, 16
	mov	r9d, ecx
	not	r9d
	or	r9d, 1706449216
	and	r9d, 1706449249
	and	ecx, 30
	or	ecx, r9d
	xor	ecx, 1706449313
	movzx	ecx, byte ptr [rcx + _ZN5Botan12_GLOBAL__N_1L10SPBOX_CATSE]
	imul	r9d, ecx, -1912208863
	mov	ecx, r9d
	xor	ecx, -8396930
	and	ecx, r9d
	mov	r9d, eax
	not	r9d
	mov	r15d, r9d
	and	r15d, -2136469355
	and	eax, 1599598378
	or	eax, r15d
	mov	r15d, ecx
	not	r15d
	or	r9d, r15d
	and	r15d, -2136469355
	and	ecx, 2136469354
	or	ecx, r15d
	xor	ecx, eax
	not	r9d
	or	r9d, ecx
	mov	eax, ebx
	shr	eax, 8
	or	eax, 256
	and	eax, 319
	movzx	eax, byte ptr [rax + _ZN5Botan12_GLOBAL__N_1L10SPBOX_CATSE]
	imul	ecx, eax, 9511232
	mov	eax, ecx
	xor	eax, -1107820864
	and	eax, ecx
	mov	ecx, r9d
	and	ecx, eax
	xor	eax, r9d
	or	eax, ecx
	shr	r12d, 8
	mov	ecx, r12d
	xor	ecx, 16777152
	and	ecx, r12d
	mov	r9d, ecx
	and	r9d, 320
	xor	ecx, 320
	or	ecx, r9d
	movzx	ecx, byte ptr [rcx + _ZN5Botan12_GLOBAL__N_1L10SPBOX_CATSE]
	imul	r9d, ecx, -2138828776
	mov	ecx, r9d
	xor	ecx, -541081624
	and	ecx, r9d
	mov	r9d, eax
	and	r9d, ecx
	xor	ecx, eax
	or	ecx, r9d
	mov	eax, ebx
	not	eax
	or	eax, 285625280
	and	eax, 285625331
	and	ebx, 12
	or	ebx, eax
	xor	ebx, 285624947
	movzx	eax, byte ptr [rbx + _ZN5Botan12_GLOBAL__N_1L10SPBOX_CATSE]
	imul	eax, eax, -535690750
	mov	r9d, dword ptr [rsp - 16]
	mov	ebx, r9d
	not	ebx
	and	ebx, eax
	not	eax
	or	eax, -69208067
	mov	ebp, r8d
	and	ebp, 448
	xor	r8d, 448
	or	r8d, ebp
	movzx	ebp, byte ptr [r8 + _ZN5Botan12_GLOBAL__N_1L10SPBOX_CATSE]
	imul	ebp, ebp, 2171456
	mov	r8d, ebp
	xor	r8d, 805040000
	and	r8d, ebp
	and	eax, r9d
	and	ebx, 69208066
	or	ebx, eax
	mov	eax, ebx
	not	eax
	and	eax, ecx
	not	ecx
	and	ecx, ebx
	or	ecx, eax
	mov	eax, ecx
	not	eax
	and	eax, 1028056661
	and	ecx, -1028056662
	or	ecx, eax
	mov	eax, r8d
	not	eax
	and	eax, 1028056661
	and	r8d, 45685120
	or	r8d, eax
	xor	r8d, ecx
	mov	r15, qword ptr [rsp - 8]
	add	r15, -2
.LBB7_1:                                

	mov	ebx, 599793750
	jmp	.LBB7_2
.LBB7_10:                               
	mov	qword ptr [rsp - 8], r15
	mov	dword ptr [rsp - 16], r8d
	mov	dword ptr [rsp - 12], r14d
	cmp	qword ptr [rsp - 8], 0
	mov	ebx, -738239181
	mov	eax, 1981220772
	cmove	ebx, eax
	.p2align	4, 0x90
.LBB7_2:                                

	cmp	ebx, -387880366
	jg	.LBB7_7

	cmp	ebx, -1100590050
	je	.LBB7_14

	cmp	ebx, -896891254
	je	.LBB7_12

	cmp	ebx, -738239181
	jne	.LBB7_2
	jmp	.LBB7_6
	.p2align	4, 0x90
.LBB7_7:                                
	cmp	ebx, -387880365
	je	.LBB7_13

	cmp	ebx, 1981220772
	je	.LBB7_11

	cmp	ebx, 599793750
	jne	.LBB7_2
	jmp	.LBB7_10
.LBB7_14:                               
	mov	eax, dword ptr [rsp - 12]
	mov	dword ptr [rdi], eax
	mov	eax, dword ptr [rsp - 16]
	mov	dword ptr [rsi], eax
	mov	ebx, -896891254
	jmp	.LBB7_2
.LBB7_12:                               
	mov	ecx, dword ptr [rsp - 12]
	mov	dword ptr [rdi], ecx
	mov	ecx, dword ptr [rsp - 16]
	mov	dword ptr [rsi], ecx
	mov	ecx, dword ptr [rip + x.33]
	mov	r13d, dword ptr [rip + y.34]
	lea	ebx, [rcx - 1]
	imul	ebx, ecx
	mov	ecx, ebx
	xor	ecx, -2
	and	ecx, ebx
	sete	r12b
	cmp	r13d, 10
	setl	bl
	xor	bl, r12b
	mov	ebp, -1100590050
	mov	eax, -387880365
	cmovne	ebp, eax
	test	ecx, ecx
	mov	ebx, ebp
	cmove	ebx, eax
	cmp	r13d, 10
	cmovge	ebx, ebp
	jmp	.LBB7_2
.LBB7_11:                               
	mov	ebx, dword ptr [rip + x.33]
	mov	ebp, dword ptr [rip + y.34]
	lea	ecx, [rbx - 1]
	imul	ecx, ebx
	mov	ebx, ecx
	xor	ebx, -2
	and	ebx, ecx
	sete	r12b
	cmp	ebp, 10
	setl	cl
	xor	cl, r12b
	mov	ecx, -1100590050
	cmovne	ecx, r11d
	test	ebx, ebx
	mov	ebx, ecx
	cmove	ebx, r11d
	cmp	ebp, 10
	cmovge	ebx, ecx
	jmp	.LBB7_2
.LBB7_13:
	pop	rbx
	pop	r12
	pop	r13
	pop	r14
	pop	r15
	pop	rbp
	ret
.Lfunc_end7:
	.size	_ZN5Botan12_GLOBAL__N_111des_decryptERjS1_PKj, .Lfunc_end7-_ZN5Botan12_GLOBAL__N_111des_decryptERjS1_PKj

	.globl	_ZN5Botan3DES12key_scheduleEPKhm 
	.p2align	4, 0x90
	.type	_ZN5Botan3DES12key_scheduleEPKhm,@function
_ZN5Botan3DES12key_scheduleEPKhm:       
	.cfi_startproc

	push	r14
.Lcfi23:
	.cfi_def_cfa_offset 16
	push	rbx
.Lcfi24:
	.cfi_def_cfa_offset 24
	push	rax
.Lcfi25:
	.cfi_def_cfa_offset 32
.Lcfi26:
	.cfi_offset rbx, -24
.Lcfi27:
	.cfi_offset r14, -16
	mov	r14, rsi
	mov	rbx, rdi
	add	rbx, 8
	mov	esi, 32
	mov	rdi, rbx
	call	_ZNSt6vectorIjN5Botan16secure_allocatorIjEEE6resizeEm
	mov	rdi, rbx
	call	_ZNSt6vectorIjN5Botan16secure_allocatorIjEEE4dataEv
	mov	rdi, rax
	mov	rsi, r14
	add	rsp, 8
	pop	rbx
	pop	r14
	jmp	_ZN5Botan12_GLOBAL__N_116des_key_scheduleEPjPKh 
.Lfunc_end8:
	.size	_ZN5Botan3DES12key_scheduleEPKhm, .Lfunc_end8-_ZN5Botan3DES12key_scheduleEPKhm
	.cfi_endproc

	.section	.text._ZNSt6vectorIjN5Botan16secure_allocatorIjEEE6resizeEm,"axG",@progbits,_ZNSt6vectorIjN5Botan16secure_allocatorIjEEE6resizeEm,comdat
	.weak	_ZNSt6vectorIjN5Botan16secure_allocatorIjEEE6resizeEm 
	.p2align	4, 0x90
	.type	_ZNSt6vectorIjN5Botan16secure_allocatorIjEEE6resizeEm,@function
_ZNSt6vectorIjN5Botan16secure_allocatorIjEEE6resizeEm: 
.Lfunc_begin0:
	.cfi_startproc
	.cfi_personality 3, __gxx_personality_v0
	.cfi_lsda 3, .Lexception0

	push	rbp
.Lcfi28:
	.cfi_def_cfa_offset 16
	push	r15
.Lcfi29:
	.cfi_def_cfa_offset 24
	push	r14
.Lcfi30:
	.cfi_def_cfa_offset 32
	push	r13
.Lcfi31:
	.cfi_def_cfa_offset 40
	push	r12
.Lcfi32:
	.cfi_def_cfa_offset 48
	push	rbx
.Lcfi33:
	.cfi_def_cfa_offset 56
	sub	rsp, 40
.Lcfi34:
	.cfi_def_cfa_offset 96
.Lcfi35:
	.cfi_offset rbx, -56
.Lcfi36:
	.cfi_offset r12, -48
.Lcfi37:
	.cfi_offset r13, -40
.Lcfi38:
	.cfi_offset r14, -32
.Lcfi39:
	.cfi_offset r15, -24
.Lcfi40:
	.cfi_offset rbp, -16
	mov	eax, dword ptr [rip + x.423]
	mov	ecx, dword ptr [rip + y.424]
	mov	edx, eax
	neg	edx
	not	edx
	imul	edx, eax
	not	edx
	or	edx, -2
	cmp	edx, -1
	sete	al
	cmp	ecx, 10
	setl	bl
	xor	bl, al
	mov	eax, 28478468
	mov	ebp, -2046985968
	cmovne	ebp, eax
	cmp	edx, -1
	sete	byte ptr [rsp + 13]
	cmovne	eax, ebp
	cmp	ecx, 10
	setl	byte ptr [rsp + 14]
	mov	r14, rsi
	mov	r15, rdi
	cmovge	eax, ebp
	mov	edx, 1281921182
	mov	esi, 755678511
	jmp	.LBB9_1
.LBB9_12:                               
	movzx	ecx, byte ptr [rsp + 13]
	movzx	edx, byte ptr [rsp + 14]
	mov	ebx, ecx
	xor	bl, dl
	mov	edi, -2046985968
	cmovne	edi, esi
	test	dl, dl
	mov	edx, edi
	cmovne	edx, esi
	test	cl, cl
	cmove	edx, edi
	.p2align	4, 0x90
.LBB9_1:                                
	cmp	edx, 755678510
	jg	.LBB9_10

	cmp	edx, -2046985968
	je	.LBB9_14

	cmp	edx, 28478468
	jne	.LBB9_1
	jmp	.LBB9_4
	.p2align	4, 0x90
.LBB9_10:                               
	cmp	edx, 755678511
	je	.LBB9_13

	cmp	edx, 1281921182
	jne	.LBB9_1
	jmp	.LBB9_12
.LBB9_14:                               
	mov	edx, 755678511
	jmp	.LBB9_1
.LBB9_13:                               
	mov	rcx, qword ptr [r15 + 8]
	sub	rcx, qword ptr [r15]
	sar	rcx, 2
	mov	qword ptr [rsp + 16], rcx
	mov	edx, eax
	jmp	.LBB9_1
.LBB9_4:
	movabs	rcx, -6935761398545655524
	mov	rax, qword ptr [rsp + 16]
	cmp	rax, r14
	setb	byte ptr [rsp + 15]
	mov	eax, 1962583765
	lea	rcx, [r14 + rcx]
	mov	qword ptr [rsp + 32], rcx 
	mov	r13d, -2088442469
	mov	r12d, -330765898
	jmp	.LBB9_5
.LBB9_21:                               
	mov	eax, 1210541281
	.p2align	4, 0x90
.LBB9_5:                                



	cmp	eax, 1280560543
	jle	.LBB9_6

	cmp	eax, 1962583764
	jg	.LBB9_22

	cmp	eax, 1280560544
	je	.LBB9_36

	cmp	eax, 1617123508
	jne	.LBB9_5
	jmp	.LBB9_21
	.p2align	4, 0x90
.LBB9_6:                                
	cmp	eax, -31598055
	jg	.LBB9_15

	cmp	eax, -1007773124
	je	.LBB9_34

	cmp	eax, -907284043
	jne	.LBB9_5

	mov	rax, qword ptr [rsp + 24]
	mov	rsi, qword ptr [rsp + 32] 
	sub	rsi, rax
	movabs	rax, -6935761398545655524
	sub	rsi, rax
	mov	rdi, r15
	call	_ZNSt6vectorIjN5Botan16secure_allocatorIjEEE17_M_default_appendEm
	mov	eax, 1210541281
	jmp	.LBB9_5
	.p2align	4, 0x90
.LBB9_22:                               
	cmp	eax, 2138323418
	je	.LBB9_35

	cmp	eax, 1962583765
	jne	.LBB9_5

	mov	eax, dword ptr [rip + x.423]
	mov	ecx, dword ptr [rip + y.424]
	lea	edx, [rax - 1]
	imul	edx, eax
	mov	eax, edx
	xor	eax, -2
	and	eax, edx
	sete	byte ptr [rsp + 13]
	sete	dl
	test	eax, eax
	mov	eax, -2046985968
	mov	esi, 28478468
	cmove	eax, esi
	cmp	ecx, 10
	setl	cl
	setl	byte ptr [rsp + 14]
	mov	edi, -2046985968
	cmovge	eax, edi
	xor	cl, dl
	cmovne	eax, esi
	mov	ecx, 1281921182
	jmp	.LBB9_25
	.p2align	4, 0x90
.LBB9_15:                               
	cmp	eax, -31598054
	je	.LBB9_48

	cmp	eax, 1210541281
	jne	.LBB9_5
	jmp	.LBB9_17
.LBB9_36:                               
	mov	rbp, qword ptr [r15]
	mov	rsi, qword ptr [r15 + 8]
	mov	ecx, dword ptr [rip + x.131]
	mov	edx, dword ptr [rip + y.132]
	lea	edi, [rcx - 1]
	imul	edi, ecx
	not	edi
	or	edi, -2
	cmp	edi, -1
	sete	bl
	sete	byte ptr [rsp + 13]
	mov	ecx, -1751005725
	cmove	ecx, r13d
	cmp	edx, 10
	setl	dl
	setl	byte ptr [rsp + 14]
	mov	eax, -1751005725
	cmovge	ecx, eax
	xor	dl, bl
	cmovne	ecx, r13d
	mov	edx, -1360489722
	jmp	.LBB9_37
.LBB9_34:                               
	mov	rax, qword ptr [rsp + 24]
	cmp	rax, r14
	mov	eax, 1210541281
	mov	ecx, 2138323418
	cmova	eax, ecx
	jmp	.LBB9_5
.LBB9_35:                               
	mov	eax, dword ptr [rip + x.37]
	lea	ecx, [rax - 1]
	imul	ecx, eax
	mov	eax, ecx
	xor	eax, -2
	and	eax, ecx
	sete	cl
	test	eax, eax
	mov	eax, -31598054
	mov	edi, 1280560544
	cmove	eax, edi
	cmp	dword ptr [rip + y.38], 10
	setl	dl
	mov	esi, -31598054
	cmovge	eax, esi
	xor	dl, cl
	cmovne	eax, edi
	jmp	.LBB9_5
.LBB9_31:                               
	movzx	ebx, byte ptr [rsp + 13]
	movzx	ecx, byte ptr [rsp + 14]
	mov	edx, ebx
	xor	dl, cl
	test	cl, cl
	mov	ecx, -2046985968
	mov	edi, 755678511
	cmovne	ecx, edi
	test	bl, bl
	mov	esi, -2046985968
	cmove	ecx, esi
	test	dl, dl
	cmovne	ecx, edi
	.p2align	4, 0x90
.LBB9_25:                               

	cmp	ecx, 755678510
	jg	.LBB9_29

	cmp	ecx, -2046985968
	je	.LBB9_33

	cmp	ecx, 28478468
	jne	.LBB9_25
	jmp	.LBB9_28
	.p2align	4, 0x90
.LBB9_29:                               
	cmp	ecx, 755678511
	je	.LBB9_32

	cmp	ecx, 1281921182
	jne	.LBB9_25
	jmp	.LBB9_31
.LBB9_33:                               
	mov	ecx, 755678511
	jmp	.LBB9_25
.LBB9_32:                               
	mov	rcx, qword ptr [r15 + 8]
	sub	rcx, qword ptr [r15]
	sar	rcx, 2
	mov	qword ptr [rsp + 16], rcx
	mov	ecx, eax
	jmp	.LBB9_25
.LBB9_48:                               
	mov	rbp, qword ptr [r15]
	mov	rsi, qword ptr [r15 + 8]
	mov	ecx, dword ptr [rip + x.131]
	mov	edx, dword ptr [rip + y.132]
	lea	edi, [rcx - 1]
	imul	edi, ecx
	mov	ecx, edi
	xor	ecx, -2
	and	ecx, edi
	sete	byte ptr [rsp + 13]
	sete	bl
	test	ecx, ecx
	mov	ecx, -1751005725
	cmove	ecx, r13d
	cmp	edx, 10
	setl	dl
	setl	byte ptr [rsp + 14]
	mov	eax, -1751005725
	cmovge	ecx, eax
	xor	dl, bl
	cmovne	ecx, r13d
	mov	edx, -1360489722
	jmp	.LBB9_49
.LBB9_43:                               
	movzx	eax, byte ptr [rsp + 13]
	movzx	edx, byte ptr [rsp + 14]
	mov	ebx, eax
	xor	bl, dl
	mov	edi, -1751005725
	cmovne	edi, r12d
	test	dl, dl
	mov	edx, edi
	cmovne	edx, r12d
	test	al, al
	cmove	edx, edi
	.p2align	4, 0x90
.LBB9_37:                               

	mov	edi, edx
	and	edi, 2147483647
	cmp	edi, 786993925
	jg	.LBB9_41

	cmp	edi, 59041179
	je	.LBB9_46

	cmp	edi, 396477923
	jne	.LBB9_37

	mov	edx, -330765898
	jmp	.LBB9_37
	.p2align	4, 0x90
.LBB9_41:                               
	cmp	edi, 1816717750
	je	.LBB9_44

	cmp	edi, 786993926
	jne	.LBB9_37
	jmp	.LBB9_43
.LBB9_44:                               
	mov	qword ptr [rsp + 16], r15
	mov	edx, ecx
	jmp	.LBB9_37
.LBB9_28:                               
	mov	rax, qword ptr [rsp + 16]
	mov	qword ptr [rsp + 24], rax
	mov	al, byte ptr [rsp + 15]
	test	al, al
	mov	eax, -1007773124
	mov	ecx, -907284043
	cmovne	eax, ecx
	jmp	.LBB9_5
.LBB9_55:                               
	movzx	eax, byte ptr [rsp + 13]
	movzx	edx, byte ptr [rsp + 14]
	mov	ebx, eax
	xor	bl, dl
	mov	edi, -1751005725
	cmovne	edi, r12d
	test	dl, dl
	mov	edx, edi
	cmovne	edx, r12d
	test	al, al
	cmove	edx, edi
	.p2align	4, 0x90
.LBB9_49:                               

	mov	edi, edx
	and	edi, 2147483647
	cmp	edi, 786993925
	jg	.LBB9_53

	cmp	edi, 59041179
	je	.LBB9_58

	cmp	edi, 396477923
	jne	.LBB9_49

	mov	edx, -330765898
	jmp	.LBB9_49
	.p2align	4, 0x90
.LBB9_53:                               
	cmp	edi, 1816717750
	je	.LBB9_56

	cmp	edi, 786993926
	jne	.LBB9_49
	jmp	.LBB9_55
.LBB9_56:                               
	mov	qword ptr [rsp + 16], r15
	mov	edx, ecx
	jmp	.LBB9_49
.LBB9_46:                               
	lea	rbx, [rbp + 4*r14]
	mov	rdx, qword ptr [rsp + 16]
.Ltmp3:
	mov	rdi, rbx
	call	_ZSt8_DestroyIPjN5Botan16secure_allocatorIjEEEvT_S4_RT0_
.Ltmp4:

	mov	qword ptr [r15 + 8], rbx
	mov	eax, dword ptr [rip + x.37]
	mov	ecx, dword ptr [rip + y.38]
	mov	edx, eax
	neg	edx
	not	edx
	imul	edx, eax
	not	edx
	or	edx, -2
	cmp	edx, -1
	sete	al
	cmp	ecx, 10
	setl	bl
	xor	bl, al
	mov	esi, -31598054
	mov	edi, 1617123508
	cmovne	esi, edi
	cmp	edx, -1
	mov	eax, esi
	cmove	eax, edi
	cmp	ecx, 10
	cmovge	eax, esi
	jmp	.LBB9_5
.LBB9_58:                               
	lea	rbx, [rbp + 4*r14]
	mov	rdx, qword ptr [rsp + 16]
.Ltmp0:
	mov	rdi, rbx
	call	_ZSt8_DestroyIPjN5Botan16secure_allocatorIjEEEvT_S4_RT0_
.Ltmp1:

	mov	qword ptr [r15 + 8], rbx
	mov	eax, 1280560544
	jmp	.LBB9_5
.LBB9_17:
	add	rsp, 40
	pop	rbx
	pop	r12
	pop	r13
	pop	r14
	pop	r15
	pop	rbp
	ret
.LBB9_57:
.Ltmp2:
	mov	rdi, rax
	call	__clang_call_terminate
.LBB9_45:
.Ltmp5:
	mov	rdi, rax
	call	__clang_call_terminate
.Lfunc_end9:
	.size	_ZNSt6vectorIjN5Botan16secure_allocatorIjEEE6resizeEm, .Lfunc_end9-_ZNSt6vectorIjN5Botan16secure_allocatorIjEEE6resizeEm
	.cfi_endproc
	.section	.gcc_except_table,"a",@progbits
	.p2align	2
GCC_except_table9:
.Lexception0:
	.byte	255                     
	.byte	3                       
	.asciz	"\257\200"              
	.byte	3                       
	.byte	39                      
	.long	.Lfunc_begin0-.Lfunc_begin0 
	.long	.Ltmp3-.Lfunc_begin0    
	.long	0                       
	.byte	0                       
	.long	.Ltmp3-.Lfunc_begin0    
	.long	.Ltmp4-.Ltmp3           
	.long	.Ltmp5-.Lfunc_begin0    
	.byte	1                       
	.long	.Ltmp0-.Lfunc_begin0    
	.long	.Ltmp1-.Ltmp0           
	.long	.Ltmp2-.Lfunc_begin0    
	.byte	1                       
	.byte	1                       

	.byte	0                       

	.long	0                       
	.p2align	2

	.text
	.p2align	4, 0x90         
	.type	_ZN5Botan12_GLOBAL__N_116des_key_scheduleEPjPKh,@function
_ZN5Botan12_GLOBAL__N_116des_key_scheduleEPjPKh: 

	push	rbp
	push	r15
	push	r14
	push	r13
	push	r12
	push	rbx
	mov	r10, rsi
	mov	qword ptr [rsp - 8], rdi 
	movzx	ecx, byte ptr [r10 + 7]
	mov	eax, ecx
	mov	r8d, ecx
	shl	eax, 20
	and	eax, 134217728
	movzx	edx, byte ptr [r10 + 6]
	mov	ecx, edx
	mov	esi, edx
	shl	ecx, 19
	mov	r11d, ecx
	xor	r11d, 66584576
	and	r11d, ecx
	movzx	ebp, byte ptr [r10 + 5]
	movzx	edx, byte ptr [r10 + 3]
	mov	ecx, edx
	mov	qword ptr [rsp - 24], rdx 
	shl	ecx, 16
	mov	r14d, ecx
	xor	r14d, 8323072
	and	r14d, ecx
	mov	ecx, r8d
	shl	ecx, 13
	mov	edi, ecx
	xor	edi, 1564672
	and	edi, ecx
	or	edi, eax
	mov	eax, esi
	shl	eax, 12
	mov	r12d, eax
	xor	r12d, 782336
	and	r12d, eax
	mov	eax, ebp
	mov	dword ptr [rsp - 80], ebp 
	shl	eax, 11
	mov	r13d, eax
	xor	r13d, 391168
	and	r13d, eax
	mov	eax, edx
	shl	eax, 9
	mov	r15d, eax
	xor	r15d, 97792
	and	r15d, eax
	movzx	eax, byte ptr [r10 + 2]
	mov	qword ptr [rsp - 16], rax 

	shl	eax, 8
	mov	ecx, eax
	xor	ecx, 48896
	and	ecx, eax
	mov	dword ptr [rsp - 84], ecx 
	movzx	eax, byte ptr [r10]
	mov	qword ptr [rsp - 56], rax 

	shl	eax, 6
	mov	r9d, eax
	xor	r9d, 12224
	and	r9d, eax
	mov	ecx, r8d
	mov	dword ptr [rsp - 64], ecx 
	mov	eax, ecx
	shl	eax, 6
	mov	ebx, eax
	xor	ebx, 14272
	and	ebx, eax
	mov	eax, esi
	mov	r8d, esi
	mov	dword ptr [rsp - 76], r8d 
	shl	eax, 5
	mov	esi, eax
	xor	esi, 7136
	and	esi, eax
	mov	eax, ebp
	shl	eax, 4
	mov	ebp, eax
	xor	ebp, 3568
	and	ebp, eax
	mov	edx, ecx
	shr	edx
	mov	ecx, edx
	xor	ecx, 119
	and	ecx, edx
	mov	edx, r8d
	shr	edx, 2
	mov	r8d, edx
	xor	r8d, 59
	and	r8d, edx
	mov	edx, edi
	not	edx
	mov	eax, edx
	and	eax, 87878262
	and	edi, 134414336
	or	edi, eax
	mov	eax, ebx
	not	eax
	or	edx, eax
	and	eax, 87878262
	and	ebx, 5504
	or	ebx, eax
	xor	ebx, edi
	not	edx
	or	edx, ebx
	mov	eax, edx
	and	eax, ecx
	xor	edx, ecx
	or	edx, eax
	mov	eax, edx
	and	eax, r11d
	xor	edx, r11d
	or	edx, eax
	mov	eax, edx
	and	eax, r12d
	xor	edx, r12d
	or	edx, eax
	mov	edi, edx
	not	edi
	mov	eax, edi
	and	eax, -1681609456
	and	edx, 1681609455
	or	edx, eax
	mov	eax, esi
	not	eax
	or	edi, eax
	and	eax, -1681609456
	and	esi, 4832
	or	esi, eax
	xor	esi, edx
	not	edi
	or	edi, esi
	mov	eax, edi
	and	eax, r8d
	xor	edi, r8d
	or	edi, eax
	mov	esi, dword ptr [rsp - 80] 
	mov	eax, esi
	shl	eax, 18
	and	eax, 33554432
	mov	ecx, edi
	and	ecx, eax
	xor	edi, eax
	or	edi, ecx
	mov	eax, edi
	not	eax
	mov	ecx, eax
	and	ecx, -1323444186
	and	edi, 1323444185
	or	edi, ecx
	mov	ecx, r13d
	not	ecx
	or	eax, ecx
	and	ecx, -1323444186
	and	r13d, 139264
	or	r13d, ecx
	xor	r13d, edi
	not	eax
	or	eax, r13d
	mov	ecx, eax
	not	ecx
	mov	edx, ecx
	and	edx, -1481818165
	and	eax, 1481818164
	or	eax, edx
	mov	edx, ebp
	not	edx
	or	ecx, edx
	and	edx, -1481818165
	and	ebp, 48
	or	ebp, edx
	xor	ebp, eax
	not	ecx
	or	ecx, ebp
	mov	edx, esi
	mov	r11d, esi
	shr	edx, 3
	mov	eax, edx
	not	eax
	mov	esi, ecx
	not	esi
	or	eax, esi
	and	esi, -529565463
	and	ecx, 529565462
	or	ecx, esi
	and	edx, 2
	or	edx, -529565463
	xor	edx, ecx
	not	eax
	and	eax, 2
	or	eax, edx
	mov	ecx, eax
	not	ecx
	mov	edx, ecx
	and	edx, 1873306022
	and	eax, -1873306023
	or	eax, edx
	movzx	ebx, byte ptr [r10 + 4]
	mov	edx, ebx
	shl	edx, 17
	not	edx
	or	edx, -16777217
	or	ecx, edx
	and	edx, 1873306022
	xor	edx, eax
	not	ecx
	or	ecx, edx
	mov	edx, ebx
	shl	edx, 10
	mov	eax, edx
	not	eax
	mov	esi, ecx
	not	esi
	or	eax, esi
	and	esi, 953962597
	and	ecx, -953962598
	or	ecx, esi
	and	edx, 65536
	or	edx, 953962597
	xor	edx, ecx
	not	eax
	and	eax, 65536
	or	eax, edx
	mov	ecx, ebx
	and	ecx, 32
	shl	ecx, 3
	mov	edx, eax
	and	edx, ecx
	xor	eax, ecx
	or	eax, edx
	mov	ecx, ebx
	shr	ecx, 4
	and	ecx, 1
	mov	edx, eax
	and	edx, ecx
	xor	eax, ecx
	or	eax, edx
	mov	ecx, eax
	and	ecx, r14d
	xor	eax, r14d
	or	eax, ecx
	mov	ecx, eax
	not	ecx
	mov	edx, ecx
	and	edx, 35399457
	and	eax, -35399458
	or	eax, edx
	mov	edx, r15d
	not	edx
	or	ecx, edx
	and	edx, 35399457
	and	r15d, 120832
	or	r15d, edx
	xor	r15d, eax
	not	ecx
	or	ecx, r15d
	mov	r8, qword ptr [rsp - 24] 
	lea	edx, [4*r8]
	mov	eax, edx
	not	eax
	mov	esi, ecx
	not	esi
	or	eax, esi
	and	esi, 1891090976
	and	ecx, -1891090977
	or	ecx, esi
	and	edx, 128
	or	edx, 1891090976
	xor	edx, ecx
	not	eax
	and	eax, 128
	or	eax, edx
	mov	r14, qword ptr [rsp - 16] 
	mov	ecx, r14d
	shl	ecx, 15
	and	ecx, 4194304
	mov	edx, eax
	and	edx, ecx
	xor	eax, ecx
	or	eax, edx
	mov	ecx, eax
	mov	edx, dword ptr [rsp - 84] 
	and	ecx, edx
	xor	eax, edx
	lea	edx, [r14 + r14]
	or	eax, ecx
	mov	ecx, edx
	not	ecx
	mov	esi, eax
	not	esi
	or	ecx, esi
	and	esi, 885767480
	and	eax, -885767481
	or	eax, esi
	movzx	r10d, byte ptr [r10 + 1]
	and	edx, 64
	not	ecx
	or	edx, 885767480
	xor	edx, eax
	and	ecx, 64
	or	ecx, edx
	mov	eax, ecx
	not	eax
	mov	edx, eax
	and	edx, -925943810
	and	ecx, 925943809
	or	ecx, edx
	mov	edx, r10d
	not	edx
	or	edx, -33
	or	eax, edx
	and	edx, -925943810
	xor	edx, ecx
	mov	ecx, r10d
	shl	ecx, 14
	and	ecx, 2097152
	not	eax
	or	eax, edx
	mov	edx, eax
	and	edx, ecx
	xor	eax, ecx
	mov	ecx, r10d
	and	ecx, 64
	shl	ecx, 7
	or	eax, edx
	mov	edx, eax
	and	edx, ecx
	xor	eax, ecx
	mov	rsi, qword ptr [rsp - 56] 
	mov	ecx, esi
	shl	ecx, 13
	and	ecx, 1048576
	or	eax, edx
	mov	edx, eax
	and	edx, ecx
	xor	eax, ecx
	or	eax, edx
	mov	ecx, eax
	not	ecx
	mov	edx, ecx
	and	edx, -673431363
	and	eax, 673431362
	or	eax, edx
	mov	edx, r9d
	not	edx
	or	ecx, edx
	and	edx, -673431363
	and	r9d, 16192
	or	r9d, edx
	mov	edx, esi
	shr	edx
	not	edx
	or	edx, -17
	xor	r9d, eax
	not	ecx
	or	ecx, r9d
	mov	esi, ecx
	not	esi
	mov	eax, esi
	and	eax, 656852241
	and	ecx, -656852242
	or	ecx, eax
	or	esi, edx
	and	edx, 656852241
	xor	edx, ecx
	not	esi
	or	esi, edx
	mov	dword ptr [rsp - 84], esi 
	mov	edi, dword ptr [rsp - 64] 
	mov	ecx, edi
	shl	ecx, 26
	mov	eax, ecx
	xor	eax, -201326592
	and	eax, ecx
	mov	ebp, dword ptr [rsp - 76] 
	mov	ecx, ebp
	shl	ecx, 25
	mov	esi, ecx
	xor	esi, -100663296
	and	esi, ecx
	mov	ecx, r8d
	shl	ecx, 22
	mov	r8d, ecx
	xor	r8d, 1061158912
	and	r8d, ecx
	mov	ecx, r14d
	shl	ecx, 21
	mov	edx, ecx
	xor	edx, 530579456
	and	edx, ecx
	mov	dword ptr [rsp - 32], edx 
	mov	ecx, r10d
	shl	ecx, 20
	mov	edx, ecx
	xor	edx, 265289728
	and	edx, ecx
	mov	dword ptr [rsp - 28], edx 
	mov	edx, edi
	shl	edx, 17
	mov	ecx, edx
	xor	ecx, 32899072
	and	ecx, edx
	mov	edi, ebp
	shl	edi, 16
	mov	edx, edi
	xor	edx, 16449536
	and	edx, edi
	mov	r9d, r11d
	mov	edi, r9d
	shl	edi, 15
	mov	r11d, edi
	xor	r11d, 8224768
	and	r11d, edi
	mov	ebp, ebx
	shl	ebp, 14
	mov	edi, ebp
	xor	edi, 4112384
	and	edi, ebp
	mov	r15d, r14d
	shl	r15d, 12
	mov	ebp, r15d
	xor	ebp, 1028096
	and	ebp, r15d
	mov	dword ptr [rsp - 36], ebp 
	mov	ebp, r9d
	mov	r15d, ebp
	shl	ebp, 6
	mov	r12d, ebp
	xor	r12d, 15808
	and	r12d, ebp
	mov	r13d, ebx
	shl	ebx, 5
	mov	ebp, ebx
	xor	ebp, 7904
	and	ebp, ebx
	lea	r9d, [8*r14]
	mov	ebx, r9d
	xor	ebx, 1976
	and	ebx, r9d
	mov	dword ptr [rsp - 40], ebx 
	lea	r14d, [4*r10]
	mov	r9d, r14d
	xor	r9d, 988
	and	r9d, r14d
	mov	r14d, r9d
	mov	ebx, r10d
	mov	dword ptr [rsp - 80], ebx 
	shr	r10d, 3
	mov	r9d, r10d
	xor	r9d, 29
	and	r9d, r10d
	mov	r10d, ecx
	not	r10d
	and	r10d, -669654564
	and	ecx, 32112640
	or	ecx, r10d
	mov	r10d, eax
	not	r10d
	and	r10d, -669654564
	and	eax, 603979776
	or	eax, r10d
	xor	eax, ecx
	mov	ecx, eax
	not	ecx
	and	ecx, 1946958523
	and	eax, -1980628992
	or	eax, ecx
	mov	ecx, dword ptr [rsp - 64] 
	shl	ecx, 8
	not	ecx
	or	ecx, 1946956475
	and	ecx, 1946958523
	xor	ecx, eax
	mov	r10d, ecx
	not	r10d
	mov	eax, r10d
	and	eax, -1506168581
	and	ecx, 1506150912
	or	ecx, eax
	mov	eax, esi
	not	eax
	or	r10d, eax
	and	eax, -1506168581
	and	esi, 1476395008
	or	esi, eax
	xor	esi, ecx
	not	r10d
	or	r10d, esi
	mov	eax, r10d
	not	eax
	mov	esi, eax
	and	esi, -1697922622
	and	r10d, 1697922621
	or	r10d, esi
	mov	esi, edx
	not	esi
	or	eax, esi
	and	esi, -1697922622
	and	edx, 3407872
	or	edx, esi
	xor	edx, r10d
	not	eax
	or	eax, edx
	mov	edx, dword ptr [rsp - 76] 
	and	edx, 8
	shl	edx, 7
	mov	ecx, eax
	and	ecx, edx
	xor	eax, edx
	or	eax, ecx
	and	r15d, 2
	shl	r15d, 24
	mov	ecx, eax
	and	ecx, r15d
	xor	eax, r15d
	or	eax, ecx
	mov	ecx, eax
	and	ecx, r11d
	xor	eax, r11d
	or	eax, ecx
	mov	ecx, eax
	and	ecx, r12d
	xor	eax, r12d
	or	eax, ecx
	and	r13d, 2
	shl	r13d, 23
	mov	ecx, eax
	and	ecx, r13d
	xor	eax, r13d
	or	eax, ecx
	mov	ecx, eax
	not	ecx
	mov	edx, ecx
	and	edx, -93949059
	and	eax, 93949058
	or	eax, edx
	mov	edx, edi
	not	edx
	or	ecx, edx
	and	edx, -93949059
	and	edi, 1671168
	or	edi, edx
	xor	edi, eax
	not	ecx
	or	ecx, edi
	mov	eax, ecx
	not	eax
	mov	edx, eax
	and	edx, -41350760
	and	ecx, 41350759
	or	ecx, edx
	mov	edx, ebp
	not	edx
	or	eax, edx
	and	edx, -41350760
	and	ebp, 5728
	or	ebp, edx
	xor	ebp, ecx
	not	eax
	or	eax, ebp
	mov	ecx, eax
	not	ecx
	mov	edx, ecx
	and	edx, -171393989
	and	eax, 171393988
	or	eax, edx
	mov	edx, r8d
	not	edx
	or	ecx, edx
	and	edx, -171393989
	and	r8d, 167772160
	or	r8d, edx
	xor	r8d, eax
	not	ecx
	or	ecx, r8d
	mov	rdi, qword ptr [rsp - 24] 
	mov	edx, edi
	shl	edx, 13
	mov	eax, edx
	not	eax
	mov	esi, ecx
	not	esi
	or	eax, esi
	and	esi, -454271212
	and	ecx, 454271211
	or	ecx, esi
	and	edx, 32768
	or	edx, -454271212
	xor	edx, ecx
	not	eax
	and	eax, 32768
	or	eax, edx
	mov	rsi, rdi
	mov	ecx, esi
	and	ecx, 8
	shl	ecx, 4
	mov	edx, eax
	and	edx, ecx
	xor	eax, ecx
	or	eax, edx
	shr	esi
	mov	ecx, esi
	not	ecx
	mov	edx, eax
	not	edx
	or	ecx, edx
	and	edx, 143410900
	and	eax, -143410901
	or	eax, edx
	and	esi, 8
	or	esi, 143410900
	xor	esi, eax
	not	ecx
	and	ecx, 8
	or	ecx, esi
	mov	eax, ecx
	not	eax
	mov	edx, eax
	and	edx, 783015033
	and	ecx, -783015034
	or	ecx, edx
	mov	esi, dword ptr [rsp - 32] 
	mov	edx, esi
	not	edx
	or	eax, edx
	and	edx, 783015033
	and	esi, 289406976
	or	esi, edx
	xor	esi, ecx
	not	eax
	or	eax, esi
	mov	ecx, eax
	mov	edx, dword ptr [rsp - 36] 
	and	ecx, edx
	xor	eax, edx
	or	eax, ecx
	mov	ecx, eax
	mov	edx, dword ptr [rsp - 40] 
	and	ecx, edx
	xor	eax, edx
	mov	rdx, qword ptr [rsp - 16] 
	shr	edx, 2
	and	edx, 4
	or	eax, ecx
	mov	ecx, eax
	and	ecx, edx
	xor	eax, edx
	or	eax, ecx
	mov	ecx, eax
	mov	edx, dword ptr [rsp - 28] 
	and	ecx, edx
	xor	eax, edx
	mov	edx, dword ptr [rsp - 80] 
	and	edx, 4
	shl	edx, 11
	or	eax, ecx
	mov	ecx, eax
	and	ecx, edx
	xor	eax, edx
	or	eax, ecx
	mov	ecx, eax
	and	ecx, r14d
	xor	eax, r14d
	or	eax, ecx
	mov	ecx, eax
	not	ecx
	mov	edx, ecx
	and	edx, -1330046148
	and	eax, 1330046147
	or	eax, edx
	mov	edx, r9d
	not	edx
	or	ecx, edx
	and	edx, -1330046148
	and	r9d, 3
	or	r9d, edx
	xor	r9d, eax
	not	ecx
	or	ecx, r9d
	mov	eax, ecx
	not	eax
	mov	edx, eax
	and	edx, -344778850
	and	ecx, 344778849
	or	ecx, edx
	mov	rsi, qword ptr [rsp - 56] 
	mov	edx, esi
	shl	edx, 19
	not	edx
	or	edx, -1048577
	or	eax, edx
	and	edx, -344778850
	xor	edx, ecx
	mov	ecx, esi
	and	ecx, 4
	shl	ecx, 10
	not	eax
	or	eax, edx
	mov	edx, eax
	and	edx, ecx
	xor	eax, ecx
	or	eax, edx
	mov	edi, eax
	not	edi
	mov	ecx, edi
	and	ecx, -470883596
	and	eax, 470883595
	or	eax, ecx
	mov	rdx, rsi
	lea	ecx, [rdx + rdx]
	not	ecx
	or	ecx, -17
	or	edi, ecx
	and	ecx, -470883596
	xor	ecx, eax
	shr	edx, 4
	and	edx, 1
	not	edi
	or	edi, ecx
	mov	eax, edi
	and	eax, edx
	xor	edi, edx
	or	edi, eax
	xor	eax, eax
	jmp	.LBB10_1
	.p2align	4, 0x90
.LBB10_7:                               
	mov	rax, qword ptr [rsp - 48]
	movzx	eax, byte ptr [rax + _ZZN5Botan12_GLOBAL__N_116des_key_scheduleEPjPKhE3ROT]
	mov	edi, dword ptr [rsp - 68]
	mov	ecx, eax
	shl	edi, cl
	mov	edx, 28
	sub	edx, eax
	mov	ebp, dword ptr [rsp - 68]
	mov	ecx, edx
	shr	ebp, cl
	mov	r15d, ebp
	not	r15d
	mov	ecx, edi
	not	ecx
	mov	ebx, r15d
	and	ebx, 952033759
	and	ebp, -952033760
	or	ebp, ebx
	or	r15d, ecx
	and	ecx, 952033759
	and	edi, -952033760
	or	edi, ecx
	xor	edi, ebp
	not	r15d
	or	r15d, edi
	mov	ecx, r15d
	mov	dword ptr [rsp - 84], ecx 
	mov	edi, dword ptr [rsp - 72]
	mov	ecx, eax
	shl	edi, cl
	mov	r14d, dword ptr [rsp - 72]
	mov	ecx, edx
	shr	r14d, cl
	mov	eax, r14d
	and	eax, edi
	xor	r14d, edi
	or	r14d, eax
	mov	eax, r14d
	xor	eax, -268435456
	and	eax, r14d
	mov	dword ptr [rsp - 56], eax 
	mov	ecx, r15d
	shl	ecx, 22
	mov	eax, ecx
	not	eax
	mov	edx, r15d
	shl	edx, 17
	mov	edi, edx
	xor	edi, -268566528
	and	edi, edx
	mov	edx, edi
	not	edx
	or	eax, edx
	not	eax
	and	ecx, 67108864
	and	edx, 1534890715
	and	edi, -1534984192
	or	edi, edx
	or	ecx, 1534890715
	xor	ecx, edi
	and	eax, 67108864
	or	eax, ecx
	mov	ecx, r15d
	shl	ecx, 16
	mov	edx, ecx
	xor	edx, -2162688
	and	edx, ecx
	mov	ecx, eax
	not	ecx
	mov	edi, edx
	not	edi
	mov	ebp, ecx
	and	ebp, 1159350957
	and	eax, -1159425966
	or	eax, ebp
	or	ecx, edi
	and	edi, 1159350957
	and	edx, -1159397376
	or	edx, edi
	xor	edx, eax
	not	ecx
	or	ecx, edx
	mov	eax, r15d
	shl	eax, 15
	mov	edx, eax
	xor	edx, -537034752
	and	edx, eax
	mov	eax, ecx
	not	eax
	mov	edi, edx
	not	edi
	mov	ebp, eax
	and	ebp, -1567607960
	and	ecx, 1567607959
	or	ecx, ebp
	or	eax, edi
	and	edi, -1567607960
	and	edx, 1567588352
	or	edx, edi
	xor	edx, ecx
	not	eax
	or	eax, edx
	mov	ecx, r15d
	shl	ecx, 11
	not	ecx
	or	ecx, -1048577
	mov	edx, eax
	not	edx
	mov	edi, edx
	and	edi, -979481847
	and	eax, 979481846
	or	eax, edi
	or	edx, ecx
	and	ecx, -979481847
	xor	ecx, eax
	not	edx
	or	edx, ecx
	mov	edi, r15d
	shl	edi, 10
	mov	r13d, edi
	xor	r13d, -263168
	and	r13d, edi
	and	edi, 134217728
	mov	eax, edx
	and	eax, edi
	xor	edi, edx
	or	edi, eax
	mov	eax, r15d
	shr	eax, 6
	mov	ecx, eax
	xor	ecx, 66846719
	and	ecx, eax
	mov	eax, edi
	not	eax
	mov	edx, ecx
	not	edx
	mov	ebp, eax
	and	ebp, 274344823
	and	edi, -274344824
	or	edi, ebp
	or	eax, edx
	and	edx, 274344823
	and	ecx, 61199496
	or	ecx, edx
	xor	ecx, edi
	not	eax
	or	eax, ecx
	mov	ecx, r15d
	shr	ecx, 4
	mov	edx, ecx
	xor	edx, 268369919
	and	edx, ecx
	mov	ecx, eax
	and	ecx, edx
	xor	edx, eax
	or	edx, ecx
	lea	eax, [8*r15]
	mov	ecx, eax
	not	ecx
	and	eax, 524288
	mov	edi, edx
	not	edi
	or	ecx, edi
	not	ecx
	and	edi, 1743223372
	and	edx, -1743223373
	or	edx, edi
	or	eax, 1743223372
	xor	eax, edx
	and	ecx, 524288
	or	ecx, eax
	mov	eax, r15d
	shr	eax, 2
	mov	edx, eax
	xor	edx, 1040187391
	and	edx, eax
	mov	eax, ecx
	and	eax, edx
	xor	edx, ecx
	or	edx, eax
	lea	eax, [r15 + r15]
	mov	edi, eax
	not	edi
	and	eax, 16777216
	mov	ecx, edx
	not	ecx
	or	edi, ecx
	not	edi
	and	ecx, -755075999
	and	edx, 755075998
	or	edx, ecx
	or	eax, -755075999
	xor	eax, edx
	and	edi, 16777216
	or	edi, eax
	mov	esi, r14d
	shl	esi, 8
	mov	edx, esi
	not	edx
	and	esi, 4096
	mov	eax, r14d
	shl	eax, 7
	mov	r9d, eax
	xor	r9d, -384
	and	r9d, eax
	lea	ecx, [4*r14]
	mov	ebp, ecx
	xor	ebp, -8
	and	ebp, ecx
	mov	ecx, r14d
	xor	ecx, -513
	and	ecx, r14d
	mov	ebx, r14d
	shr	ebx, 21
	mov	r8d, ebx
	xor	r8d, 2045
	and	r8d, ebx
	mov	ebx, edi
	and	ebx, ecx
	xor	ecx, edi
	mov	edi, r14d
	shr	edi, 2
	not	edi
	or	edi, -8193
	or	ecx, ebx
	mov	ebx, ecx
	not	ebx
	or	edx, ebx
	and	ebx, -1089871426
	and	ecx, 1089871425
	or	ecx, ebx
	mov	r12d, r14d
	shr	r12d, 3
	or	esi, -1089871426
	xor	esi, ecx
	mov	ecx, r12d
	xor	ecx, 536870894
	and	ecx, r12d
	not	edx
	and	edx, 4096
	or	edx, esi
	mov	eax, edx
	and	eax, r9d
	xor	edx, r9d
	or	edx, eax
	mov	esi, edx
	not	esi
	mov	eax, esi
	and	eax, 891936715
	and	edx, -891936716
	or	edx, eax
	mov	eax, ebp
	not	eax
	or	esi, eax
	and	eax, 891936715
	and	ebp, -891936716
	or	ebp, eax
	mov	eax, r14d
	shr	eax, 7
	not	eax
	or	eax, -33
	xor	ebp, edx
	not	esi
	or	esi, ebp
	mov	edx, esi
	not	edx
	mov	ebp, edx
	and	ebp, -273833387
	and	esi, 273833386
	or	esi, ebp
	mov	ebp, r14d
	shr	ebp, 9
	and	ebp, 1024
	or	edx, edi
	and	edi, -273833387
	xor	edi, esi
	not	edx
	or	edx, edi
	mov	esi, edx
	not	esi
	mov	edi, esi
	and	edi, 303324463
	and	edx, -303324464
	or	edx, edi
	mov	edi, ecx
	not	edi
	or	esi, edi
	and	edi, 303324463
	and	ecx, 233546448
	or	ecx, edi
	mov	r11d, r14d
	shr	r11d, 14
	xor	ecx, edx
	not	esi
	or	esi, ecx
	mov	ecx, esi
	not	ecx
	mov	edx, ecx
	and	edx, -311236996
	and	esi, 311236995
	or	esi, edx
	mov	edx, r11d
	not	edx
	or	edx, -2057
	or	ecx, eax
	and	eax, -311236996
	xor	eax, esi
	not	ecx
	or	ecx, eax
	mov	eax, ecx
	and	eax, ebp
	xor	ecx, ebp
	or	ecx, eax
	mov	eax, ecx
	not	eax
	mov	esi, eax
	and	esi, -282160327
	and	ecx, 282160326
	or	ecx, esi
	or	eax, edx
	and	edx, -282160327
	mov	esi, r11d
	and	esi, 2048
	or	esi, edx
	xor	esi, ecx
	not	eax
	or	eax, esi
	mov	ecx, eax
	and	ecx, r8d
	xor	eax, r8d
	or	eax, ecx
	mov	rcx, qword ptr [rsp - 48]
	mov	qword ptr [rsp - 64], rcx 
	mov	rdx, qword ptr [rsp - 8] 
	mov	dword ptr [rdx + 8*rcx], eax
	mov	eax, r15d
	shl	eax, 28
	mov	ecx, r15d
	shl	ecx, 18
	and	ecx, 34078720
	or	ecx, eax
	and	ecx, 302514176
	mov	eax, r15d
	shl	eax, 14
	and	eax, 134217728
	or	eax, ecx
	mov	ecx, eax
	and	ecx, r13d
	xor	r13d, eax
	or	r13d, ecx
	mov	eax, r15d
	shl	eax, 9
	mov	ecx, eax
	not	ecx
	and	eax, 2097152
	mov	edx, r13d
	not	edx
	or	ecx, edx
	not	ecx
	and	edx, -234485958
	and	r13d, 234485760
	or	r13d, edx
	or	eax, -234485958
	xor	eax, r13d
	and	ecx, 2097152
	or	ecx, eax
	mov	eax, r15d
	shl	eax, 6
	mov	edx, eax
	xor	edx, -16777280
	and	edx, eax
	mov	eax, ecx
	and	eax, edx
	xor	edx, ecx
	or	edx, eax
	mov	eax, r15d
	shl	eax, 4
	mov	ecx, eax
	xor	ecx, -603979792
	and	ecx, eax
	mov	eax, edx
	not	eax
	mov	esi, ecx
	not	esi
	mov	edi, eax
	and	edi, -1659148540
	and	edx, 1659148539
	or	edx, edi
	or	eax, esi
	and	esi, -1659148540
	and	ecx, 1659148528
	or	ecx, esi
	xor	ecx, edx
	not	eax
	or	eax, ecx
	lea	ecx, [4*r15]
	mov	edx, ecx
	xor	edx, -131076
	and	edx, ecx
	mov	ecx, eax
	and	ecx, edx
	xor	edx, eax
	or	edx, ecx
	mov	eax, r15d
	shr	eax
	mov	ecx, eax
	xor	ecx, 2146435071
	and	ecx, eax
	mov	eax, edx
	not	eax
	mov	esi, ecx
	not	esi
	mov	edi, eax
	and	edi, -1049370203
	and	edx, 1049370202
	or	edx, edi
	or	eax, esi
	and	esi, -1049370203
	and	ecx, 1049370202
	or	ecx, esi
	xor	ecx, edx
	not	eax
	or	eax, ecx
	shr	r15d, 10
	not	r15d
	or	r15d, -65537
	mov	ecx, eax
	not	ecx
	mov	edx, ecx
	and	edx, -742916830
	and	eax, 742916829
	or	eax, edx
	or	ecx, r15d
	and	r15d, -742916830
	xor	r15d, eax
	not	ecx
	or	ecx, r15d
	mov	esi, r14d
	mov	eax, r14d
	shr	eax
	mov	edi, eax
	xor	edi, 2147482623
	and	edi, eax
	mov	ebp, r12d
	xor	ebp, 536870903
	and	ebp, r12d
	mov	edx, r14d
	shr	edx, 4
	mov	eax, edx
	xor	eax, 268431359
	and	eax, edx
	mov	edx, r14d
	shr	edx, 5
	mov	r13d, edx
	xor	r13d, 134217695
	and	r13d, edx
	mov	edx, r14d
	shr	edx, 10
	mov	r15d, edx
	xor	r15d, 4194287
	and	r15d, edx
	mov	r10d, r14d
	xor	r10d, -257
	and	r10d, r14d
	mov	edx, r14d
	mov	ebx, r14d
	mov	r12d, r14d
	shr	r14d, 26
	mov	r9d, r14d
	xor	r9d, 61
	and	r9d, r14d
	mov	r8d, ecx
	not	r8d
	mov	r14d, r8d
	and	r14d, -1499376031
	and	ecx, 1499376030
	or	ecx, r14d
	mov	r14d, r10d
	not	r14d
	or	r8d, r14d
	and	r14d, -1499376031
	and	r10d, 1499376030
	or	r10d, r14d
	xor	r10d, ecx
	not	r8d
	or	r8d, r10d
	shl	esi, 6
	mov	r14d, esi
	not	r14d
	mov	ecx, r8d
	not	ecx
	or	r14d, ecx
	and	ecx, 1426823018
	and	r8d, -1426823019
	or	r8d, ecx
	and	esi, 2048
	or	esi, 1426823018
	xor	esi, r8d
	not	r14d
	and	r14d, 2048
	or	r14d, esi
	mov	ecx, r14d
	and	ecx, edi
	xor	r14d, edi
	mov	edi, dword ptr [rsp - 56] 
	or	r14d, ecx
	mov	ecx, r14d
	and	ecx, ebp
	xor	r14d, ebp
	or	r14d, ecx
	mov	ecx, r14d
	and	ecx, eax
	xor	r14d, eax
	or	r14d, ecx
	mov	eax, r14d
	and	eax, r13d
	xor	r14d, r13d
	or	r14d, eax
	mov	eax, r14d
	and	eax, r15d
	xor	r14d, r15d
	or	r14d, eax
	mov	eax, r14d
	not	eax
	mov	ecx, eax
	and	ecx, 1745413385
	and	r14d, -1745413386
	or	r14d, ecx
	shr	edx, 13
	not	edx
	or	edx, -8193
	or	eax, edx
	and	edx, 1745413385
	xor	edx, r14d
	and	r11d, 512
	shr	ebx, 18
	not	eax
	or	eax, edx
	mov	edx, eax
	and	edx, r11d
	xor	eax, r11d
	mov	ecx, ebx
	not	ecx
	or	eax, edx
	mov	edx, eax
	not	edx
	or	ecx, edx
	and	edx, -1933473670
	and	eax, 1933473669
	or	eax, edx
	and	ebx, 4
	shr	r12d, 24
	or	ebx, -1933473670
	xor	ebx, eax
	mov	eax, r12d
	not	eax
	not	ecx
	and	ecx, 4
	or	ecx, ebx
	mov	edx, ecx
	not	edx
	or	eax, edx
	and	edx, 1278035816
	and	ecx, -1278035817
	or	ecx, edx
	and	r12d, 1
	not	eax
	or	r12d, 1278035816
	xor	r12d, ecx
	and	eax, 1
	or	eax, r12d
	mov	ecx, eax
	not	ecx
	mov	edx, ecx
	and	edx, 6284496
	and	eax, -6284497
	or	eax, edx
	mov	edx, r9d
	not	edx
	or	ecx, edx
	and	edx, 6284496
	and	r9d, 47
	or	r9d, edx
	xor	r9d, eax
	not	ecx
	or	ecx, r9d
	mov	rax, qword ptr [rsp - 64] 
	mov	rdx, qword ptr [rsp - 8] 
	mov	dword ptr [rdx + 8*rax + 4], ecx
	mov	rax, qword ptr [rsp - 48]
	xor	ecx, ecx
	sub	rcx, rax
	mov	eax, 1
	sub	rax, rcx
	and	dword ptr [rsp - 84], 268435455 
.LBB10_1:                               

	mov	ecx, -805642043
	jmp	.LBB10_2
.LBB10_5:                               
	mov	qword ptr [rsp - 48], rax
	mov	dword ptr [rsp - 72], edi
	mov	ecx, dword ptr [rsp - 84] 
	mov	dword ptr [rsp - 68], ecx
	mov	rcx, qword ptr [rsp - 48]
	cmp	rcx, 16
	mov	ecx, 770256370
	mov	edx, -1959210656
	cmove	ecx, edx
	.p2align	4, 0x90
.LBB10_2:                               

	cmp	ecx, -1959210656
	je	.LBB10_6

	cmp	ecx, 770256370
	je	.LBB10_7

	cmp	ecx, -805642043
	jne	.LBB10_2
	jmp	.LBB10_5
.LBB10_6:
	pop	rbx
	pop	r12
	pop	r13
	pop	r14
	pop	r15
	pop	rbp
	ret
.Lfunc_end10:
	.size	_ZN5Botan12_GLOBAL__N_116des_key_scheduleEPjPKh, .Lfunc_end10-_ZN5Botan12_GLOBAL__N_116des_key_scheduleEPjPKh

	.section	.text._ZNSt6vectorIjN5Botan16secure_allocatorIjEEE4dataEv,"axG",@progbits,_ZNSt6vectorIjN5Botan16secure_allocatorIjEEE4dataEv,comdat
	.weak	_ZNSt6vectorIjN5Botan16secure_allocatorIjEEE4dataEv 
	.p2align	4, 0x90
	.type	_ZNSt6vectorIjN5Botan16secure_allocatorIjEEE4dataEv,@function
_ZNSt6vectorIjN5Botan16secure_allocatorIjEEE4dataEv: 

	push	rbp
	push	r15
	push	r14
	push	r13
	push	r12
	push	rbx
	mov	eax, dword ptr [rip + x.421]
	mov	r9d, dword ptr [rip + y.422]
	lea	r15d, [rax - 1]
	imul	r15d, eax
	mov	r14d, r15d
	xor	r14d, -2
	mov	eax, r14d
	and	eax, r15d
	sete	bl
	cmp	r9d, 10
	setl	dl
	xor	dl, bl
	mov	r13d, 526302726
	mov	r8d, -777574955
	mov	edx, -777574955
	cmovne	edx, r13d
	test	eax, eax
	cmovne	r13d, edx
	cmp	r9d, 10
	mov	eax, dword ptr [rip + x.41]
	mov	ebp, dword ptr [rip + y.42]
	cmovge	r13d, edx
	lea	edx, [rax - 1]
	imul	edx, eax
	not	edx
	or	edx, -2
	cmp	edx, -1
	sete	dl
	sete	byte ptr [rsp - 14]
	mov	ebx, -1743233255
	mov	r10d, 1189646813
	mov	esi, 1189646813
	cmove	esi, ebx
	cmp	ebp, 10
	setl	cl
	setl	byte ptr [rsp - 13]
	cmovge	esi, r10d
	xor	cl, dl
	cmovne	esi, ebx
	mov	ebx, 1550588413
	mov	r10d, -1741699557
	mov	r11d, 1687071768
	jmp	.LBB11_1
.LBB11_10:                              
	mov	cl, byte ptr [rsp - 14]
	mov	dl, byte ptr [rsp - 13]
	mov	ebx, ecx
	xor	bl, dl
	mov	ebp, 1189646813
	cmovne	ebp, r11d
	test	dl, dl
	mov	ebx, ebp
	cmovne	ebx, r11d
	test	cl, cl
	cmove	ebx, ebp
	.p2align	4, 0x90
.LBB11_1:                               


	cmp	ebx, 1550588412
	jg	.LBB11_8

	cmp	ebx, -1743233255
	je	.LBB11_21

	cmp	ebx, 1189646813
	jne	.LBB11_1

	test	r14d, r15d
	sete	byte ptr [rsp - 10]
	cmp	r9d, 10
	setl	byte ptr [rsp - 9]
	mov	ebx, 1934579201
	jmp	.LBB11_5
	.p2align	4, 0x90
.LBB11_8:                               
	cmp	ebx, 1687071768
	je	.LBB11_11

	cmp	ebx, 1550588413
	jne	.LBB11_1
	jmp	.LBB11_10
.LBB11_7:                               
	mov	ebx, r13d
	.p2align	4, 0x90
.LBB11_5:                               

	cmp	ebx, 526302725
	jg	.LBB11_22

	cmp	ebx, -1741699557
	je	.LBB11_7

	cmp	ebx, -777574955
	jne	.LBB11_5

	mov	ebx, -1741699557
	jmp	.LBB11_5
	.p2align	4, 0x90
.LBB11_22:                              
	cmp	ebx, 526302726
	je	.LBB11_27

	cmp	ebx, 1934579201
	jne	.LBB11_5

	movzx	eax, byte ptr [rsp - 10]
	movzx	edx, byte ptr [rsp - 9]
	mov	ecx, eax
	xor	cl, dl
	test	dl, dl
	mov	ebx, -777574955
	cmovne	ebx, r10d
	test	al, al
	cmove	ebx, r8d
	test	cl, cl
	cmovne	ebx, r10d
	jmp	.LBB11_5
.LBB11_11:                              
	test	r14d, r15d
	mov	r12, qword ptr [rdi]
	sete	byte ptr [rsp - 12]
	cmp	r9d, 10
	setl	byte ptr [rsp - 11]
	mov	ebp, 1934579201
	jmp	.LBB11_12
.LBB11_27:                              
	mov	ebx, 1687071768
	jmp	.LBB11_1
.LBB11_14:                              
	mov	ebp, r13d
	.p2align	4, 0x90
.LBB11_12:                              

	cmp	ebp, 526302725
	jg	.LBB11_15

	cmp	ebp, -1741699557
	je	.LBB11_14

	cmp	ebp, -777574955
	jne	.LBB11_12

	mov	ebp, -1741699557
	jmp	.LBB11_12
	.p2align	4, 0x90
.LBB11_15:                              
	cmp	ebp, 526302726
	je	.LBB11_20

	cmp	ebp, 1934579201
	jne	.LBB11_12

	movzx	ebx, byte ptr [rsp - 12]
	movzx	edx, byte ptr [rsp - 11]
	mov	ecx, ebx
	xor	cl, dl
	test	dl, dl
	mov	ebp, -777574955
	cmovne	ebp, r10d
	test	bl, bl
	cmove	ebp, r8d
	test	cl, cl
	cmovne	ebp, r10d
	jmp	.LBB11_12
.LBB11_20:                              
	mov	qword ptr [rsp - 8], r12
	mov	ebx, esi
	jmp	.LBB11_1
.LBB11_21:
	mov	rax, qword ptr [rsp - 8]
	pop	rbx
	pop	r12
	pop	r13
	pop	r14
	pop	r15
	pop	rbp
	ret
.Lfunc_end11:
	.size	_ZNSt6vectorIjN5Botan16secure_allocatorIjEEE4dataEv, .Lfunc_end11-_ZNSt6vectorIjN5Botan16secure_allocatorIjEEE4dataEv

	.text
	.globl	_ZN5Botan3DES5clearEv   
	.p2align	4, 0x90
	.type	_ZN5Botan3DES5clearEv,@function
_ZN5Botan3DES5clearEv:                  
	.cfi_startproc

	add	rdi, 8
	jmp	_ZN5Botan3zapIjNS_16secure_allocatorIjEEEEvRSt6vectorIT_T0_E 
.Lfunc_end12:
	.size	_ZN5Botan3DES5clearEv, .Lfunc_end12-_ZN5Botan3DES5clearEv
	.cfi_endproc

	.section	.text._ZN5Botan3zapIjNS_16secure_allocatorIjEEEEvRSt6vectorIT_T0_E,"axG",@progbits,_ZN5Botan3zapIjNS_16secure_allocatorIjEEEEvRSt6vectorIT_T0_E,comdat
	.weak	_ZN5Botan3zapIjNS_16secure_allocatorIjEEEEvRSt6vectorIT_T0_E 
	.p2align	4, 0x90
	.type	_ZN5Botan3zapIjNS_16secure_allocatorIjEEEEvRSt6vectorIT_T0_E,@function
_ZN5Botan3zapIjNS_16secure_allocatorIjEEEEvRSt6vectorIT_T0_E: 
.Lfunc_begin1:
	.cfi_startproc
	.cfi_personality 3, __gxx_personality_v0
	.cfi_lsda 3, .Lexception1

	push	rbp
.Lcfi41:
	.cfi_def_cfa_offset 16
	push	r15
.Lcfi42:
	.cfi_def_cfa_offset 24
	push	r14
.Lcfi43:
	.cfi_def_cfa_offset 32
	push	r13
.Lcfi44:
	.cfi_def_cfa_offset 40
	push	r12
.Lcfi45:
	.cfi_def_cfa_offset 48
	push	rbx
.Lcfi46:
	.cfi_def_cfa_offset 56
	sub	rsp, 24
.Lcfi47:
	.cfi_def_cfa_offset 80
.Lcfi48:
	.cfi_offset rbx, -56
.Lcfi49:
	.cfi_offset r12, -48
.Lcfi50:
	.cfi_offset r13, -40
.Lcfi51:
	.cfi_offset r14, -32
.Lcfi52:
	.cfi_offset r15, -24
.Lcfi53:
	.cfi_offset rbp, -16
	mov	r15, rdi
	mov	eax, dword ptr [rip + x.45]
	mov	ecx, dword ptr [rip + y.46]
	mov	edx, eax
	neg	edx
	not	edx
	imul	edx, eax
	not	edx
	or	edx, -2
	cmp	edx, -1
	sete	byte ptr [rsp + 14]
	cmp	ecx, 10
	setl	byte ptr [rsp + 15]
	mov	eax, -166447774
	mov	r12d, 28478468
	mov	r13d, 755678511
	jmp	.LBB13_1
.LBB13_7:                               
	mov	cl, byte ptr [rsp + 14]
	mov	al, byte ptr [rsp + 15]
	mov	edx, ecx
	xor	dl, al
	mov	edx, -1262562319
	mov	esi, 52094481
	cmovne	edx, esi
	test	al, al
	mov	eax, edx
	cmovne	eax, esi
	test	cl, cl
	cmove	eax, edx
	.p2align	4, 0x90
.LBB13_1:                               








	cmp	eax, -166447775
	jg	.LBB13_5

	cmp	eax, -1262562319
	je	.LBB13_44

	cmp	eax, -849253164
	jne	.LBB13_1
	jmp	.LBB13_4
	.p2align	4, 0x90
.LBB13_5:                               
	cmp	eax, 52094481
	je	.LBB13_8

	cmp	eax, -166447774
	jne	.LBB13_1
	jmp	.LBB13_7
.LBB13_44:                              
	mov	rdi, r15
	call	_ZNSt6vectorIjN5Botan16secure_allocatorIjEEE4dataEv
	mov	ecx, dword ptr [rip + x.423]
	mov	edx, dword ptr [rip + y.424]
	lea	esi, [rcx - 1]
	imul	esi, ecx
	not	esi
	or	esi, -2
	cmp	esi, -1
	sete	cl
	cmp	edx, 10
	setl	bl
	xor	bl, cl
	mov	edi, -2046985968
	cmovne	edi, r12d
	cmp	esi, -1
	sete	byte ptr [rsp + 13]
	mov	esi, edi
	cmove	esi, r12d
	cmp	edx, 10
	setl	byte ptr [rsp + 12]
	mov	r14, rax
	cmovge	esi, edi
	mov	rax, qword ptr [r15 + 8]
	movabs	rcx, -3965662008575369974
	sub	rax, rcx
	sub	rax, qword ptr [r15]
	add	rax, rcx
	sar	rax, 2
	mov	edx, 1281921182
	jmp	.LBB13_45
.LBB13_8:                               
	mov	rdi, r15
	call	_ZNSt6vectorIjN5Botan16secure_allocatorIjEEE4dataEv
	mov	r14, rax
	mov	eax, dword ptr [rip + x.423]
	mov	ecx, dword ptr [rip + y.424]
	mov	edx, eax
	neg	edx
	not	edx
	imul	edx, eax
	mov	eax, edx
	xor	eax, -2
	and	eax, edx
	sete	dl
	sete	byte ptr [rsp + 13]
	test	eax, eax
	mov	eax, -2046985968
	cmove	eax, r12d
	cmp	ecx, 10
	setl	byte ptr [rsp + 12]
	setl	cl
	mov	esi, -2046985968
	cmovge	eax, esi
	xor	cl, dl
	cmovne	eax, r12d
	mov	rsi, qword ptr [r15 + 8]
	sub	rsi, qword ptr [r15]
	sar	rsi, 2
	mov	edx, 1281921182
	jmp	.LBB13_9
.LBB13_53:                              
	movzx	ecx, byte ptr [rsp + 13]
	movzx	edx, byte ptr [rsp + 12]
	mov	ebx, ecx
	xor	bl, dl
	mov	edi, -2046985968
	cmovne	edi, r13d
	test	dl, dl
	mov	edx, edi
	cmovne	edx, r13d
	test	cl, cl
	cmove	edx, edi
	.p2align	4, 0x90
.LBB13_45:                              

	cmp	edx, 755678510
	jg	.LBB13_51

	cmp	edx, -2046985968
	je	.LBB13_55

	cmp	edx, 28478468
	jne	.LBB13_45
	jmp	.LBB13_48
	.p2align	4, 0x90
.LBB13_51:                              
	cmp	edx, 755678511
	je	.LBB13_54

	cmp	edx, 1281921182
	jne	.LBB13_45
	jmp	.LBB13_53
.LBB13_55:                              
	mov	edx, 755678511
	jmp	.LBB13_45
.LBB13_54:                              
	mov	qword ptr [rsp + 16], rax
	mov	edx, esi
	jmp	.LBB13_45
.LBB13_17:                              
	movzx	ecx, byte ptr [rsp + 13]
	movzx	edx, byte ptr [rsp + 12]
	mov	ebx, ecx
	xor	bl, dl
	test	dl, dl
	mov	edx, -2046985968
	cmovne	edx, r13d
	test	cl, cl
	mov	ecx, -2046985968
	cmove	edx, ecx
	test	bl, bl
	cmovne	edx, r13d
	.p2align	4, 0x90
.LBB13_9:                               

	cmp	edx, 755678510
	jg	.LBB13_15

	cmp	edx, -2046985968
	je	.LBB13_19

	cmp	edx, 28478468
	jne	.LBB13_9
	jmp	.LBB13_12
	.p2align	4, 0x90
.LBB13_15:                              
	cmp	edx, 755678511
	je	.LBB13_18

	cmp	edx, 1281921182
	jne	.LBB13_9
	jmp	.LBB13_17
.LBB13_19:                              
	mov	edx, 755678511
	jmp	.LBB13_9
.LBB13_18:                              
	mov	qword ptr [rsp + 16], rsi
	mov	edx, eax
	jmp	.LBB13_9
.LBB13_48:                              
	mov	rbx, qword ptr [rsp + 16]
	shl	rbx, 2
	test	rbx, rbx
	mov	ebp, -1950934794
	mov	eax, -357505078
	cmove	ebp, eax
	mov	eax, 608191804
	jmp	.LBB13_49
.LBB13_12:                              
	mov	rbx, qword ptr [rsp + 16]
	shl	rbx, 2
	test	rbx, rbx
	mov	r12d, -1950934794
	mov	eax, -357505078
	cmove	r12d, eax
	mov	eax, 608191804
	jmp	.LBB13_13
.LBB13_50:                              
	mov	eax, ebp
	.p2align	4, 0x90
.LBB13_49:                              

	cmp	eax, 608191804
	je	.LBB13_50

	cmp	eax, -357505078
	je	.LBB13_59

	cmp	eax, -1950934794
	jne	.LBB13_49

	xor	esi, esi
	mov	rdi, r14
	mov	rdx, rbx
	call	memset
	mov	eax, -357505078
	jmp	.LBB13_49
.LBB13_59:                              
	mov	rbp, qword ptr [r15]
	mov	rsi, qword ptr [r15 + 8]
	mov	eax, dword ptr [rip + x.131]
	mov	ecx, dword ptr [rip + y.132]
	lea	edx, [rax - 1]
	imul	edx, eax
	mov	eax, edx
	xor	eax, -2
	and	eax, edx
	sete	byte ptr [rsp + 13]
	sete	dl
	test	eax, eax
	mov	eax, -1751005725
	mov	edi, -2088442469
	cmove	eax, edi
	cmp	ecx, 10
	setl	cl
	setl	byte ptr [rsp + 12]
	mov	r8d, -1751005725
	cmovge	eax, r8d
	xor	cl, dl
	cmovne	eax, edi
	mov	ecx, -1360489722
	jmp	.LBB13_60
.LBB13_66:                              
	movzx	ebx, byte ptr [rsp + 13]
	movzx	ecx, byte ptr [rsp + 12]
	mov	edx, ebx
	xor	dl, cl
	test	cl, cl
	mov	ecx, -1751005725
	mov	edi, -330765898
	cmovne	ecx, edi
	test	bl, bl
	cmove	ecx, r8d
	test	dl, dl
	cmovne	ecx, edi
	.p2align	4, 0x90
.LBB13_60:                              

	mov	edx, ecx
	and	edx, 2147483647
	cmp	edx, 786993925
	jg	.LBB13_64

	cmp	edx, 59041179
	je	.LBB13_69

	cmp	edx, 396477923
	jne	.LBB13_60

	mov	ecx, -330765898
	jmp	.LBB13_60
	.p2align	4, 0x90
.LBB13_64:                              
	cmp	edx, 1816717750
	je	.LBB13_67

	cmp	edx, 786993926
	jne	.LBB13_60
	jmp	.LBB13_66
.LBB13_67:                              
	mov	qword ptr [rsp + 16], r15
	mov	ecx, eax
	jmp	.LBB13_60
.LBB13_69:                              
	mov	rdx, qword ptr [rsp + 16]
.Ltmp6:
	mov	rdi, rbp
	call	_ZSt8_DestroyIPjN5Botan16secure_allocatorIjEEEvT_S4_RT0_
.Ltmp7:

	mov	qword ptr [r15 + 8], rbp
	mov	eax, dword ptr [rip + x.473]
	mov	ecx, dword ptr [rip + y.474]
	lea	edx, [rax - 1]
	imul	edx, eax
	not	edx
	or	edx, -2
	cmp	edx, -1
	sete	byte ptr [rsp + 12]
	cmp	ecx, 10
	setl	byte ptr [rsp + 16]
	mov	eax, 611638629
	jmp	.LBB13_71
.LBB13_14:                              
	mov	eax, r12d
	.p2align	4, 0x90
.LBB13_13:                              

	cmp	eax, 608191804
	je	.LBB13_14

	cmp	eax, -357505078
	je	.LBB13_23

	cmp	eax, -1950934794
	jne	.LBB13_13

	xor	esi, esi
	mov	rdi, r14
	mov	rdx, rbx
	call	memset
	mov	eax, -357505078
	jmp	.LBB13_13
.LBB13_23:                              
	mov	rbp, qword ptr [r15]
	mov	rsi, qword ptr [r15 + 8]
	mov	eax, dword ptr [rip + x.131]
	mov	ecx, dword ptr [rip + y.132]
	lea	edx, [rax - 1]
	imul	edx, eax
	not	edx
	or	edx, -2
	cmp	edx, -1
	sete	dl
	sete	byte ptr [rsp + 13]
	mov	eax, -1751005725
	mov	edi, -2088442469
	cmove	eax, edi
	cmp	ecx, 10
	setl	cl
	setl	byte ptr [rsp + 12]
	mov	r8d, -1751005725
	cmovge	eax, r8d
	xor	cl, dl
	cmovne	eax, edi
	mov	ecx, -1360489722
	mov	r12d, 28478468
	jmp	.LBB13_24
.LBB13_30:                              
	movzx	ebx, byte ptr [rsp + 13]
	movzx	ecx, byte ptr [rsp + 12]
	mov	edx, ebx
	xor	dl, cl
	test	cl, cl
	mov	ecx, -1751005725
	mov	edi, -330765898
	cmovne	ecx, edi
	test	bl, bl
	cmove	ecx, r8d
	test	dl, dl
	cmovne	ecx, edi
	.p2align	4, 0x90
.LBB13_24:                              

	mov	edx, ecx
	and	edx, 2147483647
	cmp	edx, 786993925
	jg	.LBB13_28

	cmp	edx, 59041179
	je	.LBB13_33

	cmp	edx, 396477923
	jne	.LBB13_24

	mov	ecx, -330765898
	jmp	.LBB13_24
	.p2align	4, 0x90
.LBB13_28:                              
	cmp	edx, 1816717750
	je	.LBB13_31

	cmp	edx, 786993926
	jne	.LBB13_24
	jmp	.LBB13_30
.LBB13_31:                              
	mov	qword ptr [rsp + 16], r15
	mov	ecx, eax
	jmp	.LBB13_24
.LBB13_33:                              
	mov	rdx, qword ptr [rsp + 16]
.Ltmp9:
	mov	rdi, rbp
	call	_ZSt8_DestroyIPjN5Botan16secure_allocatorIjEEEvT_S4_RT0_
.Ltmp10:

	mov	qword ptr [r15 + 8], rbp
	mov	eax, dword ptr [rip + x.473]
	mov	ecx, dword ptr [rip + y.474]
	mov	edx, eax
	neg	edx
	not	edx
	imul	edx, eax
	not	edx
	or	edx, -2
	cmp	edx, -1
	sete	byte ptr [rsp + 12]
	cmp	ecx, 10
	setl	byte ptr [rsp + 16]
	mov	eax, 611638629
	jmp	.LBB13_35
.LBB13_77:                              
	movzx	ecx, byte ptr [rsp + 12]
	movzx	eax, byte ptr [rsp + 16]
	mov	edx, ecx
	xor	dl, al
	mov	edx, -139147509
	mov	esi, 1300156773
	cmovne	edx, esi
	test	al, al
	mov	eax, edx
	cmovne	eax, esi
	test	cl, cl
	cmove	eax, edx
	.p2align	4, 0x90
.LBB13_71:                              

	cmp	eax, 611638628
	jg	.LBB13_75

	cmp	eax, -451143894
	je	.LBB13_79

	cmp	eax, -139147509
	jne	.LBB13_71

	mov	rdi, r15
	call	_ZNSt6vectorIjN5Botan16secure_allocatorIjEEE16_M_shrink_to_fitEv
	mov	eax, 1300156773
	jmp	.LBB13_71
	.p2align	4, 0x90
.LBB13_75:                              
	cmp	eax, 1300156773
	je	.LBB13_78

	cmp	eax, 611638629
	jne	.LBB13_71
	jmp	.LBB13_77
.LBB13_78:                              
	mov	rdi, r15
	call	_ZNSt6vectorIjN5Botan16secure_allocatorIjEEE16_M_shrink_to_fitEv
	mov	eax, dword ptr [rip + x.473]
	lea	ecx, [rax - 1]
	imul	ecx, eax
	not	ecx
	or	ecx, -2
	cmp	ecx, -1
	sete	cl
	mov	eax, -139147509
	mov	esi, -451143894
	cmove	eax, esi
	cmp	dword ptr [rip + y.474], 10
	setl	dl
	mov	edi, -139147509
	cmovge	eax, edi
	xor	dl, cl
	cmovne	eax, esi
	jmp	.LBB13_71
.LBB13_41:                              
	movzx	ecx, byte ptr [rsp + 12]
	movzx	eax, byte ptr [rsp + 16]
	mov	edx, ecx
	xor	dl, al
	mov	edx, -139147509
	mov	esi, 1300156773
	cmovne	edx, esi
	test	al, al
	mov	eax, edx
	cmovne	eax, esi
	test	cl, cl
	cmove	eax, edx
	.p2align	4, 0x90
.LBB13_35:                              

	cmp	eax, 611638628
	jg	.LBB13_39

	cmp	eax, -451143894
	je	.LBB13_43

	cmp	eax, -139147509
	jne	.LBB13_35

	mov	rdi, r15
	call	_ZNSt6vectorIjN5Botan16secure_allocatorIjEEE16_M_shrink_to_fitEv
	mov	eax, 1300156773
	jmp	.LBB13_35
	.p2align	4, 0x90
.LBB13_39:                              
	cmp	eax, 1300156773
	je	.LBB13_42

	cmp	eax, 611638629
	jne	.LBB13_35
	jmp	.LBB13_41
.LBB13_42:                              
	mov	rdi, r15
	call	_ZNSt6vectorIjN5Botan16secure_allocatorIjEEE16_M_shrink_to_fitEv
	mov	eax, dword ptr [rip + x.473]
	mov	ecx, dword ptr [rip + y.474]
	lea	edx, [rax - 1]
	imul	edx, eax
	not	edx
	or	edx, -2
	cmp	edx, -1
	sete	al
	cmp	ecx, 10
	setl	bl
	xor	bl, al
	mov	esi, -139147509
	mov	edi, -451143894
	cmovne	esi, edi
	cmp	edx, -1
	mov	eax, esi
	cmove	eax, edi
	cmp	ecx, 10
	cmovge	eax, esi
	jmp	.LBB13_35
.LBB13_79:                              
	mov	eax, 52094481
	jmp	.LBB13_1
.LBB13_43:                              
	mov	eax, dword ptr [rip + x.45]
	mov	ecx, dword ptr [rip + y.46]
	lea	edx, [rax - 1]
	imul	edx, eax
	mov	eax, edx
	xor	eax, -2
	and	eax, edx
	sete	dl
	cmp	ecx, 10
	setl	bl
	xor	bl, dl
	mov	edx, -1262562319
	mov	esi, -849253164
	cmovne	edx, esi
	test	eax, eax
	mov	eax, edx
	cmove	eax, esi
	cmp	ecx, 10
	cmovge	eax, edx
	jmp	.LBB13_1
.LBB13_4:
	add	rsp, 24
	pop	rbx
	pop	r12
	pop	r13
	pop	r14
	pop	r15
	pop	rbp
	ret
.LBB13_32:
.Ltmp11:
	mov	rdi, rax
	call	__clang_call_terminate
.LBB13_68:
.Ltmp8:
	mov	rdi, rax
	call	__clang_call_terminate
.Lfunc_end13:
	.size	_ZN5Botan3zapIjNS_16secure_allocatorIjEEEEvRSt6vectorIT_T0_E, .Lfunc_end13-_ZN5Botan3zapIjNS_16secure_allocatorIjEEEEvRSt6vectorIT_T0_E
	.cfi_endproc
	.section	.gcc_except_table,"a",@progbits
	.p2align	2
GCC_except_table13:
.Lexception1:
	.byte	255                     
	.byte	3                       
	.asciz	"\274"                  
	.byte	3                       
	.byte	52                      
	.long	.Lfunc_begin1-.Lfunc_begin1 
	.long	.Ltmp6-.Lfunc_begin1    
	.long	0                       
	.byte	0                       
	.long	.Ltmp6-.Lfunc_begin1    
	.long	.Ltmp7-.Ltmp6           
	.long	.Ltmp8-.Lfunc_begin1    
	.byte	1                       
	.long	.Ltmp7-.Lfunc_begin1    
	.long	.Ltmp9-.Ltmp7           
	.long	0                       
	.byte	0                       
	.long	.Ltmp9-.Lfunc_begin1    
	.long	.Ltmp10-.Ltmp9          
	.long	.Ltmp11-.Lfunc_begin1   
	.byte	1                       
	.byte	1                       

	.byte	0                       

	.long	0                       
	.p2align	2

	.text
	.globl	_ZNK5Botan9TripleDES9encrypt_nEPKhPhm 
	.p2align	4, 0x90
	.type	_ZNK5Botan9TripleDES9encrypt_nEPKhPhm,@function
_ZNK5Botan9TripleDES9encrypt_nEPKhPhm:  
	.cfi_startproc

	push	rbp
.Lcfi54:
	.cfi_def_cfa_offset 16
	push	r15
.Lcfi55:
	.cfi_def_cfa_offset 24
	push	r14
.Lcfi56:
	.cfi_def_cfa_offset 32
	push	r13
.Lcfi57:
	.cfi_def_cfa_offset 40
	push	r12
.Lcfi58:
	.cfi_def_cfa_offset 48
	push	rbx
.Lcfi59:
	.cfi_def_cfa_offset 56
	sub	rsp, 152
.Lcfi60:
	.cfi_def_cfa_offset 208
.Lcfi61:
	.cfi_offset rbx, -56
.Lcfi62:
	.cfi_offset r12, -48
.Lcfi63:
	.cfi_offset r13, -40
.Lcfi64:
	.cfi_offset r14, -32
.Lcfi65:
	.cfi_offset r15, -24
.Lcfi66:
	.cfi_offset rbp, -16
	mov	qword ptr [rsp + 96], rcx 
	mov	qword ptr [rsp + 104], rdx 
	mov	qword ptr [rsp + 112], rsi 
	lea	rax, [rdi + 8]
	mov	qword ptr [rsp + 48], rax
	mov	r11, qword ptr [rsp + 48]
	mov	r8, qword ptr [r11]
	mov	eax, dword ptr [rip + x.419]
	mov	esi, dword ptr [rip + y.420]
	lea	ebp, [rax - 1]
	imul	ebp, eax
	mov	eax, ebp
	not	eax
	or	eax, -2
	and	ebp, 1
	cmp	eax, -1
	sete	al
	sete	byte ptr [rsp + 16]
	mov	ebx, 1722250601
	mov	r9d, 1324114347
	mov	ecx, 1324114347
	cmove	ecx, ebx
	cmp	esi, 10
	setl	dl
	setl	byte ptr [rsp + 24]
	cmovge	ecx, r9d
	xor	dl, al
	cmovne	ecx, ebx
	mov	eax, 114725738
	mov	r10d, 918865027
	jmp	.LBB14_1
.LBB14_4:                               
	mov	eax, ecx
	.p2align	4, 0x90
.LBB14_1:                               
	mov	ebx, eax
	and	ebx, 2147483647
	cmp	ebx, 1324114346
	jle	.LBB14_2

	cmp	ebx, 1324114347
	je	.LBB14_13

	cmp	ebx, 1722250601
	jne	.LBB14_1
	jmp	.LBB14_7
	.p2align	4, 0x90
.LBB14_2:                               
	cmp	ebx, 114725738
	je	.LBB14_12

	cmp	ebx, 918865027
	jne	.LBB14_1
	jmp	.LBB14_4
.LBB14_13:                              
	mov	eax, 918865027
	jmp	.LBB14_1
.LBB14_12:                              
	movzx	edx, byte ptr [rsp + 16]
	movzx	eax, byte ptr [rsp + 24]
	mov	ebx, edx
	xor	bl, al
	test	al, al
	mov	eax, 1324114347
	cmovne	eax, r10d
	test	dl, dl
	cmove	eax, r9d
	test	bl, bl
	cmovne	eax, r10d
	jmp	.LBB14_1
.LBB14_7:
	test	ebp, ebp
	mov	r9, qword ptr [r11 + 8]
	sete	byte ptr [rsp + 16]
	cmp	esi, 10
	setl	byte ptr [rsp + 24]
	mov	ebp, 114725738
	mov	esi, 918865027
	jmp	.LBB14_8
.LBB14_11:                              
	mov	ebp, ecx
	.p2align	4, 0x90
.LBB14_8:                               
	mov	eax, ebp
	and	eax, 2147483647
	cmp	eax, 1324114346
	jle	.LBB14_9

	cmp	eax, 1324114347
	je	.LBB14_24

	cmp	eax, 1722250601
	jne	.LBB14_8
	jmp	.LBB14_16
	.p2align	4, 0x90
.LBB14_9:                               
	cmp	eax, 114725738
	je	.LBB14_23

	cmp	eax, 918865027
	jne	.LBB14_8
	jmp	.LBB14_11
.LBB14_24:                              
	mov	ebp, 918865027
	jmp	.LBB14_8
.LBB14_23:                              
	movzx	edx, byte ptr [rsp + 16]
	movzx	ebx, byte ptr [rsp + 24]
	mov	eax, edx
	xor	al, bl
	mov	eax, 1324114347
	cmovne	eax, esi
	test	bl, bl
	mov	ebp, eax
	cmovne	ebp, esi
	test	dl, dl
	cmove	ebp, eax
	jmp	.LBB14_8
.LBB14_16:
	movabs	rbx, 5374501942261763296
	xor	esi, esi
	cmp	r8, r9
	setne	sil
	call	_ZNK5Botan18SymmetricAlgorithm14verify_key_setEb
	mov	eax, 32929506
	lea	r15, [rsp + 16]
	lea	r12, [rsp + 20]
	lea	r13, [rsp + 40]
	movabs	rcx, 4611686018427387902
	and	rbx, rcx
	mov	qword ptr [rsp + 128], rbx 



	jmp	.LBB14_17
.LBB14_33:                              
	mov	rax, qword ptr [rsp + 80]
	mov	eax, 895462226
	.p2align	4, 0x90
.LBB14_17:                              














	cmp	eax, 32929505
	jle	.LBB14_18

	cmp	eax, 1742943890
	jg	.LBB14_34

	cmp	eax, 32929506
	je	.LBB14_38

	cmp	eax, 895462226
	je	.LBB14_85

	cmp	eax, 1433146096
	jne	.LBB14_17
	jmp	.LBB14_33
	.p2align	4, 0x90
.LBB14_18:                              
	cmp	eax, -524345300
	jle	.LBB14_19

	cmp	eax, -524345299
	je	.LBB14_87

	cmp	eax, -302790146
	je	.LBB14_40

	cmp	eax, -151244835
	jne	.LBB14_17

	mov	rax, qword ptr [rsp + 64]
	mov	eax, 1816665189
	jmp	.LBB14_17
	.p2align	4, 0x90
.LBB14_34:                              
	cmp	eax, 1742943891
	je	.LBB14_84

	cmp	eax, 1816665189
	je	.LBB14_39

	cmp	eax, 2127138946
	jne	.LBB14_17

	mov	r8, qword ptr [rsp + 56]
	mov	rbp, qword ptr [rsp + 72]
	mov	eax, 1742943891
	mov	r14, qword ptr [rsp + 64]
	jmp	.LBB14_17
	.p2align	4, 0x90
.LBB14_19:                              
	cmp	eax, -2105121689
	je	.LBB14_86

	cmp	eax, -1149839606
	je	.LBB14_41

	cmp	eax, -883148970
	jne	.LBB14_17
	jmp	.LBB14_22
.LBB14_38:                              
	mov	eax, dword ptr [rip + x.47]
	mov	ecx, dword ptr [rip + y.48]
	lea	edx, [rax - 1]
	imul	edx, eax
	mov	eax, edx
	xor	eax, -2
	and	eax, edx
	sete	dl
	cmp	ecx, 10
	setl	bl
	xor	bl, dl
	mov	edx, -151244835
	mov	esi, 1816665189
	cmovne	edx, esi
	test	eax, eax
	mov	eax, edx
	cmove	eax, esi
	cmp	ecx, 10
	mov	rcx, qword ptr [rsp + 96] 
	mov	qword ptr [rsp + 64], rcx
	mov	rcx, qword ptr [rsp + 104] 
	mov	qword ptr [rsp + 72], rcx
	mov	rcx, qword ptr [rsp + 112] 
	mov	qword ptr [rsp + 56], rcx
	cmovge	eax, edx
	jmp	.LBB14_17
.LBB14_85:                              
	cmp	qword ptr [rsp + 80], 0
	setne	byte ptr [rsp + 47]
	mov	eax, dword ptr [rip + x.47]
	lea	ecx, [rax - 1]
	imul	ecx, eax
	not	ecx
	or	ecx, -2
	cmp	ecx, -1
	sete	cl
	mov	eax, 1433146096
	mov	esi, -2105121689
	cmove	eax, esi
	cmp	dword ptr [rip + y.48], 10
	setl	dl
	mov	edi, 1433146096
	cmovge	eax, edi
	xor	dl, cl
	cmovne	eax, esi
	jmp	.LBB14_17
.LBB14_87:                              
	mov	rax, qword ptr [rsp + 88]
	mov	eax, dword ptr [rax]
	bswap	eax
	mov	dword ptr [rsp + 40], eax
	mov	rax, qword ptr [rsp + 88]
	mov	eax, dword ptr [rax + 4]
	bswap	eax
	mov	dword ptr [rsp + 36], eax
	mov	rdi, r13
	lea	rsi, [rsp + 36]
	call	_ZN5Botan12_GLOBAL__N_16des_IPERjS1_
	mov	rcx, qword ptr [rsp + 48]
	mov	eax, dword ptr [rip + x.49]
	mov	r8d, dword ptr [rip + y.50]
	lea	r11d, [rax - 1]
	imul	r11d, eax
	mov	r9d, r11d
	xor	r9d, -2
	mov	eax, r9d
	and	eax, r11d
	sete	dl
	sete	byte ptr [rsp + 20]
	cmp	r8d, 10
	setl	bl
	xor	bl, dl
	mov	edx, -262632894
	mov	esi, 384865210
	cmovne	edx, esi
	test	eax, eax
	mov	r14d, edx
	cmove	r14d, esi
	cmp	r8d, 10
	setl	byte ptr [rsp + 16]
	cmovge	r14d, edx
	mov	eax, -1101003971
	jmp	.LBB14_88
.LBB14_40:                              
	mov	al, byte ptr [rsp + 46]
	test	al, al
	mov	eax, 2127138946
	mov	ecx, -1149839606
	cmovne	eax, ecx
	jmp	.LBB14_17
.LBB14_84:                              
	mov	eax, dword ptr [rip + x.47]
	mov	ecx, dword ptr [rip + y.48]
	lea	edx, [rax - 1]
	imul	edx, eax
	not	edx
	or	edx, -2
	cmp	edx, -1
	sete	al
	cmp	ecx, 10
	setl	bl
	xor	bl, al
	mov	esi, 1433146096
	mov	edi, 895462226
	cmovne	esi, edi
	cmp	edx, -1
	mov	eax, esi
	cmove	eax, edi
	cmp	ecx, 10
	mov	qword ptr [rsp + 80], r14
	mov	qword ptr [rsp + 120], rbp
	mov	qword ptr [rsp + 88], r8
	cmovge	eax, esi
	jmp	.LBB14_17
.LBB14_39:                              
	mov	rax, qword ptr [rsp + 64]
	cmp	rax, 1
	seta	byte ptr [rsp + 46]
	mov	eax, dword ptr [rip + x.47]
	lea	ecx, [rax - 1]
	imul	ecx, eax
	mov	eax, ecx
	xor	eax, -2
	and	eax, ecx
	sete	cl
	test	eax, eax
	mov	eax, -151244835
	mov	edi, -302790146
	cmove	eax, edi
	cmp	dword ptr [rip + y.48], 10
	setl	dl
	mov	esi, -151244835
	cmovge	eax, esi
	xor	dl, cl
	cmovne	eax, edi
	jmp	.LBB14_17
.LBB14_86:                              
	mov	al, byte ptr [rsp + 47]
	test	al, al
	mov	eax, -883148970
	mov	ecx, -524345299
	cmovne	eax, ecx
	jmp	.LBB14_17
.LBB14_41:                              
	mov	qword ptr [rsp + 136], rbp 
	mov	qword ptr [rsp + 144], r8 
	mov	rax, qword ptr [rsp + 56]
	mov	eax, dword ptr [rax]
	bswap	eax
	mov	dword ptr [rsp + 16], eax
	mov	rax, qword ptr [rsp + 56]
	mov	eax, dword ptr [rax + 4]
	bswap	eax
	mov	dword ptr [rsp + 20], eax
	mov	rax, qword ptr [rsp + 56]
	mov	eax, dword ptr [rax + 8]
	bswap	eax
	mov	dword ptr [rsp + 40], eax
	mov	rax, qword ptr [rsp + 56]
	mov	eax, dword ptr [rax + 12]
	bswap	eax
	mov	dword ptr [rsp + 36], eax
	mov	rdi, r15
	mov	rsi, r12
	call	_ZN5Botan12_GLOBAL__N_16des_IPERjS1_
	mov	rdi, r13
	lea	rsi, [rsp + 36]
	call	_ZN5Botan12_GLOBAL__N_16des_IPERjS1_
	mov	rdi, qword ptr [rsp + 48]
	mov	ecx, dword ptr [rip + x.49]
	mov	edx, dword ptr [rip + y.50]
	lea	esi, [rcx - 1]
	imul	esi, ecx
	mov	ecx, esi
	xor	ecx, -2
	and	ecx, esi
	sete	byte ptr [rsp + 14]
	sete	bl
	test	ecx, ecx
	mov	ecx, -262632894
	mov	eax, 384865210
	cmove	ecx, eax
	cmp	edx, 10
	setl	dl
	setl	byte ptr [rsp + 15]
	mov	esi, -262632894
	cmovge	ecx, esi
	xor	dl, bl
	cmovne	ecx, eax
	mov	edx, -1101003971
	jmp	.LBB14_42
.LBB14_147:                             
	movzx	ebx, byte ptr [rsp + 20]
	movzx	eax, byte ptr [rsp + 16]
	mov	edx, ebx
	xor	dl, al
	mov	edx, -262632894
	mov	esi, 799690049
	cmovne	edx, esi
	test	al, al
	mov	eax, edx
	cmovne	eax, esi
	test	bl, bl
	cmove	eax, edx
	.p2align	4, 0x90
.LBB14_88:                              

	cmp	eax, 384865209
	jg	.LBB14_92

	cmp	eax, -1101003971
	je	.LBB14_147

	cmp	eax, -262632894
	jne	.LBB14_88

	mov	eax, 799690049
	jmp	.LBB14_88
	.p2align	4, 0x90
.LBB14_92:                              
	cmp	eax, 384865210
	je	.LBB14_95

	cmp	eax, 799690049
	jne	.LBB14_88

	mov	rax, qword ptr [rcx]
	mov	qword ptr [rsp + 24], rax
	mov	eax, r14d
	jmp	.LBB14_88
.LBB14_144:                             
	movzx	eax, byte ptr [rsp + 14]
	movzx	edx, byte ptr [rsp + 15]
	mov	ebx, eax
	xor	bl, dl
	test	dl, dl
	mov	edx, -262632894
	mov	esi, 799690049
	cmovne	edx, esi
	test	al, al
	mov	eax, -262632894
	cmove	edx, eax
	test	bl, bl
	cmovne	edx, esi
	.p2align	4, 0x90
.LBB14_42:                              

	cmp	edx, 384865209
	jg	.LBB14_46

	cmp	edx, -1101003971
	je	.LBB14_144

	cmp	edx, -262632894
	jne	.LBB14_42

	mov	edx, 799690049
	jmp	.LBB14_42
	.p2align	4, 0x90
.LBB14_46:                              
	cmp	edx, 384865210
	je	.LBB14_49

	cmp	edx, 799690049
	jne	.LBB14_42

	mov	rax, qword ptr [rdi]
	mov	qword ptr [rsp + 24], rax
	mov	edx, ecx
	jmp	.LBB14_42
.LBB14_95:                              
	mov	r10, qword ptr [rsp + 24]
	mov	ebx, dword ptr [rsp + 40]
	mov	eax, dword ptr [rsp + 36]
	xor	ecx, ecx
	jmp	.LBB14_96
.LBB14_49:                              
	mov	r8, qword ptr [rsp + 24]
	mov	rdi, r15
	mov	rsi, r12
	mov	rdx, r13
	lea	rcx, [rsp + 36]
	call	_ZN5Botan12_GLOBAL__N_114des_encrypt_x2ERjS1_S1_S1_PKj
	mov	rbp, qword ptr [rsp + 48]
	mov	ecx, dword ptr [rip + x.49]
	mov	edx, dword ptr [rip + y.50]
	mov	esi, ecx
	neg	esi
	not	esi
	imul	esi, ecx
	not	esi
	or	esi, -2
	cmp	esi, -1
	sete	cl
	cmp	edx, 10
	setl	bl
	xor	bl, cl
	mov	edi, -262632894
	mov	eax, 384865210
	cmovne	edi, eax
	cmp	esi, -1
	sete	byte ptr [rsp + 14]
	mov	ecx, edi
	cmove	ecx, eax
	cmp	edx, 10
	setl	byte ptr [rsp + 15]
	cmovge	ecx, edi
	mov	edx, -1101003971
	jmp	.LBB14_50
	.p2align	4, 0x90
.LBB14_101:                             
	mov	edx, dword ptr [rsp + 20]
	rol	edx, 28
	mov	r15, qword ptr [rsp + 24]
	lea	rax, [r15 + r15]
	mov	ecx, dword ptr [r10 + 8*r15]
	mov	esi, edx
	not	esi
	and	esi, -1504186135
	and	edx, 1504186134
	or	edx, esi
	mov	esi, ecx
	not	esi
	and	esi, -1504186135
	and	ecx, 1504186134
	or	ecx, esi
	xor	ecx, edx
	mov	rdx, rax
	not	rdx
	movabs	rsi, 5374501942261763296
	mov	rdi, rsi
	not	rsi
	and	rdx, rdi
	and	rax, rsi
	or	rax, rdx
	and	esi, 1
	add	rsi, qword ptr [rsp + 128] 
	xor	rsi, rax
	mov	ebp, dword ptr [r10 + 4*rsi]
	mov	eax, dword ptr [rsp + 20]
	mov	edx, eax
	not	edx
	and	edx, 802346015
	and	eax, -802346016
	or	eax, edx
	mov	edx, ebp
	not	edx
	and	edx, 802346015
	and	ebp, -802346016
	or	ebp, edx
	xor	ebp, eax
	mov	r13d, ecx
	mov	r12d, ecx
	mov	edx, ecx
	xor	edx, -64
	and	edx, ecx
	shr	ecx, 24
	mov	eax, ecx
	xor	eax, 192
	and	eax, ecx
	movzx	eax, byte ptr [rax + _ZN5Botan12_GLOBAL__N_1L10SPBOX_CATSE]
	imul	esi, eax, 1879314694
	mov	ebx, ebp
	mov	ecx, ebp
	mov	eax, ebp
	xor	eax, -64
	and	eax, ebp

	shr	ebp, 24
	or	ebp, 64
	and	ebp, 127
	movzx	ebp, byte ptr [rbp + _ZN5Botan12_GLOBAL__N_1L10SPBOX_CATSE]
	imul	edi, ebp, 33628192
	mov	ebp, edi
	not	ebp
	or	ebp, 2076267020
	and	ebp, -71216596
	and	edi, 1081344
	or	edi, ebp
	mov	ebp, esi
	not	ebp
	or	ebp, -88059352
	and	ebp, -71216596
	and	esi, 1024
	or	esi, ebp
	xor	esi, edi
	shr	r13d, 16
	mov	edi, r13d
	xor	edi, 65472
	and	edi, r13d
	mov	r13d, edi
	not	r13d
	and	r13d, 1454277093
	mov	ebp, edi
	and	ebp, 32282
	or	ebp, r13d
	xor	ebp, 1454276965
	and	edi, 128
	or	edi, ebp
	movzx	edi, byte ptr [rdi + _ZN5Botan12_GLOBAL__N_1L10SPBOX_CATSE]
	imul	edi, edi, 9441352
	mov	ebp, edi
	xor	ebp, -134349328
	and	ebp, edi
	mov	edi, esi
	not	edi
	mov	r13d, edi
	and	r13d, 2050433440
	and	esi, -2130672636
	or	esi, r13d
	mov	r13d, ebp
	not	r13d
	or	edi, r13d
	and	r13d, 2050433440
	and	ebp, -2050433448
	or	ebp, r13d
	xor	ebp, esi
	not	edi
	or	edi, ebp
	shr	ebx, 16
	or	ebx, 192
	movzx	esi, bl
	movzx	esi, byte ptr [rsi + _ZN5Botan12_GLOBAL__N_1L10SPBOX_CATSE]
	imul	esi, esi, -1912208863
	mov	ebx, esi
	xor	ebx, -8396930
	and	ebx, esi
	mov	esi, edi
	and	esi, ebx
	xor	ebx, edi
	or	ebx, esi
	shr	r12d, 8
	mov	esi, r12d
	not	esi
	or	esi, -414966464
	and	esi, -414966402
	and	r12d, 1
	or	r12d, esi
	xor	r12d, -414966658
	movzx	esi, byte ptr [r12 + _ZN5Botan12_GLOBAL__N_1L10SPBOX_CATSE]
	imul	edi, esi, 9511232
	and	edi, 1107820800
	mov	esi, ebx
	and	esi, edi
	xor	edi, ebx
	or	edi, esi
	shr	ecx, 8
	or	ecx, 320
	and	ecx, 383
	movzx	ecx, byte ptr [rcx + _ZN5Botan12_GLOBAL__N_1L10SPBOX_CATSE]
	imul	ecx, ecx, -2138828776
	mov	esi, ecx
	xor	esi, -541081624
	and	esi, ecx
	mov	ecx, edi
	and	ecx, esi
	xor	esi, edi
	or	esi, ecx
	mov	ecx, edx
	and	ecx, 384
	xor	edx, 384
	or	edx, ecx
	movzx	ecx, byte ptr [rdx + _ZN5Botan12_GLOBAL__N_1L10SPBOX_CATSE]
	imul	ecx, ecx, -535690750
	mov	edx, ecx
	xor	edx, -69208068
	and	edx, ecx
	mov	ecx, eax
	not	ecx
	and	ecx, -1055861732
	mov	edi, eax
	and	edi, 1055861731
	or	edi, ecx
	xor	edi, -1055861284
	and	eax, 448
	or	eax, edi
	movzx	eax, byte ptr [rax + _ZN5Botan12_GLOBAL__N_1L10SPBOX_CATSE]
	imul	ebx, eax, 2171456
	mov	eax, dword ptr [rsp + 16]
	mov	ecx, edx
	not	ecx
	and	ecx, eax
	not	eax
	and	eax, edx
	or	eax, ecx
	mov	ecx, eax
	not	ecx
	and	ecx, -737109238
	and	eax, 737109237
	or	eax, ecx
	mov	ecx, esi
	not	ecx
	and	ecx, -737109238
	and	esi, 737109237
	or	esi, ecx
	xor	esi, eax
	mov	eax, esi
	not	eax
	and	eax, ebx
	not	ebx
	or	ebx, -268701761
	and	eax, 268701760
	and	ebx, esi
	or	ebx, eax
	mov	eax, ebx
	shr	eax, 4
	shl	esi, 28
	mov	ecx, eax
	not	ecx
	mov	edx, esi
	not	edx
	and	ecx, -899195893
	and	eax, 93889524
	or	eax, ecx
	and	edx, -899195893
	and	esi, 805306368
	or	esi, edx
	xor	esi, eax
	mov	eax, esi
	not	eax
	mov	r13d, dword ptr [r10 + 8*r15 + 8]
	mov	ebp, dword ptr [r10 + 8*r15 + 12]
	and	eax, r13d
	not	r13d
	and	r13d, esi
	or	r13d, eax
	mov	eax, ebx
	not	eax
	and	eax, ebp
	not	ebp
	and	ebp, ebx
	or	ebp, eax
	mov	eax, r13d
	shr	eax, 24
	mov	edx, eax
	xor	edx, 192
	and	edx, eax
	movzx	eax, byte ptr [rdx + _ZN5Botan12_GLOBAL__N_1L10SPBOX_CATSE]
	imul	eax, eax, 1879314694
	mov	r15d, eax
	xor	r15d, -16843782
	and	r15d, eax
	mov	r12d, ebp
	mov	edx, ebp
	mov	eax, ebp
	xor	eax, -64
	and	eax, ebp

	shr	ebp, 24
	mov	esi, ebp
	not	esi
	or	esi, 1577138816
	and	esi, 1577138844
	and	ebp, 35
	or	ebp, esi
	xor	ebp, 1577138908
	movzx	esi, byte ptr [rbp + _ZN5Botan12_GLOBAL__N_1L10SPBOX_CATSE]
	imul	esi, esi, 33628192
	mov	ebp, esi
	xor	ebp, 2146402240
	and	ebp, esi
	mov	esi, ebp
	not	esi
	mov	edi, esi
	and	edi, 1558083714
	and	ebp, -1558083744
	or	ebp, edi
	mov	edi, r15d
	not	edi
	or	esi, edi
	and	edi, 1558083714
	and	r15d, -1558083716
	or	r15d, edi
	xor	r15d, ebp
	not	esi
	or	esi, r15d
	lea	r15, [rsp + 16]
	mov	edi, r13d
	shr	edi, 16
	mov	ebp, edi
	xor	ebp, 65472
	and	ebp, edi
	mov	edi, ebp
	and	edi, 128
	xor	ebp, 128
	or	ebp, edi
	movzx	edi, byte ptr [rbp + _ZN5Botan12_GLOBAL__N_1L10SPBOX_CATSE]
	imul	edi, edi, 9441352
	and	edi, 134349320
	mov	ebp, esi
	and	ebp, edi
	xor	edi, esi
	or	edi, ebp
	shr	r12d, 16
	mov	esi, r12d
	not	esi
	or	esi, -269800320
	and	esi, -269800311
	and	r12d, 54
	or	r12d, esi
	xor	r12d, -269800375
	movzx	esi, byte ptr [r12 + _ZN5Botan12_GLOBAL__N_1L10SPBOX_CATSE]
	lea	r12, [rsp + 20]
	imul	esi, esi, -1912208863
	mov	ebp, edi
	not	ebp
	mov	ecx, ebp
	and	ecx, -480775475
	and	edi, 480775474
	or	edi, ecx
	mov	ecx, esi
	not	ecx
	or	ecx, -8396930
	or	ebp, ecx
	and	ecx, -480775475
	and	esi, 8388608
	or	esi, ecx
	xor	esi, edi
	not	ebp
	or	ebp, esi
	mov	ecx, r13d
	shr	ecx, 8
	or	ecx, 256
	and	ecx, 319
	movzx	ecx, byte ptr [rcx + _ZN5Botan12_GLOBAL__N_1L10SPBOX_CATSE]
	imul	ecx, ecx, 9511232
	and	ecx, 1107820800
	mov	esi, ebp
	and	esi, ecx
	xor	ecx, ebp
	or	ecx, esi
	shr	edx, 8
	mov	esi, edx
	not	esi
	or	esi, 516283392
	and	esi, 516283447
	and	edx, 8
	or	edx, esi
	xor	edx, 516283767
	movzx	edx, byte ptr [rdx + _ZN5Botan12_GLOBAL__N_1L10SPBOX_CATSE]
	imul	edx, edx, -2138828776
	and	edx, 541081616
	mov	esi, ecx
	and	esi, edx
	xor	edx, ecx
	or	edx, esi
	mov	ecx, r13d
	not	ecx
	or	ecx, 1960206144
	and	ecx, 1960206194
	and	r13d, 13
	or	r13d, ecx
	xor	r13d, 1960206066
	movzx	ecx, byte ptr [r13 + _ZN5Botan12_GLOBAL__N_1L10SPBOX_CATSE]
	lea	r13, [rsp + 40]
	imul	ecx, ecx, -535690750
	mov	esi, ecx
	not	esi
	or	esi, 1894280
	mov	edi, eax
	and	edi, 448
	xor	eax, 448
	or	eax, edi
	movzx	eax, byte ptr [rax + _ZN5Botan12_GLOBAL__N_1L10SPBOX_CATSE]
	imul	edi, eax, 2171456
	mov	eax, edi
	xor	eax, 805040000
	and	eax, edi
	mov	edi, dword ptr [rsp + 20]
	and	esi, 69003144
	and	ecx, 2099202
	or	ecx, esi
	mov	esi, edi
	not	esi
	and	esi, 69003144
	and	edi, -69003145
	or	edi, esi
	xor	edi, ecx
	mov	ecx, edi
	not	ecx
	and	ecx, edx
	not	edx
	and	edx, edi
	or	edx, ecx
	mov	ecx, edx
	not	ecx
	and	ecx, eax
	not	eax
	and	eax, edx
	or	eax, ecx
	mov	rcx, qword ptr [rsp + 24]
	add	rcx, 2
.LBB14_96:                              


	mov	edx, -1388454856
	jmp	.LBB14_97
.LBB14_100:                             
	mov	qword ptr [rsp + 24], rcx
	mov	dword ptr [rsp + 20], eax
	mov	dword ptr [rsp + 16], ebx
	mov	rdx, qword ptr [rsp + 24]
	cmp	rdx, 16
	mov	edx, -1872358086
	mov	esi, 1508744705
	cmove	edx, esi
	.p2align	4, 0x90
.LBB14_97:                              


	cmp	edx, -1872358086
	je	.LBB14_101

	cmp	edx, 1508744705
	je	.LBB14_102

	cmp	edx, -1388454856
	jne	.LBB14_97
	jmp	.LBB14_100
.LBB14_145:                             
	movzx	eax, byte ptr [rsp + 14]
	movzx	edx, byte ptr [rsp + 15]
	mov	ebx, eax
	xor	bl, dl
	mov	esi, -262632894
	mov	edi, 799690049
	cmovne	esi, edi
	test	dl, dl
	mov	edx, esi
	cmovne	edx, edi
	test	al, al
	cmove	edx, esi
	.p2align	4, 0x90
.LBB14_50:                              

	cmp	edx, 384865209
	jg	.LBB14_54

	cmp	edx, -1101003971
	je	.LBB14_145

	cmp	edx, -262632894
	jne	.LBB14_50

	mov	edx, 799690049
	jmp	.LBB14_50
	.p2align	4, 0x90
.LBB14_54:                              
	cmp	edx, 384865210
	je	.LBB14_57

	cmp	edx, 799690049
	jne	.LBB14_50

	mov	rax, qword ptr [rbp]
	mov	edx, 128
	add	rax, rdx
	mov	qword ptr [rsp + 24], rax
	mov	edx, ecx
	jmp	.LBB14_50
.LBB14_102:                             
	test	r9d, r11d
	mov	eax, dword ptr [rsp + 16]
	mov	dword ptr [rsp + 40], eax
	mov	eax, dword ptr [rsp + 20]
	mov	dword ptr [rsp + 36], eax
	mov	rax, qword ptr [rsp + 48]
	sete	byte ptr [rsp + 20]
	cmp	r8d, 10
	setl	byte ptr [rsp + 16]
	mov	ecx, -1101003971
	jmp	.LBB14_103
.LBB14_57:                              
	mov	r8, qword ptr [rsp + 24]
	mov	rdi, r12
	mov	rsi, r15
	lea	rdx, [rsp + 36]
	mov	rcx, r13
	call	_ZN5Botan12_GLOBAL__N_114des_decrypt_x2ERjS1_S1_S1_PKj
	mov	rbp, qword ptr [rsp + 48]
	mov	ecx, dword ptr [rip + x.49]
	mov	edx, dword ptr [rip + y.50]
	lea	esi, [rcx - 1]
	imul	esi, ecx
	not	esi
	or	esi, -2
	cmp	esi, -1
	sete	cl
	cmp	edx, 10
	setl	bl
	xor	bl, cl
	mov	edi, -262632894
	mov	eax, 384865210
	cmovne	edi, eax
	cmp	esi, -1
	sete	byte ptr [rsp + 14]
	mov	ecx, edi
	cmove	ecx, eax
	cmp	edx, 10
	setl	byte ptr [rsp + 15]
	cmovge	ecx, edi
	mov	edx, -1101003971
	jmp	.LBB14_58
.LBB14_148:                             
	movzx	ebx, byte ptr [rsp + 20]
	movzx	ecx, byte ptr [rsp + 16]
	mov	edx, ebx
	xor	dl, cl
	mov	edx, -262632894
	mov	esi, 799690049
	cmovne	edx, esi
	test	cl, cl
	mov	ecx, edx
	cmovne	ecx, esi
	test	bl, bl
	cmove	ecx, edx
	.p2align	4, 0x90
.LBB14_103:                             

	cmp	ecx, 384865209
	jg	.LBB14_107

	cmp	ecx, -1101003971
	je	.LBB14_148

	cmp	ecx, -262632894
	jne	.LBB14_103

	mov	ecx, 799690049
	jmp	.LBB14_103
	.p2align	4, 0x90
.LBB14_107:                             
	cmp	ecx, 384865210
	je	.LBB14_110

	cmp	ecx, 799690049
	jne	.LBB14_103

	mov	rcx, qword ptr [rax]
	mov	edx, 128
	add	rcx, rdx
	mov	qword ptr [rsp + 24], rcx
	mov	ecx, r14d
	jmp	.LBB14_103
.LBB14_146:                             
	movzx	eax, byte ptr [rsp + 14]
	movzx	edx, byte ptr [rsp + 15]
	mov	ebx, eax
	xor	bl, dl
	test	dl, dl
	mov	edx, -262632894
	mov	esi, 799690049
	cmovne	edx, esi
	test	al, al
	mov	eax, -262632894
	cmove	edx, eax
	test	bl, bl
	cmovne	edx, esi
	.p2align	4, 0x90
.LBB14_58:                              

	cmp	edx, 384865209
	jg	.LBB14_62

	cmp	edx, -1101003971
	je	.LBB14_146

	cmp	edx, -262632894
	jne	.LBB14_58

	mov	edx, 799690049
	jmp	.LBB14_58
	.p2align	4, 0x90
.LBB14_62:                              
	cmp	edx, 384865210
	je	.LBB14_65

	cmp	edx, 799690049
	jne	.LBB14_58

	mov	rax, qword ptr [rbp]
	mov	edx, 256
	add	rax, rdx
	mov	qword ptr [rsp + 24], rax
	mov	edx, ecx
	jmp	.LBB14_58
.LBB14_110:                             
	mov	rdx, qword ptr [rsp + 24]
	lea	rdi, [rsp + 36]
	mov	rsi, r13
	call	_ZN5Botan12_GLOBAL__N_111des_decryptERjS1_PKj
	mov	rdi, qword ptr [rsp + 48]
	mov	ecx, dword ptr [rip + x.49]
	mov	edx, dword ptr [rip + y.50]
	lea	esi, [rcx - 1]
	imul	esi, ecx
	mov	ecx, esi
	xor	ecx, -2
	and	ecx, esi
	sete	byte ptr [rsp + 20]
	sete	bl
	test	ecx, ecx
	mov	ecx, -262632894
	mov	eax, 384865210
	cmove	ecx, eax
	cmp	edx, 10
	setl	dl
	setl	byte ptr [rsp + 16]
	mov	esi, -262632894
	cmovge	ecx, esi
	xor	dl, bl
	cmovne	ecx, eax
	mov	edx, -1101003971
	jmp	.LBB14_111
.LBB14_65:                              
	mov	r8, qword ptr [rsp + 24]
	mov	rdi, r15
	mov	rsi, r12
	mov	rdx, r13
	lea	rcx, [rsp + 36]
	call	_ZN5Botan12_GLOBAL__N_114des_encrypt_x2ERjS1_S1_S1_PKj
	mov	ecx, dword ptr [rsp + 20]
	mov	eax, ecx
	shr	eax
	shl	ecx, 31
	mov	edx, eax
	not	edx
	and	edx, 321488398
	and	eax, 1825995249
	or	eax, edx
	or	ecx, 321488398
	xor	ecx, eax
	mov	esi, dword ptr [rsp + 16]
	mov	ebx, esi
	not	ebx
	mov	edx, ecx
	and	edx, ebx
	mov	edi, ecx
	not	edi
	mov	eax, esi
	and	eax, edi
	or	eax, edx
	mov	r9d, eax
	xor	r9d, 1431655765
	and	r9d, eax
	mov	eax, r9d
	not	eax
	and	esi, eax
	and	eax, -1892873399
	mov	edx, r9d
	and	edx, 1892873398
	or	edx, eax
	and	edi, -1892873399
	and	ecx, 1892873398
	or	ecx, edi
	xor	ecx, edx
	and	r9d, ebx
	or	r9d, esi
	mov	edx, r9d
	shr	edx, 9
	mov	ebx, r9d
	shl	ebx, 23
	mov	esi, edx
	not	esi
	mov	edi, ebx
	not	edi
	and	esi, -104183706
	and	edx, 3520409
	or	edx, esi
	and	edi, -104183706
	and	ebx, 100663296
	or	ebx, edi
	xor	ebx, edx
	mov	r8d, ebx
	not	r8d
	mov	edx, ecx
	and	edx, r8d
	mov	esi, ecx
	not	esi
	mov	eax, ebx
	and	eax, esi
	or	eax, edx
	mov	edi, eax
	xor	edi, -16711936
	and	edi, eax
	mov	eax, edi
	not	eax
	and	ebx, eax
	and	eax, -1618314663
	mov	edx, edi
	and	edx, 1618314662
	or	edx, eax
	and	esi, -1618314663
	and	ecx, 1618314662
	or	ecx, esi
	xor	ecx, edx
	and	edi, r8d
	or	edi, ebx
	shl	edi, 6
	shr	r9d, 3
	and	r9d, 63
	or	r9d, edi
	mov	edx, r9d
	not	edx
	mov	esi, ecx
	and	esi, edx
	mov	r11d, ecx
	not	r11d
	mov	ebp, r9d
	and	ebp, r11d
	or	ebp, esi
	mov	edi, ebp
	xor	edi, -858993460
	and	edi, ebp
	mov	esi, edi
	not	esi
	and	ecx, esi
	and	r11d, edi
	or	r11d, ecx
	and	esi, r9d
	and	edi, edx
	or	edi, esi
	mov	esi, edi
	rol	esi, 18
	mov	dword ptr [rsp + 16], esi
	mov	ebx, esi
	not	ebx
	mov	ecx, r11d
	and	ecx, ebx
	mov	eax, r11d
	not	eax
	mov	r12d, esi
	and	r12d, eax
	or	r12d, ecx
	mov	ebp, r12d
	not	ebp
	or	ebp, 65535
	mov	ecx, ebp
	and	ecx, -313194185
	mov	edx, r12d
	and	edx, 313131008
	or	edx, ecx
	and	eax, -313194185
	and	r11d, 313194184
	or	r11d, eax
	xor	r11d, edx
	mov	dword ptr [rsp + 20], r11d
	mov	eax, dword ptr [rip + x.121]
	mov	r8d, dword ptr [rip + y.122]
	lea	r10d, [rax - 1]
	imul	r10d, eax
	mov	eax, r10d
	not	eax
	or	eax, -2
	cmp	eax, -1
	sete	cl
	cmp	r8d, 10
	setl	byte ptr [rsp + 15]
	setl	dl
	xor	dl, cl
	mov	ecx, -1292010724
	mov	edx, -1693628638
	cmovne	ecx, edx
	cmp	eax, -1
	sete	byte ptr [rsp + 14]
	mov	r9d, ecx
	cmove	r9d, edx
	cmp	r8d, 10
	cmovge	r9d, ecx
	shl	edi, 6
	and	edi, -1048576
	and	r12d, ebx
	and	ebp, esi
	and	r12d, -65536
	or	r12d, ebp
	and	r10d, 1
	shr	r12d, 12
	or	r12d, edi
	mov	ecx, -732255391
	jmp	.LBB14_66
.LBB14_149:                             
	movzx	eax, byte ptr [rsp + 20]
	movzx	edx, byte ptr [rsp + 16]
	mov	ebx, eax
	xor	bl, dl
	mov	esi, -262632894
	mov	ebp, 799690049
	cmovne	esi, ebp
	test	dl, dl
	mov	edx, esi
	cmovne	edx, ebp
	test	al, al
	cmove	edx, esi
	.p2align	4, 0x90
.LBB14_111:                             

	cmp	edx, 384865209
	jg	.LBB14_115

	cmp	edx, -1101003971
	je	.LBB14_149

	cmp	edx, -262632894
	jne	.LBB14_111

	mov	edx, 799690049
	jmp	.LBB14_111
	.p2align	4, 0x90
.LBB14_115:                             
	cmp	edx, 384865210
	je	.LBB14_118

	cmp	edx, 799690049
	jne	.LBB14_111

	mov	rax, qword ptr [rdi]
	mov	edx, 256
	add	rax, rdx
	mov	qword ptr [rsp + 24], rax
	mov	edx, ecx
	jmp	.LBB14_111
.LBB14_72:                              
	movzx	eax, byte ptr [rsp + 14]
	movzx	ecx, byte ptr [rsp + 15]
	mov	edx, eax
	xor	dl, cl
	test	cl, cl
	mov	ecx, -1292010724
	mov	esi, -354053782
	cmovne	ecx, esi
	test	al, al
	mov	eax, -1292010724
	cmove	ecx, eax
	test	dl, dl
	cmovne	ecx, esi
	.p2align	4, 0x90
.LBB14_66:                              

	mov	esi, ecx
	and	esi, 2147483647
	cmp	esi, 1415228256
	jg	.LBB14_70

	cmp	esi, 453855010
	je	.LBB14_74

	cmp	esi, 855472924
	jne	.LBB14_66

	mov	ecx, -354053782
	jmp	.LBB14_66
	.p2align	4, 0x90
.LBB14_70:                              
	cmp	esi, 1793429866
	je	.LBB14_73

	cmp	esi, 1415228257
	jne	.LBB14_66
	jmp	.LBB14_72
.LBB14_73:                              
	mov	dword ptr [rsp + 24], r12d
	mov	ecx, r9d
	jmp	.LBB14_66
.LBB14_118:                             
	mov	r8, qword ptr [rsp + 24]
	mov	esi, dword ptr [rsp + 40]
	mov	ecx, dword ptr [rsp + 36]
	xor	eax, eax
	jmp	.LBB14_119
.LBB14_74:                              
	mov	ecx, dword ptr [rsp + 24]
	mov	r12d, ecx
	not	r12d
	mov	eax, r11d
	and	eax, r12d
	mov	esi, r11d
	not	esi
	mov	edi, ecx
	and	edi, esi
	or	edi, eax
	mov	eax, edi
	not	eax
	or	eax, 252645135
	and	r12d, edi
	mov	ebx, ecx
	and	ebx, eax
	and	eax, -1026979908
	and	edi, 808480832
	or	edi, eax
	and	esi, -1026979908
	and	r11d, 1026979907
	or	r11d, esi
	xor	r11d, edi
	and	r12d, -252645136
	or	r12d, ebx
	shrd	r12d, ecx, 4
	mov	edi, dword ptr [rsp + 36]
	ror	edi
	mov	esi, dword ptr [rsp + 40]
	mov	ebp, esi
	not	ebp
	mov	eax, ebp
	and	eax, 236388152
	mov	ebx, esi
	and	ebx, -236388153
	or	ebx, eax
	mov	eax, edi
	not	eax
	mov	edx, eax
	and	edx, 236388152
	mov	ecx, edi
	and	ecx, -236388153
	or	ecx, edx
	xor	ecx, ebx
	mov	edx, ecx
	not	edx
	or	edx, 1431655765
	mov	ebx, edx
	and	ebx, -416752442
	mov	r13d, ecx
	and	r13d, 142746152
	or	r13d, ebx
	and	eax, -416752442
	and	edi, 416752441
	or	edi, eax
	xor	edi, r13d
	and	edx, 611265159
	and	ecx, -1971290072
	or	ecx, edx
	and	ebp, 611265159
	and	esi, -611265160
	or	esi, ebp
	xor	esi, ecx
	mov	eax, esi
	shr	eax, 9
	mov	ebp, esi
	shl	ebp, 23
	mov	ecx, eax
	not	ecx
	mov	edx, ebp
	not	edx
	and	ecx, 1946027028
	and	eax, 130027
	or	eax, ecx
	and	edx, 1946027028
	and	ebp, -1946157056
	or	ebp, edx
	xor	ebp, eax
	mov	r13d, ebp
	not	r13d
	mov	eax, edi
	and	eax, r13d
	mov	edx, edi
	not	edx
	mov	ebx, ebp
	and	ebx, edx
	or	ebx, eax
	mov	ecx, ebx
	xor	ecx, -16711936
	and	ecx, ebx
	mov	eax, ecx
	not	eax
	mov	ebx, eax
	and	ebx, -2128274400
	mov	r15d, ecx
	and	r15d, 2128274399
	or	r15d, ebx
	and	edx, -2128274400
	and	edi, 2128274399
	or	edi, edx
	xor	edi, r15d
	and	eax, 64343616
	and	ecx, 2765247
	or	ecx, eax
	and	r13d, 64343616
	and	ebp, 2765247
	or	ebp, r13d
	lea	r13, [rsp + 40]
	xor	ebp, ecx
	shl	ebp, 6
	shr	esi, 3
	mov	eax, esi
	not	eax
	or	eax, -159871360
	mov	ecx, ebp
	not	ecx
	and	ecx, -159871331
	and	ebp, 159871296
	or	ebp, ecx
	and	eax, -159871331
	and	esi, 34
	or	esi, eax
	xor	esi, ebp
	mov	ebp, esi
	not	ebp
	mov	eax, ebp
	and	eax, 1567215288
	mov	ecx, esi
	and	ecx, -1567215289
	or	ecx, eax
	mov	ebx, edi
	not	ebx
	mov	eax, ebx
	and	eax, 1567215288
	mov	edx, edi
	and	edx, -1567215289
	or	edx, eax
	xor	edx, ecx
	mov	eax, edx
	xor	eax, -858993460
	and	eax, edx
	mov	ecx, eax
	not	ecx
	and	edi, ecx
	and	ebx, eax
	or	ebx, edi
	and	ecx, 1193693620
	and	eax, -1193693621
	or	eax, ecx
	and	ebp, 1193693620
	and	esi, -1193693621
	or	esi, ebp
	xor	esi, eax
	mov	edi, esi
	rol	edi, 18
	mov	eax, edi
	not	eax
	mov	edx, ebx
	and	edx, eax
	mov	r15d, ebx
	not	r15d
	mov	ecx, edi
	and	ecx, r15d
	or	ecx, edx
	mov	edx, ecx
	not	edx
	or	edx, 65535
	and	ecx, -65536
	and	ebx, edx
	and	r15d, ecx
	or	r15d, ebx
	and	edx, edi
	and	ecx, eax
	or	ecx, edx
	test	r10d, r10d
	mov	dword ptr [rsp + 20], r11d
	mov	dword ptr [rsp + 16], r12d
	mov	dword ptr [rsp + 40], edi
	mov	dword ptr [rsp + 36], r15d
	sete	byte ptr [rsp + 14]
	cmp	r8d, 10
	setl	byte ptr [rsp + 15]
	shl	esi, 6
	mov	eax, esi
	not	eax
	shr	ecx, 12
	mov	edx, ecx
	not	edx
	or	eax, 359827
	and	edx, -59409005
	and	ecx, 688748
	or	ecx, edx
	and	eax, -59409005
	and	esi, 58720256
	or	esi, eax
	xor	esi, ecx
	mov	ecx, -732255391
	mov	r8, qword ptr [rsp + 144] 
	jmp	.LBB14_75
	.p2align	4, 0x90
.LBB14_124:                             
	mov	eax, dword ptr [rsp + 20]
	mov	ecx, eax
	shr	ecx, 4
	shl	eax, 28
	mov	edx, ecx
	not	edx
	mov	esi, eax
	not	esi
	and	edx, -1696006239
	and	ecx, 85393502
	or	ecx, edx
	and	esi, -1696006239
	and	eax, 1610612736
	or	eax, esi
	xor	eax, ecx
	mov	r9, qword ptr [rsp + 24]
	lea	rsi, [r9 + r9]
	lea	rdi, [8*r9]
	mov	r10, -8
	sub	r10, rdi
	mov	edi, dword ptr [r8 + 8*r9]
	mov	ebp, eax
	not	ebp
	and	ebp, edi
	not	edi
	and	edi, eax
	or	edi, ebp
	mov	rax, rsi
	not	rax
	movabs	rcx, -2679245528514669173
	mov	rbp, rcx
	not	rbp
	and	rax, rcx
	and	rsi, rbp
	or	rsi, rax
	mov	rax, rcx
	movabs	rcx, 4611686018427387902
	and	rax, rcx
	and	ebp, 1
	or	rbp, rax
	xor	rbp, rsi
	mov	ecx, dword ptr [r8 + 4*rbp]
	mov	ebp, dword ptr [rsp + 20]
	mov	eax, ebp
	not	eax
	and	eax, ecx
	not	ecx
	and	ecx, ebp
	or	ecx, eax
	mov	ebp, edi
	mov	r11d, edi
	mov	eax, edi
	xor	eax, -64
	and	eax, edi

	shr	edi, 24
	and	edi, 63
	movzx	edi, byte ptr [rdi + _ZN5Botan12_GLOBAL__N_1L10SPBOX_CATSE]
	imul	edi, edi, 1879314694
	mov	esi, ecx
	shr	esi, 24
	or	esi, 64
	and	esi, 127
	movzx	esi, byte ptr [rsi + _ZN5Botan12_GLOBAL__N_1L10SPBOX_CATSE]
	imul	edx, esi, 33628192
	mov	esi, edx
	xor	esi, 2146402240
	and	esi, edx
	mov	edx, esi
	not	edx
	mov	ebx, edx
	and	ebx, 1942278995
	and	esi, -1942279008
	or	esi, ebx
	mov	ebx, edi
	not	ebx
	or	ebx, -16843781
	or	edx, ebx
	and	ebx, 1942278995
	and	edi, 66564
	or	edi, ebx
	xor	edi, esi
	not	edx
	or	edx, edi
	shr	ebp, 16
	mov	esi, ebp
	not	esi
	or	esi, -2059593600
	and	esi, -2059593560
	and	ebp, 23
	or	ebp, esi
	xor	ebp, -2059593688
	movzx	esi, byte ptr [rbp + _ZN5Botan12_GLOBAL__N_1L10SPBOX_CATSE]
	imul	esi, esi, 9441352
	mov	edi, esi
	xor	edi, -134349328
	and	edi, esi
	mov	esi, edx
	not	esi
	mov	ebx, esi
	and	ebx, -662596614
	and	edx, 662596613
	or	edx, ebx
	mov	ebx, edi
	not	ebx
	or	esi, ebx
	and	ebx, -662596614
	and	edi, 662596608
	or	edi, ebx
	xor	edi, edx
	not	esi
	or	esi, edi
	mov	edx, ecx
	shr	edx, 16
	mov	edi, edx
	xor	edi, 65472
	and	edi, edx
	mov	edx, edi
	not	edx
	and	edx, -1669445314
	mov	ebx, edi
	and	ebx, 46785
	or	ebx, edx
	xor	ebx, -1669445122
	and	edi, 192
	or	edi, ebx
	movzx	edx, byte ptr [rdi + _ZN5Botan12_GLOBAL__N_1L10SPBOX_CATSE]
	imul	edx, edx, -1912208863
	mov	edi, edx
	xor	edi, -8396930
	and	edi, edx
	mov	edx, esi
	not	edx
	mov	ebx, edx
	and	ebx, 915074769
	and	esi, -915074770
	or	esi, ebx
	mov	ebx, edi
	not	ebx
	or	edx, ebx
	and	ebx, 915074769
	and	edi, -915074770
	or	edi, ebx
	xor	edi, esi
	not	edx
	or	edx, edi
	shr	r11d, 8
	mov	esi, r11d
	xor	esi, 16777152
	and	esi, r11d
	mov	edi, esi
	and	edi, 256
	xor	esi, 256
	or	esi, edi
	movzx	esi, byte ptr [rsi + _ZN5Botan12_GLOBAL__N_1L10SPBOX_CATSE]
	imul	esi, esi, 9511232
	and	esi, 1107820800
	mov	edi, edx
	and	edi, esi
	xor	esi, edx
	or	esi, edi
	mov	edx, ecx
	shr	edx, 8
	mov	edi, edx
	not	edi
	or	edi, -1991327872
	and	edi, -1991327837
	and	edx, 28
	or	edx, edi
	xor	edx, -1991328029
	movzx	edx, byte ptr [rdx + _ZN5Botan12_GLOBAL__N_1L10SPBOX_CATSE]
	imul	ebp, edx, -2138828776
	mov	edx, ebp
	not	edx
	or	edx, -541081617
	mov	edi, esi
	not	edi
	mov	ebx, edi
	and	ebx, -1672411111
	and	esi, 1672411110
	or	esi, ebx
	or	edi, edx
	and	edx, -1672411111
	and	ebp, 536887296
	or	ebp, edx
	xor	ebp, esi
	not	edi
	or	edi, ebp
	mov	edx, eax
	and	edx, 384
	xor	eax, 384
	or	eax, edx
	movzx	eax, byte ptr [rax + _ZN5Botan12_GLOBAL__N_1L10SPBOX_CATSE]
	imul	eax, eax, -535690750
	mov	edx, eax
	not	edx
	or	edx, -132536447
	or	ecx, 448
	and	ecx, 511
	movzx	ecx, byte ptr [rcx + _ZN5Botan12_GLOBAL__N_1L10SPBOX_CATSE]
	imul	esi, ecx, 2171456
	mov	ecx, dword ptr [rsp + 16]
	and	edx, -132534399
	and	eax, 69206018
	or	eax, edx
	mov	edx, ecx
	not	edx
	and	edx, -132534399
	and	ecx, 132534398
	or	ecx, edx
	xor	ecx, eax
	mov	eax, ecx
	not	eax
	and	eax, edi
	not	edi
	and	edi, ecx
	or	edi, eax
	mov	eax, edi
	not	eax
	and	eax, esi
	not	esi
	or	esi, -268701761
	and	eax, 268701760
	and	esi, edi
	or	esi, eax
	mov	eax, esi
	shr	eax, 4
	shl	edi, 28
	mov	ecx, eax
	not	ecx
	mov	edx, edi
	not	edx
	and	ecx, 2044239806
	and	eax, 103243841
	or	eax, ecx
	and	edx, 2044239806
	and	edi, -2147483648
	or	edi, edx
	xor	edi, eax
	neg	r10
	mov	edx, dword ptr [r8 + r10]
	mov	eax, edi
	not	eax
	and	eax, 329761554
	and	edi, -329761555
	or	edi, eax
	mov	eax, edx
	not	eax
	and	eax, 329761554
	and	edx, -329761555
	or	edx, eax
	xor	edx, edi
	mov	r9d, dword ptr [r8 + 8*r9 + 12]
	mov	eax, esi
	not	eax
	and	eax, r9d
	not	r9d
	and	r9d, esi
	or	r9d, eax
	mov	eax, edx
	shr	eax, 24
	and	eax, 63
	movzx	eax, byte ptr [rax + _ZN5Botan12_GLOBAL__N_1L10SPBOX_CATSE]
	imul	edi, eax, 1879314694
	mov	eax, edi
	xor	eax, -16843782
	and	eax, edi
	mov	edi, r9d
	shr	edi, 24
	mov	ebp, edi
	xor	ebp, 192
	and	ebp, edi
	mov	edi, ebp
	not	edi
	and	edi, 1237546938
	mov	ebx, ebp
	and	ebx, 69
	or	ebx, edi
	xor	ebx, 1237547002
	and	ebp, 64
	or	ebp, ebx
	movzx	edi, byte ptr [rbp + _ZN5Botan12_GLOBAL__N_1L10SPBOX_CATSE]
	imul	edi, edi, 33628192
	and	edi, -2146402272
	mov	ebp, edi
	and	ebp, eax
	xor	edi, eax
	or	edi, ebp
	mov	eax, edx
	shr	eax, 16
	mov	ebp, eax
	not	ebp
	or	ebp, -528725696
	and	ebp, -528725639
	and	eax, 6
	or	eax, ebp
	xor	eax, -528725511
	movzx	eax, byte ptr [rax + _ZN5Botan12_GLOBAL__N_1L10SPBOX_CATSE]
	imul	ebp, eax, 9441352
	mov	eax, ebp
	xor	eax, -134349328
	and	eax, ebp
	mov	ebp, edi
	and	ebp, eax
	xor	eax, edi
	or	eax, ebp
	mov	edi, r9d
	shr	edi, 16
	mov	ebp, edi
	xor	ebp, 65472
	and	ebp, edi
	mov	edi, ebp
	not	edi
	and	edi, -859233406
	mov	ebx, ebp
	and	ebx, 56445
	or	ebx, edi
	xor	ebx, -859233470
	and	ebp, 192
	or	ebp, ebx
	movzx	edi, byte ptr [rbp + _ZN5Botan12_GLOBAL__N_1L10SPBOX_CATSE]
	imul	ebp, edi, -1912208863
	mov	edi, ebp
	xor	edi, -8396930
	and	edi, ebp
	mov	ebp, eax
	and	ebp, edi
	xor	edi, eax
	or	edi, ebp
	mov	eax, edx
	shr	eax, 8
	mov	ebp, eax
	not	ebp
	or	ebp, 439660736
	and	ebp, 439660781
	and	eax, 18
	or	eax, ebp
	xor	eax, 439661037
	movzx	eax, byte ptr [rax + _ZN5Botan12_GLOBAL__N_1L10SPBOX_CATSE]
	imul	eax, eax, 9511232
	and	eax, 1107820800
	mov	ebp, edi
	and	ebp, eax
	xor	eax, edi
	or	eax, ebp
	mov	edi, r9d
	shr	edi, 8
	mov	ebp, edi
	xor	ebp, 16777152
	and	ebp, edi
	mov	edi, ebp
	and	edi, 320
	xor	ebp, 320
	or	ebp, edi
	movzx	edi, byte ptr [rbp + _ZN5Botan12_GLOBAL__N_1L10SPBOX_CATSE]
	imul	ebp, edi, -2138828776
	mov	edi, ebp
	xor	edi, -541081624
	and	edi, ebp
	mov	ebp, eax
	not	ebp
	mov	ebx, edi
	not	ebx
	mov	ecx, ebp
	and	ecx, -1100394564
	and	eax, 1100394563
	or	eax, ecx
	or	ebp, ebx
	and	ebx, -1100394564
	and	edi, 1100394560
	or	edi, ebx
	xor	edi, eax
	not	ebp
	or	ebp, edi
	mov	eax, edx
	not	eax
	or	eax, -563889280
	and	eax, -563889265
	and	edx, 48
	or	edx, eax
	xor	edx, -563889649
	movzx	eax, byte ptr [rdx + _ZN5Botan12_GLOBAL__N_1L10SPBOX_CATSE]
	imul	ecx, eax, -535690750
	mov	eax, ecx
	xor	eax, -69208068
	and	eax, ecx
	mov	ecx, r9d
	not	ecx
	or	ecx, 1078032512
	and	ecx, 1078032520
	and	r9d, 55
	or	r9d, ecx
	xor	r9d, 1078032712
	movzx	ecx, byte ptr [r9 + _ZN5Botan12_GLOBAL__N_1L10SPBOX_CATSE]
	imul	edx, ecx, 2171456
	mov	ecx, edx
	xor	ecx, 805040000
	and	ecx, edx
	mov	edx, dword ptr [rsp + 20]
	mov	edi, eax
	not	edi
	and	edi, 1414129942
	and	eax, -1414129944
	or	eax, edi
	mov	edi, edx
	not	edi
	and	edi, 1414129942
	and	edx, -1414129943
	or	edx, edi
	xor	edx, eax
	mov	eax, edx
	not	eax
	and	eax, 475258595
	and	edx, -475258596
	or	edx, eax
	mov	eax, ebp
	not	eax
	and	eax, 475258595
	and	ebp, -475258596
	or	ebp, eax
	xor	ebp, edx
	mov	eax, ebp
	not	eax
	and	eax, -151180071
	and	ebp, 151180070
	or	ebp, eax
	mov	eax, ecx
	not	eax
	and	eax, -151180071
	and	ecx, 151180032
	or	ecx, eax
	xor	ecx, ebp
	mov	rax, qword ptr [rsp + 24]
	movabs	rdx, -4627908738125534955
	lea	rax, [rax + rdx + 2]
	sub	rax, rdx
.LBB14_119:                             


	mov	edx, -1388454856
	jmp	.LBB14_120
.LBB14_123:                             
	mov	qword ptr [rsp + 24], rax
	mov	dword ptr [rsp + 20], ecx
	mov	dword ptr [rsp + 16], esi
	mov	rdx, qword ptr [rsp + 24]
	cmp	rdx, 16
	mov	edx, -1872358086
	mov	edi, 1508744705
	cmove	edx, edi
	.p2align	4, 0x90
.LBB14_120:                             


	cmp	edx, -1872358086
	je	.LBB14_124

	cmp	edx, 1508744705
	je	.LBB14_125

	cmp	edx, -1388454856
	jne	.LBB14_120
	jmp	.LBB14_123
.LBB14_81:                              
	movzx	eax, byte ptr [rsp + 14]
	movzx	ecx, byte ptr [rsp + 15]
	mov	edx, eax
	xor	dl, cl
	test	cl, cl
	mov	ecx, -1292010724
	mov	edi, -354053782
	cmovne	ecx, edi
	test	al, al
	mov	eax, -1292010724
	cmove	ecx, eax
	test	dl, dl
	cmovne	ecx, edi
	.p2align	4, 0x90
.LBB14_75:                              

	mov	edi, ecx
	and	edi, 2147483647
	cmp	edi, 1415228256
	jg	.LBB14_79

	cmp	edi, 453855010
	je	.LBB14_83

	cmp	edi, 855472924
	jne	.LBB14_75

	mov	ecx, -354053782
	jmp	.LBB14_75
	.p2align	4, 0x90
.LBB14_79:                              
	cmp	edi, 1793429866
	je	.LBB14_82

	cmp	edi, 1415228257
	jne	.LBB14_75
	jmp	.LBB14_81
.LBB14_82:                              
	mov	dword ptr [rsp + 24], esi
	mov	ecx, r9d
	jmp	.LBB14_75
.LBB14_125:                             
	mov	r8d, dword ptr [rsp + 16]
	mov	esi, dword ptr [rsp + 20]
	ror	esi
	mov	r9d, esi
	not	r9d
	mov	edx, r9d
	and	edx, -1966204478
	mov	edi, esi
	and	edi, 1966204477
	or	edi, edx
	mov	ecx, r8d
	not	ecx
	mov	edx, ecx
	and	edx, -1966204478
	mov	ebp, r8d
	and	ebp, 1966204477
	or	ebp, edx
	xor	ebp, edi
	mov	edx, ebp
	not	edx
	or	edx, 1431655765
	and	r9d, ebp
	and	esi, edx
	and	r9d, -1431655766
	or	r9d, esi
	and	edx, 1549376499
	and	ebp, -1566433272
	or	ebp, edx
	and	ecx, 1549376499
	and	r8d, -1549376500
	or	r8d, ecx
	xor	r8d, ebp
	mov	ecx, r8d
	shr	ecx, 9
	mov	ebx, r8d
	shl	ebx, 23
	mov	esi, ecx
	not	esi
	mov	edi, ebx
	not	edi
	and	esi, 1634950289
	and	ecx, 828270
	or	ecx, esi
	and	edi, 1634950289
	and	ebx, -1635778560
	or	ebx, edi
	xor	ebx, ecx
	mov	esi, ebx
	not	esi
	mov	ecx, r9d
	and	ecx, esi
	mov	edi, r9d
	not	edi
	mov	edx, ebx
	and	edx, edi
	or	edx, ecx
	mov	ecx, edx
	not	ecx
	or	ecx, -16711936
	and	esi, edx
	and	ebx, ecx
	and	ecx, 792321017
	and	edx, 12976134
	or	edx, ecx
	and	edi, 792321017
	and	r9d, -792321018
	or	r9d, edi
	xor	r9d, edx
	and	esi, 16711935
	or	esi, ebx
	shl	esi, 6
	shr	r8d, 3
	mov	ebp, r8d
	xor	ebp, 536870848
	and	ebp, r8d
	mov	ecx, esi
	and	ecx, ebp
	xor	ebp, esi
	or	ebp, ecx
	mov	edx, ebp
	not	edx
	mov	ecx, r9d
	and	ecx, edx
	mov	esi, r9d
	not	esi
	mov	edi, ebp
	and	edi, esi
	or	edi, ecx
	mov	ecx, edi
	not	ecx
	or	ecx, -858993460
	and	edx, edi
	and	ebp, ecx
	and	ecx, 668765981
	and	edi, 270741538
	or	edi, ecx
	and	esi, 668765981
	and	r9d, -668765982
	or	r9d, esi
	xor	r9d, edi
	and	edx, 858993459
	or	edx, ebp
	mov	esi, edx
	shl	esi, 18
	shr	edx, 14
	mov	ecx, esi
	not	ecx
	mov	edi, edx
	not	edi
	and	ecx, 990407236
	and	esi, -990642176
	or	esi, ecx
	and	edi, 990407236
	mov	ecx, edx
	and	ecx, 234939
	or	ecx, edi
	xor	ecx, esi
	mov	dword ptr [rsp + 40], ecx
	mov	r8d, ecx
	not	r8d
	mov	eax, r9d
	and	eax, r8d
	mov	ebp, r9d
	not	ebp
	mov	edi, ecx
	and	edi, ebp
	or	edi, eax
	mov	eax, edi
	not	eax
	or	eax, 65535
	mov	ebx, eax
	and	ebx, -628893215
	mov	esi, edi
	and	esi, 628883456
	or	esi, ebx
	and	ebp, -628893215
	and	r9d, 628893214
	or	r9d, ebp
	xor	r9d, esi
	mov	dword ptr [rsp + 36], r9d
	and	eax, -1468899328
	and	edi, 1468858368
	or	edi, eax
	and	r8d, -1468899328
	and	ecx, 1468895232
	or	ecx, r8d
	xor	ecx, edi
	mov	eax, dword ptr [rip + x.121]
	mov	esi, dword ptr [rip + y.122]
	lea	edi, [rax - 1]
	imul	edi, eax
	not	edi
	or	edi, -2
	shrd	ecx, edx, 12
	cmp	edi, -1
	sete	al
	sete	byte ptr [rsp + 20]
	mov	edx, -1292010724
	mov	edi, -1693628638
	cmove	edx, edi
	cmp	esi, 10
	setl	bl
	setl	byte ptr [rsp + 16]
	mov	esi, -1292010724
	cmovge	edx, esi
	xor	bl, al
	cmovne	edx, edi
	mov	esi, -732255391
	jmp	.LBB14_126
.LBB14_83:                              
	mov	esi, dword ptr [rsp + 24]
	mov	ecx, esi
	not	ecx
	mov	eax, ecx
	and	eax, -655775077
	mov	edx, esi
	and	edx, 655775076
	or	edx, eax
	mov	eax, r15d
	not	eax
	mov	edi, eax
	and	edi, -655775077
	mov	ebp, r15d
	and	ebp, 655775076
	or	ebp, edi
	xor	ebp, edx
	mov	edx, ebp
	not	edx
	or	edx, 252645135
	and	ecx, ebp
	mov	edi, esi
	and	edi, edx
	and	edx, 693192080
	and	ebp, -794775456
	or	ebp, edx
	and	eax, 693192080
	and	r15d, -693192081
	or	r15d, eax
	xor	r15d, ebp
	and	ecx, -252645136
	or	ecx, edi
	shrd	ecx, esi, 4
	mov	rax, qword ptr [rsp + 72]
	bswap	r11d
	mov	dword ptr [rax], r11d
	bswap	r12d
	mov	dword ptr [rax + 4], r12d
	bswap	r15d
	mov	dword ptr [rax + 8], r15d
	bswap	ecx
	mov	dword ptr [rax + 12], ecx
	mov	rax, qword ptr [rsp + 56]
	add	rax, 16
	mov	qword ptr [rsp + 112], rax 
	mov	rax, qword ptr [rsp + 72]
	add	rax, 16
	mov	qword ptr [rsp + 104], rax 
	mov	rax, qword ptr [rsp + 64]
	add	rax, -2
	mov	qword ptr [rsp + 96], rax 
	mov	eax, 32929506
	lea	r15, [rsp + 16]
	lea	r12, [rsp + 20]
	mov	rbp, qword ptr [rsp + 136] 
	jmp	.LBB14_17
.LBB14_132:                             
	movzx	edi, byte ptr [rsp + 20]
	movzx	ebx, byte ptr [rsp + 16]
	mov	eax, edi
	xor	al, bl
	mov	eax, -1292010724
	mov	ebp, -354053782
	cmovne	eax, ebp
	test	bl, bl
	mov	esi, eax
	cmovne	esi, ebp
	test	dil, dil
	cmove	esi, eax
	.p2align	4, 0x90
.LBB14_126:                             

	mov	edi, esi
	and	edi, 2147483647
	cmp	edi, 1415228256
	jg	.LBB14_130

	cmp	edi, 453855010
	je	.LBB14_134

	cmp	edi, 855472924
	jne	.LBB14_126

	mov	esi, -354053782
	jmp	.LBB14_126
	.p2align	4, 0x90
.LBB14_130:                             
	cmp	edi, 1793429866
	je	.LBB14_133

	cmp	edi, 1415228257
	jne	.LBB14_126
	jmp	.LBB14_132
.LBB14_133:                             
	mov	dword ptr [rsp + 24], ecx
	mov	esi, edx
	jmp	.LBB14_126
.LBB14_134:                             
	mov	ecx, dword ptr [rsp + 24]
	mov	esi, ecx
	not	esi
	mov	eax, esi
	and	eax, 1249545668
	mov	edi, ecx
	and	edi, -1249545669
	or	edi, eax
	mov	r8d, r9d
	not	r8d
	mov	eax, r8d
	and	eax, 1249545668
	mov	ebp, r9d
	and	ebp, -1249545669
	or	ebp, eax
	xor	ebp, edi
	mov	eax, ebp
	xor	eax, 252645135
	and	eax, ebp
	mov	edi, eax
	not	edi
	and	r9d, edi
	and	r8d, eax
	or	r8d, r9d
	mov	dword ptr [rsp + 36], r8d
	and	edi, 1953538624
	and	eax, -1953538640
	or	eax, edi
	and	esi, 1953538624
	mov	edi, ecx
	and	edi, -1953538640
	or	edi, esi
	xor	edi, eax
	shr	edi, 4
	shl	ecx, 28
	mov	eax, edi
	not	eax
	mov	esi, ecx
	not	esi
	and	eax, 786778518
	and	edi, 18527849
	or	edi, eax
	and	esi, 786778518
	and	ecx, -805306368
	or	ecx, esi
	xor	ecx, edi
	mov	dword ptr [rsp + 40], ecx
	mov	rbp, qword ptr [rsp + 120]
	mov	esi, dword ptr [rip + x.27]
	mov	edi, esi
	neg	edi
	not	edi
	imul	edi, esi
	mov	esi, edi
	xor	esi, -2
	test	esi, edi
	sete	byte ptr [rsp + 16]
	mov	esi, dword ptr [rip + y.28]
	cmp	esi, 10
	setl	byte ptr [rsp + 24]
	bswap	r8d
	bswap	ecx
	mov	esi, -644910307
	jmp	.LBB14_135
.LBB14_138:                             
	movzx	edx, byte ptr [rsp + 16]
	movzx	eax, byte ptr [rsp + 24]
	mov	ebx, edx
	xor	bl, al
	mov	edi, -266241031
	mov	ebx, 1444073801
	cmovne	edi, ebx
	test	al, al
	mov	esi, edi
	cmovne	esi, ebx
	test	dl, dl
	cmove	esi, edi
	.p2align	4, 0x90
.LBB14_135:                             

	cmp	esi, -266241032
	jg	.LBB14_139

	cmp	esi, -931930484
	je	.LBB14_143

	cmp	esi, -644910307
	jne	.LBB14_135
	jmp	.LBB14_138
	.p2align	4, 0x90
.LBB14_139:                             
	cmp	esi, -266241031
	je	.LBB14_142

	cmp	esi, 1444073801
	jne	.LBB14_135

	mov	dword ptr [rbp], r8d
	mov	dword ptr [rbp + 4], ecx
	mov	eax, dword ptr [rip + x.27]
	lea	edx, [rax - 1]
	imul	edx, eax
	not	edx
	or	edx, -2
	cmp	edx, -1
	sete	al
	mov	esi, -266241031
	mov	ebx, -931930484
	cmove	esi, ebx
	cmp	dword ptr [rip + y.28], 10
	setl	dl
	mov	edi, -266241031
	cmovge	esi, edi
	xor	dl, al
	cmovne	esi, ebx
	jmp	.LBB14_135
.LBB14_142:                             
	mov	dword ptr [rbp], r8d
	mov	dword ptr [rbp + 4], ecx
	mov	esi, 1444073801
	jmp	.LBB14_135
.LBB14_143:                             
	mov	r8, qword ptr [rsp + 88]
	add	r8, 8
	mov	rbp, qword ptr [rsp + 120]
	add	rbp, 8
	mov	r14, qword ptr [rsp + 80]
	dec	r14
	mov	eax, 1742943891
	jmp	.LBB14_17
.LBB14_22:
	add	rsp, 152
	pop	rbx
	pop	r12
	pop	r13
	pop	r14
	pop	r15
	pop	rbp
	ret
.Lfunc_end14:
	.size	_ZNK5Botan9TripleDES9encrypt_nEPKhPhm, .Lfunc_end14-_ZNK5Botan9TripleDES9encrypt_nEPKhPhm
	.cfi_endproc

	.globl	_ZNK5Botan9TripleDES9decrypt_nEPKhPhm 
	.p2align	4, 0x90
	.type	_ZNK5Botan9TripleDES9decrypt_nEPKhPhm,@function
_ZNK5Botan9TripleDES9decrypt_nEPKhPhm:  
	.cfi_startproc

	push	rbp
.Lcfi67:
	.cfi_def_cfa_offset 16
	push	r15
.Lcfi68:
	.cfi_def_cfa_offset 24
	push	r14
.Lcfi69:
	.cfi_def_cfa_offset 32
	push	r13
.Lcfi70:
	.cfi_def_cfa_offset 40
	push	r12
.Lcfi71:
	.cfi_def_cfa_offset 48
	push	rbx
.Lcfi72:
	.cfi_def_cfa_offset 56
	sub	rsp, 136
.Lcfi73:
	.cfi_def_cfa_offset 192
.Lcfi74:
	.cfi_offset rbx, -56
.Lcfi75:
	.cfi_offset r12, -48
.Lcfi76:
	.cfi_offset r13, -40
.Lcfi77:
	.cfi_offset r14, -32
.Lcfi78:
	.cfi_offset r15, -24
.Lcfi79:
	.cfi_offset rbp, -16
	mov	r15, rcx
	mov	qword ptr [rsp + 96], rdx 
	mov	qword ptr [rsp + 104], rsi 
	lea	rax, [rdi + 8]
	mov	qword ptr [rsp + 48], rax
	mov	r10, qword ptr [rsp + 48]
	mov	r8, qword ptr [r10]
	mov	eax, dword ptr [rip + x.419]
	mov	r11d, dword ptr [rip + y.420]
	mov	ebp, eax
	neg	ebp
	not	ebp
	imul	ebp, eax
	mov	esi, ebp
	xor	esi, -2
	mov	eax, esi
	and	eax, ebp
	sete	dl
	sete	byte ptr [rsp + 16]
	test	eax, eax
	mov	ebx, 1722250601
	mov	r9d, 1324114347
	mov	ecx, 1324114347
	cmove	ecx, ebx
	cmp	r11d, 10
	setl	al
	setl	byte ptr [rsp + 24]
	cmovge	ecx, r9d
	xor	al, dl
	cmovne	ecx, ebx
	mov	edx, 114725738
	mov	r9d, 918865027
	jmp	.LBB15_1
.LBB15_4:                               
	mov	edx, ecx
	.p2align	4, 0x90
.LBB15_1:                               
	mov	eax, edx
	and	eax, 2147483647
	cmp	eax, 1324114346
	jle	.LBB15_2

	cmp	eax, 1324114347
	je	.LBB15_13

	cmp	eax, 1722250601
	jne	.LBB15_1
	jmp	.LBB15_7
	.p2align	4, 0x90
.LBB15_2:                               
	cmp	eax, 114725738
	je	.LBB15_12

	cmp	eax, 918865027
	jne	.LBB15_1
	jmp	.LBB15_4
.LBB15_13:                              
	mov	edx, 918865027
	jmp	.LBB15_1
.LBB15_12:                              
	movzx	ebx, byte ptr [rsp + 16]
	movzx	edx, byte ptr [rsp + 24]
	mov	eax, ebx
	xor	al, dl
	mov	eax, 1324114347
	cmovne	eax, r9d
	test	dl, dl
	mov	edx, eax
	cmovne	edx, r9d
	test	bl, bl
	cmove	edx, eax
	jmp	.LBB15_1
.LBB15_7:
	test	esi, ebp
	mov	r9, qword ptr [r10 + 8]
	sete	byte ptr [rsp + 16]
	cmp	r11d, 10
	setl	byte ptr [rsp + 24]
	mov	ebp, 114725738
	mov	esi, 918865027
	jmp	.LBB15_8
.LBB15_11:                              
	mov	ebp, ecx
	.p2align	4, 0x90
.LBB15_8:                               
	mov	eax, ebp
	and	eax, 2147483647
	cmp	eax, 1324114346
	jle	.LBB15_9

	cmp	eax, 1324114347
	je	.LBB15_24

	cmp	eax, 1722250601
	jne	.LBB15_8
	jmp	.LBB15_16
	.p2align	4, 0x90
.LBB15_9:                               
	cmp	eax, 114725738
	je	.LBB15_23

	cmp	eax, 918865027
	jne	.LBB15_8
	jmp	.LBB15_11
.LBB15_24:                              
	mov	ebp, 918865027
	jmp	.LBB15_8
.LBB15_23:                              
	movzx	edx, byte ptr [rsp + 16]
	movzx	ebx, byte ptr [rsp + 24]
	mov	eax, edx
	xor	al, bl
	mov	eax, 1324114347
	cmovne	eax, esi
	test	bl, bl
	mov	ebp, eax
	cmovne	ebp, esi
	test	dl, dl
	cmove	ebp, eax
	jmp	.LBB15_8
.LBB15_16:
	xor	esi, esi
	cmp	r8, r9
	setne	sil
	call	_ZNK5Botan18SymmetricAlgorithm14verify_key_setEb
	mov	eax, -292004364
	lea	r12, [rsp + 40]
	lea	r13, [rsp + 36]



	jmp	.LBB15_17
.LBB15_136:                             
	mov	rax, qword ptr [rsp + 80]
	mov	eax, -1790219125
	.p2align	4, 0x90
.LBB15_17:                              












	cmp	eax, 566579805
	jg	.LBB15_33

	cmp	eax, -1023631270
	jg	.LBB15_25

	cmp	eax, -1984715899
	je	.LBB15_86

	cmp	eax, -1937896038
	je	.LBB15_43

	cmp	eax, -1790219125
	jne	.LBB15_17

	mov	eax, dword ptr [rip + x.51]
	mov	ecx, dword ptr [rip + y.52]
	mov	edx, eax
	neg	edx
	not	edx
	imul	edx, eax
	not	edx
	or	edx, -2
	cmp	edx, -1
	sete	al
	cmp	ecx, 10
	setl	bl
	xor	bl, al
	mov	esi, -1023631269
	mov	edi, 1507224837
	cmovne	esi, edi
	cmp	edx, -1
	mov	eax, esi
	cmove	eax, edi
	cmp	ecx, 10
	cmovge	eax, esi
	cmp	qword ptr [rsp + 80], 0
	setne	byte ptr [rsp + 47]
	jmp	.LBB15_17
	.p2align	4, 0x90
.LBB15_33:                              
	cmp	eax, 1507224836
	jg	.LBB15_38

	cmp	eax, 566579806
	je	.LBB15_83

	cmp	eax, 1036088561
	je	.LBB15_44

	cmp	eax, 1422482269
	jne	.LBB15_17

	mov	rax, qword ptr [rsp + 64]
	mov	eax, -1937896038
	jmp	.LBB15_17
	.p2align	4, 0x90
.LBB15_25:                              
	cmp	eax, -1023631269
	je	.LBB15_136

	cmp	eax, -292004364
	je	.LBB15_42

	cmp	eax, -88908679
	jne	.LBB15_17

	mov	qword ptr [rsp + 120], r9 
	mov	qword ptr [rsp + 128], r8 
	mov	rax, qword ptr [rsp + 56]
	mov	eax, dword ptr [rax]
	bswap	eax
	mov	dword ptr [rsp + 16], eax
	mov	rax, qword ptr [rsp + 56]
	mov	eax, dword ptr [rax + 4]
	bswap	eax
	mov	dword ptr [rsp + 20], eax
	mov	rax, qword ptr [rsp + 56]
	mov	eax, dword ptr [rax + 8]
	bswap	eax
	mov	dword ptr [rsp + 40], eax
	mov	rax, qword ptr [rsp + 56]
	mov	eax, dword ptr [rax + 12]
	bswap	eax
	mov	dword ptr [rsp + 36], eax
	lea	r15, [rsp + 16]
	mov	rdi, r15
	lea	rsi, [rsp + 20]
	call	_ZN5Botan12_GLOBAL__N_16des_IPERjS1_
	mov	rdi, r12
	mov	rsi, r13
	call	_ZN5Botan12_GLOBAL__N_16des_IPERjS1_
	mov	rdi, qword ptr [rsp + 48]
	mov	ecx, dword ptr [rip + x.49]
	mov	edx, dword ptr [rip + y.50]
	lea	esi, [rcx - 1]
	imul	esi, ecx
	not	esi
	or	esi, -2
	cmp	esi, -1
	sete	bl
	sete	byte ptr [rsp + 14]
	mov	ecx, -262632894
	mov	eax, 384865210
	cmove	ecx, eax
	cmp	edx, 10
	setl	dl
	setl	byte ptr [rsp + 15]
	mov	esi, -262632894
	cmovge	ecx, esi
	xor	dl, bl
	cmovne	ecx, eax
	mov	edx, -1101003971
	jmp	.LBB15_29
	.p2align	4, 0x90
.LBB15_38:                              
	cmp	eax, 1507224837
	je	.LBB15_85

	cmp	eax, 1913328669
	je	.LBB15_84

	cmp	eax, 1904581056
	jne	.LBB15_17
	jmp	.LBB15_41
.LBB15_86:                              
	mov	rax, qword ptr [rsp + 88]
	mov	eax, dword ptr [rax]
	bswap	eax
	mov	dword ptr [rsp + 40], eax
	mov	rax, qword ptr [rsp + 88]
	mov	eax, dword ptr [rax + 4]
	bswap	eax
	mov	dword ptr [rsp + 36], eax
	mov	rdi, r12
	mov	rsi, r13
	call	_ZN5Botan12_GLOBAL__N_16des_IPERjS1_
	mov	rbp, qword ptr [rsp + 48]
	mov	ecx, dword ptr [rip + x.49]
	mov	edx, dword ptr [rip + y.50]
	lea	esi, [rcx - 1]
	imul	esi, ecx
	not	esi
	or	esi, -2
	cmp	esi, -1
	sete	cl
	cmp	edx, 10
	setl	bl
	xor	bl, cl
	mov	edi, -262632894
	mov	eax, 384865210
	cmovne	edi, eax
	cmp	esi, -1
	sete	byte ptr [rsp + 20]
	mov	ecx, edi
	cmove	ecx, eax
	cmp	edx, 10
	setl	byte ptr [rsp + 16]
	cmovge	ecx, edi
	mov	edx, -1101003971
	jmp	.LBB15_87
.LBB15_43:                              
	mov	rax, qword ptr [rsp + 64]
	cmp	rax, 1
	seta	byte ptr [rsp + 46]
	mov	eax, dword ptr [rip + x.51]
	lea	ecx, [rax - 1]
	imul	ecx, eax
	mov	eax, ecx
	xor	eax, -2
	and	eax, ecx
	sete	cl
	test	eax, eax
	mov	eax, 1422482269
	mov	esi, 1036088561
	cmove	eax, esi
	cmp	dword ptr [rip + y.52], 10
	setl	dl
	mov	edi, 1422482269
	cmovge	eax, edi
	xor	dl, cl
	cmovne	eax, esi
	jmp	.LBB15_17
.LBB15_83:                              
	mov	r8, qword ptr [rsp + 56]
	mov	r9, qword ptr [rsp + 72]
	mov	eax, 1913328669
	mov	r14, qword ptr [rsp + 64]
	jmp	.LBB15_17
.LBB15_44:                              
	mov	al, byte ptr [rsp + 46]
	test	al, al
	mov	eax, 566579806
	mov	ecx, -88908679
	cmovne	eax, ecx
	jmp	.LBB15_17
.LBB15_42:                              
	mov	eax, dword ptr [rip + x.51]
	mov	ecx, dword ptr [rip + y.52]
	lea	edx, [rax - 1]
	imul	edx, eax
	mov	eax, edx
	xor	eax, -2
	and	eax, edx
	sete	dl
	cmp	ecx, 10
	setl	bl
	xor	bl, dl
	mov	edx, 1422482269
	mov	esi, -1937896038
	cmovne	edx, esi
	test	eax, eax
	mov	eax, edx
	cmove	eax, esi
	cmp	ecx, 10
	mov	qword ptr [rsp + 64], r15
	mov	rcx, qword ptr [rsp + 96] 
	mov	qword ptr [rsp + 72], rcx
	mov	rcx, qword ptr [rsp + 104] 
	mov	qword ptr [rsp + 56], rcx
	cmovge	eax, edx
	jmp	.LBB15_17
.LBB15_137:                             
	movzx	eax, byte ptr [rsp + 14]
	movzx	edx, byte ptr [rsp + 15]
	mov	ebx, eax
	xor	bl, dl
	mov	esi, -262632894
	mov	ebp, 799690049
	cmovne	esi, ebp
	test	dl, dl
	mov	edx, esi
	cmovne	edx, ebp
	test	al, al
	cmove	edx, esi
	.p2align	4, 0x90
.LBB15_29:                              

	cmp	edx, 384865209
	jg	.LBB15_45

	cmp	edx, -1101003971
	je	.LBB15_137

	cmp	edx, -262632894
	jne	.LBB15_29

	mov	edx, 799690049
	jmp	.LBB15_29
	.p2align	4, 0x90
.LBB15_45:                              
	cmp	edx, 384865210
	je	.LBB15_48

	cmp	edx, 799690049
	jne	.LBB15_29

	mov	rax, qword ptr [rdi]
	mov	edx, 256
	add	rax, rdx
	mov	qword ptr [rsp + 24], rax
	mov	edx, ecx
	jmp	.LBB15_29
.LBB15_85:                              
	mov	al, byte ptr [rsp + 47]
	test	al, al
	mov	eax, 1904581056
	mov	ecx, -1984715899
	cmovne	eax, ecx
	jmp	.LBB15_17
.LBB15_84:                              
	mov	eax, dword ptr [rip + x.51]
	mov	ecx, dword ptr [rip + y.52]
	lea	edx, [rax - 1]
	imul	edx, eax
	not	edx
	or	edx, -2
	cmp	edx, -1
	sete	al
	cmp	ecx, 10
	setl	bl
	xor	bl, al
	mov	esi, -1023631269
	mov	edi, -1790219125
	cmovne	esi, edi
	cmp	edx, -1
	mov	eax, esi
	cmove	eax, edi
	cmp	ecx, 10
	mov	qword ptr [rsp + 80], r14
	mov	qword ptr [rsp + 112], r9
	mov	qword ptr [rsp + 88], r8
	cmovge	eax, esi
	jmp	.LBB15_17
.LBB15_140:                             
	movzx	eax, byte ptr [rsp + 20]
	movzx	edx, byte ptr [rsp + 16]
	mov	ebx, eax
	xor	bl, dl
	mov	esi, -262632894
	mov	edi, 799690049
	cmovne	esi, edi
	test	dl, dl
	mov	edx, esi
	cmovne	edx, edi
	test	al, al
	cmove	edx, esi
	.p2align	4, 0x90
.LBB15_87:                              

	cmp	edx, 384865209
	jg	.LBB15_91

	cmp	edx, -1101003971
	je	.LBB15_140

	cmp	edx, -262632894
	jne	.LBB15_87

	mov	edx, 799690049
	jmp	.LBB15_87
	.p2align	4, 0x90
.LBB15_91:                              
	cmp	edx, 384865210
	je	.LBB15_94

	cmp	edx, 799690049
	jne	.LBB15_87

	mov	rax, qword ptr [rbp]
	mov	edx, 256
	add	rax, rdx
	mov	qword ptr [rsp + 24], rax
	mov	edx, ecx
	jmp	.LBB15_87
.LBB15_48:                              
	mov	r8, qword ptr [rsp + 24]
	mov	rdi, r15
	lea	rsi, [rsp + 20]
	mov	rdx, r12
	mov	rcx, r13
	call	_ZN5Botan12_GLOBAL__N_114des_decrypt_x2ERjS1_S1_S1_PKj
	mov	rdi, qword ptr [rsp + 48]
	mov	ecx, dword ptr [rip + x.49]
	mov	edx, dword ptr [rip + y.50]
	lea	esi, [rcx - 1]
	imul	esi, ecx
	mov	ecx, esi
	xor	ecx, -2
	and	ecx, esi
	sete	bl
	sete	byte ptr [rsp + 14]
	cmp	edx, 10
	setl	al
	xor	al, bl
	mov	eax, -262632894
	mov	esi, 384865210
	cmovne	eax, esi
	test	ecx, ecx
	mov	ecx, eax
	cmove	ecx, esi
	cmp	edx, 10
	setl	byte ptr [rsp + 15]
	cmovge	ecx, eax
	mov	edx, -1101003971
	jmp	.LBB15_49
.LBB15_94:                              
	mov	rdx, qword ptr [rsp + 24]
	mov	rdi, r12
	mov	rsi, r13
	call	_ZN5Botan12_GLOBAL__N_111des_decryptERjS1_PKj
	mov	rax, qword ptr [rsp + 48]
	mov	ecx, dword ptr [rip + x.49]
	mov	r8d, dword ptr [rip + y.50]
	lea	r10d, [rcx - 1]
	imul	r10d, ecx
	mov	ecx, r10d
	not	ecx
	or	ecx, -2
	and	r10d, 1
	cmp	ecx, -1
	sete	cl
	sete	byte ptr [rsp + 20]
	mov	r11d, -262632894
	mov	esi, 384865210
	cmove	r11d, esi
	cmp	r8d, 10
	setl	dl
	setl	byte ptr [rsp + 16]
	mov	edi, -262632894
	cmovge	r11d, edi
	xor	dl, cl
	cmovne	r11d, esi
	mov	ecx, -1101003971
	jmp	.LBB15_95
.LBB15_138:                             
	movzx	ebx, byte ptr [rsp + 14]
	movzx	edx, byte ptr [rsp + 15]
	mov	eax, ebx
	xor	al, dl
	mov	eax, -262632894
	mov	esi, 799690049
	cmovne	eax, esi
	test	dl, dl
	mov	edx, eax
	cmovne	edx, esi
	test	bl, bl
	cmove	edx, eax
	.p2align	4, 0x90
.LBB15_49:                              

	cmp	edx, 384865209
	jg	.LBB15_53

	cmp	edx, -1101003971
	je	.LBB15_138

	cmp	edx, -262632894
	jne	.LBB15_49

	mov	edx, 799690049
	jmp	.LBB15_49
	.p2align	4, 0x90
.LBB15_53:                              
	cmp	edx, 384865210
	je	.LBB15_56

	cmp	edx, 799690049
	jne	.LBB15_49

	mov	rax, qword ptr [rdi]
	mov	edx, 128
	add	rax, rdx
	mov	qword ptr [rsp + 24], rax
	mov	edx, ecx
	jmp	.LBB15_49
.LBB15_141:                             
	movzx	ebx, byte ptr [rsp + 20]
	movzx	ecx, byte ptr [rsp + 16]
	mov	edx, ebx
	xor	dl, cl
	mov	edx, -262632894
	mov	esi, 799690049
	cmovne	edx, esi
	test	cl, cl
	mov	ecx, edx
	cmovne	ecx, esi
	test	bl, bl
	cmove	ecx, edx
	.p2align	4, 0x90
.LBB15_95:                              

	cmp	ecx, 384865209
	jg	.LBB15_99

	cmp	ecx, -1101003971
	je	.LBB15_141

	cmp	ecx, -262632894
	jne	.LBB15_95

	mov	ecx, 799690049
	jmp	.LBB15_95
	.p2align	4, 0x90
.LBB15_99:                              
	cmp	ecx, 384865210
	je	.LBB15_102

	cmp	ecx, 799690049
	jne	.LBB15_95

	mov	rcx, qword ptr [rax]
	mov	edx, 128
	add	rcx, rdx
	mov	qword ptr [rsp + 24], rcx
	mov	ecx, r11d
	jmp	.LBB15_95
.LBB15_56:                              
	mov	r8, qword ptr [rsp + 24]
	lea	rdi, [rsp + 20]
	mov	rsi, r15
	mov	rdx, r13
	mov	rcx, r12
	call	_ZN5Botan12_GLOBAL__N_114des_encrypt_x2ERjS1_S1_S1_PKj
	mov	rbp, qword ptr [rsp + 48]
	mov	ecx, dword ptr [rip + x.49]
	mov	edx, dword ptr [rip + y.50]
	lea	esi, [rcx - 1]
	imul	esi, ecx
	not	esi
	or	esi, -2
	cmp	esi, -1
	sete	cl
	cmp	edx, 10
	setl	bl
	xor	bl, cl
	mov	edi, -262632894
	mov	eax, 384865210
	cmovne	edi, eax
	cmp	esi, -1
	sete	byte ptr [rsp + 14]
	mov	ecx, edi
	cmove	ecx, eax
	cmp	edx, 10
	setl	byte ptr [rsp + 15]
	cmovge	ecx, edi
	mov	edx, -1101003971
	jmp	.LBB15_57
.LBB15_102:                             
	mov	r9, qword ptr [rsp + 24]
	mov	r13d, dword ptr [rsp + 36]
	mov	eax, dword ptr [rsp + 40]
	xor	ecx, ecx
	jmp	.LBB15_103
.LBB15_139:                             
	movzx	eax, byte ptr [rsp + 14]
	movzx	edx, byte ptr [rsp + 15]
	mov	ebx, eax
	xor	bl, dl
	test	dl, dl
	mov	edx, -262632894
	mov	esi, 799690049
	cmovne	edx, esi
	test	al, al
	mov	eax, -262632894
	cmove	edx, eax
	test	bl, bl
	cmovne	edx, esi
	.p2align	4, 0x90
.LBB15_57:                              

	cmp	edx, 384865209
	jg	.LBB15_61

	cmp	edx, -1101003971
	je	.LBB15_139

	cmp	edx, -262632894
	jne	.LBB15_57

	mov	edx, 799690049
	jmp	.LBB15_57
	.p2align	4, 0x90
.LBB15_61:                              
	cmp	edx, 384865210
	je	.LBB15_64

	cmp	edx, 799690049
	jne	.LBB15_57

	mov	rax, qword ptr [rbp]
	mov	qword ptr [rsp + 24], rax
	mov	edx, ecx
	jmp	.LBB15_57
	.p2align	4, 0x90
.LBB15_108:                             
	mov	eax, dword ptr [rsp + 20]
	rol	eax, 28
	mov	r14, qword ptr [rsp + 24]
	mov	edx, eax
	not	edx
	mov	r13d, dword ptr [r9 + 8*r14]
	mov	ecx, dword ptr [r9 + 8*r14 + 4]
	and	edx, r13d
	not	r13d
	and	r13d, eax
	or	r13d, edx
	mov	eax, dword ptr [rsp + 20]
	mov	edx, eax
	not	edx
	and	edx, -1332348879
	and	eax, 1332348878
	or	eax, edx
	mov	edx, ecx
	not	edx
	and	edx, -1332348879
	and	ecx, 1332348878
	or	ecx, edx
	xor	ecx, eax
	mov	eax, r13d
	shr	eax, 24
	and	eax, 63
	movzx	eax, byte ptr [rax + _ZN5Botan12_GLOBAL__N_1L10SPBOX_CATSE]
	imul	r12d, eax, 1879314694
	mov	esi, ecx
	mov	edx, ecx
	mov	eax, ecx
	xor	eax, -64
	and	eax, ecx
	shr	ecx, 24
	mov	ebx, ecx
	xor	ebx, 192
	and	ebx, ecx
	mov	ecx, ebx
	not	ecx
	and	ecx, -537475727
	mov	ebp, ebx
	and	ebp, 142
	or	ebp, ecx
	mov	ecx, r12d
	not	ecx
	or	ecx, -897672206
	xor	ebp, -537475791
	and	ebx, 64
	or	ebx, ebp
	movzx	ebx, byte ptr [rbx + _ZN5Botan12_GLOBAL__N_1L10SPBOX_CATSE]
	imul	ebx, ebx, 33628192
	not	ebx
	or	ebx, 1248730070
	and	ebx, -897672202
	and	ecx, -897672202
	and	r12d, 16843776
	or	r12d, ecx
	xor	r12d, ebx
	mov	ecx, r13d
	shr	ecx, 16
	mov	ebx, ecx
	not	ebx
	or	ebx, 332730944
	and	ebx, 332730946
	and	ecx, 61
	or	ecx, ebx
	xor	ecx, 332731074
	movzx	ecx, byte ptr [rcx + _ZN5Botan12_GLOBAL__N_1L10SPBOX_CATSE]
	imul	ecx, ecx, 9441352
	mov	ebx, ecx
	xor	ebx, -134349328
	and	ebx, ecx
	mov	ecx, r12d
	and	ecx, ebx
	xor	ebx, r12d
	or	ebx, ecx
	shr	esi, 16
	mov	ecx, esi
	not	ecx
	or	ecx, 2009868992
	and	ecx, 2009869046
	and	esi, 9
	or	esi, ecx
	xor	esi, 2009868854
	movzx	ecx, byte ptr [rsi + _ZN5Botan12_GLOBAL__N_1L10SPBOX_CATSE]
	imul	ecx, ecx, -1912208863
	mov	esi, ecx
	xor	esi, -8396930
	and	esi, ecx
	mov	ecx, ebx
	not	ecx
	mov	ebp, esi
	not	ebp
	mov	edi, ecx
	and	edi, 508749011
	and	ebx, -508749012
	or	ebx, edi
	or	ecx, ebp
	and	ebp, 508749011
	and	esi, -508749012
	or	esi, ebp
	xor	esi, ebx
	not	ecx
	or	ecx, esi
	mov	esi, r13d
	shr	esi, 8
	mov	edi, esi
	xor	edi, 16777152
	and	edi, esi
	mov	esi, edi
	and	esi, 256
	xor	edi, 256
	or	edi, esi
	movzx	esi, byte ptr [rdi + _ZN5Botan12_GLOBAL__N_1L10SPBOX_CATSE]
	imul	esi, esi, 9511232
	mov	edi, esi
	not	edi
	or	edi, -1107820801
	mov	ebx, ecx
	not	ebx
	mov	ebp, ebx
	and	ebp, 410640039
	and	ecx, -410640040
	or	ecx, ebp
	or	ebx, edi
	and	edi, 410640039
	and	esi, 1107296512
	or	esi, edi
	xor	esi, ecx
	not	ebx
	or	ebx, esi
	shr	edx, 8
	mov	ecx, edx
	not	ecx
	or	ecx, -1599787136
	and	ecx, -1599787095
	and	edx, 22
	or	edx, ecx
	xor	edx, -1599787287
	movzx	ecx, byte ptr [rdx + _ZN5Botan12_GLOBAL__N_1L10SPBOX_CATSE]
	imul	edx, ecx, -2138828776
	mov	ecx, edx
	xor	ecx, -541081624
	and	ecx, edx
	mov	edx, ebx
	and	edx, ecx
	xor	ecx, ebx
	or	ecx, edx
	or	r13d, 384
	and	r13d, 447
	movzx	edx, byte ptr [r13 + _ZN5Botan12_GLOBAL__N_1L10SPBOX_CATSE]
	imul	edx, edx, -535690750
	mov	esi, edx
	not	esi
	or	esi, -1694411572
	mov	edi, eax
	and	edi, 448
	xor	eax, 448
	or	eax, edi
	movzx	eax, byte ptr [rax + _ZN5Botan12_GLOBAL__N_1L10SPBOX_CATSE]
	imul	eax, eax, 2171456
	mov	r13d, eax
	xor	r13d, 805040000
	and	r13d, eax
	mov	eax, dword ptr [rsp + 16]
	and	esi, -1625205556
	and	edx, 2050
	or	edx, esi
	mov	esi, eax
	not	esi
	and	esi, -1625205556
	and	eax, 1625205555
	or	eax, esi
	xor	eax, edx
	mov	edx, eax
	not	edx
	and	edx, ecx
	not	ecx
	and	ecx, eax
	or	ecx, edx
	mov	eax, ecx
	not	eax
	and	eax, r13d
	not	r13d
	and	r13d, ecx
	or	r13d, eax
	mov	eax, r13d
	shr	eax, 4
	shl	ecx, 28
	mov	edx, eax
	not	edx
	mov	esi, ecx
	not	esi
	and	edx, -2142297897
	and	eax, 263249704
	or	eax, edx
	and	esi, -2142297897
	and	ecx, 1879048192
	or	ecx, esi
	xor	ecx, eax
	mov	ebp, dword ptr [r9 + 8*r14 + 8]
	mov	eax, ecx
	not	eax
	and	eax, ebp
	not	ebp
	and	ebp, ecx
	or	ebp, eax
	movabs	rax, 1001482677649596515
	mov	rcx, rax
	lea	rax, [rcx + 2*r14 + 3]
	sub	rax, rcx
	mov	ecx, dword ptr [r9 + 4*rax]
	mov	eax, r13d
	not	eax
	and	eax, ecx
	not	ecx
	and	ecx, r13d
	or	ecx, eax
	mov	eax, ebp
	shr	eax, 24
	mov	edx, eax
	xor	edx, 192
	and	edx, eax
	movzx	eax, byte ptr [rdx + _ZN5Botan12_GLOBAL__N_1L10SPBOX_CATSE]
	imul	eax, eax, 1879314694
	mov	ebx, eax
	xor	ebx, -16843782
	and	ebx, eax
	mov	r14d, ecx
	mov	r12d, ecx
	mov	eax, ecx
	xor	eax, -64
	and	eax, ecx

	shr	ecx, 24
	mov	esi, ecx
	not	esi
	or	esi, 1571080000
	and	esi, 1571080004
	and	ecx, 59
	or	ecx, esi
	xor	ecx, 1571079940
	movzx	ecx, byte ptr [rcx + _ZN5Botan12_GLOBAL__N_1L10SPBOX_CATSE]
	imul	ecx, ecx, 33628192
	mov	esi, ecx
	not	esi
	or	esi, 2146402271
	mov	edx, esi
	and	edx, -1076896178
	and	ecx, 1048608
	or	ecx, edx
	mov	edx, ebx
	not	edx
	or	esi, edx
	and	edx, -1076896178
	and	ebx, 1076896176
	or	ebx, edx
	xor	ebx, ecx
	not	esi
	or	esi, ebx
	mov	ecx, ebp
	shr	ecx, 16
	mov	edx, ecx
	xor	edx, 65472
	and	edx, ecx
	mov	ecx, edx
	and	ecx, 128
	xor	edx, 128
	or	edx, ecx
	movzx	ecx, byte ptr [rdx + _ZN5Botan12_GLOBAL__N_1L10SPBOX_CATSE]
	imul	ecx, ecx, 9441352
	mov	edx, esi
	not	edx
	mov	ebx, edx
	and	ebx, 292449807
	and	esi, -292449808
	or	esi, ebx
	mov	ebx, ecx
	not	ebx
	or	ebx, -134349321
	or	edx, ebx
	and	ebx, 292449807
	and	ecx, 134217728
	or	ecx, ebx
	xor	ecx, esi
	not	edx
	or	edx, ecx
	shr	r14d, 16
	mov	ecx, r14d
	xor	ecx, 65472
	and	ecx, r14d
	mov	esi, ecx
	not	esi
	and	esi, 127559645
	mov	ebx, ecx
	and	ebx, 38946
	or	ebx, esi
	xor	ebx, 127559453
	and	ecx, 192
	or	ecx, ebx
	movzx	ecx, byte ptr [rcx + _ZN5Botan12_GLOBAL__N_1L10SPBOX_CATSE]
	imul	ecx, ecx, -1912208863
	mov	esi, ecx
	xor	esi, -8396930
	and	esi, ecx
	mov	ecx, edx
	not	ecx
	mov	ebx, ecx
	and	ebx, -231859487
	and	edx, 231859486
	or	edx, ebx
	mov	ebx, esi
	not	ebx
	or	ecx, ebx
	and	ebx, -231859487
	and	esi, 231859486
	or	esi, ebx
	xor	esi, edx
	not	ecx
	or	ecx, esi
	mov	edx, ebp
	shr	edx, 8
	mov	esi, edx
	xor	esi, 16777152
	and	esi, edx
	mov	edx, esi
	not	edx
	and	edx, -579675934
	mov	ebx, esi
	and	ebx, 9250589
	or	ebx, edx
	xor	ebx, -579675678
	and	esi, 256
	or	esi, ebx
	movzx	edx, byte ptr [rsi + _ZN5Botan12_GLOBAL__N_1L10SPBOX_CATSE]
	imul	edx, edx, 9511232
	and	edx, 1107820800
	mov	esi, ecx
	and	esi, edx
	xor	edx, ecx
	or	edx, esi
	shr	r12d, 8
	mov	ecx, r12d
	xor	ecx, 16777152
	and	ecx, r12d
	lea	r12, [rsp + 40]
	mov	esi, ecx
	not	esi
	and	esi, 583154453
	mov	ebx, ecx
	and	ebx, 4048106
	or	ebx, esi
	xor	ebx, 583154261
	and	ecx, 320
	or	ecx, ebx
	movzx	ecx, byte ptr [rcx + _ZN5Botan12_GLOBAL__N_1L10SPBOX_CATSE]
	imul	esi, ecx, -2138828776
	mov	ecx, esi
	xor	ecx, -541081624
	and	ecx, esi
	mov	esi, edx
	and	esi, ecx
	xor	ecx, edx
	or	ecx, esi
	mov	edx, ebp
	not	edx
	or	edx, -1755458048
	and	edx, -1755458010
	and	ebp, 25
	or	ebp, edx
	xor	ebp, -1755457626
	movzx	edx, byte ptr [rbp + _ZN5Botan12_GLOBAL__N_1L10SPBOX_CATSE]
	imul	edx, edx, -535690750
	mov	esi, dword ptr [rsp + 20]
	mov	ebx, esi
	not	ebx
	and	ebx, edx
	not	edx
	or	edx, -69208067
	mov	ebp, eax
	not	ebp
	and	ebp, 843617617
	mov	edi, eax
	and	edi, -843617618
	or	edi, ebp
	xor	edi, 843617425
	and	eax, 448
	or	eax, edi
	movzx	eax, byte ptr [rax + _ZN5Botan12_GLOBAL__N_1L10SPBOX_CATSE]
	imul	edi, eax, 2171456
	mov	eax, edi
	xor	eax, 805040000
	and	eax, edi
	and	edx, esi
	and	ebx, 69208066
	or	ebx, edx
	mov	edx, ebx
	not	edx
	and	edx, ecx
	not	ecx
	and	ecx, ebx
	or	ecx, edx
	mov	edx, ecx
	not	edx
	and	edx, -68901715
	and	ecx, 68901714
	or	ecx, edx
	mov	edx, eax
	not	edx
	and	edx, -68901715
	and	eax, 68901696
	or	eax, edx
	xor	eax, ecx
	mov	rcx, qword ptr [rsp + 24]
	add	rcx, 2
.LBB15_103:                             


	mov	edx, -1388454856
	jmp	.LBB15_104
.LBB15_107:                             
	mov	qword ptr [rsp + 24], rcx
	mov	dword ptr [rsp + 20], eax
	mov	dword ptr [rsp + 16], r13d
	mov	rdx, qword ptr [rsp + 24]
	cmp	rdx, 16
	mov	edx, -1872358086
	mov	esi, 1508744705
	cmove	edx, esi
	.p2align	4, 0x90
.LBB15_104:                             


	cmp	edx, -1872358086
	je	.LBB15_108

	cmp	edx, 1508744705
	je	.LBB15_109

	cmp	edx, -1388454856
	jne	.LBB15_104
	jmp	.LBB15_107
.LBB15_64:                              
	mov	r8, qword ptr [rsp + 24]
	mov	rdi, r15
	lea	rsi, [rsp + 20]
	mov	rdx, r12
	mov	rcx, r13
	call	_ZN5Botan12_GLOBAL__N_114des_decrypt_x2ERjS1_S1_S1_PKj
	mov	ebp, dword ptr [rsp + 20]
	ror	ebp
	mov	ecx, dword ptr [rsp + 16]
	mov	edx, ecx
	not	edx
	mov	eax, edx
	and	eax, -2068667244
	mov	edi, ecx
	and	edi, 2068667243
	or	edi, eax
	mov	r11d, ebp
	not	r11d
	mov	eax, r11d
	and	eax, -2068667244
	mov	esi, ebp
	and	esi, 2068667243
	or	esi, eax
	xor	esi, edi
	mov	eax, esi
	xor	eax, 1431655765
	and	eax, esi
	mov	esi, eax
	not	esi
	and	ebp, esi
	and	r11d, eax
	or	r11d, ebp
	and	esi, 1842372213
	and	eax, -1842372214
	or	eax, esi
	and	edx, 1842372213
	and	ecx, -1842372214
	or	ecx, edx
	xor	ecx, eax
	mov	esi, ecx
	rol	esi, 23
	mov	r8d, esi
	not	r8d
	mov	eax, r8d
	and	eax, -667878685
	mov	edi, esi
	and	edi, 667878684
	or	edi, eax
	mov	eax, r11d
	not	eax
	mov	ebp, eax
	and	ebp, -667878685
	mov	ebx, r11d
	and	ebx, 667878684
	or	ebx, ebp
	xor	ebx, edi
	mov	edi, ebx
	xor	edi, -16711936
	and	edi, ebx
	mov	ebp, edi
	not	ebp
	mov	ebx, ebp
	and	ebx, 1331515512
	mov	edx, edi
	and	edx, -1331515513
	or	edx, ebx
	and	eax, 1331515512
	and	r11d, -1331515513
	or	r11d, eax
	xor	r11d, edx
	and	ebp, 35251083
	and	edi, 31857780
	or	edi, ebp
	and	r8d, 35251083
	and	esi, 31857780
	or	esi, r8d
	xor	esi, edi
	shl	esi, 6
	shr	ecx, 3
	mov	edx, ecx
	xor	edx, 536870848
	and	edx, ecx
	mov	eax, esi
	and	eax, edx
	xor	edx, esi
	or	edx, eax
	mov	ecx, edx
	not	ecx
	mov	eax, ecx
	and	eax, -1106673181
	mov	edi, edx
	and	edi, 1106673180
	or	edi, eax
	mov	eax, r11d
	not	eax
	mov	ebp, eax
	and	ebp, -1106673181
	mov	esi, r11d
	and	esi, 1106673180
	or	esi, ebp
	xor	esi, edi
	mov	edi, esi
	not	edi
	or	edi, -858993460
	mov	ebp, edi
	and	ebp, 519609294
	mov	ebx, esi
	and	ebx, 553852977
	or	ebx, ebp
	and	eax, 519609294
	and	r11d, -519609295
	or	r11d, eax
	xor	r11d, ebx
	and	edi, 1584434533
	and	esi, 553857554
	or	esi, edi
	and	ecx, 1584434533
	and	edx, -1584434534
	or	edx, ecx
	xor	edx, esi
	mov	esi, edx
	shl	esi, 6
	and	esi, -1048576
	rol	edx, 18
	mov	dword ptr [rsp + 16], edx
	mov	ecx, edx
	not	ecx
	mov	eax, ecx
	and	eax, -487749798
	mov	edi, edx
	and	edi, 487749797
	or	edi, eax
	mov	ebp, r11d
	not	ebp
	mov	eax, ebp
	and	eax, -487749798
	mov	ebx, r11d
	and	ebx, 487749797
	or	ebx, eax
	xor	ebx, edi
	mov	eax, ebx
	not	eax
	or	eax, 65535
	and	ecx, ebx
	and	edx, eax
	and	eax, 1178311121
	and	ebx, -1178337280
	or	ebx, eax
	and	ebp, 1178311121
	and	r11d, -1178311122
	or	r11d, ebp
	xor	r11d, ebx
	mov	dword ptr [rsp + 20], r11d
	and	ecx, -65536
	or	ecx, edx
	mov	eax, dword ptr [rip + x.121]
	mov	r8d, dword ptr [rip + y.122]
	lea	r9d, [rax - 1]
	imul	r9d, eax
	mov	eax, r9d
	not	eax
	or	eax, -2
	and	r9d, 1
	shr	ecx, 12
	or	ecx, esi
	cmp	eax, -1
	sete	al
	sete	byte ptr [rsp + 14]
	mov	r10d, -1292010724
	mov	esi, -1693628638
	cmove	r10d, esi
	cmp	r8d, 10
	setl	dl
	setl	byte ptr [rsp + 15]
	mov	edi, -1292010724
	cmovge	r10d, edi
	xor	dl, al
	cmovne	r10d, esi
	mov	esi, -732255391
	jmp	.LBB15_65
.LBB15_109:                             
	test	r10d, r10d
	mov	eax, dword ptr [rsp + 16]
	mov	dword ptr [rsp + 36], eax
	mov	eax, dword ptr [rsp + 20]
	mov	dword ptr [rsp + 40], eax
	mov	rax, qword ptr [rsp + 48]
	sete	byte ptr [rsp + 20]
	cmp	r8d, 10
	setl	byte ptr [rsp + 16]
	mov	ecx, -1101003971
	lea	r13, [rsp + 36]
	jmp	.LBB15_110
.LBB15_71:                              
	movzx	ebx, byte ptr [rsp + 14]
	movzx	edx, byte ptr [rsp + 15]
	mov	eax, ebx
	xor	al, dl
	test	dl, dl
	mov	esi, -1292010724
	mov	edi, -354053782
	cmovne	esi, edi
	test	bl, bl
	mov	edx, -1292010724
	cmove	esi, edx
	test	al, al
	cmovne	esi, edi
	.p2align	4, 0x90
.LBB15_65:                              

	mov	edx, esi
	and	edx, 2147483647
	cmp	edx, 1415228256
	jg	.LBB15_69

	cmp	edx, 453855010
	je	.LBB15_73

	cmp	edx, 855472924
	jne	.LBB15_65

	mov	esi, -354053782
	jmp	.LBB15_65
	.p2align	4, 0x90
.LBB15_69:                              
	cmp	edx, 1793429866
	je	.LBB15_72

	cmp	edx, 1415228257
	jne	.LBB15_65
	jmp	.LBB15_71
.LBB15_72:                              
	mov	dword ptr [rsp + 24], ecx
	mov	esi, r10d
	jmp	.LBB15_65
.LBB15_142:                             
	movzx	ebx, byte ptr [rsp + 20]
	movzx	ecx, byte ptr [rsp + 16]
	mov	edx, ebx
	xor	dl, cl
	test	cl, cl
	mov	ecx, -262632894
	mov	edi, 799690049
	cmovne	ecx, edi
	test	bl, bl
	mov	esi, -262632894
	cmove	ecx, esi
	test	dl, dl
	cmovne	ecx, edi
	.p2align	4, 0x90
.LBB15_110:                             

	cmp	ecx, 384865209
	jg	.LBB15_114

	cmp	ecx, -1101003971
	je	.LBB15_142

	cmp	ecx, -262632894
	jne	.LBB15_110

	mov	ecx, 799690049
	jmp	.LBB15_110
	.p2align	4, 0x90
.LBB15_114:                             
	cmp	ecx, 384865210
	je	.LBB15_117

	cmp	ecx, 799690049
	jne	.LBB15_110

	mov	rcx, qword ptr [rax]
	mov	qword ptr [rsp + 24], rcx
	mov	ecx, r11d
	jmp	.LBB15_110
.LBB15_73:                              
	mov	esi, dword ptr [rsp + 24]
	mov	r15d, esi
	not	r15d
	mov	eax, r11d
	and	eax, r15d
	mov	edx, r11d
	not	edx
	mov	edi, esi
	and	edi, edx
	or	edi, eax
	mov	eax, edi
	not	eax
	or	eax, 252645135
	and	r15d, edi
	mov	ebx, esi
	and	ebx, eax
	and	eax, -1747087105
	and	edi, 1612734464
	or	edi, eax
	and	edx, -1747087105
	and	r11d, 1747087104
	or	r11d, edx
	xor	r11d, edi
	and	r15d, -252645136
	or	r15d, ebx
	shrd	r15d, esi, 4
	mov	eax, dword ptr [rsp + 36]
	ror	eax
	mov	ebp, dword ptr [rsp + 40]
	mov	edx, ebp
	not	edx
	mov	edi, eax
	and	edi, edx
	mov	r13d, eax
	not	r13d
	mov	ebx, ebp
	and	ebx, r13d
	or	ebx, edi
	mov	edi, ebx
	xor	edi, 1431655765
	and	edi, ebx
	mov	ebx, edi
	not	ebx
	and	eax, ebx
	and	r13d, edi
	or	r13d, eax
	and	ebx, 1465925192
	and	edi, -1465925193
	or	edi, ebx
	and	edx, 1465925192
	and	ebp, -1465925193
	or	ebp, edx
	xor	ebp, edi
	mov	eax, ebp
	shr	eax, 9
	mov	edi, ebp
	shl	edi, 23
	mov	edx, eax
	not	edx
	mov	ebx, edi
	not	ebx
	and	edx, -118615362
	and	eax, 1174849
	or	eax, edx
	and	ebx, -118615362
	and	edi, 117440512
	or	edi, ebx
	xor	edi, eax
	mov	ebx, edi
	not	ebx
	mov	eax, ebx
	and	eax, -1734819503
	mov	edx, edi
	and	edx, 1734819502
	or	edx, eax
	mov	eax, r13d
	not	eax
	mov	ecx, eax
	and	ecx, -1734819503
	mov	esi, r13d
	and	esi, 1734819502
	or	esi, ecx
	xor	esi, edx
	mov	edx, esi
	xor	edx, -16711936
	and	edx, esi
	mov	ecx, edx
	not	ecx
	mov	esi, ecx
	and	esi, -1926073740
	mov	r12d, edx
	and	r12d, 1926073739
	or	r12d, esi
	and	eax, -1926073740
	and	r13d, 1926073739
	or	r13d, eax
	xor	r13d, r12d
	lea	r12, [rsp + 40]
	and	ecx, 59955167
	and	edx, 7153696
	or	edx, ecx
	and	ebx, 59955167
	and	edi, 7153696
	or	edi, ebx
	xor	edi, edx
	shl	edi, 6
	shr	ebp, 3
	mov	eax, ebp
	not	eax
	or	eax, 1306633024
	mov	ecx, edi
	not	ecx
	and	ecx, 1306633077
	and	edi, -1306633088
	or	edi, ecx
	and	eax, 1306633077
	and	ebp, 10
	or	ebp, eax
	xor	ebp, edi
	mov	ebx, ebp
	not	ebx
	mov	eax, ebx
	and	eax, 1637579483
	mov	ecx, ebp
	and	ecx, -1637579484
	or	ecx, eax
	mov	eax, r13d
	not	eax
	mov	edx, eax
	and	edx, 1637579483
	mov	esi, r13d
	and	esi, -1637579484
	or	esi, edx
	xor	esi, ecx
	mov	ecx, esi
	not	ecx
	or	ecx, -858993460
	and	ebx, esi
	and	ebp, ecx
	and	ecx, -1059174258
	and	esi, 857813809
	or	esi, ecx
	and	eax, -1059174258
	and	r13d, 1059174257
	or	r13d, eax
	xor	r13d, esi
	and	ebx, 858993459
	or	ebx, ebp
	mov	eax, ebx
	shl	eax, 18
	shr	ebx, 14
	mov	ecx, eax
	not	ecx
	mov	edx, ebx
	not	edx
	and	ecx, -1291958035
	and	eax, 1291845632
	or	eax, ecx
	and	edx, -1291958035
	mov	edi, ebx
	and	edi, 112402
	or	edi, edx
	xor	edi, eax
	mov	ebp, edi
	mov	edx, edi
	mov	dword ptr [rsp + 40], edi
	not	edi
	mov	eax, r13d
	and	eax, edi
	mov	ecx, r13d
	not	ecx
	and	ebp, ecx
	or	ebp, eax
	mov	eax, ebp
	xor	eax, 65535
	and	eax, ebp
	mov	esi, eax
	not	esi
	and	edx, esi
	and	esi, 738806534
	mov	ebp, eax
	and	ebp, -738806535
	or	ebp, esi
	and	ecx, 738806534
	and	r13d, -738806535
	or	r13d, ecx
	xor	r13d, ebp
	and	eax, edi
	or	eax, edx
	test	r9d, r9d
	mov	dword ptr [rsp + 20], r11d
	mov	dword ptr [rsp + 16], r15d
	sete	byte ptr [rsp + 14]
	mov	dword ptr [rsp + 36], r13d
	cmp	r8d, 10
	setl	byte ptr [rsp + 15]
	shl	ebx, 20
	shr	eax, 12
	mov	ecx, eax
	not	ecx
	mov	edx, ebx
	not	edx
	and	ecx, -734536372
	and	eax, 533171
	or	eax, ecx
	and	edx, -734536372
	and	ebx, 734003200
	or	ebx, edx
	xor	ebx, eax
	mov	edi, -732255391
	mov	r8, qword ptr [rsp + 128] 
	mov	r9, qword ptr [rsp + 120] 
	jmp	.LBB15_74
.LBB15_117:                             
	mov	rdx, qword ptr [rsp + 24]
	mov	rdi, r12
	mov	rsi, r13
	call	_ZN5Botan12_GLOBAL__N_111des_decryptERjS1_PKj
	mov	edx, dword ptr [rsp + 36]
	ror	edx
	mov	r8d, dword ptr [rsp + 40]
	mov	eax, r8d
	not	eax
	mov	esi, eax
	and	esi, -1937510154
	mov	edi, r8d
	and	edi, 1937510153
	or	edi, esi
	mov	ebx, edx
	not	ebx
	mov	ebp, ebx
	and	ebp, -1937510154
	mov	esi, edx
	and	esi, 1937510153
	or	esi, ebp
	xor	esi, edi
	mov	edi, esi
	not	edi
	or	edi, 1431655765
	and	ebx, esi
	and	edx, edi
	and	ebx, -1431655766
	or	ebx, edx
	and	edi, 1863116967
	and	esi, -2136866296
	or	esi, edi
	and	eax, 1863116967
	and	r8d, -1863116968
	or	r8d, eax
	xor	r8d, esi
	mov	edx, r8d
	shr	edx, 9
	mov	ecx, r8d
	shl	ecx, 23
	mov	esi, edx
	not	esi
	mov	edi, ecx
	not	edi
	and	esi, 117064926
	and	edx, 375585
	or	edx, esi
	and	edi, 117064926
	and	ecx, -117440512
	or	ecx, edi
	xor	ecx, edx
	mov	esi, ecx
	not	esi
	mov	edx, ebx
	and	edx, esi
	mov	edi, ebx
	not	edi
	mov	eax, ecx
	and	eax, edi
	or	eax, edx
	mov	edx, eax
	not	edx
	or	edx, -16711936
	and	esi, eax
	and	ecx, edx
	and	edx, 766286473
	and	eax, 5439606
	or	eax, edx
	and	edi, 766286473
	and	ebx, -766286474
	or	ebx, edi
	xor	ebx, eax
	and	esi, 16711935
	or	esi, ecx
	shl	esi, 6
	shr	r8d, 3
	and	r8d, 63
	or	r8d, esi
	mov	edi, r8d
	not	edi
	mov	eax, edi
	and	eax, -1708325225
	mov	ecx, r8d
	and	ecx, 1708325224
	or	ecx, eax
	mov	r9d, ebx
	not	r9d
	mov	edx, r9d
	and	edx, -1708325225
	mov	esi, ebx
	and	esi, 1708325224
	or	esi, edx
	xor	esi, ecx
	mov	ecx, esi
	not	ecx
	or	ecx, -858993460
	and	esi, 858993459
	and	ebx, ecx
	and	r9d, esi
	or	r9d, ebx
	and	ecx, r8d
	and	esi, edi
	or	esi, ecx
	mov	ecx, esi
	shl	ecx, 18
	shr	esi, 14
	mov	edx, ecx
	not	edx
	mov	edi, esi
	not	edi
	and	edx, -348535728
	and	ecx, 348389376
	or	ecx, edx
	and	edi, -348535728
	mov	eax, esi
	and	eax, 146351
	or	eax, edi
	xor	eax, ecx
	mov	dword ptr [rsp + 40], eax
	mov	edi, eax
	not	edi
	mov	ebp, r9d
	and	ebp, edi
	mov	r10d, r9d
	not	r10d
	mov	edx, eax
	and	edx, r10d
	or	edx, ebp
	mov	ebp, edx
	xor	ebp, 65535
	and	ebp, edx
	mov	ebx, ebp
	not	ebx
	and	r9d, ebx
	and	r10d, ebp
	or	r10d, r9d
	mov	dword ptr [rsp + 36], r10d
	mov	ecx, dword ptr [rip + x.121]
	mov	r9d, dword ptr [rip + y.122]
	mov	edx, ecx
	neg	edx
	not	edx
	imul	edx, ecx
	not	edx
	or	edx, -2
	cmp	edx, -1
	sete	r8b
	cmp	r9d, 10
	setl	cl
	xor	cl, r8b
	mov	ecx, -1292010724
	mov	r11d, -1693628638
	cmovne	ecx, r11d
	cmp	edx, -1
	sete	byte ptr [rsp + 20]
	mov	r8d, ecx
	cmove	r8d, r11d
	cmp	r9d, 10
	setl	byte ptr [rsp + 16]
	cmovge	r8d, ecx
	and	ebx, 1311440896
	and	ebp, -1311444992
	or	ebp, ebx
	and	edi, 1311440896
	and	eax, -1311444992
	or	eax, edi
	xor	eax, ebp
	shl	esi, 20
	shr	eax, 12
	mov	ecx, eax
	not	ecx
	mov	edx, esi
	not	edx
	and	ecx, 733331911
	and	eax, 671288
	or	eax, ecx
	and	edx, 733331911
	and	esi, -734003200
	or	esi, edx
	xor	esi, eax
	mov	edx, -732255391
	jmp	.LBB15_118
.LBB15_80:                              
	movzx	eax, byte ptr [rsp + 14]
	movzx	ecx, byte ptr [rsp + 15]
	mov	edx, eax
	xor	dl, cl
	mov	edx, -1292010724
	mov	esi, -354053782
	cmovne	edx, esi
	test	cl, cl
	mov	edi, edx
	cmovne	edi, esi
	test	al, al
	cmove	edi, edx
	.p2align	4, 0x90
.LBB15_74:                              

	mov	edx, edi
	and	edx, 2147483647
	cmp	edx, 1415228256
	jg	.LBB15_78

	cmp	edx, 453855010
	je	.LBB15_82

	cmp	edx, 855472924
	jne	.LBB15_74

	mov	edi, -354053782
	jmp	.LBB15_74
	.p2align	4, 0x90
.LBB15_78:                              
	cmp	edx, 1793429866
	je	.LBB15_81

	cmp	edx, 1415228257
	jne	.LBB15_74
	jmp	.LBB15_80
.LBB15_81:                              
	mov	dword ptr [rsp + 24], ebx
	mov	edi, r10d
	jmp	.LBB15_74
.LBB15_124:                             
	movzx	ebx, byte ptr [rsp + 20]
	movzx	ecx, byte ptr [rsp + 16]
	mov	eax, ebx
	xor	al, cl
	test	cl, cl
	mov	edx, -1292010724
	mov	edi, -354053782
	cmovne	edx, edi
	test	bl, bl
	mov	ecx, -1292010724
	cmove	edx, ecx
	test	al, al
	cmovne	edx, edi
	.p2align	4, 0x90
.LBB15_118:                             

	mov	edi, edx
	and	edi, 2147483647
	cmp	edi, 1415228256
	jg	.LBB15_122

	cmp	edi, 453855010
	je	.LBB15_126

	cmp	edi, 855472924
	jne	.LBB15_118

	mov	edx, -354053782
	jmp	.LBB15_118
	.p2align	4, 0x90
.LBB15_122:                             
	cmp	edi, 1793429866
	je	.LBB15_125

	cmp	edi, 1415228257
	jne	.LBB15_118
	jmp	.LBB15_124
.LBB15_125:                             
	mov	dword ptr [rsp + 24], esi
	mov	edx, r8d
	jmp	.LBB15_118
.LBB15_82:                              
	mov	ebp, dword ptr [rsp + 24]
	mov	edi, ebp
	not	edi
	mov	eax, r13d
	and	eax, edi
	mov	ecx, r13d
	not	ecx
	mov	edx, ebp
	and	edx, ecx
	or	edx, eax
	mov	eax, edx
	not	eax
	or	eax, 252645135
	mov	esi, eax
	and	esi, 804885115
	mov	ebx, edx
	and	ebx, -805281664
	or	ebx, esi
	and	ecx, 804885115
	and	r13d, -804885116
	or	r13d, ecx
	xor	r13d, ebx
	and	eax, 1007413520
	and	edx, -1058008864
	or	edx, eax
	and	edi, 1007413520
	mov	eax, ebp
	and	eax, -1007413536
	or	eax, edi
	xor	eax, edx
	shr	eax, 4
	shl	ebp, 28
	mov	ecx, eax
	not	ecx
	mov	edx, ebp
	not	edx
	and	ecx, -1755178863
	and	eax, 144566126
	or	eax, ecx
	and	edx, -1755178863
	and	ebp, 1610612736
	or	ebp, edx
	xor	ebp, eax
	mov	rax, qword ptr [rsp + 72]
	bswap	r11d
	mov	dword ptr [rax], r11d
	bswap	r15d
	mov	dword ptr [rax + 4], r15d
	bswap	r13d
	mov	dword ptr [rax + 8], r13d
	bswap	ebp
	mov	dword ptr [rax + 12], ebp
	mov	rax, qword ptr [rsp + 56]
	add	rax, 16
	mov	qword ptr [rsp + 104], rax 
	mov	rax, qword ptr [rsp + 72]
	add	rax, 16
	mov	qword ptr [rsp + 96], rax 
	mov	rax, qword ptr [rsp + 64]
	movabs	rcx, 4778857465770492069
	lea	r15, [rax + rcx - 2]
	sub	r15, rcx
	mov	eax, -292004364
	lea	r13, [rsp + 36]
	jmp	.LBB15_17
.LBB15_126:                             
	mov	ecx, dword ptr [rsp + 24]
	mov	esi, ecx
	not	esi
	mov	edx, r10d
	and	edx, esi
	mov	ebp, r10d
	not	ebp
	mov	edi, ecx
	and	edi, ebp
	or	edi, edx
	mov	edx, edi
	xor	edx, 252645135
	and	edx, edi
	mov	edi, edx
	not	edi
	and	r10d, edi
	and	ebp, edx
	or	ebp, r10d
	mov	dword ptr [rsp + 36], ebp
	and	edi, ecx
	and	edx, esi
	or	edx, edi
	shrd	edx, ecx, 4
	mov	dword ptr [rsp + 40], edx
	mov	r8, qword ptr [rsp + 112]
	mov	esi, dword ptr [rip + x.27]
	lea	edi, [rsi - 1]
	imul	edi, esi
	not	edi
	or	edi, -2
	cmp	edi, -1
	sete	byte ptr [rsp + 16]
	mov	esi, dword ptr [rip + y.28]
	cmp	esi, 10
	setl	byte ptr [rsp + 24]
	bswap	ebp
	bswap	edx
	mov	esi, -644910307
	jmp	.LBB15_127
.LBB15_130:                             
	movzx	eax, byte ptr [rsp + 16]
	movzx	ecx, byte ptr [rsp + 24]
	mov	ebx, eax
	xor	bl, cl
	test	cl, cl
	mov	esi, -266241031
	mov	ecx, 1444073801
	cmovne	esi, ecx
	test	al, al
	mov	eax, -266241031
	cmove	esi, eax
	test	bl, bl
	cmovne	esi, ecx
	.p2align	4, 0x90
.LBB15_127:                             

	cmp	esi, -266241032
	jg	.LBB15_131

	cmp	esi, -931930484
	je	.LBB15_135

	cmp	esi, -644910307
	jne	.LBB15_127
	jmp	.LBB15_130
	.p2align	4, 0x90
.LBB15_131:                             
	cmp	esi, -266241031
	je	.LBB15_134

	cmp	esi, 1444073801
	jne	.LBB15_127

	mov	dword ptr [r8], ebp
	mov	dword ptr [r8 + 4], edx
	mov	eax, dword ptr [rip + x.27]
	lea	ecx, [rax - 1]
	imul	ecx, eax
	mov	eax, ecx
	xor	eax, -2
	and	eax, ecx
	sete	cl
	test	eax, eax
	mov	esi, -266241031
	mov	ebx, -931930484
	cmove	esi, ebx
	cmp	dword ptr [rip + y.28], 10
	setl	al
	mov	edi, -266241031
	cmovge	esi, edi
	xor	al, cl
	cmovne	esi, ebx
	jmp	.LBB15_127
.LBB15_134:                             
	mov	dword ptr [r8], ebp
	mov	dword ptr [r8 + 4], edx
	mov	esi, 1444073801
	jmp	.LBB15_127
.LBB15_135:                             
	mov	r8, qword ptr [rsp + 88]
	add	r8, 8
	mov	r9, qword ptr [rsp + 112]
	add	r9, 8
	mov	r14, qword ptr [rsp + 80]
	dec	r14
	mov	eax, 1913328669
	jmp	.LBB15_17
.LBB15_41:
	add	rsp, 136
	pop	rbx
	pop	r12
	pop	r13
	pop	r14
	pop	r15
	pop	rbp
	ret
.Lfunc_end15:
	.size	_ZNK5Botan9TripleDES9decrypt_nEPKhPhm, .Lfunc_end15-_ZNK5Botan9TripleDES9decrypt_nEPKhPhm
	.cfi_endproc

	.globl	_ZN5Botan9TripleDES12key_scheduleEPKhm 
	.p2align	4, 0x90
	.type	_ZN5Botan9TripleDES12key_scheduleEPKhm,@function
_ZN5Botan9TripleDES12key_scheduleEPKhm: 
	.cfi_startproc

	push	rbp
.Lcfi80:
	.cfi_def_cfa_offset 16
	push	r15
.Lcfi81:
	.cfi_def_cfa_offset 24
	push	r14
.Lcfi82:
	.cfi_def_cfa_offset 32
	push	r13
.Lcfi83:
	.cfi_def_cfa_offset 40
	push	r12
.Lcfi84:
	.cfi_def_cfa_offset 48
	push	rbx
.Lcfi85:
	.cfi_def_cfa_offset 56
	sub	rsp, 24
.Lcfi86:
	.cfi_def_cfa_offset 80
.Lcfi87:
	.cfi_offset rbx, -56
.Lcfi88:
	.cfi_offset r12, -48
.Lcfi89:
	.cfi_offset r13, -40
.Lcfi90:
	.cfi_offset r14, -32
.Lcfi91:
	.cfi_offset r15, -24
.Lcfi92:
	.cfi_offset rbp, -16
	mov	rbx, rdx
	mov	r14, rsi
	add	rdi, 8
	mov	qword ptr [rsp + 8], rdi
	mov	rdi, qword ptr [rsp + 8]
	mov	esi, 96
	call	_ZNSt6vectorIjN5Botan16secure_allocatorIjEEE6resizeEm
	mov	rax, qword ptr [rsp + 8]
	mov	rdi, qword ptr [rax]
	mov	rsi, r14
	call	_ZN5Botan12_GLOBAL__N_116des_key_scheduleEPjPKh
	mov	rax, qword ptr [rsp + 8]
	mov	rdi, qword ptr [rax]
	sub	rdi, -128
	lea	rsi, [r14 + 8]
	call	_ZN5Botan12_GLOBAL__N_116des_key_scheduleEPjPKh
	cmp	rbx, 24
	sete	byte ptr [rsp + 7]
	add	r14, 16
	mov	eax, 627605616
	mov	r13d, 388907648
	mov	r15d, -704263045
	mov	r12d, 1112981962
	mov	ebp, 1550861308
	jmp	.LBB16_1
.LBB16_4:                               
	mov	rax, qword ptr [rsp + 8]
	mov	rax, qword ptr [rax]
	add	rax, 256
	mov	qword ptr [rsp + 16], rax
	mov	al, byte ptr [rsp + 7]
	test	al, al
	mov	eax, -278749405
	cmovne	eax, ebp
	.p2align	4, 0x90
.LBB16_1:                               


	cmp	eax, 807801552
	jg	.LBB16_5

	cmp	eax, -278749405
	je	.LBB16_8

	cmp	eax, 627605616
	jne	.LBB16_1
	jmp	.LBB16_4
	.p2align	4, 0x90
.LBB16_5:                               
	cmp	eax, 807801553
	je	.LBB16_34

	cmp	eax, 1550861308
	jne	.LBB16_1

	mov	rdi, qword ptr [rsp + 16]
	mov	rsi, r14
	call	_ZN5Botan12_GLOBAL__N_116des_key_scheduleEPjPKh
	mov	eax, 807801553
	jmp	.LBB16_1
.LBB16_8:                               
	mov	rax, qword ptr [rsp + 8]
	mov	rcx, qword ptr [rax]
	mov	rdx, qword ptr [rsp + 16]
	test	rdx, rdx
	mov	eax, -106533492
	cmovne	eax, r13d
	je	.LBB16_9

	mov	esi, 501922933
	jmp	.LBB16_16
.LBB16_26:                              
	mov	byte ptr [rsp + 6], 1
	movzx	ebx, byte ptr [rsp + 6]
	test	bl, bl
	mov	esi, 388907648
	cmovne	esi, r12d
	.p2align	4, 0x90
.LBB16_16:                              

	cmp	esi, 388907647
	jle	.LBB16_17

	cmp	esi, 388907648
	je	.LBB16_25

	cmp	esi, 501922933
	je	.LBB16_26

	cmp	esi, 1112981962
	jne	.LBB16_16

	mov	esi, eax
	jmp	.LBB16_16
	.p2align	4, 0x90
.LBB16_17:                              
	cmp	esi, -1709497333
	je	.LBB16_33

	cmp	esi, -704263045
	jne	.LBB16_19

	movups	xmm0, xmmword ptr [rcx]
	movups	xmm1, xmmword ptr [rcx + 16]
	movups	xmm2, xmmword ptr [rcx + 32]
	movups	xmm3, xmmword ptr [rcx + 48]
	movups	xmm4, xmmword ptr [rcx + 64]
	movups	xmm5, xmmword ptr [rcx + 80]
	movups	xmm6, xmmword ptr [rcx + 96]
	movups	xmm7, xmmword ptr [rcx + 112]
	movups	xmmword ptr [rdx + 112], xmm7
	movups	xmmword ptr [rdx + 96], xmm6
	movups	xmmword ptr [rdx + 80], xmm5
	movups	xmmword ptr [rdx + 64], xmm4
	movups	xmmword ptr [rdx + 48], xmm3
	movups	xmmword ptr [rdx + 32], xmm2
	movups	xmmword ptr [rdx + 16], xmm1
	movups	xmmword ptr [rdx], xmm0
	mov	esi, -1709497333
	jmp	.LBB16_16
.LBB16_25:                              
	movzx	ebx, byte ptr [rsp + 6]
	test	bl, bl
	mov	esi, -1709497333
	cmovne	esi, r15d
	jmp	.LBB16_16
.LBB16_19:                              
	cmp	esi, -106533492
	jne	.LBB16_16
	jmp	.LBB16_14
.LBB16_9:                               
	mov	ecx, 501922933
	jmp	.LBB16_10
	.p2align	4, 0x90
.LBB16_31:                              
	movzx	ecx, byte ptr [rsp + 6]
	mov	ecx, -1709497333
	.p2align	4, 0x90
.LBB16_10:                              

	cmp	ecx, 501922932
	jg	.LBB16_27

	cmp	ecx, -1709497333
	je	.LBB16_33

	cmp	ecx, 388907648
	je	.LBB16_31

	cmp	ecx, -106533492
	jne	.LBB16_10
	jmp	.LBB16_14
	.p2align	4, 0x90
.LBB16_27:                              
	cmp	ecx, 1112981962
	je	.LBB16_32

	cmp	ecx, 501922933
	jne	.LBB16_10

	mov	byte ptr [rsp + 6], 1
	movzx	ecx, byte ptr [rsp + 6]
	test	cl, cl
	mov	ecx, 1112981962
	jne	.LBB16_10

	mov	ecx, 388907648
	jmp	.LBB16_10
.LBB16_32:                              
	mov	ecx, eax
	jmp	.LBB16_10
.LBB16_33:                              
	mov	eax, 807801553
	jmp	.LBB16_1
.LBB16_34:
	add	rsp, 24
	pop	rbx
	pop	r12
	pop	r13
	pop	r14
	pop	r15
	pop	rbp
	ret
.LBB16_14:
	mov	edi, .L.str
	mov	esi, .L.str.1
	mov	edx, .L__func__._ZN5Botan8copy_memIjEEvPT_PKS1_m
	mov	ecx, .L.str.2
	mov	r8d, 130
	call	_ZN5Botan17assertion_failureEPKcS1_S1_S1_i
.Lfunc_end16:
	.size	_ZN5Botan9TripleDES12key_scheduleEPKhm, .Lfunc_end16-_ZN5Botan9TripleDES12key_scheduleEPKhm
	.cfi_endproc

	.globl	_ZN5Botan9TripleDES5clearEv 
	.p2align	4, 0x90
	.type	_ZN5Botan9TripleDES5clearEv,@function
_ZN5Botan9TripleDES5clearEv:            
	.cfi_startproc

	push	rbp
.Lcfi93:
	.cfi_def_cfa_offset 16
	push	r15
.Lcfi94:
	.cfi_def_cfa_offset 24
	push	r14
.Lcfi95:
	.cfi_def_cfa_offset 32
	push	rbx
.Lcfi96:
	.cfi_def_cfa_offset 40
	push	rax
.Lcfi97:
	.cfi_def_cfa_offset 48
.Lcfi98:
	.cfi_offset rbx, -40
.Lcfi99:
	.cfi_offset r14, -32
.Lcfi100:
	.cfi_offset r15, -24
.Lcfi101:
	.cfi_offset rbp, -16
	mov	rbp, rdi
	mov	eax, dword ptr [rip + x.59]
	lea	ecx, [rax - 1]
	imul	ecx, eax
	not	ecx
	or	ecx, -2
	cmp	ecx, -1
	sete	byte ptr [rsp + 6]
	mov	eax, dword ptr [rip + y.60]
	cmp	eax, 10
	setl	byte ptr [rsp + 7]
	add	rbp, 8
	mov	eax, -1831203499
	mov	r14d, -1566629427
	mov	r15d, -1332160818
	jmp	.LBB17_1
.LBB17_8:                               
	movzx	ecx, byte ptr [rsp + 6]
	movzx	eax, byte ptr [rsp + 7]
	mov	edx, ecx
	xor	dl, al
	mov	edx, -831629710
	cmovne	edx, r14d
	test	al, al
	mov	eax, edx
	cmovne	eax, r14d
	test	cl, cl
	cmove	eax, edx
	.p2align	4, 0x90
.LBB17_1:                               
	mov	ecx, eax
	and	ecx, 2147483647
	cmp	ecx, 815322829
	jg	.LBB17_5

	cmp	ecx, 316280149
	je	.LBB17_8

	cmp	ecx, 580854221
	jne	.LBB17_1

	mov	rdi, rbp
	call	_ZN5Botan3zapIjNS_16secure_allocatorIjEEEEvRSt6vectorIT_T0_E
	mov	eax, dword ptr [rip + x.59]
	mov	ecx, dword ptr [rip + y.60]
	lea	edx, [rax - 1]
	imul	edx, eax
	not	edx
	or	edx, -2
	cmp	edx, -1
	sete	al
	cmp	ecx, 10
	setl	bl
	xor	bl, al
	mov	esi, -831629710
	cmovne	esi, r15d
	cmp	edx, -1
	mov	eax, esi
	cmove	eax, r15d
	cmp	ecx, 10
	cmovge	eax, esi
	jmp	.LBB17_1
	.p2align	4, 0x90
.LBB17_5:                               
	cmp	ecx, 815322830
	je	.LBB17_9

	cmp	ecx, 1315853938
	jne	.LBB17_1

	mov	rdi, rbp
	call	_ZN5Botan3zapIjNS_16secure_allocatorIjEEEEvRSt6vectorIT_T0_E
	mov	eax, -1566629427
	jmp	.LBB17_1
.LBB17_9:
	add	rsp, 8
	pop	rbx
	pop	r14
	pop	r15
	pop	rbp
	ret
.Lfunc_end17:
	.size	_ZN5Botan9TripleDES5clearEv, .Lfunc_end17-_ZN5Botan9TripleDES5clearEv
	.cfi_endproc

	.section	.text._ZN5Botan3DESD2Ev,"axG",@progbits,_ZN5Botan3DESD2Ev,comdat
	.weak	_ZN5Botan3DESD2Ev       
	.p2align	4, 0x90
	.type	_ZN5Botan3DESD2Ev,@function
_ZN5Botan3DESD2Ev:                      

	mov	qword ptr [rdi], _ZTVN5Botan3DESE+16
	add	rdi, 8
	jmp	_ZNSt6vectorIjN5Botan16secure_allocatorIjEEED2Ev 
.Lfunc_end18:
	.size	_ZN5Botan3DESD2Ev, .Lfunc_end18-_ZN5Botan3DESD2Ev

	.section	.text._ZN5Botan3DESD0Ev,"axG",@progbits,_ZN5Botan3DESD0Ev,comdat
	.weak	_ZN5Botan3DESD0Ev       
	.p2align	4, 0x90
	.type	_ZN5Botan3DESD0Ev,@function
_ZN5Botan3DESD0Ev:                      

	push	rbx
	mov	rbx, rdi
	mov	qword ptr [rbx], _ZTVN5Botan3DESE+16
	lea	rdi, [rbx + 8]
	call	_ZNSt6vectorIjN5Botan16secure_allocatorIjEEED2Ev
	mov	rdi, rbx
	pop	rbx
	jmp	_ZdlPv                  
.Lfunc_end19:
	.size	_ZN5Botan3DESD0Ev, .Lfunc_end19-_ZN5Botan3DESD0Ev

	.section	.rodata.cst16,"aM",@progbits,16
	.p2align	4               
.LCPI20_0:
	.quad	8                       
	.quad	8                       
	.section	.text._ZNK5Botan25Block_Cipher_Fixed_ParamsILm8ELm8ELm0ELm1ENS_11BlockCipherEE8key_specEv,"axG",@progbits,_ZNK5Botan25Block_Cipher_Fixed_ParamsILm8ELm8ELm0ELm1ENS_11BlockCipherEE8key_specEv,comdat
	.weak	_ZNK5Botan25Block_Cipher_Fixed_ParamsILm8ELm8ELm0ELm1ENS_11BlockCipherEE8key_specEv
	.p2align	4, 0x90
	.type	_ZNK5Botan25Block_Cipher_Fixed_ParamsILm8ELm8ELm0ELm1ENS_11BlockCipherEE8key_specEv,@function
_ZNK5Botan25Block_Cipher_Fixed_ParamsILm8ELm8ELm0ELm1ENS_11BlockCipherEE8key_specEv: 
	.cfi_startproc

	movaps	xmm0, xmmword ptr [rip + .LCPI20_0] 
	movups	xmmword ptr [rdi], xmm0
	mov	qword ptr [rdi + 16], 1
	mov	rax, rdi
	ret
.Lfunc_end20:
	.size	_ZNK5Botan25Block_Cipher_Fixed_ParamsILm8ELm8ELm0ELm1ENS_11BlockCipherEE8key_specEv, .Lfunc_end20-_ZNK5Botan25Block_Cipher_Fixed_ParamsILm8ELm8ELm0ELm1ENS_11BlockCipherEE8key_specEv
	.cfi_endproc

	.section	.text._ZNK5Botan3DES4nameB5cxx11Ev,"axG",@progbits,_ZNK5Botan3DES4nameB5cxx11Ev,comdat
	.weak	_ZNK5Botan3DES4nameB5cxx11Ev 
	.p2align	4, 0x90
	.type	_ZNK5Botan3DES4nameB5cxx11Ev,@function
_ZNK5Botan3DES4nameB5cxx11Ev:           
.Lfunc_begin2:
	.cfi_startproc
	.cfi_personality 3, __gxx_personality_v0
	.cfi_lsda 3, .Lexception2

	push	r14
.Lcfi102:
	.cfi_def_cfa_offset 16
	push	rbx
.Lcfi103:
	.cfi_def_cfa_offset 24
	sub	rsp, 24
.Lcfi104:
	.cfi_def_cfa_offset 48
.Lcfi105:
	.cfi_offset rbx, -24
.Lcfi106:
	.cfi_offset r14, -16
	mov	r14, rdi
	mov	eax, dword ptr [rip + x.147]
	mov	ecx, dword ptr [rip + y.148]
	mov	edx, eax
	neg	edx
	not	edx
	imul	edx, eax
	not	edx
	or	edx, -2
	cmp	edx, -1
	sete	dl
	sete	byte ptr [rsp + 14]
	mov	esi, -1191953575
	mov	edi, -1553551678
	mov	eax, -1553551678
	cmove	eax, esi
	cmp	ecx, 10
	setl	cl
	setl	byte ptr [rsp + 15]
	cmovge	eax, edi
	xor	cl, dl
	cmovne	eax, esi
	mov	edx, -1510115420
	mov	esi, 454380092
	jmp	.LBB21_1
.LBB21_8:                               
	mov	edx, 454380092
	.p2align	4, 0x90
.LBB21_1:                               
	cmp	edx, -1191953576
	jg	.LBB21_5

	cmp	edx, -1553551678
	je	.LBB21_8

	cmp	edx, -1510115420
	jne	.LBB21_1

	movzx	ebx, byte ptr [rsp + 14]
	movzx	edx, byte ptr [rsp + 15]
	mov	ecx, ebx
	xor	cl, dl
	mov	ecx, -1553551678
	cmovne	ecx, esi
	test	dl, dl
	mov	edx, ecx
	cmovne	edx, esi
	test	bl, bl
	cmove	edx, ecx
	jmp	.LBB21_1
	.p2align	4, 0x90
.LBB21_5:                               
	cmp	edx, -1191953575
	je	.LBB21_9

	cmp	edx, 454380092
	jne	.LBB21_1

	mov	edx, eax
	jmp	.LBB21_1
.LBB21_9:
.Ltmp12:
	lea	rdx, [rsp + 16]
	mov	esi, .L.str.3
	mov	rdi, r14
	call	_ZNSt7__cxx1112basic_stringIcSt11char_traitsIcESaIcEEC2EPKcRKS3_
.Ltmp13:

	mov	rax, r14
	add	rsp, 24
	pop	rbx
	pop	r14
	ret
.LBB21_11:
.Ltmp14:
	mov	rdi, rax
	call	_Unwind_Resume
.Lfunc_end21:
	.size	_ZNK5Botan3DES4nameB5cxx11Ev, .Lfunc_end21-_ZNK5Botan3DES4nameB5cxx11Ev
	.cfi_endproc
	.section	.gcc_except_table,"a",@progbits
	.p2align	2
GCC_except_table21:
.Lexception2:
	.byte	255                     
	.byte	3                       
	.asciz	"\234"                  
	.byte	3                       
	.byte	26                      
	.long	.Ltmp12-.Lfunc_begin2   
	.long	.Ltmp13-.Ltmp12         
	.long	.Ltmp14-.Lfunc_begin2   
	.byte	0                       
	.long	.Ltmp13-.Lfunc_begin2   
	.long	.Lfunc_end21-.Ltmp13    
	.long	0                       
	.byte	0                       
	.p2align	2

	.section	.text._ZNK5Botan25Block_Cipher_Fixed_ParamsILm8ELm8ELm0ELm1ENS_11BlockCipherEE10block_sizeEv,"axG",@progbits,_ZNK5Botan25Block_Cipher_Fixed_ParamsILm8ELm8ELm0ELm1ENS_11BlockCipherEE10block_sizeEv,comdat
	.weak	_ZNK5Botan25Block_Cipher_Fixed_ParamsILm8ELm8ELm0ELm1ENS_11BlockCipherEE10block_sizeEv 
	.p2align	4, 0x90
	.type	_ZNK5Botan25Block_Cipher_Fixed_ParamsILm8ELm8ELm0ELm1ENS_11BlockCipherEE10block_sizeEv,@function
_ZNK5Botan25Block_Cipher_Fixed_ParamsILm8ELm8ELm0ELm1ENS_11BlockCipherEE10block_sizeEv: 

	mov	eax, 8
	ret
.Lfunc_end22:
	.size	_ZNK5Botan25Block_Cipher_Fixed_ParamsILm8ELm8ELm0ELm1ENS_11BlockCipherEE10block_sizeEv, .Lfunc_end22-_ZNK5Botan25Block_Cipher_Fixed_ParamsILm8ELm8ELm0ELm1ENS_11BlockCipherEE10block_sizeEv

	.section	.text._ZNK5Botan11BlockCipher11parallelismEv,"axG",@progbits,_ZNK5Botan11BlockCipher11parallelismEv,comdat
	.weak	_ZNK5Botan11BlockCipher11parallelismEv 
	.p2align	4, 0x90
	.type	_ZNK5Botan11BlockCipher11parallelismEv,@function
_ZNK5Botan11BlockCipher11parallelismEv: 

	mov	eax, 1
	ret
.Lfunc_end23:
	.size	_ZNK5Botan11BlockCipher11parallelismEv, .Lfunc_end23-_ZNK5Botan11BlockCipher11parallelismEv

	.section	.text._ZNK5Botan11BlockCipher8providerB5cxx11Ev,"axG",@progbits,_ZNK5Botan11BlockCipher8providerB5cxx11Ev,comdat
	.weak	_ZNK5Botan11BlockCipher8providerB5cxx11Ev 
	.p2align	4, 0x90
	.type	_ZNK5Botan11BlockCipher8providerB5cxx11Ev,@function
_ZNK5Botan11BlockCipher8providerB5cxx11Ev: 
.Lfunc_begin3:
	.cfi_startproc
	.cfi_personality 3, __gxx_personality_v0
	.cfi_lsda 3, .Lexception3

	push	r14
.Lcfi107:
	.cfi_def_cfa_offset 16
	push	rbx
.Lcfi108:
	.cfi_def_cfa_offset 24
	sub	rsp, 24
.Lcfi109:
	.cfi_def_cfa_offset 48
.Lcfi110:
	.cfi_offset rbx, -24
.Lcfi111:
	.cfi_offset r14, -16
	mov	r14, rdi
	mov	eax, dword ptr [rip + x.147]
	mov	ecx, dword ptr [rip + y.148]
	lea	edx, [rax - 1]
	imul	edx, eax
	not	edx
	or	edx, -2
	cmp	edx, -1
	sete	al
	cmp	ecx, 10
	setl	bl
	xor	bl, al
	mov	eax, -1191953575
	mov	esi, -1553551678
	cmovne	esi, eax
	cmp	edx, -1
	sete	byte ptr [rsp + 14]
	cmovne	eax, esi
	cmp	ecx, 10
	setl	byte ptr [rsp + 15]
	mov	r8d, -1553551678
	cmovge	eax, esi
	mov	esi, -1510115420
	mov	edi, 454380092
	jmp	.LBB24_1
.LBB24_8:                               
	mov	esi, 454380092
	.p2align	4, 0x90
.LBB24_1:                               
	cmp	esi, -1191953576
	jg	.LBB24_5

	cmp	esi, -1553551678
	je	.LBB24_8

	cmp	esi, -1510115420
	jne	.LBB24_1

	movzx	edx, byte ptr [rsp + 14]
	movzx	ecx, byte ptr [rsp + 15]
	mov	ebx, edx
	xor	bl, cl
	test	cl, cl
	mov	esi, -1553551678
	cmovne	esi, edi
	test	dl, dl
	cmove	esi, r8d
	test	bl, bl
	cmovne	esi, edi
	jmp	.LBB24_1
	.p2align	4, 0x90
.LBB24_5:                               
	cmp	esi, -1191953575
	je	.LBB24_9

	cmp	esi, 454380092
	jne	.LBB24_1

	mov	esi, eax
	jmp	.LBB24_1
.LBB24_9:
.Ltmp15:
	lea	rdx, [rsp + 16]
	mov	esi, .L.str.6
	mov	rdi, r14
	call	_ZNSt7__cxx1112basic_stringIcSt11char_traitsIcESaIcEEC2EPKcRKS3_
.Ltmp16:

	mov	rax, r14
	add	rsp, 24
	pop	rbx
	pop	r14
	ret
.LBB24_11:
.Ltmp17:
	mov	rdi, rax
	call	_Unwind_Resume
.Lfunc_end24:
	.size	_ZNK5Botan11BlockCipher8providerB5cxx11Ev, .Lfunc_end24-_ZNK5Botan11BlockCipher8providerB5cxx11Ev
	.cfi_endproc
	.section	.gcc_except_table,"a",@progbits
	.p2align	2
GCC_except_table24:
.Lexception3:
	.byte	255                     
	.byte	3                       
	.asciz	"\234"                  
	.byte	3                       
	.byte	26                      
	.long	.Ltmp15-.Lfunc_begin3   
	.long	.Ltmp16-.Ltmp15         
	.long	.Ltmp17-.Lfunc_begin3   
	.byte	0                       
	.long	.Ltmp16-.Lfunc_begin3   
	.long	.Lfunc_end24-.Ltmp16    
	.long	0                       
	.byte	0                       
	.p2align	2

	.section	.text._ZNK5Botan25Block_Cipher_Fixed_ParamsILm8ELm8ELm0ELm1ENS_11BlockCipherEE13encrypt_n_xexEPhPKhm,"axG",@progbits,_ZNK5Botan25Block_Cipher_Fixed_ParamsILm8ELm8ELm0ELm1ENS_11BlockCipherEE13encrypt_n_xexEPhPKhm,comdat
	.weak	_ZNK5Botan25Block_Cipher_Fixed_ParamsILm8ELm8ELm0ELm1ENS_11BlockCipherEE13encrypt_n_xexEPhPKhm 
	.p2align	4, 0x90
	.type	_ZNK5Botan25Block_Cipher_Fixed_ParamsILm8ELm8ELm0ELm1ENS_11BlockCipherEE13encrypt_n_xexEPhPKhm,@function
_ZNK5Botan25Block_Cipher_Fixed_ParamsILm8ELm8ELm0ELm1ENS_11BlockCipherEE13encrypt_n_xexEPhPKhm: 
	.cfi_startproc

	push	r15
.Lcfi112:
	.cfi_def_cfa_offset 16
	push	r14
.Lcfi113:
	.cfi_def_cfa_offset 24
	push	r13
.Lcfi114:
	.cfi_def_cfa_offset 32
	push	r12
.Lcfi115:
	.cfi_def_cfa_offset 40
	push	rbx
.Lcfi116:
	.cfi_def_cfa_offset 48
.Lcfi117:
	.cfi_offset rbx, -48
.Lcfi118:
	.cfi_offset r12, -40
.Lcfi119:
	.cfi_offset r13, -32
.Lcfi120:
	.cfi_offset r14, -24
.Lcfi121:
	.cfi_offset r15, -16
	mov	r15, rcx
	mov	r14, rdx
	mov	rbx, rsi
	mov	r12, rdi
	lea	r13, [8*r15]
	mov	rdi, rbx
	mov	rsi, r14
	mov	rdx, r13
	call	_ZN5Botan7xor_bufEPhPKhm
	mov	rax, qword ptr [r12]
	mov	rdi, r12
	mov	rsi, rbx
	mov	rdx, rbx
	mov	rcx, r15
	call	qword ptr [rax + 72]
	mov	rdi, rbx
	mov	rsi, r14
	mov	rdx, r13
	pop	rbx
	pop	r12
	pop	r13
	pop	r14
	pop	r15
	jmp	_ZN5Botan7xor_bufEPhPKhm 
.Lfunc_end25:
	.size	_ZNK5Botan25Block_Cipher_Fixed_ParamsILm8ELm8ELm0ELm1ENS_11BlockCipherEE13encrypt_n_xexEPhPKhm, .Lfunc_end25-_ZNK5Botan25Block_Cipher_Fixed_ParamsILm8ELm8ELm0ELm1ENS_11BlockCipherEE13encrypt_n_xexEPhPKhm
	.cfi_endproc

	.section	.text._ZNK5Botan25Block_Cipher_Fixed_ParamsILm8ELm8ELm0ELm1ENS_11BlockCipherEE13decrypt_n_xexEPhPKhm,"axG",@progbits,_ZNK5Botan25Block_Cipher_Fixed_ParamsILm8ELm8ELm0ELm1ENS_11BlockCipherEE13decrypt_n_xexEPhPKhm,comdat
	.weak	_ZNK5Botan25Block_Cipher_Fixed_ParamsILm8ELm8ELm0ELm1ENS_11BlockCipherEE13decrypt_n_xexEPhPKhm 
	.p2align	4, 0x90
	.type	_ZNK5Botan25Block_Cipher_Fixed_ParamsILm8ELm8ELm0ELm1ENS_11BlockCipherEE13decrypt_n_xexEPhPKhm,@function
_ZNK5Botan25Block_Cipher_Fixed_ParamsILm8ELm8ELm0ELm1ENS_11BlockCipherEE13decrypt_n_xexEPhPKhm: 
	.cfi_startproc

	push	r15
.Lcfi122:
	.cfi_def_cfa_offset 16
	push	r14
.Lcfi123:
	.cfi_def_cfa_offset 24
	push	r13
.Lcfi124:
	.cfi_def_cfa_offset 32
	push	r12
.Lcfi125:
	.cfi_def_cfa_offset 40
