	.file	"DES.cpp"
	.intel_syntax noprefix
	.section .rdata,"dr"
__ZStL19piecewise_construct:
	.space 1
	.section	.text$_ZNSt11char_traitsIcE6assignERcRKc,"x"
	.linkonce discard
	.globl	__ZNSt11char_traitsIcE6assignERcRKc
	.def	__ZNSt11char_traitsIcE6assignERcRKc;	.scl	2;	.type	32;	.endef
__ZNSt11char_traitsIcE6assignERcRKc:
LFB358:
	.cfi_startproc
	push	ebp
	.cfi_def_cfa_offset 8
	.cfi_offset 5, -8
	mov	ebp, esp
	.cfi_def_cfa_register 5
	mov	eax, DWORD PTR [ebp+12]
	movzx	edx, BYTE PTR [eax]
	mov	eax, DWORD PTR [ebp+8]
	mov	BYTE PTR [eax], dl
	nop
	pop	ebp
	.cfi_restore 5
	.cfi_def_cfa 4, 4
	ret
	.cfi_endproc
LFE358:
	.section	.text$_ZNSt11char_traitsIcE2eqERKcS2_,"x"
	.linkonce discard
	.globl	__ZNSt11char_traitsIcE2eqERKcS2_
	.def	__ZNSt11char_traitsIcE2eqERKcS2_;	.scl	2;	.type	32;	.endef
__ZNSt11char_traitsIcE2eqERKcS2_:
LFB359:
	.cfi_startproc
	push	ebp
	.cfi_def_cfa_offset 8
	.cfi_offset 5, -8
	mov	ebp, esp
	.cfi_def_cfa_register 5
	mov	eax, DWORD PTR [ebp+8]
	movzx	edx, BYTE PTR [eax]
	mov	eax, DWORD PTR [ebp+12]
	movzx	eax, BYTE PTR [eax]
	cmp	dl, al
	sete	al
	pop	ebp
	.cfi_restore 5
	.cfi_def_cfa 4, 4
	ret
	.cfi_endproc
LFE359:

	.section	.text$_ZNSt12_Base_bitsetILj1EEC2Ev,"x"
	.linkonce discard
	.align 2
	.globl	__ZNSt12_Base_bitsetILj1EEC2Ev
	.def	__ZNSt12_Base_bitsetILj1EEC2Ev;	.scl	2;	.type	32;	.endef
__ZNSt12_Base_bitsetILj1EEC2Ev:
LFB1525:
	.cfi_startproc
	push	ebp
	.cfi_def_cfa_offset 8
	.cfi_offset 5, -8
	mov	ebp, esp
	.cfi_def_cfa_register 5
	sub	esp, 4
	mov	DWORD PTR [ebp-4], ecx
	mov	eax, DWORD PTR [ebp-4]
	mov	DWORD PTR [eax], 0
	nop
	leave
	.cfi_restore 5
	.cfi_def_cfa 4, 4
	ret
	.cfi_endproc
LFE1525:
	.section	.text$_ZNSt12_Base_bitsetILj1EEC2Ey,"x"
	.linkonce discard
	.align 2
	.globl	__ZNSt12_Base_bitsetILj1EEC2Ey
	.def	__ZNSt12_Base_bitsetILj1EEC2Ey;	.scl	2;	.type	32;	.endef
__ZNSt12_Base_bitsetILj1EEC2Ey:
LFB1528:
	.cfi_startproc
	push	ebp
	.cfi_def_cfa_offset 8
	.cfi_offset 5, -8
	mov	ebp, esp
	.cfi_def_cfa_register 5
	sub	esp, 16
	mov	DWORD PTR [ebp-4], ecx
	mov	eax, DWORD PTR [ebp+8]
	mov	DWORD PTR [ebp-16], eax
	mov	eax, DWORD PTR [ebp+12]
	mov	DWORD PTR [ebp-12], eax
	mov	edx, DWORD PTR [ebp-16]
	mov	eax, DWORD PTR [ebp-4]
	mov	DWORD PTR [eax], edx
	nop
	leave
	.cfi_restore 5
	.cfi_def_cfa 4, 4
	ret	8
	.cfi_endproc
LFE1528:
	.section	.text$_ZNSt12_Base_bitsetILj1EE11_S_whichbitEj,"x"
	.linkonce discard
	.globl	__ZNSt12_Base_bitsetILj1EE11_S_whichbitEj
	.def	__ZNSt12_Base_bitsetILj1EE11_S_whichbitEj;	.scl	2;	.type	32;	.endef
__ZNSt12_Base_bitsetILj1EE11_S_whichbitEj:
LFB1532:
	.cfi_startproc
	push	ebp
	.cfi_def_cfa_offset 8
	.cfi_offset 5, -8
	mov	ebp, esp
	.cfi_def_cfa_register 5
	mov	eax, DWORD PTR [ebp+8]
	and	eax, 31
	pop	ebp
	.cfi_restore 5
	.cfi_def_cfa 4, 4
	ret
	.cfi_endproc
LFE1532:
	.section	.text$_ZNSt12_Base_bitsetILj1EE10_S_maskbitEj,"x"
	.linkonce discard
	.globl	__ZNSt12_Base_bitsetILj1EE10_S_maskbitEj
	.def	__ZNSt12_Base_bitsetILj1EE10_S_maskbitEj;	.scl	2;	.type	32;	.endef
__ZNSt12_Base_bitsetILj1EE10_S_maskbitEj:
LFB1533:
	.cfi_startproc
	push	ebp
	.cfi_def_cfa_offset 8
	.cfi_offset 5, -8
	mov	ebp, esp
	.cfi_def_cfa_register 5
	sub	esp, 24
	mov	eax, DWORD PTR [ebp+8]
	mov	DWORD PTR [esp], eax
	call	__ZNSt12_Base_bitsetILj1EE11_S_whichbitEj
	mov	edx, 1
	mov	ecx, eax
	sal	edx, cl
	mov	eax, edx
	leave
	.cfi_restore 5
	.cfi_def_cfa 4, 4
	ret
	.cfi_endproc
LFE1533:
	.section	.text$_ZNSt12_Base_bitsetILj1EE10_M_getwordEj,"x"
	.linkonce discard
	.align 2
	.globl	__ZNSt12_Base_bitsetILj1EE10_M_getwordEj
	.def	__ZNSt12_Base_bitsetILj1EE10_M_getwordEj;	.scl	2;	.type	32;	.endef
__ZNSt12_Base_bitsetILj1EE10_M_getwordEj:
LFB1534:
	.cfi_startproc
	push	ebp
	.cfi_def_cfa_offset 8
	.cfi_offset 5, -8
	mov	ebp, esp
	.cfi_def_cfa_register 5
	sub	esp, 4
	mov	DWORD PTR [ebp-4], ecx
	mov	eax, DWORD PTR [ebp-4]
	leave
	.cfi_restore 5
	.cfi_def_cfa 4, 4
	ret	4
	.cfi_endproc
LFE1534:
	.section	.text$_ZNKSt12_Base_bitsetILj1EE10_M_getwordEj,"x"
	.linkonce discard
	.align 2
	.globl	__ZNKSt12_Base_bitsetILj1EE10_M_getwordEj
	.def	__ZNKSt12_Base_bitsetILj1EE10_M_getwordEj;	.scl	2;	.type	32;	.endef
__ZNKSt12_Base_bitsetILj1EE10_M_getwordEj:
LFB1535:
	.cfi_startproc
	push	ebp
	.cfi_def_cfa_offset 8
	.cfi_offset 5, -8
	mov	ebp, esp
	.cfi_def_cfa_register 5
	sub	esp, 4
	mov	DWORD PTR [ebp-4], ecx
	mov	eax, DWORD PTR [ebp-4]
	mov	eax, DWORD PTR [eax]
	leave
	.cfi_restore 5
	.cfi_def_cfa 4, 4
	ret	4
	.cfi_endproc
LFE1535:
	.section	.text$_ZNSt12_Base_bitsetILj1EE9_M_do_xorERKS0_,"x"
	.linkonce discard
	.align 2
	.globl	__ZNSt12_Base_bitsetILj1EE9_M_do_xorERKS0_
	.def	__ZNSt12_Base_bitsetILj1EE9_M_do_xorERKS0_;	.scl	2;	.type	32;	.endef
__ZNSt12_Base_bitsetILj1EE9_M_do_xorERKS0_:
LFB1541:
	.cfi_startproc
	push	ebp
	.cfi_def_cfa_offset 8
	.cfi_offset 5, -8
	mov	ebp, esp
	.cfi_def_cfa_register 5
	sub	esp, 4
	mov	DWORD PTR [ebp-4], ecx
	mov	eax, DWORD PTR [ebp-4]
	mov	edx, DWORD PTR [eax]
	mov	eax, DWORD PTR [ebp+8]
	mov	eax, DWORD PTR [eax]
	xor	edx, eax
	mov	eax, DWORD PTR [ebp-4]
	mov	DWORD PTR [eax], edx
	nop
	leave
	.cfi_restore 5
	.cfi_def_cfa 4, 4
	ret	4
	.cfi_endproc
LFE1541:
	.section	.text$_ZNSt12_Base_bitsetILj1EE11_M_do_resetEv,"x"
	.linkonce discard
	.align 2
	.globl	__ZNSt12_Base_bitsetILj1EE11_M_do_resetEv
	.def	__ZNSt12_Base_bitsetILj1EE11_M_do_resetEv;	.scl	2;	.type	32;	.endef
__ZNSt12_Base_bitsetILj1EE11_M_do_resetEv:
LFB1546:
	.cfi_startproc
	push	ebp
	.cfi_def_cfa_offset 8
	.cfi_offset 5, -8
	mov	ebp, esp
	.cfi_def_cfa_register 5
	sub	esp, 4
	mov	DWORD PTR [ebp-4], ecx
	mov	eax, DWORD PTR [ebp-4]
	mov	DWORD PTR [eax], 0
	nop
	leave
	.cfi_restore 5
	.cfi_def_cfa 4, 4
	ret
	.cfi_endproc
LFE1546:
	.section .rdata,"dr"
__ZStL13allocator_arg:
	.space 1
__ZStL6ignore:
	.space 1
	.section	.text$_ZSt4setwi,"x"
	.linkonce discard
	.globl	__ZSt4setwi
	.def	__ZSt4setwi;	.scl	2;	.type	32;	.endef
__ZSt4setwi:
LFB2155:
	.cfi_startproc
	push	ebp
	.cfi_def_cfa_offset 8
	.cfi_offset 5, -8
	mov	ebp, esp
	.cfi_def_cfa_register 5
	mov	eax, DWORD PTR [ebp+8]
	pop	ebp
	.cfi_restore 5
	.cfi_def_cfa 4, 4
	ret
	.cfi_endproc
LFE2155:
	.text
	.align 2
	.globl	__ZN3DESC2ENSt7__cxx1112basic_stringIcSt11char_traitsIcESaIcEEES5_
	.def	__ZN3DESC2ENSt7__cxx1112basic_stringIcSt11char_traitsIcESaIcEEES5_;	.scl	2;	.type	32;	.endef
__ZN3DESC2ENSt7__cxx1112basic_stringIcSt11char_traitsIcESaIcEEES5_:
LFB2816:
	.cfi_startproc
	.cfi_personality 0,___gxx_personality_v0
	.cfi_lsda 0,LLSDA2816
	push	ebp
	.cfi_def_cfa_offset 8
	.cfi_offset 5, -8
	mov	ebp, esp
	.cfi_def_cfa_register 5
	push	ebx
	sub	esp, 84
	.cfi_offset 3, -12
	mov	DWORD PTR [ebp-60], ecx
	mov	edx, OFFSET FLAT:__ZTV3DES+8
	mov	eax, DWORD PTR [ebp-60]
	mov	DWORD PTR [eax], edx
	mov	eax, DWORD PTR [ebp-60]
	add	eax, 4
	mov	ecx, eax
	call	__ZNSt7__cxx1112basic_stringIcSt11char_traitsIcESaIcEEC1Ev
	mov	eax, DWORD PTR [ebp-60]
	add	eax, 28
	mov	ecx, eax
	call	__ZNSt7__cxx1112basic_stringIcSt11char_traitsIcESaIcEEC1Ev
	mov	eax, DWORD PTR [ebp-60]
	add	eax, 52
	mov	ecx, eax
	call	__ZNSt7__cxx1112basic_stringIcSt11char_traitsIcESaIcEEC1Ev
	mov	eax, DWORD PTR [ebp-60]
	add	eax, 76
	mov	ecx, eax
	call	__ZNSt7__cxx1112basic_stringIcSt11char_traitsIcESaIcEEC1Ev
	mov	eax, DWORD PTR [ebp-60]
	add	eax, 100
	mov	ecx, eax
	call	__ZNSt7__cxx1112basic_stringIcSt11char_traitsIcESaIcEEC1Ev
	mov	eax, DWORD PTR [ebp-60]
	add	eax, 124
	mov	ecx, eax
	call	__ZNSt7__cxx1112basic_stringIcSt11char_traitsIcESaIcEEC1Ev
	mov	eax, DWORD PTR [ebp-60]
	add	eax, 148
	mov	ecx, eax
	call	__ZNSt7__cxx1112basic_stringIcSt11char_traitsIcESaIcEEC1Ev
	mov	eax, DWORD PTR [ebp-60]
	add	eax, 172
	mov	ecx, eax
	call	__ZNSt7__cxx1112basic_stringIcSt11char_traitsIcESaIcEEC1Ev
	mov	eax, DWORD PTR [ebp-60]
	add	eax, 196
	mov	ecx, eax
	call	__ZNSt7__cxx1112basic_stringIcSt11char_traitsIcESaIcEEC1Ev
	mov	eax, DWORD PTR [ebp-60]
	add	eax, 220
	mov	ecx, eax
	call	__ZNSt7__cxx1112basic_stringIcSt11char_traitsIcESaIcEEC1Ev
	mov	eax, DWORD PTR [ebp-60]
	add	eax, 244
	mov	ecx, eax
	call	__ZNSt7__cxx1112basic_stringIcSt11char_traitsIcESaIcEEC1Ev
	mov	eax, DWORD PTR [ebp-60]
	add	eax, 268
	mov	ecx, eax
	call	__ZNSt7__cxx1112basic_stringIcSt11char_traitsIcESaIcEEC1Ev
	mov	eax, DWORD PTR [ebp-60]
	add	eax, 292
	mov	ecx, eax
	call	__ZNSt7__cxx1112basic_stringIcSt11char_traitsIcESaIcEEC1Ev
	mov	eax, DWORD PTR [ebp-60]
	add	eax, 316
	mov	ecx, eax
	call	__ZNSt7__cxx1112basic_stringIcSt11char_traitsIcESaIcEEC1Ev
	lea	eax, [ebp-56]
	mov	edx, DWORD PTR [ebp+8]
	mov	DWORD PTR [esp+4], edx
	mov	DWORD PTR [esp], eax
LEHB0:
	call	__ZN3DES7hex2binERKNSt7__cxx1112basic_stringIcSt11char_traitsIcESaIcEEE
LEHE0:
	mov	eax, DWORD PTR [ebp-60]
	lea	edx, [eax+4]
	lea	eax, [ebp-56]
	mov	DWORD PTR [esp], eax
	mov	ecx, edx
LEHB1:
	call	__ZNSt7__cxx1112basic_stringIcSt11char_traitsIcESaIcEEaSERKS4_
LEHE1:
	sub	esp, 4
	lea	eax, [ebp-56]
	mov	ecx, eax
	call	__ZNSt7__cxx1112basic_stringIcSt11char_traitsIcESaIcEED1Ev
	lea	eax, [ebp-32]
	mov	edx, DWORD PTR [ebp+12]
	mov	DWORD PTR [esp+4], edx
	mov	DWORD PTR [esp], eax
LEHB2:
	call	__ZN3DES7hex2binERKNSt7__cxx1112basic_stringIcSt11char_traitsIcESaIcEEE
LEHE2:
	mov	eax, DWORD PTR [ebp-60]
	lea	edx, [eax+148]
	lea	eax, [ebp-32]
	mov	DWORD PTR [esp], eax
	mov	ecx, edx
LEHB3:
	call	__ZNSt7__cxx1112basic_stringIcSt11char_traitsIcESaIcEEaSERKS4_
LEHE3:
	sub	esp, 4
	lea	eax, [ebp-32]
	mov	ecx, eax
	call	__ZNSt7__cxx1112basic_stringIcSt11char_traitsIcESaIcEED1Ev
	jmp	L25
L23:
	mov	ebx, eax
	lea	eax, [ebp-56]
	mov	ecx, eax
	call	__ZNSt7__cxx1112basic_stringIcSt11char_traitsIcESaIcEED1Ev
	jmp	L20
L24:
	mov	ebx, eax
	lea	eax, [ebp-32]
	mov	ecx, eax
	call	__ZNSt7__cxx1112basic_stringIcSt11char_traitsIcESaIcEED1Ev
	jmp	L20
L22:
	mov	ebx, eax
L20:
	mov	eax, DWORD PTR [ebp-60]
	add	eax, 316
	mov	ecx, eax
	call	__ZNSt7__cxx1112basic_stringIcSt11char_traitsIcESaIcEED1Ev
	mov	eax, DWORD PTR [ebp-60]
	add	eax, 292
	mov	ecx, eax
	call	__ZNSt7__cxx1112basic_stringIcSt11char_traitsIcESaIcEED1Ev
	mov	eax, DWORD PTR [ebp-60]
	add	eax, 268
	mov	ecx, eax
	call	__ZNSt7__cxx1112basic_stringIcSt11char_traitsIcESaIcEED1Ev
	mov	eax, DWORD PTR [ebp-60]
	add	eax, 244
	mov	ecx, eax
	call	__ZNSt7__cxx1112basic_stringIcSt11char_traitsIcESaIcEED1Ev
	mov	eax, DWORD PTR [ebp-60]
	add	eax, 220
	mov	ecx, eax
	call	__ZNSt7__cxx1112basic_stringIcSt11char_traitsIcESaIcEED1Ev
	mov	eax, DWORD PTR [ebp-60]
	add	eax, 196
	mov	ecx, eax
	call	__ZNSt7__cxx1112basic_stringIcSt11char_traitsIcESaIcEED1Ev
	mov	eax, DWORD PTR [ebp-60]
	add	eax, 172
	mov	ecx, eax
	call	__ZNSt7__cxx1112basic_stringIcSt11char_traitsIcESaIcEED1Ev
	mov	eax, DWORD PTR [ebp-60]
	add	eax, 148
	mov	ecx, eax
	call	__ZNSt7__cxx1112basic_stringIcSt11char_traitsIcESaIcEED1Ev
	mov	eax, DWORD PTR [ebp-60]
	add	eax, 124
	mov	ecx, eax
	call	__ZNSt7__cxx1112basic_stringIcSt11char_traitsIcESaIcEED1Ev
	mov	eax, DWORD PTR [ebp-60]
	add	eax, 100
	mov	ecx, eax
	call	__ZNSt7__cxx1112basic_stringIcSt11char_traitsIcESaIcEED1Ev
	mov	eax, DWORD PTR [ebp-60]
	add	eax, 76
	mov	ecx, eax
	call	__ZNSt7__cxx1112basic_stringIcSt11char_traitsIcESaIcEED1Ev
	mov	eax, DWORD PTR [ebp-60]
	add	eax, 52
	mov	ecx, eax
	call	__ZNSt7__cxx1112basic_stringIcSt11char_traitsIcESaIcEED1Ev
	mov	eax, DWORD PTR [ebp-60]
	add	eax, 28
	mov	ecx, eax
	call	__ZNSt7__cxx1112basic_stringIcSt11char_traitsIcESaIcEED1Ev
	mov	eax, DWORD PTR [ebp-60]
	add	eax, 4
	mov	ecx, eax
	call	__ZNSt7__cxx1112basic_stringIcSt11char_traitsIcESaIcEED1Ev
	mov	eax, ebx
	mov	DWORD PTR [esp], eax
LEHB4:
	call	__Unwind_Resume
LEHE4:
L25:
	mov	ebx, DWORD PTR [ebp-4]
	leave
	.cfi_restore 5
	.cfi_restore 3
	.cfi_def_cfa 4, 4
	ret	8
	.cfi_endproc
LFE2816:
	.def	___gxx_personality_v0;	.scl	2;	.type	32;	.endef
	.section	.gcc_except_table,"w"
LLSDA2816:
	.byte	0xff
	.byte	0xff
	.byte	0x1
	.uleb128 LLSDACSE2816-LLSDACSB2816
LLSDACSB2816:
	.uleb128 LEHB0-LFB2816
	.uleb128 LEHE0-LEHB0
	.uleb128 L22-LFB2816
	.uleb128 0
	.uleb128 LEHB1-LFB2816
	.uleb128 LEHE1-LEHB1
	.uleb128 L23-LFB2816
	.uleb128 0
	.uleb128 LEHB2-LFB2816
	.uleb128 LEHE2-LEHB2
	.uleb128 L22-LFB2816
	.uleb128 0
	.uleb128 LEHB3-LFB2816
	.uleb128 LEHE3-LEHB3
	.uleb128 L24-LFB2816
	.uleb128 0
	.uleb128 LEHB4-LFB2816
	.uleb128 LEHE4-LEHB4
	.uleb128 0
	.uleb128 0
LLSDACSE2816:
	.text
	.globl	__ZN3DESC1ENSt7__cxx1112basic_stringIcSt11char_traitsIcESaIcEEES5_
	.def	__ZN3DESC1ENSt7__cxx1112basic_stringIcSt11char_traitsIcESaIcEEES5_;	.scl	2;	.type	32;	.endef
	
	.align 2
	.globl	__ZN3DESD2Ev
	.def	__ZN3DESD2Ev;	.scl	2;	.type	32;	.endef
__ZN3DESD2Ev:
LFB2819:
	.cfi_startproc
	push	ebp
	.cfi_def_cfa_offset 8
	.cfi_offset 5, -8
	mov	ebp, esp
	.cfi_def_cfa_register 5
	sub	esp, 24
	mov	DWORD PTR [ebp-12], ecx
	mov	edx, OFFSET FLAT:__ZTV3DES+8
	mov	eax, DWORD PTR [ebp-12]
	mov	DWORD PTR [eax], edx
	mov	eax, DWORD PTR [ebp-12]
	add	eax, 316
	mov	ecx, eax
	call	__ZNSt7__cxx1112basic_stringIcSt11char_traitsIcESaIcEED1Ev
	mov	eax, DWORD PTR [ebp-12]
	add	eax, 292
	mov	ecx, eax
	call	__ZNSt7__cxx1112basic_stringIcSt11char_traitsIcESaIcEED1Ev
	mov	eax, DWORD PTR [ebp-12]
	add	eax, 268
	mov	ecx, eax
	call	__ZNSt7__cxx1112basic_stringIcSt11char_traitsIcESaIcEED1Ev
	mov	eax, DWORD PTR [ebp-12]
	add	eax, 244
	mov	ecx, eax
	call	__ZNSt7__cxx1112basic_stringIcSt11char_traitsIcESaIcEED1Ev
	mov	eax, DWORD PTR [ebp-12]
	add	eax, 220
	mov	ecx, eax
	call	__ZNSt7__cxx1112basic_stringIcSt11char_traitsIcESaIcEED1Ev
	mov	eax, DWORD PTR [ebp-12]
	add	eax, 196
	mov	ecx, eax
	call	__ZNSt7__cxx1112basic_stringIcSt11char_traitsIcESaIcEED1Ev
	mov	eax, DWORD PTR [ebp-12]
	add	eax, 172
	mov	ecx, eax
	call	__ZNSt7__cxx1112basic_stringIcSt11char_traitsIcESaIcEED1Ev
	mov	eax, DWORD PTR [ebp-12]
	add	eax, 148
	mov	ecx, eax
	call	__ZNSt7__cxx1112basic_stringIcSt11char_traitsIcESaIcEED1Ev
	mov	eax, DWORD PTR [ebp-12]
	add	eax, 124
	mov	ecx, eax
	call	__ZNSt7__cxx1112basic_stringIcSt11char_traitsIcESaIcEED1Ev
	mov	eax, DWORD PTR [ebp-12]
	add	eax, 100
	mov	ecx, eax
	call	__ZNSt7__cxx1112basic_stringIcSt11char_traitsIcESaIcEED1Ev
	mov	eax, DWORD PTR [ebp-12]
	add	eax, 76
	mov	ecx, eax
	call	__ZNSt7__cxx1112basic_stringIcSt11char_traitsIcESaIcEED1Ev
	mov	eax, DWORD PTR [ebp-12]
	add	eax, 52
	mov	ecx, eax
	call	__ZNSt7__cxx1112basic_stringIcSt11char_traitsIcESaIcEED1Ev
	mov	eax, DWORD PTR [ebp-12]
	add	eax, 28
	mov	ecx, eax
	call	__ZNSt7__cxx1112basic_stringIcSt11char_traitsIcESaIcEED1Ev
	mov	eax, DWORD PTR [ebp-12]
	add	eax, 4
	mov	ecx, eax
	call	__ZNSt7__cxx1112basic_stringIcSt11char_traitsIcESaIcEED1Ev
	nop
	leave
	.cfi_restore 5
	.cfi_def_cfa 4, 4
	ret
	.cfi_endproc
LFE2819:
	.globl	__ZN3DESD1Ev
	.def	__ZN3DESD1Ev;	.scl	2;	.type	32;	.endef
	
	.align 2
	.globl	__ZN3DESD0Ev
	.def	__ZN3DESD0Ev;	.scl	2;	.type	32;	.endef
__ZN3DESD0Ev:
LFB2821:
	.cfi_startproc
	push	ebp
	.cfi_def_cfa_offset 8
	.cfi_offset 5, -8
	mov	ebp, esp
	.cfi_def_cfa_register 5
	sub	esp, 40
	mov	DWORD PTR [ebp-12], ecx
	mov	eax, DWORD PTR [ebp-12]
	mov	ecx, eax
	call	__ZN3DESD1Ev
	mov	DWORD PTR [esp+4], 340
	mov	eax, DWORD PTR [ebp-12]
	mov	DWORD PTR [esp], eax
	call	__ZdlPvj
	leave
	.cfi_restore 5
	.cfi_def_cfa 4, 4
	ret
	.cfi_endproc
LFE2821:
	.section	.text$_ZNSt12_Base_bitsetILj2EEC2Ev,"x"
	.linkonce discard
	.align 2
	.globl	__ZNSt12_Base_bitsetILj2EEC2Ev
	.def	__ZNSt12_Base_bitsetILj2EEC2Ev;	.scl	2;	.type	32;	.endef
__ZNSt12_Base_bitsetILj2EEC2Ev:
LFB2825:
	.cfi_startproc
	push	ebp
	.cfi_def_cfa_offset 8
	.cfi_offset 5, -8
	mov	ebp, esp
	.cfi_def_cfa_register 5
	sub	esp, 4
	mov	DWORD PTR [ebp-4], ecx
	mov	edx, DWORD PTR [ebp-4]
	mov	eax, 1
L30:
	test	eax, eax
	js	L31
	mov	DWORD PTR [edx], 0
	add	edx, 4
	sub	eax, 1
	jmp	L30
L31:
	nop
	leave
	.cfi_restore 5
	.cfi_def_cfa 4, 4
	ret
	.cfi_endproc
LFE2825:
	.text
	.align 2
	.globl	__ZN3DES5xor48ERKNSt7__cxx1112basic_stringIcSt11char_traitsIcESaIcEEES7_
	.def	__ZN3DES5xor48ERKNSt7__cxx1112basic_stringIcSt11char_traitsIcESaIcEEES7_;	.scl	2;	.type	32;	.endef
__ZN3DES5xor48ERKNSt7__cxx1112basic_stringIcSt11char_traitsIcESaIcEEES7_:
LFB2822:
	.cfi_startproc
	push	ebp
	.cfi_def_cfa_offset 8
	.cfi_offset 5, -8
	mov	ebp, esp
	.cfi_def_cfa_register 5
	sub	esp, 88
	mov	DWORD PTR [ebp-60], ecx
	mov	DWORD PTR [ebp-40], 0
	mov	DWORD PTR [ebp-36], 0
	lea	eax, [ebp-48]
	mov	DWORD PTR [esp+4], 0
	mov	edx, DWORD PTR [ebp+8]
	mov	DWORD PTR [esp], edx
	mov	ecx, eax
	call	__ZNSt6bitsetILj48EEC1IcSt11char_traitsIcESaIcEEERKNSt7__cxx1112basic_stringIT_T0_T1_EEj
	sub	esp, 8
	lea	eax, [ebp-56]
	mov	DWORD PTR [esp+4], 0
	mov	edx, DWORD PTR [ebp+12]
	mov	DWORD PTR [esp], edx
	mov	ecx, eax
	call	__ZNSt6bitsetILj48EEC1IcSt11char_traitsIcESaIcEEERKNSt7__cxx1112basic_stringIT_T0_T1_EEj
	sub	esp, 8
	lea	eax, [ebp-56]
	mov	DWORD PTR [esp+4], eax
	lea	eax, [ebp-48]
	mov	DWORD PTR [esp], eax
	call	__ZSteoILj48EESt6bitsetIXT_EERKS1_S3_
	mov	DWORD PTR [ebp-40], eax
	mov	DWORD PTR [ebp-36], edx
	lea	eax, [ebp-32]
	lea	edx, [ebp-40]
	mov	DWORD PTR [esp], edx
	mov	ecx, eax
	call	__ZNKSt6bitsetILj48EE9to_stringB5cxx11Ev
	sub	esp, 4
	mov	eax, DWORD PTR [ebp-60]
	lea	edx, [eax+220]
	lea	eax, [ebp-32]
	mov	DWORD PTR [esp], eax
	mov	ecx, edx
	call	__ZNSt7__cxx1112basic_stringIcSt11char_traitsIcESaIcEEaSEOS4_
	sub	esp, 4
	lea	eax, [ebp-32]
	mov	ecx, eax
	call	__ZNSt7__cxx1112basic_stringIcSt11char_traitsIcESaIcEED1Ev
	nop
	leave
	.cfi_restore 5
	.cfi_def_cfa 4, 4
	ret	8
	.cfi_endproc
LFE2822:
	.align 2
	.globl	__ZN3DES5xor32ERKNSt7__cxx1112basic_stringIcSt11char_traitsIcESaIcEEES7_
	.def	__ZN3DES5xor32ERKNSt7__cxx1112basic_stringIcSt11char_traitsIcESaIcEEES7_;	.scl	2;	.type	32;	.endef
__ZN3DES5xor32ERKNSt7__cxx1112basic_stringIcSt11char_traitsIcESaIcEEES7_:
LFB2832:
	.cfi_startproc
	push	ebp
	.cfi_def_cfa_offset 8
	.cfi_offset 5, -8
	mov	ebp, esp
	.cfi_def_cfa_register 5
	sub	esp, 88
	mov	DWORD PTR [ebp-60], ecx
	mov	DWORD PTR [ebp-36], 0
	lea	eax, [ebp-40]
	mov	DWORD PTR [esp+4], 0
	mov	edx, DWORD PTR [ebp+8]
	mov	DWORD PTR [esp], edx
	mov	ecx, eax
	call	__ZNSt6bitsetILj32EEC1IcSt11char_traitsIcESaIcEEERKNSt7__cxx1112basic_stringIT_T0_T1_EEj
	sub	esp, 8
	lea	eax, [ebp-44]
	mov	DWORD PTR [esp+4], 0
	mov	edx, DWORD PTR [ebp+12]
	mov	DWORD PTR [esp], edx
	mov	ecx, eax
	call	__ZNSt6bitsetILj32EEC1IcSt11char_traitsIcESaIcEEERKNSt7__cxx1112basic_stringIT_T0_T1_EEj
	sub	esp, 8
	lea	eax, [ebp-44]
	mov	DWORD PTR [esp+4], eax
	lea	eax, [ebp-40]
	mov	DWORD PTR [esp], eax
	call	__ZSteoILj32EESt6bitsetIXT_EERKS1_S3_
	mov	DWORD PTR [ebp-36], eax
	lea	eax, [ebp-32]
	lea	edx, [ebp-36]
	mov	DWORD PTR [esp], edx
	mov	ecx, eax
	call	__ZNKSt6bitsetILj32EE9to_stringB5cxx11Ev
	sub	esp, 4
	mov	eax, DWORD PTR [ebp-60]
	lea	edx, [eax+52]
	lea	eax, [ebp-32]
	mov	DWORD PTR [esp], eax
	mov	ecx, edx
	call	__ZNSt7__cxx1112basic_stringIcSt11char_traitsIcESaIcEEaSEOS4_
	sub	esp, 4
	lea	eax, [ebp-32]
	mov	ecx, eax
	call	__ZNSt7__cxx1112basic_stringIcSt11char_traitsIcESaIcEED1Ev
	nop
	leave
	.cfi_restore 5
	.cfi_def_cfa 4, 4
	ret	8
	.cfi_endproc
LFE2832:
	.align 2
	.globl	__ZN3DES12initialPermuERKNSt7__cxx1112basic_stringIcSt11char_traitsIcESaIcEEE
	.def	__ZN3DES12initialPermuERKNSt7__cxx1112basic_stringIcSt11char_traitsIcESaIcEEE;	.scl	2;	.type	32;	.endef
__ZN3DES12initialPermuERKNSt7__cxx1112basic_stringIcSt11char_traitsIcESaIcEEE:
LFB2836:
	.cfi_startproc
	push	ebp
	.cfi_def_cfa_offset 8
	.cfi_offset 5, -8
	mov	ebp, esp
	.cfi_def_cfa_register 5
	push	ebx
	sub	esp, 84
	.cfi_offset 3, -12
	mov	DWORD PTR [ebp-60], ecx
	mov	DWORD PTR [ebp-52], 0
	mov	DWORD PTR [ebp-48], 0
	mov	ecx, DWORD PTR [ebp+8]
	call	__ZNKSt7__cxx1112basic_stringIcSt11char_traitsIcESaIcEE5beginEv
	mov	DWORD PTR [ebp-56], eax
L37:
	mov	ecx, DWORD PTR [ebp+8]
	call	__ZNKSt7__cxx1112basic_stringIcSt11char_traitsIcESaIcEE3endEv
	mov	DWORD PTR [ebp-44], eax
	lea	eax, [ebp-44]
	mov	DWORD PTR [esp+4], eax
	lea	eax, [ebp-56]
	mov	DWORD PTR [esp], eax
	call	__ZN9__gnu_cxxltIPKcNSt7__cxx1112basic_stringIcSt11char_traitsIcESaIcEEEEEbRKNS_17__normal_iteratorIT_T0_EESE_
	test	al, al
	je	L35
	lea	eax, [ebp-56]
	mov	ecx, eax
	call	__ZNK9__gnu_cxx17__normal_iteratorIPKcNSt7__cxx1112basic_stringIcSt11char_traitsIcESaIcEEEEdeEv
	movzx	eax, BYTE PTR [eax]
	cmp	al, 49
	sete	al
	test	al, al
	je	L36
	mov	ecx, DWORD PTR [ebp+8]
	call	__ZNKSt7__cxx1112basic_stringIcSt11char_traitsIcESaIcEE5beginEv
	mov	edx, eax
	mov	eax, DWORD PTR [ebp-56]
	mov	DWORD PTR [esp+4], eax
	mov	DWORD PTR [esp], edx
	call	__ZSt8distanceIN9__gnu_cxx17__normal_iteratorIPKcNSt7__cxx1112basic_stringIcSt11char_traitsIcESaIcEEEEEENSt15iterator_traitsIT_E15difference_typeESC_SC_
	add	eax, 1
	mov	DWORD PTR [ebp-40], eax
	mov	ecx, OFFSET FLAT:__ZN3DES23initialPermutationTableE
	call	__ZNKSt5arrayIiLj64EE3endEv
	mov	ebx, eax
	mov	ecx, OFFSET FLAT:__ZN3DES23initialPermutationTableE
	call	__ZNKSt5arrayIiLj64EE5beginEv
	mov	edx, eax
	lea	eax, [ebp-40]
	mov	DWORD PTR [esp+8], eax
	mov	DWORD PTR [esp+4], ebx
	mov	DWORD PTR [esp], edx
	call	__ZSt4findIPKiiET_S2_S2_RKT0_
	mov	ebx, eax
	mov	ecx, OFFSET FLAT:__ZN3DES23initialPermutationTableE
	call	__ZNKSt5arrayIiLj64EE5beginEv
	mov	DWORD PTR [esp+4], ebx
	mov	DWORD PTR [esp], eax
	call	__ZSt8distanceIPKiENSt15iterator_traitsIT_E15difference_typeES3_S3_
	mov	DWORD PTR [ebp-12], eax
	mov	eax, 63
	sub	eax, DWORD PTR [ebp-12]
	mov	edx, eax
	lea	eax, [ebp-52]
	mov	DWORD PTR [esp+4], 1
	mov	DWORD PTR [esp], edx
	mov	ecx, eax
	call	__ZNSt6bitsetILj64EE3setEjb
	sub	esp, 8
L36:
	lea	eax, [ebp-56]
	mov	DWORD PTR [esp], 0
	mov	ecx, eax
	call	__ZN9__gnu_cxx17__normal_iteratorIPKcNSt7__cxx1112basic_stringIcSt11char_traitsIcESaIcEEEEppEi
	sub	esp, 4
	jmp	L37
L35:
	lea	eax, [ebp-36]
	lea	edx, [ebp-52]
	mov	DWORD PTR [esp], edx
	mov	ecx, eax
	call	__ZNKSt6bitsetILj64EE9to_stringB5cxx11Ev
	sub	esp, 4
	mov	eax, DWORD PTR [ebp-60]
	lea	edx, [eax+268]
	lea	eax, [ebp-36]
	mov	DWORD PTR [esp], eax
	mov	ecx, edx
	call	__ZNSt7__cxx1112basic_stringIcSt11char_traitsIcESaIcEEaSEOS4_
	sub	esp, 4
	lea	eax, [ebp-36]
	mov	ecx, eax
	call	__ZNSt7__cxx1112basic_stringIcSt11char_traitsIcESaIcEED1Ev
	nop
	mov	ebx, DWORD PTR [ebp-4]
	leave
	.cfi_restore 5
	.cfi_restore 3
	.cfi_def_cfa 4, 4
	ret	4
	.cfi_endproc
LFE2836:
	.align 2
	.globl	__ZN3DES10finalPermuERKNSt7__cxx1112basic_stringIcSt11char_traitsIcESaIcEEE
	.def	__ZN3DES10finalPermuERKNSt7__cxx1112basic_stringIcSt11char_traitsIcESaIcEEE;	.scl	2;	.type	32;	.endef
__ZN3DES10finalPermuERKNSt7__cxx1112basic_stringIcSt11char_traitsIcESaIcEEE:
LFB2840:
	.cfi_startproc
	push	ebp
	.cfi_def_cfa_offset 8
	.cfi_offset 5, -8
	mov	ebp, esp
	.cfi_def_cfa_register 5
	push	ebx
	sub	esp, 84
	.cfi_offset 3, -12
	mov	DWORD PTR [ebp-60], ecx
	mov	DWORD PTR [ebp-52], 0
	mov	DWORD PTR [ebp-48], 0
	mov	ecx, DWORD PTR [ebp+8]
	call	__ZNKSt7__cxx1112basic_stringIcSt11char_traitsIcESaIcEE5beginEv
	mov	DWORD PTR [ebp-56], eax
L41:
	mov	ecx, DWORD PTR [ebp+8]
	call	__ZNKSt7__cxx1112basic_stringIcSt11char_traitsIcESaIcEE3endEv
	mov	DWORD PTR [ebp-44], eax
	lea	eax, [ebp-44]
	mov	DWORD PTR [esp+4], eax
	lea	eax, [ebp-56]
	mov	DWORD PTR [esp], eax
	call	__ZN9__gnu_cxxltIPKcNSt7__cxx1112basic_stringIcSt11char_traitsIcESaIcEEEEEbRKNS_17__normal_iteratorIT_T0_EESE_
	test	al, al
	je	L39
	lea	eax, [ebp-56]
	mov	ecx, eax
	call	__ZNK9__gnu_cxx17__normal_iteratorIPKcNSt7__cxx1112basic_stringIcSt11char_traitsIcESaIcEEEEdeEv
	movzx	eax, BYTE PTR [eax]
	cmp	al, 49
	sete	al
	test	al, al
	je	L40
	mov	ecx, DWORD PTR [ebp+8]
	call	__ZNKSt7__cxx1112basic_stringIcSt11char_traitsIcESaIcEE5beginEv
	mov	edx, eax
	mov	eax, DWORD PTR [ebp-56]
	mov	DWORD PTR [esp+4], eax
	mov	DWORD PTR [esp], edx
	call	__ZSt8distanceIN9__gnu_cxx17__normal_iteratorIPKcNSt7__cxx1112basic_stringIcSt11char_traitsIcESaIcEEEEEENSt15iterator_traitsIT_E15difference_typeESC_SC_
	add	eax, 1
	mov	DWORD PTR [ebp-40], eax
	mov	ecx, OFFSET FLAT:__ZN3DES21finalPermutationTableE
	call	__ZNKSt5arrayIiLj64EE3endEv
	mov	ebx, eax
	mov	ecx, OFFSET FLAT:__ZN3DES21finalPermutationTableE
	call	__ZNKSt5arrayIiLj64EE5beginEv
	mov	edx, eax
	lea	eax, [ebp-40]
	mov	DWORD PTR [esp+8], eax
	mov	DWORD PTR [esp+4], ebx
	mov	DWORD PTR [esp], edx
	call	__ZSt4findIPKiiET_S2_S2_RKT0_
	mov	ebx, eax
	mov	ecx, OFFSET FLAT:__ZN3DES21finalPermutationTableE
	call	__ZNKSt5arrayIiLj64EE5beginEv
	mov	DWORD PTR [esp+4], ebx
	mov	DWORD PTR [esp], eax
	call	__ZSt8distanceIPKiENSt15iterator_traitsIT_E15difference_typeES3_S3_
	mov	DWORD PTR [ebp-12], eax
	mov	eax, 63
	sub	eax, DWORD PTR [ebp-12]
	mov	edx, eax
	lea	eax, [ebp-52]
	mov	DWORD PTR [esp+4], 1
	mov	DWORD PTR [esp], edx
	mov	ecx, eax
	call	__ZNSt6bitsetILj64EE3setEjb
	sub	esp, 8
L40:
	lea	eax, [ebp-56]
	mov	DWORD PTR [esp], 0
	mov	ecx, eax
	call	__ZN9__gnu_cxx17__normal_iteratorIPKcNSt7__cxx1112basic_stringIcSt11char_traitsIcESaIcEEEEppEi
	sub	esp, 4
	jmp	L41
L39:
	lea	eax, [ebp-36]
	lea	edx, [ebp-52]
	mov	DWORD PTR [esp], edx
	mov	ecx, eax
	call	__ZNKSt6bitsetILj64EE9to_stringB5cxx11Ev
	sub	esp, 4
	mov	eax, DWORD PTR [ebp-60]
	lea	edx, [eax+28]
	lea	eax, [ebp-36]
	mov	DWORD PTR [esp], eax
	mov	ecx, edx
	call	__ZNSt7__cxx1112basic_stringIcSt11char_traitsIcESaIcEEaSEOS4_
	sub	esp, 4
	lea	eax, [ebp-36]
	mov	ecx, eax
	call	__ZNSt7__cxx1112basic_stringIcSt11char_traitsIcESaIcEED1Ev
	nop
	mov	ebx, DWORD PTR [ebp-4]
	leave
	.cfi_restore 5
	.cfi_restore 3
	.cfi_def_cfa 4, 4
	ret	4
	.cfi_endproc
LFE2840:
	.section	.text$_ZNSt14__array_traitsIiLj48EE6_S_refERA48_Kij,"x"
	.linkonce discard
	.globl	__ZNSt14__array_traitsIiLj48EE6_S_refERA48_Kij
	.def	__ZNSt14__array_traitsIiLj48EE6_S_refERA48_Kij;	.scl	2;	.type	32;	.endef
__ZNSt14__array_traitsIiLj48EE6_S_refERA48_Kij:
LFB2843:
	.cfi_startproc
	push	ebp
	.cfi_def_cfa_offset 8
	.cfi_offset 5, -8
	mov	ebp, esp
	.cfi_def_cfa_register 5
	mov	eax, DWORD PTR [ebp+12]
	lea	edx, [0+eax*4]
	mov	eax, DWORD PTR [ebp+8]
	add	eax, edx
	pop	ebp
	.cfi_restore 5
	.cfi_def_cfa 4, 4
	ret
	.cfi_endproc
LFE2843:
	.section .rdata,"dr"
	.align 4
LC0:
	.ascii "array::at: __n (which is %zu) >= _Nm (which is %zu)\0"
	.section	.text$_ZNKSt5arrayIiLj48EE2atEj,"x"
	.linkonce discard
	.align 2
	.globl	__ZNKSt5arrayIiLj48EE2atEj
	.def	__ZNKSt5arrayIiLj48EE2atEj;	.scl	2;	.type	32;	.endef
__ZNKSt5arrayIiLj48EE2atEj:
LFB2842:
	.cfi_startproc
	push	ebp
	.cfi_def_cfa_offset 8
	.cfi_offset 5, -8
	mov	ebp, esp
	.cfi_def_cfa_register 5
	sub	esp, 40
	mov	DWORD PTR [ebp-12], ecx
	cmp	DWORD PTR [ebp+8], 47
	ja	L45
	mov	eax, DWORD PTR [ebp-12]
	mov	edx, DWORD PTR [ebp+8]
	mov	DWORD PTR [esp+4], edx
	mov	DWORD PTR [esp], eax
	call	__ZNSt14__array_traitsIiLj48EE6_S_refERA48_Kij
	jmp	L48
L45:
	mov	DWORD PTR [esp+8], 48
	mov	eax, DWORD PTR [ebp+8]
	mov	DWORD PTR [esp+4], eax
	mov	DWORD PTR [esp], OFFSET FLAT:LC0
	call	__ZSt24__throw_out_of_range_fmtPKcz
L48:
	leave
	.cfi_restore 5
	.cfi_def_cfa 4, 4
	ret	4
	.cfi_endproc
LFE2842:
	.section .rdata,"dr"
	.align 4
LC1:
	.ascii "ERROR!: ExpansionPermu, Invalid inBlk size \0"
	.text
	.align 2
	.globl	__ZN3DES14expansionPermuERKNSt7__cxx1112basic_stringIcSt11char_traitsIcESaIcEEE
	.def	__ZN3DES14expansionPermuERKNSt7__cxx1112basic_stringIcSt11char_traitsIcESaIcEEE;	.scl	2;	.type	32;	.endef
__ZN3DES14expansionPermuERKNSt7__cxx1112basic_stringIcSt11char_traitsIcESaIcEEE:
LFB2841:
	.cfi_startproc
	.cfi_personality 0,___gxx_personality_v0
	.cfi_lsda 0,LLSDA2841
	push	ebp
	.cfi_def_cfa_offset 8
	.cfi_offset 5, -8
	mov	ebp, esp
	.cfi_def_cfa_register 5
	push	ebx
	sub	esp, 68
	.cfi_offset 3, -12
	mov	DWORD PTR [ebp-44], ecx
	mov	ecx, DWORD PTR [ebp+8]
	call	__ZNKSt7__cxx1112basic_stringIcSt11char_traitsIcESaIcEE6lengthEv
	cmp	eax, 32
	setne	al
	test	al, al
	je	L50
	mov	DWORD PTR [esp+4], OFFSET FLAT:LC1
	mov	DWORD PTR [esp], OFFSET FLAT:__ZSt4cout
LEHB5:
	call	__ZStlsISt11char_traitsIcEERSt13basic_ostreamIcT_ES5_PKc
LEHE5:
	mov	DWORD PTR [esp], 0
	call	_exit
L50:
	lea	eax, [ebp-36]
	mov	ecx, eax
	call	__ZNSt7__cxx1112basic_stringIcSt11char_traitsIcESaIcEEC1Ev
	mov	DWORD PTR [ebp-12], 0
L52:
	cmp	DWORD PTR [ebp-12], 47
	jg	L51
	mov	eax, DWORD PTR [ebp-12]
	mov	DWORD PTR [esp], eax
	mov	ecx, OFFSET FLAT:__ZN3DES25expansionPermutationTalbeE
LEHB6:
	call	__ZNKSt5arrayIiLj48EE2atEj
	sub	esp, 4
	mov	eax, DWORD PTR [eax]
	sub	eax, 1
	mov	DWORD PTR [esp], eax
	mov	ecx, DWORD PTR [ebp+8]
	call	__ZNKSt7__cxx1112basic_stringIcSt11char_traitsIcESaIcEEixEj
	sub	esp, 4
	movzx	eax, BYTE PTR [eax]
	movsx	edx, al
	lea	eax, [ebp-36]
	mov	DWORD PTR [esp], edx
	mov	ecx, eax
	call	__ZNSt7__cxx1112basic_stringIcSt11char_traitsIcESaIcEEpLEc
	sub	esp, 4
	add	DWORD PTR [ebp-12], 1
	jmp	L52
L51:
	mov	eax, DWORD PTR [ebp-44]
	lea	edx, [eax+292]
	lea	eax, [ebp-36]
	mov	DWORD PTR [esp], eax
	mov	ecx, edx
	call	__ZNSt7__cxx1112basic_stringIcSt11char_traitsIcESaIcEEaSERKS4_
LEHE6:
	sub	esp, 4
	lea	eax, [ebp-36]
	mov	ecx, eax
	call	__ZNSt7__cxx1112basic_stringIcSt11char_traitsIcESaIcEED1Ev
	jmp	L55
L54:
	mov	ebx, eax
	lea	eax, [ebp-36]
	mov	ecx, eax
	call	__ZNSt7__cxx1112basic_stringIcSt11char_traitsIcESaIcEED1Ev
	mov	eax, ebx
	mov	DWORD PTR [esp], eax
LEHB7:
	call	__Unwind_Resume
LEHE7:
L55:
	mov	ebx, DWORD PTR [ebp-4]
	leave
	.cfi_restore 5
	.cfi_restore 3
	.cfi_def_cfa 4, 4
	ret	4
	.cfi_endproc
LFE2841:
	.section	.gcc_except_table,"w"
LLSDA2841:
	.byte	0xff
	.byte	0xff
	.byte	0x1
	.uleb128 LLSDACSE2841-LLSDACSB2841
LLSDACSB2841:
	.uleb128 LEHB5-LFB2841
	.uleb128 LEHE5-LEHB5
	.uleb128 0
	.uleb128 0
	.uleb128 LEHB6-LFB2841
	.uleb128 LEHE6-LEHB6
	.uleb128 L54-LFB2841
	.uleb128 0
	.uleb128 LEHB7-LFB2841
	.uleb128 LEHE7-LEHB7
	.uleb128 0
	.uleb128 0
LLSDACSE2841:
	.text
	.section .rdata,"dr"
	.align 4
LC2:
	.ascii "ERROR!, shiftleft out of range\0"
	.text
	.align 2
	.globl	__ZN3DES9shiftLeftERNSt7__cxx1112basic_stringIcSt11char_traitsIcESaIcEEEi
	.def	__ZN3DES9shiftLeftERNSt7__cxx1112basic_stringIcSt11char_traitsIcESaIcEEEi;	.scl	2;	.type	32;	.endef
__ZN3DES9shiftLeftERNSt7__cxx1112basic_stringIcSt11char_traitsIcESaIcEEEi:
LFB2844:
	.cfi_startproc
	push	ebp
	.cfi_def_cfa_offset 8
	.cfi_offset 5, -8
	mov	ebp, esp
	.cfi_def_cfa_register 5
	push	esi
	push	ebx
	sub	esp, 48
	.cfi_offset 6, -12
	.cfi_offset 3, -16
	mov	DWORD PTR [ebp-28], ecx
	mov	ecx, DWORD PTR [ebp+8]
	call	__ZNKSt7__cxx1112basic_stringIcSt11char_traitsIcESaIcEE6lengthEv
	cmp	eax, DWORD PTR [ebp+12]
	setl	al
	test	al, al
	je	L57
	mov	DWORD PTR [esp+4], OFFSET FLAT:LC2
	mov	DWORD PTR [esp], OFFSET FLAT:__ZSt4cout
	call	__ZStlsISt11char_traitsIcEERSt13basic_ostreamIcT_ES5_PKc
	mov	DWORD PTR [esp], OFFSET FLAT:__ZSt4endlIcSt11char_traitsIcEERSt13basic_ostreamIT_T0_ES6_
	mov	ecx, eax
	call	__ZNSolsEPFRSoS_E
	sub	esp, 4
	mov	DWORD PTR [esp], 0
	call	_exit
L57:
	mov	ecx, DWORD PTR [ebp+8]
	call	__ZNSt7__cxx1112basic_stringIcSt11char_traitsIcESaIcEE3endEv
	mov	esi, eax
	mov	ecx, DWORD PTR [ebp+8]
	call	__ZNSt7__cxx1112basic_stringIcSt11char_traitsIcESaIcEE5beginEv
	mov	DWORD PTR [ebp-12], eax
	lea	eax, [ebp-12]
	mov	edx, DWORD PTR [ebp+12]
	mov	DWORD PTR [esp], edx
	mov	ecx, eax
	call	__ZNK9__gnu_cxx17__normal_iteratorIPcNSt7__cxx1112basic_stringIcSt11char_traitsIcESaIcEEEEplEi
	sub	esp, 4
	mov	ebx, eax
	mov	ecx, DWORD PTR [ebp+8]
	call	__ZNSt7__cxx1112basic_stringIcSt11char_traitsIcESaIcEE5beginEv
	mov	DWORD PTR [esp+8], esi
	mov	DWORD PTR [esp+4], ebx
	mov	DWORD PTR [esp], eax
	call	__ZNSt3_V26rotateIN9__gnu_cxx17__normal_iteratorIPcNSt7__cxx1112basic_stringIcSt11char_traitsIcESaIcEEEEEEET_SB_SB_SB_
	nop
	lea	esp, [ebp-8]
	pop	ebx
	.cfi_restore 3
	pop	esi
	.cfi_restore 6
	pop	ebp
	.cfi_restore 5
	.cfi_def_cfa 4, 4
	ret	8
	.cfi_endproc
LFE2844:
	.align 2
	.globl	__ZN3DES6keygenERKNSt7__cxx1112basic_stringIcSt11char_traitsIcESaIcEEEi
	.def	__ZN3DES6keygenERKNSt7__cxx1112basic_stringIcSt11char_traitsIcESaIcEEEi;	.scl	2;	.type	32;	.endef
__ZN3DES6keygenERKNSt7__cxx1112basic_stringIcSt11char_traitsIcESaIcEEEi:
LFB2845:
	.cfi_startproc
	push	ebp
	.cfi_def_cfa_offset 8
	.cfi_offset 5, -8
	mov	ebp, esp
	.cfi_def_cfa_register 5
	sub	esp, 120
	mov	DWORD PTR [ebp-92], ecx
	cmp	DWORD PTR [ebp+12], 1
	jne	L59
	mov	eax, DWORD PTR [ebp-92]
	mov	edx, DWORD PTR [ebp+8]
	mov	DWORD PTR [esp], edx
	mov	ecx, eax
	call	__ZN3DES15parityDropPermuERKNSt7__cxx1112basic_stringIcSt11char_traitsIcESaIcEEE
	sub	esp, 4
	mov	eax, DWORD PTR [ebp-92]
	lea	edx, [eax+172]
	lea	eax, [ebp-80]
	mov	DWORD PTR [esp+8], 28
	mov	DWORD PTR [esp+4], 0
	mov	DWORD PTR [esp], edx
	mov	ecx, eax
	call	__ZNKSt7__cxx1112basic_stringIcSt11char_traitsIcESaIcEE6substrEjj
	sub	esp, 12
	mov	eax, DWORD PTR [ebp-92]
	lea	edx, [eax+100]
	lea	eax, [ebp-80]
	mov	DWORD PTR [esp], eax
	mov	ecx, edx
	call	__ZNSt7__cxx1112basic_stringIcSt11char_traitsIcESaIcEEaSEOS4_
	sub	esp, 4
	lea	eax, [ebp-80]
	mov	ecx, eax
	call	__ZNSt7__cxx1112basic_stringIcSt11char_traitsIcESaIcEED1Ev
	mov	eax, DWORD PTR [ebp-92]
	lea	edx, [eax+172]
	lea	eax, [ebp-56]
	mov	DWORD PTR [esp+8], 28
	mov	DWORD PTR [esp+4], 28
	mov	DWORD PTR [esp], edx
	mov	ecx, eax
	call	__ZNKSt7__cxx1112basic_stringIcSt11char_traitsIcESaIcEE6substrEjj
	sub	esp, 12
	mov	eax, DWORD PTR [ebp-92]
	lea	edx, [eax+124]
	lea	eax, [ebp-56]
	mov	DWORD PTR [esp], eax
	mov	ecx, edx
	call	__ZNSt7__cxx1112basic_stringIcSt11char_traitsIcESaIcEEaSEOS4_
	sub	esp, 4
	lea	eax, [ebp-56]
	mov	ecx, eax
	call	__ZNSt7__cxx1112basic_stringIcSt11char_traitsIcESaIcEED1Ev
L59:
	cmp	DWORD PTR [ebp+12], 1
	je	L60
	cmp	DWORD PTR [ebp+12], 2
	je	L60
	cmp	DWORD PTR [ebp+12], 9
	je	L60
	cmp	DWORD PTR [ebp+12], 16
	jne	L61
L60:
	mov	eax, DWORD PTR [ebp-92]
	lea	edx, [eax+100]
	mov	eax, DWORD PTR [ebp-92]
	mov	DWORD PTR [esp+4], 1
	mov	DWORD PTR [esp], edx
	mov	ecx, eax
	call	__ZN3DES9shiftLeftERNSt7__cxx1112basic_stringIcSt11char_traitsIcESaIcEEEi
	sub	esp, 8
	mov	eax, DWORD PTR [ebp-92]
	lea	edx, [eax+124]
	mov	eax, DWORD PTR [ebp-92]
	mov	DWORD PTR [esp+4], 1
	mov	DWORD PTR [esp], edx
	mov	ecx, eax
	call	__ZN3DES9shiftLeftERNSt7__cxx1112basic_stringIcSt11char_traitsIcESaIcEEEi
	sub	esp, 8
	jmp	L62
L61:
	mov	eax, DWORD PTR [ebp-92]
	lea	edx, [eax+100]
	mov	eax, DWORD PTR [ebp-92]
	mov	DWORD PTR [esp+4], 2
	mov	DWORD PTR [esp], edx
	mov	ecx, eax
	call	__ZN3DES9shiftLeftERNSt7__cxx1112basic_stringIcSt11char_traitsIcESaIcEEEi
	sub	esp, 8
	mov	eax, DWORD PTR [ebp-92]
	lea	edx, [eax+124]
	mov	eax, DWORD PTR [ebp-92]
	mov	DWORD PTR [esp+4], 2
	mov	DWORD PTR [esp], edx
	mov	ecx, eax
	call	__ZN3DES9shiftLeftERNSt7__cxx1112basic_stringIcSt11char_traitsIcESaIcEEEi
	sub	esp, 8
L62:
	mov	eax, DWORD PTR [ebp-92]
	lea	ecx, [eax+124]
	mov	eax, DWORD PTR [ebp-92]
	lea	edx, [eax+100]
	lea	eax, [ebp-32]
	mov	DWORD PTR [esp+8], ecx
	mov	DWORD PTR [esp+4], edx
	mov	DWORD PTR [esp], eax
	call	__ZStplIcSt11char_traitsIcESaIcEENSt7__cxx1112basic_stringIT_T0_T1_EERKS8_SA_
	mov	eax, DWORD PTR [ebp-92]
	lea	edx, [eax+172]
	lea	eax, [ebp-32]
	mov	DWORD PTR [esp], eax
	mov	ecx, edx
	call	__ZNSt7__cxx1112basic_stringIcSt11char_traitsIcESaIcEEaSEOS4_
	sub	esp, 4
	lea	eax, [ebp-32]
	mov	ecx, eax
	call	__ZNSt7__cxx1112basic_stringIcSt11char_traitsIcESaIcEED1Ev
	mov	eax, DWORD PTR [ebp-92]
	lea	edx, [eax+172]
	mov	eax, DWORD PTR [ebp-92]
	mov	DWORD PTR [esp], edx
	mov	ecx, eax
	call	__ZN3DES16compressionPermuERKNSt7__cxx1112basic_stringIcSt11char_traitsIcESaIcEEE
	sub	esp, 4
	nop
	leave
	.cfi_restore 5
	.cfi_def_cfa 4, 4
	ret	8
	.cfi_endproc
LFE2845:
	.section	.text$_ZNSt13_Sanitize_valILj4ELb1EE18_S_do_sanitize_valEy,"x"
	.linkonce discard
	.globl	__ZNSt13_Sanitize_valILj4ELb1EE18_S_do_sanitize_valEy
	.def	__ZNSt13_Sanitize_valILj4ELb1EE18_S_do_sanitize_valEy;	.scl	2;	.type	32;	.endef
__ZNSt13_Sanitize_valILj4ELb1EE18_S_do_sanitize_valEy:
LFB2851:
	.cfi_startproc
	push	ebp
	.cfi_def_cfa_offset 8
	.cfi_offset 5, -8
	mov	ebp, esp
	.cfi_def_cfa_register 5
	sub	esp, 8
	mov	ecx, DWORD PTR [ebp+8]
	mov	DWORD PTR [ebp-8], ecx
	mov	ecx, DWORD PTR [ebp+12]
	mov	DWORD PTR [ebp-4], ecx
	mov	ecx, DWORD PTR [ebp-8]
	and	ecx, 15
	mov	eax, ecx
	mov	ecx, DWORD PTR [ebp-4]
	and	ecx, 0
	mov	edx, ecx
	leave
	.cfi_restore 5
	.cfi_def_cfa 4, 4
	ret
	.cfi_endproc
LFE2851:
	.section	.text$_ZNSt6bitsetILj4EEC1Ey,"x"
	.linkonce discard
	.align 2
	.globl	__ZNSt6bitsetILj4EEC1Ey
	.def	__ZNSt6bitsetILj4EEC1Ey;	.scl	2;	.type	32;	.endef
__ZNSt6bitsetILj4EEC1Ey:
LFB2853:
	.cfi_startproc
	push	ebp
	.cfi_def_cfa_offset 8
	.cfi_offset 5, -8
	mov	ebp, esp
	.cfi_def_cfa_register 5
	sub	esp, 40
	mov	DWORD PTR [ebp-12], ecx
	mov	eax, DWORD PTR [ebp+8]
	mov	DWORD PTR [ebp-24], eax
	mov	eax, DWORD PTR [ebp+12]
	mov	DWORD PTR [ebp-20], eax
	mov	eax, DWORD PTR [ebp-24]
	mov	edx, DWORD PTR [ebp-20]
	mov	DWORD PTR [esp], eax
	mov	DWORD PTR [esp+4], edx
	call	__ZNSt13_Sanitize_valILj4ELb1EE18_S_do_sanitize_valEy
	mov	ecx, DWORD PTR [ebp-12]
	mov	DWORD PTR [esp], eax
	mov	DWORD PTR [esp+4], edx
	call	__ZNSt12_Base_bitsetILj1EEC2Ey
	sub	esp, 8
	nop
	leave
	.cfi_restore 5
	.cfi_def_cfa 4, 4
	ret	8
	.cfi_endproc
LFE2853:
	.section .rdata,"dr"
LC3:
	.ascii "\0"
	.align 4
LC4:
	.ascii "ERROR!, sBoxSelector invalid arqument\0"
	.text
	.align 2
	.globl	__ZN3DES4sBoxERKNSt7__cxx1112basic_stringIcSt11char_traitsIcESaIcEEE
	.def	__ZN3DES4sBoxERKNSt7__cxx1112basic_stringIcSt11char_traitsIcESaIcEEE;	.scl	2;	.type	32;	.endef
__ZN3DES4sBoxERKNSt7__cxx1112basic_stringIcSt11char_traitsIcESaIcEEE:
LFB2846:
	.cfi_startproc
	.cfi_personality 0,___gxx_personality_v0
	.cfi_lsda 0,LLSDA2846
	push	ebp
	.cfi_def_cfa_offset 8
	.cfi_offset 5, -8
	mov	ebp, esp
	.cfi_def_cfa_register 5
	push	ebx
	sub	esp, 212
	.cfi_offset 3, -12
	mov	DWORD PTR [ebp-188], ecx
	mov	eax, DWORD PTR [ebp-188]
	add	eax, 244
	mov	DWORD PTR [esp], OFFSET FLAT:LC3
	mov	ecx, eax
LEHB8:
	call	__ZNSt7__cxx1112basic_stringIcSt11char_traitsIcESaIcEEaSEPKc
	sub	esp, 4
	mov	DWORD PTR [ebp-176], 0
	mov	DWORD PTR [ebp-16], 0
	mov	DWORD PTR [ebp-20], 0
	mov	DWORD PTR [ebp-12], 0
L79:
	cmp	DWORD PTR [ebp-12], 47
	jg	L90
	mov	eax, DWORD PTR [ebp-12]
	add	eax, 5
	mov	edx, eax
	lea	eax, [ebp-148]
	mov	DWORD PTR [esp+8], 1
	mov	DWORD PTR [esp+4], edx
	mov	edx, DWORD PTR [ebp+8]
	mov	DWORD PTR [esp], edx
	mov	ecx, eax
	call	__ZNKSt7__cxx1112basic_stringIcSt11char_traitsIcESaIcEE6substrEjj
LEHE8:
	sub	esp, 12
	mov	edx, DWORD PTR [ebp-12]
	lea	eax, [ebp-124]
	mov	DWORD PTR [esp+8], 1
	mov	DWORD PTR [esp+4], edx
	mov	edx, DWORD PTR [ebp+8]
	mov	DWORD PTR [esp], edx
	mov	ecx, eax
LEHB9:
	call	__ZNKSt7__cxx1112basic_stringIcSt11char_traitsIcESaIcEE6substrEjj
LEHE9:
	sub	esp, 12
	lea	eax, [ebp-172]
	lea	edx, [ebp-148]
	mov	DWORD PTR [esp+8], edx
	lea	edx, [ebp-124]
	mov	DWORD PTR [esp+4], edx
	mov	DWORD PTR [esp], eax
LEHB10:
	call	__ZStplIcSt11char_traitsIcESaIcEENSt7__cxx1112basic_stringIT_T0_T1_EEOS8_S9_
LEHE10:
	lea	eax, [ebp-172]
	mov	DWORD PTR [esp], eax
LEHB11:
	call	__ZN3DES7bin2decERKNSt7__cxx1112basic_stringIcSt11char_traitsIcESaIcEEE
LEHE11:
	mov	DWORD PTR [ebp-16], eax
	lea	eax, [ebp-172]
	mov	ecx, eax
	call	__ZNSt7__cxx1112basic_stringIcSt11char_traitsIcESaIcEED1Ev
	lea	eax, [ebp-124]
	mov	ecx, eax
	call	__ZNSt7__cxx1112basic_stringIcSt11char_traitsIcESaIcEED1Ev
	lea	eax, [ebp-148]
	mov	ecx, eax
	call	__ZNSt7__cxx1112basic_stringIcSt11char_traitsIcESaIcEED1Ev
	mov	eax, DWORD PTR [ebp-12]
	add	eax, 1
	mov	edx, eax
	lea	eax, [ebp-100]
	mov	DWORD PTR [esp+8], 4
	mov	DWORD PTR [esp+4], edx
	mov	edx, DWORD PTR [ebp+8]
	mov	DWORD PTR [esp], edx
	mov	ecx, eax
LEHB12:
	call	__ZNKSt7__cxx1112basic_stringIcSt11char_traitsIcESaIcEE6substrEjj
LEHE12:
	sub	esp, 12
	lea	eax, [ebp-100]
	mov	DWORD PTR [esp], eax
LEHB13:
	call	__ZN3DES7bin2decERKNSt7__cxx1112basic_stringIcSt11char_traitsIcESaIcEEE
LEHE13:
	mov	DWORD PTR [ebp-20], eax
	lea	eax, [ebp-100]
	mov	ecx, eax
	call	__ZNSt7__cxx1112basic_stringIcSt11char_traitsIcESaIcEED1Ev
	cmp	DWORD PTR [ebp-12], 42
	ja	L68
	mov	eax, DWORD PTR [ebp-12]
	sal	eax, 2
	add	eax, OFFSET FLAT:L70
	mov	eax, DWORD PTR [eax]
	jmp	eax
	.section .rdata,"dr"
	.align 4
L70:
	.long	L69
	.long	L68
	.long	L68
	.long	L68
	.long	L68
	.long	L68
	.long	L71
	.long	L68
	.long	L68
	.long	L68
	.long	L68
	.long	L68
	.long	L72
	.long	L68
	.long	L68
	.long	L68
	.long	L68
	.long	L68
	.long	L73
	.long	L68
	.long	L68
	.long	L68
	.long	L68
	.long	L68
	.long	L74
	.long	L68
	.long	L68
	.long	L68
	.long	L68
	.long	L68
	.long	L75
	.long	L68
	.long	L68
	.long	L68
	.long	L68
	.long	L68
	.long	L76
	.long	L68
	.long	L68
	.long	L68
	.long	L68
	.long	L68
	.long	L77
	.text
L69:
	mov	eax, DWORD PTR [ebp-16]
	sal	eax, 4
	mov	edx, eax
	mov	eax, DWORD PTR [ebp-20]
	add	eax, edx
	mov	eax, DWORD PTR __ZN3DES2s1E[0+eax*4]
	cdq
	lea	ecx, [ebp-76]
	mov	DWORD PTR [esp], eax
	mov	DWORD PTR [esp+4], edx
	call	__ZNSt6bitsetILj4EEC1Ey
	sub	esp, 8
	mov	eax, DWORD PTR [ebp-76]
	mov	DWORD PTR [ebp-176], eax
	jmp	L78
L71:
	mov	eax, DWORD PTR [ebp-16]
	sal	eax, 4
	mov	edx, eax
	mov	eax, DWORD PTR [ebp-20]
	add	eax, edx
	mov	eax, DWORD PTR __ZN3DES2s2E[0+eax*4]
	cdq
	lea	ecx, [ebp-72]
	mov	DWORD PTR [esp], eax
	mov	DWORD PTR [esp+4], edx
	call	__ZNSt6bitsetILj4EEC1Ey
	sub	esp, 8
	mov	eax, DWORD PTR [ebp-72]
	mov	DWORD PTR [ebp-176], eax
	jmp	L78
L72:
	mov	eax, DWORD PTR [ebp-16]
	sal	eax, 4
	mov	edx, eax
	mov	eax, DWORD PTR [ebp-20]
	add	eax, edx
	mov	eax, DWORD PTR __ZN3DES2s3E[0+eax*4]
	cdq
	lea	ecx, [ebp-68]
	mov	DWORD PTR [esp], eax
	mov	DWORD PTR [esp+4], edx
	call	__ZNSt6bitsetILj4EEC1Ey
	sub	esp, 8
	mov	eax, DWORD PTR [ebp-68]
	mov	DWORD PTR [ebp-176], eax
	jmp	L78
L73:
	mov	eax, DWORD PTR [ebp-16]
	sal	eax, 4
	mov	edx, eax
	mov	eax, DWORD PTR [ebp-20]
	add	eax, edx
	mov	eax, DWORD PTR __ZN3DES2s4E[0+eax*4]
	cdq
	lea	ecx, [ebp-64]
	mov	DWORD PTR [esp], eax
	mov	DWORD PTR [esp+4], edx
	call	__ZNSt6bitsetILj4EEC1Ey
	sub	esp, 8
	mov	eax, DWORD PTR [ebp-64]
	mov	DWORD PTR [ebp-176], eax
	jmp	L78
L74:
	mov	eax, DWORD PTR [ebp-16]
	sal	eax, 4
	mov	edx, eax
	mov	eax, DWORD PTR [ebp-20]
	add	eax, edx
	mov	eax, DWORD PTR __ZN3DES2s5E[0+eax*4]
	cdq
	lea	ecx, [ebp-60]
	mov	DWORD PTR [esp], eax
	mov	DWORD PTR [esp+4], edx
	call	__ZNSt6bitsetILj4EEC1Ey
	sub	esp, 8
	mov	eax, DWORD PTR [ebp-60]
	mov	DWORD PTR [ebp-176], eax
	jmp	L78
L75:
	mov	eax, DWORD PTR [ebp-16]
	sal	eax, 4
	mov	edx, eax
	mov	eax, DWORD PTR [ebp-20]
	add	eax, edx
	mov	eax, DWORD PTR __ZN3DES2s6E[0+eax*4]
	cdq
	lea	ecx, [ebp-56]
	mov	DWORD PTR [esp], eax
	mov	DWORD PTR [esp+4], edx
	call	__ZNSt6bitsetILj4EEC1Ey
	sub	esp, 8
	mov	eax, DWORD PTR [ebp-56]
	mov	DWORD PTR [ebp-176], eax
	jmp	L78
L76:
	mov	eax, DWORD PTR [ebp-16]
	sal	eax, 4
	mov	edx, eax
	mov	eax, DWORD PTR [ebp-20]
	add	eax, edx
	mov	eax, DWORD PTR __ZN3DES2s7E[0+eax*4]
	cdq
	lea	ecx, [ebp-52]
	mov	DWORD PTR [esp], eax
	mov	DWORD PTR [esp+4], edx
	call	__ZNSt6bitsetILj4EEC1Ey
	sub	esp, 8
	mov	eax, DWORD PTR [ebp-52]
	mov	DWORD PTR [ebp-176], eax
	jmp	L78
L77:
	mov	eax, DWORD PTR [ebp-16]
	sal	eax, 4
	mov	edx, eax
	mov	eax, DWORD PTR [ebp-20]
	add	eax, edx
	mov	eax, DWORD PTR __ZN3DES2s8E[0+eax*4]
	cdq
	lea	ecx, [ebp-48]
	mov	DWORD PTR [esp], eax
	mov	DWORD PTR [esp+4], edx
	call	__ZNSt6bitsetILj4EEC1Ey
	sub	esp, 8
	mov	eax, DWORD PTR [ebp-48]
	mov	DWORD PTR [ebp-176], eax
	jmp	L78
L68:
	mov	DWORD PTR [esp+4], OFFSET FLAT:LC4
	mov	DWORD PTR [esp], OFFSET FLAT:__ZSt4cout
LEHB14:
	call	__ZStlsISt11char_traitsIcEERSt13basic_ostreamIcT_ES5_PKc
	mov	DWORD PTR [esp], OFFSET FLAT:__ZSt4endlIcSt11char_traitsIcEERSt13basic_ostreamIT_T0_ES6_
	mov	ecx, eax
	call	__ZNSolsEPFRSoS_E
	sub	esp, 4
	mov	DWORD PTR [esp], 0
	call	_exit
L78:
	lea	eax, [ebp-44]
	lea	edx, [ebp-176]
	mov	DWORD PTR [esp], edx
	mov	ecx, eax
	call	__ZNKSt6bitsetILj4EE9to_stringB5cxx11Ev
LEHE14:
	sub	esp, 4
	mov	eax, DWORD PTR [ebp-188]
	lea	edx, [eax+244]
	lea	eax, [ebp-44]
	mov	DWORD PTR [esp], eax
	mov	ecx, edx
LEHB15:
	call	__ZNSt7__cxx1112basic_stringIcSt11char_traitsIcESaIcEEpLERKS4_
LEHE15:
	sub	esp, 4
	lea	eax, [ebp-44]
	mov	ecx, eax
	call	__ZNSt7__cxx1112basic_stringIcSt11char_traitsIcESaIcEED1Ev
	add	DWORD PTR [ebp-12], 6
	jmp	L79
L87:
	mov	ebx, eax
	lea	eax, [ebp-172]
	mov	ecx, eax
	call	__ZNSt7__cxx1112basic_stringIcSt11char_traitsIcESaIcEED1Ev
	jmp	L81
L86:
	mov	ebx, eax
L81:
	lea	eax, [ebp-124]
	mov	ecx, eax
	call	__ZNSt7__cxx1112basic_stringIcSt11char_traitsIcESaIcEED1Ev
	jmp	L82
L85:
	mov	ebx, eax
L82:
	lea	eax, [ebp-148]
	mov	ecx, eax
	call	__ZNSt7__cxx1112basic_stringIcSt11char_traitsIcESaIcEED1Ev
	mov	eax, ebx
	mov	DWORD PTR [esp], eax
LEHB16:
	call	__Unwind_Resume
L88:
	mov	ebx, eax
	lea	eax, [ebp-100]
	mov	ecx, eax
	call	__ZNSt7__cxx1112basic_stringIcSt11char_traitsIcESaIcEED1Ev
	mov	eax, ebx
	mov	DWORD PTR [esp], eax
	call	__Unwind_Resume
L89:
	mov	ebx, eax
	lea	eax, [ebp-44]
	mov	ecx, eax
	call	__ZNSt7__cxx1112basic_stringIcSt11char_traitsIcESaIcEED1Ev
	mov	eax, ebx
	mov	DWORD PTR [esp], eax
	call	__Unwind_Resume
LEHE16:
L90:
	nop
	mov	ebx, DWORD PTR [ebp-4]
	leave
	.cfi_restore 5
	.cfi_restore 3
	.cfi_def_cfa 4, 4
	ret	4
	.cfi_endproc
LFE2846:
	.section	.gcc_except_table,"w"
LLSDA2846:
	.byte	0xff
	.byte	0xff
	.byte	0x1
	.uleb128 LLSDACSE2846-LLSDACSB2846
LLSDACSB2846:
	.uleb128 LEHB8-LFB2846
	.uleb128 LEHE8-LEHB8
	.uleb128 0
	.uleb128 0
	.uleb128 LEHB9-LFB2846
	.uleb128 LEHE9-LEHB9
	.uleb128 L85-LFB2846
	.uleb128 0
	.uleb128 LEHB10-LFB2846
	.uleb128 LEHE10-LEHB10
	.uleb128 L86-LFB2846
	.uleb128 0
	.uleb128 LEHB11-LFB2846
	.uleb128 LEHE11-LEHB11
	.uleb128 L87-LFB2846
	.uleb128 0
	.uleb128 LEHB12-LFB2846
	.uleb128 LEHE12-LEHB12
	.uleb128 0
	.uleb128 0
	.uleb128 LEHB13-LFB2846
	.uleb128 LEHE13-LEHB13
	.uleb128 L88-LFB2846
	.uleb128 0
	.uleb128 LEHB14-LFB2846
	.uleb128 LEHE14-LEHB14
	.uleb128 0
	.uleb128 0
	.uleb128 LEHB15-LFB2846
	.uleb128 LEHE15-LEHB15
	.uleb128 L89-LFB2846
	.uleb128 0
	.uleb128 LEHB16-LFB2846
	.uleb128 LEHE16-LEHB16
	.uleb128 0
	.uleb128 0
LLSDACSE2846:
	.text
	.align 2
	.globl	__ZN3DES13straightPermuERKNSt7__cxx1112basic_stringIcSt11char_traitsIcESaIcEEE
	.def	__ZN3DES13straightPermuERKNSt7__cxx1112basic_stringIcSt11char_traitsIcESaIcEEE;	.scl	2;	.type	32;	.endef
__ZN3DES13straightPermuERKNSt7__cxx1112basic_stringIcSt11char_traitsIcESaIcEEE:
LFB2854:
	.cfi_startproc
	push	ebp
	.cfi_def_cfa_offset 8
	.cfi_offset 5, -8
	mov	ebp, esp
	.cfi_def_cfa_register 5
	push	ebx
	sub	esp, 84
	.cfi_offset 3, -12
	mov	DWORD PTR [ebp-60], ecx
	mov	DWORD PTR [ebp-48], 0
	mov	ecx, DWORD PTR [ebp+8]
	call	__ZNKSt7__cxx1112basic_stringIcSt11char_traitsIcESaIcEE5beginEv
	mov	DWORD PTR [ebp-52], eax
L94:
	mov	ecx, DWORD PTR [ebp+8]
	call	__ZNKSt7__cxx1112basic_stringIcSt11char_traitsIcESaIcEE3endEv
	mov	DWORD PTR [ebp-44], eax
	lea	eax, [ebp-44]
	mov	DWORD PTR [esp+4], eax
	lea	eax, [ebp-52]
	mov	DWORD PTR [esp], eax
	call	__ZN9__gnu_cxxltIPKcNSt7__cxx1112basic_stringIcSt11char_traitsIcESaIcEEEEEbRKNS_17__normal_iteratorIT_T0_EESE_
	test	al, al
	je	L92
	lea	eax, [ebp-52]
	mov	ecx, eax
	call	__ZNK9__gnu_cxx17__normal_iteratorIPKcNSt7__cxx1112basic_stringIcSt11char_traitsIcESaIcEEEEdeEv
	movzx	eax, BYTE PTR [eax]
	cmp	al, 49
	sete	al
	test	al, al
	je	L93
	mov	ecx, DWORD PTR [ebp+8]
	call	__ZNKSt7__cxx1112basic_stringIcSt11char_traitsIcESaIcEE5beginEv
	mov	edx, eax
	mov	eax, DWORD PTR [ebp-52]
	mov	DWORD PTR [esp+4], eax
	mov	DWORD PTR [esp], edx
	call	__ZSt8distanceIN9__gnu_cxx17__normal_iteratorIPKcNSt7__cxx1112basic_stringIcSt11char_traitsIcESaIcEEEEEENSt15iterator_traitsIT_E15difference_typeESC_SC_
	add	eax, 1
	mov	DWORD PTR [ebp-40], eax
	mov	ecx, OFFSET FLAT:__ZN3DES24straightPermutationTableE
	call	__ZNKSt5arrayIiLj32EE3endEv
	mov	ebx, eax
	mov	ecx, OFFSET FLAT:__ZN3DES24straightPermutationTableE
	call	__ZNKSt5arrayIiLj32EE5beginEv
	mov	edx, eax
	lea	eax, [ebp-40]
	mov	DWORD PTR [esp+8], eax
	mov	DWORD PTR [esp+4], ebx
	mov	DWORD PTR [esp], edx
	call	__ZSt4findIPKiiET_S2_S2_RKT0_
	mov	ebx, eax
	mov	ecx, OFFSET FLAT:__ZN3DES24straightPermutationTableE
	call	__ZNKSt5arrayIiLj32EE5beginEv
	mov	DWORD PTR [esp+4], ebx
	mov	DWORD PTR [esp], eax
	call	__ZSt8distanceIPKiENSt15iterator_traitsIT_E15difference_typeES3_S3_
	mov	DWORD PTR [ebp-12], eax
	mov	eax, 31
	sub	eax, DWORD PTR [ebp-12]
	mov	edx, eax
	lea	eax, [ebp-48]
	mov	DWORD PTR [esp+4], 1
	mov	DWORD PTR [esp], edx
	mov	ecx, eax
	call	__ZNSt6bitsetILj32EE3setEjb
	sub	esp, 8
L93:
	lea	eax, [ebp-52]
	mov	DWORD PTR [esp], 0
	mov	ecx, eax
	call	__ZN9__gnu_cxx17__normal_iteratorIPKcNSt7__cxx1112basic_stringIcSt11char_traitsIcESaIcEEEEppEi
	sub	esp, 4
	jmp	L94
L92:
	lea	eax, [ebp-36]
	lea	edx, [ebp-48]
	mov	DWORD PTR [esp], edx
	mov	ecx, eax
	call	__ZNKSt6bitsetILj32EE9to_stringB5cxx11Ev
	sub	esp, 4
	mov	eax, DWORD PTR [ebp-60]
	lea	edx, [eax+316]
	lea	eax, [ebp-36]
	mov	DWORD PTR [esp], eax
	mov	ecx, edx
	call	__ZNSt7__cxx1112basic_stringIcSt11char_traitsIcESaIcEEaSEOS4_
	sub	esp, 4
	lea	eax, [ebp-36]
	mov	ecx, eax
	call	__ZNSt7__cxx1112basic_stringIcSt11char_traitsIcESaIcEED1Ev
	nop
	mov	ebx, DWORD PTR [ebp-4]
	leave
	.cfi_restore 5
	.cfi_restore 3
	.cfi_def_cfa 4, 4
	ret	4
	.cfi_endproc
LFE2854:
	.align 2
	.globl	__ZN3DES15parityDropPermuERKNSt7__cxx1112basic_stringIcSt11char_traitsIcESaIcEEE
	.def	__ZN3DES15parityDropPermuERKNSt7__cxx1112basic_stringIcSt11char_traitsIcESaIcEEE;	.scl	2;	.type	32;	.endef
__ZN3DES15parityDropPermuERKNSt7__cxx1112basic_stringIcSt11char_traitsIcESaIcEEE:
LFB2855:
	.cfi_startproc
	push	ebp
	.cfi_def_cfa_offset 8
	.cfi_offset 5, -8
	mov	ebp, esp
	.cfi_def_cfa_register 5
	push	ebx
	sub	esp, 84
	.cfi_offset 3, -12
	mov	DWORD PTR [ebp-60], ecx
	mov	DWORD PTR [ebp-48], 0
	mov	DWORD PTR [ebp-44], 0
	mov	ecx, DWORD PTR [ebp+8]
	call	__ZNKSt7__cxx1112basic_stringIcSt11char_traitsIcESaIcEE5beginEv
	mov	DWORD PTR [ebp-56], eax
L100:
	mov	ecx, DWORD PTR [ebp+8]
	call	__ZNKSt7__cxx1112basic_stringIcSt11char_traitsIcESaIcEE3endEv
	mov	DWORD PTR [ebp-40], eax
	lea	eax, [ebp-40]
	mov	DWORD PTR [esp+4], eax
	lea	eax, [ebp-56]
	mov	DWORD PTR [esp], eax
	call	__ZN9__gnu_cxxltIPKcNSt7__cxx1112basic_stringIcSt11char_traitsIcESaIcEEEEEbRKNS_17__normal_iteratorIT_T0_EESE_
	test	al, al
	je	L96
	mov	ecx, DWORD PTR [ebp+8]
	call	__ZNKSt7__cxx1112basic_stringIcSt11char_traitsIcESaIcEE5beginEv
	mov	edx, eax
	mov	eax, DWORD PTR [ebp-56]
	mov	DWORD PTR [esp+4], eax
	mov	DWORD PTR [esp], edx
	call	__ZSt8distanceIN9__gnu_cxx17__normal_iteratorIPKcNSt7__cxx1112basic_stringIcSt11char_traitsIcESaIcEEEEEENSt15iterator_traitsIT_E15difference_typeESC_SC_
	add	eax, 1
	mov	DWORD PTR [ebp-52], eax
	lea	eax, [ebp-56]
	mov	ecx, eax
	call	__ZNK9__gnu_cxx17__normal_iteratorIPKcNSt7__cxx1112basic_stringIcSt11char_traitsIcESaIcEEEEdeEv
	movzx	eax, BYTE PTR [eax]
	cmp	al, 49
	jne	L97
	mov	eax, DWORD PTR [ebp-52]
	cmp	eax, 8
	je	L97
	mov	eax, DWORD PTR [ebp-52]
	cmp	eax, 16
	je	L97
	mov	eax, DWORD PTR [ebp-52]
	cmp	eax, 24
	je	L97
	mov	eax, DWORD PTR [ebp-52]
	cmp	eax, 32
	je	L97
	mov	eax, DWORD PTR [ebp-52]
	cmp	eax, 40
	je	L97
	mov	eax, DWORD PTR [ebp-52]
	cmp	eax, 48
	je	L97
	mov	eax, DWORD PTR [ebp-52]
	cmp	eax, 56
	je	L97
	mov	eax, DWORD PTR [ebp-52]
	cmp	eax, 64
	je	L97
	mov	eax, 1
	jmp	L98
L97:
	mov	eax, 0
L98:
	test	al, al
	je	L99
	mov	ecx, OFFSET FLAT:__ZN3DES18parityBitDropTableE
	call	__ZNKSt5arrayIiLj56EE3endEv
	mov	ebx, eax
	mov	ecx, OFFSET FLAT:__ZN3DES18parityBitDropTableE
	call	__ZNKSt5arrayIiLj56EE5beginEv
	mov	edx, eax
	lea	eax, [ebp-52]
	mov	DWORD PTR [esp+8], eax
	mov	DWORD PTR [esp+4], ebx
	mov	DWORD PTR [esp], edx
	call	__ZSt4findIPKiiET_S2_S2_RKT0_
	mov	ebx, eax
	mov	ecx, OFFSET FLAT:__ZN3DES18parityBitDropTableE
	call	__ZNKSt5arrayIiLj56EE5beginEv
	mov	DWORD PTR [esp+4], ebx
	mov	DWORD PTR [esp], eax
	call	__ZSt8distanceIPKiENSt15iterator_traitsIT_E15difference_typeES3_S3_
	mov	DWORD PTR [ebp-12], eax
	mov	eax, 55
	sub	eax, DWORD PTR [ebp-12]
	mov	edx, eax
	lea	eax, [ebp-48]
	mov	DWORD PTR [esp+4], 1
	mov	DWORD PTR [esp], edx
	mov	ecx, eax
	call	__ZNSt6bitsetILj56EE3setEjb
	sub	esp, 8
L99:
	lea	eax, [ebp-56]
	mov	DWORD PTR [esp], 0
	mov	ecx, eax
	call	__ZN9__gnu_cxx17__normal_iteratorIPKcNSt7__cxx1112basic_stringIcSt11char_traitsIcESaIcEEEEppEi
	sub	esp, 4
	jmp	L100
L96:
	lea	eax, [ebp-36]
	lea	edx, [ebp-48]
	mov	DWORD PTR [esp], edx
	mov	ecx, eax
	call	__ZNKSt6bitsetILj56EE9to_stringB5cxx11Ev
	sub	esp, 4
	mov	eax, DWORD PTR [ebp-60]
	lea	edx, [eax+172]
	lea	eax, [ebp-36]
	mov	DWORD PTR [esp], eax
	mov	ecx, edx
	call	__ZNSt7__cxx1112basic_stringIcSt11char_traitsIcESaIcEEaSEOS4_
	sub	esp, 4
	lea	eax, [ebp-36]
	mov	ecx, eax
	call	__ZNSt7__cxx1112basic_stringIcSt11char_traitsIcESaIcEED1Ev
	nop
	mov	ebx, DWORD PTR [ebp-4]
	leave
	.cfi_restore 5
	.cfi_restore 3
	.cfi_def_cfa 4, 4
	ret	4
	.cfi_endproc
LFE2855:
	.align 2
	.globl	__ZN3DES16compressionPermuERKNSt7__cxx1112basic_stringIcSt11char_traitsIcESaIcEEE
	.def	__ZN3DES16compressionPermuERKNSt7__cxx1112basic_stringIcSt11char_traitsIcESaIcEEE;	.scl	2;	.type	32;	.endef
__ZN3DES16compressionPermuERKNSt7__cxx1112basic_stringIcSt11char_traitsIcESaIcEEE:
LFB2859:
	.cfi_startproc
	push	ebp
	.cfi_def_cfa_offset 8
	.cfi_offset 5, -8
	mov	ebp, esp
	.cfi_def_cfa_register 5
	push	ebx
	sub	esp, 84
	.cfi_offset 3, -12
	mov	DWORD PTR [ebp-60], ecx
	mov	DWORD PTR [ebp-48], 0
	mov	DWORD PTR [ebp-44], 0
	mov	ecx, DWORD PTR [ebp+8]
	call	__ZNKSt7__cxx1112basic_stringIcSt11char_traitsIcESaIcEE5beginEv
	mov	DWORD PTR [ebp-56], eax
L106:
	mov	ecx, DWORD PTR [ebp+8]
	call	__ZNKSt7__cxx1112basic_stringIcSt11char_traitsIcESaIcEE3endEv
	mov	DWORD PTR [ebp-40], eax
	lea	eax, [ebp-40]
	mov	DWORD PTR [esp+4], eax
	lea	eax, [ebp-56]
	mov	DWORD PTR [esp], eax
	call	__ZN9__gnu_cxxltIPKcNSt7__cxx1112basic_stringIcSt11char_traitsIcESaIcEEEEEbRKNS_17__normal_iteratorIT_T0_EESE_
	test	al, al
	je	L102
	mov	ecx, DWORD PTR [ebp+8]
	call	__ZNKSt7__cxx1112basic_stringIcSt11char_traitsIcESaIcEE5beginEv
	mov	edx, eax
	mov	eax, DWORD PTR [ebp-56]
	mov	DWORD PTR [esp+4], eax
	mov	DWORD PTR [esp], edx
	call	__ZSt8distanceIN9__gnu_cxx17__normal_iteratorIPKcNSt7__cxx1112basic_stringIcSt11char_traitsIcESaIcEEEEEENSt15iterator_traitsIT_E15difference_typeESC_SC_
	add	eax, 1
	mov	DWORD PTR [ebp-52], eax
	lea	eax, [ebp-56]
	mov	ecx, eax
	call	__ZNK9__gnu_cxx17__normal_iteratorIPKcNSt7__cxx1112basic_stringIcSt11char_traitsIcESaIcEEEEdeEv
	movzx	eax, BYTE PTR [eax]
	cmp	al, 49
	jne	L103
	mov	eax, DWORD PTR [ebp-52]
	cmp	eax, 9
	je	L103
	mov	eax, DWORD PTR [ebp-52]
	cmp	eax, 18
	je	L103
	mov	eax, DWORD PTR [ebp-52]
	cmp	eax, 22
	je	L103
	mov	eax, DWORD PTR [ebp-52]
	cmp	eax, 25
	je	L103
	mov	eax, DWORD PTR [ebp-52]
	cmp	eax, 35
	je	L103
	mov	eax, DWORD PTR [ebp-52]
	cmp	eax, 38
	je	L103
	mov	eax, DWORD PTR [ebp-52]
	cmp	eax, 43
	je	L103
	mov	eax, DWORD PTR [ebp-52]
	cmp	eax, 54
	je	L103
	mov	eax, 1
	jmp	L104
L103:
	mov	eax, 0
L104:
	test	al, al
	je	L105
	mov	ecx, OFFSET FLAT:__ZN3DES19keyCompressionTableE
	call	__ZNKSt5arrayIiLj48EE3endEv
	mov	ebx, eax
	mov	ecx, OFFSET FLAT:__ZN3DES19keyCompressionTableE
	call	__ZNKSt5arrayIiLj48EE5beginEv
	mov	edx, eax
	lea	eax, [ebp-52]
	mov	DWORD PTR [esp+8], eax
	mov	DWORD PTR [esp+4], ebx
	mov	DWORD PTR [esp], edx
	call	__ZSt4findIPKiiET_S2_S2_RKT0_
	mov	ebx, eax
	mov	ecx, OFFSET FLAT:__ZN3DES19keyCompressionTableE
	call	__ZNKSt5arrayIiLj48EE5beginEv
	mov	DWORD PTR [esp+4], ebx
	mov	DWORD PTR [esp], eax
	call	__ZSt8distanceIPKiENSt15iterator_traitsIT_E15difference_typeES3_S3_
	mov	DWORD PTR [ebp-12], eax
	mov	eax, 47
	sub	eax, DWORD PTR [ebp-12]
	mov	edx, eax
	lea	eax, [ebp-48]
	mov	DWORD PTR [esp+4], 1
	mov	DWORD PTR [esp], edx
	mov	ecx, eax
	call	__ZNSt6bitsetILj48EE3setEjb
	sub	esp, 8
L105:
	lea	eax, [ebp-56]
	mov	DWORD PTR [esp], 0
	mov	ecx, eax
	call	__ZN9__gnu_cxx17__normal_iteratorIPKcNSt7__cxx1112basic_stringIcSt11char_traitsIcESaIcEEEEppEi
	sub	esp, 4
	jmp	L106
L102:
	lea	eax, [ebp-36]
	lea	edx, [ebp-48]
	mov	DWORD PTR [esp], edx
	mov	ecx, eax
	call	__ZNKSt6bitsetILj48EE9to_stringB5cxx11Ev
	sub	esp, 4
	mov	eax, DWORD PTR [ebp-60]
	lea	edx, [eax+196]
	lea	eax, [ebp-36]
	mov	DWORD PTR [esp], eax
	mov	ecx, edx
	call	__ZNSt7__cxx1112basic_stringIcSt11char_traitsIcESaIcEEaSEOS4_
	sub	esp, 4
	lea	eax, [ebp-36]
	mov	ecx, eax
	call	__ZNSt7__cxx1112basic_stringIcSt11char_traitsIcESaIcEED1Ev
	nop
	mov	ebx, DWORD PTR [ebp-4]
	leave
	.cfi_restore 5
	.cfi_restore 3
	.cfi_def_cfa 4, 4
	ret	4
	.cfi_endproc
LFE2859:
	.align 2
	.globl	__ZN3DES6desFunERKNSt7__cxx1112basic_stringIcSt11char_traitsIcESaIcEEES7_
	.def	__ZN3DES6desFunERKNSt7__cxx1112basic_stringIcSt11char_traitsIcESaIcEEES7_;	.scl	2;	.type	32;	.endef
__ZN3DES6desFunERKNSt7__cxx1112basic_stringIcSt11char_traitsIcESaIcEEES7_:
LFB2860:
	.cfi_startproc
	push	ebp
	.cfi_def_cfa_offset 8
	.cfi_offset 5, -8
	mov	ebp, esp
	.cfi_def_cfa_register 5
	sub	esp, 40
	mov	DWORD PTR [ebp-12], ecx
	mov	eax, DWORD PTR [ebp-12]
	mov	edx, DWORD PTR [ebp+8]
	mov	DWORD PTR [esp], edx
	mov	ecx, eax
	call	__ZN3DES14expansionPermuERKNSt7__cxx1112basic_stringIcSt11char_traitsIcESaIcEEE
	sub	esp, 4
	mov	eax, DWORD PTR [ebp-12]
	lea	ecx, [eax+292]
	mov	eax, DWORD PTR [ebp-12]
	mov	edx, DWORD PTR [ebp+12]
	mov	DWORD PTR [esp+4], edx
	mov	DWORD PTR [esp], ecx
	mov	ecx, eax
	call	__ZN3DES5xor48ERKNSt7__cxx1112basic_stringIcSt11char_traitsIcESaIcEEES7_
	sub	esp, 8
	mov	eax, DWORD PTR [ebp-12]
	lea	edx, [eax+220]
	mov	eax, DWORD PTR [ebp-12]
	mov	DWORD PTR [esp], edx
	mov	ecx, eax
	call	__ZN3DES4sBoxERKNSt7__cxx1112basic_stringIcSt11char_traitsIcESaIcEEE
	sub	esp, 4
	mov	eax, DWORD PTR [ebp-12]
	lea	edx, [eax+244]
	mov	eax, DWORD PTR [ebp-12]
	mov	DWORD PTR [esp], edx
	mov	ecx, eax
	call	__ZN3DES13straightPermuERKNSt7__cxx1112basic_stringIcSt11char_traitsIcESaIcEEE
	sub	esp, 4
	nop
	leave
	.cfi_restore 5
	.cfi_def_cfa 4, 4
	ret	8
	.cfi_endproc
LFE2860:
	.align 2
	.globl	__ZN3DES5splitERKNSt7__cxx1112basic_stringIcSt11char_traitsIcESaIcEEE
	.def	__ZN3DES5splitERKNSt7__cxx1112basic_stringIcSt11char_traitsIcESaIcEEE;	.scl	2;	.type	32;	.endef
__ZN3DES5splitERKNSt7__cxx1112basic_stringIcSt11char_traitsIcESaIcEEE:
LFB2861:
	.cfi_startproc
	push	ebp
	.cfi_def_cfa_offset 8
	.cfi_offset 5, -8
	mov	ebp, esp
	.cfi_def_cfa_register 5
	sub	esp, 88
	mov	DWORD PTR [ebp-60], ecx
	lea	eax, [ebp-56]
	mov	DWORD PTR [esp+8], 32
	mov	DWORD PTR [esp+4], 0
	mov	edx, DWORD PTR [ebp+8]
	mov	DWORD PTR [esp], edx
	mov	ecx, eax
	call	__ZNKSt7__cxx1112basic_stringIcSt11char_traitsIcESaIcEE6substrEjj
	sub	esp, 12
	mov	eax, DWORD PTR [ebp-60]
	lea	edx, [eax+52]
	lea	eax, [ebp-56]
	mov	DWORD PTR [esp], eax
	mov	ecx, edx
	call	__ZNSt7__cxx1112basic_stringIcSt11char_traitsIcESaIcEEaSEOS4_
	sub	esp, 4
	lea	eax, [ebp-56]
	mov	ecx, eax
	call	__ZNSt7__cxx1112basic_stringIcSt11char_traitsIcESaIcEED1Ev
	lea	eax, [ebp-32]
	mov	DWORD PTR [esp+8], 32
	mov	DWORD PTR [esp+4], 32
	mov	edx, DWORD PTR [ebp+8]
	mov	DWORD PTR [esp], edx
	mov	ecx, eax
	call	__ZNKSt7__cxx1112basic_stringIcSt11char_traitsIcESaIcEE6substrEjj
	sub	esp, 12
	mov	eax, DWORD PTR [ebp-60]
	lea	edx, [eax+76]
	lea	eax, [ebp-32]
	mov	DWORD PTR [esp], eax
	mov	ecx, edx
	call	__ZNSt7__cxx1112basic_stringIcSt11char_traitsIcESaIcEEaSEOS4_
	sub	esp, 4
	lea	eax, [ebp-32]
	mov	ecx, eax
	call	__ZNSt7__cxx1112basic_stringIcSt11char_traitsIcESaIcEED1Ev
	nop
	leave
	.cfi_restore 5
	.cfi_def_cfa 4, 4
	ret	4
	.cfi_endproc
LFE2861:
	.section .rdata,"dr"
LC5:
	.ascii "0\0"
LC6:
	.ascii "1\0"
LC7:
	.ascii "2\0"
LC8:
	.ascii "3\0"
LC9:
	.ascii "4\0"
LC10:
	.ascii "5\0"
LC11:
	.ascii "6\0"
LC12:
	.ascii "7\0"
LC13:
	.ascii "8\0"
LC14:
	.ascii "9\0"
LC15:
	.ascii "A\0"
LC16:
	.ascii "B\0"
LC17:
	.ascii "C\0"
LC18:
	.ascii "D\0"
LC19:
	.ascii "E\0"
LC20:
	.ascii "F\0"
	.align 4
LC21:
	.ascii "ERROR!, bin2hex binary string must be multiple of 4\0"
	.text
	.align 2
	.globl	__ZN3DES7bin2hexERKNSt7__cxx1112basic_stringIcSt11char_traitsIcESaIcEEE
	.def	__ZN3DES7bin2hexERKNSt7__cxx1112basic_stringIcSt11char_traitsIcESaIcEEE;	.scl	2;	.type	32;	.endef
__ZN3DES7bin2hexERKNSt7__cxx1112basic_stringIcSt11char_traitsIcESaIcEEE:
LFB2862:
	.cfi_startproc
	.cfi_personality 0,___gxx_personality_v0
	.cfi_lsda 0,LLSDA2862
	push	ebp
	.cfi_def_cfa_offset 8
	.cfi_offset 5, -8
	mov	ebp, esp
	.cfi_def_cfa_register 5
	push	ebx
	sub	esp, 84
	.cfi_offset 3, -12
	mov	ecx, DWORD PTR [ebp+8]
	call	__ZNSt7__cxx1112basic_stringIcSt11char_traitsIcESaIcEEC1Ev
	lea	eax, [ebp-60]
	mov	ecx, eax
	call	__ZNSt7__cxx1112basic_stringIcSt11char_traitsIcESaIcEEC1Ev
	mov	DWORD PTR [ebp-12], 0
L130:
	mov	eax, DWORD PTR [ebp+12]
	mov	ecx, eax
	call	__ZNKSt7__cxx1112basic_stringIcSt11char_traitsIcESaIcEE6lengthEv
	cmp	eax, DWORD PTR [ebp-12]
	setg	al
	test	al, al
	je	L136
	mov	edx, DWORD PTR [ebp-12]
	lea	eax, [ebp-36]
	mov	DWORD PTR [esp+8], 4
	mov	DWORD PTR [esp+4], edx
	mov	edx, DWORD PTR [ebp+12]
	mov	DWORD PTR [esp], edx
	mov	ecx, eax
LEHB17:
	call	__ZNKSt7__cxx1112basic_stringIcSt11char_traitsIcESaIcEE6substrEjj
	sub	esp, 12
	lea	eax, [ebp-60]
	lea	edx, [ebp-36]
	mov	DWORD PTR [esp], edx
	mov	ecx, eax
	call	__ZNSt7__cxx1112basic_stringIcSt11char_traitsIcESaIcEEaSEOS4_
	sub	esp, 4
	lea	eax, [ebp-36]
	mov	ecx, eax
	call	__ZNSt7__cxx1112basic_stringIcSt11char_traitsIcESaIcEED1Ev
	lea	eax, [ebp-60]
	mov	DWORD PTR [esp], eax
	call	__ZN3DES7bin2decERKNSt7__cxx1112basic_stringIcSt11char_traitsIcESaIcEEE
	cmp	eax, 15
	ja	L111
	mov	eax, DWORD PTR L113[0+eax*4]
	jmp	eax
	.section .rdata,"dr"
	.align 4
L113:
	.long	L112
	.long	L114
	.long	L115
	.long	L116
	.long	L117
	.long	L118
	.long	L119
	.long	L120
	.long	L121
	.long	L122
	.long	L123
	.long	L124
	.long	L125
	.long	L126
	.long	L127
	.long	L128
	.text
L112:
	mov	DWORD PTR [esp], OFFSET FLAT:LC5
	mov	ecx, DWORD PTR [ebp+8]
	call	__ZNSt7__cxx1112basic_stringIcSt11char_traitsIcESaIcEE6appendEPKc
	sub	esp, 4
	jmp	L129
L114:
	mov	DWORD PTR [esp], OFFSET FLAT:LC6
	mov	ecx, DWORD PTR [ebp+8]
	call	__ZNSt7__cxx1112basic_stringIcSt11char_traitsIcESaIcEE6appendEPKc
	sub	esp, 4
	jmp	L129
L115:
	mov	DWORD PTR [esp], OFFSET FLAT:LC7
	mov	ecx, DWORD PTR [ebp+8]
	call	__ZNSt7__cxx1112basic_stringIcSt11char_traitsIcESaIcEE6appendEPKc
	sub	esp, 4
	jmp	L129
L116:
	mov	DWORD PTR [esp], OFFSET FLAT:LC8
	mov	ecx, DWORD PTR [ebp+8]
	call	__ZNSt7__cxx1112basic_stringIcSt11char_traitsIcESaIcEE6appendEPKc
	sub	esp, 4
	jmp	L129
L117:
	mov	DWORD PTR [esp], OFFSET FLAT:LC9
	mov	ecx, DWORD PTR [ebp+8]
	call	__ZNSt7__cxx1112basic_stringIcSt11char_traitsIcESaIcEE6appendEPKc
	sub	esp, 4
	jmp	L129
L118:
	mov	DWORD PTR [esp], OFFSET FLAT:LC10
	mov	ecx, DWORD PTR [ebp+8]
	call	__ZNSt7__cxx1112basic_stringIcSt11char_traitsIcESaIcEE6appendEPKc
	sub	esp, 4
	jmp	L129
L119:
	mov	DWORD PTR [esp], OFFSET FLAT:LC11
	mov	ecx, DWORD PTR [ebp+8]
	call	__ZNSt7__cxx1112basic_stringIcSt11char_traitsIcESaIcEE6appendEPKc
	sub	esp, 4
	jmp	L129
L120:
	mov	DWORD PTR [esp], OFFSET FLAT:LC12
	mov	ecx, DWORD PTR [ebp+8]
	call	__ZNSt7__cxx1112basic_stringIcSt11char_traitsIcESaIcEE6appendEPKc
	sub	esp, 4
	jmp	L129
L121:
	mov	DWORD PTR [esp], OFFSET FLAT:LC13
	mov	ecx, DWORD PTR [ebp+8]
	call	__ZNSt7__cxx1112basic_stringIcSt11char_traitsIcESaIcEE6appendEPKc
	sub	esp, 4
	jmp	L129
L122:
	mov	DWORD PTR [esp], OFFSET FLAT:LC14
	mov	ecx, DWORD PTR [ebp+8]
	call	__ZNSt7__cxx1112basic_stringIcSt11char_traitsIcESaIcEE6appendEPKc
	sub	esp, 4
	jmp	L129
L123:
	mov	DWORD PTR [esp], OFFSET FLAT:LC15
	mov	ecx, DWORD PTR [ebp+8]
	call	__ZNSt7__cxx1112basic_stringIcSt11char_traitsIcESaIcEE6appendEPKc
	sub	esp, 4
	jmp	L129
L124:
	mov	DWORD PTR [esp], OFFSET FLAT:LC16
	mov	ecx, DWORD PTR [ebp+8]
	call	__ZNSt7__cxx1112basic_stringIcSt11char_traitsIcESaIcEE6appendEPKc
	sub	esp, 4
	jmp	L129
L125:
	mov	DWORD PTR [esp], OFFSET FLAT:LC17
	mov	ecx, DWORD PTR [ebp+8]
	call	__ZNSt7__cxx1112basic_stringIcSt11char_traitsIcESaIcEE6appendEPKc
	sub	esp, 4
	jmp	L129
L126:
	mov	DWORD PTR [esp], OFFSET FLAT:LC18
	mov	ecx, DWORD PTR [ebp+8]
	call	__ZNSt7__cxx1112basic_stringIcSt11char_traitsIcESaIcEE6appendEPKc
	sub	esp, 4
	jmp	L129
L127:
	mov	DWORD PTR [esp], OFFSET FLAT:LC19
	mov	ecx, DWORD PTR [ebp+8]
	call	__ZNSt7__cxx1112basic_stringIcSt11char_traitsIcESaIcEE6appendEPKc
	sub	esp, 4
	jmp	L129
L128:
	mov	DWORD PTR [esp], OFFSET FLAT:LC20
	mov	ecx, DWORD PTR [ebp+8]
	call	__ZNSt7__cxx1112basic_stringIcSt11char_traitsIcESaIcEE6appendEPKc
	sub	esp, 4
	jmp	L129
L111:
	mov	DWORD PTR [esp+4], OFFSET FLAT:LC21
	mov	DWORD PTR [esp], OFFSET FLAT:__ZSt4cout
	call	__ZStlsISt11char_traitsIcEERSt13basic_ostreamIcT_ES5_PKc
LEHE17:
	mov	DWORD PTR [esp], 0
	call	_exit
L129:
	add	DWORD PTR [ebp-12], 4
	jmp	L130
L136:
	nop
	lea	eax, [ebp-60]
	mov	ecx, eax
	call	__ZNSt7__cxx1112basic_stringIcSt11char_traitsIcESaIcEED1Ev
	jmp	L135
L133:
	mov	ebx, eax
	lea	eax, [ebp-60]
	mov	ecx, eax
	call	__ZNSt7__cxx1112basic_stringIcSt11char_traitsIcESaIcEED1Ev
	mov	ecx, DWORD PTR [ebp+8]
	call	__ZNSt7__cxx1112basic_stringIcSt11char_traitsIcESaIcEED1Ev
	mov	eax, ebx
	mov	DWORD PTR [esp], eax
LEHB18:
	call	__Unwind_Resume
LEHE18:
L135:
	mov	eax, DWORD PTR [ebp+8]
	mov	ebx, DWORD PTR [ebp-4]
	leave
	.cfi_restore 5
	.cfi_restore 3
	.cfi_def_cfa 4, 4
	ret
	.cfi_endproc
LFE2862:
	.section	.gcc_except_table,"w"
LLSDA2862:
	.byte	0xff
	.byte	0xff
	.byte	0x1
	.uleb128 LLSDACSE2862-LLSDACSB2862
LLSDACSB2862:
	.uleb128 LEHB17-LFB2862
	.uleb128 LEHE17-LEHB17
	.uleb128 L133-LFB2862
	.uleb128 0
	.uleb128 LEHB18-LFB2862
	.uleb128 LEHE18-LEHB18
	.uleb128 0
	.uleb128 0
LLSDACSE2862:
	.text
	.section .rdata,"dr"
LC22:
	.ascii "0000\0"
LC23:
	.ascii "0001\0"
LC24:
	.ascii "0010\0"
LC25:
	.ascii "0011\0"
LC26:
	.ascii "0100\0"
LC27:
	.ascii "0101\0"
LC28:
	.ascii "0110\0"
LC29:
	.ascii "0111\0"
LC30:
	.ascii "1000\0"
LC31:
	.ascii "1001\0"
LC32:
	.ascii "1010\0"
LC33:
	.ascii "1011\0"
LC34:
	.ascii "1100\0"
LC35:
	.ascii "1101\0"
LC36:
	.ascii "1110\0"
LC37:
	.ascii "1111\0"
	.align 4
LC38:
	.ascii "ERROR!, Invalid input, can't convert to binary\0"
	.text
	.align 2
	.globl	__ZN3DES7hex2binERKNSt7__cxx1112basic_stringIcSt11char_traitsIcESaIcEEE
	.def	__ZN3DES7hex2binERKNSt7__cxx1112basic_stringIcSt11char_traitsIcESaIcEEE;	.scl	2;	.type	32;	.endef
__ZN3DES7hex2binERKNSt7__cxx1112basic_stringIcSt11char_traitsIcESaIcEEE:
LFB2863:
	.cfi_startproc
	.cfi_personality 0,___gxx_personality_v0
	.cfi_lsda 0,LLSDA2863
	push	ebp
	.cfi_def_cfa_offset 8
	.cfi_offset 5, -8
	mov	ebp, esp
	.cfi_def_cfa_register 5
	push	ebx
	sub	esp, 36
	.cfi_offset 3, -12
	mov	ecx, DWORD PTR [ebp+8]
	call	__ZNSt7__cxx1112basic_stringIcSt11char_traitsIcESaIcEEC1Ev
	mov	eax, DWORD PTR [ebp+12]
	mov	ecx, eax
	call	__ZNKSt7__cxx1112basic_stringIcSt11char_traitsIcESaIcEE5beginEv
	mov	DWORD PTR [ebp-16], eax
L158:
	mov	eax, DWORD PTR [ebp+12]
	mov	ecx, eax
	call	__ZNKSt7__cxx1112basic_stringIcSt11char_traitsIcESaIcEE3endEv
	mov	DWORD PTR [ebp-12], eax
	lea	eax, [ebp-12]
	mov	DWORD PTR [esp+4], eax
	lea	eax, [ebp-16]
	mov	DWORD PTR [esp], eax
	call	__ZN9__gnu_cxxltIPKcNSt7__cxx1112basic_stringIcSt11char_traitsIcESaIcEEEEEbRKNS_17__normal_iteratorIT_T0_EESE_
	test	al, al
	je	L162
	lea	eax, [ebp-16]
	mov	ecx, eax
	call	__ZNK9__gnu_cxx17__normal_iteratorIPKcNSt7__cxx1112basic_stringIcSt11char_traitsIcESaIcEEEEdeEv
	movzx	eax, BYTE PTR [eax]
	movsx	eax, al
	sub	eax, 48
	cmp	eax, 22
	ja	L139
	mov	eax, DWORD PTR L141[0+eax*4]
	jmp	eax
	.section .rdata,"dr"
	.align 4
L141:
	.long	L140
	.long	L142
	.long	L143
	.long	L144
	.long	L145
	.long	L146
	.long	L147
	.long	L148
	.long	L149
	.long	L150
	.long	L139
	.long	L139
	.long	L139
	.long	L139
	.long	L139
	.long	L139
	.long	L139
	.long	L151
	.long	L152
	.long	L153
	.long	L154
	.long	L155
	.long	L156
	.text
L140:
	mov	DWORD PTR [esp], OFFSET FLAT:LC22
	mov	ecx, DWORD PTR [ebp+8]
LEHB19:
	call	__ZNSt7__cxx1112basic_stringIcSt11char_traitsIcESaIcEE6appendEPKc
	sub	esp, 4
	jmp	L157
L142:
	mov	DWORD PTR [esp], OFFSET FLAT:LC23
	mov	ecx, DWORD PTR [ebp+8]
	call	__ZNSt7__cxx1112basic_stringIcSt11char_traitsIcESaIcEE6appendEPKc
	sub	esp, 4
	jmp	L157
L143:
	mov	DWORD PTR [esp], OFFSET FLAT:LC24
	mov	ecx, DWORD PTR [ebp+8]
	call	__ZNSt7__cxx1112basic_stringIcSt11char_traitsIcESaIcEE6appendEPKc
	sub	esp, 4
	jmp	L157
L144:
	mov	DWORD PTR [esp], OFFSET FLAT:LC25
	mov	ecx, DWORD PTR [ebp+8]
	call	__ZNSt7__cxx1112basic_stringIcSt11char_traitsIcESaIcEE6appendEPKc
	sub	esp, 4
	jmp	L157
L145:
	mov	DWORD PTR [esp], OFFSET FLAT:LC26
	mov	ecx, DWORD PTR [ebp+8]
	call	__ZNSt7__cxx1112basic_stringIcSt11char_traitsIcESaIcEE6appendEPKc
	sub	esp, 4
	jmp	L157
L146:
	mov	DWORD PTR [esp], OFFSET FLAT:LC27
	mov	ecx, DWORD PTR [ebp+8]
	call	__ZNSt7__cxx1112basic_stringIcSt11char_traitsIcESaIcEE6appendEPKc
	sub	esp, 4
	jmp	L157
L147:
	mov	DWORD PTR [esp], OFFSET FLAT:LC28
	mov	ecx, DWORD PTR [ebp+8]
	call	__ZNSt7__cxx1112basic_stringIcSt11char_traitsIcESaIcEE6appendEPKc
	sub	esp, 4
	jmp	L157
L148:
	mov	DWORD PTR [esp], OFFSET FLAT:LC29
	mov	ecx, DWORD PTR [ebp+8]
	call	__ZNSt7__cxx1112basic_stringIcSt11char_traitsIcESaIcEE6appendEPKc
	sub	esp, 4
	jmp	L157
L149:
	mov	DWORD PTR [esp], OFFSET FLAT:LC30
	mov	ecx, DWORD PTR [ebp+8]
	call	__ZNSt7__cxx1112basic_stringIcSt11char_traitsIcESaIcEE6appendEPKc
	sub	esp, 4
	jmp	L157
L150:
	mov	DWORD PTR [esp], OFFSET FLAT:LC31
	mov	ecx, DWORD PTR [ebp+8]
	call	__ZNSt7__cxx1112basic_stringIcSt11char_traitsIcESaIcEE6appendEPKc
	sub	esp, 4
	jmp	L157
L151:
	mov	DWORD PTR [esp], OFFSET FLAT:LC32
	mov	ecx, DWORD PTR [ebp+8]
	call	__ZNSt7__cxx1112basic_stringIcSt11char_traitsIcESaIcEE6appendEPKc
	sub	esp, 4
	jmp	L157
L152:
	mov	DWORD PTR [esp], OFFSET FLAT:LC33
	mov	ecx, DWORD PTR [ebp+8]
	call	__ZNSt7__cxx1112basic_stringIcSt11char_traitsIcESaIcEE6appendEPKc
	sub	esp, 4
	jmp	L157
L153:
	mov	DWORD PTR [esp], OFFSET FLAT:LC34
	mov	ecx, DWORD PTR [ebp+8]
	call	__ZNSt7__cxx1112basic_stringIcSt11char_traitsIcESaIcEE6appendEPKc
	sub	esp, 4
	jmp	L157
L154:
	mov	DWORD PTR [esp], OFFSET FLAT:LC35
	mov	ecx, DWORD PTR [ebp+8]
	call	__ZNSt7__cxx1112basic_stringIcSt11char_traitsIcESaIcEE6appendEPKc
	sub	esp, 4
	jmp	L157
L155:
	mov	DWORD PTR [esp], OFFSET FLAT:LC36
	mov	ecx, DWORD PTR [ebp+8]
	call	__ZNSt7__cxx1112basic_stringIcSt11char_traitsIcESaIcEE6appendEPKc
	sub	esp, 4
	jmp	L157
L156:
	mov	DWORD PTR [esp], OFFSET FLAT:LC37
	mov	ecx, DWORD PTR [ebp+8]
	call	__ZNSt7__cxx1112basic_stringIcSt11char_traitsIcESaIcEE6appendEPKc
	sub	esp, 4
	jmp	L157
L139:
	mov	DWORD PTR [esp+4], OFFSET FLAT:LC38
	mov	DWORD PTR [esp], OFFSET FLAT:__ZSt4cout
	call	__ZStlsISt11char_traitsIcEERSt13basic_ostreamIcT_ES5_PKc
	mov	DWORD PTR [esp], OFFSET FLAT:__ZSt4endlIcSt11char_traitsIcEERSt13basic_ostreamIT_T0_ES6_
	mov	ecx, eax
	call	__ZNSolsEPFRSoS_E
LEHE19:
	sub	esp, 4
L157:
	lea	eax, [ebp-16]
	mov	ecx, eax
	call	__ZN9__gnu_cxx17__normal_iteratorIPKcNSt7__cxx1112basic_stringIcSt11char_traitsIcESaIcEEEEppEv
	jmp	L158
L161:
	mov	ebx, eax
	mov	ecx, DWORD PTR [ebp+8]
	call	__ZNSt7__cxx1112basic_stringIcSt11char_traitsIcESaIcEED1Ev
	mov	eax, ebx
	mov	DWORD PTR [esp], eax
LEHB20:
	call	__Unwind_Resume
LEHE20:
L162:
	nop
	mov	eax, DWORD PTR [ebp+8]
	mov	ebx, DWORD PTR [ebp-4]
	leave
	.cfi_restore 5
	.cfi_restore 3
	.cfi_def_cfa 4, 4
	ret
	.cfi_endproc
LFE2863:
	.section	.gcc_except_table,"w"
LLSDA2863:
	.byte	0xff
	.byte	0xff
	.byte	0x1
	.uleb128 LLSDACSE2863-LLSDACSB2863
LLSDACSB2863:
	.uleb128 LEHB19-LFB2863
	.uleb128 LEHE19-LEHB19
	.uleb128 L161-LFB2863
	.uleb128 0
	.uleb128 LEHB20-LFB2863
	.uleb128 LEHE20-LEHB20
	.uleb128 0
	.uleb128 0
LLSDACSE2863:
	.text
	.align 2
	.globl	__ZN3DES7bin2decERKNSt7__cxx1112basic_stringIcSt11char_traitsIcESaIcEEE
	.def	__ZN3DES7bin2decERKNSt7__cxx1112basic_stringIcSt11char_traitsIcESaIcEEE;	.scl	2;	.type	32;	.endef
__ZN3DES7bin2decERKNSt7__cxx1112basic_stringIcSt11char_traitsIcESaIcEEE:
LFB2864:
	.cfi_startproc
	push	ebp
	.cfi_def_cfa_offset 8
	.cfi_offset 5, -8
	mov	ebp, esp
	.cfi_def_cfa_register 5
	sub	esp, 72
	mov	DWORD PTR [ebp-12], 0
	lea	eax, [ebp-32]
	mov	edx, DWORD PTR [ebp+8]
	mov	DWORD PTR [esp], edx
	mov	ecx, eax
	call	__ZNKSt7__cxx1112basic_stringIcSt11char_traitsIcESaIcEE6rbeginEv
	sub	esp, 4
L166:
	lea	eax, [ebp-28]
	mov	edx, DWORD PTR [ebp+8]
	mov	DWORD PTR [esp], edx
	mov	ecx, eax
	call	__ZNKSt7__cxx1112basic_stringIcSt11char_traitsIcESaIcEE4rendEv
	sub	esp, 4
	lea	eax, [ebp-28]
	mov	DWORD PTR [esp+4], eax
	lea	eax, [ebp-32]
	mov	DWORD PTR [esp], eax
	call	__ZStltIN9__gnu_cxx17__normal_iteratorIPKcNSt7__cxx1112basic_stringIcSt11char_traitsIcESaIcEEEEEEbRKSt16reverse_iteratorIT_ESF_
	test	al, al
	je	L164
	lea	eax, [ebp-32]
	mov	ecx, eax
	call	__ZNKSt16reverse_iteratorIN9__gnu_cxx17__normal_iteratorIPKcNSt7__cxx1112basic_stringIcSt11char_traitsIcESaIcEEEEEEdeEv
	movzx	eax, BYTE PTR [eax]
	cmp	al, 49
	sete	al
	test	al, al
	je	L165
	lea	eax, [ebp-24]
	lea	edx, [ebp-32]
	mov	DWORD PTR [esp], edx
	mov	ecx, eax
	call	__ZNSt16reverse_iteratorIN9__gnu_cxx17__normal_iteratorIPKcNSt7__cxx1112basic_stringIcSt11char_traitsIcESaIcEEEEEEC1ERKSB_
	sub	esp, 4
	lea	eax, [ebp-20]
	mov	edx, DWORD PTR [ebp+8]
	mov	DWORD PTR [esp], edx
	mov	ecx, eax
	call	__ZNKSt7__cxx1112basic_stringIcSt11char_traitsIcESaIcEE6rbeginEv
	sub	esp, 4
	lea	eax, [ebp-24]
	mov	DWORD PTR [esp+4], eax
	lea	eax, [ebp-20]
	mov	DWORD PTR [esp], eax
	call	__ZSt8distanceISt16reverse_iteratorIN9__gnu_cxx17__normal_iteratorIPKcNSt7__cxx1112basic_stringIcSt11char_traitsIcESaIcEEEEEEENSt15iterator_traitsIT_E15difference_typeESE_SE_
	mov	DWORD PTR [ebp-48], eax
	fild	DWORD PTR [ebp-48]
	fstp	QWORD PTR [esp+8]
	fld	QWORD PTR LC39
	fstp	QWORD PTR [esp]
	call	_pow
	fild	DWORD PTR [ebp-12]
	faddp	st(1), st
	fnstcw	WORD PTR [ebp-42]
	movzx	eax, WORD PTR [ebp-42]
	mov	ah, 12
	mov	WORD PTR [ebp-44], ax
	fldcw	WORD PTR [ebp-44]
	fistp	DWORD PTR [ebp-12]
	fldcw	WORD PTR [ebp-42]
L165:
	lea	eax, [ebp-16]
	mov	DWORD PTR [esp+4], 0
	lea	edx, [ebp-32]
	mov	DWORD PTR [esp], edx
	mov	ecx, eax
	call	__ZNSt16reverse_iteratorIN9__gnu_cxx17__normal_iteratorIPKcNSt7__cxx1112basic_stringIcSt11char_traitsIcESaIcEEEEEEppEi
	sub	esp, 8
	jmp	L166
L164:
	mov	eax, DWORD PTR [ebp-12]
	leave
	.cfi_restore 5
	.cfi_def_cfa 4, 4
	ret
	.cfi_endproc
LFE2864:
	.align 2
	.globl	__ZN3DES6cipherERKNSt7__cxx1112basic_stringIcSt11char_traitsIcESaIcEEES7_
	.def	__ZN3DES6cipherERKNSt7__cxx1112basic_stringIcSt11char_traitsIcESaIcEEES7_;	.scl	2;	.type	32;	.endef
__ZN3DES6cipherERKNSt7__cxx1112basic_stringIcSt11char_traitsIcESaIcEEES7_:
LFB2865:
	.cfi_startproc
	.cfi_personality 0,___gxx_personality_v0
	.cfi_lsda 0,LLSDA2865
	push	ebp
	.cfi_def_cfa_offset 8
	.cfi_offset 5, -8
	mov	ebp, esp
	.cfi_def_cfa_register 5
	push	ebx
	sub	esp, 68
	.cfi_offset 3, -12
	mov	DWORD PTR [ebp-44], ecx
	mov	eax, DWORD PTR [ebp-44]
	mov	edx, DWORD PTR [ebp+8]
	mov	DWORD PTR [esp], edx
	mov	ecx, eax
LEHB21:
	call	__ZN3DES12initialPermuERKNSt7__cxx1112basic_stringIcSt11char_traitsIcESaIcEEE
	sub	esp, 4
	mov	eax, DWORD PTR [ebp-44]
	lea	edx, [eax+268]
	mov	eax, DWORD PTR [ebp-44]
	mov	DWORD PTR [esp], edx
	mov	ecx, eax
	call	__ZN3DES5splitERKNSt7__cxx1112basic_stringIcSt11char_traitsIcESaIcEEE
	sub	esp, 4
	mov	DWORD PTR [ebp-12], 0
L171:
	cmp	DWORD PTR [ebp-12], 15
	jg	L169
	mov	eax, DWORD PTR [ebp-12]
	lea	edx, [eax+1]
	mov	eax, DWORD PTR [ebp-44]
	mov	DWORD PTR [esp+4], edx
	mov	edx, DWORD PTR [ebp+12]
	mov	DWORD PTR [esp], edx
	mov	ecx, eax
	call	__ZN3DES6keygenERKNSt7__cxx1112basic_stringIcSt11char_traitsIcESaIcEEEi
	sub	esp, 8
	mov	eax, DWORD PTR [ebp-44]
	lea	ecx, [eax+196]
	mov	eax, DWORD PTR [ebp-44]
	lea	edx, [eax+76]
	mov	eax, DWORD PTR [ebp-44]
	mov	DWORD PTR [esp+4], ecx
	mov	DWORD PTR [esp], edx
	mov	ecx, eax
	call	__ZN3DES6desFunERKNSt7__cxx1112basic_stringIcSt11char_traitsIcESaIcEEES7_
	sub	esp, 8
	mov	eax, DWORD PTR [ebp-44]
	lea	ecx, [eax+52]
	mov	eax, DWORD PTR [ebp-44]
	lea	edx, [eax+316]
	mov	eax, DWORD PTR [ebp-44]
	mov	DWORD PTR [esp+4], ecx
	mov	DWORD PTR [esp], edx
	mov	ecx, eax
	call	__ZN3DES5xor32ERKNSt7__cxx1112basic_stringIcSt11char_traitsIcESaIcEEES7_
	sub	esp, 8
	cmp	DWORD PTR [ebp-12], 15
	je	L170
	mov	eax, DWORD PTR [ebp-44]
	lea	edx, [eax+76]
	mov	eax, DWORD PTR [ebp-44]
	add	eax, 52
	mov	DWORD PTR [esp], edx
	mov	ecx, eax
	call	__ZNSt7__cxx1112basic_stringIcSt11char_traitsIcESaIcEE4swapERS4_
	sub	esp, 4
L170:
	mov	eax, DWORD PTR [ebp-44]
	mov	ecx, eax
	call	__ZN3DES10showCipherEv
	add	DWORD PTR [ebp-12], 1
	jmp	L171
L169:
	mov	eax, DWORD PTR [ebp-44]
	lea	ecx, [eax+76]
	mov	eax, DWORD PTR [ebp-44]
	lea	edx, [eax+52]
	lea	eax, [ebp-36]
	mov	DWORD PTR [esp+8], ecx
	mov	DWORD PTR [esp+4], edx
	mov	DWORD PTR [esp], eax
	call	__ZStplIcSt11char_traitsIcESaIcEENSt7__cxx1112basic_stringIT_T0_T1_EERKS8_SA_
LEHE21:
	mov	eax, DWORD PTR [ebp-44]
	lea	edx, [ebp-36]
	mov	DWORD PTR [esp], edx
	mov	ecx, eax
LEHB22:
	call	__ZN3DES10finalPermuERKNSt7__cxx1112basic_stringIcSt11char_traitsIcESaIcEEE
LEHE22:
	sub	esp, 4
	lea	eax, [ebp-36]
	mov	ecx, eax
	call	__ZNSt7__cxx1112basic_stringIcSt11char_traitsIcESaIcEED1Ev
	jmp	L174
L173:
	mov	ebx, eax
	lea	eax, [ebp-36]
	mov	ecx, eax
	call	__ZNSt7__cxx1112basic_stringIcSt11char_traitsIcESaIcEED1Ev
	mov	eax, ebx
	mov	DWORD PTR [esp], eax
LEHB23:
	call	__Unwind_Resume
LEHE23:
L174:
	mov	ebx, DWORD PTR [ebp-4]
	leave
	.cfi_restore 5
	.cfi_restore 3
	.cfi_def_cfa 4, 4
	ret	8
	.cfi_endproc
LFE2865:
	.section	.gcc_except_table,"w"
LLSDA2865:
	.byte	0xff
	.byte	0xff
	.byte	0x1
	.uleb128 LLSDACSE2865-LLSDACSB2865
LLSDACSB2865:
	.uleb128 LEHB21-LFB2865
	.uleb128 LEHE21-LEHB21
	.uleb128 0
	.uleb128 0
	.uleb128 LEHB22-LFB2865
	.uleb128 LEHE22-LEHB22
	.uleb128 L173-LFB2865
	.uleb128 0
	.uleb128 LEHB23-LFB2865
	.uleb128 LEHE23-LEHB23
	.uleb128 0
	.uleb128 0
LLSDACSE2865:
	.text
	.align 2
	.globl	__ZN3DES8decipherERKNSt7__cxx1112basic_stringIcSt11char_traitsIcESaIcEEES7_
	.def	__ZN3DES8decipherERKNSt7__cxx1112basic_stringIcSt11char_traitsIcESaIcEEES7_;	.scl	2;	.type	32;	.endef
__ZN3DES8decipherERKNSt7__cxx1112basic_stringIcSt11char_traitsIcESaIcEEES7_:
LFB2866:
	.cfi_startproc
	push	ebp
	.cfi_def_cfa_offset 8
	.cfi_offset 5, -8
	mov	ebp, esp
	.cfi_def_cfa_register 5
	sub	esp, 4
	mov	DWORD PTR [ebp-4], ecx
	nop
	leave
	.cfi_restore 5
	.cfi_def_cfa 4, 4
	ret	8
	.cfi_endproc
LFE2866:

	.section .rdata,"dr"
LC41:
	.ascii "\33[1m\33[34m\0"
LC42:
	.ascii "\33[0m\0"
	.text
	.align 2
	.globl	__ZN3DES10showCipherEv
	.def	__ZN3DES10showCipherEv;	.scl	2;	.type	32;	.endef
__ZN3DES10showCipherEv:
LFB2867:
	.cfi_startproc
	.cfi_personality 0,___gxx_personality_v0
	.cfi_lsda 0,LLSDA2867
	push	ebp
	.cfi_def_cfa_offset 8
	.cfi_offset 5, -8
	mov	ebp, esp
	.cfi_def_cfa_register 5
	push	edi
	push	esi
	push	ebx
	sub	esp, 124
	.cfi_offset 7, -12
	.cfi_offset 6, -16
	.cfi_offset 3, -20
	mov	DWORD PTR [ebp-108], ecx
	mov	eax, DWORD PTR [ebp-108]
	lea	edx, [eax+196]
	lea	eax, [ebp-96]
	mov	DWORD PTR [esp+4], edx
	mov	DWORD PTR [esp], eax
LEHB24:
	call	__ZN3DES7bin2hexERKNSt7__cxx1112basic_stringIcSt11char_traitsIcESaIcEEE
LEHE24:
	mov	DWORD PTR [esp], 14
	call	__ZSt4setwi
	mov	esi, eax
	mov	eax, DWORD PTR [ebp-108]
	lea	edx, [eax+76]
	lea	eax, [ebp-72]
	mov	DWORD PTR [esp+4], edx
	mov	DWORD PTR [esp], eax
LEHB25:
	call	__ZN3DES7bin2hexERKNSt7__cxx1112basic_stringIcSt11char_traitsIcESaIcEEE
LEHE25:
	mov	DWORD PTR [esp], 12
	call	__ZSt4setwi
	mov	edi, eax
	mov	eax, DWORD PTR [ebp-108]
	lea	edx, [eax+52]
	lea	eax, [ebp-48]
	mov	DWORD PTR [esp+4], edx
	mov	DWORD PTR [esp], eax
LEHB26:
	call	__ZN3DES7bin2hexERKNSt7__cxx1112basic_stringIcSt11char_traitsIcESaIcEEE
LEHE26:
	mov	DWORD PTR [esp], 12
	call	__ZSt4setwi
	mov	DWORD PTR [ebp-116], eax
	mov	eax, DWORD PTR __ZZN3DES10showCipherEvE5round
	add	eax, 1
	mov	DWORD PTR __ZZN3DES10showCipherEvE5round, eax
	mov	ebx, DWORD PTR __ZZN3DES10showCipherEvE5round
	mov	DWORD PTR [esp], 4
	call	__ZSt4setwi
	mov	DWORD PTR [ebp-112], eax
	mov	DWORD PTR [esp+4], OFFSET FLAT:LC41
	mov	DWORD PTR [esp], OFFSET FLAT:__ZSt4cout
LEHB27:
	call	__ZStlsISt11char_traitsIcEERSt13basic_ostreamIcT_ES5_PKc
	mov	ecx, DWORD PTR [ebp-112]
	mov	DWORD PTR [esp+4], ecx
	mov	DWORD PTR [esp], eax
	call	__ZStlsIcSt11char_traitsIcEERSt13basic_ostreamIT_T0_ES6_St5_Setw
	mov	DWORD PTR [esp], ebx
	mov	ecx, eax
	call	__ZNSolsEi
	sub	esp, 4
	mov	DWORD PTR [esp+4], OFFSET FLAT:LC42
	mov	DWORD PTR [esp], eax
	call	__ZStlsISt11char_traitsIcEERSt13basic_ostreamIcT_ES5_PKc
	mov	ebx, DWORD PTR [ebp-116]
	mov	DWORD PTR [esp+4], ebx
	mov	DWORD PTR [esp], eax
	call	__ZStlsIcSt11char_traitsIcEERSt13basic_ostreamIT_T0_ES6_St5_Setw
	mov	edx, eax
	lea	eax, [ebp-48]
	mov	DWORD PTR [esp+4], eax
	mov	DWORD PTR [esp], edx
	call	__ZStlsIcSt11char_traitsIcESaIcEERSt13basic_ostreamIT_T0_ES7_RKNSt7__cxx1112basic_stringIS4_S5_T1_EE
	mov	DWORD PTR [esp+4], edi
	mov	DWORD PTR [esp], eax
	call	__ZStlsIcSt11char_traitsIcEERSt13basic_ostreamIT_T0_ES6_St5_Setw
	mov	edx, eax
	lea	eax, [ebp-72]
	mov	DWORD PTR [esp+4], eax
	mov	DWORD PTR [esp], edx
	call	__ZStlsIcSt11char_traitsIcESaIcEERSt13basic_ostreamIT_T0_ES7_RKNSt7__cxx1112basic_stringIS4_S5_T1_EE
	mov	DWORD PTR [esp+4], esi
	mov	DWORD PTR [esp], eax
	call	__ZStlsIcSt11char_traitsIcEERSt13basic_ostreamIT_T0_ES6_St5_Setw
	mov	edx, eax
	lea	eax, [ebp-96]
	mov	DWORD PTR [esp+4], eax
	mov	DWORD PTR [esp], edx
	call	__ZStlsIcSt11char_traitsIcESaIcEERSt13basic_ostreamIT_T0_ES7_RKNSt7__cxx1112basic_stringIS4_S5_T1_EE
	mov	DWORD PTR [esp], OFFSET FLAT:__ZSt4endlIcSt11char_traitsIcEERSt13basic_ostreamIT_T0_ES6_
	mov	ecx, eax
	call	__ZNSolsEPFRSoS_E
LEHE27:
	sub	esp, 4
	lea	eax, [ebp-48]
	mov	ecx, eax
	call	__ZNSt7__cxx1112basic_stringIcSt11char_traitsIcESaIcEED1Ev
	lea	eax, [ebp-72]
	mov	ecx, eax
	call	__ZNSt7__cxx1112basic_stringIcSt11char_traitsIcESaIcEED1Ev
	lea	eax, [ebp-96]
	mov	ecx, eax
	call	__ZNSt7__cxx1112basic_stringIcSt11char_traitsIcESaIcEED1Ev
	jmp	L183
L182:
	mov	ebx, eax
	lea	eax, [ebp-48]
	mov	ecx, eax
	call	__ZNSt7__cxx1112basic_stringIcSt11char_traitsIcESaIcEED1Ev
	jmp	L178
L181:
	mov	ebx, eax
L178:
	lea	eax, [ebp-72]
	mov	ecx, eax
	call	__ZNSt7__cxx1112basic_stringIcSt11char_traitsIcESaIcEED1Ev
	jmp	L179
L180:
	mov	ebx, eax
L179:
	lea	eax, [ebp-96]
	mov	ecx, eax
	call	__ZNSt7__cxx1112basic_stringIcSt11char_traitsIcESaIcEED1Ev
	mov	eax, ebx
	mov	DWORD PTR [esp], eax
LEHB28:
	call	__Unwind_Resume
LEHE28:
L183:
	lea	esp, [ebp-12]
	pop	ebx
	.cfi_restore 3
	pop	esi
	.cfi_restore 6
	pop	edi
	.cfi_restore 7
	pop	ebp
	.cfi_restore 5
	.cfi_def_cfa 4, 4
	ret
	.cfi_endproc
LFE2867:
	.section	.gcc_except_table,"w"
LLSDA2867:
	.byte	0xff
	.byte	0xff
	.byte	0x1
	.uleb128 LLSDACSE2867-LLSDACSB2867
LLSDACSB2867:
	.uleb128 LEHB24-LFB2867
	.uleb128 LEHE24-LEHB24
	.uleb128 0
	.uleb128 0
	.uleb128 LEHB25-LFB2867
	.uleb128 LEHE25-LEHB25
	.uleb128 L180-LFB2867
	.uleb128 0
	.uleb128 LEHB26-LFB2867
	.uleb128 LEHE26-LEHB26
	.uleb128 L181-LFB2867
	.uleb128 0
	.uleb128 LEHB27-LFB2867
	.uleb128 LEHE27-LEHB27
	.uleb128 L182-LFB2867
	.uleb128 0
	.uleb128 LEHB28-LFB2867
	.uleb128 LEHE28-LEHB28
	.uleb128 0
	.uleb128 0
LLSDACSE2867:
	.text
	.globl	__ZN3DES23initialPermutationTableE
	.section .rdata,"dr"
	.align 32
__ZN3DES23initialPermutationTableE:
	.long	58
	.long	50
	.long	42
	.long	34
	.long	26
	.long	18
	.long	10
	.long	2
	.long	60
	.long	52
	.long	44
	.long	36
	.long	28
	.long	20
	.long	12
	.long	4
	.long	62
	.long	54
	.long	46
	.long	38
	.long	30
	.long	22
	.long	14
	.long	6
	.long	64
	.long	56
	.long	48
	.long	40
	.long	32
	.long	24
	.long	16
	.long	8
	.long	57
	.long	49
	.long	41
	.long	33
	.long	25
	.long	17
	.long	9
	.long	1
	.long	59
	.long	51
	.long	43
	.long	35
	.long	27
	.long	19
	.long	11
	.long	3
	.long	61
	.long	53
	.long	45
	.long	37
	.long	29
	.long	21
	.long	13
	.long	5
	.long	63
	.long	55
	.long	47
	.long	39
	.long	31
	.long	23
	.long	15
	.long	7
	.globl	__ZN3DES21finalPermutationTableE
	.align 32
__ZN3DES21finalPermutationTableE:
	.long	40
	.long	8
	.long	48
	.long	16
	.long	56
	.long	24
	.long	64
	.long	32
	.long	39
	.long	7
	.long	47
	.long	15
	.long	55
	.long	23
	.long	63
	.long	31
	.long	38
	.long	6
	.long	46
	.long	14
	.long	54
	.long	22
	.long	62
	.long	30
	.long	37
	.long	5
	.long	45
	.long	13
	.long	53
	.long	21
	.long	61
	.long	29
	.long	36
	.long	4
	.long	44
	.long	12
	.long	52
	.long	20
	.long	60
	.long	28
	.long	35
	.long	3
	.long	43
	.long	11
	.long	51
	.long	19
	.long	59
	.long	27
	.long	34
	.long	2
	.long	42
	.long	10
	.long	50
	.long	18
	.long	58
	.long	26
	.long	33
	.long	1
	.long	41
	.long	9
	.long	49
	.long	17
	.long	57
	.long	25
	.globl	__ZN3DES25expansionPermutationTalbeE
	.align 32
__ZN3DES25expansionPermutationTalbeE:
	.long	32
	.long	1
	.long	2
	.long	3
	.long	4
	.long	5
	.long	4
	.long	5
	.long	6
	.long	7
	.long	8
	.long	9
	.long	8
	.long	9
	.long	10
	.long	11
	.long	12
	.long	13
	.long	12
	.long	13
	.long	14
	.long	15
	.long	16
	.long	17
	.long	16
	.long	17
	.long	18
	.long	19
	.long	20
	.long	21
	.long	20
	.long	21
	.long	22
	.long	23
	.long	24
	.long	25
	.long	24
	.long	25
	.long	26
	.long	27
	.long	28
	.long	29
	.long	28
	.long	29
	.long	30
	.long	31
	.long	32
	.long	1
	.globl	__ZN3DES18parityBitDropTableE
	.align 32
__ZN3DES18parityBitDropTableE:
	.long	57
	.long	49
	.long	41
	.long	33
	.long	25
	.long	17
	.long	9
	.long	1
	.long	58
	.long	50
	.long	42
	.long	34
	.long	26
	.long	18
	.long	10
	.long	2
	.long	59
	.long	51
	.long	43
	.long	35
	.long	27
	.long	19
	.long	11
	.long	3
	.long	60
	.long	52
	.long	44
	.long	36
	.long	63
	.long	55
	.long	47
	.long	39
	.long	31
	.long	23
	.long	15
	.long	7
	.long	62
	.long	54
	.long	46
	.long	38
	.long	30
	.long	22
	.long	14
	.long	6
	.long	61
	.long	53
	.long	45
	.long	37
	.long	29
	.long	21
	.long	13
	.long	5
	.long	28
	.long	20
	.long	12
	.long	4
	.globl	__ZN3DES19keyCompressionTableE
	.align 32
__ZN3DES19keyCompressionTableE:
	.long	14
	.long	17
	.long	11
	.long	24
	.long	1
	.long	5
	.long	3
	.long	28
	.long	15
	.long	6
	.long	21
	.long	10
	.long	23
	.long	19
	.long	12
	.long	4
	.long	26
	.long	8
	.long	16
	.long	7
	.long	27
	.long	20
	.long	13
	.long	2
	.long	41
	.long	52
	.long	31
	.long	37
	.long	47
	.long	55
	.long	30
	.long	40
	.long	51
	.long	45
	.long	33
	.long	48
	.long	44
	.long	49
	.long	39
	.long	56
	.long	34
	.long	53
	.long	46
	.long	42
	.long	50
	.long	36
	.long	29
	.long	32
	.globl	__ZN3DES24straightPermutationTableE
	.align 32
__ZN3DES24straightPermutationTableE:
	.long	16
	.long	7
	.long	20
	.long	21
	.long	29
	.long	12
	.long	28
	.long	17
	.long	1
	.long	15
	.long	23
	.long	26
	.long	5
	.long	18
	.long	31
	.long	10
	.long	2
	.long	8
	.long	24
	.long	14
	.long	32
	.long	27
	.long	3
	.long	9
	.long	19
	.long	13
	.long	30
	.long	6
	.long	22
	.long	11
	.long	4
	.long	25
	.globl	__ZN3DES2s1E
	.align 32
__ZN3DES2s1E:
	.long	14
	.long	4
	.long	13
	.long	1
	.long	2
	.long	15
	.long	11
	.long	8
	.long	3
	.long	10
	.long	6
	.long	12
	.long	5
	.long	9
	.long	0
	.long	7
	.long	0
	.long	15
	.long	7
	.long	4
	.long	14
	.long	2
	.long	13
	.long	1
	.long	10
	.long	6
	.long	12
	.long	11
	.long	9
	.long	5
	.long	3
	.long	8
	.long	4
	.long	1
	.long	14
	.long	8
	.long	13
	.long	6
	.long	2
	.long	11
	.long	15
	.long	12
	.long	9
	.long	7
	.long	3
	.long	10
	.long	5
	.long	0
	.long	15
	.long	12
	.long	8
	.long	2
	.long	4
	.long	9
	.long	1
	.long	7
	.long	5
	.long	11
	.long	3
	.long	14
	.long	10
	.long	0
	.long	6
	.long	13
	.globl	__ZN3DES2s2E
	.align 32
__ZN3DES2s2E:
	.long	15
	.long	1
	.long	8
	.long	14
	.long	6
	.long	11
	.long	3
	.long	4
	.long	9
	.long	7
	.long	2
	.long	13
	.long	12
	.long	0
	.long	5
	.long	10
	.long	3
	.long	13
	.long	4
	.long	7
	.long	15
	.long	2
	.long	8
	.long	14
	.long	12
	.long	0
	.long	1
	.long	10
	.long	6
	.long	9
	.long	11
	.long	5
	.long	0
	.long	14
	.long	7
	.long	11
	.long	10
	.long	4
	.long	13
	.long	1
	.long	5
	.long	8
	.long	12
	.long	6
	.long	9
	.long	3
	.long	2
	.long	15
	.long	13
	.long	8
	.long	10
	.long	1
	.long	3
	.long	15
	.long	4
	.long	2
	.long	11
	.long	6
	.long	7
	.long	12
	.long	0
	.long	5
	.long	14
	.long	9
	.globl	__ZN3DES2s3E
	.align 32
__ZN3DES2s3E:
	.long	10
	.long	0
	.long	9
	.long	14
	.long	6
	.long	3
	.long	15
	.long	5
	.long	1
	.long	13
	.long	12
	.long	7
	.long	11
	.long	4
	.long	2
	.long	8
	.long	13
	.long	7
	.long	0
	.long	9
	.long	3
	.long	4
	.long	6
	.long	10
	.long	2
	.long	8
	.long	5
	.long	14
	.long	12
	.long	11
	.long	15
	.long	1
	.long	13
	.long	6
	.long	4
	.long	9
	.long	8
	.long	15
	.long	3
	.long	0
	.long	11
	.long	1
	.long	2
	.long	12
	.long	5
	.long	10
	.long	14
	.long	7
	.long	1
	.long	10
	.long	13
	.long	0
	.long	6
	.long	9
	.long	8
	.long	7
	.long	4
	.long	15
	.long	14
	.long	3
	.long	11
	.long	5
	.long	2
	.long	12
	.globl	__ZN3DES2s4E
	.align 32
__ZN3DES2s4E:
	.long	7
	.long	13
	.long	14
	.long	3
	.long	0
	.long	6
	.long	9
	.long	10
	.long	1
	.long	2
	.long	8
	.long	5
	.long	11
	.long	12
	.long	4
	.long	15
	.long	13
	.long	8
	.long	11
	.long	5
	.long	6
	.long	15
	.long	0
	.long	3
	.long	4
	.long	7
	.long	2
	.long	12
	.long	1
	.long	10
	.long	14
	.long	9
	.long	10
	.long	6
	.long	9
	.long	0
	.long	12
	.long	11
	.long	7
	.long	13
	.long	15
	.long	1
	.long	3
	.long	14
	.long	5
	.long	2
	.long	8
	.long	4
	.long	3
	.long	15
	.long	0
	.long	6
	.long	10
	.long	1
	.long	13
	.long	8
	.long	9
	.long	4
	.long	5
	.long	11
	.long	12
	.long	7
	.long	2
	.long	14
	.globl	__ZN3DES2s5E
	.align 32
__ZN3DES2s5E:
	.long	2
	.long	12
	.long	4
	.long	1
	.long	7
	.long	10
	.long	11
	.long	6
	.long	8
	.long	5
	.long	3
	.long	15
	.long	13
	.long	0
	.long	14
	.long	9
	.long	14
	.long	11
	.long	2
	.long	12
	.long	4
	.long	7
	.long	13
	.long	1
	.long	5
	.long	0
	.long	15
	.long	10
	.long	3
	.long	9
	.long	8
	.long	6
	.long	4
	.long	2
	.long	1
	.long	11
	.long	10
	.long	13
	.long	7
	.long	8
	.long	15
	.long	9
	.long	12
	.long	5
	.long	6
	.long	3
	.long	0
	.long	14
	.long	11
	.long	8
	.long	12
	.long	7
	.long	1
	.long	14
	.long	2
	.long	13
	.long	6
	.long	15
	.long	0
	.long	9
	.long	10
	.long	4
	.long	5
	.long	3
	.globl	__ZN3DES2s6E
	.align 32
__ZN3DES2s6E:
	.long	12
	.long	1
	.long	10
	.long	15
	.long	9
	.long	2
	.long	6
	.long	8
	.long	0
	.long	13
	.long	3
	.long	4
	.long	14
	.long	7
	.long	5
	.long	11
	.long	10
	.long	15
	.long	4
	.long	2
	.long	7
	.long	12
	.long	9
	.long	5
	.long	6
	.long	1
	.long	13
	.long	14
	.long	0
	.long	11
	.long	3
	.long	8
	.long	9
	.long	14
	.long	15
	.long	5
	.long	2
	.long	8
	.long	12
	.long	3
	.long	7
	.long	0
	.long	4
	.long	10
	.long	1
	.long	13
	.long	11
	.long	6
	.long	4
	.long	3
	.long	2
	.long	12
	.long	9
	.long	5
	.long	15
	.long	10
	.long	11
	.long	14
	.long	1
	.long	7
	.long	6
	.long	0
	.long	8
	.long	13
	.globl	__ZN3DES2s7E
	.align 32
__ZN3DES2s7E:
	.long	4
	.long	11
	.long	2
	.long	14
	.long	15
	.long	0
	.long	8
	.long	13
	.long	3
	.long	12
	.long	9
	.long	7
	.long	5
	.long	10
	.long	6
	.long	1
	.long	13
	.long	0
	.long	11
	.long	7
	.long	4
	.long	9
	.long	1
	.long	10
	.long	14
	.long	3
	.long	5
	.long	12
	.long	2
	.long	15
	.long	8
	.long	6
	.long	1
	.long	4
	.long	11
	.long	13
	.long	12
	.long	3
	.long	7
	.long	14
	.long	10
	.long	15
	.long	6
	.long	8
	.long	0
	.long	5
	.long	9
	.long	2
	.long	6
	.long	11
	.long	13
	.long	8
	.long	1
	.long	4
	.long	10
	.long	7
	.long	9
	.long	5
	.long	0
	.long	15
	.long	14
	.long	2
	.long	3
	.long	12
	.globl	__ZN3DES2s8E
	.align 32
__ZN3DES2s8E:
	.long	13
	.long	2
	.long	8
	.long	4
	.long	6
	.long	15
	.long	11
	.long	1
	.long	10
	.long	9
	.long	3
	.long	14
	.long	5
	.long	0
	.long	12
	.long	7
	.long	1
	.long	15
	.long	13
	.long	8
	.long	10
	.long	3
	.long	7
	.long	4
	.long	12
	.long	5
	.long	6
	.long	11
	.long	0
	.long	14
	.long	9
	.long	2
	.long	7
	.long	11
	.long	4
	.long	1
	.long	9
	.long	12
	.long	14
	.long	2
	.long	0
	.long	6
	.long	10
	.long	13
	.long	15
	.long	3
	.long	5
	.long	8
	.long	2
	.long	1
	.long	14
	.long	7
	.long	4
	.long	10
	.long	8
	.long	13
	.long	15
	.long	12
	.long	9
	.long	0
	.long	3
	.long	5
	.long	6
	.long	11
	.section	.text$_ZSt4moveIRNSt7__cxx1112basic_stringIcSt11char_traitsIcESaIcEEEEONSt16remove_referenceIT_E4typeEOS8_,"x"
	.linkonce discard
	.globl	__ZSt4moveIRNSt7__cxx1112basic_stringIcSt11char_traitsIcESaIcEEEEONSt16remove_referenceIT_E4typeEOS8_
	.def	__ZSt4moveIRNSt7__cxx1112basic_stringIcSt11char_traitsIcESaIcEEEEONSt16remove_referenceIT_E4typeEOS8_;	.scl	2;	.type	32;	.endef
__ZSt4moveIRNSt7__cxx1112basic_stringIcSt11char_traitsIcESaIcEEEEONSt16remove_referenceIT_E4typeEOS8_:
LFB3071:
	.cfi_startproc
	push	ebp
	.cfi_def_cfa_offset 8
	.cfi_offset 5, -8
	mov	ebp, esp
	.cfi_def_cfa_register 5
	mov	eax, DWORD PTR [ebp+8]
	pop	ebp
	.cfi_restore 5
	.cfi_def_cfa 4, 4
	ret
	.cfi_endproc
LFE3071:
	.section	.text$_ZStplIcSt11char_traitsIcESaIcEENSt7__cxx1112basic_stringIT_T0_T1_EEOS8_S9_,"x"
	.linkonce discard
	.globl	__ZStplIcSt11char_traitsIcESaIcEENSt7__cxx1112basic_stringIT_T0_T1_EEOS8_S9_
	.def	__ZStplIcSt11char_traitsIcESaIcEENSt7__cxx1112basic_stringIT_T0_T1_EEOS8_S9_;	.scl	2;	.type	32;	.endef
__ZStplIcSt11char_traitsIcESaIcEENSt7__cxx1112basic_stringIT_T0_T1_EEOS8_S9_:
LFB3070:
	.cfi_startproc
	push	ebp
	.cfi_def_cfa_offset 8
	.cfi_offset 5, -8
	mov	ebp, esp
	.cfi_def_cfa_register 5
	push	ebx
	sub	esp, 36
	.cfi_offset 3, -12
	mov	eax, DWORD PTR [ebp+12]
	mov	ecx, eax
	call	__ZNKSt7__cxx1112basic_stringIcSt11char_traitsIcESaIcEE4sizeEv
	mov	ebx, eax
	mov	eax, DWORD PTR [ebp+16]
	mov	ecx, eax
	call	__ZNKSt7__cxx1112basic_stringIcSt11char_traitsIcESaIcEE4sizeEv
	add	eax, ebx
	mov	DWORD PTR [ebp-12], eax
	mov	eax, DWORD PTR [ebp+12]
	mov	ecx, eax
	call	__ZNKSt7__cxx1112basic_stringIcSt11char_traitsIcESaIcEE8capacityEv
	cmp	eax, DWORD PTR [ebp-12]
	jnb	L187
	mov	eax, DWORD PTR [ebp+16]
	mov	ecx, eax
	call	__ZNKSt7__cxx1112basic_stringIcSt11char_traitsIcESaIcEE8capacityEv
	cmp	eax, DWORD PTR [ebp-12]
	jb	L187
	mov	eax, 1
	jmp	L188
L187:
	mov	eax, 0
L188:
	mov	BYTE PTR [ebp-13], al
	cmp	BYTE PTR [ebp-13], 0
	je	L189
	mov	eax, DWORD PTR [ebp+16]
	mov	edx, DWORD PTR [ebp+12]
	mov	DWORD PTR [esp+4], edx
	mov	DWORD PTR [esp], 0
	mov	ecx, eax
	call	__ZNSt7__cxx1112basic_stringIcSt11char_traitsIcESaIcEE6insertEjRKS4_
	sub	esp, 8
	mov	DWORD PTR [esp], eax
	call	__ZSt4moveIRNSt7__cxx1112basic_stringIcSt11char_traitsIcESaIcEEEEONSt16remove_referenceIT_E4typeEOS8_
	jmp	L190
L189:
	mov	eax, DWORD PTR [ebp+12]
	mov	edx, DWORD PTR [ebp+16]
	mov	DWORD PTR [esp], edx
	mov	ecx, eax
	call	__ZNSt7__cxx1112basic_stringIcSt11char_traitsIcESaIcEE6appendERKS4_
	sub	esp, 4
	mov	DWORD PTR [esp], eax
	call	__ZSt4moveIRNSt7__cxx1112basic_stringIcSt11char_traitsIcESaIcEEEEONSt16remove_referenceIT_E4typeEOS8_
L190:
	mov	DWORD PTR [esp], eax
	mov	ecx, DWORD PTR [ebp+8]
	call	__ZNSt7__cxx1112basic_stringIcSt11char_traitsIcESaIcEEC1EOS4_
	sub	esp, 4
	mov	eax, DWORD PTR [ebp+8]
	mov	ebx, DWORD PTR [ebp-4]
	leave
	.cfi_restore 5
	.cfi_restore 3
	.cfi_def_cfa 4, 4
	ret
	.cfi_endproc
LFE3070:
	.section	.text$_ZNSt6bitsetILj48EEC1IcSt11char_traitsIcESaIcEEERKNSt7__cxx1112basic_stringIT_T0_T1_EEj,"x"
	.linkonce discard
	.align 2
	.globl	__ZNSt6bitsetILj48EEC1IcSt11char_traitsIcESaIcEEERKNSt7__cxx1112basic_stringIT_T0_T1_EEj
	.def	__ZNSt6bitsetILj48EEC1IcSt11char_traitsIcESaIcEEERKNSt7__cxx1112basic_stringIT_T0_T1_EEj;	.scl	2;	.type	32;	.endef
__ZNSt6bitsetILj48EEC1IcSt11char_traitsIcESaIcEEERKNSt7__cxx1112basic_stringIT_T0_T1_EEj:
LFB3102:
	.cfi_startproc
	push	ebp
	.cfi_def_cfa_offset 8
	.cfi_offset 5, -8
	mov	ebp, esp
	.cfi_def_cfa_register 5
	sub	esp, 56
	mov	DWORD PTR [ebp-12], ecx
	mov	eax, DWORD PTR [ebp-12]
	mov	ecx, eax
	call	__ZNSt12_Base_bitsetILj2EEC2Ev
	mov	eax, DWORD PTR [ebp-12]
	mov	edx, DWORD PTR [ebp+12]
	mov	DWORD PTR [esp+4], edx
	mov	edx, DWORD PTR [ebp+8]
	mov	DWORD PTR [esp], edx
	mov	ecx, eax
	call	__ZNKSt6bitsetILj48EE25_M_check_initial_positionIcSt11char_traitsIcESaIcEEEvRKNSt7__cxx1112basic_stringIT_T0_T1_EEj
	sub	esp, 8
	mov	eax, DWORD PTR [ebp-12]
	mov	DWORD PTR [esp+16], 49
	mov	DWORD PTR [esp+12], 48
	mov	DWORD PTR [esp+8], -1
	mov	edx, DWORD PTR [ebp+12]
	mov	DWORD PTR [esp+4], edx
	mov	edx, DWORD PTR [ebp+8]
	mov	DWORD PTR [esp], edx
	mov	ecx, eax
	call	__ZNSt6bitsetILj48EE19_M_copy_from_stringIcSt11char_traitsIcESaIcEEEvRKNSt7__cxx1112basic_stringIT_T0_T1_EEjjS7_S7_
	sub	esp, 20
	nop
	leave
	.cfi_restore 5
	.cfi_def_cfa 4, 4
	ret	8
	.cfi_endproc
LFE3102:
	.section	.text$_ZSteoILj48EESt6bitsetIXT_EERKS1_S3_,"x"
	.linkonce discard
	.globl	__ZSteoILj48EESt6bitsetIXT_EERKS1_S3_
	.def	__ZSteoILj48EESt6bitsetIXT_EERKS1_S3_;	.scl	2;	.type	32;	.endef
__ZSteoILj48EESt6bitsetIXT_EERKS1_S3_:
LFB3103:
	.cfi_startproc
	push	ebp
	.cfi_def_cfa_offset 8
	.cfi_offset 5, -8
	mov	ebp, esp
	.cfi_def_cfa_register 5
	sub	esp, 40
	mov	eax, DWORD PTR [ebp+8]
	mov	edx, DWORD PTR [eax+4]
	mov	eax, DWORD PTR [eax]
	mov	DWORD PTR [ebp-16], eax
	mov	DWORD PTR [ebp-12], edx
	lea	eax, [ebp-16]
	mov	edx, DWORD PTR [ebp+12]
	mov	DWORD PTR [esp], edx
	mov	ecx, eax
	call	__ZNSt6bitsetILj48EEeOERKS0_
	sub	esp, 4
	mov	eax, DWORD PTR [ebp-16]
	mov	edx, DWORD PTR [ebp-12]
	leave
	.cfi_restore 5
	.cfi_def_cfa 4, 4
	ret
	.cfi_endproc
LFE3103:
	.section	.text$_ZNKSt6bitsetILj48EE9to_stringB5cxx11Ev,"x"
	.linkonce discard
	.align 2
	.globl	__ZNKSt6bitsetILj48EE9to_stringB5cxx11Ev
	.def	__ZNKSt6bitsetILj48EE9to_stringB5cxx11Ev;	.scl	2;	.type	32;	.endef
__ZNKSt6bitsetILj48EE9to_stringB5cxx11Ev:
LFB3104:
	.cfi_startproc
	push	ebp
	.cfi_def_cfa_offset 8
	.cfi_offset 5, -8
	mov	ebp, esp
	.cfi_def_cfa_register 5
	sub	esp, 40
	mov	DWORD PTR [ebp-12], ecx
	mov	eax, DWORD PTR [ebp-12]
	mov	edx, DWORD PTR [ebp+8]
	mov	DWORD PTR [esp], edx
	mov	ecx, eax
	call	__ZNKSt6bitsetILj48EE9to_stringIcSt11char_traitsIcESaIcEEENSt7__cxx1112basic_stringIT_T0_T1_EEv
	sub	esp, 4
	mov	eax, DWORD PTR [ebp-12]
	leave
	.cfi_restore 5
	.cfi_def_cfa 4, 4
	ret	4
	.cfi_endproc
LFE3104:
	.section	.text$_ZNSt6bitsetILj32EEC1IcSt11char_traitsIcESaIcEEERKNSt7__cxx1112basic_stringIT_T0_T1_EEj,"x"
	.linkonce discard
	.align 2
	.globl	__ZNSt6bitsetILj32EEC1IcSt11char_traitsIcESaIcEEERKNSt7__cxx1112basic_stringIT_T0_T1_EEj
	.def	__ZNSt6bitsetILj32EEC1IcSt11char_traitsIcESaIcEEERKNSt7__cxx1112basic_stringIT_T0_T1_EEj;	.scl	2;	.type	32;	.endef
__ZNSt6bitsetILj32EEC1IcSt11char_traitsIcESaIcEEERKNSt7__cxx1112basic_stringIT_T0_T1_EEj:
LFB3108:
	.cfi_startproc
	push	ebp
	.cfi_def_cfa_offset 8
	.cfi_offset 5, -8
	mov	ebp, esp
	.cfi_def_cfa_register 5
	sub	esp, 56
	mov	DWORD PTR [ebp-12], ecx
	mov	eax, DWORD PTR [ebp-12]
	mov	ecx, eax
	call	__ZNSt12_Base_bitsetILj1EEC2Ev
	mov	eax, DWORD PTR [ebp-12]
	mov	edx, DWORD PTR [ebp+12]
	mov	DWORD PTR [esp+4], edx
	mov	edx, DWORD PTR [ebp+8]
	mov	DWORD PTR [esp], edx
	mov	ecx, eax
	call	__ZNKSt6bitsetILj32EE25_M_check_initial_positionIcSt11char_traitsIcESaIcEEEvRKNSt7__cxx1112basic_stringIT_T0_T1_EEj
	sub	esp, 8
	mov	eax, DWORD PTR [ebp-12]
	mov	DWORD PTR [esp+16], 49
	mov	DWORD PTR [esp+12], 48
	mov	DWORD PTR [esp+8], -1
	mov	edx, DWORD PTR [ebp+12]
	mov	DWORD PTR [esp+4], edx
	mov	edx, DWORD PTR [ebp+8]
	mov	DWORD PTR [esp], edx
	mov	ecx, eax
	call	__ZNSt6bitsetILj32EE19_M_copy_from_stringIcSt11char_traitsIcESaIcEEEvRKNSt7__cxx1112basic_stringIT_T0_T1_EEjjS7_S7_
	sub	esp, 20
	nop
	leave
	.cfi_restore 5
	.cfi_def_cfa 4, 4
	ret	8
	.cfi_endproc
LFE3108:
	.section	.text$_ZSteoILj32EESt6bitsetIXT_EERKS1_S3_,"x"
	.linkonce discard
	.globl	__ZSteoILj32EESt6bitsetIXT_EERKS1_S3_
	.def	__ZSteoILj32EESt6bitsetIXT_EERKS1_S3_;	.scl	2;	.type	32;	.endef
__ZSteoILj32EESt6bitsetIXT_EERKS1_S3_:
LFB3109:
	.cfi_startproc
	push	ebp
	.cfi_def_cfa_offset 8
	.cfi_offset 5, -8
	mov	ebp, esp
	.cfi_def_cfa_register 5
	sub	esp, 40
	mov	eax, DWORD PTR [ebp+8]
	mov	eax, DWORD PTR [eax]
	mov	DWORD PTR [ebp-12], eax
	lea	eax, [ebp-12]
	mov	edx, DWORD PTR [ebp+12]
	mov	DWORD PTR [esp], edx
	mov	ecx, eax
	call	__ZNSt6bitsetILj32EEeOERKS0_
	sub	esp, 4
	mov	eax, DWORD PTR [ebp-12]
	leave
	.cfi_restore 5
	.cfi_def_cfa 4, 4
	ret
	.cfi_endproc
LFE3109:
	.section	.text$_ZNKSt6bitsetILj32EE9to_stringB5cxx11Ev,"x"
	.linkonce discard
	.align 2
	.globl	__ZNKSt6bitsetILj32EE9to_stringB5cxx11Ev
	.def	__ZNKSt6bitsetILj32EE9to_stringB5cxx11Ev;	.scl	2;	.type	32;	.endef
__ZNKSt6bitsetILj32EE9to_stringB5cxx11Ev:
LFB3110:
	.cfi_startproc
	push	ebp
	.cfi_def_cfa_offset 8
	.cfi_offset 5, -8
	mov	ebp, esp
	.cfi_def_cfa_register 5
	sub	esp, 40
	mov	DWORD PTR [ebp-12], ecx
	mov	eax, DWORD PTR [ebp-12]
	mov	edx, DWORD PTR [ebp+8]
	mov	DWORD PTR [esp], edx
	mov	ecx, eax
	call	__ZNKSt6bitsetILj32EE9to_stringIcSt11char_traitsIcESaIcEEENSt7__cxx1112basic_stringIT_T0_T1_EEv
	sub	esp, 4
	mov	eax, DWORD PTR [ebp-12]
	leave
	.cfi_restore 5
	.cfi_def_cfa 4, 4
	ret	4
	.cfi_endproc
LFE3110:
	.section	.text$_ZN9__gnu_cxxltIPKcNSt7__cxx1112basic_stringIcSt11char_traitsIcESaIcEEEEEbRKNS_17__normal_iteratorIT_T0_EESE_,"x"
	.linkonce discard
	.globl	__ZN9__gnu_cxxltIPKcNSt7__cxx1112basic_stringIcSt11char_traitsIcESaIcEEEEEbRKNS_17__normal_iteratorIT_T0_EESE_
	.def	__ZN9__gnu_cxxltIPKcNSt7__cxx1112basic_stringIcSt11char_traitsIcESaIcEEEEEbRKNS_17__normal_iteratorIT_T0_EESE_;	.scl	2;	.type	32;	.endef
__ZN9__gnu_cxxltIPKcNSt7__cxx1112basic_stringIcSt11char_traitsIcESaIcEEEEEbRKNS_17__normal_iteratorIT_T0_EESE_:
LFB3113:
	.cfi_startproc
	push	ebp
	.cfi_def_cfa_offset 8
	.cfi_offset 5, -8
	mov	ebp, esp
	.cfi_def_cfa_register 5
	push	ebx
	sub	esp, 4
	.cfi_offset 3, -12
	mov	ecx, DWORD PTR [ebp+8]
	call	__ZNK9__gnu_cxx17__normal_iteratorIPKcNSt7__cxx1112basic_stringIcSt11char_traitsIcESaIcEEEE4baseEv
	mov	ebx, DWORD PTR [eax]
	mov	eax, DWORD PTR [ebp+12]
	mov	ecx, eax
	call	__ZNK9__gnu_cxx17__normal_iteratorIPKcNSt7__cxx1112basic_stringIcSt11char_traitsIcESaIcEEEE4baseEv
	mov	eax, DWORD PTR [eax]
	cmp	ebx, eax
	setb	al
	add	esp, 4
	pop	ebx
	.cfi_restore 3
	pop	ebp
	.cfi_restore 5
	.cfi_def_cfa 4, 4
	ret
	.cfi_endproc
LFE3113:
	.section	.text$_ZN9__gnu_cxx17__normal_iteratorIPKcNSt7__cxx1112basic_stringIcSt11char_traitsIcESaIcEEEEppEi,"x"
	.linkonce discard
	.align 2
	.globl	__ZN9__gnu_cxx17__normal_iteratorIPKcNSt7__cxx1112basic_stringIcSt11char_traitsIcESaIcEEEEppEi
	.def	__ZN9__gnu_cxx17__normal_iteratorIPKcNSt7__cxx1112basic_stringIcSt11char_traitsIcESaIcEEEEppEi;	.scl	2;	.type	32;	.endef
__ZN9__gnu_cxx17__normal_iteratorIPKcNSt7__cxx1112basic_stringIcSt11char_traitsIcESaIcEEEEppEi:
LFB3114:
	.cfi_startproc
	push	ebp
	.cfi_def_cfa_offset 8
	.cfi_offset 5, -8
	mov	ebp, esp
	.cfi_def_cfa_register 5
	sub	esp, 56
	mov	DWORD PTR [ebp-28], ecx
	mov	eax, DWORD PTR [ebp-28]
	mov	eax, DWORD PTR [eax]
	lea	ecx, [eax+1]
	mov	edx, DWORD PTR [ebp-28]
	mov	DWORD PTR [edx], ecx
	mov	DWORD PTR [ebp-12], eax
	lea	eax, [ebp-16]
	lea	edx, [ebp-12]
	mov	DWORD PTR [esp], edx
	mov	ecx, eax
	call	__ZN9__gnu_cxx17__normal_iteratorIPKcNSt7__cxx1112basic_stringIcSt11char_traitsIcESaIcEEEEC1ERKS2_
	sub	esp, 4
	mov	eax, DWORD PTR [ebp-16]
	leave
	.cfi_restore 5
	.cfi_def_cfa 4, 4
	ret	4
	.cfi_endproc
LFE3114:
	.section	.text$_ZNK9__gnu_cxx17__normal_iteratorIPKcNSt7__cxx1112basic_stringIcSt11char_traitsIcESaIcEEEEdeEv,"x"
	.linkonce discard
	.align 2
	.globl	__ZNK9__gnu_cxx17__normal_iteratorIPKcNSt7__cxx1112basic_stringIcSt11char_traitsIcESaIcEEEEdeEv
	.def	__ZNK9__gnu_cxx17__normal_iteratorIPKcNSt7__cxx1112basic_stringIcSt11char_traitsIcESaIcEEEEdeEv;	.scl	2;	.type	32;	.endef
__ZNK9__gnu_cxx17__normal_iteratorIPKcNSt7__cxx1112basic_stringIcSt11char_traitsIcESaIcEEEEdeEv:
LFB3115:
	.cfi_startproc
	push	ebp
	.cfi_def_cfa_offset 8
	.cfi_offset 5, -8
	mov	ebp, esp
	.cfi_def_cfa_register 5
	sub	esp, 4
	mov	DWORD PTR [ebp-4], ecx
	mov	eax, DWORD PTR [ebp-4]
	mov	eax, DWORD PTR [eax]
	leave
	.cfi_restore 5
	.cfi_def_cfa 4, 4
	ret
	.cfi_endproc
LFE3115:
	.section	.text$_ZNKSt5arrayIiLj64EE5beginEv,"x"
	.linkonce discard
	.align 2
	.globl	__ZNKSt5arrayIiLj64EE5beginEv
	.def	__ZNKSt5arrayIiLj64EE5beginEv;	.scl	2;	.type	32;	.endef
__ZNKSt5arrayIiLj64EE5beginEv:
LFB3116:
	.cfi_startproc
	push	ebp
	.cfi_def_cfa_offset 8
	.cfi_offset 5, -8
	mov	ebp, esp
	.cfi_def_cfa_register 5
	sub	esp, 24
	mov	DWORD PTR [ebp-12], ecx
	mov	eax, DWORD PTR [ebp-12]
	mov	ecx, eax
	call	__ZNKSt5arrayIiLj64EE4dataEv
	leave
	.cfi_restore 5
	.cfi_def_cfa 4, 4
	ret
	.cfi_endproc
LFE3116:
	.section	.text$_ZNKSt5arrayIiLj64EE3endEv,"x"
	.linkonce discard
	.align 2
	.globl	__ZNKSt5arrayIiLj64EE3endEv
	.def	__ZNKSt5arrayIiLj64EE3endEv;	.scl	2;	.type	32;	.endef
__ZNKSt5arrayIiLj64EE3endEv:
LFB3117:
	.cfi_startproc
	push	ebp
	.cfi_def_cfa_offset 8
	.cfi_offset 5, -8
	mov	ebp, esp
	.cfi_def_cfa_register 5
	sub	esp, 24
	mov	DWORD PTR [ebp-12], ecx
	mov	eax, DWORD PTR [ebp-12]
	mov	ecx, eax
	call	__ZNKSt5arrayIiLj64EE4dataEv
	add	eax, 256
	leave
	.cfi_restore 5
	.cfi_def_cfa 4, 4
	ret
	.cfi_endproc
LFE3117:
	.section	.text$_ZSt8distanceIN9__gnu_cxx17__normal_iteratorIPKcNSt7__cxx1112basic_stringIcSt11char_traitsIcESaIcEEEEEENSt15iterator_traitsIT_E15difference_typeESC_SC_,"x"
	.linkonce discard
	.globl	__ZSt8distanceIN9__gnu_cxx17__normal_iteratorIPKcNSt7__cxx1112basic_stringIcSt11char_traitsIcESaIcEEEEEENSt15iterator_traitsIT_E15difference_typeESC_SC_
	.def	__ZSt8distanceIN9__gnu_cxx17__normal_iteratorIPKcNSt7__cxx1112basic_stringIcSt11char_traitsIcESaIcEEEEEENSt15iterator_traitsIT_E15difference_typeESC_SC_;	.scl	2;	.type	32;	.endef
__ZSt8distanceIN9__gnu_cxx17__normal_iteratorIPKcNSt7__cxx1112basic_stringIcSt11char_traitsIcESaIcEEEEEENSt15iterator_traitsIT_E15difference_typeESC_SC_:
LFB3118:
	.cfi_startproc
	push	ebp
	.cfi_def_cfa_offset 8
	.cfi_offset 5, -8
	mov	ebp, esp
	.cfi_def_cfa_register 5
	push	ebx
	sub	esp, 36
	.cfi_offset 3, -12
	lea	eax, [ebp+8]
	mov	DWORD PTR [esp], eax
	call	__ZSt19__iterator_categoryIN9__gnu_cxx17__normal_iteratorIPKcNSt7__cxx1112basic_stringIcSt11char_traitsIcESaIcEEEEEENSt15iterator_traitsIT_E17iterator_categoryERKSC_
	mov	BYTE PTR [esp+8], bl
	mov	eax, DWORD PTR [ebp+12]
	mov	DWORD PTR [esp+4], eax
	mov	eax, DWORD PTR [ebp+8]
	mov	DWORD PTR [esp], eax
	call	__ZSt10__distanceIN9__gnu_cxx17__normal_iteratorIPKcNSt7__cxx1112basic_stringIcSt11char_traitsIcESaIcEEEEEENSt15iterator_traitsIT_E15difference_typeESC_SC_St26random_access_iterator_tag
	add	esp, 36
	pop	ebx
	.cfi_restore 3
	pop	ebp
	.cfi_restore 5
	.cfi_def_cfa 4, 4
	ret
	.cfi_endproc
LFE3118:
	.section	.text$_ZSt4findIPKiiET_S2_S2_RKT0_,"x"
	.linkonce discard
	.globl	__ZSt4findIPKiiET_S2_S2_RKT0_
	.def	__ZSt4findIPKiiET_S2_S2_RKT0_;	.scl	2;	.type	32;	.endef
__ZSt4findIPKiiET_S2_S2_RKT0_:
LFB3119:
	.cfi_startproc
	push	ebp
	.cfi_def_cfa_offset 8
	.cfi_offset 5, -8
	mov	ebp, esp
	.cfi_def_cfa_register 5
	sub	esp, 24
	mov	eax, DWORD PTR [ebp+16]
	mov	DWORD PTR [esp], eax
	call	__ZN9__gnu_cxx5__ops17__iter_equals_valIKiEENS0_16_Iter_equals_valIT_EERS4_
	mov	DWORD PTR [esp+8], eax
	mov	eax, DWORD PTR [ebp+12]
	mov	DWORD PTR [esp+4], eax
	mov	eax, DWORD PTR [ebp+8]
	mov	DWORD PTR [esp], eax
	call	__ZSt9__find_ifIPKiN9__gnu_cxx5__ops16_Iter_equals_valIS0_EEET_S6_S6_T0_
	leave
	.cfi_restore 5
	.cfi_def_cfa 4, 4
	ret
	.cfi_endproc
LFE3119:
	.section	.text$_ZSt8distanceIPKiENSt15iterator_traitsIT_E15difference_typeES3_S3_,"x"
	.linkonce discard
	.globl	__ZSt8distanceIPKiENSt15iterator_traitsIT_E15difference_typeES3_S3_
	.def	__ZSt8distanceIPKiENSt15iterator_traitsIT_E15difference_typeES3_S3_;	.scl	2;	.type	32;	.endef
__ZSt8distanceIPKiENSt15iterator_traitsIT_E15difference_typeES3_S3_:
LFB3120:
	.cfi_startproc
	push	ebp
	.cfi_def_cfa_offset 8
	.cfi_offset 5, -8
	mov	ebp, esp
	.cfi_def_cfa_register 5
	push	ebx
	sub	esp, 36
	.cfi_offset 3, -12
	lea	eax, [ebp+8]
	mov	DWORD PTR [esp], eax
	call	__ZSt19__iterator_categoryIPKiENSt15iterator_traitsIT_E17iterator_categoryERKS3_
	mov	eax, DWORD PTR [ebp+8]
	mov	BYTE PTR [esp+8], bl
	mov	edx, DWORD PTR [ebp+12]
	mov	DWORD PTR [esp+4], edx
	mov	DWORD PTR [esp], eax
	call	__ZSt10__distanceIPKiENSt15iterator_traitsIT_E15difference_typeES3_S3_St26random_access_iterator_tag
	add	esp, 36
	pop	ebx
	.cfi_restore 3
	pop	ebp
	.cfi_restore 5
	.cfi_def_cfa 4, 4
	ret
	.cfi_endproc
LFE3120:
	.section .rdata,"dr"
LC43:
	.ascii "bitset::set\0"
	.section	.text$_ZNSt6bitsetILj64EE3setEjb,"x"
	.linkonce discard
	.align 2
	.globl	__ZNSt6bitsetILj64EE3setEjb
	.def	__ZNSt6bitsetILj64EE3setEjb;	.scl	2;	.type	32;	.endef
__ZNSt6bitsetILj64EE3setEjb:
LFB3121:
	.cfi_startproc
	push	ebp
	.cfi_def_cfa_offset 8
	.cfi_offset 5, -8
	mov	ebp, esp
	.cfi_def_cfa_register 5
	sub	esp, 40
	mov	DWORD PTR [ebp-12], ecx
	mov	eax, DWORD PTR [ebp+12]
	mov	BYTE PTR [ebp-16], al
	mov	eax, DWORD PTR [ebp-12]
	mov	DWORD PTR [esp+4], OFFSET FLAT:LC43
	mov	edx, DWORD PTR [ebp+8]
	mov	DWORD PTR [esp], edx
	mov	ecx, eax
	call	__ZNKSt6bitsetILj64EE8_M_checkEjPKc
	sub	esp, 8
	movzx	edx, BYTE PTR [ebp-16]
	mov	eax, DWORD PTR [ebp-12]
	mov	DWORD PTR [esp+4], edx
	mov	edx, DWORD PTR [ebp+8]
	mov	DWORD PTR [esp], edx
	mov	ecx, eax
	call	__ZNSt6bitsetILj64EE14_Unchecked_setEji
	sub	esp, 8
	leave
	.cfi_restore 5
	.cfi_def_cfa 4, 4
	ret	8
	.cfi_endproc
LFE3121:
	.section	.text$_ZNKSt6bitsetILj64EE9to_stringB5cxx11Ev,"x"
	.linkonce discard
	.align 2
	.globl	__ZNKSt6bitsetILj64EE9to_stringB5cxx11Ev
	.def	__ZNKSt6bitsetILj64EE9to_stringB5cxx11Ev;	.scl	2;	.type	32;	.endef
__ZNKSt6bitsetILj64EE9to_stringB5cxx11Ev:
LFB3122:
	.cfi_startproc
	push	ebp
	.cfi_def_cfa_offset 8
	.cfi_offset 5, -8
	mov	ebp, esp
	.cfi_def_cfa_register 5
	sub	esp, 40
	mov	DWORD PTR [ebp-12], ecx
	mov	eax, DWORD PTR [ebp-12]
	mov	edx, DWORD PTR [ebp+8]
	mov	DWORD PTR [esp], edx
	mov	ecx, eax
	call	__ZNKSt6bitsetILj64EE9to_stringIcSt11char_traitsIcESaIcEEENSt7__cxx1112basic_stringIT_T0_T1_EEv
	sub	esp, 4
	mov	eax, DWORD PTR [ebp-12]
	leave
	.cfi_restore 5
	.cfi_def_cfa 4, 4
	ret	4
	.cfi_endproc
LFE3122:
	.section	.text$_ZNK9__gnu_cxx17__normal_iteratorIPcNSt7__cxx1112basic_stringIcSt11char_traitsIcESaIcEEEEplEi,"x"
	.linkonce discard
	.align 2
	.globl	__ZNK9__gnu_cxx17__normal_iteratorIPcNSt7__cxx1112basic_stringIcSt11char_traitsIcESaIcEEEEplEi
	.def	__ZNK9__gnu_cxx17__normal_iteratorIPcNSt7__cxx1112basic_stringIcSt11char_traitsIcESaIcEEEEplEi;	.scl	2;	.type	32;	.endef
__ZNK9__gnu_cxx17__normal_iteratorIPcNSt7__cxx1112basic_stringIcSt11char_traitsIcESaIcEEEEplEi:
LFB3129:
	.cfi_startproc
	push	ebp
	.cfi_def_cfa_offset 8
	.cfi_offset 5, -8
	mov	ebp, esp
	.cfi_def_cfa_register 5
	sub	esp, 56
	mov	DWORD PTR [ebp-28], ecx
	mov	eax, DWORD PTR [ebp-28]
	mov	edx, DWORD PTR [eax]
	mov	eax, DWORD PTR [ebp+8]
	add	eax, edx
	mov	DWORD PTR [ebp-12], eax
	lea	eax, [ebp-16]
	lea	edx, [ebp-12]
	mov	DWORD PTR [esp], edx
	mov	ecx, eax
	call	__ZN9__gnu_cxx17__normal_iteratorIPcNSt7__cxx1112basic_stringIcSt11char_traitsIcESaIcEEEEC1ERKS1_
	sub	esp, 4
	mov	eax, DWORD PTR [ebp-16]
	leave
	.cfi_restore 5
	.cfi_def_cfa 4, 4
	ret	4
	.cfi_endproc
LFE3129:
	.section	.text$_ZNSt3_V26rotateIN9__gnu_cxx17__normal_iteratorIPcNSt7__cxx1112basic_stringIcSt11char_traitsIcESaIcEEEEEEET_SB_SB_SB_,"x"
	.linkonce discard
	.globl	__ZNSt3_V26rotateIN9__gnu_cxx17__normal_iteratorIPcNSt7__cxx1112basic_stringIcSt11char_traitsIcESaIcEEEEEEET_SB_SB_SB_
	.def	__ZNSt3_V26rotateIN9__gnu_cxx17__normal_iteratorIPcNSt7__cxx1112basic_stringIcSt11char_traitsIcESaIcEEEEEEET_SB_SB_SB_;	.scl	2;	.type	32;	.endef
__ZNSt3_V26rotateIN9__gnu_cxx17__normal_iteratorIPcNSt7__cxx1112basic_stringIcSt11char_traitsIcESaIcEEEEEEET_SB_SB_SB_:
LFB3131:
	.cfi_startproc
	push	ebp
	.cfi_def_cfa_offset 8
	.cfi_offset 5, -8
	mov	ebp, esp
	.cfi_def_cfa_register 5
	push	ebx
	sub	esp, 36
	.cfi_offset 3, -12
	lea	eax, [ebp+8]
	mov	DWORD PTR [esp], eax
	call	__ZSt19__iterator_categoryIN9__gnu_cxx17__normal_iteratorIPcNSt7__cxx1112basic_stringIcSt11char_traitsIcESaIcEEEEEENSt15iterator_traitsIT_E17iterator_categoryERKSB_
	mov	BYTE PTR [esp+12], bl
	mov	eax, DWORD PTR [ebp+16]
	mov	DWORD PTR [esp+8], eax
	mov	eax, DWORD PTR [ebp+12]
	mov	DWORD PTR [esp+4], eax
	mov	eax, DWORD PTR [ebp+8]
	mov	DWORD PTR [esp], eax
	call	__ZNSt3_V28__rotateIN9__gnu_cxx17__normal_iteratorIPcNSt7__cxx1112basic_stringIcSt11char_traitsIcESaIcEEEEEEET_SB_SB_SB_St26random_access_iterator_tag
	add	esp, 36
	pop	ebx
	.cfi_restore 3
	pop	ebp
	.cfi_restore 5
	.cfi_def_cfa 4, 4
	ret
	.cfi_endproc
LFE3131:
	.section	.text$_ZStplIcSt11char_traitsIcESaIcEENSt7__cxx1112basic_stringIT_T0_T1_EERKS8_SA_,"x"
	.linkonce discard
	.globl	__ZStplIcSt11char_traitsIcESaIcEENSt7__cxx1112basic_stringIT_T0_T1_EERKS8_SA_
	.def	__ZStplIcSt11char_traitsIcESaIcEENSt7__cxx1112basic_stringIT_T0_T1_EERKS8_SA_;	.scl	2;	.type	32;	.endef
__ZStplIcSt11char_traitsIcESaIcEENSt7__cxx1112basic_stringIT_T0_T1_EERKS8_SA_:
LFB3133:
	.cfi_startproc
	.cfi_personality 0,___gxx_personality_v0
	.cfi_lsda 0,LLSDA3133
	push	ebp
	.cfi_def_cfa_offset 8
	.cfi_offset 5, -8
	mov	ebp, esp
	.cfi_def_cfa_register 5
	push	ebx
	sub	esp, 20
	.cfi_offset 3, -12
	mov	eax, DWORD PTR [ebp+12]
	mov	DWORD PTR [esp], eax
	mov	ecx, DWORD PTR [ebp+8]
LEHB29:
	call	__ZNSt7__cxx1112basic_stringIcSt11char_traitsIcESaIcEEC1ERKS4_
LEHE29:
	sub	esp, 4
	mov	eax, DWORD PTR [ebp+16]
	mov	DWORD PTR [esp], eax
	mov	ecx, DWORD PTR [ebp+8]
LEHB30:
	call	__ZNSt7__cxx1112basic_stringIcSt11char_traitsIcESaIcEE6appendERKS4_
LEHE30:
	sub	esp, 4
	jmp	L230
L229:
	mov	ebx, eax
	mov	ecx, DWORD PTR [ebp+8]
	call	__ZNSt7__cxx1112basic_stringIcSt11char_traitsIcESaIcEED1Ev
	mov	eax, ebx
	mov	DWORD PTR [esp], eax
LEHB31:
	call	__Unwind_Resume
LEHE31:
L230:
	mov	eax, DWORD PTR [ebp+8]
	mov	ebx, DWORD PTR [ebp-4]
	leave
	.cfi_restore 5
	.cfi_restore 3
	.cfi_def_cfa 4, 4
	ret
	.cfi_endproc
LFE3133:
	.section	.gcc_except_table,"w"
LLSDA3133:
	.byte	0xff
	.byte	0xff
	.byte	0x1
	.uleb128 LLSDACSE3133-LLSDACSB3133
LLSDACSB3133:
	.uleb128 LEHB29-LFB3133
	.uleb128 LEHE29-LEHB29
	.uleb128 0
	.uleb128 0
	.uleb128 LEHB30-LFB3133
	.uleb128 LEHE30-LEHB30
	.uleb128 L229-LFB3133
	.uleb128 0
	.uleb128 LEHB31-LFB3133
	.uleb128 LEHE31-LEHB31
	.uleb128 0
	.uleb128 0
LLSDACSE3133:
	.section	.text$_ZStplIcSt11char_traitsIcESaIcEENSt7__cxx1112basic_stringIT_T0_T1_EERKS8_SA_,"x"
	.linkonce discard
	.section	.text$_ZNKSt6bitsetILj4EE9to_stringB5cxx11Ev,"x"
	.linkonce discard
	.align 2
	.globl	__ZNKSt6bitsetILj4EE9to_stringB5cxx11Ev
	.def	__ZNKSt6bitsetILj4EE9to_stringB5cxx11Ev;	.scl	2;	.type	32;	.endef
__ZNKSt6bitsetILj4EE9to_stringB5cxx11Ev:
LFB3135:
	.cfi_startproc
	push	ebp
	.cfi_def_cfa_offset 8
	.cfi_offset 5, -8
	mov	ebp, esp
	.cfi_def_cfa_register 5
	sub	esp, 40
	mov	DWORD PTR [ebp-12], ecx
	mov	eax, DWORD PTR [ebp-12]
	mov	edx, DWORD PTR [ebp+8]
	mov	DWORD PTR [esp], edx
	mov	ecx, eax
	call	__ZNKSt6bitsetILj4EE9to_stringIcSt11char_traitsIcESaIcEEENSt7__cxx1112basic_stringIT_T0_T1_EEv
	sub	esp, 4
	mov	eax, DWORD PTR [ebp-12]
	leave
	.cfi_restore 5
	.cfi_def_cfa 4, 4
	ret	4
	.cfi_endproc
LFE3135:
	.section	.text$_ZNKSt5arrayIiLj32EE5beginEv,"x"
	.linkonce discard
	.align 2
	.globl	__ZNKSt5arrayIiLj32EE5beginEv
	.def	__ZNKSt5arrayIiLj32EE5beginEv;	.scl	2;	.type	32;	.endef
__ZNKSt5arrayIiLj32EE5beginEv:
LFB3137:
	.cfi_startproc
	push	ebp
	.cfi_def_cfa_offset 8
	.cfi_offset 5, -8
	mov	ebp, esp
	.cfi_def_cfa_register 5
	sub	esp, 24
	mov	DWORD PTR [ebp-12], ecx
	mov	eax, DWORD PTR [ebp-12]
	mov	ecx, eax
	call	__ZNKSt5arrayIiLj32EE4dataEv
	leave
	.cfi_restore 5
	.cfi_def_cfa 4, 4
	ret
	.cfi_endproc
LFE3137:
	.section	.text$_ZNKSt5arrayIiLj32EE3endEv,"x"
	.linkonce discard
	.align 2
	.globl	__ZNKSt5arrayIiLj32EE3endEv
	.def	__ZNKSt5arrayIiLj32EE3endEv;	.scl	2;	.type	32;	.endef
__ZNKSt5arrayIiLj32EE3endEv:
LFB3138:
	.cfi_startproc
	push	ebp
	.cfi_def_cfa_offset 8
	.cfi_offset 5, -8
	mov	ebp, esp
	.cfi_def_cfa_register 5
	sub	esp, 24
	mov	DWORD PTR [ebp-12], ecx
	mov	eax, DWORD PTR [ebp-12]
	mov	ecx, eax
	call	__ZNKSt5arrayIiLj32EE4dataEv
	sub	eax, -128
	leave
	.cfi_restore 5
	.cfi_def_cfa 4, 4
	ret
	.cfi_endproc
LFE3138:
	.section	.text$_ZNSt6bitsetILj32EE3setEjb,"x"
	.linkonce discard
	.align 2
	.globl	__ZNSt6bitsetILj32EE3setEjb
	.def	__ZNSt6bitsetILj32EE3setEjb;	.scl	2;	.type	32;	.endef
__ZNSt6bitsetILj32EE3setEjb:
LFB3139:
	.cfi_startproc
	push	ebp
	.cfi_def_cfa_offset 8
	.cfi_offset 5, -8
	mov	ebp, esp
	.cfi_def_cfa_register 5
	sub	esp, 40
	mov	DWORD PTR [ebp-12], ecx
	mov	eax, DWORD PTR [ebp+12]
	mov	BYTE PTR [ebp-16], al
	mov	eax, DWORD PTR [ebp-12]
	mov	DWORD PTR [esp+4], OFFSET FLAT:LC43
	mov	edx, DWORD PTR [ebp+8]
	mov	DWORD PTR [esp], edx
	mov	ecx, eax
	call	__ZNKSt6bitsetILj32EE8_M_checkEjPKc
	sub	esp, 8
	movzx	edx, BYTE PTR [ebp-16]
	mov	eax, DWORD PTR [ebp-12]
	mov	DWORD PTR [esp+4], edx
	mov	edx, DWORD PTR [ebp+8]
	mov	DWORD PTR [esp], edx
	mov	ecx, eax
	call	__ZNSt6bitsetILj32EE14_Unchecked_setEji
	sub	esp, 8
	leave
	.cfi_restore 5
	.cfi_def_cfa 4, 4
	ret	8
	.cfi_endproc
LFE3139:
	.section	.text$_ZNKSt5arrayIiLj56EE5beginEv,"x"
	.linkonce discard
	.align 2
	.globl	__ZNKSt5arrayIiLj56EE5beginEv
	.def	__ZNKSt5arrayIiLj56EE5beginEv;	.scl	2;	.type	32;	.endef
__ZNKSt5arrayIiLj56EE5beginEv:
LFB3140:
	.cfi_startproc
	push	ebp
	.cfi_def_cfa_offset 8
	.cfi_offset 5, -8
	mov	ebp, esp
	.cfi_def_cfa_register 5
	sub	esp, 24
	mov	DWORD PTR [ebp-12], ecx
	mov	eax, DWORD PTR [ebp-12]
	mov	ecx, eax
	call	__ZNKSt5arrayIiLj56EE4dataEv
	leave
	.cfi_restore 5
	.cfi_def_cfa 4, 4
	ret
	.cfi_endproc
LFE3140:
	.section	.text$_ZNKSt5arrayIiLj56EE3endEv,"x"
	.linkonce discard
	.align 2
	.globl	__ZNKSt5arrayIiLj56EE3endEv
	.def	__ZNKSt5arrayIiLj56EE3endEv;	.scl	2;	.type	32;	.endef
__ZNKSt5arrayIiLj56EE3endEv:
LFB3141:
	.cfi_startproc
	push	ebp
	.cfi_def_cfa_offset 8
	.cfi_offset 5, -8
	mov	ebp, esp
	.cfi_def_cfa_register 5
	sub	esp, 24
	mov	DWORD PTR [ebp-12], ecx
	mov	eax, DWORD PTR [ebp-12]
	mov	ecx, eax
	call	__ZNKSt5arrayIiLj56EE4dataEv
	add	eax, 224
	leave
	.cfi_restore 5
	.cfi_def_cfa 4, 4
	ret
	.cfi_endproc
LFE3141:
	.section	.text$_ZNSt6bitsetILj56EE3setEjb,"x"
	.linkonce discard
	.align 2
	.globl	__ZNSt6bitsetILj56EE3setEjb
	.def	__ZNSt6bitsetILj56EE3setEjb;	.scl	2;	.type	32;	.endef
__ZNSt6bitsetILj56EE3setEjb:
LFB3142:
	.cfi_startproc
	push	ebp
	.cfi_def_cfa_offset 8
	.cfi_offset 5, -8
	mov	ebp, esp
	.cfi_def_cfa_register 5
	sub	esp, 40
	mov	DWORD PTR [ebp-12], ecx
	mov	eax, DWORD PTR [ebp+12]
	mov	BYTE PTR [ebp-16], al
	mov	eax, DWORD PTR [ebp-12]
	mov	DWORD PTR [esp+4], OFFSET FLAT:LC43
	mov	edx, DWORD PTR [ebp+8]
	mov	DWORD PTR [esp], edx
	mov	ecx, eax
	call	__ZNKSt6bitsetILj56EE8_M_checkEjPKc
	sub	esp, 8
	movzx	edx, BYTE PTR [ebp-16]
	mov	eax, DWORD PTR [ebp-12]
	mov	DWORD PTR [esp+4], edx
	mov	edx, DWORD PTR [ebp+8]
	mov	DWORD PTR [esp], edx
	mov	ecx, eax
	call	__ZNSt6bitsetILj56EE14_Unchecked_setEji
	sub	esp, 8
	leave
	.cfi_restore 5
	.cfi_def_cfa 4, 4
	ret	8
	.cfi_endproc
LFE3142:
	.section	.text$_ZNKSt6bitsetILj56EE9to_stringB5cxx11Ev,"x"
	.linkonce discard
	.align 2
	.globl	__ZNKSt6bitsetILj56EE9to_stringB5cxx11Ev
	.def	__ZNKSt6bitsetILj56EE9to_stringB5cxx11Ev;	.scl	2;	.type	32;	.endef
__ZNKSt6bitsetILj56EE9to_stringB5cxx11Ev:
LFB3143:
	.cfi_startproc
	push	ebp
	.cfi_def_cfa_offset 8
	.cfi_offset 5, -8
	mov	ebp, esp
	.cfi_def_cfa_register 5
	sub	esp, 40
	mov	DWORD PTR [ebp-12], ecx
	mov	eax, DWORD PTR [ebp-12]
	mov	edx, DWORD PTR [ebp+8]
	mov	DWORD PTR [esp], edx
	mov	ecx, eax
	call	__ZNKSt6bitsetILj56EE9to_stringIcSt11char_traitsIcESaIcEEENSt7__cxx1112basic_stringIT_T0_T1_EEv
	sub	esp, 4
	mov	eax, DWORD PTR [ebp-12]
	leave
	.cfi_restore 5
	.cfi_def_cfa 4, 4
	ret	4
	.cfi_endproc
LFE3143:
	.section	.text$_ZNKSt5arrayIiLj48EE5beginEv,"x"
	.linkonce discard
	.align 2
	.globl	__ZNKSt5arrayIiLj48EE5beginEv
	.def	__ZNKSt5arrayIiLj48EE5beginEv;	.scl	2;	.type	32;	.endef
__ZNKSt5arrayIiLj48EE5beginEv:
LFB3144:
	.cfi_startproc
	push	ebp
	.cfi_def_cfa_offset 8
	.cfi_offset 5, -8
	mov	ebp, esp
	.cfi_def_cfa_register 5
	sub	esp, 24
	mov	DWORD PTR [ebp-12], ecx
	mov	eax, DWORD PTR [ebp-12]
	mov	ecx, eax
	call	__ZNKSt5arrayIiLj48EE4dataEv
	leave
	.cfi_restore 5
	.cfi_def_cfa 4, 4
	ret
	.cfi_endproc
LFE3144:
	.section	.text$_ZNKSt5arrayIiLj48EE3endEv,"x"
	.linkonce discard
	.align 2
	.globl	__ZNKSt5arrayIiLj48EE3endEv
	.def	__ZNKSt5arrayIiLj48EE3endEv;	.scl	2;	.type	32;	.endef
__ZNKSt5arrayIiLj48EE3endEv:
LFB3145:
	.cfi_startproc
	push	ebp
	.cfi_def_cfa_offset 8
	.cfi_offset 5, -8
	mov	ebp, esp
	.cfi_def_cfa_register 5
	sub	esp, 24
	mov	DWORD PTR [ebp-12], ecx
	mov	eax, DWORD PTR [ebp-12]
	mov	ecx, eax
	call	__ZNKSt5arrayIiLj48EE4dataEv
	add	eax, 192
	leave
	.cfi_restore 5
	.cfi_def_cfa 4, 4
	ret
	.cfi_endproc
LFE3145:
	.section	.text$_ZNSt6bitsetILj48EE3setEjb,"x"
	.linkonce discard
	.align 2
	.globl	__ZNSt6bitsetILj48EE3setEjb
	.def	__ZNSt6bitsetILj48EE3setEjb;	.scl	2;	.type	32;	.endef
__ZNSt6bitsetILj48EE3setEjb:
LFB3146:
	.cfi_startproc
	push	ebp
	.cfi_def_cfa_offset 8
	.cfi_offset 5, -8
	mov	ebp, esp
	.cfi_def_cfa_register 5
	sub	esp, 40
	mov	DWORD PTR [ebp-12], ecx
	mov	eax, DWORD PTR [ebp+12]
	mov	BYTE PTR [ebp-16], al
	mov	eax, DWORD PTR [ebp-12]
	mov	DWORD PTR [esp+4], OFFSET FLAT:LC43
	mov	edx, DWORD PTR [ebp+8]
	mov	DWORD PTR [esp], edx
	mov	ecx, eax
	call	__ZNKSt6bitsetILj48EE8_M_checkEjPKc
	sub	esp, 8
	movzx	edx, BYTE PTR [ebp-16]
	mov	eax, DWORD PTR [ebp-12]
	mov	DWORD PTR [esp+4], edx
	mov	edx, DWORD PTR [ebp+8]
	mov	DWORD PTR [esp], edx
	mov	ecx, eax
	call	__ZNSt6bitsetILj48EE14_Unchecked_setEji
	sub	esp, 8
	leave
	.cfi_restore 5
	.cfi_def_cfa 4, 4
	ret	8
	.cfi_endproc
LFE3146:
	.section	.text$_ZN9__gnu_cxx17__normal_iteratorIPKcNSt7__cxx1112basic_stringIcSt11char_traitsIcESaIcEEEEppEv,"x"
	.linkonce discard
	.align 2
	.globl	__ZN9__gnu_cxx17__normal_iteratorIPKcNSt7__cxx1112basic_stringIcSt11char_traitsIcESaIcEEEEppEv
	.def	__ZN9__gnu_cxx17__normal_iteratorIPKcNSt7__cxx1112basic_stringIcSt11char_traitsIcESaIcEEEEppEv;	.scl	2;	.type	32;	.endef
__ZN9__gnu_cxx17__normal_iteratorIPKcNSt7__cxx1112basic_stringIcSt11char_traitsIcESaIcEEEEppEv:
LFB3148:
	.cfi_startproc
	push	ebp
	.cfi_def_cfa_offset 8
	.cfi_offset 5, -8
	mov	ebp, esp
	.cfi_def_cfa_register 5
	sub	esp, 4
	mov	DWORD PTR [ebp-4], ecx
	mov	eax, DWORD PTR [ebp-4]
	mov	eax, DWORD PTR [eax]
	lea	edx, [eax+1]
	mov	eax, DWORD PTR [ebp-4]
	mov	DWORD PTR [eax], edx
	mov	eax, DWORD PTR [ebp-4]
	leave
	.cfi_restore 5
	.cfi_def_cfa 4, 4
	ret
	.cfi_endproc
LFE3148:
	.section	.text$_ZNSt8iteratorISt26random_access_iterator_tagciPKcRS1_EC2Ev,"x"
	.linkonce discard
	.align 2
	.globl	__ZNSt8iteratorISt26random_access_iterator_tagciPKcRS1_EC2Ev
	.def	__ZNSt8iteratorISt26random_access_iterator_tagciPKcRS1_EC2Ev;	.scl	2;	.type	32;	.endef
__ZNSt8iteratorISt26random_access_iterator_tagciPKcRS1_EC2Ev:
LFB3152:
	.cfi_startproc
	push	ebp
	.cfi_def_cfa_offset 8
	.cfi_offset 5, -8
	mov	ebp, esp
	.cfi_def_cfa_register 5
	sub	esp, 4
	mov	DWORD PTR [ebp-4], ecx
	nop
	leave
	.cfi_restore 5
	.cfi_def_cfa 4, 4
	ret
	.cfi_endproc
LFE3152:
	.section	.text$_ZNSt16reverse_iteratorIN9__gnu_cxx17__normal_iteratorIPKcNSt7__cxx1112basic_stringIcSt11char_traitsIcESaIcEEEEEEC1ERKSB_,"x"
	.linkonce discard
	.align 2
	.globl	__ZNSt16reverse_iteratorIN9__gnu_cxx17__normal_iteratorIPKcNSt7__cxx1112basic_stringIcSt11char_traitsIcESaIcEEEEEEC1ERKSB_
	.def	__ZNSt16reverse_iteratorIN9__gnu_cxx17__normal_iteratorIPKcNSt7__cxx1112basic_stringIcSt11char_traitsIcESaIcEEEEEEC1ERKSB_;	.scl	2;	.type	32;	.endef
__ZNSt16reverse_iteratorIN9__gnu_cxx17__normal_iteratorIPKcNSt7__cxx1112basic_stringIcSt11char_traitsIcESaIcEEEEEEC1ERKSB_:
LFB3155:
	.cfi_startproc
	push	ebp
	.cfi_def_cfa_offset 8
	.cfi_offset 5, -8
	mov	ebp, esp
	.cfi_def_cfa_register 5
	sub	esp, 24
	mov	DWORD PTR [ebp-12], ecx
	mov	eax, DWORD PTR [ebp-12]
	mov	ecx, eax
	call	__ZNSt8iteratorISt26random_access_iterator_tagciPKcRS1_EC2Ev
	mov	eax, DWORD PTR [ebp-12]
	mov	edx, DWORD PTR [ebp+8]
	mov	edx, DWORD PTR [edx]
	mov	DWORD PTR [eax], edx
	nop
	leave
	.cfi_restore 5
	.cfi_def_cfa 4, 4
	ret	4
	.cfi_endproc
LFE3155:
	.section	.text$_ZStltIN9__gnu_cxx17__normal_iteratorIPKcNSt7__cxx1112basic_stringIcSt11char_traitsIcESaIcEEEEEEbRKSt16reverse_iteratorIT_ESF_,"x"
	.linkonce discard
	.globl	__ZStltIN9__gnu_cxx17__normal_iteratorIPKcNSt7__cxx1112basic_stringIcSt11char_traitsIcESaIcEEEEEEbRKSt16reverse_iteratorIT_ESF_
	.def	__ZStltIN9__gnu_cxx17__normal_iteratorIPKcNSt7__cxx1112basic_stringIcSt11char_traitsIcESaIcEEEEEEbRKSt16reverse_iteratorIT_ESF_;	.scl	2;	.type	32;	.endef
__ZStltIN9__gnu_cxx17__normal_iteratorIPKcNSt7__cxx1112basic_stringIcSt11char_traitsIcESaIcEEEEEEbRKSt16reverse_iteratorIT_ESF_:
LFB3157:
	.cfi_startproc
	push	ebp
	.cfi_def_cfa_offset 8
	.cfi_offset 5, -8
	mov	ebp, esp
	.cfi_def_cfa_register 5
	sub	esp, 40
	mov	ecx, DWORD PTR [ebp+8]
	call	__ZNKSt16reverse_iteratorIN9__gnu_cxx17__normal_iteratorIPKcNSt7__cxx1112basic_stringIcSt11char_traitsIcESaIcEEEEEE4baseEv
	mov	DWORD PTR [ebp-16], eax
	mov	eax, DWORD PTR [ebp+12]
	mov	ecx, eax
	call	__ZNKSt16reverse_iteratorIN9__gnu_cxx17__normal_iteratorIPKcNSt7__cxx1112basic_stringIcSt11char_traitsIcESaIcEEEEEE4baseEv
	mov	DWORD PTR [ebp-12], eax
	lea	eax, [ebp-16]
	mov	DWORD PTR [esp+4], eax
	lea	eax, [ebp-12]
	mov	DWORD PTR [esp], eax
	call	__ZN9__gnu_cxxltIPKcNSt7__cxx1112basic_stringIcSt11char_traitsIcESaIcEEEEEbRKNS_17__normal_iteratorIT_T0_EESE_
	leave
	.cfi_restore 5
	.cfi_def_cfa 4, 4
	ret
	.cfi_endproc
LFE3157:
	.section	.text$_ZNSt16reverse_iteratorIN9__gnu_cxx17__normal_iteratorIPKcNSt7__cxx1112basic_stringIcSt11char_traitsIcESaIcEEEEEEppEi,"x"
	.linkonce discard
	.align 2
	.globl	__ZNSt16reverse_iteratorIN9__gnu_cxx17__normal_iteratorIPKcNSt7__cxx1112basic_stringIcSt11char_traitsIcESaIcEEEEEEppEi
	.def	__ZNSt16reverse_iteratorIN9__gnu_cxx17__normal_iteratorIPKcNSt7__cxx1112basic_stringIcSt11char_traitsIcESaIcEEEEEEppEi;	.scl	2;	.type	32;	.endef
__ZNSt16reverse_iteratorIN9__gnu_cxx17__normal_iteratorIPKcNSt7__cxx1112basic_stringIcSt11char_traitsIcESaIcEEEEEEppEi:
LFB3158:
	.cfi_startproc
	push	ebp
	.cfi_def_cfa_offset 8
	.cfi_offset 5, -8
	mov	ebp, esp
	.cfi_def_cfa_register 5
	sub	esp, 40
	mov	DWORD PTR [ebp-12], ecx
	mov	eax, DWORD PTR [ebp-12]
	mov	edx, DWORD PTR [ebp+8]
	mov	DWORD PTR [esp], edx
	mov	ecx, eax
	call	__ZNSt16reverse_iteratorIN9__gnu_cxx17__normal_iteratorIPKcNSt7__cxx1112basic_stringIcSt11char_traitsIcESaIcEEEEEEC1ERKSB_
	sub	esp, 4
	mov	eax, DWORD PTR [ebp+8]
	mov	ecx, eax
	call	__ZN9__gnu_cxx17__normal_iteratorIPKcNSt7__cxx1112basic_stringIcSt11char_traitsIcESaIcEEEEmmEv
	nop
	mov	eax, DWORD PTR [ebp-12]
	leave
	.cfi_restore 5
	.cfi_def_cfa 4, 4
	ret	8
	.cfi_endproc
LFE3158:
	.section	.text$_ZNKSt16reverse_iteratorIN9__gnu_cxx17__normal_iteratorIPKcNSt7__cxx1112basic_stringIcSt11char_traitsIcESaIcEEEEEEdeEv,"x"
	.linkonce discard
	.align 2
	.globl	__ZNKSt16reverse_iteratorIN9__gnu_cxx17__normal_iteratorIPKcNSt7__cxx1112basic_stringIcSt11char_traitsIcESaIcEEEEEEdeEv
	.def	__ZNKSt16reverse_iteratorIN9__gnu_cxx17__normal_iteratorIPKcNSt7__cxx1112basic_stringIcSt11char_traitsIcESaIcEEEEEEdeEv;	.scl	2;	.type	32;	.endef
__ZNKSt16reverse_iteratorIN9__gnu_cxx17__normal_iteratorIPKcNSt7__cxx1112basic_stringIcSt11char_traitsIcESaIcEEEEEEdeEv:
LFB3159:
	.cfi_startproc
	push	ebp
	.cfi_def_cfa_offset 8
	.cfi_offset 5, -8
	mov	ebp, esp
	.cfi_def_cfa_register 5
	sub	esp, 40
	mov	DWORD PTR [ebp-28], ecx
	mov	eax, DWORD PTR [ebp-28]
	mov	eax, DWORD PTR [eax]
	mov	DWORD PTR [ebp-12], eax
	lea	eax, [ebp-12]
	mov	ecx, eax
	call	__ZN9__gnu_cxx17__normal_iteratorIPKcNSt7__cxx1112basic_stringIcSt11char_traitsIcESaIcEEEEmmEv
	mov	ecx, eax
	call	__ZNK9__gnu_cxx17__normal_iteratorIPKcNSt7__cxx1112basic_stringIcSt11char_traitsIcESaIcEEEEdeEv
	leave
	.cfi_restore 5
	.cfi_def_cfa 4, 4
	ret
	.cfi_endproc
LFE3159:
	.section	.text$_ZSt8distanceISt16reverse_iteratorIN9__gnu_cxx17__normal_iteratorIPKcNSt7__cxx1112basic_stringIcSt11char_traitsIcESaIcEEEEEEENSt15iterator_traitsIT_E15difference_typeESE_SE_,"x"
	.linkonce discard
	.globl	__ZSt8distanceISt16reverse_iteratorIN9__gnu_cxx17__normal_iteratorIPKcNSt7__cxx1112basic_stringIcSt11char_traitsIcESaIcEEEEEEENSt15iterator_traitsIT_E15difference_typeESE_SE_
	.def	__ZSt8distanceISt16reverse_iteratorIN9__gnu_cxx17__normal_iteratorIPKcNSt7__cxx1112basic_stringIcSt11char_traitsIcESaIcEEEEEEENSt15iterator_traitsIT_E15difference_typeESE_SE_;	.scl	2;	.type	32;	.endef
__ZSt8distanceISt16reverse_iteratorIN9__gnu_cxx17__normal_iteratorIPKcNSt7__cxx1112basic_stringIcSt11char_traitsIcESaIcEEEEEEENSt15iterator_traitsIT_E15difference_typeESE_SE_:
LFB3160:
	.cfi_startproc
	push	ebp
	.cfi_def_cfa_offset 8
	.cfi_offset 5, -8
	mov	ebp, esp
	.cfi_def_cfa_register 5
	push	ebx
	sub	esp, 36
	.cfi_offset 3, -12
	mov	eax, DWORD PTR [ebp+8]
	mov	DWORD PTR [esp], eax
	call	__ZSt19__iterator_categoryISt16reverse_iteratorIN9__gnu_cxx17__normal_iteratorIPKcNSt7__cxx1112basic_stringIcSt11char_traitsIcESaIcEEEEEEENSt15iterator_traitsIT_E17iterator_categoryERKSE_
	lea	eax, [ebp-16]
	mov	edx, DWORD PTR [ebp+12]
	mov	DWORD PTR [esp], edx
	mov	ecx, eax
	call	__ZNSt16reverse_iteratorIN9__gnu_cxx17__normal_iteratorIPKcNSt7__cxx1112basic_stringIcSt11char_traitsIcESaIcEEEEEEC1ERKSB_
	sub	esp, 4
	lea	eax, [ebp-12]
	mov	edx, DWORD PTR [ebp+8]
	mov	DWORD PTR [esp], edx
	mov	ecx, eax
	call	__ZNSt16reverse_iteratorIN9__gnu_cxx17__normal_iteratorIPKcNSt7__cxx1112basic_stringIcSt11char_traitsIcESaIcEEEEEEC1ERKSB_
	sub	esp, 4
	mov	BYTE PTR [esp+8], bl
	lea	eax, [ebp-16]
	mov	DWORD PTR [esp+4], eax
	lea	eax, [ebp-12]
	mov	DWORD PTR [esp], eax
	call	__ZSt10__distanceISt16reverse_iteratorIN9__gnu_cxx17__normal_iteratorIPKcNSt7__cxx1112basic_stringIcSt11char_traitsIcESaIcEEEEEEENSt15iterator_traitsIT_E15difference_typeESE_SE_St26random_access_iterator_tag
	mov	ebx, DWORD PTR [ebp-4]
	leave
	.cfi_restore 5
	.cfi_restore 3
	.cfi_def_cfa 4, 4
	ret
	.cfi_endproc
LFE3160:
	.section .rdata,"dr"
	.align 4
LC44:
	.ascii "bitset::bitset: __position (which is %zu) > __s.size() (which is %zu)\0"
	.section	.text$_ZNKSt6bitsetILj48EE25_M_check_initial_positionIcSt11char_traitsIcESaIcEEEvRKNSt7__cxx1112basic_stringIT_T0_T1_EEj,"x"
	.linkonce discard
	.align 2
	.globl	__ZNKSt6bitsetILj48EE25_M_check_initial_positionIcSt11char_traitsIcESaIcEEEvRKNSt7__cxx1112basic_stringIT_T0_T1_EEj
	.def	__ZNKSt6bitsetILj48EE25_M_check_initial_positionIcSt11char_traitsIcESaIcEEEvRKNSt7__cxx1112basic_stringIT_T0_T1_EEj;	.scl	2;	.type	32;	.endef
__ZNKSt6bitsetILj48EE25_M_check_initial_positionIcSt11char_traitsIcESaIcEEEvRKNSt7__cxx1112basic_stringIT_T0_T1_EEj:
LFB3254:
	.cfi_startproc
	push	ebp
	.cfi_def_cfa_offset 8
	.cfi_offset 5, -8
	mov	ebp, esp
	.cfi_def_cfa_register 5
	sub	esp, 40
	mov	DWORD PTR [ebp-12], ecx
	mov	ecx, DWORD PTR [ebp+8]
	call	__ZNKSt7__cxx1112basic_stringIcSt11char_traitsIcESaIcEE4sizeEv
	cmp	eax, DWORD PTR [ebp+12]
	setb	al
	test	al, al
	je	L267
	mov	ecx, DWORD PTR [ebp+8]
	call	__ZNKSt7__cxx1112basic_stringIcSt11char_traitsIcESaIcEE4sizeEv
	mov	DWORD PTR [esp+8], eax
	mov	eax, DWORD PTR [ebp+12]
	mov	DWORD PTR [esp+4], eax
	mov	DWORD PTR [esp], OFFSET FLAT:LC44
	call	__ZSt24__throw_out_of_range_fmtPKcz
L267:
	nop
	leave
	.cfi_restore 5
	.cfi_def_cfa 4, 4
	ret	8
	.cfi_endproc
LFE3254:
	.section	.text$_ZNSt6bitsetILj48EE19_M_copy_from_stringIcSt11char_traitsIcESaIcEEEvRKNSt7__cxx1112basic_stringIT_T0_T1_EEjjS7_S7_,"x"
	.linkonce discard
	.align 2
	.globl	__ZNSt6bitsetILj48EE19_M_copy_from_stringIcSt11char_traitsIcESaIcEEEvRKNSt7__cxx1112basic_stringIT_T0_T1_EEjjS7_S7_
	.def	__ZNSt6bitsetILj48EE19_M_copy_from_stringIcSt11char_traitsIcESaIcEEEvRKNSt7__cxx1112basic_stringIT_T0_T1_EEjjS7_S7_;	.scl	2;	.type	32;	.endef
__ZNSt6bitsetILj48EE19_M_copy_from_stringIcSt11char_traitsIcESaIcEEEvRKNSt7__cxx1112basic_stringIT_T0_T1_EEjjS7_S7_:
LFB3255:
	.cfi_startproc
	push	ebp
	.cfi_def_cfa_offset 8
	.cfi_offset 5, -8
	mov	ebp, esp
	.cfi_def_cfa_register 5
	push	edi
	push	esi
	push	ebx
	sub	esp, 60
	.cfi_offset 7, -12
	.cfi_offset 6, -16
	.cfi_offset 3, -20
	mov	DWORD PTR [ebp-28], ecx
	mov	edx, DWORD PTR [ebp+20]
	mov	eax, DWORD PTR [ebp+24]
	mov	BYTE PTR [ebp-32], dl
	mov	BYTE PTR [ebp-36], al
	movsx	esi, BYTE PTR [ebp-36]
	movsx	ebx, BYTE PTR [ebp-32]
	mov	ecx, DWORD PTR [ebp+8]
	call	__ZNKSt7__cxx1112basic_stringIcSt11char_traitsIcESaIcEE4sizeEv
	mov	edi, eax
	mov	ecx, DWORD PTR [ebp+8]
	call	__ZNKSt7__cxx1112basic_stringIcSt11char_traitsIcESaIcEE4dataEv
	mov	ecx, eax
	mov	eax, DWORD PTR [ebp-28]
	mov	DWORD PTR [esp+20], esi
	mov	DWORD PTR [esp+16], ebx
	mov	edx, DWORD PTR [ebp+16]
	mov	DWORD PTR [esp+12], edx
	mov	edx, DWORD PTR [ebp+12]
	mov	DWORD PTR [esp+8], edx
	mov	DWORD PTR [esp+4], edi
	mov	DWORD PTR [esp], ecx
	mov	ecx, eax
	call	__ZNSt6bitsetILj48EE16_M_copy_from_ptrIcSt11char_traitsIcEEEvPKT_jjjS4_S4_
	sub	esp, 24
	nop
	lea	esp, [ebp-12]
	pop	ebx
	.cfi_restore 3
	pop	esi
	.cfi_restore 6
	pop	edi
	.cfi_restore 7
	pop	ebp
	.cfi_restore 5
	.cfi_def_cfa 4, 4
	ret	20
	.cfi_endproc
LFE3255:
	.section	.text$_ZNSt6bitsetILj48EEeOERKS0_,"x"
	.linkonce discard
	.align 2
	.globl	__ZNSt6bitsetILj48EEeOERKS0_
	.def	__ZNSt6bitsetILj48EEeOERKS0_;	.scl	2;	.type	32;	.endef
__ZNSt6bitsetILj48EEeOERKS0_:
LFB3256:
	.cfi_startproc
	push	ebp
	.cfi_def_cfa_offset 8
	.cfi_offset 5, -8
	mov	ebp, esp
	.cfi_def_cfa_register 5
	sub	esp, 40
	mov	DWORD PTR [ebp-12], ecx
	mov	edx, DWORD PTR [ebp+8]
	mov	eax, DWORD PTR [ebp-12]
	mov	DWORD PTR [esp], edx
	mov	ecx, eax
	call	__ZNSt12_Base_bitsetILj2EE9_M_do_xorERKS0_
	sub	esp, 4
	mov	eax, DWORD PTR [ebp-12]
	leave
	.cfi_restore 5
	.cfi_def_cfa 4, 4
	ret	4
	.cfi_endproc
LFE3256:
	.section	.text$_ZNKSt6bitsetILj48EE9to_stringIcSt11char_traitsIcESaIcEEENSt7__cxx1112basic_stringIT_T0_T1_EEv,"x"
	.linkonce discard
	.align 2
	.globl	__ZNKSt6bitsetILj48EE9to_stringIcSt11char_traitsIcESaIcEEENSt7__cxx1112basic_stringIT_T0_T1_EEv
	.def	__ZNKSt6bitsetILj48EE9to_stringIcSt11char_traitsIcESaIcEEENSt7__cxx1112basic_stringIT_T0_T1_EEv;	.scl	2;	.type	32;	.endef
__ZNKSt6bitsetILj48EE9to_stringIcSt11char_traitsIcESaIcEEENSt7__cxx1112basic_stringIT_T0_T1_EEv:
LFB3257:
	.cfi_startproc
	.cfi_personality 0,___gxx_personality_v0
	.cfi_lsda 0,LLSDA3257
	push	ebp
	.cfi_def_cfa_offset 8
	.cfi_offset 5, -8
	mov	ebp, esp
	.cfi_def_cfa_register 5
	push	ebx
	sub	esp, 36
	.cfi_offset 3, -12
	mov	DWORD PTR [ebp-12], ecx
	mov	eax, DWORD PTR [ebp-12]
	mov	ecx, eax
	call	__ZNSt7__cxx1112basic_stringIcSt11char_traitsIcESaIcEEC1Ev
	mov	DWORD PTR [esp+8], 49
	mov	DWORD PTR [esp+4], 48
	mov	eax, DWORD PTR [ebp-12]
	mov	DWORD PTR [esp], eax
	mov	ecx, DWORD PTR [ebp+8]
LEHB32:
	call	__ZNKSt6bitsetILj48EE17_M_copy_to_stringIcSt11char_traitsIcESaIcEEEvRNSt7__cxx1112basic_stringIT_T0_T1_EES7_S7_
LEHE32:
	sub	esp, 12
	jmp	L275
L274:
	mov	ebx, eax
	mov	eax, DWORD PTR [ebp-12]
	mov	ecx, eax
	call	__ZNSt7__cxx1112basic_stringIcSt11char_traitsIcESaIcEED1Ev
	mov	eax, ebx
	mov	DWORD PTR [esp], eax
LEHB33:
	call	__Unwind_Resume
LEHE33:
L275:
	mov	eax, DWORD PTR [ebp-12]
	mov	ebx, DWORD PTR [ebp-4]
	leave
	.cfi_restore 5
	.cfi_restore 3
	.cfi_def_cfa 4, 4
	ret	4
	.cfi_endproc
LFE3257:
	.section	.gcc_except_table,"w"
LLSDA3257:
	.byte	0xff
	.byte	0xff
	.byte	0x1
	.uleb128 LLSDACSE3257-LLSDACSB3257
LLSDACSB3257:
	.uleb128 LEHB32-LFB3257
	.uleb128 LEHE32-LEHB32
	.uleb128 L274-LFB3257
	.uleb128 0
	.uleb128 LEHB33-LFB3257
	.uleb128 LEHE33-LEHB33
	.uleb128 0
	.uleb128 0
LLSDACSE3257:
	.section	.text$_ZNKSt6bitsetILj48EE9to_stringIcSt11char_traitsIcESaIcEEENSt7__cxx1112basic_stringIT_T0_T1_EEv,"x"
	.linkonce discard
	.section	.text$_ZNKSt6bitsetILj32EE25_M_check_initial_positionIcSt11char_traitsIcESaIcEEEvRKNSt7__cxx1112basic_stringIT_T0_T1_EEj,"x"
	.linkonce discard
	.align 2
	.globl	__ZNKSt6bitsetILj32EE25_M_check_initial_positionIcSt11char_traitsIcESaIcEEEvRKNSt7__cxx1112basic_stringIT_T0_T1_EEj
	.def	__ZNKSt6bitsetILj32EE25_M_check_initial_positionIcSt11char_traitsIcESaIcEEEvRKNSt7__cxx1112basic_stringIT_T0_T1_EEj;	.scl	2;	.type	32;	.endef
__ZNKSt6bitsetILj32EE25_M_check_initial_positionIcSt11char_traitsIcESaIcEEEvRKNSt7__cxx1112basic_stringIT_T0_T1_EEj:
LFB3260:
	.cfi_startproc
	push	ebp
	.cfi_def_cfa_offset 8
	.cfi_offset 5, -8
	mov	ebp, esp
	.cfi_def_cfa_register 5
	sub	esp, 40
	mov	DWORD PTR [ebp-12], ecx
	mov	ecx, DWORD PTR [ebp+8]
	call	__ZNKSt7__cxx1112basic_stringIcSt11char_traitsIcESaIcEE4sizeEv
	cmp	eax, DWORD PTR [ebp+12]
	setb	al
	test	al, al
	je	L278
	mov	ecx, DWORD PTR [ebp+8]
	call	__ZNKSt7__cxx1112basic_stringIcSt11char_traitsIcESaIcEE4sizeEv
	mov	DWORD PTR [esp+8], eax
	mov	eax, DWORD PTR [ebp+12]
	mov	DWORD PTR [esp+4], eax
	mov	DWORD PTR [esp], OFFSET FLAT:LC44
	call	__ZSt24__throw_out_of_range_fmtPKcz
L278:
	nop
	leave
	.cfi_restore 5
	.cfi_def_cfa 4, 4
	ret	8
	.cfi_endproc
LFE3260:
	.section	.text$_ZNSt6bitsetILj32EE19_M_copy_from_stringIcSt11char_traitsIcESaIcEEEvRKNSt7__cxx1112basic_stringIT_T0_T1_EEjjS7_S7_,"x"
	.linkonce discard
	.align 2
	.globl	__ZNSt6bitsetILj32EE19_M_copy_from_stringIcSt11char_traitsIcESaIcEEEvRKNSt7__cxx1112basic_stringIT_T0_T1_EEjjS7_S7_
	.def	__ZNSt6bitsetILj32EE19_M_copy_from_stringIcSt11char_traitsIcESaIcEEEvRKNSt7__cxx1112basic_stringIT_T0_T1_EEjjS7_S7_;	.scl	2;	.type	32;	.endef
__ZNSt6bitsetILj32EE19_M_copy_from_stringIcSt11char_traitsIcESaIcEEEvRKNSt7__cxx1112basic_stringIT_T0_T1_EEjjS7_S7_:
LFB3261:
	.cfi_startproc
	push	ebp
	.cfi_def_cfa_offset 8
	.cfi_offset 5, -8
	mov	ebp, esp
	.cfi_def_cfa_register 5
	push	edi
	push	esi
	push	ebx
	sub	esp, 60
	.cfi_offset 7, -12
	.cfi_offset 6, -16
	.cfi_offset 3, -20
	mov	DWORD PTR [ebp-28], ecx
	mov	edx, DWORD PTR [ebp+20]
	mov	eax, DWORD PTR [ebp+24]
	mov	BYTE PTR [ebp-32], dl
	mov	BYTE PTR [ebp-36], al
	movsx	esi, BYTE PTR [ebp-36]
	movsx	ebx, BYTE PTR [ebp-32]
	mov	ecx, DWORD PTR [ebp+8]
	call	__ZNKSt7__cxx1112basic_stringIcSt11char_traitsIcESaIcEE4sizeEv
	mov	edi, eax
	mov	ecx, DWORD PTR [ebp+8]
	call	__ZNKSt7__cxx1112basic_stringIcSt11char_traitsIcESaIcEE4dataEv
	mov	ecx, eax
	mov	eax, DWORD PTR [ebp-28]
	mov	DWORD PTR [esp+20], esi
	mov	DWORD PTR [esp+16], ebx
	mov	edx, DWORD PTR [ebp+16]
	mov	DWORD PTR [esp+12], edx
	mov	edx, DWORD PTR [ebp+12]
	mov	DWORD PTR [esp+8], edx
	mov	DWORD PTR [esp+4], edi
	mov	DWORD PTR [esp], ecx
	mov	ecx, eax
	call	__ZNSt6bitsetILj32EE16_M_copy_from_ptrIcSt11char_traitsIcEEEvPKT_jjjS4_S4_
	sub	esp, 24
	nop
	lea	esp, [ebp-12]
	pop	ebx
	.cfi_restore 3
	pop	esi
	.cfi_restore 6
	pop	edi
	.cfi_restore 7
	pop	ebp
	.cfi_restore 5
	.cfi_def_cfa 4, 4
	ret	20
	.cfi_endproc
LFE3261:
	.section	.text$_ZNSt6bitsetILj32EEeOERKS0_,"x"
	.linkonce discard
	.align 2
	.globl	__ZNSt6bitsetILj32EEeOERKS0_
	.def	__ZNSt6bitsetILj32EEeOERKS0_;	.scl	2;	.type	32;	.endef
__ZNSt6bitsetILj32EEeOERKS0_:
LFB3262:
	.cfi_startproc
	push	ebp
	.cfi_def_cfa_offset 8
	.cfi_offset 5, -8
	mov	ebp, esp
	.cfi_def_cfa_register 5
	sub	esp, 40
	mov	DWORD PTR [ebp-12], ecx
	mov	edx, DWORD PTR [ebp+8]
	mov	eax, DWORD PTR [ebp-12]
	mov	DWORD PTR [esp], edx
	mov	ecx, eax
	call	__ZNSt12_Base_bitsetILj1EE9_M_do_xorERKS0_
	sub	esp, 4
	mov	eax, DWORD PTR [ebp-12]
	leave
	.cfi_restore 5
	.cfi_def_cfa 4, 4
	ret	4
	.cfi_endproc
LFE3262:
	.section	.text$_ZNKSt6bitsetILj32EE9to_stringIcSt11char_traitsIcESaIcEEENSt7__cxx1112basic_stringIT_T0_T1_EEv,"x"
	.linkonce discard
	.align 2
	.globl	__ZNKSt6bitsetILj32EE9to_stringIcSt11char_traitsIcESaIcEEENSt7__cxx1112basic_stringIT_T0_T1_EEv
	.def	__ZNKSt6bitsetILj32EE9to_stringIcSt11char_traitsIcESaIcEEENSt7__cxx1112basic_stringIT_T0_T1_EEv;	.scl	2;	.type	32;	.endef
__ZNKSt6bitsetILj32EE9to_stringIcSt11char_traitsIcESaIcEEENSt7__cxx1112basic_stringIT_T0_T1_EEv:
LFB3263:
	.cfi_startproc
	.cfi_personality 0,___gxx_personality_v0
	.cfi_lsda 0,LLSDA3263
	push	ebp
	.cfi_def_cfa_offset 8
	.cfi_offset 5, -8
	mov	ebp, esp
	.cfi_def_cfa_register 5
	push	ebx
	sub	esp, 36
	.cfi_offset 3, -12
	mov	DWORD PTR [ebp-12], ecx
	mov	eax, DWORD PTR [ebp-12]
	mov	ecx, eax
	call	__ZNSt7__cxx1112basic_stringIcSt11char_traitsIcESaIcEEC1Ev
	mov	DWORD PTR [esp+8], 49
	mov	DWORD PTR [esp+4], 48
	mov	eax, DWORD PTR [ebp-12]
	mov	DWORD PTR [esp], eax
	mov	ecx, DWORD PTR [ebp+8]
LEHB34:
	call	__ZNKSt6bitsetILj32EE17_M_copy_to_stringIcSt11char_traitsIcESaIcEEEvRNSt7__cxx1112basic_stringIT_T0_T1_EES7_S7_
LEHE34:
	sub	esp, 12
	jmp	L286
L285:
	mov	ebx, eax
	mov	eax, DWORD PTR [ebp-12]
	mov	ecx, eax
	call	__ZNSt7__cxx1112basic_stringIcSt11char_traitsIcESaIcEED1Ev
	mov	eax, ebx
	mov	DWORD PTR [esp], eax
LEHB35:
	call	__Unwind_Resume
LEHE35:
L286:
	mov	eax, DWORD PTR [ebp-12]
	mov	ebx, DWORD PTR [ebp-4]
	leave
	.cfi_restore 5
	.cfi_restore 3
	.cfi_def_cfa 4, 4
	ret	4
	.cfi_endproc
LFE3263:
	.section	.gcc_except_table,"w"
LLSDA3263:
	.byte	0xff
	.byte	0xff
	.byte	0x1
	.uleb128 LLSDACSE3263-LLSDACSB3263
LLSDACSB3263:
	.uleb128 LEHB34-LFB3263
	.uleb128 LEHE34-LEHB34
	.uleb128 L285-LFB3263
	.uleb128 0
	.uleb128 LEHB35-LFB3263
	.uleb128 LEHE35-LEHB35
	.uleb128 0
	.uleb128 0
LLSDACSE3263:
	.section	.text$_ZNKSt6bitsetILj32EE9to_stringIcSt11char_traitsIcESaIcEEENSt7__cxx1112basic_stringIT_T0_T1_EEv,"x"
	.linkonce discard
	.section	.text$_ZN9__gnu_cxx17__normal_iteratorIPKcNSt7__cxx1112basic_stringIcSt11char_traitsIcESaIcEEEEC1ERKS2_,"x"
	.linkonce discard
	.align 2
	.globl	__ZN9__gnu_cxx17__normal_iteratorIPKcNSt7__cxx1112basic_stringIcSt11char_traitsIcESaIcEEEEC1ERKS2_
	.def	__ZN9__gnu_cxx17__normal_iteratorIPKcNSt7__cxx1112basic_stringIcSt11char_traitsIcESaIcEEEEC1ERKS2_;	.scl	2;	.type	32;	.endef
__ZN9__gnu_cxx17__normal_iteratorIPKcNSt7__cxx1112basic_stringIcSt11char_traitsIcESaIcEEEEC1ERKS2_:
LFB3266:
	.cfi_startproc
	push	ebp
	.cfi_def_cfa_offset 8
	.cfi_offset 5, -8
	mov	ebp, esp
	.cfi_def_cfa_register 5
	sub	esp, 4
	mov	DWORD PTR [ebp-4], ecx
	mov	eax, DWORD PTR [ebp+8]
	mov	edx, DWORD PTR [eax]
	mov	eax, DWORD PTR [ebp-4]
	mov	DWORD PTR [eax], edx
	nop
	leave
	.cfi_restore 5
	.cfi_def_cfa 4, 4
	ret	4
	.cfi_endproc
LFE3266:
	.section	.text$_ZNK9__gnu_cxx17__normal_iteratorIPKcNSt7__cxx1112basic_stringIcSt11char_traitsIcESaIcEEEE4baseEv,"x"
	.linkonce discard
	.align 2
	.globl	__ZNK9__gnu_cxx17__normal_iteratorIPKcNSt7__cxx1112basic_stringIcSt11char_traitsIcESaIcEEEE4baseEv
	.def	__ZNK9__gnu_cxx17__normal_iteratorIPKcNSt7__cxx1112basic_stringIcSt11char_traitsIcESaIcEEEE4baseEv;	.scl	2;	.type	32;	.endef
__ZNK9__gnu_cxx17__normal_iteratorIPKcNSt7__cxx1112basic_stringIcSt11char_traitsIcESaIcEEEE4baseEv:
LFB3267:
	.cfi_startproc
	push	ebp
	.cfi_def_cfa_offset 8
	.cfi_offset 5, -8
	mov	ebp, esp
	.cfi_def_cfa_register 5
	sub	esp, 4
	mov	DWORD PTR [ebp-4], ecx
	mov	eax, DWORD PTR [ebp-4]
	leave
	.cfi_restore 5
	.cfi_def_cfa 4, 4
	ret
	.cfi_endproc
LFE3267:
	.section	.text$_ZNSt14__array_traitsIiLj64EE6_S_ptrERA64_Ki,"x"
	.linkonce discard
	.globl	__ZNSt14__array_traitsIiLj64EE6_S_ptrERA64_Ki
	.def	__ZNSt14__array_traitsIiLj64EE6_S_ptrERA64_Ki;	.scl	2;	.type	32;	.endef
__ZNSt14__array_traitsIiLj64EE6_S_ptrERA64_Ki:
LFB3269:
	.cfi_startproc
	push	ebp
	.cfi_def_cfa_offset 8
	.cfi_offset 5, -8
	mov	ebp, esp
	.cfi_def_cfa_register 5
	mov	eax, DWORD PTR [ebp+8]
	pop	ebp
	.cfi_restore 5
	.cfi_def_cfa 4, 4
	ret
	.cfi_endproc
LFE3269:
	.section	.text$_ZNKSt5arrayIiLj64EE4dataEv,"x"
	.linkonce discard
	.align 2
	.globl	__ZNKSt5arrayIiLj64EE4dataEv
	.def	__ZNKSt5arrayIiLj64EE4dataEv;	.scl	2;	.type	32;	.endef
__ZNKSt5arrayIiLj64EE4dataEv:
LFB3268:
	.cfi_startproc
	push	ebp
	.cfi_def_cfa_offset 8
	.cfi_offset 5, -8
	mov	ebp, esp
	.cfi_def_cfa_register 5
	sub	esp, 40
	mov	DWORD PTR [ebp-12], ecx
	mov	eax, DWORD PTR [ebp-12]
	mov	DWORD PTR [esp], eax
	call	__ZNSt14__array_traitsIiLj64EE6_S_ptrERA64_Ki
	leave
	.cfi_restore 5
	.cfi_def_cfa 4, 4
	ret
	.cfi_endproc
LFE3268:
	.section	.text$_ZSt19__iterator_categoryIN9__gnu_cxx17__normal_iteratorIPKcNSt7__cxx1112basic_stringIcSt11char_traitsIcESaIcEEEEEENSt15iterator_traitsIT_E17iterator_categoryERKSC_,"x"
	.linkonce discard
	.globl	__ZSt19__iterator_categoryIN9__gnu_cxx17__normal_iteratorIPKcNSt7__cxx1112basic_stringIcSt11char_traitsIcESaIcEEEEEENSt15iterator_traitsIT_E17iterator_categoryERKSC_
	.def	__ZSt19__iterator_categoryIN9__gnu_cxx17__normal_iteratorIPKcNSt7__cxx1112basic_stringIcSt11char_traitsIcESaIcEEEEEENSt15iterator_traitsIT_E17iterator_categoryERKSC_;	.scl	2;	.type	32;	.endef
__ZSt19__iterator_categoryIN9__gnu_cxx17__normal_iteratorIPKcNSt7__cxx1112basic_stringIcSt11char_traitsIcESaIcEEEEEENSt15iterator_traitsIT_E17iterator_categoryERKSC_:
LFB3270:
	.cfi_startproc
	push	ebp
	.cfi_def_cfa_offset 8
	.cfi_offset 5, -8
	mov	ebp, esp
	.cfi_def_cfa_register 5
	pop	ebp
	.cfi_restore 5
	.cfi_def_cfa 4, 4
	ret
	.cfi_endproc
LFE3270:
	.section	.text$_ZSt10__distanceIN9__gnu_cxx17__normal_iteratorIPKcNSt7__cxx1112basic_stringIcSt11char_traitsIcESaIcEEEEEENSt15iterator_traitsIT_E15difference_typeESC_SC_St26random_access_iterator_tag,"x"
	.linkonce discard
	.globl	__ZSt10__distanceIN9__gnu_cxx17__normal_iteratorIPKcNSt7__cxx1112basic_stringIcSt11char_traitsIcESaIcEEEEEENSt15iterator_traitsIT_E15difference_typeESC_SC_St26random_access_iterator_tag
	.def	__ZSt10__distanceIN9__gnu_cxx17__normal_iteratorIPKcNSt7__cxx1112basic_stringIcSt11char_traitsIcESaIcEEEEEENSt15iterator_traitsIT_E15difference_typeESC_SC_St26random_access_iterator_tag;	.scl	2;	.type	32;	.endef
__ZSt10__distanceIN9__gnu_cxx17__normal_iteratorIPKcNSt7__cxx1112basic_stringIcSt11char_traitsIcESaIcEEEEEENSt15iterator_traitsIT_E15difference_typeESC_SC_St26random_access_iterator_tag:
LFB3271:
	.cfi_startproc
	push	ebp
	.cfi_def_cfa_offset 8
	.cfi_offset 5, -8
	mov	ebp, esp
	.cfi_def_cfa_register 5
	sub	esp, 24
	lea	eax, [ebp+8]
	mov	DWORD PTR [esp+4], eax
	lea	eax, [ebp+12]
	mov	DWORD PTR [esp], eax
	call	__ZN9__gnu_cxxmiIPKcNSt7__cxx1112basic_stringIcSt11char_traitsIcESaIcEEEEENS_17__normal_iteratorIT_T0_E15difference_typeERKSC_SF_
	leave
	.cfi_restore 5
	.cfi_def_cfa 4, 4
	ret
	.cfi_endproc
LFE3271:
	.section	.text$_ZN9__gnu_cxx5__ops17__iter_equals_valIKiEENS0_16_Iter_equals_valIT_EERS4_,"x"
	.linkonce discard
	.globl	__ZN9__gnu_cxx5__ops17__iter_equals_valIKiEENS0_16_Iter_equals_valIT_EERS4_
	.def	__ZN9__gnu_cxx5__ops17__iter_equals_valIKiEENS0_16_Iter_equals_valIT_EERS4_;	.scl	2;	.type	32;	.endef
__ZN9__gnu_cxx5__ops17__iter_equals_valIKiEENS0_16_Iter_equals_valIT_EERS4_:
LFB3272:
	.cfi_startproc
	push	ebp
	.cfi_def_cfa_offset 8
	.cfi_offset 5, -8
	mov	ebp, esp
	.cfi_def_cfa_register 5
	sub	esp, 40
	lea	eax, [ebp-12]
	mov	edx, DWORD PTR [ebp+8]
	mov	DWORD PTR [esp], edx
	mov	ecx, eax
	call	__ZN9__gnu_cxx5__ops16_Iter_equals_valIKiEC1ERS2_
	sub	esp, 4
	mov	eax, DWORD PTR [ebp-12]
	leave
	.cfi_restore 5
	.cfi_def_cfa 4, 4
	ret
	.cfi_endproc
LFE3272:
	.section	.text$_ZSt9__find_ifIPKiN9__gnu_cxx5__ops16_Iter_equals_valIS0_EEET_S6_S6_T0_,"x"
	.linkonce discard
	.globl	__ZSt9__find_ifIPKiN9__gnu_cxx5__ops16_Iter_equals_valIS0_EEET_S6_S6_T0_
	.def	__ZSt9__find_ifIPKiN9__gnu_cxx5__ops16_Iter_equals_valIS0_EEET_S6_S6_T0_;	.scl	2;	.type	32;	.endef
__ZSt9__find_ifIPKiN9__gnu_cxx5__ops16_Iter_equals_valIS0_EEET_S6_S6_T0_:
LFB3273:
	.cfi_startproc
	push	ebp
	.cfi_def_cfa_offset 8
	.cfi_offset 5, -8
	mov	ebp, esp
	.cfi_def_cfa_register 5
	push	ebx
	sub	esp, 36
	.cfi_offset 3, -12
	lea	eax, [ebp+8]
	mov	DWORD PTR [esp], eax
	call	__ZSt19__iterator_categoryIPKiENSt15iterator_traitsIT_E17iterator_categoryERKS3_
	mov	eax, DWORD PTR [ebp+8]
	mov	BYTE PTR [esp+12], bl
	mov	edx, DWORD PTR [ebp+16]
	mov	DWORD PTR [esp+8], edx
	mov	edx, DWORD PTR [ebp+12]
	mov	DWORD PTR [esp+4], edx
	mov	DWORD PTR [esp], eax
	call	__ZSt9__find_ifIPKiN9__gnu_cxx5__ops16_Iter_equals_valIS0_EEET_S6_S6_T0_St26random_access_iterator_tag
	add	esp, 36
	pop	ebx
	.cfi_restore 3
	pop	ebp
	.cfi_restore 5
	.cfi_def_cfa 4, 4
	ret
	.cfi_endproc
LFE3273:
	.section	.text$_ZSt19__iterator_categoryIPKiENSt15iterator_traitsIT_E17iterator_categoryERKS3_,"x"
	.linkonce discard
	.globl	__ZSt19__iterator_categoryIPKiENSt15iterator_traitsIT_E17iterator_categoryERKS3_
	.def	__ZSt19__iterator_categoryIPKiENSt15iterator_traitsIT_E17iterator_categoryERKS3_;	.scl	2;	.type	32;	.endef
__ZSt19__iterator_categoryIPKiENSt15iterator_traitsIT_E17iterator_categoryERKS3_:
LFB3274:
	.cfi_startproc
	push	ebp
	.cfi_def_cfa_offset 8
	.cfi_offset 5, -8
	mov	ebp, esp
	.cfi_def_cfa_register 5
	pop	ebp
	.cfi_restore 5
	.cfi_def_cfa 4, 4
	ret
	.cfi_endproc
LFE3274:
	.section	.text$_ZSt10__distanceIPKiENSt15iterator_traitsIT_E15difference_typeES3_S3_St26random_access_iterator_tag,"x"
	.linkonce discard
	.globl	__ZSt10__distanceIPKiENSt15iterator_traitsIT_E15difference_typeES3_S3_St26random_access_iterator_tag
	.def	__ZSt10__distanceIPKiENSt15iterator_traitsIT_E15difference_typeES3_S3_St26random_access_iterator_tag;	.scl	2;	.type	32;	.endef
__ZSt10__distanceIPKiENSt15iterator_traitsIT_E15difference_typeES3_S3_St26random_access_iterator_tag:
LFB3275:
	.cfi_startproc
	push	ebp
	.cfi_def_cfa_offset 8
	.cfi_offset 5, -8
	mov	ebp, esp
	.cfi_def_cfa_register 5
	mov	edx, DWORD PTR [ebp+12]
	mov	eax, DWORD PTR [ebp+8]
	sub	edx, eax
	mov	eax, edx
	sar	eax, 2
	pop	ebp
	.cfi_restore 5
	.cfi_def_cfa 4, 4
	ret
	.cfi_endproc
LFE3275:
	.section .rdata,"dr"
	.align 4
LC45:
	.ascii "%s: __position (which is %zu) >= _Nb (which is %zu)\0"
	.section	.text$_ZNKSt6bitsetILj64EE8_M_checkEjPKc,"x"
	.linkonce discard
	.align 2
	.globl	__ZNKSt6bitsetILj64EE8_M_checkEjPKc
	.def	__ZNKSt6bitsetILj64EE8_M_checkEjPKc;	.scl	2;	.type	32;	.endef
__ZNKSt6bitsetILj64EE8_M_checkEjPKc:
LFB3276:
	.cfi_startproc
	push	ebp
	.cfi_def_cfa_offset 8
	.cfi_offset 5, -8
	mov	ebp, esp
	.cfi_def_cfa_register 5
	sub	esp, 40
	mov	DWORD PTR [ebp-12], ecx
	cmp	DWORD PTR [ebp+8], 63
	jbe	L308
	mov	DWORD PTR [esp+12], 64
	mov	eax, DWORD PTR [ebp+8]
	mov	DWORD PTR [esp+8], eax
	mov	eax, DWORD PTR [ebp+12]
	mov	DWORD PTR [esp+4], eax
	mov	DWORD PTR [esp], OFFSET FLAT:LC45
	call	__ZSt24__throw_out_of_range_fmtPKcz
L308:
	nop
	leave
	.cfi_restore 5
	.cfi_def_cfa 4, 4
	ret	8
	.cfi_endproc
LFE3276:
	.section	.text$_ZNSt12_Base_bitsetILj2EE11_S_whichbitEj,"x"
	.linkonce discard
	.globl	__ZNSt12_Base_bitsetILj2EE11_S_whichbitEj
	.def	__ZNSt12_Base_bitsetILj2EE11_S_whichbitEj;	.scl	2;	.type	32;	.endef
__ZNSt12_Base_bitsetILj2EE11_S_whichbitEj:
LFB3279:
	.cfi_startproc
	push	ebp
	.cfi_def_cfa_offset 8
	.cfi_offset 5, -8
	mov	ebp, esp
	.cfi_def_cfa_register 5
	mov	eax, DWORD PTR [ebp+8]
	and	eax, 31
	pop	ebp
	.cfi_restore 5
	.cfi_def_cfa 4, 4
	ret
	.cfi_endproc
LFE3279:
	.section	.text$_ZNSt12_Base_bitsetILj2EE10_S_maskbitEj,"x"
	.linkonce discard
	.globl	__ZNSt12_Base_bitsetILj2EE10_S_maskbitEj
	.def	__ZNSt12_Base_bitsetILj2EE10_S_maskbitEj;	.scl	2;	.type	32;	.endef
__ZNSt12_Base_bitsetILj2EE10_S_maskbitEj:
LFB3278:
	.cfi_startproc
	push	ebp
	.cfi_def_cfa_offset 8
	.cfi_offset 5, -8
	mov	ebp, esp
	.cfi_def_cfa_register 5
	sub	esp, 24
	mov	eax, DWORD PTR [ebp+8]
	mov	DWORD PTR [esp], eax
	call	__ZNSt12_Base_bitsetILj2EE11_S_whichbitEj
	mov	edx, 1
	mov	ecx, eax
	sal	edx, cl
	mov	eax, edx
	leave
	.cfi_restore 5
	.cfi_def_cfa 4, 4
	ret
	.cfi_endproc
LFE3278:
	.section	.text$_ZNSt6bitsetILj64EE14_Unchecked_setEji,"x"
	.linkonce discard
	.align 2
	.globl	__ZNSt6bitsetILj64EE14_Unchecked_setEji
	.def	__ZNSt6bitsetILj64EE14_Unchecked_setEji;	.scl	2;	.type	32;	.endef
__ZNSt6bitsetILj64EE14_Unchecked_setEji:
LFB3277:
	.cfi_startproc
	push	ebp
	.cfi_def_cfa_offset 8
	.cfi_offset 5, -8
	mov	ebp, esp
	.cfi_def_cfa_register 5
	push	ebx
	sub	esp, 36
	.cfi_offset 3, -12
	mov	DWORD PTR [ebp-12], ecx
	cmp	DWORD PTR [ebp+12], 0
	je	L314
	mov	eax, DWORD PTR [ebp+8]
	mov	DWORD PTR [esp], eax
	call	__ZNSt12_Base_bitsetILj2EE10_S_maskbitEj
	mov	ebx, eax
	mov	eax, DWORD PTR [ebp-12]
	mov	edx, DWORD PTR [ebp+8]
	mov	DWORD PTR [esp], edx
	mov	ecx, eax
	call	__ZNSt12_Base_bitsetILj2EE10_M_getwordEj
	sub	esp, 4
	mov	edx, DWORD PTR [eax]
	or	edx, ebx
	mov	DWORD PTR [eax], edx
	jmp	L315
L314:
	mov	eax, DWORD PTR [ebp+8]
	mov	DWORD PTR [esp], eax
	call	__ZNSt12_Base_bitsetILj2EE10_S_maskbitEj
	not	eax
	mov	ebx, eax
	mov	eax, DWORD PTR [ebp-12]
	mov	edx, DWORD PTR [ebp+8]
	mov	DWORD PTR [esp], edx
	mov	ecx, eax
	call	__ZNSt12_Base_bitsetILj2EE10_M_getwordEj
	sub	esp, 4
	mov	edx, DWORD PTR [eax]
	and	edx, ebx
	mov	DWORD PTR [eax], edx
L315:
	mov	eax, DWORD PTR [ebp-12]
	mov	ebx, DWORD PTR [ebp-4]
	leave
	.cfi_restore 5
	.cfi_restore 3
	.cfi_def_cfa 4, 4
	ret	8
	.cfi_endproc
LFE3277:
	.section	.text$_ZNKSt6bitsetILj64EE9to_stringIcSt11char_traitsIcESaIcEEENSt7__cxx1112basic_stringIT_T0_T1_EEv,"x"
	.linkonce discard
	.align 2
	.globl	__ZNKSt6bitsetILj64EE9to_stringIcSt11char_traitsIcESaIcEEENSt7__cxx1112basic_stringIT_T0_T1_EEv
	.def	__ZNKSt6bitsetILj64EE9to_stringIcSt11char_traitsIcESaIcEEENSt7__cxx1112basic_stringIT_T0_T1_EEv;	.scl	2;	.type	32;	.endef
__ZNKSt6bitsetILj64EE9to_stringIcSt11char_traitsIcESaIcEEENSt7__cxx1112basic_stringIT_T0_T1_EEv:
LFB3280:
	.cfi_startproc
	.cfi_personality 0,___gxx_personality_v0
	.cfi_lsda 0,LLSDA3280
	push	ebp
	.cfi_def_cfa_offset 8
	.cfi_offset 5, -8
	mov	ebp, esp
	.cfi_def_cfa_register 5
	push	ebx
	sub	esp, 36
	.cfi_offset 3, -12
	mov	DWORD PTR [ebp-12], ecx
	mov	eax, DWORD PTR [ebp-12]
	mov	ecx, eax
	call	__ZNSt7__cxx1112basic_stringIcSt11char_traitsIcESaIcEEC1Ev
	mov	DWORD PTR [esp+8], 49
	mov	DWORD PTR [esp+4], 48
	mov	eax, DWORD PTR [ebp-12]
	mov	DWORD PTR [esp], eax
	mov	ecx, DWORD PTR [ebp+8]
LEHB36:
	call	__ZNKSt6bitsetILj64EE17_M_copy_to_stringIcSt11char_traitsIcESaIcEEEvRNSt7__cxx1112basic_stringIT_T0_T1_EES7_S7_
LEHE36:
	sub	esp, 12
	jmp	L321
L320:
	mov	ebx, eax
	mov	eax, DWORD PTR [ebp-12]
	mov	ecx, eax
	call	__ZNSt7__cxx1112basic_stringIcSt11char_traitsIcESaIcEED1Ev
	mov	eax, ebx
	mov	DWORD PTR [esp], eax
LEHB37:
	call	__Unwind_Resume
LEHE37:
L321:
	mov	eax, DWORD PTR [ebp-12]
	mov	ebx, DWORD PTR [ebp-4]
	leave
	.cfi_restore 5
	.cfi_restore 3
	.cfi_def_cfa 4, 4
	ret	4
	.cfi_endproc
LFE3280:
	.section	.gcc_except_table,"w"
LLSDA3280:
	.byte	0xff
	.byte	0xff
	.byte	0x1
	.uleb128 LLSDACSE3280-LLSDACSB3280
LLSDACSB3280:
	.uleb128 LEHB36-LFB3280
	.uleb128 LEHE36-LEHB36
	.uleb128 L320-LFB3280
	.uleb128 0
	.uleb128 LEHB37-LFB3280
	.uleb128 LEHE37-LEHB37
	.uleb128 0
	.uleb128 0
LLSDACSE3280:
	.section	.text$_ZNKSt6bitsetILj64EE9to_stringIcSt11char_traitsIcESaIcEEENSt7__cxx1112basic_stringIT_T0_T1_EEv,"x"
	.linkonce discard
	.section	.text$_ZN9__gnu_cxx17__normal_iteratorIPcNSt7__cxx1112basic_stringIcSt11char_traitsIcESaIcEEEEC1ERKS1_,"x"
	.linkonce discard
	.align 2
	.globl	__ZN9__gnu_cxx17__normal_iteratorIPcNSt7__cxx1112basic_stringIcSt11char_traitsIcESaIcEEEEC1ERKS1_
	.def	__ZN9__gnu_cxx17__normal_iteratorIPcNSt7__cxx1112basic_stringIcSt11char_traitsIcESaIcEEEEC1ERKS1_;	.scl	2;	.type	32;	.endef
__ZN9__gnu_cxx17__normal_iteratorIPcNSt7__cxx1112basic_stringIcSt11char_traitsIcESaIcEEEEC1ERKS1_:
LFB3287:
	.cfi_startproc
	push	ebp
	.cfi_def_cfa_offset 8
	.cfi_offset 5, -8
	mov	ebp, esp
	.cfi_def_cfa_register 5
	sub	esp, 4
	mov	DWORD PTR [ebp-4], ecx
	mov	eax, DWORD PTR [ebp+8]
	mov	edx, DWORD PTR [eax]
	mov	eax, DWORD PTR [ebp-4]
	mov	DWORD PTR [eax], edx
	nop
	leave
	.cfi_restore 5
	.cfi_def_cfa 4, 4
	ret	4
	.cfi_endproc
LFE3287:
	.section	.text$_ZSt19__iterator_categoryIN9__gnu_cxx17__normal_iteratorIPcNSt7__cxx1112basic_stringIcSt11char_traitsIcESaIcEEEEEENSt15iterator_traitsIT_E17iterator_categoryERKSB_,"x"
	.linkonce discard
	.globl	__ZSt19__iterator_categoryIN9__gnu_cxx17__normal_iteratorIPcNSt7__cxx1112basic_stringIcSt11char_traitsIcESaIcEEEEEENSt15iterator_traitsIT_E17iterator_categoryERKSB_
	.def	__ZSt19__iterator_categoryIN9__gnu_cxx17__normal_iteratorIPcNSt7__cxx1112basic_stringIcSt11char_traitsIcESaIcEEEEEENSt15iterator_traitsIT_E17iterator_categoryERKSB_;	.scl	2;	.type	32;	.endef
__ZSt19__iterator_categoryIN9__gnu_cxx17__normal_iteratorIPcNSt7__cxx1112basic_stringIcSt11char_traitsIcESaIcEEEEEENSt15iterator_traitsIT_E17iterator_categoryERKSB_:
LFB3288:
	.cfi_startproc
	push	ebp
	.cfi_def_cfa_offset 8
	.cfi_offset 5, -8
	mov	ebp, esp
	.cfi_def_cfa_register 5
	pop	ebp
	.cfi_restore 5
	.cfi_def_cfa 4, 4
	ret
	.cfi_endproc
LFE3288:
	.section	.text$_ZSt4moveIRcEONSt16remove_referenceIT_E4typeEOS2_,"x"
	.linkonce discard
	.globl	__ZSt4moveIRcEONSt16remove_referenceIT_E4typeEOS2_
	.def	__ZSt4moveIRcEONSt16remove_referenceIT_E4typeEOS2_;	.scl	2;	.type	32;	.endef
__ZSt4moveIRcEONSt16remove_referenceIT_E4typeEOS2_:
LFB3290:
	.cfi_startproc
	push	ebp
	.cfi_def_cfa_offset 8
	.cfi_offset 5, -8
	mov	ebp, esp
	.cfi_def_cfa_register 5
	mov	eax, DWORD PTR [ebp+8]
	pop	ebp
	.cfi_restore 5
	.cfi_def_cfa 4, 4
	ret
	.cfi_endproc
LFE3290:
	.section	.text$_ZNSt3_V28__rotateIN9__gnu_cxx17__normal_iteratorIPcNSt7__cxx1112basic_stringIcSt11char_traitsIcESaIcEEEEEEET_SB_SB_SB_St26random_access_iterator_tag,"x"
	.linkonce discard
	.globl	__ZNSt3_V28__rotateIN9__gnu_cxx17__normal_iteratorIPcNSt7__cxx1112basic_stringIcSt11char_traitsIcESaIcEEEEEEET_SB_SB_SB_St26random_access_iterator_tag
	.def	__ZNSt3_V28__rotateIN9__gnu_cxx17__normal_iteratorIPcNSt7__cxx1112basic_stringIcSt11char_traitsIcESaIcEEEEEEET_SB_SB_SB_St26random_access_iterator_tag;	.scl	2;	.type	32;	.endef
__ZNSt3_V28__rotateIN9__gnu_cxx17__normal_iteratorIPcNSt7__cxx1112basic_stringIcSt11char_traitsIcESaIcEEEEEEET_SB_SB_SB_St26random_access_iterator_tag:
LFB3289:
	.cfi_startproc
	push	ebp
	.cfi_def_cfa_offset 8
	.cfi_offset 5, -8
	mov	ebp, esp
	.cfi_def_cfa_register 5
	push	ebx
	sub	esp, 84
	.cfi_offset 3, -12
	lea	eax, [ebp+12]
	mov	DWORD PTR [esp+4], eax
	lea	eax, [ebp+8]
	mov	DWORD PTR [esp], eax
	call	__ZN9__gnu_cxxeqIPcNSt7__cxx1112basic_stringIcSt11char_traitsIcESaIcEEEEEbRKNS_17__normal_iteratorIT_T0_EESD_
	test	al, al
	je	L328
	mov	eax, DWORD PTR [ebp+16]
	jmp	L345
L328:
	lea	eax, [ebp+12]
	mov	DWORD PTR [esp+4], eax
	lea	eax, [ebp+16]
	mov	DWORD PTR [esp], eax
	call	__ZN9__gnu_cxxeqIPcNSt7__cxx1112basic_stringIcSt11char_traitsIcESaIcEEEEEbRKNS_17__normal_iteratorIT_T0_EESD_
	test	al, al
	je	L330
	mov	eax, DWORD PTR [ebp+8]
	jmp	L345
L330:
	lea	eax, [ebp+8]
	mov	DWORD PTR [esp+4], eax
	lea	eax, [ebp+16]
	mov	DWORD PTR [esp], eax
	call	__ZN9__gnu_cxxmiIPcNSt7__cxx1112basic_stringIcSt11char_traitsIcESaIcEEEEENS_17__normal_iteratorIT_T0_E15difference_typeERKSB_SE_
	mov	DWORD PTR [ebp-40], eax
	lea	eax, [ebp+8]
	mov	DWORD PTR [esp+4], eax
	lea	eax, [ebp+12]
	mov	DWORD PTR [esp], eax
	call	__ZN9__gnu_cxxmiIPcNSt7__cxx1112basic_stringIcSt11char_traitsIcESaIcEEEEENS_17__normal_iteratorIT_T0_E15difference_typeERKSB_SE_
	mov	DWORD PTR [ebp-44], eax
	mov	edx, DWORD PTR [ebp-40]
	mov	eax, DWORD PTR [ebp-44]
	sub	edx, eax
	mov	eax, DWORD PTR [ebp-44]
	cmp	edx, eax
	jne	L331
	mov	eax, DWORD PTR [ebp+12]
	mov	DWORD PTR [esp+8], eax
	mov	eax, DWORD PTR [ebp+12]
	mov	DWORD PTR [esp+4], eax
	mov	eax, DWORD PTR [ebp+8]
	mov	DWORD PTR [esp], eax
	call	__ZSt11swap_rangesIN9__gnu_cxx17__normal_iteratorIPcNSt7__cxx1112basic_stringIcSt11char_traitsIcESaIcEEEEES9_ET0_T_SB_SA_
	mov	eax, DWORD PTR [ebp+12]
	jmp	L345
L331:
	mov	eax, DWORD PTR [ebp+8]
	mov	DWORD PTR [ebp-48], eax
	lea	eax, [ebp+12]
	mov	DWORD PTR [esp+4], eax
	lea	eax, [ebp+16]
	mov	DWORD PTR [esp], eax
	call	__ZN9__gnu_cxxmiIPcNSt7__cxx1112basic_stringIcSt11char_traitsIcESaIcEEEEENS_17__normal_iteratorIT_T0_E15difference_typeERKSB_SE_
	mov	DWORD PTR [esp], eax
	lea	ecx, [ebp+8]
	call	__ZNK9__gnu_cxx17__normal_iteratorIPcNSt7__cxx1112basic_stringIcSt11char_traitsIcESaIcEEEEplEi
	sub	esp, 4
	mov	DWORD PTR [ebp-52], eax
L344:
	mov	edx, DWORD PTR [ebp-40]
	mov	eax, DWORD PTR [ebp-44]
	sub	edx, eax
	mov	eax, DWORD PTR [ebp-44]
	cmp	edx, eax
	jle	L332
	mov	eax, DWORD PTR [ebp-44]
	cmp	eax, 1
	jne	L333
	lea	eax, [ebp-48]
	mov	ecx, eax
	call	__ZNK9__gnu_cxx17__normal_iteratorIPcNSt7__cxx1112basic_stringIcSt11char_traitsIcESaIcEEEEdeEv
	mov	DWORD PTR [esp], eax
	call	__ZSt4moveIRcEONSt16remove_referenceIT_E4typeEOS2_
	movzx	eax, BYTE PTR [eax]
	mov	BYTE PTR [ebp-57], al
	mov	edx, DWORD PTR [ebp-40]
	lea	eax, [ebp-48]
	mov	DWORD PTR [esp], edx
	mov	ecx, eax
	call	__ZNK9__gnu_cxx17__normal_iteratorIPcNSt7__cxx1112basic_stringIcSt11char_traitsIcESaIcEEEEplEi
	sub	esp, 4
	mov	ebx, eax
	lea	eax, [ebp-48]
	mov	DWORD PTR [esp], 1
	mov	ecx, eax
	call	__ZNK9__gnu_cxx17__normal_iteratorIPcNSt7__cxx1112basic_stringIcSt11char_traitsIcESaIcEEEEplEi
	sub	esp, 4
	mov	edx, eax
	mov	eax, DWORD PTR [ebp-48]
	mov	DWORD PTR [esp+8], eax
	mov	DWORD PTR [esp+4], ebx
	mov	DWORD PTR [esp], edx
	call	__ZSt4moveIN9__gnu_cxx17__normal_iteratorIPcNSt7__cxx1112basic_stringIcSt11char_traitsIcESaIcEEEEES9_ET0_T_SB_SA_
	mov	edx, DWORD PTR [ebp-40]
	lea	eax, [ebp-48]
	mov	DWORD PTR [esp], edx
	mov	ecx, eax
	call	__ZNK9__gnu_cxx17__normal_iteratorIPcNSt7__cxx1112basic_stringIcSt11char_traitsIcESaIcEEEEplEi
	sub	esp, 4
	mov	DWORD PTR [ebp-32], eax
	lea	eax, [ebp-32]
	mov	DWORD PTR [esp], 1
	mov	ecx, eax
	call	__ZNK9__gnu_cxx17__normal_iteratorIPcNSt7__cxx1112basic_stringIcSt11char_traitsIcESaIcEEEEmiEi
	sub	esp, 4
	mov	DWORD PTR [ebp-36], eax
	lea	eax, [ebp-36]
	mov	ecx, eax
	call	__ZNK9__gnu_cxx17__normal_iteratorIPcNSt7__cxx1112basic_stringIcSt11char_traitsIcESaIcEEEEdeEv
	mov	ebx, eax
	lea	eax, [ebp-57]
	mov	DWORD PTR [esp], eax
	call	__ZSt4moveIRcEONSt16remove_referenceIT_E4typeEOS2_
	movzx	eax, BYTE PTR [eax]
	mov	BYTE PTR [ebx], al
	mov	eax, DWORD PTR [ebp-52]
	jmp	L345
L333:
	mov	edx, DWORD PTR [ebp-44]
	lea	eax, [ebp-48]
	mov	DWORD PTR [esp], edx
	mov	ecx, eax
	call	__ZNK9__gnu_cxx17__normal_iteratorIPcNSt7__cxx1112basic_stringIcSt11char_traitsIcESaIcEEEEplEi
	sub	esp, 4
	mov	DWORD PTR [ebp-56], eax
	mov	DWORD PTR [ebp-12], 0
L336:
	mov	edx, DWORD PTR [ebp-40]
	mov	eax, DWORD PTR [ebp-44]
	sub	edx, eax
	mov	eax, edx
	cmp	eax, DWORD PTR [ebp-12]
	jle	L335
	mov	eax, DWORD PTR [ebp-56]
	mov	DWORD PTR [esp+4], eax
	mov	eax, DWORD PTR [ebp-48]
	mov	DWORD PTR [esp], eax
	call	__ZSt9iter_swapIN9__gnu_cxx17__normal_iteratorIPcNSt7__cxx1112basic_stringIcSt11char_traitsIcESaIcEEEEES9_EvT_T0_
	lea	eax, [ebp-48]
	mov	ecx, eax
	call	__ZN9__gnu_cxx17__normal_iteratorIPcNSt7__cxx1112basic_stringIcSt11char_traitsIcESaIcEEEEppEv
	lea	eax, [ebp-56]
	mov	ecx, eax
	call	__ZN9__gnu_cxx17__normal_iteratorIPcNSt7__cxx1112basic_stringIcSt11char_traitsIcESaIcEEEEppEv
	add	DWORD PTR [ebp-12], 1
	jmp	L336
L335:
	mov	eax, DWORD PTR [ebp-40]
	mov	ecx, DWORD PTR [ebp-44]
	cdq
	idiv	ecx
	mov	eax, edx
	mov	DWORD PTR [ebp-40], eax
	mov	eax, DWORD PTR [ebp-40]
	test	eax, eax
	jne	L337
	mov	eax, DWORD PTR [ebp-52]
	jmp	L345
L337:
	lea	eax, [ebp-44]
	mov	DWORD PTR [esp+4], eax
	lea	eax, [ebp-40]
	mov	DWORD PTR [esp], eax
	call	__ZSt4swapIiENSt9enable_ifIXsrSt6__and_IJSt21is_move_constructibleIT_ESt18is_move_assignableIS3_EEE5valueEvE4typeERS3_SA_
	mov	edx, DWORD PTR [ebp-40]
	mov	eax, DWORD PTR [ebp-44]
	sub	edx, eax
	mov	eax, edx
	mov	DWORD PTR [ebp-44], eax
	jmp	L344
L332:
	mov	edx, DWORD PTR [ebp-40]
	mov	eax, DWORD PTR [ebp-44]
	sub	edx, eax
	mov	eax, edx
	mov	DWORD PTR [ebp-44], eax
	mov	eax, DWORD PTR [ebp-44]
	cmp	eax, 1
	jne	L339
	mov	edx, DWORD PTR [ebp-40]
	lea	eax, [ebp-48]
	mov	DWORD PTR [esp], edx
	mov	ecx, eax
	call	__ZNK9__gnu_cxx17__normal_iteratorIPcNSt7__cxx1112basic_stringIcSt11char_traitsIcESaIcEEEEplEi
	sub	esp, 4
	mov	DWORD PTR [ebp-24], eax
	lea	eax, [ebp-24]
	mov	DWORD PTR [esp], 1
	mov	ecx, eax
	call	__ZNK9__gnu_cxx17__normal_iteratorIPcNSt7__cxx1112basic_stringIcSt11char_traitsIcESaIcEEEEmiEi
	sub	esp, 4
	mov	DWORD PTR [ebp-28], eax
	lea	eax, [ebp-28]
	mov	ecx, eax
	call	__ZNK9__gnu_cxx17__normal_iteratorIPcNSt7__cxx1112basic_stringIcSt11char_traitsIcESaIcEEEEdeEv
	mov	DWORD PTR [esp], eax
	call	__ZSt4moveIRcEONSt16remove_referenceIT_E4typeEOS2_
	movzx	eax, BYTE PTR [eax]
	mov	BYTE PTR [ebp-65], al
	mov	edx, DWORD PTR [ebp-40]
	lea	eax, [ebp-48]
	mov	DWORD PTR [esp], edx
	mov	ecx, eax
	call	__ZNK9__gnu_cxx17__normal_iteratorIPcNSt7__cxx1112basic_stringIcSt11char_traitsIcESaIcEEEEplEi
	sub	esp, 4
	mov	ebx, eax
	mov	edx, DWORD PTR [ebp-40]
	lea	eax, [ebp-48]
	mov	DWORD PTR [esp], edx
	mov	ecx, eax
	call	__ZNK9__gnu_cxx17__normal_iteratorIPcNSt7__cxx1112basic_stringIcSt11char_traitsIcESaIcEEEEplEi
	sub	esp, 4
	mov	DWORD PTR [ebp-20], eax
	lea	eax, [ebp-20]
	mov	DWORD PTR [esp], 1
	mov	ecx, eax
	call	__ZNK9__gnu_cxx17__normal_iteratorIPcNSt7__cxx1112basic_stringIcSt11char_traitsIcESaIcEEEEmiEi
	sub	esp, 4
	mov	DWORD PTR [esp+8], ebx
	mov	DWORD PTR [esp+4], eax
	mov	eax, DWORD PTR [ebp-48]
	mov	DWORD PTR [esp], eax
	call	__ZSt13move_backwardIN9__gnu_cxx17__normal_iteratorIPcNSt7__cxx1112basic_stringIcSt11char_traitsIcESaIcEEEEES9_ET0_T_SB_SA_
	lea	eax, [ebp-48]
	mov	ecx, eax
	call	__ZNK9__gnu_cxx17__normal_iteratorIPcNSt7__cxx1112basic_stringIcSt11char_traitsIcESaIcEEEEdeEv
	mov	ebx, eax
	lea	eax, [ebp-65]
	mov	DWORD PTR [esp], eax
	call	__ZSt4moveIRcEONSt16remove_referenceIT_E4typeEOS2_
	movzx	eax, BYTE PTR [eax]
	mov	BYTE PTR [ebx], al
	mov	eax, DWORD PTR [ebp-52]
	jmp	L345
L339:
	mov	edx, DWORD PTR [ebp-40]
	lea	eax, [ebp-48]
	mov	DWORD PTR [esp], edx
	mov	ecx, eax
	call	__ZNK9__gnu_cxx17__normal_iteratorIPcNSt7__cxx1112basic_stringIcSt11char_traitsIcESaIcEEEEplEi
	sub	esp, 4
	mov	DWORD PTR [ebp-64], eax
	mov	edx, DWORD PTR [ebp-44]
	lea	eax, [ebp-64]
	mov	DWORD PTR [esp], edx
	mov	ecx, eax
	call	__ZNK9__gnu_cxx17__normal_iteratorIPcNSt7__cxx1112basic_stringIcSt11char_traitsIcESaIcEEEEmiEi
	sub	esp, 4
	mov	DWORD PTR [ebp-48], eax
	mov	DWORD PTR [ebp-16], 0
L342:
	mov	edx, DWORD PTR [ebp-40]
	mov	eax, DWORD PTR [ebp-44]
	sub	edx, eax
	mov	eax, edx
	cmp	eax, DWORD PTR [ebp-16]
	jle	L341
	lea	eax, [ebp-48]
	mov	ecx, eax
	call	__ZN9__gnu_cxx17__normal_iteratorIPcNSt7__cxx1112basic_stringIcSt11char_traitsIcESaIcEEEEmmEv
	lea	eax, [ebp-64]
	mov	ecx, eax
	call	__ZN9__gnu_cxx17__normal_iteratorIPcNSt7__cxx1112basic_stringIcSt11char_traitsIcESaIcEEEEmmEv
	mov	eax, DWORD PTR [ebp-64]
	mov	DWORD PTR [esp+4], eax
	mov	eax, DWORD PTR [ebp-48]
	mov	DWORD PTR [esp], eax
	call	__ZSt9iter_swapIN9__gnu_cxx17__normal_iteratorIPcNSt7__cxx1112basic_stringIcSt11char_traitsIcESaIcEEEEES9_EvT_T0_
	add	DWORD PTR [ebp-16], 1
	jmp	L342
L341:
	mov	eax, DWORD PTR [ebp-40]
	mov	ecx, DWORD PTR [ebp-44]
	cdq
	idiv	ecx
	mov	eax, edx
	mov	DWORD PTR [ebp-40], eax
	mov	eax, DWORD PTR [ebp-40]
	test	eax, eax
	jne	L343
	mov	eax, DWORD PTR [ebp-52]
	jmp	L345
L343:
	lea	eax, [ebp-44]
	mov	DWORD PTR [esp+4], eax
	lea	eax, [ebp-40]
	mov	DWORD PTR [esp], eax
	call	__ZSt4swapIiENSt9enable_ifIXsrSt6__and_IJSt21is_move_constructibleIT_ESt18is_move_assignableIS3_EEE5valueEvE4typeERS3_SA_
	jmp	L344
L345:
	mov	ebx, DWORD PTR [ebp-4]
	leave
	.cfi_restore 5
	.cfi_restore 3
	.cfi_def_cfa 4, 4
	ret
	.cfi_endproc
LFE3289:
	.section	.text$_ZNKSt6bitsetILj4EE9to_stringIcSt11char_traitsIcESaIcEEENSt7__cxx1112basic_stringIT_T0_T1_EEv,"x"
	.linkonce discard
	.align 2
	.globl	__ZNKSt6bitsetILj4EE9to_stringIcSt11char_traitsIcESaIcEEENSt7__cxx1112basic_stringIT_T0_T1_EEv
	.def	__ZNKSt6bitsetILj4EE9to_stringIcSt11char_traitsIcESaIcEEENSt7__cxx1112basic_stringIT_T0_T1_EEv;	.scl	2;	.type	32;	.endef
__ZNKSt6bitsetILj4EE9to_stringIcSt11char_traitsIcESaIcEEENSt7__cxx1112basic_stringIT_T0_T1_EEv:
LFB3296:
	.cfi_startproc
	.cfi_personality 0,___gxx_personality_v0
	.cfi_lsda 0,LLSDA3296
	push	ebp
	.cfi_def_cfa_offset 8
	.cfi_offset 5, -8
	mov	ebp, esp
	.cfi_def_cfa_register 5
	push	ebx
	sub	esp, 36
	.cfi_offset 3, -12
	mov	DWORD PTR [ebp-12], ecx
	mov	eax, DWORD PTR [ebp-12]
	mov	ecx, eax
	call	__ZNSt7__cxx1112basic_stringIcSt11char_traitsIcESaIcEEC1Ev
	mov	DWORD PTR [esp+8], 49
	mov	DWORD PTR [esp+4], 48
	mov	eax, DWORD PTR [ebp-12]
	mov	DWORD PTR [esp], eax
	mov	ecx, DWORD PTR [ebp+8]
LEHB38:
	call	__ZNKSt6bitsetILj4EE17_M_copy_to_stringIcSt11char_traitsIcESaIcEEEvRNSt7__cxx1112basic_stringIT_T0_T1_EES7_S7_
LEHE38:
	sub	esp, 12
	jmp	L350
L349:
	mov	ebx, eax
	mov	eax, DWORD PTR [ebp-12]
	mov	ecx, eax
	call	__ZNSt7__cxx1112basic_stringIcSt11char_traitsIcESaIcEED1Ev
	mov	eax, ebx
	mov	DWORD PTR [esp], eax
LEHB39:
	call	__Unwind_Resume
LEHE39:
L350:
	mov	eax, DWORD PTR [ebp-12]
	mov	ebx, DWORD PTR [ebp-4]
	leave
	.cfi_restore 5
	.cfi_restore 3
	.cfi_def_cfa 4, 4
	ret	4
	.cfi_endproc
LFE3296:
	.section	.gcc_except_table,"w"
LLSDA3296:
	.byte	0xff
	.byte	0xff
	.byte	0x1
	.uleb128 LLSDACSE3296-LLSDACSB3296
LLSDACSB3296:
	.uleb128 LEHB38-LFB3296
	.uleb128 LEHE38-LEHB38
	.uleb128 L349-LFB3296
	.uleb128 0
	.uleb128 LEHB39-LFB3296
	.uleb128 LEHE39-LEHB39
	.uleb128 0
	.uleb128 0
LLSDACSE3296:
	.section	.text$_ZNKSt6bitsetILj4EE9to_stringIcSt11char_traitsIcESaIcEEENSt7__cxx1112basic_stringIT_T0_T1_EEv,"x"
	.linkonce discard
	.section	.text$_ZNSt14__array_traitsIiLj32EE6_S_ptrERA32_Ki,"x"
	.linkonce discard
	.globl	__ZNSt14__array_traitsIiLj32EE6_S_ptrERA32_Ki
	.def	__ZNSt14__array_traitsIiLj32EE6_S_ptrERA32_Ki;	.scl	2;	.type	32;	.endef
__ZNSt14__array_traitsIiLj32EE6_S_ptrERA32_Ki:
LFB3298:
	.cfi_startproc
	push	ebp
	.cfi_def_cfa_offset 8
	.cfi_offset 5, -8
	mov	ebp, esp
	.cfi_def_cfa_register 5
	mov	eax, DWORD PTR [ebp+8]
	pop	ebp
	.cfi_restore 5
	.cfi_def_cfa 4, 4
	ret
	.cfi_endproc
LFE3298:
	.section	.text$_ZNKSt5arrayIiLj32EE4dataEv,"x"
	.linkonce discard
	.align 2
	.globl	__ZNKSt5arrayIiLj32EE4dataEv
	.def	__ZNKSt5arrayIiLj32EE4dataEv;	.scl	2;	.type	32;	.endef
__ZNKSt5arrayIiLj32EE4dataEv:
LFB3297:
	.cfi_startproc
	push	ebp
	.cfi_def_cfa_offset 8
	.cfi_offset 5, -8
	mov	ebp, esp
	.cfi_def_cfa_register 5
	sub	esp, 40
	mov	DWORD PTR [ebp-12], ecx
	mov	eax, DWORD PTR [ebp-12]
	mov	DWORD PTR [esp], eax
	call	__ZNSt14__array_traitsIiLj32EE6_S_ptrERA32_Ki
	leave
	.cfi_restore 5
	.cfi_def_cfa 4, 4
	ret
	.cfi_endproc
LFE3297:
	.section	.text$_ZNKSt6bitsetILj32EE8_M_checkEjPKc,"x"
	.linkonce discard
	.align 2
	.globl	__ZNKSt6bitsetILj32EE8_M_checkEjPKc
	.def	__ZNKSt6bitsetILj32EE8_M_checkEjPKc;	.scl	2;	.type	32;	.endef
__ZNKSt6bitsetILj32EE8_M_checkEjPKc:
LFB3299:
	.cfi_startproc
	push	ebp
	.cfi_def_cfa_offset 8
	.cfi_offset 5, -8
	mov	ebp, esp
	.cfi_def_cfa_register 5
	sub	esp, 40
	mov	DWORD PTR [ebp-12], ecx
	cmp	DWORD PTR [ebp+8], 31
	jbe	L357
	mov	DWORD PTR [esp+12], 32
	mov	eax, DWORD PTR [ebp+8]
	mov	DWORD PTR [esp+8], eax
	mov	eax, DWORD PTR [ebp+12]
	mov	DWORD PTR [esp+4], eax
	mov	DWORD PTR [esp], OFFSET FLAT:LC45
	call	__ZSt24__throw_out_of_range_fmtPKcz
L357:
	nop
	leave
	.cfi_restore 5
	.cfi_def_cfa 4, 4
	ret	8
	.cfi_endproc
LFE3299:
	.section	.text$_ZNSt6bitsetILj32EE14_Unchecked_setEji,"x"
	.linkonce discard
	.align 2
	.globl	__ZNSt6bitsetILj32EE14_Unchecked_setEji
	.def	__ZNSt6bitsetILj32EE14_Unchecked_setEji;	.scl	2;	.type	32;	.endef
__ZNSt6bitsetILj32EE14_Unchecked_setEji:
LFB3300:
	.cfi_startproc
	push	ebp
	.cfi_def_cfa_offset 8
	.cfi_offset 5, -8
	mov	ebp, esp
	.cfi_def_cfa_register 5
	push	ebx
	sub	esp, 36
	.cfi_offset 3, -12
	mov	DWORD PTR [ebp-12], ecx
	cmp	DWORD PTR [ebp+12], 0
	je	L359
	mov	eax, DWORD PTR [ebp+8]
	mov	DWORD PTR [esp], eax
	call	__ZNSt12_Base_bitsetILj1EE10_S_maskbitEj
	mov	ebx, eax
	mov	eax, DWORD PTR [ebp-12]
	mov	edx, DWORD PTR [ebp+8]
	mov	DWORD PTR [esp], edx
	mov	ecx, eax
	call	__ZNSt12_Base_bitsetILj1EE10_M_getwordEj
	sub	esp, 4
	mov	edx, DWORD PTR [eax]
	or	edx, ebx
	mov	DWORD PTR [eax], edx
	jmp	L360
L359:
	mov	eax, DWORD PTR [ebp+8]
	mov	DWORD PTR [esp], eax
	call	__ZNSt12_Base_bitsetILj1EE10_S_maskbitEj
	not	eax
	mov	ebx, eax
	mov	eax, DWORD PTR [ebp-12]
	mov	edx, DWORD PTR [ebp+8]
	mov	DWORD PTR [esp], edx
	mov	ecx, eax
	call	__ZNSt12_Base_bitsetILj1EE10_M_getwordEj
	sub	esp, 4
	mov	edx, DWORD PTR [eax]
	and	edx, ebx
	mov	DWORD PTR [eax], edx
L360:
	mov	eax, DWORD PTR [ebp-12]
	mov	ebx, DWORD PTR [ebp-4]
	leave
	.cfi_restore 5
	.cfi_restore 3
	.cfi_def_cfa 4, 4
	ret	8
	.cfi_endproc
LFE3300:
	.section	.text$_ZNSt14__array_traitsIiLj56EE6_S_ptrERA56_Ki,"x"
	.linkonce discard
	.globl	__ZNSt14__array_traitsIiLj56EE6_S_ptrERA56_Ki
	.def	__ZNSt14__array_traitsIiLj56EE6_S_ptrERA56_Ki;	.scl	2;	.type	32;	.endef
__ZNSt14__array_traitsIiLj56EE6_S_ptrERA56_Ki:
LFB3302:
	.cfi_startproc
	push	ebp
	.cfi_def_cfa_offset 8
	.cfi_offset 5, -8
	mov	ebp, esp
	.cfi_def_cfa_register 5
	mov	eax, DWORD PTR [ebp+8]
	pop	ebp
	.cfi_restore 5
	.cfi_def_cfa 4, 4
	ret
	.cfi_endproc
LFE3302:
	.section	.text$_ZNKSt5arrayIiLj56EE4dataEv,"x"
	.linkonce discard
	.align 2
	.globl	__ZNKSt5arrayIiLj56EE4dataEv
	.def	__ZNKSt5arrayIiLj56EE4dataEv;	.scl	2;	.type	32;	.endef
__ZNKSt5arrayIiLj56EE4dataEv:
LFB3301:
	.cfi_startproc
	push	ebp
	.cfi_def_cfa_offset 8
	.cfi_offset 5, -8
	mov	ebp, esp
	.cfi_def_cfa_register 5
	sub	esp, 40
	mov	DWORD PTR [ebp-12], ecx
	mov	eax, DWORD PTR [ebp-12]
	mov	DWORD PTR [esp], eax
	call	__ZNSt14__array_traitsIiLj56EE6_S_ptrERA56_Ki
	leave
	.cfi_restore 5
	.cfi_def_cfa 4, 4
	ret
	.cfi_endproc
LFE3301:
	.section	.text$_ZNKSt6bitsetILj56EE8_M_checkEjPKc,"x"
	.linkonce discard
	.align 2
	.globl	__ZNKSt6bitsetILj56EE8_M_checkEjPKc
	.def	__ZNKSt6bitsetILj56EE8_M_checkEjPKc;	.scl	2;	.type	32;	.endef
__ZNKSt6bitsetILj56EE8_M_checkEjPKc:
LFB3303:
	.cfi_startproc
	push	ebp
	.cfi_def_cfa_offset 8
	.cfi_offset 5, -8
	mov	ebp, esp
	.cfi_def_cfa_register 5
	sub	esp, 40
	mov	DWORD PTR [ebp-12], ecx
	cmp	DWORD PTR [ebp+8], 55
	jbe	L368
	mov	DWORD PTR [esp+12], 56
	mov	eax, DWORD PTR [ebp+8]
	mov	DWORD PTR [esp+8], eax
	mov	eax, DWORD PTR [ebp+12]
	mov	DWORD PTR [esp+4], eax
	mov	DWORD PTR [esp], OFFSET FLAT:LC45
	call	__ZSt24__throw_out_of_range_fmtPKcz
L368:
	nop
	leave
	.cfi_restore 5
	.cfi_def_cfa 4, 4
	ret	8
	.cfi_endproc
LFE3303:
	.section	.text$_ZNSt6bitsetILj56EE14_Unchecked_setEji,"x"
	.linkonce discard
	.align 2
	.globl	__ZNSt6bitsetILj56EE14_Unchecked_setEji
	.def	__ZNSt6bitsetILj56EE14_Unchecked_setEji;	.scl	2;	.type	32;	.endef
__ZNSt6bitsetILj56EE14_Unchecked_setEji:
LFB3304:
	.cfi_startproc
	push	ebp
	.cfi_def_cfa_offset 8
	.cfi_offset 5, -8
	mov	ebp, esp
	.cfi_def_cfa_register 5
	push	ebx
	sub	esp, 36
	.cfi_offset 3, -12
	mov	DWORD PTR [ebp-12], ecx
	cmp	DWORD PTR [ebp+12], 0
	je	L370
	mov	eax, DWORD PTR [ebp+8]
	mov	DWORD PTR [esp], eax
	call	__ZNSt12_Base_bitsetILj2EE10_S_maskbitEj
	mov	ebx, eax
	mov	eax, DWORD PTR [ebp-12]
	mov	edx, DWORD PTR [ebp+8]
	mov	DWORD PTR [esp], edx
	mov	ecx, eax
	call	__ZNSt12_Base_bitsetILj2EE10_M_getwordEj
	sub	esp, 4
	mov	edx, DWORD PTR [eax]
	or	edx, ebx
	mov	DWORD PTR [eax], edx
	jmp	L371
L370:
	mov	eax, DWORD PTR [ebp+8]
	mov	DWORD PTR [esp], eax
	call	__ZNSt12_Base_bitsetILj2EE10_S_maskbitEj
	not	eax
	mov	ebx, eax
	mov	eax, DWORD PTR [ebp-12]
	mov	edx, DWORD PTR [ebp+8]
	mov	DWORD PTR [esp], edx
	mov	ecx, eax
	call	__ZNSt12_Base_bitsetILj2EE10_M_getwordEj
	sub	esp, 4
	mov	edx, DWORD PTR [eax]
	and	edx, ebx
	mov	DWORD PTR [eax], edx
L371:
	mov	eax, DWORD PTR [ebp-12]
	mov	ebx, DWORD PTR [ebp-4]
	leave
	.cfi_restore 5
	.cfi_restore 3
	.cfi_def_cfa 4, 4
	ret	8
	.cfi_endproc
LFE3304:
	.section	.text$_ZNKSt6bitsetILj56EE9to_stringIcSt11char_traitsIcESaIcEEENSt7__cxx1112basic_stringIT_T0_T1_EEv,"x"
	.linkonce discard
	.align 2
	.globl	__ZNKSt6bitsetILj56EE9to_stringIcSt11char_traitsIcESaIcEEENSt7__cxx1112basic_stringIT_T0_T1_EEv
	.def	__ZNKSt6bitsetILj56EE9to_stringIcSt11char_traitsIcESaIcEEENSt7__cxx1112basic_stringIT_T0_T1_EEv;	.scl	2;	.type	32;	.endef
__ZNKSt6bitsetILj56EE9to_stringIcSt11char_traitsIcESaIcEEENSt7__cxx1112basic_stringIT_T0_T1_EEv:
LFB3305:
	.cfi_startproc
	.cfi_personality 0,___gxx_personality_v0
	.cfi_lsda 0,LLSDA3305
	push	ebp
	.cfi_def_cfa_offset 8
	.cfi_offset 5, -8
	mov	ebp, esp
	.cfi_def_cfa_register 5
	push	ebx
	sub	esp, 36
	.cfi_offset 3, -12
	mov	DWORD PTR [ebp-12], ecx
	mov	eax, DWORD PTR [ebp-12]
	mov	ecx, eax
	call	__ZNSt7__cxx1112basic_stringIcSt11char_traitsIcESaIcEEC1Ev
	mov	DWORD PTR [esp+8], 49
	mov	DWORD PTR [esp+4], 48
	mov	eax, DWORD PTR [ebp-12]
	mov	DWORD PTR [esp], eax
	mov	ecx, DWORD PTR [ebp+8]
LEHB40:
	call	__ZNKSt6bitsetILj56EE17_M_copy_to_stringIcSt11char_traitsIcESaIcEEEvRNSt7__cxx1112basic_stringIT_T0_T1_EES7_S7_
LEHE40:
	sub	esp, 12
	jmp	L377
L376:
	mov	ebx, eax
	mov	eax, DWORD PTR [ebp-12]
	mov	ecx, eax
	call	__ZNSt7__cxx1112basic_stringIcSt11char_traitsIcESaIcEED1Ev
	mov	eax, ebx
	mov	DWORD PTR [esp], eax
LEHB41:
	call	__Unwind_Resume
LEHE41:
L377:
	mov	eax, DWORD PTR [ebp-12]
	mov	ebx, DWORD PTR [ebp-4]
	leave
	.cfi_restore 5
	.cfi_restore 3
	.cfi_def_cfa 4, 4
	ret	4
	.cfi_endproc
LFE3305:
	.section	.gcc_except_table,"w"
LLSDA3305:
	.byte	0xff
	.byte	0xff
	.byte	0x1
	.uleb128 LLSDACSE3305-LLSDACSB3305
LLSDACSB3305:
	.uleb128 LEHB40-LFB3305
	.uleb128 LEHE40-LEHB40
	.uleb128 L376-LFB3305
	.uleb128 0
	.uleb128 LEHB41-LFB3305
	.uleb128 LEHE41-LEHB41
	.uleb128 0
	.uleb128 0
LLSDACSE3305:
	.section	.text$_ZNKSt6bitsetILj56EE9to_stringIcSt11char_traitsIcESaIcEEENSt7__cxx1112basic_stringIT_T0_T1_EEv,"x"
	.linkonce discard
	.section	.text$_ZNSt14__array_traitsIiLj48EE6_S_ptrERA48_Ki,"x"
	.linkonce discard
	.globl	__ZNSt14__array_traitsIiLj48EE6_S_ptrERA48_Ki
	.def	__ZNSt14__array_traitsIiLj48EE6_S_ptrERA48_Ki;	.scl	2;	.type	32;	.endef
__ZNSt14__array_traitsIiLj48EE6_S_ptrERA48_Ki:
LFB3307:
	.cfi_startproc
	push	ebp
	.cfi_def_cfa_offset 8
	.cfi_offset 5, -8
	mov	ebp, esp
	.cfi_def_cfa_register 5
	mov	eax, DWORD PTR [ebp+8]
	pop	ebp
	.cfi_restore 5
	.cfi_def_cfa 4, 4
	ret
	.cfi_endproc
LFE3307:
	.section	.text$_ZNKSt5arrayIiLj48EE4dataEv,"x"
	.linkonce discard
	.align 2
	.globl	__ZNKSt5arrayIiLj48EE4dataEv
	.def	__ZNKSt5arrayIiLj48EE4dataEv;	.scl	2;	.type	32;	.endef
__ZNKSt5arrayIiLj48EE4dataEv:
LFB3306:
	.cfi_startproc
	push	ebp
	.cfi_def_cfa_offset 8
	.cfi_offset 5, -8
	mov	ebp, esp
	.cfi_def_cfa_register 5
	sub	esp, 40
	mov	DWORD PTR [ebp-12], ecx
	mov	eax, DWORD PTR [ebp-12]
	mov	DWORD PTR [esp], eax
	call	__ZNSt14__array_traitsIiLj48EE6_S_ptrERA48_Ki
	leave
	.cfi_restore 5
	.cfi_def_cfa 4, 4
	ret
	.cfi_endproc
LFE3306:
	.section	.text$_ZNKSt6bitsetILj48EE8_M_checkEjPKc,"x"
	.linkonce discard
	.align 2
	.globl	__ZNKSt6bitsetILj48EE8_M_checkEjPKc
	.def	__ZNKSt6bitsetILj48EE8_M_checkEjPKc;	.scl	2;	.type	32;	.endef
__ZNKSt6bitsetILj48EE8_M_checkEjPKc:
LFB3308:
	.cfi_startproc
	push	ebp
	.cfi_def_cfa_offset 8
	.cfi_offset 5, -8
	mov	ebp, esp
	.cfi_def_cfa_register 5
	sub	esp, 40
	mov	DWORD PTR [ebp-12], ecx
	cmp	DWORD PTR [ebp+8], 47
	jbe	L384
	mov	DWORD PTR [esp+12], 48
	mov	eax, DWORD PTR [ebp+8]
	mov	DWORD PTR [esp+8], eax
	mov	eax, DWORD PTR [ebp+12]
	mov	DWORD PTR [esp+4], eax
	mov	DWORD PTR [esp], OFFSET FLAT:LC45
	call	__ZSt24__throw_out_of_range_fmtPKcz
L384:
	nop
	leave
	.cfi_restore 5
	.cfi_def_cfa 4, 4
	ret	8
	.cfi_endproc
LFE3308:
	.section	.text$_ZNSt6bitsetILj48EE14_Unchecked_setEji,"x"
	.linkonce discard
	.align 2
	.globl	__ZNSt6bitsetILj48EE14_Unchecked_setEji
	.def	__ZNSt6bitsetILj48EE14_Unchecked_setEji;	.scl	2;	.type	32;	.endef
__ZNSt6bitsetILj48EE14_Unchecked_setEji:
LFB3309:
	.cfi_startproc
	push	ebp
	.cfi_def_cfa_offset 8
	.cfi_offset 5, -8
	mov	ebp, esp
	.cfi_def_cfa_register 5
	push	ebx
	sub	esp, 36
	.cfi_offset 3, -12
	mov	DWORD PTR [ebp-12], ecx
	cmp	DWORD PTR [ebp+12], 0
	je	L386
	mov	eax, DWORD PTR [ebp+8]
	mov	DWORD PTR [esp], eax
	call	__ZNSt12_Base_bitsetILj2EE10_S_maskbitEj
	mov	ebx, eax
	mov	eax, DWORD PTR [ebp-12]
	mov	edx, DWORD PTR [ebp+8]
	mov	DWORD PTR [esp], edx
	mov	ecx, eax
	call	__ZNSt12_Base_bitsetILj2EE10_M_getwordEj
	sub	esp, 4
	mov	edx, DWORD PTR [eax]
	or	edx, ebx
	mov	DWORD PTR [eax], edx
	jmp	L387
L386:
	mov	eax, DWORD PTR [ebp+8]
	mov	DWORD PTR [esp], eax
	call	__ZNSt12_Base_bitsetILj2EE10_S_maskbitEj
	not	eax
	mov	ebx, eax
	mov	eax, DWORD PTR [ebp-12]
	mov	edx, DWORD PTR [ebp+8]
	mov	DWORD PTR [esp], edx
	mov	ecx, eax
	call	__ZNSt12_Base_bitsetILj2EE10_M_getwordEj
	sub	esp, 4
	mov	edx, DWORD PTR [eax]
	and	edx, ebx
	mov	DWORD PTR [eax], edx
L387:
	mov	eax, DWORD PTR [ebp-12]
	mov	ebx, DWORD PTR [ebp-4]
	leave
	.cfi_restore 5
	.cfi_restore 3
	.cfi_def_cfa 4, 4
	ret	8
	.cfi_endproc
LFE3309:
	.section	.text$_ZNKSt16reverse_iteratorIN9__gnu_cxx17__normal_iteratorIPKcNSt7__cxx1112basic_stringIcSt11char_traitsIcESaIcEEEEEE4baseEv,"x"
	.linkonce discard
	.align 2
	.globl	__ZNKSt16reverse_iteratorIN9__gnu_cxx17__normal_iteratorIPKcNSt7__cxx1112basic_stringIcSt11char_traitsIcESaIcEEEEEE4baseEv
	.def	__ZNKSt16reverse_iteratorIN9__gnu_cxx17__normal_iteratorIPKcNSt7__cxx1112basic_stringIcSt11char_traitsIcESaIcEEEEEE4baseEv;	.scl	2;	.type	32;	.endef
__ZNKSt16reverse_iteratorIN9__gnu_cxx17__normal_iteratorIPKcNSt7__cxx1112basic_stringIcSt11char_traitsIcESaIcEEEEEE4baseEv:
LFB3314:
	.cfi_startproc
	push	ebp
	.cfi_def_cfa_offset 8
	.cfi_offset 5, -8
	mov	ebp, esp
	.cfi_def_cfa_register 5
	sub	esp, 4
	mov	DWORD PTR [ebp-4], ecx
	mov	eax, DWORD PTR [ebp-4]
	mov	eax, DWORD PTR [eax]
	leave
	.cfi_restore 5
	.cfi_def_cfa 4, 4
	ret
	.cfi_endproc
LFE3314:
	.section	.text$_ZN9__gnu_cxx17__normal_iteratorIPKcNSt7__cxx1112basic_stringIcSt11char_traitsIcESaIcEEEEmmEv,"x"
	.linkonce discard
	.align 2
	.globl	__ZN9__gnu_cxx17__normal_iteratorIPKcNSt7__cxx1112basic_stringIcSt11char_traitsIcESaIcEEEEmmEv
	.def	__ZN9__gnu_cxx17__normal_iteratorIPKcNSt7__cxx1112basic_stringIcSt11char_traitsIcESaIcEEEEmmEv;	.scl	2;	.type	32;	.endef
__ZN9__gnu_cxx17__normal_iteratorIPKcNSt7__cxx1112basic_stringIcSt11char_traitsIcESaIcEEEEmmEv:
LFB3315:
	.cfi_startproc
	push	ebp
	.cfi_def_cfa_offset 8
	.cfi_offset 5, -8
	mov	ebp, esp
	.cfi_def_cfa_register 5
	sub	esp, 4
	mov	DWORD PTR [ebp-4], ecx
	mov	eax, DWORD PTR [ebp-4]
	mov	eax, DWORD PTR [eax]
	lea	edx, [eax-1]
	mov	eax, DWORD PTR [ebp-4]
	mov	DWORD PTR [eax], edx
	mov	eax, DWORD PTR [ebp-4]
	leave
	.cfi_restore 5
	.cfi_def_cfa 4, 4
	ret
	.cfi_endproc
LFE3315:
	.section	.text$_ZSt19__iterator_categoryISt16reverse_iteratorIN9__gnu_cxx17__normal_iteratorIPKcNSt7__cxx1112basic_stringIcSt11char_traitsIcESaIcEEEEEEENSt15iterator_traitsIT_E17iterator_categoryERKSE_,"x"
	.linkonce discard
	.globl	__ZSt19__iterator_categoryISt16reverse_iteratorIN9__gnu_cxx17__normal_iteratorIPKcNSt7__cxx1112basic_stringIcSt11char_traitsIcESaIcEEEEEEENSt15iterator_traitsIT_E17iterator_categoryERKSE_
	.def	__ZSt19__iterator_categoryISt16reverse_iteratorIN9__gnu_cxx17__normal_iteratorIPKcNSt7__cxx1112basic_stringIcSt11char_traitsIcESaIcEEEEEEENSt15iterator_traitsIT_E17iterator_categoryERKSE_;	.scl	2;	.type	32;	.endef
__ZSt19__iterator_categoryISt16reverse_iteratorIN9__gnu_cxx17__normal_iteratorIPKcNSt7__cxx1112basic_stringIcSt11char_traitsIcESaIcEEEEEEENSt15iterator_traitsIT_E17iterator_categoryERKSE_:
LFB3316:
	.cfi_startproc
	push	ebp
	.cfi_def_cfa_offset 8
	.cfi_offset 5, -8
	mov	ebp, esp
	.cfi_def_cfa_register 5
	pop	ebp
	.cfi_restore 5
	.cfi_def_cfa 4, 4
	ret
	.cfi_endproc
LFE3316:
	.section	.text$_ZSt10__distanceISt16reverse_iteratorIN9__gnu_cxx17__normal_iteratorIPKcNSt7__cxx1112basic_stringIcSt11char_traitsIcESaIcEEEEEEENSt15iterator_traitsIT_E15difference_typeESE_SE_St26random_access_iterator_tag,"x"
	.linkonce discard
	.globl	__ZSt10__distanceISt16reverse_iteratorIN9__gnu_cxx17__normal_iteratorIPKcNSt7__cxx1112basic_stringIcSt11char_traitsIcESaIcEEEEEEENSt15iterator_traitsIT_E15difference_typeESE_SE_St26random_access_iterator_tag
	.def	__ZSt10__distanceISt16reverse_iteratorIN9__gnu_cxx17__normal_iteratorIPKcNSt7__cxx1112basic_stringIcSt11char_traitsIcESaIcEEEEEEENSt15iterator_traitsIT_E15difference_typeESE_SE_St26random_access_iterator_tag;	.scl	2;	.type	32;	.endef
__ZSt10__distanceISt16reverse_iteratorIN9__gnu_cxx17__normal_iteratorIPKcNSt7__cxx1112basic_stringIcSt11char_traitsIcESaIcEEEEEEENSt15iterator_traitsIT_E15difference_typeESE_SE_St26random_access_iterator_tag:
LFB3317:
	.cfi_startproc
	push	ebp
	.cfi_def_cfa_offset 8
	.cfi_offset 5, -8
	mov	ebp, esp
	.cfi_def_cfa_register 5
	sub	esp, 24
	mov	eax, DWORD PTR [ebp+8]
	mov	DWORD PTR [esp+4], eax
	mov	eax, DWORD PTR [ebp+12]
	mov	DWORD PTR [esp], eax
	call	__ZStmiIN9__gnu_cxx17__normal_iteratorIPKcNSt7__cxx1112basic_stringIcSt11char_traitsIcESaIcEEEEEEDTmicldtfp_4baseEcldtfp0_4baseEERKSt16reverse_iteratorIT_ESG_
	leave
	.cfi_restore 5
	.cfi_def_cfa 4, 4
	ret
	.cfi_endproc
LFE3317:
	.section	.text$_ZSt3minIjERKT_S2_S2_,"x"
	.linkonce discard
	.globl	__ZSt3minIjERKT_S2_S2_
	.def	__ZSt3minIjERKT_S2_S2_;	.scl	2;	.type	32;	.endef
__ZSt3minIjERKT_S2_S2_:
LFB3351:
	.cfi_startproc
	push	ebp
	.cfi_def_cfa_offset 8
	.cfi_offset 5, -8
	mov	ebp, esp
	.cfi_def_cfa_register 5
	mov	eax, DWORD PTR [ebp+12]
	mov	edx, DWORD PTR [eax]
	mov	eax, DWORD PTR [ebp+8]
	mov	eax, DWORD PTR [eax]
	cmp	edx, eax
	jnb	L398
	mov	eax, DWORD PTR [ebp+12]
	jmp	L399
L398:
	mov	eax, DWORD PTR [ebp+8]
L399:
	pop	ebp
	.cfi_restore 5
	.cfi_def_cfa 4, 4
	ret
	.cfi_endproc
LFE3351:
	.section .rdata,"dr"
LC46:
	.ascii "bitset::_M_copy_from_ptr\0"
	.section	.text$_ZNSt6bitsetILj48EE16_M_copy_from_ptrIcSt11char_traitsIcEEEvPKT_jjjS4_S4_,"x"
	.linkonce discard
	.align 2
	.globl	__ZNSt6bitsetILj48EE16_M_copy_from_ptrIcSt11char_traitsIcEEEvPKT_jjjS4_S4_
	.def	__ZNSt6bitsetILj48EE16_M_copy_from_ptrIcSt11char_traitsIcEEEvPKT_jjjS4_S4_;	.scl	2;	.type	32;	.endef
__ZNSt6bitsetILj48EE16_M_copy_from_ptrIcSt11char_traitsIcEEEvPKT_jjjS4_S4_:
LFB3350:
	.cfi_startproc
	push	ebp
	.cfi_def_cfa_offset 8
	.cfi_offset 5, -8
	mov	ebp, esp
	.cfi_def_cfa_register 5
	sub	esp, 72
	mov	DWORD PTR [ebp-44], ecx
	mov	edx, DWORD PTR [ebp+24]
	mov	eax, DWORD PTR [ebp+28]
	mov	BYTE PTR [ebp-48], dl
	mov	BYTE PTR [ebp-52], al
	mov	eax, DWORD PTR [ebp-44]
	mov	ecx, eax
	call	__ZNSt6bitsetILj48EE5resetEv
	mov	eax, DWORD PTR [ebp+12]
	sub	eax, DWORD PTR [ebp+16]
	mov	DWORD PTR [ebp-24], eax
	lea	eax, [ebp-24]
	mov	DWORD PTR [esp+4], eax
	lea	eax, [ebp+20]
	mov	DWORD PTR [esp], eax
	call	__ZSt3minIjERKT_S2_S2_
	mov	DWORD PTR [ebp-20], 48
	mov	DWORD PTR [esp+4], eax
	lea	eax, [ebp-20]
	mov	DWORD PTR [esp], eax
	call	__ZSt3minIjERKT_S2_S2_
	mov	eax, DWORD PTR [eax]
	mov	DWORD PTR [ebp-16], eax
	mov	eax, DWORD PTR [ebp-16]
	mov	DWORD PTR [ebp-12], eax
L404:
	cmp	DWORD PTR [ebp-12], 0
	je	L405
	mov	edx, DWORD PTR [ebp+16]
	mov	eax, DWORD PTR [ebp-16]
	add	eax, edx
	sub	eax, DWORD PTR [ebp-12]
	mov	edx, eax
	mov	eax, DWORD PTR [ebp+8]
	add	eax, edx
	movzx	eax, BYTE PTR [eax]
	mov	BYTE PTR [ebp-25], al
	lea	eax, [ebp-48]
	mov	DWORD PTR [esp+4], eax
	lea	eax, [ebp-25]
	mov	DWORD PTR [esp], eax
	call	__ZNSt11char_traitsIcE2eqERKcS2_
	test	al, al
	jne	L402
	lea	eax, [ebp-52]
	mov	DWORD PTR [esp+4], eax
	lea	eax, [ebp-25]
	mov	DWORD PTR [esp], eax
	call	__ZNSt11char_traitsIcE2eqERKcS2_
	test	al, al
	je	L403
	mov	eax, DWORD PTR [ebp-12]
	lea	edx, [eax-1]
	mov	eax, DWORD PTR [ebp-44]
	mov	DWORD PTR [esp], edx
	mov	ecx, eax
	call	__ZNSt6bitsetILj48EE14_Unchecked_setEj
	sub	esp, 4
	jmp	L402
L403:
	mov	DWORD PTR [esp], OFFSET FLAT:LC46
	call	__ZSt24__throw_invalid_argumentPKc
L402:
	sub	DWORD PTR [ebp-12], 1
	jmp	L404
L405:
	nop
	leave
	.cfi_restore 5
	.cfi_def_cfa 4, 4
	ret	24
	.cfi_endproc
LFE3350:
	.section	.text$_ZNSt12_Base_bitsetILj2EE9_M_do_xorERKS0_,"x"
	.linkonce discard
	.align 2
	.globl	__ZNSt12_Base_bitsetILj2EE9_M_do_xorERKS0_
	.def	__ZNSt12_Base_bitsetILj2EE9_M_do_xorERKS0_;	.scl	2;	.type	32;	.endef
__ZNSt12_Base_bitsetILj2EE9_M_do_xorERKS0_:
LFB3352:
	.cfi_startproc
	push	ebp
	.cfi_def_cfa_offset 8
	.cfi_offset 5, -8
	mov	ebp, esp
	.cfi_def_cfa_register 5
	sub	esp, 20
	mov	DWORD PTR [ebp-20], ecx
	mov	DWORD PTR [ebp-4], 0
L408:
	cmp	DWORD PTR [ebp-4], 1
	ja	L409
	mov	eax, DWORD PTR [ebp-20]
	mov	edx, DWORD PTR [ebp-4]
	mov	ecx, DWORD PTR [eax+edx*4]
	mov	eax, DWORD PTR [ebp+8]
	mov	edx, DWORD PTR [ebp-4]
	mov	eax, DWORD PTR [eax+edx*4]
	xor	ecx, eax
	mov	eax, DWORD PTR [ebp-20]
	mov	edx, DWORD PTR [ebp-4]
	mov	DWORD PTR [eax+edx*4], ecx
	add	DWORD PTR [ebp-4], 1
	jmp	L408
L409:
	nop
	leave
	.cfi_restore 5
	.cfi_def_cfa 4, 4
	ret	4
	.cfi_endproc
LFE3352:
	.section	.text$_ZNSt12_Base_bitsetILj2EE12_S_whichwordEj,"x"
	.linkonce discard
	.globl	__ZNSt12_Base_bitsetILj2EE12_S_whichwordEj
	.def	__ZNSt12_Base_bitsetILj2EE12_S_whichwordEj;	.scl	2;	.type	32;	.endef
__ZNSt12_Base_bitsetILj2EE12_S_whichwordEj:
LFB3356:
	.cfi_startproc
	push	ebp
	.cfi_def_cfa_offset 8
	.cfi_offset 5, -8
	mov	ebp, esp
	.cfi_def_cfa_register 5
	mov	eax, DWORD PTR [ebp+8]
	shr	eax, 5
	pop	ebp
	.cfi_restore 5
	.cfi_def_cfa 4, 4
	ret
	.cfi_endproc
LFE3356:
	.section	.text$_ZNKSt12_Base_bitsetILj2EE10_M_getwordEj,"x"
	.linkonce discard
	.align 2
	.globl	__ZNKSt12_Base_bitsetILj2EE10_M_getwordEj
	.def	__ZNKSt12_Base_bitsetILj2EE10_M_getwordEj;	.scl	2;	.type	32;	.endef
__ZNKSt12_Base_bitsetILj2EE10_M_getwordEj:
LFB3355:
	.cfi_startproc
	push	ebp
	.cfi_def_cfa_offset 8
	.cfi_offset 5, -8
	mov	ebp, esp
	.cfi_def_cfa_register 5
	sub	esp, 40
	mov	DWORD PTR [ebp-12], ecx
	mov	eax, DWORD PTR [ebp+8]
	mov	DWORD PTR [esp], eax
	call	__ZNSt12_Base_bitsetILj2EE12_S_whichwordEj
	mov	edx, eax
	mov	eax, DWORD PTR [ebp-12]
	mov	eax, DWORD PTR [eax+edx*4]
	leave
	.cfi_restore 5
	.cfi_def_cfa 4, 4
	ret	4
	.cfi_endproc
LFE3355:
	.section	.text$_ZNKSt6bitsetILj48EE15_Unchecked_testEj,"x"
	.linkonce discard
	.align 2
	.globl	__ZNKSt6bitsetILj48EE15_Unchecked_testEj
	.def	__ZNKSt6bitsetILj48EE15_Unchecked_testEj;	.scl	2;	.type	32;	.endef
__ZNKSt6bitsetILj48EE15_Unchecked_testEj:
LFB3354:
	.cfi_startproc
	push	ebp
	.cfi_def_cfa_offset 8
	.cfi_offset 5, -8
	mov	ebp, esp
	.cfi_def_cfa_register 5
	push	ebx
	sub	esp, 36
	.cfi_offset 3, -12
	mov	DWORD PTR [ebp-12], ecx
	mov	eax, DWORD PTR [ebp-12]
	mov	edx, DWORD PTR [ebp+8]
	mov	DWORD PTR [esp], edx
	mov	ecx, eax
	call	__ZNKSt12_Base_bitsetILj2EE10_M_getwordEj
	sub	esp, 4
	mov	ebx, eax
	mov	eax, DWORD PTR [ebp+8]
	mov	DWORD PTR [esp], eax
	call	__ZNSt12_Base_bitsetILj2EE10_S_maskbitEj
	and	eax, ebx
	test	eax, eax
	setne	al
	mov	ebx, DWORD PTR [ebp-4]
	leave
	.cfi_restore 5
	.cfi_restore 3
	.cfi_def_cfa 4, 4
	ret	4
	.cfi_endproc
LFE3354:
	.section	.text$_ZNKSt6bitsetILj48EE17_M_copy_to_stringIcSt11char_traitsIcESaIcEEEvRNSt7__cxx1112basic_stringIT_T0_T1_EES7_S7_,"x"
	.linkonce discard
	.align 2
	.globl	__ZNKSt6bitsetILj48EE17_M_copy_to_stringIcSt11char_traitsIcESaIcEEEvRNSt7__cxx1112basic_stringIT_T0_T1_EES7_S7_
	.def	__ZNKSt6bitsetILj48EE17_M_copy_to_stringIcSt11char_traitsIcESaIcEEEvRNSt7__cxx1112basic_stringIT_T0_T1_EES7_S7_;	.scl	2;	.type	32;	.endef
__ZNKSt6bitsetILj48EE17_M_copy_to_stringIcSt11char_traitsIcESaIcEEEvRNSt7__cxx1112basic_stringIT_T0_T1_EES7_S7_:
LFB3353:
	.cfi_startproc
	push	ebp
	.cfi_def_cfa_offset 8
	.cfi_offset 5, -8
	mov	ebp, esp
	.cfi_def_cfa_register 5
	sub	esp, 56
	mov	DWORD PTR [ebp-28], ecx
	mov	edx, DWORD PTR [ebp+12]
	mov	eax, DWORD PTR [ebp+16]
	mov	BYTE PTR [ebp-32], dl
	mov	BYTE PTR [ebp-36], al
	movsx	eax, BYTE PTR [ebp-32]
	mov	DWORD PTR [esp+4], eax
	mov	DWORD PTR [esp], 48
	mov	ecx, DWORD PTR [ebp+8]
	call	__ZNSt7__cxx1112basic_stringIcSt11char_traitsIcESaIcEE6assignEjc
	sub	esp, 8
	mov	DWORD PTR [ebp-12], 48
L419:
	cmp	DWORD PTR [ebp-12], 0
	je	L420
	mov	eax, DWORD PTR [ebp-12]
	lea	edx, [eax-1]
	mov	eax, DWORD PTR [ebp-28]
	mov	DWORD PTR [esp], edx
	mov	ecx, eax
	call	__ZNKSt6bitsetILj48EE15_Unchecked_testEj
	sub	esp, 4
	test	al, al
	je	L418
	mov	eax, 48
	sub	eax, DWORD PTR [ebp-12]
	mov	DWORD PTR [esp], eax
	mov	ecx, DWORD PTR [ebp+8]
	call	__ZNSt7__cxx1112basic_stringIcSt11char_traitsIcESaIcEEixEj
	sub	esp, 4
	mov	edx, eax
	lea	eax, [ebp-36]
	mov	DWORD PTR [esp+4], eax
	mov	DWORD PTR [esp], edx
	call	__ZNSt11char_traitsIcE6assignERcRKc
L418:
	sub	DWORD PTR [ebp-12], 1
	jmp	L419
L420:
	nop
	leave
	.cfi_restore 5
	.cfi_def_cfa 4, 4
	ret	12
	.cfi_endproc
LFE3353:
	.section	.text$_ZNSt6bitsetILj32EE16_M_copy_from_ptrIcSt11char_traitsIcEEEvPKT_jjjS4_S4_,"x"
	.linkonce discard
	.align 2
	.globl	__ZNSt6bitsetILj32EE16_M_copy_from_ptrIcSt11char_traitsIcEEEvPKT_jjjS4_S4_
	.def	__ZNSt6bitsetILj32EE16_M_copy_from_ptrIcSt11char_traitsIcEEEvPKT_jjjS4_S4_;	.scl	2;	.type	32;	.endef
__ZNSt6bitsetILj32EE16_M_copy_from_ptrIcSt11char_traitsIcEEEvPKT_jjjS4_S4_:
LFB3358:
	.cfi_startproc
	push	ebp
	.cfi_def_cfa_offset 8
	.cfi_offset 5, -8
	mov	ebp, esp
	.cfi_def_cfa_register 5
	sub	esp, 72
	mov	DWORD PTR [ebp-44], ecx
	mov	edx, DWORD PTR [ebp+24]
	mov	eax, DWORD PTR [ebp+28]
	mov	BYTE PTR [ebp-48], dl
	mov	BYTE PTR [ebp-52], al
	mov	eax, DWORD PTR [ebp-44]
	mov	ecx, eax
	call	__ZNSt6bitsetILj32EE5resetEv
	mov	eax, DWORD PTR [ebp+12]
	sub	eax, DWORD PTR [ebp+16]
	mov	DWORD PTR [ebp-24], eax
	lea	eax, [ebp-24]
	mov	DWORD PTR [esp+4], eax
	lea	eax, [ebp+20]
	mov	DWORD PTR [esp], eax
	call	__ZSt3minIjERKT_S2_S2_
	mov	DWORD PTR [ebp-20], 32
	mov	DWORD PTR [esp+4], eax
	lea	eax, [ebp-20]
	mov	DWORD PTR [esp], eax
	call	__ZSt3minIjERKT_S2_S2_
	mov	eax, DWORD PTR [eax]
	mov	DWORD PTR [ebp-16], eax
	mov	eax, DWORD PTR [ebp-16]
	mov	DWORD PTR [ebp-12], eax
L425:
	cmp	DWORD PTR [ebp-12], 0
	je	L426
	mov	edx, DWORD PTR [ebp+16]
	mov	eax, DWORD PTR [ebp-16]
	add	eax, edx
	sub	eax, DWORD PTR [ebp-12]
	mov	edx, eax
	mov	eax, DWORD PTR [ebp+8]
	add	eax, edx
	movzx	eax, BYTE PTR [eax]
	mov	BYTE PTR [ebp-25], al
	lea	eax, [ebp-48]
	mov	DWORD PTR [esp+4], eax
	lea	eax, [ebp-25]
	mov	DWORD PTR [esp], eax
	call	__ZNSt11char_traitsIcE2eqERKcS2_
	test	al, al
	jne	L423
	lea	eax, [ebp-52]
	mov	DWORD PTR [esp+4], eax
	lea	eax, [ebp-25]
	mov	DWORD PTR [esp], eax
	call	__ZNSt11char_traitsIcE2eqERKcS2_
	test	al, al
	je	L424
	mov	eax, DWORD PTR [ebp-12]
	lea	edx, [eax-1]
	mov	eax, DWORD PTR [ebp-44]
	mov	DWORD PTR [esp], edx
	mov	ecx, eax
	call	__ZNSt6bitsetILj32EE14_Unchecked_setEj
	sub	esp, 4
	jmp	L423
L424:
	mov	DWORD PTR [esp], OFFSET FLAT:LC46
	call	__ZSt24__throw_invalid_argumentPKc
L423:
	sub	DWORD PTR [ebp-12], 1
	jmp	L425
L426:
	nop
	leave
	.cfi_restore 5
	.cfi_def_cfa 4, 4
	ret	24
	.cfi_endproc
LFE3358:
	.section	.text$_ZNKSt6bitsetILj32EE15_Unchecked_testEj,"x"
	.linkonce discard
	.align 2
	.globl	__ZNKSt6bitsetILj32EE15_Unchecked_testEj
	.def	__ZNKSt6bitsetILj32EE15_Unchecked_testEj;	.scl	2;	.type	32;	.endef
__ZNKSt6bitsetILj32EE15_Unchecked_testEj:
LFB3360:
	.cfi_startproc
	push	ebp
	.cfi_def_cfa_offset 8
	.cfi_offset 5, -8
	mov	ebp, esp
	.cfi_def_cfa_register 5
	push	ebx
	sub	esp, 36
	.cfi_offset 3, -12
	mov	DWORD PTR [ebp-12], ecx
	mov	eax, DWORD PTR [ebp-12]
	mov	edx, DWORD PTR [ebp+8]
	mov	DWORD PTR [esp], edx
	mov	ecx, eax
	call	__ZNKSt12_Base_bitsetILj1EE10_M_getwordEj
	sub	esp, 4
	mov	ebx, eax
	mov	eax, DWORD PTR [ebp+8]
	mov	DWORD PTR [esp], eax
	call	__ZNSt12_Base_bitsetILj1EE10_S_maskbitEj
	and	eax, ebx
	test	eax, eax
	setne	al
	mov	ebx, DWORD PTR [ebp-4]
	leave
	.cfi_restore 5
	.cfi_restore 3
	.cfi_def_cfa 4, 4
	ret	4
	.cfi_endproc
LFE3360:
	.section	.text$_ZNKSt6bitsetILj32EE17_M_copy_to_stringIcSt11char_traitsIcESaIcEEEvRNSt7__cxx1112basic_stringIT_T0_T1_EES7_S7_,"x"
	.linkonce discard
	.align 2
	.globl	__ZNKSt6bitsetILj32EE17_M_copy_to_stringIcSt11char_traitsIcESaIcEEEvRNSt7__cxx1112basic_stringIT_T0_T1_EES7_S7_
	.def	__ZNKSt6bitsetILj32EE17_M_copy_to_stringIcSt11char_traitsIcESaIcEEEvRNSt7__cxx1112basic_stringIT_T0_T1_EES7_S7_;	.scl	2;	.type	32;	.endef
__ZNKSt6bitsetILj32EE17_M_copy_to_stringIcSt11char_traitsIcESaIcEEEvRNSt7__cxx1112basic_stringIT_T0_T1_EES7_S7_:
LFB3359:
	.cfi_startproc
	push	ebp
	.cfi_def_cfa_offset 8
	.cfi_offset 5, -8
	mov	ebp, esp
	.cfi_def_cfa_register 5
	sub	esp, 56
	mov	DWORD PTR [ebp-28], ecx
	mov	edx, DWORD PTR [ebp+12]
	mov	eax, DWORD PTR [ebp+16]
	mov	BYTE PTR [ebp-32], dl
	mov	BYTE PTR [ebp-36], al
	movsx	eax, BYTE PTR [ebp-32]
	mov	DWORD PTR [esp+4], eax
	mov	DWORD PTR [esp], 32
	mov	ecx, DWORD PTR [ebp+8]
	call	__ZNSt7__cxx1112basic_stringIcSt11char_traitsIcESaIcEE6assignEjc
	sub	esp, 8
	mov	DWORD PTR [ebp-12], 32
L432:
	cmp	DWORD PTR [ebp-12], 0
	je	L433
	mov	eax, DWORD PTR [ebp-12]
	lea	edx, [eax-1]
	mov	eax, DWORD PTR [ebp-28]
	mov	DWORD PTR [esp], edx
	mov	ecx, eax
	call	__ZNKSt6bitsetILj32EE15_Unchecked_testEj
	sub	esp, 4
	test	al, al
	je	L431
	mov	eax, 32
	sub	eax, DWORD PTR [ebp-12]
	mov	DWORD PTR [esp], eax
	mov	ecx, DWORD PTR [ebp+8]
	call	__ZNSt7__cxx1112basic_stringIcSt11char_traitsIcESaIcEEixEj
	sub	esp, 4
	mov	edx, eax
	lea	eax, [ebp-36]
	mov	DWORD PTR [esp+4], eax
	mov	DWORD PTR [esp], edx
	call	__ZNSt11char_traitsIcE6assignERcRKc
L431:
	sub	DWORD PTR [ebp-12], 1
	jmp	L432
L433:
	nop
	leave
	.cfi_restore 5
	.cfi_def_cfa 4, 4
	ret	12
	.cfi_endproc
LFE3359:
	.section	.text$_ZN9__gnu_cxxmiIPKcNSt7__cxx1112basic_stringIcSt11char_traitsIcESaIcEEEEENS_17__normal_iteratorIT_T0_E15difference_typeERKSC_SF_,"x"
	.linkonce discard
	.globl	__ZN9__gnu_cxxmiIPKcNSt7__cxx1112basic_stringIcSt11char_traitsIcESaIcEEEEENS_17__normal_iteratorIT_T0_E15difference_typeERKSC_SF_
	.def	__ZN9__gnu_cxxmiIPKcNSt7__cxx1112basic_stringIcSt11char_traitsIcESaIcEEEEENS_17__normal_iteratorIT_T0_E15difference_typeERKSC_SF_;	.scl	2;	.type	32;	.endef
__ZN9__gnu_cxxmiIPKcNSt7__cxx1112basic_stringIcSt11char_traitsIcESaIcEEEEENS_17__normal_iteratorIT_T0_E15difference_typeERKSC_SF_:
LFB3361:
	.cfi_startproc
	push	ebp
	.cfi_def_cfa_offset 8
	.cfi_offset 5, -8
	mov	ebp, esp
	.cfi_def_cfa_register 5
	push	ebx
	sub	esp, 4
	.cfi_offset 3, -12
	mov	ecx, DWORD PTR [ebp+8]
	call	__ZNK9__gnu_cxx17__normal_iteratorIPKcNSt7__cxx1112basic_stringIcSt11char_traitsIcESaIcEEEE4baseEv
	mov	eax, DWORD PTR [eax]
	mov	ebx, eax
	mov	eax, DWORD PTR [ebp+12]
	mov	ecx, eax
	call	__ZNK9__gnu_cxx17__normal_iteratorIPKcNSt7__cxx1112basic_stringIcSt11char_traitsIcESaIcEEEE4baseEv
	mov	eax, DWORD PTR [eax]
	sub	ebx, eax
	mov	eax, ebx
	add	esp, 4
	pop	ebx
	.cfi_restore 3
	pop	ebp
	.cfi_restore 5
	.cfi_def_cfa 4, 4
	ret
	.cfi_endproc
LFE3361:
	.section	.text$_ZN9__gnu_cxx5__ops16_Iter_equals_valIKiEC1ERS2_,"x"
	.linkonce discard
	.align 2
	.globl	__ZN9__gnu_cxx5__ops16_Iter_equals_valIKiEC1ERS2_
	.def	__ZN9__gnu_cxx5__ops16_Iter_equals_valIKiEC1ERS2_;	.scl	2;	.type	32;	.endef
__ZN9__gnu_cxx5__ops16_Iter_equals_valIKiEC1ERS2_:
LFB3364:
	.cfi_startproc
	push	ebp
	.cfi_def_cfa_offset 8
	.cfi_offset 5, -8
	mov	ebp, esp
	.cfi_def_cfa_register 5
	sub	esp, 4
	mov	DWORD PTR [ebp-4], ecx
	mov	eax, DWORD PTR [ebp-4]
	mov	edx, DWORD PTR [ebp+8]
	mov	DWORD PTR [eax], edx
	nop
	leave
	.cfi_restore 5
	.cfi_def_cfa 4, 4
	ret	4
	.cfi_endproc
LFE3364:
	.section	.text$_ZSt9__find_ifIPKiN9__gnu_cxx5__ops16_Iter_equals_valIS0_EEET_S6_S6_T0_St26random_access_iterator_tag,"x"
	.linkonce discard
	.globl	__ZSt9__find_ifIPKiN9__gnu_cxx5__ops16_Iter_equals_valIS0_EEET_S6_S6_T0_St26random_access_iterator_tag
	.def	__ZSt9__find_ifIPKiN9__gnu_cxx5__ops16_Iter_equals_valIS0_EEET_S6_S6_T0_St26random_access_iterator_tag;	.scl	2;	.type	32;	.endef
__ZSt9__find_ifIPKiN9__gnu_cxx5__ops16_Iter_equals_valIS0_EEET_S6_S6_T0_St26random_access_iterator_tag:
LFB3365:
	.cfi_startproc
	push	ebp
	.cfi_def_cfa_offset 8
	.cfi_offset 5, -8
	mov	ebp, esp
	.cfi_def_cfa_register 5
	sub	esp, 40
	mov	edx, DWORD PTR [ebp+12]
	mov	eax, DWORD PTR [ebp+8]
	sub	edx, eax
	mov	eax, edx
	sar	eax, 2
	sar	eax, 2
	mov	DWORD PTR [ebp-12], eax
L444:
	cmp	DWORD PTR [ebp-12], 0
	jle	L438
	lea	eax, [ebp+16]
	mov	edx, DWORD PTR [ebp+8]
	mov	DWORD PTR [esp], edx
	mov	ecx, eax
	call	__ZN9__gnu_cxx5__ops16_Iter_equals_valIKiEclIPS2_EEbT_
	sub	esp, 4
	test	al, al
	je	L439
	mov	eax, DWORD PTR [ebp+8]
	jmp	L440
L439:
	add	DWORD PTR [ebp+8], 4
	lea	eax, [ebp+16]
	mov	edx, DWORD PTR [ebp+8]
	mov	DWORD PTR [esp], edx
	mov	ecx, eax
	call	__ZN9__gnu_cxx5__ops16_Iter_equals_valIKiEclIPS2_EEbT_
	sub	esp, 4
	test	al, al
	je	L441
	mov	eax, DWORD PTR [ebp+8]
	jmp	L440
L441:
	add	DWORD PTR [ebp+8], 4
	lea	eax, [ebp+16]
	mov	edx, DWORD PTR [ebp+8]
	mov	DWORD PTR [esp], edx
	mov	ecx, eax
	call	__ZN9__gnu_cxx5__ops16_Iter_equals_valIKiEclIPS2_EEbT_
	sub	esp, 4
	test	al, al
	je	L442
	mov	eax, DWORD PTR [ebp+8]
	jmp	L440
L442:
	add	DWORD PTR [ebp+8], 4
	lea	eax, [ebp+16]
	mov	edx, DWORD PTR [ebp+8]
	mov	DWORD PTR [esp], edx
	mov	ecx, eax
	call	__ZN9__gnu_cxx5__ops16_Iter_equals_valIKiEclIPS2_EEbT_
	sub	esp, 4
	test	al, al
	je	L443
	mov	eax, DWORD PTR [ebp+8]
	jmp	L440
L443:
	add	DWORD PTR [ebp+8], 4
	sub	DWORD PTR [ebp-12], 1
	jmp	L444
L438:
	mov	edx, DWORD PTR [ebp+12]
	mov	eax, DWORD PTR [ebp+8]
	sub	edx, eax
	mov	eax, edx
	sar	eax, 2
	cmp	eax, 2
	je	L446
	cmp	eax, 3
	je	L447
	cmp	eax, 1
	je	L448
	jmp	L445
L447:
	lea	eax, [ebp+16]
	mov	edx, DWORD PTR [ebp+8]
	mov	DWORD PTR [esp], edx
	mov	ecx, eax
	call	__ZN9__gnu_cxx5__ops16_Iter_equals_valIKiEclIPS2_EEbT_
	sub	esp, 4
	test	al, al
	je	L449
	mov	eax, DWORD PTR [ebp+8]
	jmp	L440
L449:
	add	DWORD PTR [ebp+8], 4
L446:
	lea	eax, [ebp+16]
	mov	edx, DWORD PTR [ebp+8]
	mov	DWORD PTR [esp], edx
	mov	ecx, eax
	call	__ZN9__gnu_cxx5__ops16_Iter_equals_valIKiEclIPS2_EEbT_
	sub	esp, 4
	test	al, al
	je	L450
	mov	eax, DWORD PTR [ebp+8]
	jmp	L440
L450:
	add	DWORD PTR [ebp+8], 4
L448:
	lea	eax, [ebp+16]
	mov	edx, DWORD PTR [ebp+8]
	mov	DWORD PTR [esp], edx
	mov	ecx, eax
	call	__ZN9__gnu_cxx5__ops16_Iter_equals_valIKiEclIPS2_EEbT_
	sub	esp, 4
	test	al, al
	je	L451
	mov	eax, DWORD PTR [ebp+8]
	jmp	L440
L451:
	add	DWORD PTR [ebp+8], 4
L445:
	mov	eax, DWORD PTR [ebp+12]
L440:
	leave
	.cfi_restore 5
	.cfi_def_cfa 4, 4
	ret
	.cfi_endproc
LFE3365:
	.section	.text$_ZNSt12_Base_bitsetILj2EE10_M_getwordEj,"x"
	.linkonce discard
	.align 2
	.globl	__ZNSt12_Base_bitsetILj2EE10_M_getwordEj
	.def	__ZNSt12_Base_bitsetILj2EE10_M_getwordEj;	.scl	2;	.type	32;	.endef
__ZNSt12_Base_bitsetILj2EE10_M_getwordEj:
LFB3366:
	.cfi_startproc
	push	ebp
	.cfi_def_cfa_offset 8
	.cfi_offset 5, -8
	mov	ebp, esp
	.cfi_def_cfa_register 5
	sub	esp, 40
	mov	DWORD PTR [ebp-12], ecx
	mov	eax, DWORD PTR [ebp+8]
	mov	DWORD PTR [esp], eax
	call	__ZNSt12_Base_bitsetILj2EE12_S_whichwordEj
	lea	edx, [0+eax*4]
	mov	eax, DWORD PTR [ebp-12]
	add	eax, edx
	leave
	.cfi_restore 5
	.cfi_def_cfa 4, 4
	ret	4
	.cfi_endproc
LFE3366:
	.section	.text$_ZNKSt6bitsetILj64EE15_Unchecked_testEj,"x"
	.linkonce discard
	.align 2
	.globl	__ZNKSt6bitsetILj64EE15_Unchecked_testEj
	.def	__ZNKSt6bitsetILj64EE15_Unchecked_testEj;	.scl	2;	.type	32;	.endef
__ZNKSt6bitsetILj64EE15_Unchecked_testEj:
LFB3368:
	.cfi_startproc
	push	ebp
	.cfi_def_cfa_offset 8
	.cfi_offset 5, -8
	mov	ebp, esp
	.cfi_def_cfa_register 5
	push	ebx
	sub	esp, 36
	.cfi_offset 3, -12
	mov	DWORD PTR [ebp-12], ecx
	mov	eax, DWORD PTR [ebp-12]
	mov	edx, DWORD PTR [ebp+8]
	mov	DWORD PTR [esp], edx
	mov	ecx, eax
	call	__ZNKSt12_Base_bitsetILj2EE10_M_getwordEj
	sub	esp, 4
	mov	ebx, eax
	mov	eax, DWORD PTR [ebp+8]
	mov	DWORD PTR [esp], eax
	call	__ZNSt12_Base_bitsetILj2EE10_S_maskbitEj
	and	eax, ebx
	test	eax, eax
	setne	al
	mov	ebx, DWORD PTR [ebp-4]
	leave
	.cfi_restore 5
	.cfi_restore 3
	.cfi_def_cfa 4, 4
	ret	4
	.cfi_endproc
LFE3368:
	.section	.text$_ZNKSt6bitsetILj64EE17_M_copy_to_stringIcSt11char_traitsIcESaIcEEEvRNSt7__cxx1112basic_stringIT_T0_T1_EES7_S7_,"x"
	.linkonce discard
	.align 2
	.globl	__ZNKSt6bitsetILj64EE17_M_copy_to_stringIcSt11char_traitsIcESaIcEEEvRNSt7__cxx1112basic_stringIT_T0_T1_EES7_S7_
	.def	__ZNKSt6bitsetILj64EE17_M_copy_to_stringIcSt11char_traitsIcESaIcEEEvRNSt7__cxx1112basic_stringIT_T0_T1_EES7_S7_;	.scl	2;	.type	32;	.endef
__ZNKSt6bitsetILj64EE17_M_copy_to_stringIcSt11char_traitsIcESaIcEEEvRNSt7__cxx1112basic_stringIT_T0_T1_EES7_S7_:
LFB3367:
	.cfi_startproc
	push	ebp
	.cfi_def_cfa_offset 8
	.cfi_offset 5, -8
	mov	ebp, esp
	.cfi_def_cfa_register 5
	sub	esp, 56
	mov	DWORD PTR [ebp-28], ecx
	mov	edx, DWORD PTR [ebp+12]
	mov	eax, DWORD PTR [ebp+16]
	mov	BYTE PTR [ebp-32], dl
	mov	BYTE PTR [ebp-36], al
	movsx	eax, BYTE PTR [ebp-32]
	mov	DWORD PTR [esp+4], eax
	mov	DWORD PTR [esp], 64
	mov	ecx, DWORD PTR [ebp+8]
	call	__ZNSt7__cxx1112basic_stringIcSt11char_traitsIcESaIcEE6assignEjc
	sub	esp, 8
	mov	DWORD PTR [ebp-12], 64
L459:
	cmp	DWORD PTR [ebp-12], 0
	je	L460
	mov	eax, DWORD PTR [ebp-12]
	lea	edx, [eax-1]
	mov	eax, DWORD PTR [ebp-28]
	mov	DWORD PTR [esp], edx
	mov	ecx, eax
	call	__ZNKSt6bitsetILj64EE15_Unchecked_testEj
	sub	esp, 4
	test	al, al
	je	L458
	mov	eax, 64
	sub	eax, DWORD PTR [ebp-12]
	mov	DWORD PTR [esp], eax
	mov	ecx, DWORD PTR [ebp+8]
	call	__ZNSt7__cxx1112basic_stringIcSt11char_traitsIcESaIcEEixEj
	sub	esp, 4
	mov	edx, eax
	lea	eax, [ebp-36]
	mov	DWORD PTR [esp+4], eax
	mov	DWORD PTR [esp], edx
	call	__ZNSt11char_traitsIcE6assignERcRKc
L458:
	sub	DWORD PTR [ebp-12], 1
	jmp	L459
L460:
	nop
	leave
	.cfi_restore 5
	.cfi_def_cfa 4, 4
	ret	12
	.cfi_endproc
LFE3367:
	.section	.text$_ZN9__gnu_cxxeqIPcNSt7__cxx1112basic_stringIcSt11char_traitsIcESaIcEEEEEbRKNS_17__normal_iteratorIT_T0_EESD_,"x"
	.linkonce discard
	.globl	__ZN9__gnu_cxxeqIPcNSt7__cxx1112basic_stringIcSt11char_traitsIcESaIcEEEEEbRKNS_17__normal_iteratorIT_T0_EESD_
	.def	__ZN9__gnu_cxxeqIPcNSt7__cxx1112basic_stringIcSt11char_traitsIcESaIcEEEEEbRKNS_17__normal_iteratorIT_T0_EESD_;	.scl	2;	.type	32;	.endef
__ZN9__gnu_cxxeqIPcNSt7__cxx1112basic_stringIcSt11char_traitsIcESaIcEEEEEbRKNS_17__normal_iteratorIT_T0_EESD_:
LFB3371:
	.cfi_startproc
	push	ebp
	.cfi_def_cfa_offset 8
	.cfi_offset 5, -8
	mov	ebp, esp
	.cfi_def_cfa_register 5
	push	ebx
	sub	esp, 4
	.cfi_offset 3, -12
	mov	ecx, DWORD PTR [ebp+8]
	call	__ZNK9__gnu_cxx17__normal_iteratorIPcNSt7__cxx1112basic_stringIcSt11char_traitsIcESaIcEEEE4baseEv
	mov	ebx, DWORD PTR [eax]
	mov	eax, DWORD PTR [ebp+12]
	mov	ecx, eax
	call	__ZNK9__gnu_cxx17__normal_iteratorIPcNSt7__cxx1112basic_stringIcSt11char_traitsIcESaIcEEEE4baseEv
	mov	eax, DWORD PTR [eax]
	cmp	ebx, eax
	sete	al
	add	esp, 4
	pop	ebx
	.cfi_restore 3
	pop	ebp
	.cfi_restore 5
	.cfi_def_cfa 4, 4
	ret
	.cfi_endproc
LFE3371:
	.section	.text$_ZN9__gnu_cxxmiIPcNSt7__cxx1112basic_stringIcSt11char_traitsIcESaIcEEEEENS_17__normal_iteratorIT_T0_E15difference_typeERKSB_SE_,"x"
	.linkonce discard
	.globl	__ZN9__gnu_cxxmiIPcNSt7__cxx1112basic_stringIcSt11char_traitsIcESaIcEEEEENS_17__normal_iteratorIT_T0_E15difference_typeERKSB_SE_
	.def	__ZN9__gnu_cxxmiIPcNSt7__cxx1112basic_stringIcSt11char_traitsIcESaIcEEEEENS_17__normal_iteratorIT_T0_E15difference_typeERKSB_SE_;	.scl	2;	.type	32;	.endef
__ZN9__gnu_cxxmiIPcNSt7__cxx1112basic_stringIcSt11char_traitsIcESaIcEEEEENS_17__normal_iteratorIT_T0_E15difference_typeERKSB_SE_:
LFB3372:
	.cfi_startproc
	push	ebp
	.cfi_def_cfa_offset 8
	.cfi_offset 5, -8
	mov	ebp, esp
	.cfi_def_cfa_register 5
	push	ebx
	sub	esp, 4
	.cfi_offset 3, -12
	mov	ecx, DWORD PTR [ebp+8]
	call	__ZNK9__gnu_cxx17__normal_iteratorIPcNSt7__cxx1112basic_stringIcSt11char_traitsIcESaIcEEEE4baseEv
	mov	eax, DWORD PTR [eax]
	mov	ebx, eax
	mov	eax, DWORD PTR [ebp+12]
	mov	ecx, eax
	call	__ZNK9__gnu_cxx17__normal_iteratorIPcNSt7__cxx1112basic_stringIcSt11char_traitsIcESaIcEEEE4baseEv
	mov	eax, DWORD PTR [eax]
	sub	ebx, eax
	mov	eax, ebx
	add	esp, 4
	pop	ebx
	.cfi_restore 3
	pop	ebp
	.cfi_restore 5
	.cfi_def_cfa 4, 4
	ret
	.cfi_endproc
LFE3372:
	.section	.text$_ZSt11swap_rangesIN9__gnu_cxx17__normal_iteratorIPcNSt7__cxx1112basic_stringIcSt11char_traitsIcESaIcEEEEES9_ET0_T_SB_SA_,"x"
	.linkonce discard
	.globl	__ZSt11swap_rangesIN9__gnu_cxx17__normal_iteratorIPcNSt7__cxx1112basic_stringIcSt11char_traitsIcESaIcEEEEES9_ET0_T_SB_SA_
	.def	__ZSt11swap_rangesIN9__gnu_cxx17__normal_iteratorIPcNSt7__cxx1112basic_stringIcSt11char_traitsIcESaIcEEEEES9_ET0_T_SB_SA_;	.scl	2;	.type	32;	.endef
__ZSt11swap_rangesIN9__gnu_cxx17__normal_iteratorIPcNSt7__cxx1112basic_stringIcSt11char_traitsIcESaIcEEEEES9_ET0_T_SB_SA_:
LFB3373:
	.cfi_startproc
	push	ebp
	.cfi_def_cfa_offset 8
	.cfi_offset 5, -8
	mov	ebp, esp
	.cfi_def_cfa_register 5
	sub	esp, 24
L467:
	lea	eax, [ebp+12]
	mov	DWORD PTR [esp+4], eax
	lea	eax, [ebp+8]
	mov	DWORD PTR [esp], eax
	call	__ZN9__gnu_cxxneIPcNSt7__cxx1112basic_stringIcSt11char_traitsIcESaIcEEEEEbRKNS_17__normal_iteratorIT_T0_EESD_
	test	al, al
	je	L466
	mov	eax, DWORD PTR [ebp+16]
	mov	DWORD PTR [esp+4], eax
	mov	eax, DWORD PTR [ebp+8]
	mov	DWORD PTR [esp], eax
	call	__ZSt9iter_swapIN9__gnu_cxx17__normal_iteratorIPcNSt7__cxx1112basic_stringIcSt11char_traitsIcESaIcEEEEES9_EvT_T0_
	lea	ecx, [ebp+8]
	call	__ZN9__gnu_cxx17__normal_iteratorIPcNSt7__cxx1112basic_stringIcSt11char_traitsIcESaIcEEEEppEv
	lea	eax, [ebp+16]
	mov	ecx, eax
	call	__ZN9__gnu_cxx17__normal_iteratorIPcNSt7__cxx1112basic_stringIcSt11char_traitsIcESaIcEEEEppEv
	jmp	L467
L466:
	mov	eax, DWORD PTR [ebp+16]
	leave
	.cfi_restore 5
	.cfi_def_cfa 4, 4
	ret
	.cfi_endproc
LFE3373:
	.section	.text$_ZNK9__gnu_cxx17__normal_iteratorIPcNSt7__cxx1112basic_stringIcSt11char_traitsIcESaIcEEEEdeEv,"x"
	.linkonce discard
	.align 2
	.globl	__ZNK9__gnu_cxx17__normal_iteratorIPcNSt7__cxx1112basic_stringIcSt11char_traitsIcESaIcEEEEdeEv
	.def	__ZNK9__gnu_cxx17__normal_iteratorIPcNSt7__cxx1112basic_stringIcSt11char_traitsIcESaIcEEEEdeEv;	.scl	2;	.type	32;	.endef
__ZNK9__gnu_cxx17__normal_iteratorIPcNSt7__cxx1112basic_stringIcSt11char_traitsIcESaIcEEEEdeEv:
LFB3374:
	.cfi_startproc
	push	ebp
	.cfi_def_cfa_offset 8
	.cfi_offset 5, -8
	mov	ebp, esp
	.cfi_def_cfa_register 5
	sub	esp, 4
	mov	DWORD PTR [ebp-4], ecx
	mov	eax, DWORD PTR [ebp-4]
	mov	eax, DWORD PTR [eax]
	leave
	.cfi_restore 5
	.cfi_def_cfa 4, 4
	ret
	.cfi_endproc
LFE3374:
	.section	.text$_ZSt4moveIN9__gnu_cxx17__normal_iteratorIPcNSt7__cxx1112basic_stringIcSt11char_traitsIcESaIcEEEEES9_ET0_T_SB_SA_,"x"
	.linkonce discard
	.globl	__ZSt4moveIN9__gnu_cxx17__normal_iteratorIPcNSt7__cxx1112basic_stringIcSt11char_traitsIcESaIcEEEEES9_ET0_T_SB_SA_
	.def	__ZSt4moveIN9__gnu_cxx17__normal_iteratorIPcNSt7__cxx1112basic_stringIcSt11char_traitsIcESaIcEEEEES9_ET0_T_SB_SA_;	.scl	2;	.type	32;	.endef
__ZSt4moveIN9__gnu_cxx17__normal_iteratorIPcNSt7__cxx1112basic_stringIcSt11char_traitsIcESaIcEEEEES9_ET0_T_SB_SA_:
LFB3375:
	.cfi_startproc
	push	ebp
	.cfi_def_cfa_offset 8
	.cfi_offset 5, -8
	mov	ebp, esp
	.cfi_def_cfa_register 5
	push	ebx
	sub	esp, 20
	.cfi_offset 3, -12
	mov	eax, DWORD PTR [ebp+12]
	mov	DWORD PTR [esp], eax
	call	__ZSt12__miter_baseIN9__gnu_cxx17__normal_iteratorIPcNSt7__cxx1112basic_stringIcSt11char_traitsIcESaIcEEEEEET_SA_
	mov	ebx, eax
	mov	eax, DWORD PTR [ebp+8]
	mov	DWORD PTR [esp], eax
	call	__ZSt12__miter_baseIN9__gnu_cxx17__normal_iteratorIPcNSt7__cxx1112basic_stringIcSt11char_traitsIcESaIcEEEEEET_SA_
	mov	edx, eax
	mov	eax, DWORD PTR [ebp+16]
	mov	DWORD PTR [esp+8], eax
	mov	DWORD PTR [esp+4], ebx
	mov	DWORD PTR [esp], edx
	call	__ZSt14__copy_move_a2ILb1EN9__gnu_cxx17__normal_iteratorIPcNSt7__cxx1112basic_stringIcSt11char_traitsIcESaIcEEEEES9_ET1_T0_SB_SA_
	add	esp, 20
	pop	ebx
	.cfi_restore 3
	pop	ebp
	.cfi_restore 5
	.cfi_def_cfa 4, 4
	ret
	.cfi_endproc
LFE3375:
	.section	.text$_ZNK9__gnu_cxx17__normal_iteratorIPcNSt7__cxx1112basic_stringIcSt11char_traitsIcESaIcEEEEmiEi,"x"
	.linkonce discard
	.align 2
	.globl	__ZNK9__gnu_cxx17__normal_iteratorIPcNSt7__cxx1112basic_stringIcSt11char_traitsIcESaIcEEEEmiEi
	.def	__ZNK9__gnu_cxx17__normal_iteratorIPcNSt7__cxx1112basic_stringIcSt11char_traitsIcESaIcEEEEmiEi;	.scl	2;	.type	32;	.endef
__ZNK9__gnu_cxx17__normal_iteratorIPcNSt7__cxx1112basic_stringIcSt11char_traitsIcESaIcEEEEmiEi:
LFB3376:
	.cfi_startproc
	push	ebp
	.cfi_def_cfa_offset 8
	.cfi_offset 5, -8
	mov	ebp, esp
	.cfi_def_cfa_register 5
	sub	esp, 56
	mov	DWORD PTR [ebp-28], ecx
	mov	eax, DWORD PTR [ebp-28]
	mov	eax, DWORD PTR [eax]
	mov	edx, DWORD PTR [ebp+8]
	neg	edx
	add	eax, edx
	mov	DWORD PTR [ebp-12], eax
	lea	eax, [ebp-16]
	lea	edx, [ebp-12]
	mov	DWORD PTR [esp], edx
	mov	ecx, eax
	call	__ZN9__gnu_cxx17__normal_iteratorIPcNSt7__cxx1112basic_stringIcSt11char_traitsIcESaIcEEEEC1ERKS1_
	sub	esp, 4
	mov	eax, DWORD PTR [ebp-16]
	leave
	.cfi_restore 5
	.cfi_def_cfa 4, 4
	ret	4
	.cfi_endproc
LFE3376:
	.section	.text$_ZSt9iter_swapIN9__gnu_cxx17__normal_iteratorIPcNSt7__cxx1112basic_stringIcSt11char_traitsIcESaIcEEEEES9_EvT_T0_,"x"
	.linkonce discard
	.globl	__ZSt9iter_swapIN9__gnu_cxx17__normal_iteratorIPcNSt7__cxx1112basic_stringIcSt11char_traitsIcESaIcEEEEES9_EvT_T0_
	.def	__ZSt9iter_swapIN9__gnu_cxx17__normal_iteratorIPcNSt7__cxx1112basic_stringIcSt11char_traitsIcESaIcEEEEES9_EvT_T0_;	.scl	2;	.type	32;	.endef
__ZSt9iter_swapIN9__gnu_cxx17__normal_iteratorIPcNSt7__cxx1112basic_stringIcSt11char_traitsIcESaIcEEEEES9_EvT_T0_:
LFB3377:
	.cfi_startproc
	push	ebp
	.cfi_def_cfa_offset 8
	.cfi_offset 5, -8
	mov	ebp, esp
	.cfi_def_cfa_register 5
	push	ebx
	sub	esp, 20
	.cfi_offset 3, -12
	lea	eax, [ebp+12]
	mov	ecx, eax
	call	__ZNK9__gnu_cxx17__normal_iteratorIPcNSt7__cxx1112basic_stringIcSt11char_traitsIcESaIcEEEEdeEv
	mov	ebx, eax
	lea	ecx, [ebp+8]
	call	__ZNK9__gnu_cxx17__normal_iteratorIPcNSt7__cxx1112basic_stringIcSt11char_traitsIcESaIcEEEEdeEv
	mov	DWORD PTR [esp+4], ebx
	mov	DWORD PTR [esp], eax
	call	__ZSt4swapIcENSt9enable_ifIXsrSt6__and_IJSt21is_move_constructibleIT_ESt18is_move_assignableIS3_EEE5valueEvE4typeERS3_SA_
	nop
	add	esp, 20
	pop	ebx
	.cfi_restore 3
	pop	ebp
	.cfi_restore 5
	.cfi_def_cfa 4, 4
	ret
	.cfi_endproc
LFE3377:
	.section	.text$_ZN9__gnu_cxx17__normal_iteratorIPcNSt7__cxx1112basic_stringIcSt11char_traitsIcESaIcEEEEppEv,"x"
	.linkonce discard
	.align 2
	.globl	__ZN9__gnu_cxx17__normal_iteratorIPcNSt7__cxx1112basic_stringIcSt11char_traitsIcESaIcEEEEppEv
	.def	__ZN9__gnu_cxx17__normal_iteratorIPcNSt7__cxx1112basic_stringIcSt11char_traitsIcESaIcEEEEppEv;	.scl	2;	.type	32;	.endef
__ZN9__gnu_cxx17__normal_iteratorIPcNSt7__cxx1112basic_stringIcSt11char_traitsIcESaIcEEEEppEv:
LFB3378:
	.cfi_startproc
	push	ebp
	.cfi_def_cfa_offset 8
	.cfi_offset 5, -8
	mov	ebp, esp
	.cfi_def_cfa_register 5
	sub	esp, 4
	mov	DWORD PTR [ebp-4], ecx
	mov	eax, DWORD PTR [ebp-4]
	mov	eax, DWORD PTR [eax]
	lea	edx, [eax+1]
	mov	eax, DWORD PTR [ebp-4]
	mov	DWORD PTR [eax], edx
	mov	eax, DWORD PTR [ebp-4]
	leave
	.cfi_restore 5
	.cfi_def_cfa 4, 4
	ret
	.cfi_endproc
LFE3378:
	.section	.text$_ZSt4moveIRiEONSt16remove_referenceIT_E4typeEOS2_,"x"
	.linkonce discard
	.globl	__ZSt4moveIRiEONSt16remove_referenceIT_E4typeEOS2_
	.def	__ZSt4moveIRiEONSt16remove_referenceIT_E4typeEOS2_;	.scl	2;	.type	32;	.endef
__ZSt4moveIRiEONSt16remove_referenceIT_E4typeEOS2_:
LFB3380:
	.cfi_startproc
	push	ebp
	.cfi_def_cfa_offset 8
	.cfi_offset 5, -8
	mov	ebp, esp
	.cfi_def_cfa_register 5
	mov	eax, DWORD PTR [ebp+8]
	pop	ebp
	.cfi_restore 5
	.cfi_def_cfa 4, 4
	ret
	.cfi_endproc
LFE3380:
	.section	.text$_ZSt4swapIiENSt9enable_ifIXsrSt6__and_IJSt21is_move_constructibleIT_ESt18is_move_assignableIS3_EEE5valueEvE4typeERS3_SA_,"x"
	.linkonce discard
	.globl	__ZSt4swapIiENSt9enable_ifIXsrSt6__and_IJSt21is_move_constructibleIT_ESt18is_move_assignableIS3_EEE5valueEvE4typeERS3_SA_
	.def	__ZSt4swapIiENSt9enable_ifIXsrSt6__and_IJSt21is_move_constructibleIT_ESt18is_move_assignableIS3_EEE5valueEvE4typeERS3_SA_;	.scl	2;	.type	32;	.endef
__ZSt4swapIiENSt9enable_ifIXsrSt6__and_IJSt21is_move_constructibleIT_ESt18is_move_assignableIS3_EEE5valueEvE4typeERS3_SA_:
LFB3379:
	.cfi_startproc
	push	ebp
	.cfi_def_cfa_offset 8
	.cfi_offset 5, -8
	mov	ebp, esp
	.cfi_def_cfa_register 5
	sub	esp, 40
	mov	eax, DWORD PTR [ebp+8]
	mov	DWORD PTR [esp], eax
	call	__ZSt4moveIRiEONSt16remove_referenceIT_E4typeEOS2_
	mov	eax, DWORD PTR [eax]
	mov	DWORD PTR [ebp-12], eax
	mov	eax, DWORD PTR [ebp+12]
	mov	DWORD PTR [esp], eax
	call	__ZSt4moveIRiEONSt16remove_referenceIT_E4typeEOS2_
	mov	edx, DWORD PTR [eax]
	mov	eax, DWORD PTR [ebp+8]
	mov	DWORD PTR [eax], edx
	lea	eax, [ebp-12]
	mov	DWORD PTR [esp], eax
	call	__ZSt4moveIRiEONSt16remove_referenceIT_E4typeEOS2_
	mov	edx, DWORD PTR [eax]
	mov	eax, DWORD PTR [ebp+12]
	mov	DWORD PTR [eax], edx
	nop
	leave
	.cfi_restore 5
	.cfi_def_cfa 4, 4
	ret
	.cfi_endproc
LFE3379:
	.section	.text$_ZSt13move_backwardIN9__gnu_cxx17__normal_iteratorIPcNSt7__cxx1112basic_stringIcSt11char_traitsIcESaIcEEEEES9_ET0_T_SB_SA_,"x"
	.linkonce discard
	.globl	__ZSt13move_backwardIN9__gnu_cxx17__normal_iteratorIPcNSt7__cxx1112basic_stringIcSt11char_traitsIcESaIcEEEEES9_ET0_T_SB_SA_
	.def	__ZSt13move_backwardIN9__gnu_cxx17__normal_iteratorIPcNSt7__cxx1112basic_stringIcSt11char_traitsIcESaIcEEEEES9_ET0_T_SB_SA_;	.scl	2;	.type	32;	.endef
__ZSt13move_backwardIN9__gnu_cxx17__normal_iteratorIPcNSt7__cxx1112basic_stringIcSt11char_traitsIcESaIcEEEEES9_ET0_T_SB_SA_:
LFB3381:
	.cfi_startproc
	push	ebp
	.cfi_def_cfa_offset 8
	.cfi_offset 5, -8
	mov	ebp, esp
	.cfi_def_cfa_register 5
	push	ebx
	sub	esp, 20
	.cfi_offset 3, -12
	mov	eax, DWORD PTR [ebp+12]
	mov	DWORD PTR [esp], eax
	call	__ZSt12__miter_baseIN9__gnu_cxx17__normal_iteratorIPcNSt7__cxx1112basic_stringIcSt11char_traitsIcESaIcEEEEEET_SA_
	mov	ebx, eax
	mov	eax, DWORD PTR [ebp+8]
	mov	DWORD PTR [esp], eax
	call	__ZSt12__miter_baseIN9__gnu_cxx17__normal_iteratorIPcNSt7__cxx1112basic_stringIcSt11char_traitsIcESaIcEEEEEET_SA_
	mov	edx, eax
	mov	eax, DWORD PTR [ebp+16]
	mov	DWORD PTR [esp+8], eax
	mov	DWORD PTR [esp+4], ebx
	mov	DWORD PTR [esp], edx
	call	__ZSt23__copy_move_backward_a2ILb1EN9__gnu_cxx17__normal_iteratorIPcNSt7__cxx1112basic_stringIcSt11char_traitsIcESaIcEEEEES9_ET1_T0_SB_SA_
	add	esp, 20
	pop	ebx
	.cfi_restore 3
	pop	ebp
	.cfi_restore 5
	.cfi_def_cfa 4, 4
	ret
	.cfi_endproc
LFE3381:
	.section	.text$_ZN9__gnu_cxx17__normal_iteratorIPcNSt7__cxx1112basic_stringIcSt11char_traitsIcESaIcEEEEmmEv,"x"
	.linkonce discard
	.align 2
	.globl	__ZN9__gnu_cxx17__normal_iteratorIPcNSt7__cxx1112basic_stringIcSt11char_traitsIcESaIcEEEEmmEv
	.def	__ZN9__gnu_cxx17__normal_iteratorIPcNSt7__cxx1112basic_stringIcSt11char_traitsIcESaIcEEEEmmEv;	.scl	2;	.type	32;	.endef
__ZN9__gnu_cxx17__normal_iteratorIPcNSt7__cxx1112basic_stringIcSt11char_traitsIcESaIcEEEEmmEv:
LFB3382:
	.cfi_startproc
	push	ebp
	.cfi_def_cfa_offset 8
	.cfi_offset 5, -8
	mov	ebp, esp
	.cfi_def_cfa_register 5
	sub	esp, 4
	mov	DWORD PTR [ebp-4], ecx
	mov	eax, DWORD PTR [ebp-4]
	mov	eax, DWORD PTR [eax]
	lea	edx, [eax-1]
	mov	eax, DWORD PTR [ebp-4]
	mov	DWORD PTR [eax], edx
	mov	eax, DWORD PTR [ebp-4]
	leave
	.cfi_restore 5
	.cfi_def_cfa 4, 4
	ret
	.cfi_endproc
LFE3382:
	.section	.text$_ZNKSt6bitsetILj4EE15_Unchecked_testEj,"x"
	.linkonce discard
	.align 2
	.globl	__ZNKSt6bitsetILj4EE15_Unchecked_testEj
	.def	__ZNKSt6bitsetILj4EE15_Unchecked_testEj;	.scl	2;	.type	32;	.endef
__ZNKSt6bitsetILj4EE15_Unchecked_testEj:
LFB3385:
	.cfi_startproc
	push	ebp
	.cfi_def_cfa_offset 8
	.cfi_offset 5, -8
	mov	ebp, esp
	.cfi_def_cfa_register 5
	push	ebx
	sub	esp, 36
	.cfi_offset 3, -12
	mov	DWORD PTR [ebp-12], ecx
	mov	eax, DWORD PTR [ebp-12]
	mov	edx, DWORD PTR [ebp+8]
	mov	DWORD PTR [esp], edx
	mov	ecx, eax
	call	__ZNKSt12_Base_bitsetILj1EE10_M_getwordEj
	sub	esp, 4
	mov	ebx, eax
	mov	eax, DWORD PTR [ebp+8]
	mov	DWORD PTR [esp], eax
	call	__ZNSt12_Base_bitsetILj1EE10_S_maskbitEj
	and	eax, ebx
	test	eax, eax
	setne	al
	mov	ebx, DWORD PTR [ebp-4]
	leave
	.cfi_restore 5
	.cfi_restore 3
	.cfi_def_cfa 4, 4
	ret	4
	.cfi_endproc
LFE3385:
	.section	.text$_ZNKSt6bitsetILj4EE17_M_copy_to_stringIcSt11char_traitsIcESaIcEEEvRNSt7__cxx1112basic_stringIT_T0_T1_EES7_S7_,"x"
	.linkonce discard
	.align 2
	.globl	__ZNKSt6bitsetILj4EE17_M_copy_to_stringIcSt11char_traitsIcESaIcEEEvRNSt7__cxx1112basic_stringIT_T0_T1_EES7_S7_
	.def	__ZNKSt6bitsetILj4EE17_M_copy_to_stringIcSt11char_traitsIcESaIcEEEvRNSt7__cxx1112basic_stringIT_T0_T1_EES7_S7_;	.scl	2;	.type	32;	.endef
__ZNKSt6bitsetILj4EE17_M_copy_to_stringIcSt11char_traitsIcESaIcEEEvRNSt7__cxx1112basic_stringIT_T0_T1_EES7_S7_:
LFB3384:
	.cfi_startproc
	push	ebp
	.cfi_def_cfa_offset 8
	.cfi_offset 5, -8
	mov	ebp, esp
	.cfi_def_cfa_register 5
	sub	esp, 56
	mov	DWORD PTR [ebp-28], ecx
	mov	edx, DWORD PTR [ebp+12]
	mov	eax, DWORD PTR [ebp+16]
	mov	BYTE PTR [ebp-32], dl
	mov	BYTE PTR [ebp-36], al
	movsx	eax, BYTE PTR [ebp-32]
	mov	DWORD PTR [esp+4], eax
	mov	DWORD PTR [esp], 4
	mov	ecx, DWORD PTR [ebp+8]
	call	__ZNSt7__cxx1112basic_stringIcSt11char_traitsIcESaIcEE6assignEjc
	sub	esp, 8
	mov	DWORD PTR [ebp-12], 4
L490:
	cmp	DWORD PTR [ebp-12], 0
	je	L491
	mov	eax, DWORD PTR [ebp-12]
	lea	edx, [eax-1]
	mov	eax, DWORD PTR [ebp-28]
	mov	DWORD PTR [esp], edx
	mov	ecx, eax
	call	__ZNKSt6bitsetILj4EE15_Unchecked_testEj
	sub	esp, 4
	test	al, al
	je	L489
	mov	eax, 4
	sub	eax, DWORD PTR [ebp-12]
	mov	DWORD PTR [esp], eax
	mov	ecx, DWORD PTR [ebp+8]
	call	__ZNSt7__cxx1112basic_stringIcSt11char_traitsIcESaIcEEixEj
	sub	esp, 4
	mov	edx, eax
	lea	eax, [ebp-36]
	mov	DWORD PTR [esp+4], eax
	mov	DWORD PTR [esp], edx
	call	__ZNSt11char_traitsIcE6assignERcRKc
L489:
	sub	DWORD PTR [ebp-12], 1
	jmp	L490
L491:
	nop
	leave
	.cfi_restore 5
	.cfi_def_cfa 4, 4
	ret	12
	.cfi_endproc
LFE3384:
	.section	.text$_ZNKSt6bitsetILj56EE15_Unchecked_testEj,"x"
	.linkonce discard
	.align 2
	.globl	__ZNKSt6bitsetILj56EE15_Unchecked_testEj
	.def	__ZNKSt6bitsetILj56EE15_Unchecked_testEj;	.scl	2;	.type	32;	.endef
__ZNKSt6bitsetILj56EE15_Unchecked_testEj:
LFB3387:
	.cfi_startproc
	push	ebp
	.cfi_def_cfa_offset 8
	.cfi_offset 5, -8
	mov	ebp, esp
	.cfi_def_cfa_register 5
	push	ebx
	sub	esp, 36
	.cfi_offset 3, -12
	mov	DWORD PTR [ebp-12], ecx
	mov	eax, DWORD PTR [ebp-12]
	mov	edx, DWORD PTR [ebp+8]
	mov	DWORD PTR [esp], edx
	mov	ecx, eax
	call	__ZNKSt12_Base_bitsetILj2EE10_M_getwordEj
	sub	esp, 4
	mov	ebx, eax
	mov	eax, DWORD PTR [ebp+8]
	mov	DWORD PTR [esp], eax
	call	__ZNSt12_Base_bitsetILj2EE10_S_maskbitEj
	and	eax, ebx
	test	eax, eax
	setne	al
	mov	ebx, DWORD PTR [ebp-4]
	leave
	.cfi_restore 5
	.cfi_restore 3
	.cfi_def_cfa 4, 4
	ret	4
	.cfi_endproc
LFE3387:
	.section	.text$_ZNKSt6bitsetILj56EE17_M_copy_to_stringIcSt11char_traitsIcESaIcEEEvRNSt7__cxx1112basic_stringIT_T0_T1_EES7_S7_,"x"
	.linkonce discard
	.align 2
	.globl	__ZNKSt6bitsetILj56EE17_M_copy_to_stringIcSt11char_traitsIcESaIcEEEvRNSt7__cxx1112basic_stringIT_T0_T1_EES7_S7_
	.def	__ZNKSt6bitsetILj56EE17_M_copy_to_stringIcSt11char_traitsIcESaIcEEEvRNSt7__cxx1112basic_stringIT_T0_T1_EES7_S7_;	.scl	2;	.type	32;	.endef
__ZNKSt6bitsetILj56EE17_M_copy_to_stringIcSt11char_traitsIcESaIcEEEvRNSt7__cxx1112basic_stringIT_T0_T1_EES7_S7_:
LFB3386:
	.cfi_startproc
	push	ebp
	.cfi_def_cfa_offset 8
	.cfi_offset 5, -8
	mov	ebp, esp
	.cfi_def_cfa_register 5
	sub	esp, 56
	mov	DWORD PTR [ebp-28], ecx
	mov	edx, DWORD PTR [ebp+12]
	mov	eax, DWORD PTR [ebp+16]
	mov	BYTE PTR [ebp-32], dl
	mov	BYTE PTR [ebp-36], al
	movsx	eax, BYTE PTR [ebp-32]
	mov	DWORD PTR [esp+4], eax
	mov	DWORD PTR [esp], 56
	mov	ecx, DWORD PTR [ebp+8]
	call	__ZNSt7__cxx1112basic_stringIcSt11char_traitsIcESaIcEE6assignEjc
	sub	esp, 8
	mov	DWORD PTR [ebp-12], 56
L497:
	cmp	DWORD PTR [ebp-12], 0
	je	L498
	mov	eax, DWORD PTR [ebp-12]
	lea	edx, [eax-1]
	mov	eax, DWORD PTR [ebp-28]
	mov	DWORD PTR [esp], edx
	mov	ecx, eax
	call	__ZNKSt6bitsetILj56EE15_Unchecked_testEj
	sub	esp, 4
	test	al, al
	je	L496
	mov	eax, 56
	sub	eax, DWORD PTR [ebp-12]
	mov	DWORD PTR [esp], eax
	mov	ecx, DWORD PTR [ebp+8]
	call	__ZNSt7__cxx1112basic_stringIcSt11char_traitsIcESaIcEEixEj
	sub	esp, 4
	mov	edx, eax
	lea	eax, [ebp-36]
	mov	DWORD PTR [esp+4], eax
	mov	DWORD PTR [esp], edx
	call	__ZNSt11char_traitsIcE6assignERcRKc
L496:
	sub	DWORD PTR [ebp-12], 1
	jmp	L497
L498:
	nop
	leave
	.cfi_restore 5
	.cfi_def_cfa 4, 4
	ret	12
	.cfi_endproc
LFE3386:
	.section	.text$_ZStmiIN9__gnu_cxx17__normal_iteratorIPKcNSt7__cxx1112basic_stringIcSt11char_traitsIcESaIcEEEEEEDTmicldtfp_4baseEcldtfp0_4baseEERKSt16reverse_iteratorIT_ESG_,"x"
	.linkonce discard
	.globl	__ZStmiIN9__gnu_cxx17__normal_iteratorIPKcNSt7__cxx1112basic_stringIcSt11char_traitsIcESaIcEEEEEEDTmicldtfp_4baseEcldtfp0_4baseEERKSt16reverse_iteratorIT_ESG_
	.def	__ZStmiIN9__gnu_cxx17__normal_iteratorIPKcNSt7__cxx1112basic_stringIcSt11char_traitsIcESaIcEEEEEEDTmicldtfp_4baseEcldtfp0_4baseEERKSt16reverse_iteratorIT_ESG_;	.scl	2;	.type	32;	.endef
__ZStmiIN9__gnu_cxx17__normal_iteratorIPKcNSt7__cxx1112basic_stringIcSt11char_traitsIcESaIcEEEEEEDTmicldtfp_4baseEcldtfp0_4baseEERKSt16reverse_iteratorIT_ESG_:
LFB3389:
	.cfi_startproc
	push	ebp
	.cfi_def_cfa_offset 8
	.cfi_offset 5, -8
	mov	ebp, esp
	.cfi_def_cfa_register 5
	sub	esp, 40
	mov	ecx, DWORD PTR [ebp+8]
	call	__ZNKSt16reverse_iteratorIN9__gnu_cxx17__normal_iteratorIPKcNSt7__cxx1112basic_stringIcSt11char_traitsIcESaIcEEEEEE4baseEv
	mov	DWORD PTR [ebp-16], eax
	mov	eax, DWORD PTR [ebp+12]
	mov	ecx, eax
	call	__ZNKSt16reverse_iteratorIN9__gnu_cxx17__normal_iteratorIPKcNSt7__cxx1112basic_stringIcSt11char_traitsIcESaIcEEEEEE4baseEv
	mov	DWORD PTR [ebp-12], eax
	lea	eax, [ebp-16]
	mov	DWORD PTR [esp+4], eax
	lea	eax, [ebp-12]
	mov	DWORD PTR [esp], eax
	call	__ZN9__gnu_cxxmiIPKcNSt7__cxx1112basic_stringIcSt11char_traitsIcESaIcEEEEENS_17__normal_iteratorIT_T0_E15difference_typeERKSC_SF_
	leave
	.cfi_restore 5
	.cfi_def_cfa 4, 4
	ret
	.cfi_endproc
LFE3389:
	.section	.text$_ZNSt6bitsetILj48EE5resetEv,"x"
	.linkonce discard
	.align 2
	.globl	__ZNSt6bitsetILj48EE5resetEv
	.def	__ZNSt6bitsetILj48EE5resetEv;	.scl	2;	.type	32;	.endef
__ZNSt6bitsetILj48EE5resetEv:
LFB3419:
	.cfi_startproc
	push	ebp
	.cfi_def_cfa_offset 8
	.cfi_offset 5, -8
	mov	ebp, esp
	.cfi_def_cfa_register 5
	sub	esp, 24
	mov	DWORD PTR [ebp-12], ecx
	mov	eax, DWORD PTR [ebp-12]
	mov	ecx, eax
	call	__ZNSt12_Base_bitsetILj2EE11_M_do_resetEv
	mov	eax, DWORD PTR [ebp-12]
	leave
	.cfi_restore 5
	.cfi_def_cfa 4, 4
	ret
	.cfi_endproc
LFE3419:
	.section	.text$_ZNSt6bitsetILj48EE14_Unchecked_setEj,"x"
	.linkonce discard
	.align 2
	.globl	__ZNSt6bitsetILj48EE14_Unchecked_setEj
	.def	__ZNSt6bitsetILj48EE14_Unchecked_setEj;	.scl	2;	.type	32;	.endef
__ZNSt6bitsetILj48EE14_Unchecked_setEj:
LFB3420:
	.cfi_startproc
	push	ebp
	.cfi_def_cfa_offset 8
	.cfi_offset 5, -8
	mov	ebp, esp
	.cfi_def_cfa_register 5
	push	ebx
	sub	esp, 36
	.cfi_offset 3, -12
	mov	DWORD PTR [ebp-12], ecx
	mov	eax, DWORD PTR [ebp+8]
	mov	DWORD PTR [esp], eax
	call	__ZNSt12_Base_bitsetILj2EE10_S_maskbitEj
	mov	ebx, eax
	mov	eax, DWORD PTR [ebp-12]
	mov	edx, DWORD PTR [ebp+8]
	mov	DWORD PTR [esp], edx
	mov	ecx, eax
	call	__ZNSt12_Base_bitsetILj2EE10_M_getwordEj
	sub	esp, 4
	mov	edx, DWORD PTR [eax]
	or	edx, ebx
	mov	DWORD PTR [eax], edx
	mov	eax, DWORD PTR [ebp-12]
	mov	ebx, DWORD PTR [ebp-4]
	leave
	.cfi_restore 5
	.cfi_restore 3
	.cfi_def_cfa 4, 4
	ret	4
	.cfi_endproc
LFE3420:
	.section	.text$_ZNSt6bitsetILj32EE5resetEv,"x"
	.linkonce discard
	.align 2
	.globl	__ZNSt6bitsetILj32EE5resetEv
	.def	__ZNSt6bitsetILj32EE5resetEv;	.scl	2;	.type	32;	.endef
__ZNSt6bitsetILj32EE5resetEv:
LFB3423:
	.cfi_startproc
	push	ebp
	.cfi_def_cfa_offset 8
	.cfi_offset 5, -8
	mov	ebp, esp
	.cfi_def_cfa_register 5
	sub	esp, 24
	mov	DWORD PTR [ebp-12], ecx
	mov	eax, DWORD PTR [ebp-12]
	mov	ecx, eax
	call	__ZNSt12_Base_bitsetILj1EE11_M_do_resetEv
	mov	eax, DWORD PTR [ebp-12]
	leave
	.cfi_restore 5
	.cfi_def_cfa 4, 4
	ret
	.cfi_endproc
LFE3423:
	.section	.text$_ZNSt6bitsetILj32EE14_Unchecked_setEj,"x"
	.linkonce discard
	.align 2
	.globl	__ZNSt6bitsetILj32EE14_Unchecked_setEj
	.def	__ZNSt6bitsetILj32EE14_Unchecked_setEj;	.scl	2;	.type	32;	.endef
__ZNSt6bitsetILj32EE14_Unchecked_setEj:
LFB3424:
	.cfi_startproc
	push	ebp
	.cfi_def_cfa_offset 8
	.cfi_offset 5, -8
	mov	ebp, esp
	.cfi_def_cfa_register 5
	push	ebx
	sub	esp, 36
	.cfi_offset 3, -12
	mov	DWORD PTR [ebp-12], ecx
	mov	eax, DWORD PTR [ebp+8]
	mov	DWORD PTR [esp], eax
	call	__ZNSt12_Base_bitsetILj1EE10_S_maskbitEj
	mov	ebx, eax
	mov	eax, DWORD PTR [ebp-12]
	mov	edx, DWORD PTR [ebp+8]
	mov	DWORD PTR [esp], edx
	mov	ecx, eax
	call	__ZNSt12_Base_bitsetILj1EE10_M_getwordEj
	sub	esp, 4
	mov	edx, DWORD PTR [eax]
	or	edx, ebx
	mov	DWORD PTR [eax], edx
	mov	eax, DWORD PTR [ebp-12]
	mov	ebx, DWORD PTR [ebp-4]
	leave
	.cfi_restore 5
	.cfi_restore 3
	.cfi_def_cfa 4, 4
	ret	4
	.cfi_endproc
LFE3424:
	.section	.text$_ZN9__gnu_cxx5__ops16_Iter_equals_valIKiEclIPS2_EEbT_,"x"
	.linkonce discard
	.align 2
	.globl	__ZN9__gnu_cxx5__ops16_Iter_equals_valIKiEclIPS2_EEbT_
	.def	__ZN9__gnu_cxx5__ops16_Iter_equals_valIKiEclIPS2_EEbT_;	.scl	2;	.type	32;	.endef
__ZN9__gnu_cxx5__ops16_Iter_equals_valIKiEclIPS2_EEbT_:
LFB3425:
	.cfi_startproc
	push	ebp
	.cfi_def_cfa_offset 8
	.cfi_offset 5, -8
	mov	ebp, esp
	.cfi_def_cfa_register 5
	sub	esp, 4
	mov	DWORD PTR [ebp-4], ecx
	mov	eax, DWORD PTR [ebp+8]
	mov	edx, DWORD PTR [eax]
	mov	eax, DWORD PTR [ebp-4]
	mov	eax, DWORD PTR [eax]
	mov	eax, DWORD PTR [eax]
	cmp	edx, eax
	sete	al
	leave
	.cfi_restore 5
	.cfi_def_cfa 4, 4
	ret	4
	.cfi_endproc
LFE3425:
	.section	.text$_ZNK9__gnu_cxx17__normal_iteratorIPcNSt7__cxx1112basic_stringIcSt11char_traitsIcESaIcEEEE4baseEv,"x"
	.linkonce discard
	.align 2
	.globl	__ZNK9__gnu_cxx17__normal_iteratorIPcNSt7__cxx1112basic_stringIcSt11char_traitsIcESaIcEEEE4baseEv
	.def	__ZNK9__gnu_cxx17__normal_iteratorIPcNSt7__cxx1112basic_stringIcSt11char_traitsIcESaIcEEEE4baseEv;	.scl	2;	.type	32;	.endef
__ZNK9__gnu_cxx17__normal_iteratorIPcNSt7__cxx1112basic_stringIcSt11char_traitsIcESaIcEEEE4baseEv:
LFB3426:
	.cfi_startproc
	push	ebp
	.cfi_def_cfa_offset 8
	.cfi_offset 5, -8
	mov	ebp, esp
	.cfi_def_cfa_register 5
	sub	esp, 4
	mov	DWORD PTR [ebp-4], ecx
	mov	eax, DWORD PTR [ebp-4]
	leave
	.cfi_restore 5
	.cfi_def_cfa 4, 4
	ret
	.cfi_endproc
LFE3426:
	.section	.text$_ZN9__gnu_cxxneIPcNSt7__cxx1112basic_stringIcSt11char_traitsIcESaIcEEEEEbRKNS_17__normal_iteratorIT_T0_EESD_,"x"
	.linkonce discard
	.globl	__ZN9__gnu_cxxneIPcNSt7__cxx1112basic_stringIcSt11char_traitsIcESaIcEEEEEbRKNS_17__normal_iteratorIT_T0_EESD_
	.def	__ZN9__gnu_cxxneIPcNSt7__cxx1112basic_stringIcSt11char_traitsIcESaIcEEEEEbRKNS_17__normal_iteratorIT_T0_EESD_;	.scl	2;	.type	32;	.endef
__ZN9__gnu_cxxneIPcNSt7__cxx1112basic_stringIcSt11char_traitsIcESaIcEEEEEbRKNS_17__normal_iteratorIT_T0_EESD_:
LFB3427:
	.cfi_startproc
	push	ebp
	.cfi_def_cfa_offset 8
	.cfi_offset 5, -8
	mov	ebp, esp
	.cfi_def_cfa_register 5
	push	ebx
	sub	esp, 4
	.cfi_offset 3, -12
	mov	ecx, DWORD PTR [ebp+8]
	call	__ZNK9__gnu_cxx17__normal_iteratorIPcNSt7__cxx1112basic_stringIcSt11char_traitsIcESaIcEEEE4baseEv
	mov	ebx, DWORD PTR [eax]
	mov	eax, DWORD PTR [ebp+12]
	mov	ecx, eax
	call	__ZNK9__gnu_cxx17__normal_iteratorIPcNSt7__cxx1112basic_stringIcSt11char_traitsIcESaIcEEEE4baseEv
	mov	eax, DWORD PTR [eax]
	cmp	ebx, eax
	setne	al
	add	esp, 4
	pop	ebx
	.cfi_restore 3
	pop	ebp
	.cfi_restore 5
	.cfi_def_cfa 4, 4
	ret
	.cfi_endproc
LFE3427:
	.section	.text$_ZSt12__miter_baseIN9__gnu_cxx17__normal_iteratorIPcNSt7__cxx1112basic_stringIcSt11char_traitsIcESaIcEEEEEET_SA_,"x"
	.linkonce discard
	.globl	__ZSt12__miter_baseIN9__gnu_cxx17__normal_iteratorIPcNSt7__cxx1112basic_stringIcSt11char_traitsIcESaIcEEEEEET_SA_
	.def	__ZSt12__miter_baseIN9__gnu_cxx17__normal_iteratorIPcNSt7__cxx1112basic_stringIcSt11char_traitsIcESaIcEEEEEET_SA_;	.scl	2;	.type	32;	.endef
__ZSt12__miter_baseIN9__gnu_cxx17__normal_iteratorIPcNSt7__cxx1112basic_stringIcSt11char_traitsIcESaIcEEEEEET_SA_:
LFB3428:
	.cfi_startproc
	push	ebp
	.cfi_def_cfa_offset 8
	.cfi_offset 5, -8
	mov	ebp, esp
	.cfi_def_cfa_register 5
	mov	eax, DWORD PTR [ebp+8]
	pop	ebp
	.cfi_restore 5
	.cfi_def_cfa 4, 4
	ret
	.cfi_endproc
LFE3428:
	.section	.text$_ZSt14__copy_move_a2ILb1EN9__gnu_cxx17__normal_iteratorIPcNSt7__cxx1112basic_stringIcSt11char_traitsIcESaIcEEEEES9_ET1_T0_SB_SA_,"x"
	.linkonce discard
	.globl	__ZSt14__copy_move_a2ILb1EN9__gnu_cxx17__normal_iteratorIPcNSt7__cxx1112basic_stringIcSt11char_traitsIcESaIcEEEEES9_ET1_T0_SB_SA_
	.def	__ZSt14__copy_move_a2ILb1EN9__gnu_cxx17__normal_iteratorIPcNSt7__cxx1112basic_stringIcSt11char_traitsIcESaIcEEEEES9_ET1_T0_SB_SA_;	.scl	2;	.type	32;	.endef
__ZSt14__copy_move_a2ILb1EN9__gnu_cxx17__normal_iteratorIPcNSt7__cxx1112basic_stringIcSt11char_traitsIcESaIcEEEEES9_ET1_T0_SB_SA_:
LFB3429:
	.cfi_startproc
	push	ebp
	.cfi_def_cfa_offset 8
	.cfi_offset 5, -8
	mov	ebp, esp
	.cfi_def_cfa_register 5
	push	esi
	push	ebx
	sub	esp, 32
	.cfi_offset 6, -12
	.cfi_offset 3, -16
	mov	eax, DWORD PTR [ebp+16]
	mov	DWORD PTR [esp], eax
	call	__ZSt12__niter_baseIPcNSt7__cxx1112basic_stringIcSt11char_traitsIcESaIcEEEET_N9__gnu_cxx17__normal_iteratorIS7_T0_EE
	mov	esi, eax
	mov	eax, DWORD PTR [ebp+12]
	mov	DWORD PTR [esp], eax
	call	__ZSt12__niter_baseIPcNSt7__cxx1112basic_stringIcSt11char_traitsIcESaIcEEEET_N9__gnu_cxx17__normal_iteratorIS7_T0_EE
	mov	ebx, eax
	mov	eax, DWORD PTR [ebp+8]
	mov	DWORD PTR [esp], eax
	call	__ZSt12__niter_baseIPcNSt7__cxx1112basic_stringIcSt11char_traitsIcESaIcEEEET_N9__gnu_cxx17__normal_iteratorIS7_T0_EE
	mov	DWORD PTR [esp+8], esi
	mov	DWORD PTR [esp+4], ebx
	mov	DWORD PTR [esp], eax
	call	__ZSt13__copy_move_aILb1EPcS0_ET1_T0_S2_S1_
	mov	DWORD PTR [ebp-12], eax
	lea	eax, [ebp-16]
	lea	edx, [ebp-12]
	mov	DWORD PTR [esp], edx
	mov	ecx, eax
	call	__ZN9__gnu_cxx17__normal_iteratorIPcNSt7__cxx1112basic_stringIcSt11char_traitsIcESaIcEEEEC1ERKS1_
	sub	esp, 4
	mov	eax, DWORD PTR [ebp-16]
	lea	esp, [ebp-8]
	pop	ebx
	.cfi_restore 3
	pop	esi
	.cfi_restore 6
	pop	ebp
	.cfi_restore 5
	.cfi_def_cfa 4, 4
	ret
	.cfi_endproc
LFE3429:
	.section	.text$_ZSt4swapIcENSt9enable_ifIXsrSt6__and_IJSt21is_move_constructibleIT_ESt18is_move_assignableIS3_EEE5valueEvE4typeERS3_SA_,"x"
	.linkonce discard
	.globl	__ZSt4swapIcENSt9enable_ifIXsrSt6__and_IJSt21is_move_constructibleIT_ESt18is_move_assignableIS3_EEE5valueEvE4typeERS3_SA_
	.def	__ZSt4swapIcENSt9enable_ifIXsrSt6__and_IJSt21is_move_constructibleIT_ESt18is_move_assignableIS3_EEE5valueEvE4typeERS3_SA_;	.scl	2;	.type	32;	.endef
__ZSt4swapIcENSt9enable_ifIXsrSt6__and_IJSt21is_move_constructibleIT_ESt18is_move_assignableIS3_EEE5valueEvE4typeERS3_SA_:
LFB3430:
	.cfi_startproc
	push	ebp
	.cfi_def_cfa_offset 8
	.cfi_offset 5, -8
	mov	ebp, esp
	.cfi_def_cfa_register 5
	sub	esp, 40
	mov	eax, DWORD PTR [ebp+8]
	mov	DWORD PTR [esp], eax
	call	__ZSt4moveIRcEONSt16remove_referenceIT_E4typeEOS2_
	movzx	eax, BYTE PTR [eax]
	mov	BYTE PTR [ebp-9], al
	mov	eax, DWORD PTR [ebp+12]
	mov	DWORD PTR [esp], eax
	call	__ZSt4moveIRcEONSt16remove_referenceIT_E4typeEOS2_
	movzx	edx, BYTE PTR [eax]
	mov	eax, DWORD PTR [ebp+8]
	mov	BYTE PTR [eax], dl
	lea	eax, [ebp-9]
	mov	DWORD PTR [esp], eax
	call	__ZSt4moveIRcEONSt16remove_referenceIT_E4typeEOS2_
	movzx	edx, BYTE PTR [eax]
	mov	eax, DWORD PTR [ebp+12]
	mov	BYTE PTR [eax], dl
	nop
	leave
	.cfi_restore 5
	.cfi_def_cfa 4, 4
	ret
	.cfi_endproc
LFE3430:
	.section	.text$_ZSt23__copy_move_backward_a2ILb1EN9__gnu_cxx17__normal_iteratorIPcNSt7__cxx1112basic_stringIcSt11char_traitsIcESaIcEEEEES9_ET1_T0_SB_SA_,"x"
	.linkonce discard
	.globl	__ZSt23__copy_move_backward_a2ILb1EN9__gnu_cxx17__normal_iteratorIPcNSt7__cxx1112basic_stringIcSt11char_traitsIcESaIcEEEEES9_ET1_T0_SB_SA_
	.def	__ZSt23__copy_move_backward_a2ILb1EN9__gnu_cxx17__normal_iteratorIPcNSt7__cxx1112basic_stringIcSt11char_traitsIcESaIcEEEEES9_ET1_T0_SB_SA_;	.scl	2;	.type	32;	.endef
__ZSt23__copy_move_backward_a2ILb1EN9__gnu_cxx17__normal_iteratorIPcNSt7__cxx1112basic_stringIcSt11char_traitsIcESaIcEEEEES9_ET1_T0_SB_SA_:
LFB3431:
	.cfi_startproc
	push	ebp
	.cfi_def_cfa_offset 8
	.cfi_offset 5, -8
	mov	ebp, esp
	.cfi_def_cfa_register 5
	push	esi
	push	ebx
	sub	esp, 32
	.cfi_offset 6, -12
	.cfi_offset 3, -16
	mov	eax, DWORD PTR [ebp+16]
	mov	DWORD PTR [esp], eax
	call	__ZSt12__niter_baseIPcNSt7__cxx1112basic_stringIcSt11char_traitsIcESaIcEEEET_N9__gnu_cxx17__normal_iteratorIS7_T0_EE
	mov	esi, eax
	mov	eax, DWORD PTR [ebp+12]
	mov	DWORD PTR [esp], eax
	call	__ZSt12__niter_baseIPcNSt7__cxx1112basic_stringIcSt11char_traitsIcESaIcEEEET_N9__gnu_cxx17__normal_iteratorIS7_T0_EE
	mov	ebx, eax
	mov	eax, DWORD PTR [ebp+8]
	mov	DWORD PTR [esp], eax
	call	__ZSt12__niter_baseIPcNSt7__cxx1112basic_stringIcSt11char_traitsIcESaIcEEEET_N9__gnu_cxx17__normal_iteratorIS7_T0_EE
	mov	DWORD PTR [esp+8], esi
	mov	DWORD PTR [esp+4], ebx
	mov	DWORD PTR [esp], eax
	call	__ZSt22__copy_move_backward_aILb1EPcS0_ET1_T0_S2_S1_
	mov	DWORD PTR [ebp-12], eax
	lea	eax, [ebp-16]
	lea	edx, [ebp-12]
	mov	DWORD PTR [esp], edx
	mov	ecx, eax
	call	__ZN9__gnu_cxx17__normal_iteratorIPcNSt7__cxx1112basic_stringIcSt11char_traitsIcESaIcEEEEC1ERKS1_
	sub	esp, 4
	mov	eax, DWORD PTR [ebp-16]
	lea	esp, [ebp-8]
	pop	ebx
	.cfi_restore 3
	pop	esi
	.cfi_restore 6
	pop	ebp
	.cfi_restore 5
	.cfi_def_cfa 4, 4
	ret
	.cfi_endproc
LFE3431:
	.section	.text$_ZNSt12_Base_bitsetILj2EE11_M_do_resetEv,"x"
	.linkonce discard
	.align 2
	.globl	__ZNSt12_Base_bitsetILj2EE11_M_do_resetEv
	.def	__ZNSt12_Base_bitsetILj2EE11_M_do_resetEv;	.scl	2;	.type	32;	.endef
__ZNSt12_Base_bitsetILj2EE11_M_do_resetEv:
LFB3461:
	.cfi_startproc
	push	ebp
	.cfi_def_cfa_offset 8
	.cfi_offset 5, -8
	mov	ebp, esp
	.cfi_def_cfa_register 5
	sub	esp, 4
	mov	DWORD PTR [ebp-4], ecx
	mov	eax, DWORD PTR [ebp-4]
	mov	DWORD PTR [eax], 0
	mov	DWORD PTR [eax+4], 0
	nop
	leave
	.cfi_restore 5
	.cfi_def_cfa 4, 4
	ret
	.cfi_endproc
LFE3461:
	.section	.text$_ZSt12__niter_baseIPcNSt7__cxx1112basic_stringIcSt11char_traitsIcESaIcEEEET_N9__gnu_cxx17__normal_iteratorIS7_T0_EE,"x"
	.linkonce discard
	.globl	__ZSt12__niter_baseIPcNSt7__cxx1112basic_stringIcSt11char_traitsIcESaIcEEEET_N9__gnu_cxx17__normal_iteratorIS7_T0_EE
	.def	__ZSt12__niter_baseIPcNSt7__cxx1112basic_stringIcSt11char_traitsIcESaIcEEEET_N9__gnu_cxx17__normal_iteratorIS7_T0_EE;	.scl	2;	.type	32;	.endef
__ZSt12__niter_baseIPcNSt7__cxx1112basic_stringIcSt11char_traitsIcESaIcEEEET_N9__gnu_cxx17__normal_iteratorIS7_T0_EE:
LFB3462:
	.cfi_startproc
	push	ebp
	.cfi_def_cfa_offset 8
	.cfi_offset 5, -8
	mov	ebp, esp
	.cfi_def_cfa_register 5
	sub	esp, 8
	lea	ecx, [ebp+8]
	call	__ZNK9__gnu_cxx17__normal_iteratorIPcNSt7__cxx1112basic_stringIcSt11char_traitsIcESaIcEEEE4baseEv
	mov	eax, DWORD PTR [eax]
	leave
	.cfi_restore 5
	.cfi_def_cfa 4, 4
	ret
	.cfi_endproc
LFE3462:
	.section	.text$_ZSt13__copy_move_aILb1EPcS0_ET1_T0_S2_S1_,"x"
	.linkonce discard
	.globl	__ZSt13__copy_move_aILb1EPcS0_ET1_T0_S2_S1_
	.def	__ZSt13__copy_move_aILb1EPcS0_ET1_T0_S2_S1_;	.scl	2;	.type	32;	.endef
__ZSt13__copy_move_aILb1EPcS0_ET1_T0_S2_S1_:
LFB3463:
	.cfi_startproc
	push	ebp
	.cfi_def_cfa_offset 8
	.cfi_offset 5, -8
	mov	ebp, esp
	.cfi_def_cfa_register 5
	sub	esp, 40
	mov	BYTE PTR [ebp-9], 1
	mov	eax, DWORD PTR [ebp+16]
	mov	DWORD PTR [esp+8], eax
	mov	eax, DWORD PTR [ebp+12]
	mov	DWORD PTR [esp+4], eax
	mov	eax, DWORD PTR [ebp+8]
	mov	DWORD PTR [esp], eax
	call	__ZNSt11__copy_moveILb1ELb1ESt26random_access_iterator_tagE8__copy_mIcEEPT_PKS3_S6_S4_
	leave
	.cfi_restore 5
	.cfi_def_cfa 4, 4
	ret
	.cfi_endproc
LFE3463:
	.section	.text$_ZSt22__copy_move_backward_aILb1EPcS0_ET1_T0_S2_S1_,"x"
	.linkonce discard
	.globl	__ZSt22__copy_move_backward_aILb1EPcS0_ET1_T0_S2_S1_
	.def	__ZSt22__copy_move_backward_aILb1EPcS0_ET1_T0_S2_S1_;	.scl	2;	.type	32;	.endef
__ZSt22__copy_move_backward_aILb1EPcS0_ET1_T0_S2_S1_:
LFB3464:
	.cfi_startproc
	push	ebp
	.cfi_def_cfa_offset 8
	.cfi_offset 5, -8
	mov	ebp, esp
	.cfi_def_cfa_register 5
	sub	esp, 40
	mov	BYTE PTR [ebp-9], 1
	mov	eax, DWORD PTR [ebp+16]
	mov	DWORD PTR [esp+8], eax
	mov	eax, DWORD PTR [ebp+12]
	mov	DWORD PTR [esp+4], eax
	mov	eax, DWORD PTR [ebp+8]
	mov	DWORD PTR [esp], eax
	call	__ZNSt20__copy_move_backwardILb1ELb1ESt26random_access_iterator_tagE13__copy_move_bIcEEPT_PKS3_S6_S4_
	leave
	.cfi_restore 5
	.cfi_def_cfa 4, 4
	ret
	.cfi_endproc
LFE3464:
	.section	.text$_ZNSt11__copy_moveILb1ELb1ESt26random_access_iterator_tagE8__copy_mIcEEPT_PKS3_S6_S4_,"x"
	.linkonce discard
	.globl	__ZNSt11__copy_moveILb1ELb1ESt26random_access_iterator_tagE8__copy_mIcEEPT_PKS3_S6_S4_
	.def	__ZNSt11__copy_moveILb1ELb1ESt26random_access_iterator_tagE8__copy_mIcEEPT_PKS3_S6_S4_;	.scl	2;	.type	32;	.endef
__ZNSt11__copy_moveILb1ELb1ESt26random_access_iterator_tagE8__copy_mIcEEPT_PKS3_S6_S4_:
LFB3488:
	.cfi_startproc
	push	ebp
	.cfi_def_cfa_offset 8
	.cfi_offset 5, -8
	mov	ebp, esp
	.cfi_def_cfa_register 5
	sub	esp, 40
	mov	edx, DWORD PTR [ebp+12]
	mov	eax, DWORD PTR [ebp+8]
	sub	edx, eax
	mov	eax, edx
	mov	DWORD PTR [ebp-12], eax
	cmp	DWORD PTR [ebp-12], 0
	je	L530
	mov	eax, DWORD PTR [ebp-12]
	mov	DWORD PTR [esp+8], eax
	mov	eax, DWORD PTR [ebp+8]
	mov	DWORD PTR [esp+4], eax
	mov	eax, DWORD PTR [ebp+16]
	mov	DWORD PTR [esp], eax
	call	_memmove
L530:
	mov	edx, DWORD PTR [ebp-12]
	mov	eax, DWORD PTR [ebp+16]
	add	eax, edx
	leave
	.cfi_restore 5
	.cfi_def_cfa 4, 4
	ret
	.cfi_endproc
LFE3488:
	.section	.text$_ZNSt20__copy_move_backwardILb1ELb1ESt26random_access_iterator_tagE13__copy_move_bIcEEPT_PKS3_S6_S4_,"x"
	.linkonce discard
	.globl	__ZNSt20__copy_move_backwardILb1ELb1ESt26random_access_iterator_tagE13__copy_move_bIcEEPT_PKS3_S6_S4_
	.def	__ZNSt20__copy_move_backwardILb1ELb1ESt26random_access_iterator_tagE13__copy_move_bIcEEPT_PKS3_S6_S4_;	.scl	2;	.type	32;	.endef
__ZNSt20__copy_move_backwardILb1ELb1ESt26random_access_iterator_tagE13__copy_move_bIcEEPT_PKS3_S6_S4_:
LFB3489:
	.cfi_startproc
	push	ebp
	.cfi_def_cfa_offset 8
	.cfi_offset 5, -8
	mov	ebp, esp
	.cfi_def_cfa_register 5
	sub	esp, 40
	mov	edx, DWORD PTR [ebp+12]
	mov	eax, DWORD PTR [ebp+8]
	sub	edx, eax
	mov	eax, edx
	mov	DWORD PTR [ebp-12], eax
	cmp	DWORD PTR [ebp-12], 0
	je	L533
	mov	eax, DWORD PTR [ebp-12]
	mov	edx, DWORD PTR [ebp-12]
	mov	ecx, edx
	neg	ecx
	mov	edx, DWORD PTR [ebp+16]
	add	edx, ecx
	mov	DWORD PTR [esp+8], eax
	mov	eax, DWORD PTR [ebp+8]
	mov	DWORD PTR [esp+4], eax
	mov	DWORD PTR [esp], edx
	call	_memmove
L533:
	mov	eax, DWORD PTR [ebp-12]
	neg	eax
	mov	edx, eax
	mov	eax, DWORD PTR [ebp+16]
	add	eax, edx
	leave
	.cfi_restore 5
	.cfi_def_cfa 4, 4
	ret
	.cfi_endproc
LFE3489:
	.globl	__ZTV3DES
	.section	.rdata$_ZTV3DES,"dr"
	.linkonce same_size
	.align 4
__ZTV3DES:
	.long	0
	.long	__ZTI3DES
	.long	__ZN3DESD1Ev
	.long	__ZN3DESD0Ev
	.globl	__ZTI3DES
	.section	.rdata$_ZTI3DES,"dr"
	.linkonce same_size
	.align 4
__ZTI3DES:
	.long	__ZTVN10__cxxabiv117__class_type_infoE+8
	.long	__ZTS3DES
	.globl	__ZTS3DES
	.section	.rdata$_ZTS3DES,"dr"
	.linkonce same_size
	.align 4
__ZTS3DES:
	.ascii "3DES\0"
	.text
	.def	___tcf_0;	.scl	3;	.type	32;	.endef
___tcf_0:
LFB3499:
	.cfi_startproc
	push	ebp
	.cfi_def_cfa_offset 8
	.cfi_offset 5, -8
	mov	ebp, esp
	.cfi_def_cfa_register 5
	sub	esp, 8
	mov	ecx, OFFSET FLAT:__ZStL8__ioinit
	call	__ZNSt8ios_base4InitD1Ev
	leave
	.cfi_restore 5
	.cfi_def_cfa 4, 4
	ret
	.cfi_endproc
LFE3499:
	.def	__Z41__static_initialization_and_destruction_0ii;	.scl	3;	.type	32;	.endef
__Z41__static_initialization_and_destruction_0ii:
LFB3498:
	.cfi_startproc
	push	ebp
	.cfi_def_cfa_offset 8
	.cfi_offset 5, -8
	mov	ebp, esp
	.cfi_def_cfa_register 5
	sub	esp, 24
	cmp	DWORD PTR [ebp+8], 1
	jne	L538
	cmp	DWORD PTR [ebp+12], 65535
	jne	L538
	mov	ecx, OFFSET FLAT:__ZStL8__ioinit
	call	__ZNSt8ios_base4InitC1Ev
	mov	DWORD PTR [esp], OFFSET FLAT:___tcf_0
	call	_atexit
L538:
	nop
	leave
	.cfi_restore 5
	.cfi_def_cfa 4, 4
	ret
	.cfi_endproc
LFE3498:
	.def	__GLOBAL__sub_I__ZN3DESC2ENSt7__cxx1112basic_stringIcSt11char_traitsIcESaIcEEES5_;	.scl	3;	.type	32;	.endef
__GLOBAL__sub_I__ZN3DESC2ENSt7__cxx1112basic_stringIcSt11char_traitsIcESaIcEEES5_:
LFB3500:
	.cfi_startproc
	push	ebp
	.cfi_def_cfa_offset 8
	.cfi_offset 5, -8
	mov	ebp, esp
	.cfi_def_cfa_register 5
	sub	esp, 24
	mov	DWORD PTR [esp+4], 65535
	mov	DWORD PTR [esp], 1
	call	__Z41__static_initialization_and_destruction_0ii
	leave
	.cfi_restore 5
	.cfi_def_cfa 4, 4
	ret
	.cfi_endproc
LFE3500:
	.section	.ctors,"w"
	.align 4
	.long	__GLOBAL__sub_I__ZN3DESC2ENSt7__cxx1112basic_stringIcSt11char_traitsIcESaIcEEES5_
	.section .rdata,"dr"
	.align 8
LC39:
	.long	0
	.long	1073741824
	.ident	"GCC: (MinGW.org GCC-6.3.0-1) 6.3.0"
	.def	__ZNSt7__cxx1112basic_stringIcSt11char_traitsIcESaIcEEC1Ev;	.scl	2;	.type	32;	.endef
	.def	__ZNSt7__cxx1112basic_stringIcSt11char_traitsIcESaIcEEaSERKS4_;	.scl	2;	.type	32;	.endef
	.def	__ZNSt7__cxx1112basic_stringIcSt11char_traitsIcESaIcEED1Ev;	.scl	2;	.type	32;	.endef
	.def	__Unwind_Resume;	.scl	2;	.type	32;	.endef
	.def	__ZdlPvj;	.scl	2;	.type	32;	.endef
	.def	__ZNSt7__cxx1112basic_stringIcSt11char_traitsIcESaIcEEaSEOS4_;	.scl	2;	.type	32;	.endef
	.def	__ZNKSt7__cxx1112basic_stringIcSt11char_traitsIcESaIcEE5beginEv;	.scl	2;	.type	32;	.endef
	.def	__ZNKSt7__cxx1112basic_stringIcSt11char_traitsIcESaIcEE3endEv;	.scl	2;	.type	32;	.endef
	.def	__ZSt24__throw_out_of_range_fmtPKcz;	.scl	2;	.type	32;	.endef
	.def	__ZNKSt7__cxx1112basic_stringIcSt11char_traitsIcESaIcEE6lengthEv;	.scl	2;	.type	32;	.endef
	.def	__ZStlsISt11char_traitsIcEERSt13basic_ostreamIcT_ES5_PKc;	.scl	2;	.type	32;	.endef
	.def	_exit;	.scl	2;	.type	32;	.endef
	.def	__ZNKSt7__cxx1112basic_stringIcSt11char_traitsIcESaIcEEixEj;	.scl	2;	.type	32;	.endef
	.def	__ZNSt7__cxx1112basic_stringIcSt11char_traitsIcESaIcEEpLEc;	.scl	2;	.type	32;	.endef
	.def	__ZSt4endlIcSt11char_traitsIcEERSt13basic_ostreamIT_T0_ES6_;	.scl	2;	.type	32;	.endef
	.def	__ZNSolsEPFRSoS_E;	.scl	2;	.type	32;	.endef
	.def	__ZNSt7__cxx1112basic_stringIcSt11char_traitsIcESaIcEE3endEv;	.scl	2;	.type	32;	.endef
	.def	__ZNSt7__cxx1112basic_stringIcSt11char_traitsIcESaIcEE5beginEv;	.scl	2;	.type	32;	.endef
	.def	__ZNKSt7__cxx1112basic_stringIcSt11char_traitsIcESaIcEE6substrEjj;	.scl	2;	.type	32;	.endef
	.def	__ZNSt7__cxx1112basic_stringIcSt11char_traitsIcESaIcEEaSEPKc;	.scl	2;	.type	32;	.endef
	.def	__ZNSt7__cxx1112basic_stringIcSt11char_traitsIcESaIcEEpLERKS4_;	.scl	2;	.type	32;	.endef
	.def	__ZNSt7__cxx1112basic_stringIcSt11char_traitsIcESaIcEE6appendEPKc;	.scl	2;	.type	32;	.endef
	.def	__ZNKSt7__cxx1112basic_stringIcSt11char_traitsIcESaIcEE6rbeginEv;	.scl	2;	.type	32;	.endef
	.def	__ZNKSt7__cxx1112basic_stringIcSt11char_traitsIcESaIcEE4rendEv;	.scl	2;	.type	32;	.endef
	.def	_pow;	.scl	2;	.type	32;	.endef
	.def	__ZNSt7__cxx1112basic_stringIcSt11char_traitsIcESaIcEE4swapERS4_;	.scl	2;	.type	32;	.endef
	.def	__ZStlsIcSt11char_traitsIcEERSt13basic_ostreamIT_T0_ES6_St5_Setw;	.scl	2;	.type	32;	.endef
	.def	__ZNSolsEi;	.scl	2;	.type	32;	.endef
	.def	__ZStlsIcSt11char_traitsIcESaIcEERSt13basic_ostreamIT_T0_ES7_RKNSt7__cxx1112basic_stringIS4_S5_T1_EE;	.scl	2;	.type	32;	.endef
	.def	__ZNKSt7__cxx1112basic_stringIcSt11char_traitsIcESaIcEE4sizeEv;	.scl	2;	.type	32;	.endef
	.def	__ZNKSt7__cxx1112basic_stringIcSt11char_traitsIcESaIcEE8capacityEv;	.scl	2;	.type	32;	.endef
	.def	__ZNSt7__cxx1112basic_stringIcSt11char_traitsIcESaIcEE6insertEjRKS4_;	.scl	2;	.type	32;	.endef
	.def	__ZNSt7__cxx1112basic_stringIcSt11char_traitsIcESaIcEE6appendERKS4_;	.scl	2;	.type	32;	.endef
	.def	__ZNSt7__cxx1112basic_stringIcSt11char_traitsIcESaIcEEC1EOS4_;	.scl	2;	.type	32;	.endef
	.def	__ZNSt7__cxx1112basic_stringIcSt11char_traitsIcESaIcEEC1ERKS4_;	.scl	2;	.type	32;	.endef
	.def	__ZNKSt7__cxx1112basic_stringIcSt11char_traitsIcESaIcEE4dataEv;	.scl	2;	.type	32;	.endef
	.def	__ZSt24__throw_invalid_argumentPKc;	.scl	2;	.type	32;	.endef
	.def	__ZNSt7__cxx1112basic_stringIcSt11char_traitsIcESaIcEE6assignEjc;	.scl	2;	.type	32;	.endef
	.def	__ZNSt7__cxx1112basic_stringIcSt11char_traitsIcESaIcEEixEj;	.scl	2;	.type	32;	.endef
	.def	_memmove;	.scl	2;	.type	32;	.endef
	.def	__ZNSt8ios_base4InitD1Ev;	.scl	2;	.type	32;	.endef
	.def	__ZNSt8ios_base4InitC1Ev;	.scl	2;	.type	32;	.endef
	.def	_atexit;	.scl	2;	.type	32;	.endef
