	.text
	.intel_syntax noprefix
	.file	"/mnt/c/Users/Adam/Developer/CryptoFunctionDetection/crypto_implementations/DES-Cryptography/DES.cpp"
	.section	.text.startup,"ax",@progbits
	.p2align	4, 0x90         
	.type	__cxx_global_var_init,@function
__cxx_global_var_init:                  
	.cfi_startproc

	push	rbp
.Lcfi0:
	.cfi_def_cfa_offset 16
	push	r14
.Lcfi1:
	.cfi_def_cfa_offset 24
	push	rbx
.Lcfi2:
	.cfi_def_cfa_offset 32
	sub	rsp, 16
.Lcfi3:
	.cfi_def_cfa_offset 48
.Lcfi4:
	.cfi_offset rbx, -32
.Lcfi5:
	.cfi_offset r14, -24
.Lcfi6:
	.cfi_offset rbp, -16
	mov	eax, dword ptr [rip + x]
	lea	ecx, [rax - 1]
	imul	ecx, eax
	mov	eax, ecx
	xor	eax, -2
	test	eax, ecx
	sete	byte ptr [rsp + 14]
	mov	eax, dword ptr [rip + y]
	cmp	eax, 10
	setl	byte ptr [rsp + 15]
	mov	eax, 368371046
	mov	r14d, -938578507
	mov	ebp, -1338651841
	jmp	.LBB0_1
.LBB0_7:                                
	movzx	ecx, byte ptr [rsp + 14]
	movzx	eax, byte ptr [rsp + 15]
	mov	edx, ecx
	xor	dl, al
	mov	edx, -422969751
	cmovne	edx, ebp
	test	al, al
	mov	eax, edx
	cmovne	eax, ebp
	test	cl, cl
	cmove	eax, edx
	.p2align	4, 0x90
.LBB0_1:                                
	cmp	eax, -422969752
	jg	.LBB0_5

	cmp	eax, -1338651841
	je	.LBB0_8

	cmp	eax, -938578507
	jne	.LBB0_1
	jmp	.LBB0_4
	.p2align	4, 0x90
.LBB0_5:                                
	cmp	eax, -422969751
	je	.LBB0_9

	cmp	eax, 368371046
	jne	.LBB0_1
	jmp	.LBB0_7
.LBB0_8:                                
	mov	edi, _ZStL8__ioinit
	call	_ZNSt8ios_base4InitC1Ev
	mov	edi, _ZNSt8ios_base4InitD1Ev
	mov	esi, _ZStL8__ioinit
	mov	edx, __dso_handle
	call	__cxa_atexit
	mov	eax, dword ptr [rip + x]
	mov	ecx, dword ptr [rip + y]
	lea	edx, [rax - 1]
	imul	edx, eax
	mov	eax, edx
	xor	eax, -2
	and	eax, edx
	sete	dl
	cmp	ecx, 10
	setl	bl
	xor	bl, dl
	mov	edx, -422969751
	cmovne	edx, r14d
	test	eax, eax
	mov	eax, edx
	cmove	eax, r14d
	cmp	ecx, 10
	cmovge	eax, edx
	jmp	.LBB0_1
.LBB0_9:                                
	mov	edi, _ZStL8__ioinit
	call	_ZNSt8ios_base4InitC1Ev
	mov	edi, _ZNSt8ios_base4InitD1Ev
	mov	esi, _ZStL8__ioinit
	mov	edx, __dso_handle
	call	__cxa_atexit
	mov	eax, -1338651841
	jmp	.LBB0_1
.LBB0_4:
	add	rsp, 16
	pop	rbx
	pop	r14
	pop	rbp
	ret
.Lfunc_end0:
	.size	__cxx_global_var_init, .Lfunc_end0-__cxx_global_var_init
	.cfi_endproc

	.text
	.globl	_ZN3DESC2ENSt7__cxx1112basic_stringIcSt11char_traitsIcESaIcEEES5_ 
	.p2align	4, 0x90
	.type	_ZN3DESC2ENSt7__cxx1112basic_stringIcSt11char_traitsIcESaIcEEES5_,@function
_ZN3DESC2ENSt7__cxx1112basic_stringIcSt11char_traitsIcESaIcEEES5_: 
.Lfunc_begin0:
	.cfi_startproc
	.cfi_personality 3, __gxx_personality_v0
	.cfi_lsda 3, .Lexception0

	push	rbp
.Lcfi7:
	.cfi_def_cfa_offset 16
	push	r15
.Lcfi8:
	.cfi_def_cfa_offset 24
	push	r14
.Lcfi9:
	.cfi_def_cfa_offset 32
	push	r13
.Lcfi10:
	.cfi_def_cfa_offset 40
	push	r12
.Lcfi11:
	.cfi_def_cfa_offset 48
	push	rbx
.Lcfi12:
	.cfi_def_cfa_offset 56
	sub	rsp, 120
.Lcfi13:
	.cfi_def_cfa_offset 176
.Lcfi14:
	.cfi_offset rbx, -56
.Lcfi15:
	.cfi_offset r12, -48
.Lcfi16:
	.cfi_offset r13, -40
.Lcfi17:
	.cfi_offset r14, -32
.Lcfi18:
	.cfi_offset r15, -24
.Lcfi19:
	.cfi_offset rbp, -16
	mov	rbx, rdx
	mov	r12, rsi
	mov	r14, rdi
	mov	qword ptr [r14], _ZTV3DES+16
	lea	r13, [r14 + 8]
	mov	rdi, r13
	call	_ZNSt7__cxx1112basic_stringIcSt11char_traitsIcESaIcEEC2Ev
	lea	rdi, [r14 + 40]
	mov	qword ptr [rsp + 80], rdi 
	call	_ZNSt7__cxx1112basic_stringIcSt11char_traitsIcESaIcEEC2Ev
	lea	rdi, [r14 + 72]
	mov	qword ptr [rsp + 72], rdi 
	call	_ZNSt7__cxx1112basic_stringIcSt11char_traitsIcESaIcEEC2Ev
	lea	rdi, [r14 + 104]
	mov	qword ptr [rsp + 64], rdi 
	call	_ZNSt7__cxx1112basic_stringIcSt11char_traitsIcESaIcEEC2Ev
	lea	rdi, [r14 + 136]
	mov	qword ptr [rsp + 56], rdi 
	call	_ZNSt7__cxx1112basic_stringIcSt11char_traitsIcESaIcEEC2Ev
	lea	rdi, [r14 + 168]
	mov	qword ptr [rsp + 48], rdi 
	call	_ZNSt7__cxx1112basic_stringIcSt11char_traitsIcESaIcEEC2Ev
	lea	r15, [r14 + 200]
	mov	rdi, r15
	call	_ZNSt7__cxx1112basic_stringIcSt11char_traitsIcESaIcEEC2Ev
	lea	rdi, [r14 + 232]
	mov	qword ptr [rsp + 40], rdi 
	call	_ZNSt7__cxx1112basic_stringIcSt11char_traitsIcESaIcEEC2Ev
	lea	rdi, [r14 + 264]
	mov	qword ptr [rsp + 32], rdi 
	call	_ZNSt7__cxx1112basic_stringIcSt11char_traitsIcESaIcEEC2Ev
	lea	rdi, [r14 + 296]
	mov	qword ptr [rsp + 24], rdi 
	call	_ZNSt7__cxx1112basic_stringIcSt11char_traitsIcESaIcEEC2Ev
	lea	rdi, [r14 + 328]
	mov	qword ptr [rsp + 16], rdi 
	call	_ZNSt7__cxx1112basic_stringIcSt11char_traitsIcESaIcEEC2Ev
	lea	rdi, [r14 + 360]
	mov	qword ptr [rsp + 8], rdi 
	call	_ZNSt7__cxx1112basic_stringIcSt11char_traitsIcESaIcEEC2Ev
	lea	rbp, [r14 + 392]
	mov	rdi, rbp
	call	_ZNSt7__cxx1112basic_stringIcSt11char_traitsIcESaIcEEC2Ev
	add	r14, 424
	mov	rdi, r14
	call	_ZNSt7__cxx1112basic_stringIcSt11char_traitsIcESaIcEEC2Ev
.Ltmp0:
	lea	rdi, [rsp + 88]
	mov	rsi, r12
	call	_ZN3DES7hex2binERKNSt7__cxx1112basic_stringIcSt11char_traitsIcESaIcEEE
.Ltmp1:

.Ltmp3:
	lea	rsi, [rsp + 88]
	mov	rdi, r13
	call	_ZNSt7__cxx1112basic_stringIcSt11char_traitsIcESaIcEE9_M_assignERKS4_
.Ltmp4:

	lea	rdi, [rsp + 88]
	call	_ZNSt7__cxx1112basic_stringIcSt11char_traitsIcESaIcEED2Ev
.Ltmp6:
	lea	rdi, [rsp + 88]
	mov	rsi, rbx
	call	_ZN3DES7hex2binERKNSt7__cxx1112basic_stringIcSt11char_traitsIcESaIcEEE
.Ltmp7:

.Ltmp9:
	lea	rsi, [rsp + 88]
	mov	rdi, r15
	call	_ZNSt7__cxx1112basic_stringIcSt11char_traitsIcESaIcEE9_M_assignERKS4_
.Ltmp10:

	lea	rdi, [rsp + 88]
	call	_ZNSt7__cxx1112basic_stringIcSt11char_traitsIcESaIcEED2Ev
	add	rsp, 120
	pop	rbx
	pop	r12
	pop	r13
	pop	r14
	pop	r15
	pop	rbp
	ret
.LBB1_5:
.Ltmp11:
	jmp	.LBB1_8
.LBB1_6:
.Ltmp8:
	jmp	.LBB1_10
.LBB1_7:
.Ltmp5:
.LBB1_8:
	mov	r12, rax
	lea	rdi, [rsp + 88]
	call	_ZNSt7__cxx1112basic_stringIcSt11char_traitsIcESaIcEED2Ev
	jmp	.LBB1_11
.LBB1_9:
.Ltmp2:
.LBB1_10:
	mov	r12, rax
.LBB1_11:
	mov	rdi, r14
	call	_ZNSt7__cxx1112basic_stringIcSt11char_traitsIcESaIcEED2Ev
	mov	rdi, rbp
	call	_ZNSt7__cxx1112basic_stringIcSt11char_traitsIcESaIcEED2Ev
	mov	rdi, qword ptr [rsp + 8] 
	call	_ZNSt7__cxx1112basic_stringIcSt11char_traitsIcESaIcEED2Ev
	mov	rdi, qword ptr [rsp + 16] 
	call	_ZNSt7__cxx1112basic_stringIcSt11char_traitsIcESaIcEED2Ev
	mov	rdi, qword ptr [rsp + 24] 
	call	_ZNSt7__cxx1112basic_stringIcSt11char_traitsIcESaIcEED2Ev
	mov	rdi, qword ptr [rsp + 32] 
	call	_ZNSt7__cxx1112basic_stringIcSt11char_traitsIcESaIcEED2Ev
	mov	rdi, qword ptr [rsp + 40] 
	call	_ZNSt7__cxx1112basic_stringIcSt11char_traitsIcESaIcEED2Ev
	mov	rdi, r15
	call	_ZNSt7__cxx1112basic_stringIcSt11char_traitsIcESaIcEED2Ev
	mov	rdi, qword ptr [rsp + 48] 
	call	_ZNSt7__cxx1112basic_stringIcSt11char_traitsIcESaIcEED2Ev
	mov	rdi, qword ptr [rsp + 56] 
	call	_ZNSt7__cxx1112basic_stringIcSt11char_traitsIcESaIcEED2Ev
	mov	rdi, qword ptr [rsp + 64] 
	call	_ZNSt7__cxx1112basic_stringIcSt11char_traitsIcESaIcEED2Ev
	mov	rdi, qword ptr [rsp + 72] 
	call	_ZNSt7__cxx1112basic_stringIcSt11char_traitsIcESaIcEED2Ev
	mov	rdi, qword ptr [rsp + 80] 
	call	_ZNSt7__cxx1112basic_stringIcSt11char_traitsIcESaIcEED2Ev
	mov	rdi, r13
	call	_ZNSt7__cxx1112basic_stringIcSt11char_traitsIcESaIcEED2Ev
	mov	rdi, r12
	call	_Unwind_Resume
.Lfunc_end1:
	.size	_ZN3DESC2ENSt7__cxx1112basic_stringIcSt11char_traitsIcESaIcEEES5_, .Lfunc_end1-_ZN3DESC2ENSt7__cxx1112basic_stringIcSt11char_traitsIcESaIcEEES5_
	.cfi_endproc
	.section	.gcc_except_table,"a",@progbits
	.p2align	2
GCC_except_table1:
.Lexception0:
	.byte	255                     
	.byte	3                       
	.asciz	"\303\200"              
	.byte	3                       
	.byte	65                      
	.long	.Ltmp0-.Lfunc_begin0    
	.long	.Ltmp1-.Ltmp0           
	.long	.Ltmp2-.Lfunc_begin0    
	.byte	0                       
	.long	.Ltmp3-.Lfunc_begin0    
	.long	.Ltmp4-.Ltmp3           
	.long	.Ltmp5-.Lfunc_begin0    
	.byte	0                       
	.long	.Ltmp6-.Lfunc_begin0    
	.long	.Ltmp7-.Ltmp6           
	.long	.Ltmp8-.Lfunc_begin0    
	.byte	0                       
	.long	.Ltmp9-.Lfunc_begin0    
	.long	.Ltmp10-.Ltmp9          
	.long	.Ltmp11-.Lfunc_begin0   
	.byte	0                       
	.long	.Ltmp10-.Lfunc_begin0   
	.long	.Lfunc_end1-.Ltmp10     
	.long	0                       
	.byte	0                       
	.p2align	2

	.section	.text._ZNSt7__cxx1112basic_stringIcSt11char_traitsIcESaIcEEC2Ev,"axG",@progbits,_ZNSt7__cxx1112basic_stringIcSt11char_traitsIcESaIcEEC2Ev,comdat
	.weak	_ZNSt7__cxx1112basic_stringIcSt11char_traitsIcESaIcEEC2Ev 
	.p2align	4, 0x90
	.type	_ZNSt7__cxx1112basic_stringIcSt11char_traitsIcESaIcEEC2Ev,@function
_ZNSt7__cxx1112basic_stringIcSt11char_traitsIcESaIcEEC2Ev: 

	push	r14
	push	rbx
	push	rax
	mov	r14, rdi
	call	_ZNSt7__cxx1112basic_stringIcSt11char_traitsIcESaIcEE13_M_local_dataEv
	mov	ecx, dword ptr [rip + x.350]
	mov	edx, dword ptr [rip + y.351]
	lea	esi, [rcx - 1]
	imul	esi, ecx
	mov	edi, esi
	xor	edi, -2
	and	edi, esi
	sete	byte ptr [rsp + 4]
	sete	cl
	cmp	edx, 10
	setl	bl
	xor	bl, cl
	mov	r9d, 820708405
	mov	esi, -278357763
	cmovne	esi, r9d
	test	edi, edi
	cmovne	r9d, esi
	cmp	edx, 10
	setl	byte ptr [rsp + 5]
	mov	r8d, -278357763
	cmovge	r9d, esi
	mov	edi, -1432005057
	mov	esi, 210378807
	jmp	.LBB2_1
.LBB2_6:                                
	mov	edi, r9d
	.p2align	4, 0x90
.LBB2_1:                                
	cmp	edi, 210378806
	jle	.LBB2_2

	cmp	edi, 210378807
	je	.LBB2_6

	cmp	edi, 820708405
	jne	.LBB2_1
	jmp	.LBB2_9
	.p2align	4, 0x90
.LBB2_2:                                
	cmp	edi, -1432005057
	je	.LBB2_7

	cmp	edi, -278357763
	jne	.LBB2_1

	mov	edi, 210378807
	jmp	.LBB2_1
.LBB2_7:                                
	movzx	ecx, byte ptr [rsp + 4]
	movzx	edx, byte ptr [rsp + 5]
	mov	ebx, ecx
	xor	bl, dl
	test	dl, dl
	mov	edi, -278357763
	cmovne	edi, esi
	test	cl, cl
	cmove	edi, r8d
	test	bl, bl
	cmovne	edi, esi
	jmp	.LBB2_1
.LBB2_9:
	mov	qword ptr [r14], rax
	mov	ecx, dword ptr [rip + x.272]
	mov	edx, dword ptr [rip + y.273]
	lea	esi, [rcx - 1]
	imul	esi, ecx
	mov	ecx, esi
	xor	ecx, -2
	and	ecx, esi
	sete	bl
	sete	byte ptr [rsp + 6]
	test	ecx, ecx
	mov	esi, -42627591
	mov	edi, -741855023
	mov	ecx, -741855023
	cmove	ecx, esi
	cmp	edx, 10
	setl	dl
	setl	byte ptr [rsp + 7]
	cmovge	ecx, edi
	xor	dl, bl
	cmovne	ecx, esi
	mov	esi, -605608669
	mov	r8d, -1020874651
	jmp	.LBB2_10
.LBB2_12:                               
	mov	esi, ecx
	.p2align	4, 0x90
.LBB2_10:                               
	mov	edi, esi
	and	edi, 1073741823
	cmp	edi, 468133154
	jg	.LBB2_13

	cmp	edi, 52867173
	je	.LBB2_12

	cmp	edi, 331886801
	jne	.LBB2_10

	mov	esi, -1020874651
	jmp	.LBB2_10
	.p2align	4, 0x90
.LBB2_13:                               
	cmp	edi, 1031114233
	je	.LBB2_18

	cmp	edi, 468133155
	jne	.LBB2_10

	movzx	edi, byte ptr [rsp + 6]
	movzx	edx, byte ptr [rsp + 7]
	mov	ebx, edi
	xor	bl, dl
	mov	ebx, -741855023
	cmovne	ebx, r8d
	test	dl, dl
	mov	esi, ebx
	cmovne	esi, r8d
	test	dil, dil
	cmove	esi, ebx
	jmp	.LBB2_10
.LBB2_18:
	mov	qword ptr [r14 + 8], 0
	mov	byte ptr [rax], 0
	add	rsp, 8
	pop	rbx
	pop	r14
	ret
.Lfunc_end2:
	.size	_ZNSt7__cxx1112basic_stringIcSt11char_traitsIcESaIcEEC2Ev, .Lfunc_end2-_ZNSt7__cxx1112basic_stringIcSt11char_traitsIcESaIcEEC2Ev

	.text
	.globl	_ZN3DES7hex2binERKNSt7__cxx1112basic_stringIcSt11char_traitsIcESaIcEEE 
	.p2align	4, 0x90
	.type	_ZN3DES7hex2binERKNSt7__cxx1112basic_stringIcSt11char_traitsIcESaIcEEE,@function
_ZN3DES7hex2binERKNSt7__cxx1112basic_stringIcSt11char_traitsIcESaIcEEE: 
.Lfunc_begin1:
	.cfi_startproc
	.cfi_personality 3, __gxx_personality_v0
	.cfi_lsda 3, .Lexception1

	push	rbp
.Lcfi20:
	.cfi_def_cfa_offset 16
	push	r15
.Lcfi21:
	.cfi_def_cfa_offset 24
	push	r14
.Lcfi22:
	.cfi_def_cfa_offset 32
	push	r13
.Lcfi23:
	.cfi_def_cfa_offset 40
	push	r12
.Lcfi24:
	.cfi_def_cfa_offset 48
	push	rbx
.Lcfi25:
	.cfi_def_cfa_offset 56
	sub	rsp, 24
.Lcfi26:
	.cfi_def_cfa_offset 80
.Lcfi27:
	.cfi_offset rbx, -56
.Lcfi28:
	.cfi_offset r12, -48
.Lcfi29:
	.cfi_offset r13, -40
.Lcfi30:
	.cfi_offset r14, -32
.Lcfi31:
	.cfi_offset r15, -24
.Lcfi32:
	.cfi_offset rbp, -16
	mov	r15, rsi
	mov	r14, rdi
	call	_ZNSt7__cxx1112basic_stringIcSt11char_traitsIcESaIcEEC2Ev
	mov	rdi, qword ptr [r15]
	mov	r13d, 2092656913
	mov	r12, rdi
	jmp	.LBB3_1
	.p2align	4, 0x90
.LBB3_111:                              
	mov	rdi, qword ptr [r15]
.LBB3_1:                                




	mov	ecx, dword ptr [rip + x.274]
	mov	edx, dword ptr [rip + y.275]
	lea	esi, [rcx - 1]
	imul	esi, ecx
	mov	ecx, esi
	xor	ecx, -2
	and	ecx, esi
	sete	bl
	sete	byte ptr [rsp + 11]
	cmp	edx, 10
	setl	al
	xor	al, bl
	mov	eax, -1511853027
	mov	esi, -901066291
	cmovne	eax, esi
	test	ecx, ecx
	mov	ecx, eax
	cmove	ecx, esi
	cmp	edx, 10
	setl	byte ptr [rsp + 12]
	cmovge	ecx, eax
	mov	rbp, qword ptr [r15 + 8]
	mov	esi, 1978003098
	jmp	.LBB3_2
.LBB3_13:                               
	mov	qword ptr [rsp + 16], rbp
	mov	esi, ecx
	.p2align	4, 0x90
.LBB3_2:                                

	cmp	esi, 1978003097
	jg	.LBB3_10

	cmp	esi, -1511853027
	je	.LBB3_14

	cmp	esi, -901066291
	jne	.LBB3_2
	jmp	.LBB3_5
	.p2align	4, 0x90
.LBB3_10:                               
	cmp	esi, 2092656913
	je	.LBB3_13

	cmp	esi, 1978003098
	jne	.LBB3_2

	movzx	edx, byte ptr [rsp + 11]
	movzx	ebx, byte ptr [rsp + 12]
	mov	eax, edx
	xor	al, bl
	test	bl, bl
	mov	esi, -1511853027
	cmovne	esi, r13d
	test	dl, dl
	mov	edx, -1511853027
	cmove	esi, edx
	test	al, al
	cmovne	esi, r13d
	jmp	.LBB3_2
.LBB3_14:                               
	mov	esi, 2092656913
	jmp	.LBB3_2
	.p2align	4, 0x90
.LBB3_5:                                
	mov	rax, qword ptr [rsp + 16]
	add	rdi, rax
	mov	eax, dword ptr [rip + x.86]
	mov	edx, dword ptr [rip + y.87]
	lea	ecx, [rax - 1]
	imul	ecx, eax
	not	ecx
	or	ecx, -2
	cmp	ecx, -1
	sete	al
	sete	byte ptr [rsp + 13]
	mov	ecx, -369009728
	mov	esi, 1534441363
	cmove	ecx, esi
	cmp	edx, 10
	setl	dl
	setl	byte ptr [rsp + 14]
	mov	ebp, -369009728
	cmovge	ecx, ebp
	xor	dl, al
	cmovne	ecx, esi
	mov	edx, 2143172987
	jmp	.LBB3_6
.LBB3_18:                               
	cmp	r12, rdi
	setb	byte ptr [rsp + 15]
	mov	edx, ecx
	.p2align	4, 0x90
.LBB3_6:                                

	cmp	edx, 1534441362
	jg	.LBB3_15

	cmp	edx, -1921148854
	je	.LBB3_18

	cmp	edx, -369009728
	jne	.LBB3_6

	mov	edx, -1921148854
	jmp	.LBB3_6
	.p2align	4, 0x90
.LBB3_15:                               
	cmp	edx, 1534441363
	je	.LBB3_19

	cmp	edx, 2143172987
	jne	.LBB3_6

	movzx	ebx, byte ptr [rsp + 13]
	movzx	edx, byte ptr [rsp + 14]
	mov	eax, ebx
	xor	al, dl
	mov	eax, -369009728
	mov	esi, -1921148854
	cmovne	eax, esi
	test	dl, dl
	mov	edx, eax
	cmovne	edx, esi
	test	bl, bl
	cmove	edx, eax
	jmp	.LBB3_6
	.p2align	4, 0x90
.LBB3_19:                               
	mov	al, byte ptr [rsp + 15]
	test	al, al
	je	.LBB3_117

	mov	al, byte ptr [r12]
	cmp	al, 56
	jge	.LBB3_21

	cmp	al, 52
	jge	.LBB3_39

	cmp	al, 50
	jge	.LBB3_45

	cmp	al, 49
	je	.LBB3_57

	cmp	al, 48
	jne	.LBB3_89

.Ltmp96:
	mov	edi, .L.str.21
	call	_ZNSt11char_traitsIcE6lengthEPKc
	mov	rbx, rax
.Ltmp97:

.Ltmp98:
	xor	esi, esi
	mov	ecx, .L.str.53
	mov	rdi, r14
	mov	rdx, rbx
	call	_ZNKSt7__cxx1112basic_stringIcSt11char_traitsIcESaIcEE15_M_check_lengthEmmPKc
.Ltmp99:

.Ltmp100:
	mov	esi, .L.str.21
	mov	rdi, r14
	mov	rdx, rbx
	call	_ZNSt7__cxx1112basic_stringIcSt11char_traitsIcESaIcEE9_M_appendEPKcm
.Ltmp101:
	jmp	.LBB3_107
	.p2align	4, 0x90
.LBB3_21:                               
	cmp	al, 67
	jge	.LBB3_22

	cmp	al, 65
	jge	.LBB3_29

	cmp	al, 57
	jge	.LBB3_34

.Ltmp54:
	mov	edi, .L.str.29
	call	_ZNSt11char_traitsIcE6lengthEPKc
	mov	rbx, rax
.Ltmp55:

.Ltmp56:
	xor	esi, esi
	mov	ecx, .L.str.53
	mov	rdi, r14
	mov	rdx, rbx
	call	_ZNKSt7__cxx1112basic_stringIcSt11char_traitsIcESaIcEE15_M_check_lengthEmmPKc
.Ltmp57:

.Ltmp58:
	mov	esi, .L.str.29
	mov	rdi, r14
	mov	rdx, rbx
	call	_ZNSt7__cxx1112basic_stringIcSt11char_traitsIcESaIcEE9_M_appendEPKcm
.Ltmp59:
	jmp	.LBB3_107
	.p2align	4, 0x90
.LBB3_39:                               
	cmp	al, 54
	jge	.LBB3_40

	cmp	al, 53
	jne	.LBB3_63

.Ltmp78:
	mov	edi, .L.str.26
	call	_ZNSt11char_traitsIcE6lengthEPKc
	mov	rbx, rax
.Ltmp79:

.Ltmp80:
	xor	esi, esi
	mov	ecx, .L.str.53
	mov	rdi, r14
	mov	rdx, rbx
	call	_ZNKSt7__cxx1112basic_stringIcSt11char_traitsIcESaIcEE15_M_check_lengthEmmPKc
.Ltmp81:

.Ltmp82:
	mov	esi, .L.str.26
	mov	rdi, r14
	mov	rdx, rbx
	call	_ZNSt7__cxx1112basic_stringIcSt11char_traitsIcESaIcEE9_M_appendEPKcm
.Ltmp83:
	jmp	.LBB3_107
	.p2align	4, 0x90
.LBB3_22:                               
	cmp	al, 69
	jge	.LBB3_23

	cmp	al, 68
	jne	.LBB3_79

.Ltmp30:
	mov	edi, .L.str.34
	call	_ZNSt11char_traitsIcE6lengthEPKc
	mov	rbx, rax
.Ltmp31:

.Ltmp32:
	xor	esi, esi
	mov	ecx, .L.str.53
	mov	rdi, r14
	mov	rdx, rbx
	call	_ZNKSt7__cxx1112basic_stringIcSt11char_traitsIcESaIcEE15_M_check_lengthEmmPKc
.Ltmp33:

.Ltmp34:
	mov	esi, .L.str.34
	mov	rdi, r14
	mov	rdx, rbx
	call	_ZNSt7__cxx1112basic_stringIcSt11char_traitsIcESaIcEE9_M_appendEPKcm
.Ltmp35:
	jmp	.LBB3_107
.LBB3_45:                               
	jne	.LBB3_60

.Ltmp90:
	mov	edi, .L.str.23
	call	_ZNSt11char_traitsIcE6lengthEPKc
	mov	rbx, rax
.Ltmp91:

.Ltmp92:
	xor	esi, esi
	mov	ecx, .L.str.53
	mov	rdi, r14
	mov	rdx, rbx
	call	_ZNKSt7__cxx1112basic_stringIcSt11char_traitsIcESaIcEE15_M_check_lengthEmmPKc
.Ltmp93:

.Ltmp94:
	mov	esi, .L.str.23
	mov	rdi, r14
	mov	rdx, rbx
	call	_ZNSt7__cxx1112basic_stringIcSt11char_traitsIcESaIcEE9_M_appendEPKcm
.Ltmp95:
	jmp	.LBB3_107
.LBB3_29:                               
	jne	.LBB3_76

.Ltmp42:
	mov	edi, .L.str.31
	call	_ZNSt11char_traitsIcE6lengthEPKc
	mov	rbx, rax
.Ltmp43:

.Ltmp44:
	xor	esi, esi
	mov	ecx, .L.str.53
	mov	rdi, r14
	mov	rdx, rbx
	call	_ZNKSt7__cxx1112basic_stringIcSt11char_traitsIcESaIcEE15_M_check_lengthEmmPKc
.Ltmp45:

.Ltmp46:
	mov	esi, .L.str.31
	mov	rdi, r14
	mov	rdx, rbx
	call	_ZNSt7__cxx1112basic_stringIcSt11char_traitsIcESaIcEE9_M_appendEPKcm
.Ltmp47:
	jmp	.LBB3_107
.LBB3_40:                               
	jne	.LBB3_70

.Ltmp66:
	mov	edi, .L.str.27
	call	_ZNSt11char_traitsIcE6lengthEPKc
	mov	rbx, rax
.Ltmp67:

.Ltmp68:
	xor	esi, esi
	mov	ecx, .L.str.53
	mov	rdi, r14
	mov	rdx, rbx
	call	_ZNKSt7__cxx1112basic_stringIcSt11char_traitsIcESaIcEE15_M_check_lengthEmmPKc
.Ltmp69:

.Ltmp70:
	mov	esi, .L.str.27
	mov	rdi, r14
	mov	rdx, rbx
	call	_ZNSt7__cxx1112basic_stringIcSt11char_traitsIcESaIcEE9_M_appendEPKcm
.Ltmp71:
	jmp	.LBB3_107
.LBB3_23:                               
	je	.LBB3_86

	cmp	al, 70
	jne	.LBB3_89

.Ltmp12:
	mov	edi, .L.str.36
	call	_ZNSt11char_traitsIcE6lengthEPKc
	mov	rbx, rax
.Ltmp13:

.Ltmp14:
	xor	esi, esi
	mov	ecx, .L.str.53
	mov	rdi, r14
	mov	rdx, rbx
	call	_ZNKSt7__cxx1112basic_stringIcSt11char_traitsIcESaIcEE15_M_check_lengthEmmPKc
.Ltmp15:

.Ltmp16:
	mov	esi, .L.str.36
	mov	rdi, r14
	mov	rdx, rbx
	call	_ZNSt7__cxx1112basic_stringIcSt11char_traitsIcESaIcEE9_M_appendEPKcm
.Ltmp17:
	jmp	.LBB3_107
.LBB3_34:                               
	jne	.LBB3_89

.Ltmp48:
	mov	edi, .L.str.30
	call	_ZNSt11char_traitsIcE6lengthEPKc
	mov	rbx, rax
.Ltmp49:

.Ltmp50:
	xor	esi, esi
	mov	ecx, .L.str.53
	mov	rdi, r14
	mov	rdx, rbx
	call	_ZNKSt7__cxx1112basic_stringIcSt11char_traitsIcESaIcEE15_M_check_lengthEmmPKc
.Ltmp51:

.Ltmp52:
	mov	esi, .L.str.30
	mov	rdi, r14
	mov	rdx, rbx
	call	_ZNSt7__cxx1112basic_stringIcSt11char_traitsIcESaIcEE9_M_appendEPKcm
.Ltmp53:
	jmp	.LBB3_107
.LBB3_89:                               
.Ltmp108:
	mov	edi, .L.str.37
	call	_ZNSt11char_traitsIcE6lengthEPKc
.Ltmp109:

.Ltmp110:
	mov	edi, _ZSt4cout
	mov	esi, .L.str.37
	mov	rdx, rax
	call	_ZSt16__ostream_insertIcSt11char_traitsIcEERSt13basic_ostreamIT_T0_ES6_PKS3_l
.Ltmp111:

	mov	eax, dword ptr [rip + x.452]
	mov	ecx, dword ptr [rip + y.453]
	lea	edx, [rax - 1]
	imul	edx, eax
	mov	eax, edx
	xor	eax, -2
	and	eax, edx
	sete	dl
	cmp	ecx, 10
	setl	bl
	xor	bl, dl
	mov	edx, -924997613
	mov	esi, 1860702658
	cmovne	edx, esi
	test	eax, eax
	mov	eax, edx
	cmove	eax, esi
	cmp	ecx, 10
	mov	rcx, qword ptr [rip + _ZSt4cout]
	mov	rcx, qword ptr [rcx - 24]
	mov	rdi, qword ptr [rcx + _ZSt4cout+240]
	cmovge	eax, edx
	test	rdi, rdi
	mov	ecx, -545404659
	mov	edx, -1454034232
	cmove	ecx, edx
	mov	edx, 1879526563
	jmp	.LBB3_92
	.p2align	4, 0x90
.LBB3_97:                               
	mov	edx, ecx
.LBB3_92:                               

	cmp	edx, -545404660
	jle	.LBB3_93

	cmp	edx, -545404659
	je	.LBB3_104

	cmp	edx, 1879526563
	je	.LBB3_97

	cmp	edx, 1860702658
	jne	.LBB3_92
	jmp	.LBB3_99
	.p2align	4, 0x90
.LBB3_93:                               
	cmp	edx, -1454034232
	jne	.LBB3_101

	mov	edx, eax
	jmp	.LBB3_92
.LBB3_101:                              
	cmp	edx, -924997613
	jne	.LBB3_92
	jmp	.LBB3_102
.LBB3_104:                              
.Ltmp112:
	mov	esi, 10
	call	_ZNKSt5ctypeIcE5widenEc
.Ltmp113:

.Ltmp114:
	movsx	esi, al
	mov	edi, _ZSt4cout
	call	_ZNSo3putEc
.Ltmp115:

.Ltmp116:
	mov	rdi, rax
	call	_ZNSo5flushEv
.Ltmp117:
	jmp	.LBB3_107
.LBB3_63:                               
.Ltmp72:
	mov	edi, .L.str.25
	call	_ZNSt11char_traitsIcE6lengthEPKc
	mov	rbx, rax
.Ltmp73:

.Ltmp74:
	xor	esi, esi
	mov	ecx, .L.str.53
	mov	rdi, r14
	mov	rdx, rbx
	call	_ZNKSt7__cxx1112basic_stringIcSt11char_traitsIcESaIcEE15_M_check_lengthEmmPKc
.Ltmp75:

.Ltmp76:
	mov	esi, .L.str.25
	mov	rdi, r14
	mov	rdx, rbx
	call	_ZNSt7__cxx1112basic_stringIcSt11char_traitsIcESaIcEE9_M_appendEPKcm
.Ltmp77:
	jmp	.LBB3_107
.LBB3_79:                               
.Ltmp24:
	mov	edi, .L.str.33
	call	_ZNSt11char_traitsIcE6lengthEPKc
	mov	rbx, rax
.Ltmp25:

.Ltmp26:
	xor	esi, esi
	mov	ecx, .L.str.53
	mov	rdi, r14
	mov	rdx, rbx
	call	_ZNKSt7__cxx1112basic_stringIcSt11char_traitsIcESaIcEE15_M_check_lengthEmmPKc
.Ltmp27:

.Ltmp28:
	mov	esi, .L.str.33
	mov	rdi, r14
	mov	rdx, rbx
	call	_ZNSt7__cxx1112basic_stringIcSt11char_traitsIcESaIcEE9_M_appendEPKcm
.Ltmp29:
	jmp	.LBB3_107
.LBB3_60:                               
.Ltmp84:
	mov	edi, .L.str.24
	call	_ZNSt11char_traitsIcE6lengthEPKc
	mov	rbx, rax
.Ltmp85:

.Ltmp86:
	xor	esi, esi
	mov	ecx, .L.str.53
	mov	rdi, r14
	mov	rdx, rbx
	call	_ZNKSt7__cxx1112basic_stringIcSt11char_traitsIcESaIcEE15_M_check_lengthEmmPKc
.Ltmp87:

.Ltmp88:
	mov	esi, .L.str.24
	mov	rdi, r14
	mov	rdx, rbx
	call	_ZNSt7__cxx1112basic_stringIcSt11char_traitsIcESaIcEE9_M_appendEPKcm
.Ltmp89:
	jmp	.LBB3_107
.LBB3_76:                               
.Ltmp36:
	mov	edi, .L.str.32
	call	_ZNSt11char_traitsIcE6lengthEPKc
	mov	rbx, rax
.Ltmp37:

.Ltmp38:
	xor	esi, esi
	mov	ecx, .L.str.53
	mov	rdi, r14
	mov	rdx, rbx
	call	_ZNKSt7__cxx1112basic_stringIcSt11char_traitsIcESaIcEE15_M_check_lengthEmmPKc
.Ltmp39:

.Ltmp40:
	mov	esi, .L.str.32
	mov	rdi, r14
	mov	rdx, rbx
	call	_ZNSt7__cxx1112basic_stringIcSt11char_traitsIcESaIcEE9_M_appendEPKcm
.Ltmp41:
	jmp	.LBB3_107
.LBB3_70:                               
.Ltmp60:
	mov	edi, .L.str.28
	call	_ZNSt11char_traitsIcE6lengthEPKc
	mov	rbx, rax
.Ltmp61:

.Ltmp62:
	xor	esi, esi
	mov	ecx, .L.str.53
	mov	rdi, r14
	mov	rdx, rbx
	call	_ZNKSt7__cxx1112basic_stringIcSt11char_traitsIcESaIcEE15_M_check_lengthEmmPKc
.Ltmp63:

.Ltmp64:
	mov	esi, .L.str.28
	mov	rdi, r14
	mov	rdx, rbx
	call	_ZNSt7__cxx1112basic_stringIcSt11char_traitsIcESaIcEE9_M_appendEPKcm
.Ltmp65:
	jmp	.LBB3_107
.LBB3_57:                               
.Ltmp102:
	mov	edi, .L.str.22
	call	_ZNSt11char_traitsIcE6lengthEPKc
	mov	rbx, rax
.Ltmp103:

.Ltmp104:
	xor	esi, esi
	mov	ecx, .L.str.53
	mov	rdi, r14
	mov	rdx, rbx
	call	_ZNKSt7__cxx1112basic_stringIcSt11char_traitsIcESaIcEE15_M_check_lengthEmmPKc
.Ltmp105:

.Ltmp106:
	mov	esi, .L.str.22
	mov	rdi, r14
	mov	rdx, rbx
	call	_ZNSt7__cxx1112basic_stringIcSt11char_traitsIcESaIcEE9_M_appendEPKcm
.Ltmp107:
	jmp	.LBB3_107
.LBB3_86:                               
.Ltmp18:
	mov	edi, .L.str.35
	call	_ZNSt11char_traitsIcE6lengthEPKc
	mov	rbx, rax
.Ltmp19:

.Ltmp20:
	xor	esi, esi
	mov	ecx, .L.str.53
	mov	rdi, r14
	mov	rdx, rbx
	call	_ZNKSt7__cxx1112basic_stringIcSt11char_traitsIcESaIcEE15_M_check_lengthEmmPKc
.Ltmp21:

.Ltmp22:
	mov	esi, .L.str.35
	mov	rdi, r14
	mov	rdx, rbx
	call	_ZNSt7__cxx1112basic_stringIcSt11char_traitsIcESaIcEE9_M_appendEPKcm
.Ltmp23:
	.p2align	4, 0x90
.LBB3_107:                              
	mov	eax, dword ptr [rip + x.182]
	mov	ecx, dword ptr [rip + y.183]
	mov	edx, eax
	neg	edx
	not	edx
	imul	edx, eax
	not	edx
	or	edx, -2
	cmp	edx, -1
	sete	dl
	sete	byte ptr [rsp + 9]
	mov	eax, -1845822783
	mov	esi, -465580998
	cmove	eax, esi
	cmp	ecx, 10
	setl	cl
	setl	byte ptr [rsp + 10]
	mov	edi, -1845822783
	cmovge	eax, edi
	xor	cl, dl
	cmovne	eax, esi
	mov	ecx, 827107434
	jmp	.LBB3_108
.LBB3_115:                              
	mov	ecx, 2093672288
	inc	r12
	.p2align	4, 0x90
.LBB3_108:                              

	cmp	ecx, 827107433
	jg	.LBB3_112

	cmp	ecx, -1845822783
	je	.LBB3_115

	cmp	ecx, -465580998
	jne	.LBB3_108
	jmp	.LBB3_111
	.p2align	4, 0x90
.LBB3_112:                              
	cmp	ecx, 2093672288
	je	.LBB3_116

	cmp	ecx, 827107434
	jne	.LBB3_108

	movzx	ebx, byte ptr [rsp + 9]
	movzx	ecx, byte ptr [rsp + 10]
	mov	edx, ebx
	xor	dl, cl
	mov	edx, -1845822783
	mov	esi, 2093672288
	cmovne	edx, esi
	test	cl, cl
	mov	ecx, edx
	cmovne	ecx, esi
	test	bl, bl
	cmove	ecx, edx
	jmp	.LBB3_108
.LBB3_116:                              
	inc	r12
	mov	ecx, eax
	jmp	.LBB3_108
.LBB3_117:
	mov	rax, r14
	add	rsp, 24
	pop	rbx
	pop	r12
	pop	r13
	pop	r14
	pop	r15
	pop	rbp
	ret
.LBB3_99:
.Ltmp121:
	call	_ZSt16__throw_bad_castv
.Ltmp122:

.LBB3_102:
.Ltmp119:
	call	_ZSt16__throw_bad_castv
.Ltmp120:

.LBB3_55:
.Ltmp123:
	jmp	.LBB3_56
.LBB3_54:
.Ltmp118:
.LBB3_56:
	mov	rbx, rax
	mov	rdi, r14
	call	_ZNSt7__cxx1112basic_stringIcSt11char_traitsIcESaIcEED2Ev
	mov	rdi, rbx
	call	_Unwind_Resume
.Lfunc_end3:
	.size	_ZN3DES7hex2binERKNSt7__cxx1112basic_stringIcSt11char_traitsIcESaIcEEE, .Lfunc_end3-_ZN3DES7hex2binERKNSt7__cxx1112basic_stringIcSt11char_traitsIcESaIcEEE
	.cfi_endproc
	.section	.gcc_except_table,"a",@progbits
	.p2align	2
GCC_except_table3:
.Lexception1:
	.byte	255                     
	.byte	3                       
	.byte	41                      
	.byte	3                       
	.byte	39                      
	.long	.Ltmp96-.Lfunc_begin1   
	.long	.Ltmp23-.Ltmp96         
	.long	.Ltmp118-.Lfunc_begin1  
	.byte	0                       
	.long	.Ltmp121-.Lfunc_begin1  
	.long	.Ltmp120-.Ltmp121       
	.long	.Ltmp123-.Lfunc_begin1  
	.byte	0                       
	.long	.Ltmp120-.Lfunc_begin1  
	.long	.Lfunc_end3-.Ltmp120    
	.long	0                       
	.byte	0                       
	.p2align	2

	.section	.text._ZNSt7__cxx1112basic_stringIcSt11char_traitsIcESaIcEED2Ev,"axG",@progbits,_ZNSt7__cxx1112basic_stringIcSt11char_traitsIcESaIcEED2Ev,comdat
	.weak	_ZNSt7__cxx1112basic_stringIcSt11char_traitsIcESaIcEED2Ev 
	.p2align	4, 0x90
	.type	_ZNSt7__cxx1112basic_stringIcSt11char_traitsIcESaIcEED2Ev,@function
_ZNSt7__cxx1112basic_stringIcSt11char_traitsIcESaIcEED2Ev: 
.Lfunc_begin2:
	.cfi_startproc
	.cfi_personality 3, __gxx_personality_v0
	.cfi_lsda 3, .Lexception2

	push	rbp
	push	r15
	push	r14
	push	r12
	push	rbx
	sub	rsp, 16
	mov	rbp, rdi
	mov	eax, 927018744
	mov	r14d, -1518875485
	mov	r12d, -1122579490
	mov	r15d, 1833758223
	jmp	.LBB4_1
.LBB4_13:                               
	cmp	ecx, 10
	cmovge	eax, edx
	.p2align	4, 0x90
.LBB4_1:                                
	cmp	eax, 927018743
	jg	.LBB4_6

	cmp	eax, -1518875485
	je	.LBB4_15

	cmp	eax, -1281207145
	je	.LBB4_11

	cmp	eax, -1122579490
	jne	.LBB4_1

	mov	eax, dword ptr [rip + x.250]
	mov	ecx, dword ptr [rip + y.251]
	mov	edx, eax
	neg	edx
	not	edx
	imul	edx, eax
	mov	eax, edx
	xor	eax, -2
	and	eax, edx
	sete	dl
	cmp	ecx, 10
	setl	bl
	xor	bl, dl
	mov	edx, 1611769801
	cmovne	edx, r14d
	test	eax, eax
	mov	eax, edx
	cmove	eax, r14d
	jmp	.LBB4_13
	.p2align	4, 0x90
.LBB4_6:                                
	cmp	eax, 1833758223
	je	.LBB4_12

	cmp	eax, 1611769801
	je	.LBB4_14

	cmp	eax, 927018744
	jne	.LBB4_1

.Ltmp124:
	mov	rdi, rbp
	call	_ZNKSt7__cxx1112basic_stringIcSt11char_traitsIcESaIcEE11_M_is_localEv
.Ltmp125:

	test	al, al
	mov	eax, -1281207145
	cmovne	eax, r15d
	jmp	.LBB4_1
.LBB4_11:                               
	mov	rdi, qword ptr [rbp]
	call	_ZdlPv
	mov	eax, 1833758223
	jmp	.LBB4_1
.LBB4_12:                               
	mov	eax, dword ptr [rip + x.250]
	mov	ecx, dword ptr [rip + y.251]
	mov	edx, eax
	neg	edx
	not	edx
	imul	edx, eax
	mov	eax, edx
	xor	eax, -2
	and	eax, edx
	sete	dl
	cmp	ecx, 10
	setl	bl
	xor	bl, dl
	mov	edx, 1611769801
	cmovne	edx, r12d
	test	eax, eax
	mov	eax, edx
	cmove	eax, r12d
	jmp	.LBB4_13
.LBB4_14:                               
	mov	eax, -1122579490
	jmp	.LBB4_1
.LBB4_15:
	mov	eax, dword ptr [rip + x.272]
	mov	edx, dword ptr [rip + y.273]
	lea	ecx, [rax - 1]
	imul	ecx, eax
	mov	eax, ecx
	xor	eax, -2
	and	eax, ecx
	sete	bl
	sete	byte ptr [rsp + 14]
	test	eax, eax
	mov	esi, -42627591
	mov	r8d, -741855023
	mov	ecx, -741855023
	cmove	ecx, esi
	cmp	edx, 10
	setl	dl
	setl	byte ptr [rsp + 15]
	cmovge	ecx, r8d
	xor	dl, bl
	cmovne	ecx, esi
	mov	esi, -605608669
	mov	ebp, -1020874651
	jmp	.LBB4_16
.LBB4_18:                               
	mov	esi, ecx
	.p2align	4, 0x90
.LBB4_16:                               
	mov	edi, esi
	and	edi, 1073741823
	cmp	edi, 468133154
	jg	.LBB4_19

	cmp	edi, 52867173
	je	.LBB4_18

	cmp	edi, 331886801
	jne	.LBB4_16

	mov	esi, -1020874651
	jmp	.LBB4_16
	.p2align	4, 0x90
.LBB4_19:                               
	cmp	edi, 1031114233
	je	.LBB4_24

	cmp	edi, 468133155
	jne	.LBB4_16

	movzx	edx, byte ptr [rsp + 14]
	movzx	eax, byte ptr [rsp + 15]
	mov	ebx, edx
	xor	bl, al
	test	al, al
	mov	esi, -741855023
	cmovne	esi, ebp
	test	dl, dl
	cmove	esi, r8d
	test	bl, bl
	cmovne	esi, ebp
	jmp	.LBB4_16
.LBB4_24:
	add	rsp, 16
	pop	rbx
	pop	r12
	pop	r14
	pop	r15
	pop	rbp
	ret
.LBB4_25:
.Ltmp126:
	mov	r14, rax
	mov	rdi, rbp
	call	_ZNSt7__cxx1112basic_stringIcSt11char_traitsIcESaIcEE12_Alloc_hiderD2Ev
	mov	rdi, r14
	call	__cxa_call_unexpected
.Lfunc_end4:
	.size	_ZNSt7__cxx1112basic_stringIcSt11char_traitsIcESaIcEED2Ev, .Lfunc_end4-_ZNSt7__cxx1112basic_stringIcSt11char_traitsIcESaIcEED2Ev
	.cfi_endproc
	.section	.gcc_except_table,"a",@progbits
	.p2align	2
GCC_except_table4:
.Lexception2:
	.byte	255                     
	.byte	3                       
	.asciz	"\236\200\200"          
	.byte	3                       
	.byte	26                      
	.long	.Ltmp124-.Lfunc_begin2  
	.long	.Ltmp125-.Ltmp124       
	.long	.Ltmp126-.Lfunc_begin2  
	.byte	1                       
	.long	.Ltmp125-.Lfunc_begin2  
	.long	.Lfunc_end4-.Ltmp125    
	.long	0                       
	.byte	0                       
	.byte	127                     

	.byte	0                       

	.byte	0
	.p2align	2

	.text
	.globl	_ZN3DESD2Ev             
	.p2align	4, 0x90
	.type	_ZN3DESD2Ev,@function
_ZN3DESD2Ev:                            

	push	rbp
	push	r15
	push	r14
	push	r13
	push	r12
	push	rbx
	sub	rsp, 88
	mov	rbx, rdi
	mov	eax, dword ptr [rip + x.56]
	mov	ecx, dword ptr [rip + y.57]
	lea	edx, [rax - 1]
	imul	edx, eax
	mov	eax, edx
	xor	eax, -2
	test	eax, edx
	sete	byte ptr [rsp + 14]
	cmp	ecx, 10
	setl	byte ptr [rsp + 15]
	lea	rax, [rbx + 424]
	mov	qword ptr [rsp + 80], rax 
	lea	rax, [rbx + 392]
	mov	qword ptr [rsp + 72], rax 
	lea	rax, [rbx + 360]
	mov	qword ptr [rsp + 64], rax 
	lea	rax, [rbx + 328]
	mov	qword ptr [rsp + 56], rax 
	lea	rax, [rbx + 296]
	mov	qword ptr [rsp + 48], rax 
	lea	rax, [rbx + 264]
	mov	qword ptr [rsp + 40], rax 
	lea	rax, [rbx + 232]
	mov	qword ptr [rsp + 32], rax 
	lea	rax, [rbx + 200]
	mov	qword ptr [rsp + 24], rax 
	lea	rax, [rbx + 168]
	mov	qword ptr [rsp + 16], rax 
	lea	rbp, [rbx + 136]
	lea	r14, [rbx + 104]
	lea	r15, [rbx + 72]
	lea	r12, [rbx + 40]
	lea	r13, [rbx + 8]
	mov	eax, 659097085
	jmp	.LBB5_1
.LBB5_4:                                
	movzx	ecx, byte ptr [rsp + 14]
	movzx	eax, byte ptr [rsp + 15]
	mov	edx, ecx
	xor	dl, al
	mov	edx, 1260435929
	mov	esi, -934954279
	cmovne	edx, esi
	test	al, al
	mov	eax, edx
	cmovne	eax, esi
	test	cl, cl
	cmove	eax, edx
	.p2align	4, 0x90
.LBB5_1:                                
	cmp	eax, 820211353
	jg	.LBB5_5

	cmp	eax, -934954279
	je	.LBB5_8

	cmp	eax, 659097085
	jne	.LBB5_1
	jmp	.LBB5_4
	.p2align	4, 0x90
.LBB5_5:                                
	cmp	eax, 820211354
	je	.LBB5_9

	cmp	eax, 1260435929
	jne	.LBB5_1

	mov	qword ptr [rbx], _ZTV3DES+16
	mov	rdi, qword ptr [rsp + 80] 
	call	_ZNSt7__cxx1112basic_stringIcSt11char_traitsIcESaIcEED2Ev
	mov	rdi, qword ptr [rsp + 72] 
	call	_ZNSt7__cxx1112basic_stringIcSt11char_traitsIcESaIcEED2Ev
	mov	rdi, qword ptr [rsp + 64] 
	call	_ZNSt7__cxx1112basic_stringIcSt11char_traitsIcESaIcEED2Ev
	mov	rdi, qword ptr [rsp + 56] 
	call	_ZNSt7__cxx1112basic_stringIcSt11char_traitsIcESaIcEED2Ev
	mov	rdi, qword ptr [rsp + 48] 
	call	_ZNSt7__cxx1112basic_stringIcSt11char_traitsIcESaIcEED2Ev
	mov	rdi, qword ptr [rsp + 40] 
	call	_ZNSt7__cxx1112basic_stringIcSt11char_traitsIcESaIcEED2Ev
	mov	rdi, qword ptr [rsp + 32] 
	call	_ZNSt7__cxx1112basic_stringIcSt11char_traitsIcESaIcEED2Ev
	mov	rdi, qword ptr [rsp + 24] 
	call	_ZNSt7__cxx1112basic_stringIcSt11char_traitsIcESaIcEED2Ev
	mov	rdi, qword ptr [rsp + 16] 
	call	_ZNSt7__cxx1112basic_stringIcSt11char_traitsIcESaIcEED2Ev
	mov	rdi, rbp
	call	_ZNSt7__cxx1112basic_stringIcSt11char_traitsIcESaIcEED2Ev
	mov	rdi, r14
	call	_ZNSt7__cxx1112basic_stringIcSt11char_traitsIcESaIcEED2Ev
	mov	rdi, r15
	call	_ZNSt7__cxx1112basic_stringIcSt11char_traitsIcESaIcEED2Ev
	mov	rdi, r12
	call	_ZNSt7__cxx1112basic_stringIcSt11char_traitsIcESaIcEED2Ev
	mov	rdi, r13
	call	_ZNSt7__cxx1112basic_stringIcSt11char_traitsIcESaIcEED2Ev
	mov	eax, -934954279
	jmp	.LBB5_1
.LBB5_8:                                
	mov	qword ptr [rbx], _ZTV3DES+16
	mov	rdi, qword ptr [rsp + 80] 
	call	_ZNSt7__cxx1112basic_stringIcSt11char_traitsIcESaIcEED2Ev
	mov	rdi, qword ptr [rsp + 72] 
	call	_ZNSt7__cxx1112basic_stringIcSt11char_traitsIcESaIcEED2Ev
	mov	rdi, qword ptr [rsp + 64] 
	call	_ZNSt7__cxx1112basic_stringIcSt11char_traitsIcESaIcEED2Ev
	mov	rdi, qword ptr [rsp + 56] 
	call	_ZNSt7__cxx1112basic_stringIcSt11char_traitsIcESaIcEED2Ev
	mov	rdi, qword ptr [rsp + 48] 
	call	_ZNSt7__cxx1112basic_stringIcSt11char_traitsIcESaIcEED2Ev
	mov	rdi, qword ptr [rsp + 40] 
	call	_ZNSt7__cxx1112basic_stringIcSt11char_traitsIcESaIcEED2Ev
	mov	rdi, qword ptr [rsp + 32] 
	call	_ZNSt7__cxx1112basic_stringIcSt11char_traitsIcESaIcEED2Ev
	mov	rdi, qword ptr [rsp + 24] 
	call	_ZNSt7__cxx1112basic_stringIcSt11char_traitsIcESaIcEED2Ev
	mov	rdi, qword ptr [rsp + 16] 
	call	_ZNSt7__cxx1112basic_stringIcSt11char_traitsIcESaIcEED2Ev
	mov	rdi, rbp
	call	_ZNSt7__cxx1112basic_stringIcSt11char_traitsIcESaIcEED2Ev
	mov	rdi, r14
	call	_ZNSt7__cxx1112basic_stringIcSt11char_traitsIcESaIcEED2Ev
	mov	rdi, r15
	call	_ZNSt7__cxx1112basic_stringIcSt11char_traitsIcESaIcEED2Ev
	mov	rdi, r12
	call	_ZNSt7__cxx1112basic_stringIcSt11char_traitsIcESaIcEED2Ev
	mov	rdi, r13
	call	_ZNSt7__cxx1112basic_stringIcSt11char_traitsIcESaIcEED2Ev
	mov	eax, dword ptr [rip + x.56]
	mov	esi, dword ptr [rip + y.57]
	lea	edx, [rax - 1]
	imul	edx, eax
	not	edx
	or	edx, -2
	cmp	edx, -1
	sete	al
	cmp	esi, 10
	setl	cl
	xor	cl, al
	mov	ecx, 1260435929
	mov	edi, 820211354
	cmovne	ecx, edi
	cmp	edx, -1
	mov	eax, ecx
	cmove	eax, edi
	cmp	esi, 10
	cmovge	eax, ecx
	jmp	.LBB5_1
.LBB5_9:
	add	rsp, 88
	pop	rbx
	pop	r12
	pop	r13
	pop	r14
	pop	r15
	pop	rbp
	ret
.Lfunc_end5:
	.size	_ZN3DESD2Ev, .Lfunc_end5-_ZN3DESD2Ev

	.globl	_ZN3DESD0Ev             
	.p2align	4, 0x90
	.type	_ZN3DESD0Ev,@function
_ZN3DESD0Ev:                            

	push	rbx
	mov	rbx, rdi
	call	_ZN3DESD2Ev
	mov	rdi, rbx
	pop	rbx
	jmp	_ZdlPv                  
.Lfunc_end6:
	.size	_ZN3DESD0Ev, .Lfunc_end6-_ZN3DESD0Ev

	.globl	_ZN3DES5xor48ERKNSt7__cxx1112basic_stringIcSt11char_traitsIcESaIcEEES7_ 
	.p2align	4, 0x90
	.type	_ZN3DES5xor48ERKNSt7__cxx1112basic_stringIcSt11char_traitsIcESaIcEEES7_,@function
_ZN3DES5xor48ERKNSt7__cxx1112basic_stringIcSt11char_traitsIcESaIcEEES7_: 
	.cfi_startproc

	push	rbp
.Lcfi33:
	.cfi_def_cfa_offset 16
.Lcfi34:
	.cfi_offset rbp, -16
	mov	rbp, rsp
.Lcfi35:
	.cfi_def_cfa_register rbp
	push	r15
	push	r14
	push	r13
	push	r12
	push	rbx
	sub	rsp, 40
.Lcfi36:
	.cfi_offset rbx, -56
.Lcfi37:
	.cfi_offset r12, -48
.Lcfi38:
	.cfi_offset r13, -40
.Lcfi39:
	.cfi_offset r14, -32
.Lcfi40:
	.cfi_offset r15, -24
	mov	qword ptr [rbp - 80], rdx 
	mov	qword ptr [rbp - 72], rsi 
	mov	eax, dword ptr [rip + x.60]
	mov	ecx, dword ptr [rip + y.61]
	lea	edx, [rax - 1]
	imul	edx, eax
	not	edx
	or	edx, -2
	cmp	edx, -1
	sete	byte ptr [rbp - 43]
	cmp	ecx, 10
	setl	byte ptr [rbp - 44]
	add	rdi, 296
	mov	qword ptr [rbp - 64], rdi 
	mov	eax, -959876166
	jmp	.LBB7_1
.LBB7_16:                               
	mov	cl, byte ptr [rbp - 43]
	mov	al, byte ptr [rbp - 44]
	mov	edx, ecx
	xor	dl, al
	mov	edx, 1963504489
	mov	esi, 1804022357
	cmovne	edx, esi
	test	al, al
	mov	eax, edx
	cmovne	eax, esi
	test	cl, cl
	cmove	eax, edx
	.p2align	4, 0x90
.LBB7_1:                                




	cmp	eax, 1963504488
	jle	.LBB7_2

	cmp	eax, 1963504489
	je	.LBB7_27

	cmp	eax, 2038096152
	jne	.LBB7_1
	jmp	.LBB7_15
	.p2align	4, 0x90
.LBB7_2:                                
	cmp	eax, -959876166
	je	.LBB7_16

	cmp	eax, 1804022357
	jne	.LBB7_1

	mov	r14, rsp
	add	r14, -16
	mov	rsp, r14
	mov	r15, rsp
	add	r15, -16
	mov	rsp, r15
	mov	r12, rsp
	add	r12, -16
	mov	rsp, r12
	mov	r13, rsp
	add	r13, -32
	mov	rsp, r13
	mov	eax, dword ptr [rip + x.202]
	mov	ecx, dword ptr [rip + y.203]
	lea	edx, [rax - 1]
	imul	edx, eax
	mov	eax, edx
	xor	eax, -2
	and	eax, edx
	sete	byte ptr [rbp - 41]
	sete	dl
	test	eax, eax
	mov	eax, -903518113
	mov	esi, -509641745
	cmove	eax, esi
	cmp	ecx, 10
	setl	cl
	setl	byte ptr [rbp - 56]
	mov	edi, -903518113
	cmovge	eax, edi
	xor	cl, dl
	cmovne	eax, esi
	mov	ecx, 1511383347
	jmp	.LBB7_5
.LBB7_27:                               
	mov	r12, rsp
	add	r12, -16
	mov	rsp, r12
	mov	r14, rsp
	add	r14, -16
	mov	rsp, r14
	mov	r15, rsp
	add	r15, -16
	mov	rsp, r15
	mov	r13, rsp
	add	r13, -32
	mov	rsp, r13
	mov	eax, dword ptr [rip + x.202]
	mov	ecx, dword ptr [rip + y.203]
	lea	edx, [rax - 1]
	imul	edx, eax
	mov	eax, edx
	xor	eax, -2
	and	eax, edx
	sete	dl
	sete	byte ptr [rbp - 41]
	cmp	ecx, 10
	setl	bl
	xor	bl, dl
	mov	edx, -903518113
	mov	esi, -509641745
	cmovne	edx, esi
	test	eax, eax
	mov	eax, edx
	cmove	eax, esi
	cmp	ecx, 10
	setl	byte ptr [rbp - 56]
	cmovge	eax, edx
	mov	ecx, 1511383347
	jmp	.LBB7_28
.LBB7_19:                               
	movzx	ebx, byte ptr [rbp - 41]
	movzx	ecx, byte ptr [rbp - 56]
	mov	edx, ebx
	xor	dl, cl
	test	cl, cl
	mov	ecx, -903518113
	mov	edi, 858164122
	cmovne	ecx, edi
	test	bl, bl
	mov	esi, -903518113
	cmove	ecx, esi
	test	dl, dl
	cmovne	ecx, edi
	.p2align	4, 0x90
.LBB7_5:                                

	cmp	ecx, 858164121
	jg	.LBB7_17

	cmp	ecx, -903518113
	je	.LBB7_21

	cmp	ecx, -509641745
	jne	.LBB7_5
	jmp	.LBB7_8
	.p2align	4, 0x90
.LBB7_17:                               
	cmp	ecx, 858164122
	je	.LBB7_20

	cmp	ecx, 1511383347
	jne	.LBB7_5
	jmp	.LBB7_19
.LBB7_21:                               
	mov	qword ptr [r14], 0
	mov	ecx, 858164122
	jmp	.LBB7_5
.LBB7_20:                               
	mov	qword ptr [r14], 0
	mov	ecx, eax
	jmp	.LBB7_5
.LBB7_38:                               
	movzx	ebx, byte ptr [rbp - 41]
	movzx	ecx, byte ptr [rbp - 56]
	mov	edx, ebx
	xor	dl, cl
	test	cl, cl
	mov	ecx, -903518113
	mov	edi, 858164122
	cmovne	ecx, edi
	test	bl, bl
	mov	esi, -903518113
	cmove	ecx, esi
	test	dl, dl
	cmovne	ecx, edi
	.p2align	4, 0x90
.LBB7_28:                               

	cmp	ecx, 858164121
	jg	.LBB7_36

	cmp	ecx, -903518113
	je	.LBB7_40

	cmp	ecx, -509641745
	jne	.LBB7_28
	jmp	.LBB7_31
	.p2align	4, 0x90
.LBB7_36:                               
	cmp	ecx, 858164122
	je	.LBB7_39

	cmp	ecx, 1511383347
	jne	.LBB7_28
	jmp	.LBB7_38
.LBB7_40:                               
	mov	qword ptr [r12], 0
	mov	ecx, 858164122
	jmp	.LBB7_28
.LBB7_39:                               
	mov	qword ptr [r12], 0
	mov	ecx, eax
	jmp	.LBB7_28
.LBB7_8:                                
	xor	edx, edx
	mov	rdi, r15
	mov	rsi, qword ptr [rbp - 72] 
	call	_ZNSt6bitsetILm48EEC2IcSt11char_traitsIcESaIcEEERKNSt7__cxx1112basic_stringIT_T0_T1_EEm
	xor	edx, edx
	mov	rdi, r12
	mov	rsi, qword ptr [rbp - 80] 
	call	_ZNSt6bitsetILm48EEC2IcSt11char_traitsIcESaIcEEERKNSt7__cxx1112basic_stringIT_T0_T1_EEm
	mov	eax, dword ptr [rip + x.66]
	mov	ecx, dword ptr [rip + y.67]
	lea	edx, [rax - 1]
	imul	edx, eax
	not	edx
	or	edx, -2
	cmp	edx, -1
	sete	al
	cmp	ecx, 10
	setl	bl
	xor	bl, al
	mov	esi, -375915107
	mov	eax, 60587551
	cmovne	esi, eax
	cmp	edx, -1
	sete	byte ptr [rbp - 42]
	mov	r8d, esi
	cmove	r8d, eax
	cmp	ecx, 10
	setl	byte ptr [rbp - 41]
	mov	rdx, qword ptr [r15]
	mov	rdi, qword ptr [r12]
	mov	rcx, rdx
	not	rcx
	cmovge	r8d, esi
	and	rcx, rdi
	not	rdi
	and	rdi, rdx
	or	rcx, rdi
	mov	edx, 76401318
	jmp	.LBB7_9
.LBB7_31:                               
	xor	edx, edx
	mov	rdi, r14
	mov	rsi, qword ptr [rbp - 72] 
	call	_ZNSt6bitsetILm48EEC2IcSt11char_traitsIcESaIcEEERKNSt7__cxx1112basic_stringIT_T0_T1_EEm
	xor	edx, edx
	mov	rdi, r15
	mov	rsi, qword ptr [rbp - 80] 
	call	_ZNSt6bitsetILm48EEC2IcSt11char_traitsIcESaIcEEERKNSt7__cxx1112basic_stringIT_T0_T1_EEm
	mov	eax, dword ptr [rip + x.66]
	mov	ecx, dword ptr [rip + y.67]
	lea	edx, [rax - 1]
	imul	edx, eax
	not	edx
	or	edx, -2
	cmp	edx, -1
	sete	al
	cmp	ecx, 10
	setl	bl
	xor	bl, al
	mov	esi, -375915107
	mov	eax, 60587551
	cmovne	esi, eax
	cmp	edx, -1
	sete	byte ptr [rbp - 42]
	mov	r8d, esi
	cmove	r8d, eax
	cmp	ecx, 10
	setl	byte ptr [rbp - 41]
	mov	rdx, qword ptr [r14]
	mov	rdi, qword ptr [r15]
	mov	rcx, rdx
	not	rcx
	cmovge	r8d, esi
	and	rcx, rdi
	not	rdi
	and	rdi, rdx
	or	rcx, rdi
	mov	edx, 76401318
	jmp	.LBB7_32
.LBB7_24:                               
	movzx	eax, byte ptr [rbp - 42]
	movzx	edx, byte ptr [rbp - 41]
	mov	ebx, eax
	xor	bl, dl
	test	dl, dl
	mov	edx, -375915107
	mov	esi, 1645629462
	cmovne	edx, esi
	test	al, al
	mov	eax, -375915107
	cmove	edx, eax
	test	bl, bl
	cmovne	edx, esi
	.p2align	4, 0x90
.LBB7_9:                                

	cmp	edx, 76401317
	jg	.LBB7_22

	cmp	edx, -375915107
	je	.LBB7_26

	cmp	edx, 60587551
	jne	.LBB7_9
	jmp	.LBB7_12
	.p2align	4, 0x90
.LBB7_22:                               
	cmp	edx, 1645629462
	je	.LBB7_25

	cmp	edx, 76401318
	jne	.LBB7_9
	jmp	.LBB7_24
.LBB7_26:                               
	mov	edx, 1645629462
	jmp	.LBB7_9
.LBB7_25:                               
	mov	qword ptr [rbp - 56], rcx
	mov	edx, r8d
	jmp	.LBB7_9
.LBB7_43:                               
	movzx	eax, byte ptr [rbp - 42]
	movzx	edx, byte ptr [rbp - 41]
	mov	ebx, eax
	xor	bl, dl
	mov	esi, -375915107
	mov	edi, 1645629462
	cmovne	esi, edi
	test	dl, dl
	mov	edx, esi
	cmovne	edx, edi
	test	al, al
	cmove	edx, esi
	.p2align	4, 0x90
.LBB7_32:                               

	cmp	edx, 76401317
	jg	.LBB7_41

	cmp	edx, -375915107
	je	.LBB7_45

	cmp	edx, 60587551
	jne	.LBB7_32
	jmp	.LBB7_35
	.p2align	4, 0x90
.LBB7_41:                               
	cmp	edx, 1645629462
	je	.LBB7_44

	cmp	edx, 76401318
	jne	.LBB7_32
	jmp	.LBB7_43
.LBB7_45:                               
	mov	edx, 1645629462
	jmp	.LBB7_32
.LBB7_44:                               
	mov	qword ptr [rbp - 56], rcx
	mov	edx, r8d
	jmp	.LBB7_32
.LBB7_12:                               
	mov	rax, qword ptr [rbp - 56]
	mov	qword ptr [r14], rax
	mov	rdi, r13
	mov	rsi, r14
	call	_ZNKSt6bitsetILm48EE9to_stringB5cxx11Ev
	mov	rdi, qword ptr [rbp - 64] 
	mov	rsi, r13
	call	_ZNSt7__cxx1112basic_stringIcSt11char_traitsIcESaIcEEaSEOS4_
	mov	rdi, r13
	call	_ZNSt7__cxx1112basic_stringIcSt11char_traitsIcESaIcEED2Ev
	mov	eax, dword ptr [rip + x.60]
	mov	ecx, dword ptr [rip + y.61]
	lea	edx, [rax - 1]
	imul	edx, eax
	not	edx
	or	edx, -2
	cmp	edx, -1
	sete	al
	cmp	ecx, 10
	setl	bl
	xor	bl, al
	mov	esi, 1963504489
	mov	edi, 2038096152
	cmovne	esi, edi
	cmp	edx, -1
	mov	eax, esi
	cmove	eax, edi
	cmp	ecx, 10
	cmovge	eax, esi
	jmp	.LBB7_1
.LBB7_35:                               
	mov	rax, qword ptr [rbp - 56]
	mov	qword ptr [r12], rax
	mov	rdi, r13
	mov	rsi, r12
	call	_ZNKSt6bitsetILm48EE9to_stringB5cxx11Ev
	mov	rdi, qword ptr [rbp - 64] 
	mov	rsi, r13
	call	_ZNSt7__cxx1112basic_stringIcSt11char_traitsIcESaIcEEaSEOS4_
	mov	rdi, r13
	call	_ZNSt7__cxx1112basic_stringIcSt11char_traitsIcESaIcEED2Ev
	mov	eax, 1804022357
	jmp	.LBB7_1
.LBB7_15:
	lea	rsp, [rbp - 40]
	pop	rbx
	pop	r12
	pop	r13
	pop	r14
	pop	r15
	pop	rbp
	ret
.Lfunc_end7:
	.size	_ZN3DES5xor48ERKNSt7__cxx1112basic_stringIcSt11char_traitsIcESaIcEEES7_, .Lfunc_end7-_ZN3DES5xor48ERKNSt7__cxx1112basic_stringIcSt11char_traitsIcESaIcEEES7_
	.cfi_endproc

	.section	.text._ZNSt6bitsetILm48EEC2IcSt11char_traitsIcESaIcEEERKNSt7__cxx1112basic_stringIT_T0_T1_EEm,"axG",@progbits,_ZNSt6bitsetILm48EEC2IcSt11char_traitsIcESaIcEEERKNSt7__cxx1112basic_stringIT_T0_T1_EEm,comdat
	.weak	_ZNSt6bitsetILm48EEC2IcSt11char_traitsIcESaIcEEERKNSt7__cxx1112basic_stringIT_T0_T1_EEm 
	.p2align	4, 0x90
	.type	_ZNSt6bitsetILm48EEC2IcSt11char_traitsIcESaIcEEERKNSt7__cxx1112basic_stringIT_T0_T1_EEm,@function
_ZNSt6bitsetILm48EEC2IcSt11char_traitsIcESaIcEEERKNSt7__cxx1112basic_stringIT_T0_T1_EEm: 
	.cfi_startproc

	push	r15
.Lcfi41:
	.cfi_def_cfa_offset 16
	push	r14
.Lcfi42:
	.cfi_def_cfa_offset 24
	push	rbx
.Lcfi43:
	.cfi_def_cfa_offset 32
	sub	rsp, 32
.Lcfi44:
	.cfi_def_cfa_offset 64
.Lcfi45:
	.cfi_offset rbx, -32
.Lcfi46:
	.cfi_offset r14, -24
.Lcfi47:
	.cfi_offset r15, -16
	mov	r14, rdx
	mov	rbx, rsi
	mov	r15, rdi
	mov	eax, dword ptr [rip + x.202]
	lea	ecx, [rax - 1]
	imul	ecx, eax
	mov	eax, ecx
	xor	eax, -2
	test	eax, ecx
	sete	byte ptr [rsp + 20]
	mov	eax, dword ptr [rip + y.203]
	cmp	eax, 10
	setl	byte ptr [rsp + 21]
	mov	esi, 1511383347
	mov	r8d, -509641745
	mov	r9d, -903518113
	mov	edi, 858164122
	jmp	.LBB8_1
.LBB8_11:                               
	movzx	edx, byte ptr [rsp + 20]
	movzx	ecx, byte ptr [rsp + 21]
	mov	eax, edx
	xor	al, cl
	test	cl, cl
	mov	esi, -903518113
	cmovne	esi, edi
	test	dl, dl
	cmove	esi, r9d
	test	al, al
	cmovne	esi, edi
	.p2align	4, 0x90
.LBB8_1:                                
	cmp	esi, 858164121
	jg	.LBB8_9

	cmp	esi, -903518113
	je	.LBB8_13

	cmp	esi, -509641745
	jne	.LBB8_1
	jmp	.LBB8_4
	.p2align	4, 0x90
.LBB8_9:                                
	cmp	esi, 858164122
	je	.LBB8_12

	cmp	esi, 1511383347
	jne	.LBB8_1
	jmp	.LBB8_11
.LBB8_13:                               
	mov	qword ptr [r15], 0
	mov	esi, 858164122
	jmp	.LBB8_1
.LBB8_12:                               
	mov	qword ptr [r15], 0
	mov	eax, dword ptr [rip + x.202]
	lea	ecx, [rax - 1]
	imul	ecx, eax
	not	ecx
	or	ecx, -2
	cmp	ecx, -1
	sete	al
	mov	esi, -903518113
	cmove	esi, r8d
	cmp	dword ptr [rip + y.203], 10
	setl	cl
	cmovge	esi, r9d
	xor	cl, al
	cmovne	esi, r8d
	jmp	.LBB8_1
.LBB8_4:
	mov	rdi, r15
	mov	rsi, rbx
	mov	rdx, r14
	call	_ZNKSt6bitsetILm48EE25_M_check_initial_positionIcSt11char_traitsIcESaIcEEEvRKNSt7__cxx1112basic_stringIT_T0_T1_EEm
	mov	rsi, qword ptr [rbx]
	mov	eax, dword ptr [rip + x.274]
	mov	ecx, dword ptr [rip + y.275]
	lea	edx, [rax - 1]
	imul	edx, eax
	not	edx
	or	edx, -2
	cmp	edx, -1
	sete	dl
	sete	byte ptr [rsp + 22]
	mov	edi, -901066291
	mov	r8d, -1511853027
	mov	eax, -1511853027
	cmove	eax, edi
	cmp	ecx, 10
	setl	cl
	setl	byte ptr [rsp + 23]
	cmovge	eax, r8d
	xor	cl, dl
	cmovne	eax, edi
	mov	rdi, qword ptr [rbx + 8]
	mov	ecx, 1978003098
	mov	r9d, 2092656913
	jmp	.LBB8_5
.LBB8_16:                               
	movzx	edx, byte ptr [rsp + 22]
	movzx	ecx, byte ptr [rsp + 23]
	mov	ebx, edx
	xor	bl, cl
	test	cl, cl
	mov	ecx, -1511853027
	cmovne	ecx, r9d
	test	dl, dl
	cmove	ecx, r8d
	test	bl, bl
	cmovne	ecx, r9d
	.p2align	4, 0x90
.LBB8_5:                                
	cmp	ecx, 1978003097
	jg	.LBB8_14

	cmp	ecx, -1511853027
	je	.LBB8_18

	cmp	ecx, -901066291
	jne	.LBB8_5
	jmp	.LBB8_8
	.p2align	4, 0x90
.LBB8_14:                               
	cmp	ecx, 2092656913
	je	.LBB8_17

	cmp	ecx, 1978003098
	jne	.LBB8_5
	jmp	.LBB8_16
.LBB8_18:                               
	mov	ecx, 2092656913
	jmp	.LBB8_5
.LBB8_17:                               
	mov	qword ptr [rsp + 24], rdi
	mov	ecx, eax
	jmp	.LBB8_5
.LBB8_8:
	mov	rdx, qword ptr [rsp + 24]
	mov	dword ptr [rsp], 49
	mov	r8, -1
	mov	r9d, 48
	mov	rdi, r15
	mov	rcx, r14
	call	_ZNSt6bitsetILm48EE16_M_copy_from_ptrIcSt11char_traitsIcEEEvPKT_mmmS4_S4_
	add	rsp, 32
	pop	rbx
	pop	r14
	pop	r15
	ret
.Lfunc_end8:
	.size	_ZNSt6bitsetILm48EEC2IcSt11char_traitsIcESaIcEEERKNSt7__cxx1112basic_stringIT_T0_T1_EEm, .Lfunc_end8-_ZNSt6bitsetILm48EEC2IcSt11char_traitsIcESaIcEEERKNSt7__cxx1112basic_stringIT_T0_T1_EEm
	.cfi_endproc

	.section	.text._ZNKSt6bitsetILm48EE9to_stringB5cxx11Ev,"axG",@progbits,_ZNKSt6bitsetILm48EE9to_stringB5cxx11Ev,comdat
	.weak	_ZNKSt6bitsetILm48EE9to_stringB5cxx11Ev 
	.p2align	4, 0x90
	.type	_ZNKSt6bitsetILm48EE9to_stringB5cxx11Ev,@function
_ZNKSt6bitsetILm48EE9to_stringB5cxx11Ev: 
.Lfunc_begin3:
	.cfi_startproc
	.cfi_personality 3, __gxx_personality_v0
	.cfi_lsda 3, .Lexception3

	push	rbp
.Lcfi48:
	.cfi_def_cfa_offset 16
	push	r15
.Lcfi49:
	.cfi_def_cfa_offset 24
	push	r14
.Lcfi50:
	.cfi_def_cfa_offset 32
	push	r13
.Lcfi51:
	.cfi_def_cfa_offset 40
	push	r12
.Lcfi52:
	.cfi_def_cfa_offset 48
	push	rbx
.Lcfi53:
	.cfi_def_cfa_offset 56
	push	rax
.Lcfi54:
	.cfi_def_cfa_offset 64
.Lcfi55:
	.cfi_offset rbx, -56
.Lcfi56:
	.cfi_offset r12, -48
.Lcfi57:
	.cfi_offset r13, -40
.Lcfi58:
	.cfi_offset r14, -32
.Lcfi59:
	.cfi_offset r15, -24
.Lcfi60:
	.cfi_offset rbp, -16
	mov	r14, rsi
	mov	rbx, rdi
	mov	eax, dword ptr [rip + x.68]
	lea	ecx, [rax - 1]
	imul	ecx, eax
	mov	eax, ecx
	xor	eax, -2
	test	eax, ecx
	sete	byte ptr [rsp + 6]
	mov	eax, dword ptr [rip + y.69]
	cmp	eax, 10
	setl	byte ptr [rsp + 7]
	mov	ebp, -742512053
	mov	r12d, 1819483485
	mov	r15d, -1006004615
	mov	r13d, -1634261053
	jmp	.LBB9_1
.LBB9_7:                                
	movzx	eax, byte ptr [rsp + 6]
	movzx	ecx, byte ptr [rsp + 7]
	mov	edx, eax
	xor	dl, cl
	mov	edx, -1006004615
	cmovne	edx, r13d
	test	cl, cl
	mov	ebp, edx
	cmovne	ebp, r13d
	test	al, al
	cmove	ebp, edx
	.p2align	4, 0x90
.LBB9_1:                                
	cmp	ebp, -742512054
	jg	.LBB9_5

	cmp	ebp, -1634261053
	je	.LBB9_9

	cmp	ebp, -1006004615
	jne	.LBB9_1

	mov	rdi, rbx
	call	_ZNSt7__cxx1112basic_stringIcSt11char_traitsIcESaIcEEC2Ev
	mov	ebp, -1634261053
.Ltmp127:
	mov	edx, 48
	mov	ecx, 49
	mov	rdi, r14
	mov	rsi, rbx
	call	_ZNKSt6bitsetILm48EE17_M_copy_to_stringIcSt11char_traitsIcESaIcEEEvRNSt7__cxx1112basic_stringIT_T0_T1_EES7_S7_
.Ltmp128:
	jmp	.LBB9_1
	.p2align	4, 0x90
.LBB9_5:                                
	cmp	ebp, 1819483485
	je	.LBB9_11

	cmp	ebp, -742512053
	jne	.LBB9_1
	jmp	.LBB9_7
.LBB9_9:                                
	mov	rdi, rbx
	call	_ZNSt7__cxx1112basic_stringIcSt11char_traitsIcESaIcEEC2Ev
.Ltmp130:
	mov	edx, 48
	mov	ecx, 49
	mov	rdi, r14
	mov	rsi, rbx
	call	_ZNKSt6bitsetILm48EE17_M_copy_to_stringIcSt11char_traitsIcESaIcEEEvRNSt7__cxx1112basic_stringIT_T0_T1_EES7_S7_
.Ltmp131:

	mov	eax, dword ptr [rip + x.68]
	lea	ecx, [rax - 1]
	imul	ecx, eax
	mov	eax, ecx
	xor	eax, -2
	and	eax, ecx
	sete	cl
	test	eax, eax
	mov	ebp, -1006004615
	cmove	ebp, r12d
	cmp	dword ptr [rip + y.69], 10
	setl	al
	cmovge	ebp, r15d
	xor	al, cl
	cmovne	ebp, r12d
	jmp	.LBB9_1
.LBB9_11:
	mov	rax, rbx
	add	rsp, 8
	pop	rbx
	pop	r12
	pop	r13
	pop	r14
	pop	r15
	pop	rbp
	ret
.LBB9_8:
.Ltmp132:
	jmp	.LBB9_13
.LBB9_12:
.Ltmp129:
.LBB9_13:
	mov	r14, rax
	mov	rdi, rbx
	call	_ZNSt7__cxx1112basic_stringIcSt11char_traitsIcESaIcEED2Ev
	mov	rdi, r14
	call	_Unwind_Resume
.Lfunc_end9:
	.size	_ZNKSt6bitsetILm48EE9to_stringB5cxx11Ev, .Lfunc_end9-_ZNKSt6bitsetILm48EE9to_stringB5cxx11Ev
	.cfi_endproc
	.section	.gcc_except_table,"a",@progbits
	.p2align	2
GCC_except_table9:
.Lexception3:
	.byte	255                     
	.byte	3                       
	.byte	41                      
	.byte	3                       
	.byte	39                      
	.long	.Ltmp127-.Lfunc_begin3  
	.long	.Ltmp128-.Ltmp127       
	.long	.Ltmp129-.Lfunc_begin3  
	.byte	0                       
	.long	.Ltmp130-.Lfunc_begin3  
	.long	.Ltmp131-.Ltmp130       
	.long	.Ltmp132-.Lfunc_begin3  
	.byte	0                       
	.long	.Ltmp131-.Lfunc_begin3  
	.long	.Lfunc_end9-.Ltmp131    
	.long	0                       
	.byte	0                       
	.p2align	2

	.section	.text._ZNSt7__cxx1112basic_stringIcSt11char_traitsIcESaIcEEaSEOS4_,"axG",@progbits,_ZNSt7__cxx1112basic_stringIcSt11char_traitsIcESaIcEEaSEOS4_,comdat
	.weak	_ZNSt7__cxx1112basic_stringIcSt11char_traitsIcESaIcEEaSEOS4_ 
	.p2align	4, 0x90
	.type	_ZNSt7__cxx1112basic_stringIcSt11char_traitsIcESaIcEEaSEOS4_,@function
_ZNSt7__cxx1112basic_stringIcSt11char_traitsIcESaIcEEaSEOS4_: 
.Lfunc_begin4:
	.cfi_startproc
	.cfi_personality 3, __gxx_personality_v0
	.cfi_lsda 3, .Lexception4

	push	r15
	push	r14
	push	r12
	push	rbx
	sub	rsp, 24
	mov	r15, rsi
	mov	r14, rdi
.Ltmp133:
	call	_ZNKSt7__cxx1112basic_stringIcSt11char_traitsIcESaIcEE11_M_is_localEv
.Ltmp134:

	mov	eax, dword ptr [rip + x.400]
	mov	ecx, dword ptr [rip + y.401]
	mov	edx, eax
	neg	edx
	not	edx
	imul	edx, eax
	mov	esi, edx
	xor	esi, -2
	and	esi, edx
	sete	byte ptr [rsp + 14]
	sete	al
	cmp	ecx, 10
	setl	dl
	xor	dl, al
	mov	eax, 1326413858
	mov	edx, 591537122
	cmovne	edx, eax
	test	esi, esi
	cmovne	eax, edx
	cmp	ecx, 10
	setl	byte ptr [rsp + 16]
	cmovge	eax, edx
	mov	edx, -650267987
	mov	esi, -321366730
	jmp	.LBB10_2
.LBB10_5:                               
	mov	edx, eax
	.p2align	4, 0x90
.LBB10_2:                               
	cmp	edx, 591537121
	jle	.LBB10_3

	cmp	edx, 591537122
	je	.LBB10_28

	cmp	edx, 1326413858
	jne	.LBB10_2
	jmp	.LBB10_8
	.p2align	4, 0x90
.LBB10_3:                               
	cmp	edx, -650267987
	je	.LBB10_27

	cmp	edx, -321366730
	jne	.LBB10_2
	jmp	.LBB10_5
.LBB10_28:                              
	mov	edx, -321366730
	jmp	.LBB10_2
.LBB10_27:                              
	movzx	ecx, byte ptr [rsp + 14]
	movzx	edx, byte ptr [rsp + 16]
	mov	ebx, ecx
	xor	bl, dl
	mov	edi, 591537122
	cmovne	edi, esi
	test	dl, dl
	mov	edx, edi
	cmovne	edx, esi
	test	cl, cl
	cmove	edx, edi
	jmp	.LBB10_2
.LBB10_8:
.Ltmp135:
	mov	rdi, r15
	call	_ZNKSt7__cxx1112basic_stringIcSt11char_traitsIcESaIcEE11_M_is_localEv
.Ltmp136:

	test	al, al
	je	.LBB10_44

	mov	esi, dword ptr [rip + x.274]
	mov	r10d, dword ptr [rip + y.275]
	lea	edi, [rsi - 1]
	imul	edi, esi
	mov	eax, edi
	not	eax
	or	eax, -2
	cmp	eax, -1
	sete	dl
	cmp	r10d, 10
	setl	byte ptr [rsp + 14]
	setl	bl
	xor	bl, dl
	mov	edx, -901066291
	mov	ebx, -1511853027
	cmovne	ebx, edx
	cmp	eax, -1
	sete	byte ptr [rsp + 15]
	cmovne	edx, ebx
	cmp	r10d, 10
	cmovge	edx, ebx
	and	edi, 1
	mov	r9, qword ptr [r15 + 8]
	mov	ebx, 1978003098
	mov	r8d, 2092656913
	jmp	.LBB10_11
.LBB10_44:
.Ltmp137:
	mov	rdi, r14
	call	_ZNKSt7__cxx1112basic_stringIcSt11char_traitsIcESaIcEE11_M_is_localEv
.Ltmp138:

	test	al, al
	je	.LBB10_48

	xor	r9d, r9d

	jmp	.LBB10_49
.LBB10_31:                              
	movzx	ecx, byte ptr [rsp + 15]
	movzx	ebx, byte ptr [rsp + 14]
	mov	eax, ecx
	xor	al, bl
	mov	eax, -1511853027
	cmovne	eax, r8d
	test	bl, bl
	mov	ebx, eax
	cmovne	ebx, r8d
	test	cl, cl
	cmove	ebx, eax
	.p2align	4, 0x90
.LBB10_11:                              
	cmp	ebx, 1978003097
	jg	.LBB10_29

	cmp	ebx, -1511853027
	je	.LBB10_33

	cmp	ebx, -901066291
	jne	.LBB10_11
	jmp	.LBB10_14
	.p2align	4, 0x90
.LBB10_29:                              
	cmp	ebx, 2092656913
	je	.LBB10_32

	cmp	ebx, 1978003098
	jne	.LBB10_11
	jmp	.LBB10_31
.LBB10_33:                              
	mov	ebx, 2092656913
	jmp	.LBB10_11
.LBB10_32:                              
	mov	qword ptr [rsp + 16], r9
	mov	ebx, edx
	jmp	.LBB10_11
.LBB10_14:
	cmp	qword ptr [rsp + 16], 0
	je	.LBB10_21

	test	edi, edi
	mov	rdi, qword ptr [r14]
	mov	rsi, qword ptr [r15]
	sete	byte ptr [rsp + 15]
	cmp	r10d, 10
	setl	byte ptr [rsp + 14]
	mov	eax, 1978003098
	mov	r10d, 2092656913
	mov	r8d, -1511853027
	jmp	.LBB10_16
.LBB10_36:                              
	movzx	ecx, byte ptr [rsp + 15]
	movzx	eax, byte ptr [rsp + 14]
	mov	ebx, ecx
	xor	bl, al
	test	al, al
	mov	eax, -1511853027
	cmovne	eax, r10d
	test	cl, cl
	cmove	eax, r8d
	test	bl, bl
	cmovne	eax, r10d
	.p2align	4, 0x90
.LBB10_16:                              
	cmp	eax, 1978003097
	jg	.LBB10_34

	cmp	eax, -1511853027
	je	.LBB10_38

	cmp	eax, -901066291
	jne	.LBB10_16
	jmp	.LBB10_19
	.p2align	4, 0x90
.LBB10_34:                              
	cmp	eax, 2092656913
	je	.LBB10_37

	cmp	eax, 1978003098
	jne	.LBB10_16
	jmp	.LBB10_36
.LBB10_38:                              
	mov	eax, 2092656913
	jmp	.LBB10_16
.LBB10_37:                              
	mov	qword ptr [rsp + 16], r9
	mov	eax, edx
	jmp	.LBB10_16
.LBB10_19:
	mov	rdx, qword ptr [rsp + 16]
.Ltmp140:
	call	_ZNSt7__cxx1112basic_stringIcSt11char_traitsIcESaIcEE7_S_copyEPcPKcm
.Ltmp141:

	mov	esi, dword ptr [rip + x.274]
	mov	r10d, dword ptr [rip + y.275]
	mov	r9, qword ptr [r15 + 8]
.LBB10_21:
	lea	eax, [rsi - 1]
	imul	eax, esi
	not	eax
	or	eax, -2
	cmp	eax, -1
	sete	cl
	cmp	r10d, 10
	setl	dl
	xor	dl, cl
	mov	edx, -901066291
	mov	esi, -1511853027
	cmovne	esi, edx
	cmp	eax, -1
	sete	byte ptr [rsp + 15]
	cmovne	edx, esi
	cmp	r10d, 10
	setl	byte ptr [rsp + 14]
	mov	edi, -1511853027
	cmovge	edx, esi
	mov	eax, 1978003098
	mov	esi, 2092656913
	jmp	.LBB10_22
.LBB10_41:                              
	movzx	ecx, byte ptr [rsp + 15]
	movzx	eax, byte ptr [rsp + 14]
	mov	ebx, ecx
	xor	bl, al
	test	al, al
	mov	eax, -1511853027
	cmovne	eax, esi
	test	cl, cl
	cmove	eax, edi
	test	bl, bl
	cmovne	eax, esi
	.p2align	4, 0x90
.LBB10_22:                              
	cmp	eax, 1978003097
	jg	.LBB10_39

	cmp	eax, -1511853027
	je	.LBB10_43

	cmp	eax, -901066291
	jne	.LBB10_22
	jmp	.LBB10_25
	.p2align	4, 0x90
.LBB10_39:                              
	cmp	eax, 2092656913
	je	.LBB10_42

	cmp	eax, 1978003098
	jne	.LBB10_22
	jmp	.LBB10_41
.LBB10_43:                              
	mov	eax, 2092656913
	jmp	.LBB10_22
.LBB10_42:                              
	mov	qword ptr [rsp + 16], r9
	mov	eax, edx
	jmp	.LBB10_22
.LBB10_25:
	mov	rax, qword ptr [rsp + 16]
	mov	qword ptr [r14 + 8], rax
	mov	rcx, qword ptr [r14]
	mov	byte ptr [rcx + rax], 0
	jmp	.LBB10_26
.LBB10_48:
	mov	r9, qword ptr [r14]
	mov	r8, qword ptr [r14 + 16]
.LBB10_49:
	mov	rax, qword ptr [r15]
	mov	ecx, dword ptr [rip + x.320]
	lea	edx, [rcx - 1]
	imul	edx, ecx
	mov	ecx, edx
	xor	ecx, -2
	test	ecx, edx
	sete	byte ptr [rsp + 14]
	mov	ecx, dword ptr [rip + y.321]
	cmp	ecx, 10
	setl	byte ptr [rsp + 16]
	mov	esi, 1303401233
	mov	r11d, 532034985
	mov	r10d, -661442974
	mov	edi, -1077143866
	jmp	.LBB10_50
.LBB10_57:                              
	mov	qword ptr [r14], rax
	mov	ecx, dword ptr [rip + x.320]
	mov	edx, ecx
	neg	edx
	not	edx
	imul	edx, ecx
	mov	ecx, edx
	xor	ecx, -2
	and	ecx, edx
	sete	dl
	test	ecx, ecx
	mov	esi, -661442974
	cmove	esi, r11d
	cmp	dword ptr [rip + y.321], 10
	setl	cl
	cmovge	esi, r10d
	xor	cl, dl
	cmovne	esi, r11d
	.p2align	4, 0x90
.LBB10_50:                              
	cmp	esi, 532034984
	jg	.LBB10_54

	cmp	esi, -1077143866
	je	.LBB10_57

	cmp	esi, -661442974
	jne	.LBB10_50

	mov	qword ptr [r14], rax
	mov	esi, -1077143866
	jmp	.LBB10_50
	.p2align	4, 0x90
.LBB10_54:                              
	cmp	esi, 532034985
	je	.LBB10_58

	cmp	esi, 1303401233
	jne	.LBB10_50

	movzx	ecx, byte ptr [rsp + 14]
	movzx	edx, byte ptr [rsp + 16]
	mov	ebx, ecx
	xor	bl, dl
	mov	ebx, -661442974
	cmovne	ebx, edi
	test	dl, dl
	mov	esi, ebx
	cmovne	esi, edi
	test	cl, cl
	cmove	esi, ebx
	jmp	.LBB10_50
.LBB10_58:
	mov	eax, dword ptr [rip + x.110]
	mov	edx, dword ptr [rip + y.111]
	lea	ecx, [rax - 1]
	imul	ecx, eax
	mov	esi, ecx
	xor	esi, -2
	and	esi, ecx
	sete	al
	sete	byte ptr [rsp + 15]
	cmp	edx, 10
	setl	cl
	xor	cl, al
	mov	eax, 484222235
	mov	r10d, -672336577
	mov	edi, -672336577
	cmovne	edi, eax
	test	esi, esi
	cmovne	eax, edi
	cmp	edx, 10
	setl	byte ptr [rsp + 14]
	cmovge	eax, edi
	mov	rsi, qword ptr [r15 + 8]
	mov	edi, -1675833154
	mov	r11d, 1669047271
	jmp	.LBB10_59
.LBB10_102:                             
	movzx	edx, byte ptr [rsp + 15]
	movzx	ecx, byte ptr [rsp + 14]
	mov	ebx, edx
	xor	bl, cl
	test	cl, cl
	mov	edi, -672336577
	cmovne	edi, r11d
	test	dl, dl
	cmove	edi, r10d
	test	bl, bl
	cmovne	edi, r11d
	.p2align	4, 0x90
.LBB10_59:                              
	cmp	edi, 484222234
	jg	.LBB10_63

	cmp	edi, -1675833154
	je	.LBB10_102

	cmp	edi, -672336577
	jne	.LBB10_59

	mov	edi, 1669047271
	jmp	.LBB10_59
	.p2align	4, 0x90
.LBB10_63:                              
	cmp	edi, 484222235
	je	.LBB10_66

	cmp	edi, 1669047271
	jne	.LBB10_59

	mov	qword ptr [rsp + 16], rsi
	mov	edi, eax
	jmp	.LBB10_59
.LBB10_66:
	mov	rax, qword ptr [rsp + 16]
	mov	qword ptr [r14 + 8], rax
	lea	r10, [r15 + 16]
	mov	r12, qword ptr [r15 + 16]
	mov	eax, dword ptr [rip + x.322]
	mov	esi, dword ptr [rip + y.323]
	mov	ecx, eax
	neg	ecx
	not	ecx
	imul	ecx, eax
	not	ecx
	or	ecx, -2
	cmp	ecx, -1
	sete	bl
	sete	byte ptr [rsp + 14]
	mov	edi, -406230755
	mov	r11d, 719748871
	mov	eax, 719748871
	cmove	eax, edi
	cmp	esi, 10
	setl	cl
	setl	byte ptr [rsp + 16]
	cmovge	eax, r11d
	xor	cl, bl
	cmovne	eax, edi
	mov	edi, -972775399
	mov	esi, -1419563483
	jmp	.LBB10_67
.LBB10_103:                             
	mov	qword ptr [r14 + 16], r12
	mov	edi, eax
	.p2align	4, 0x90
.LBB10_67:                              
	cmp	edi, -406230756
	jg	.LBB10_71

	cmp	edi, -1419563483
	je	.LBB10_103

	cmp	edi, -972775399
	jne	.LBB10_67

	movzx	edx, byte ptr [rsp + 14]
	movzx	ebx, byte ptr [rsp + 16]
	mov	ecx, edx
	xor	cl, bl
	test	bl, bl
	mov	edi, 719748871
	cmovne	edi, esi
	test	dl, dl
	cmove	edi, r11d
	test	cl, cl
	cmovne	edi, esi
	jmp	.LBB10_67
	.p2align	4, 0x90
.LBB10_71:                              
	cmp	edi, -406230755
	je	.LBB10_74

	cmp	edi, 719748871
	jne	.LBB10_67

	mov	qword ptr [r14 + 16], r12
	mov	edi, -1419563483
	jmp	.LBB10_67
.LBB10_74:
	test	r9, r9
	je	.LBB10_92

	mov	eax, dword ptr [rip + x.320]
	lea	ecx, [rax - 1]
	imul	ecx, eax
	not	ecx
	or	ecx, -2
	cmp	ecx, -1
	sete	byte ptr [rsp + 14]
	mov	eax, dword ptr [rip + y.321]
	cmp	eax, 10
	setl	byte ptr [rsp + 16]
	mov	edi, 1303401233
	mov	r10d, 532034985
	mov	esi, -661442974
	mov	ecx, -1077143866
	jmp	.LBB10_76
.LBB10_83:                              
	mov	qword ptr [r15], r9
	mov	eax, dword ptr [rip + x.320]
	lea	edx, [rax - 1]
	imul	edx, eax
	not	edx
	or	edx, -2
	cmp	edx, -1
	sete	al
	mov	edi, -661442974
	cmove	edi, r10d
	cmp	dword ptr [rip + y.321], 10
	setl	dl
	cmovge	edi, esi
	xor	dl, al
	cmovne	edi, r10d
	.p2align	4, 0x90
.LBB10_76:                              
	cmp	edi, 532034984
	jg	.LBB10_80

	cmp	edi, -1077143866
	je	.LBB10_83

	cmp	edi, -661442974
	jne	.LBB10_76

	mov	qword ptr [r15], r9
	mov	edi, -1077143866
	jmp	.LBB10_76
	.p2align	4, 0x90
.LBB10_80:                              
	cmp	edi, 532034985
	je	.LBB10_84

	cmp	edi, 1303401233
	jne	.LBB10_76

	movzx	edx, byte ptr [rsp + 14]
	movzx	eax, byte ptr [rsp + 16]
	mov	ebx, edx
	xor	bl, al
	test	al, al
	mov	edi, -661442974
	cmovne	edi, ecx
	test	dl, dl
	cmove	edi, esi
	test	bl, bl
	cmovne	edi, ecx
	jmp	.LBB10_76
.LBB10_84:
	mov	eax, dword ptr [rip + x.322]
	mov	ecx, dword ptr [rip + y.323]
	mov	edx, eax
	neg	edx
	not	edx
	imul	edx, eax
	mov	esi, edx
	xor	esi, -2
	and	esi, edx
	sete	byte ptr [rsp + 14]
	sete	al
	cmp	ecx, 10
	setl	dl
	xor	dl, al
	mov	eax, -406230755
	mov	edx, 719748871
	cmovne	edx, eax
	test	esi, esi
	cmovne	eax, edx
	cmp	ecx, 10
	setl	byte ptr [rsp + 16]
	mov	r9d, 719748871
	cmovge	eax, edx
	mov	esi, -972775399
	mov	edi, -1419563483
	jmp	.LBB10_85
.LBB10_104:                             
	mov	qword ptr [r15 + 16], r8
	mov	esi, eax
	.p2align	4, 0x90
.LBB10_85:                              
	cmp	esi, -406230756
	jg	.LBB10_89

	cmp	esi, -1419563483
	je	.LBB10_104

	cmp	esi, -972775399
	jne	.LBB10_85

	movzx	edx, byte ptr [rsp + 14]
	movzx	ecx, byte ptr [rsp + 16]
	mov	ebx, edx
	xor	bl, cl
	test	cl, cl
	mov	esi, 719748871
	cmovne	esi, edi
	test	dl, dl
	cmove	esi, r9d
	test	bl, bl
	cmovne	esi, edi
	jmp	.LBB10_85
	.p2align	4, 0x90
.LBB10_89:                              
	cmp	esi, -406230755
	je	.LBB10_26

	cmp	esi, 719748871
	jne	.LBB10_85

	mov	qword ptr [r15 + 16], r8
	mov	esi, -1419563483
	jmp	.LBB10_85
.LBB10_92:
	mov	eax, dword ptr [rip + x.320]
	lea	ecx, [rax - 1]
	imul	ecx, eax
	mov	eax, ecx
	xor	eax, -2
	test	eax, ecx
	sete	byte ptr [rsp + 14]
	mov	eax, dword ptr [rip + y.321]
	cmp	eax, 10
	setl	byte ptr [rsp + 16]
	mov	edi, 1303401233
	mov	r8d, 532034985
	mov	edx, -661442974
	mov	esi, -1077143866
	jmp	.LBB10_93
.LBB10_100:                             
	mov	qword ptr [r15], r10
	mov	eax, dword ptr [rip + x.320]
	lea	ecx, [rax - 1]
	imul	ecx, eax
	not	ecx
	or	ecx, -2
	cmp	ecx, -1
	sete	al
	mov	edi, -661442974
	cmove	edi, r8d
	cmp	dword ptr [rip + y.321], 10
	setl	cl
	cmovge	edi, edx
	xor	cl, al
	cmovne	edi, r8d
	.p2align	4, 0x90
.LBB10_93:                              
	cmp	edi, 532034984
	jg	.LBB10_97

	cmp	edi, -1077143866
	je	.LBB10_100

	cmp	edi, -661442974
	jne	.LBB10_93

	mov	qword ptr [r15], r10
	mov	edi, -1077143866
	jmp	.LBB10_93
	.p2align	4, 0x90
.LBB10_97:                              
	cmp	edi, 532034985
	je	.LBB10_26

	cmp	edi, 1303401233
	jne	.LBB10_93

	movzx	ecx, byte ptr [rsp + 14]
	movzx	ebx, byte ptr [rsp + 16]
	mov	eax, ecx
	xor	al, bl
	test	bl, bl
	mov	edi, -661442974
	cmovne	edi, esi
	test	cl, cl
	cmove	edi, edx
	test	al, al
	cmovne	edi, esi
	jmp	.LBB10_93
.LBB10_26:
	mov	qword ptr [r15 + 8], 0
	mov	rax, qword ptr [r15]
	mov	byte ptr [rax], 0
	mov	rax, r14
	add	rsp, 24
	pop	rbx
	pop	r12
	pop	r14
	pop	r15
	ret
.LBB10_47:
.Ltmp139:
	mov	rdi, rax
	call	__clang_call_terminate
.LBB10_101:
.Ltmp142:
	mov	rdi, rax
	call	__clang_call_terminate
.Lfunc_end10:
	.size	_ZNSt7__cxx1112basic_stringIcSt11char_traitsIcESaIcEEaSEOS4_, .Lfunc_end10-_ZNSt7__cxx1112basic_stringIcSt11char_traitsIcESaIcEEaSEOS4_
	.cfi_endproc
	.section	.gcc_except_table,"a",@progbits
	.p2align	2
GCC_except_table10:
.Lexception4:
	.byte	255                     
	.byte	3                       
	.asciz	"\257\200"              
	.byte	3                       
	.byte	39                      
	.long	.Ltmp133-.Lfunc_begin4  
	.long	.Ltmp136-.Ltmp133       
	.long	.Ltmp142-.Lfunc_begin4  
	.byte	1                       
	.long	.Ltmp137-.Lfunc_begin4  
	.long	.Ltmp138-.Ltmp137       
	.long	.Ltmp139-.Lfunc_begin4  
	.byte	1                       
	.long	.Ltmp140-.Lfunc_begin4  
	.long	.Ltmp141-.Ltmp140       
	.long	.Ltmp142-.Lfunc_begin4  
	.byte	1                       
	.byte	1                       

	.byte	0                       

	.long	0                       
	.p2align	2

	.text
	.globl	_ZN3DES5xor32ERKNSt7__cxx1112basic_stringIcSt11char_traitsIcESaIcEEES7_ 
	.p2align	4, 0x90
	.type	_ZN3DES5xor32ERKNSt7__cxx1112basic_stringIcSt11char_traitsIcESaIcEEES7_,@function
_ZN3DES5xor32ERKNSt7__cxx1112basic_stringIcSt11char_traitsIcESaIcEEES7_: 
.Lfunc_begin5:
	.cfi_startproc
	.cfi_personality 3, __gxx_personality_v0
	.cfi_lsda 3, .Lexception5

	push	rbp
.Lcfi61:
	.cfi_def_cfa_offset 16
.Lcfi62:
	.cfi_offset rbp, -16
	mov	rbp, rsp
.Lcfi63:
	.cfi_def_cfa_register rbp
	push	r15
	push	r14
	push	r13
	push	r12
	push	rbx
	sub	rsp, 40
.Lcfi64:
	.cfi_offset rbx, -56
.Lcfi65:
	.cfi_offset r12, -48
.Lcfi66:
	.cfi_offset r13, -40
.Lcfi67:
	.cfi_offset r14, -32
.Lcfi68:
	.cfi_offset r15, -24
	mov	qword ptr [rbp - 72], rdx 
	mov	qword ptr [rbp - 64], rsi 
	mov	eax, dword ptr [rip + x.70]
	mov	ecx, eax
	neg	ecx
	not	ecx
	imul	ecx, eax
	not	ecx
	or	ecx, -2
	cmp	ecx, -1
	sete	byte ptr [rbp - 41]
	mov	eax, dword ptr [rip + y.71]
	cmp	eax, 10
	setl	byte ptr [rbp - 42]
	add	rdi, 72
	mov	qword ptr [rbp - 56], rdi 
	mov	eax, 1526929481
	jmp	.LBB11_1
.LBB11_7:                               
	mov	cl, byte ptr [rbp - 41]
	mov	al, byte ptr [rbp - 42]
	mov	edx, ecx
	xor	dl, al
	test	al, al
	mov	eax, -79846420
	mov	esi, -1363659140
	cmovne	eax, esi
	test	cl, cl
	mov	ecx, -79846420
	cmove	eax, ecx
	test	dl, dl
	cmovne	eax, esi
	.p2align	4, 0x90
.LBB11_1:                               


	cmp	eax, -79846421
	jg	.LBB11_5

	cmp	eax, -1363659140
	je	.LBB11_8

	cmp	eax, -378430929
	jne	.LBB11_1
	jmp	.LBB11_4
	.p2align	4, 0x90
.LBB11_5:                               
	cmp	eax, -79846420
	je	.LBB11_21

	cmp	eax, 1526929481
	jne	.LBB11_1
	jmp	.LBB11_7
.LBB11_8:                               
	mov	r13, rsp
	add	r13, -16
	mov	rsp, r13
	mov	r14, rsp
	add	r14, -16
	mov	rsp, r14
	mov	r15, rsp
	add	r15, -16
	mov	rsp, r15
	mov	r12, rsp
	add	r12, -32
	mov	rsp, r12
	mov	eax, dword ptr [rip + x.202]
	mov	ecx, dword ptr [rip + y.203]
	lea	edx, [rax - 1]
	imul	edx, eax
	mov	eax, edx
	xor	eax, -2
	and	eax, edx
	sete	byte ptr [rbp - 43]
	sete	dl
	test	eax, eax
	mov	eax, -903518113
	mov	esi, -509641745
	cmove	eax, esi
	cmp	ecx, 10
	setl	cl
	setl	byte ptr [rbp - 44]
	mov	edi, -903518113
	cmovge	eax, edi
	xor	cl, dl
	cmovne	eax, esi
	mov	ecx, 1511383347
	jmp	.LBB11_9
.LBB11_21:                              
	mov	r13, rsp
	add	r13, -16
	mov	rsp, r13
	mov	r14, rsp
	add	r14, -16
	mov	rsp, r14
	mov	r15, rsp
	add	r15, -16
	mov	rsp, r15
	mov	r12, rsp
	add	r12, -32
	mov	rsp, r12
	mov	eax, dword ptr [rip + x.202]
	mov	ecx, dword ptr [rip + y.203]
	lea	edx, [rax - 1]
	imul	edx, eax
	mov	eax, edx
	xor	eax, -2
	and	eax, edx
	sete	dl
	sete	byte ptr [rbp - 45]
	cmp	ecx, 10
	setl	bl
	xor	bl, dl
	mov	edx, -903518113
	mov	esi, -509641745
	cmovne	edx, esi
	test	eax, eax
	mov	eax, edx
	cmove	eax, esi
	cmp	ecx, 10
	setl	byte ptr [rbp - 46]
	cmovge	eax, edx
	mov	ecx, 1511383347
	jmp	.LBB11_22
.LBB11_16:                              
	movzx	ebx, byte ptr [rbp - 43]
	movzx	ecx, byte ptr [rbp - 44]
	mov	edx, ebx
	xor	dl, cl
	mov	edx, -903518113
	mov	esi, 858164122
	cmovne	edx, esi
	test	cl, cl
	mov	ecx, edx
	cmovne	ecx, esi
	test	bl, bl
	cmove	ecx, edx
	.p2align	4, 0x90
.LBB11_9:                               

	cmp	ecx, 858164121
	jg	.LBB11_14

	cmp	ecx, -903518113
	je	.LBB11_18

	cmp	ecx, -509641745
	jne	.LBB11_9
	jmp	.LBB11_12
	.p2align	4, 0x90
.LBB11_14:                              
	cmp	ecx, 858164122
	je	.LBB11_17

	cmp	ecx, 1511383347
	jne	.LBB11_9
	jmp	.LBB11_16
.LBB11_18:                              
	mov	qword ptr [r13], 0
	mov	ecx, 858164122
	jmp	.LBB11_9
.LBB11_17:                              
	mov	qword ptr [r13], 0
	mov	ecx, eax
	jmp	.LBB11_9
.LBB11_29:                              
	movzx	ebx, byte ptr [rbp - 45]
	movzx	ecx, byte ptr [rbp - 46]
	mov	edx, ebx
	xor	dl, cl
	test	cl, cl
	mov	ecx, -903518113
	mov	edi, 858164122
	cmovne	ecx, edi
	test	bl, bl
	mov	esi, -903518113
	cmove	ecx, esi
	test	dl, dl
	cmovne	ecx, edi
	.p2align	4, 0x90
.LBB11_22:                              

	cmp	ecx, 858164121
	jg	.LBB11_27

	cmp	ecx, -903518113
	je	.LBB11_31

	cmp	ecx, -509641745
	jne	.LBB11_22
	jmp	.LBB11_25
	.p2align	4, 0x90
.LBB11_27:                              
	cmp	ecx, 858164122
	je	.LBB11_30

	cmp	ecx, 1511383347
	jne	.LBB11_22
	jmp	.LBB11_29
.LBB11_31:                              
	mov	qword ptr [r13], 0
	mov	ecx, 858164122
	jmp	.LBB11_22
.LBB11_30:                              
	mov	qword ptr [r13], 0
	mov	ecx, eax
	jmp	.LBB11_22
.LBB11_12:                              
	xor	edx, edx
	mov	rdi, r14
	mov	rsi, qword ptr [rbp - 64] 
	call	_ZNSt6bitsetILm32EEC2IcSt11char_traitsIcESaIcEEERKNSt7__cxx1112basic_stringIT_T0_T1_EEm
	xor	edx, edx
	mov	rdi, r15
	mov	rsi, qword ptr [rbp - 72] 
	call	_ZNSt6bitsetILm32EEC2IcSt11char_traitsIcESaIcEEERKNSt7__cxx1112basic_stringIT_T0_T1_EEm
	mov	rax, qword ptr [r14]
	mov	rcx, qword ptr [r15]
	mov	rdx, rcx
	not	rdx
	and	rdx, rax
	not	rax
	and	rax, rcx
	or	rax, rdx
	mov	qword ptr [r13], rax
	mov	rdi, r12
	call	_ZNSt7__cxx1112basic_stringIcSt11char_traitsIcESaIcEEC2Ev
.Ltmp146:
	mov	edx, 48
	mov	ecx, 49
	mov	rdi, r13
	mov	rsi, r12
	call	_ZNKSt6bitsetILm32EE17_M_copy_to_stringIcSt11char_traitsIcESaIcEEEvRNSt7__cxx1112basic_stringIT_T0_T1_EES7_S7_
.Ltmp147:

	mov	rdi, qword ptr [rbp - 56] 
	mov	rsi, r12
	call	_ZNSt7__cxx1112basic_stringIcSt11char_traitsIcESaIcEEaSEOS4_
	mov	rdi, r12
	call	_ZNSt7__cxx1112basic_stringIcSt11char_traitsIcESaIcEED2Ev
	mov	eax, dword ptr [rip + x.70]
	lea	ecx, [rax - 1]
	imul	ecx, eax
	not	ecx
	or	ecx, -2
	cmp	ecx, -1
	sete	cl
	mov	eax, -79846420
	mov	esi, -378430929
	cmove	eax, esi
	cmp	dword ptr [rip + y.71], 10
	setl	dl
	mov	edi, -79846420
	cmovge	eax, edi
	xor	dl, cl
	cmovne	eax, esi
	jmp	.LBB11_1
.LBB11_25:                              
	xor	edx, edx
	mov	rdi, r14
	mov	rsi, qword ptr [rbp - 64] 
	call	_ZNSt6bitsetILm32EEC2IcSt11char_traitsIcESaIcEEERKNSt7__cxx1112basic_stringIT_T0_T1_EEm
	xor	edx, edx
	mov	rdi, r15
	mov	rsi, qword ptr [rbp - 72] 
	call	_ZNSt6bitsetILm32EEC2IcSt11char_traitsIcESaIcEEERKNSt7__cxx1112basic_stringIT_T0_T1_EEm
	mov	rax, qword ptr [r14]
	mov	rcx, qword ptr [r15]
	mov	rdx, rcx
	not	rdx
	and	rdx, rax
	not	rax
	and	rax, rcx
	or	rax, rdx
	mov	qword ptr [r13], rax
	mov	rdi, r12
	call	_ZNSt7__cxx1112basic_stringIcSt11char_traitsIcESaIcEEC2Ev
.Ltmp143:
	mov	edx, 48
	mov	ecx, 49
	mov	rdi, r13
	mov	rsi, r12
	call	_ZNKSt6bitsetILm32EE17_M_copy_to_stringIcSt11char_traitsIcESaIcEEEvRNSt7__cxx1112basic_stringIT_T0_T1_EES7_S7_
.Ltmp144:

	mov	rdi, qword ptr [rbp - 56] 
	mov	rsi, r12
	call	_ZNSt7__cxx1112basic_stringIcSt11char_traitsIcESaIcEEaSEOS4_
	mov	rdi, r12
	call	_ZNSt7__cxx1112basic_stringIcSt11char_traitsIcESaIcEED2Ev
	mov	eax, -1363659140
	jmp	.LBB11_1
.LBB11_4:
	lea	rsp, [rbp - 40]
	pop	rbx
	pop	r12
	pop	r13
	pop	r14
	pop	r15
	pop	rbp
	ret
.LBB11_32:
.Ltmp145:
	jmp	.LBB11_20
.LBB11_19:
.Ltmp148:
.LBB11_20:
	mov	r14, rax
	mov	rdi, r12
	call	_ZNSt7__cxx1112basic_stringIcSt11char_traitsIcESaIcEED2Ev
	mov	rdi, r14
	call	_Unwind_Resume
.Lfunc_end11:
	.size	_ZN3DES5xor32ERKNSt7__cxx1112basic_stringIcSt11char_traitsIcESaIcEEES7_, .Lfunc_end11-_ZN3DES5xor32ERKNSt7__cxx1112basic_stringIcSt11char_traitsIcESaIcEEES7_
	.cfi_endproc
	.section	.gcc_except_table,"a",@progbits
	.p2align	2
GCC_except_table11:
.Lexception5:
	.byte	255                     
	.byte	3                       
	.asciz	"\303\200"              
	.byte	3                       
	.byte	65                      
	.long	.Lfunc_begin5-.Lfunc_begin5 
	.long	.Ltmp146-.Lfunc_begin5  
	.long	0                       
	.byte	0                       
	.long	.Ltmp146-.Lfunc_begin5  
	.long	.Ltmp147-.Ltmp146       
	.long	.Ltmp148-.Lfunc_begin5  
	.byte	0                       
	.long	.Ltmp147-.Lfunc_begin5  
	.long	.Ltmp143-.Ltmp147       
	.long	0                       
	.byte	0                       
	.long	.Ltmp143-.Lfunc_begin5  
	.long	.Ltmp144-.Ltmp143       
	.long	.Ltmp145-.Lfunc_begin5  
	.byte	0                       
	.long	.Ltmp144-.Lfunc_begin5  
	.long	.Lfunc_end11-.Ltmp144   
	.long	0                       
	.byte	0                       
	.p2align	2

	.section	.text._ZNSt6bitsetILm32EEC2IcSt11char_traitsIcESaIcEEERKNSt7__cxx1112basic_stringIT_T0_T1_EEm,"axG",@progbits,_ZNSt6bitsetILm32EEC2IcSt11char_traitsIcESaIcEEERKNSt7__cxx1112basic_stringIT_T0_T1_EEm,comdat
	.weak	_ZNSt6bitsetILm32EEC2IcSt11char_traitsIcESaIcEEERKNSt7__cxx1112basic_stringIT_T0_T1_EEm 
	.p2align	4, 0x90
	.type	_ZNSt6bitsetILm32EEC2IcSt11char_traitsIcESaIcEEERKNSt7__cxx1112basic_stringIT_T0_T1_EEm,@function
_ZNSt6bitsetILm32EEC2IcSt11char_traitsIcESaIcEEERKNSt7__cxx1112basic_stringIT_T0_T1_EEm: 
	.cfi_startproc

	push	r15
.Lcfi69:
	.cfi_def_cfa_offset 16
	push	r14
.Lcfi70:
	.cfi_def_cfa_offset 24
	push	r12
.Lcfi71:
	.cfi_def_cfa_offset 32
	push	rbx
.Lcfi72:
	.cfi_def_cfa_offset 40
	push	rax
.Lcfi73:
	.cfi_def_cfa_offset 48
.Lcfi74:
	.cfi_offset rbx, -40
.Lcfi75:
	.cfi_offset r12, -32
.Lcfi76:
	.cfi_offset r14, -24
.Lcfi77:
	.cfi_offset r15, -16
	mov	r14, rdx
	mov	r15, rsi
	mov	r12, rdi
	mov	eax, dword ptr [rip + x.202]
	lea	ecx, [rax - 1]
	imul	ecx, eax
	mov	eax, ecx
	xor	eax, -2
	test	eax, ecx
	sete	byte ptr [rsp + 6]
	mov	eax, dword ptr [rip + y.203]
	cmp	eax, 10
	setl	byte ptr [rsp + 7]
	mov	esi, 1511383347
	mov	r9d, -509641745
	mov	r8d, -903518113
	mov	edi, 858164122
	jmp	.LBB12_1
.LBB12_7:                               
	movzx	edx, byte ptr [rsp + 6]
	movzx	eax, byte ptr [rsp + 7]
	mov	ecx, edx
	xor	cl, al
	test	al, al
	mov	esi, -903518113
	cmovne	esi, edi
	test	dl, dl
	cmove	esi, r8d
	test	cl, cl
	cmovne	esi, edi
	.p2align	4, 0x90
.LBB12_1:                               
	cmp	esi, 858164121
	jg	.LBB12_5

	cmp	esi, -903518113
	je	.LBB12_9

	cmp	esi, -509641745
	jne	.LBB12_1
	jmp	.LBB12_4
	.p2align	4, 0x90
.LBB12_5:                               
	cmp	esi, 858164122
	je	.LBB12_8

	cmp	esi, 1511383347
	jne	.LBB12_1
	jmp	.LBB12_7
.LBB12_9:                               
	mov	qword ptr [r12], 0
	mov	esi, 858164122
	jmp	.LBB12_1
.LBB12_8:                               
	mov	qword ptr [r12], 0
	mov	eax, dword ptr [rip + x.202]
	mov	ecx, dword ptr [rip + y.203]
	mov	edx, eax
	neg	edx
	not	edx
	imul	edx, eax
	not	edx
	or	edx, -2
	cmp	edx, -1
	sete	al
	cmp	ecx, 10
	setl	bl
	xor	bl, al
	mov	eax, -903518113
	cmovne	eax, r9d
	cmp	edx, -1
	mov	esi, eax
	cmove	esi, r9d
	cmp	ecx, 10
	cmovge	esi, eax
	jmp	.LBB12_1
.LBB12_4:
	mov	rdi, r12
	mov	rsi, r15
	mov	rdx, r14
	call	_ZNKSt6bitsetILm32EE25_M_check_initial_positionIcSt11char_traitsIcESaIcEEEvRKNSt7__cxx1112basic_stringIT_T0_T1_EEm
	mov	rcx, -1
	mov	r8d, 48
	mov	r9d, 49
	mov	rdi, r12
	mov	rsi, r15
	mov	rdx, r14
	add	rsp, 8
	pop	rbx
	pop	r12
	pop	r14
	pop	r15
	jmp	_ZNSt6bitsetILm32EE19_M_copy_from_stringIcSt11char_traitsIcESaIcEEEvRKNSt7__cxx1112basic_stringIT_T0_T1_EEmmS7_S7_ 
.Lfunc_end12:
	.size	_ZNSt6bitsetILm32EEC2IcSt11char_traitsIcESaIcEEERKNSt7__cxx1112basic_stringIT_T0_T1_EEm, .Lfunc_end12-_ZNSt6bitsetILm32EEC2IcSt11char_traitsIcESaIcEEERKNSt7__cxx1112basic_stringIT_T0_T1_EEm
	.cfi_endproc

	.text
	.globl	_ZN3DES12initialPermuERKNSt7__cxx1112basic_stringIcSt11char_traitsIcESaIcEEE 
	.p2align	4, 0x90
	.type	_ZN3DES12initialPermuERKNSt7__cxx1112basic_stringIcSt11char_traitsIcESaIcEEE,@function
_ZN3DES12initialPermuERKNSt7__cxx1112basic_stringIcSt11char_traitsIcESaIcEEE: 
.Lfunc_begin6:
	.cfi_startproc
	.cfi_personality 3, __gxx_personality_v0
	.cfi_lsda 3, .Lexception6

	push	rbp
.Lcfi78:
	.cfi_def_cfa_offset 16
	push	r15
.Lcfi79:
	.cfi_def_cfa_offset 24
	push	r14
.Lcfi80:
	.cfi_def_cfa_offset 32
	push	r13
.Lcfi81:
	.cfi_def_cfa_offset 40
	push	r12
.Lcfi82:
	.cfi_def_cfa_offset 48
	push	rbx
.Lcfi83:
	.cfi_def_cfa_offset 56
	sub	rsp, 152
.Lcfi84:
	.cfi_def_cfa_offset 208
.Lcfi85:
	.cfi_offset rbx, -56
.Lcfi86:
	.cfi_offset r12, -48
.Lcfi87:
	.cfi_offset r13, -40
.Lcfi88:
	.cfi_offset r14, -32
.Lcfi89:
	.cfi_offset r15, -24
.Lcfi90:
	.cfi_offset rbp, -16
	mov	r14, rsi
	mov	qword ptr [rsp + 104], rdi 
	lea	rax, [rsp + 144]
	mov	qword ptr [rsp + 136], rax
	lea	rax, [rsp + 40]
	mov	qword ptr [rsp + 88], rax
	mov	rax, qword ptr [rsp + 88]
	mov	eax, dword ptr [rip + x.202]
	mov	ecx, dword ptr [rip + y.203]
	lea	edx, [rax - 1]
	imul	edx, eax
	mov	esi, edx
	xor	esi, -2
	and	esi, edx
	sete	byte ptr [rsp + 16]
	sete	al
	cmp	ecx, 10
	setl	dl
	xor	dl, al
	mov	eax, -509641745
	mov	edx, -903518113
	cmovne	edx, eax
	test	esi, esi
	cmovne	eax, edx
	cmp	ecx, 10
	setl	byte ptr [rsp + 48]
	mov	edi, -903518113
	cmovge	eax, edx
	mov	esi, 1511383347
	mov	ebp, 858164122
	jmp	.LBB13_1
.LBB13_21:                              
	mov	qword ptr [rsp + 40], 0
	mov	esi, eax
	.p2align	4, 0x90
.LBB13_1:                               
	cmp	esi, 858164121
	jg	.LBB13_18

	cmp	esi, -903518113
	je	.LBB13_22

	cmp	esi, -509641745
	jne	.LBB13_1
	jmp	.LBB13_4
	.p2align	4, 0x90
.LBB13_18:                              
	cmp	esi, 858164122
	je	.LBB13_21

	cmp	esi, 1511383347
	jne	.LBB13_1

	movzx	edx, byte ptr [rsp + 16]
	movzx	ecx, byte ptr [rsp + 48]
	mov	ebx, edx
	xor	bl, cl
	test	cl, cl
	mov	esi, -903518113
	cmovne	esi, ebp
	test	dl, dl
	cmove	esi, edi
	test	bl, bl
	cmovne	esi, ebp
	jmp	.LBB13_1
.LBB13_22:                              
	mov	qword ptr [rsp + 40], 0
	mov	esi, 858164122
	jmp	.LBB13_1
.LBB13_4:
	lea	r10, [rsp + 32]
	mov	qword ptr [rsp + 96], r10
	mov	rax, qword ptr [rsp + 96]
	mov	r9, qword ptr [r14]
	mov	r8d, 1355690161
	mov	esi, -1688904936
	movabs	r15, 7330707437258663957
	mov	r13d, 63
	add	r13d, -1385821986
	mov	r12d, -901066291
	jmp	.LBB13_5
	.p2align	4, 0x90
.LBB13_26:                              
	mov	r9, qword ptr [rsp + 32]
	lea	rax, [r9 + 1]
	mov	qword ptr [rsp + 32], rax
	mov	r10, qword ptr [rsp + 136]
.LBB13_5:                               









	mov	eax, -870116673
	jmp	.LBB13_6
.LBB13_40:                              
	mov	rax, qword ptr [rsp + 32]
	cmp	byte ptr [rax], 49
	mov	eax, 180231882
	mov	ecx, -1922313637
	cmove	eax, ecx
	.p2align	4, 0x90
.LBB13_6:                               









	cmp	eax, -543163981
	jle	.LBB13_7

	cmp	eax, -543163980
	je	.LBB13_40

	cmp	eax, -431655414
	je	.LBB13_38

	cmp	eax, 180231882
	jne	.LBB13_6
	jmp	.LBB13_26
	.p2align	4, 0x90
.LBB13_7:                               
	cmp	eax, -1922313637
	je	.LBB13_41

	cmp	eax, -870116673
	jne	.LBB13_6

	mov	qword ptr [r10], r9
	mov	rdi, qword ptr [r14]
	mov	ecx, dword ptr [rip + x.274]
	mov	edx, dword ptr [rip + y.275]
	mov	esi, ecx
	neg	esi
	not	esi
	imul	esi, ecx
	mov	ecx, esi
	xor	ecx, -2
	and	ecx, esi
	sete	bl
	sete	byte ptr [rsp + 15]
	cmp	edx, 10
	setl	al
	xor	al, bl
	mov	eax, -1511853027
	cmovne	eax, r12d
	test	ecx, ecx
	mov	ecx, eax
	cmove	ecx, r12d
	cmp	edx, 10
	setl	byte ptr [rsp + 16]
	cmovge	ecx, eax
	mov	rbp, qword ptr [r14 + 8]
	mov	esi, 1978003098
	jmp	.LBB13_10
.LBB13_30:                              
	mov	qword ptr [rsp + 48], rbp
	mov	esi, ecx
	.p2align	4, 0x90
.LBB13_10:                              


	cmp	esi, 1978003097
	jg	.LBB13_27

	cmp	esi, -1511853027
	je	.LBB13_31

	cmp	esi, -901066291
	jne	.LBB13_10
	jmp	.LBB13_13
	.p2align	4, 0x90
.LBB13_27:                              
	cmp	esi, 2092656913
	je	.LBB13_30

	cmp	esi, 1978003098
	jne	.LBB13_10

	movzx	edx, byte ptr [rsp + 15]
	movzx	ebx, byte ptr [rsp + 16]
	mov	eax, edx
	xor	al, bl
	mov	eax, -1511853027
	mov	r11d, 2092656913
	cmovne	eax, r11d
	test	bl, bl
	mov	esi, eax
	cmovne	esi, r11d
	test	dl, dl
	cmove	esi, eax
	jmp	.LBB13_10
.LBB13_31:                              
	mov	esi, 2092656913
	jmp	.LBB13_10
.LBB13_13:                              
	mov	rax, qword ptr [rsp + 48]
	add	rdi, rax
	mov	eax, dword ptr [rip + x.86]
	mov	edx, dword ptr [rip + y.87]
	mov	ecx, eax
	neg	ecx
	not	ecx
	imul	ecx, eax
	not	ecx
	or	ecx, -2
	cmp	ecx, -1
	sete	byte ptr [rsp + 15]
	sete	al
	mov	ecx, -369009728
	mov	esi, 1534441363
	cmove	ecx, esi
	cmp	edx, 10
	setl	bl
	setl	byte ptr [rsp + 16]
	mov	rbp, qword ptr [rsp + 32]
	mov	edx, -369009728
	cmovge	ecx, edx
	xor	bl, al
	cmovne	ecx, esi
	mov	esi, 2143172987
	jmp	.LBB13_14
.LBB13_35:                              
	cmp	rbp, rdi
	setb	byte ptr [rsp + 48]
	mov	esi, ecx
	.p2align	4, 0x90
.LBB13_14:                              


	cmp	esi, 1534441362
	jg	.LBB13_32

	cmp	esi, -1921148854
	je	.LBB13_35

	cmp	esi, -369009728
	jne	.LBB13_14

	mov	esi, -1921148854
	jmp	.LBB13_14
	.p2align	4, 0x90
.LBB13_32:                              
	cmp	esi, 1534441363
	je	.LBB13_36

	cmp	esi, 2143172987
	jne	.LBB13_14

	movzx	edx, byte ptr [rsp + 15]
	movzx	ebx, byte ptr [rsp + 16]
	mov	eax, edx
	xor	al, bl
	test	bl, bl
	mov	esi, -369009728
	mov	ebx, -1921148854
	cmovne	esi, ebx
	test	dl, dl
	mov	edx, -369009728
	cmove	esi, edx
	test	al, al
	cmovne	esi, ebx
	jmp	.LBB13_14
.LBB13_36:                              
	mov	al, byte ptr [rsp + 48]
	test	al, al
	mov	eax, -431655414
	mov	ecx, -543163980
	cmovne	eax, ecx
	mov	esi, -1688904936
	jmp	.LBB13_6
.LBB13_41:                              
	mov	eax, dword ptr [rip + x.210]
	mov	r12d, dword ptr [rip + y.211]
	mov	edx, eax
	neg	edx
	not	edx
	imul	edx, eax
	mov	eax, edx
	not	eax
	or	eax, -2
	and	edx, 1
	cmp	eax, -1
	sete	bl
	sete	byte ptr [rsp + 15]
	mov	ebp, -1688904936
	cmove	ebp, r8d
	cmp	r12d, 10
	setl	cl
	setl	byte ptr [rsp + 16]
	cmovge	ebp, esi
	xor	cl, bl
	cmovne	ebp, r8d
	mov	esi, 1368931181
	jmp	.LBB13_42
.LBB13_49:                              
	mov	esi, -341369119
	.p2align	4, 0x90
.LBB13_42:                              


	cmp	esi, 1355690160
	jg	.LBB13_46

	cmp	esi, -1688904936
	je	.LBB13_49

	cmp	esi, -341369119
	jne	.LBB13_42

	mov	qword ptr [rsp + 48], _ZN3DES23initialPermutationTableE
	mov	esi, ebp
	jmp	.LBB13_42
	.p2align	4, 0x90
.LBB13_46:                              
	cmp	esi, 1355690161
	je	.LBB13_50

	cmp	esi, 1368931181
	jne	.LBB13_42

	movzx	eax, byte ptr [rsp + 15]
	movzx	ebx, byte ptr [rsp + 16]
	mov	ecx, eax
	xor	cl, bl
	mov	ecx, -1688904936
	mov	edi, -341369119
	cmovne	ecx, edi
	test	bl, bl
	mov	esi, ecx
	cmovne	esi, edi
	test	al, al
	cmove	esi, ecx
	jmp	.LBB13_42
.LBB13_50:                              
	test	edx, edx
	mov	rax, qword ptr [rsp + 48]
	mov	qword ptr [rsp + 112], rax 
	sete	byte ptr [rsp + 15]
	cmp	r12d, 10
	setl	byte ptr [rsp + 16]
	mov	ecx, 1368931181
	jmp	.LBB13_51
.LBB13_58:                              
	mov	ecx, -341369119
	.p2align	4, 0x90
.LBB13_51:                              


	cmp	ecx, 1355690160
	jg	.LBB13_55

	cmp	ecx, -1688904936
	je	.LBB13_58

	cmp	ecx, -341369119
	jne	.LBB13_51

	mov	qword ptr [rsp + 48], _ZN3DES23initialPermutationTableE
	mov	ecx, ebp
	jmp	.LBB13_51
	.p2align	4, 0x90
.LBB13_55:                              
	cmp	ecx, 1355690161
	je	.LBB13_59

	cmp	ecx, 1368931181
	jne	.LBB13_51

	movzx	eax, byte ptr [rsp + 15]
	movzx	ecx, byte ptr [rsp + 16]
	mov	edx, eax
	xor	dl, cl
	mov	edx, -1688904936
	mov	esi, -341369119
	cmovne	edx, esi
	test	cl, cl
	mov	ecx, edx
	cmovne	ecx, esi
	test	al, al
	cmove	ecx, edx
	jmp	.LBB13_51
.LBB13_59:                              
	mov	dword ptr [rsp + 84], r13d 
	mov	r13, r15
	lea	r15, [rsp + 16]
	mov	qword ptr [rsp + 128], r10 
	mov	qword ptr [rsp + 120], r9 
	mov	r12, qword ptr [rsp + 48]
	mov	edi, _ZN3DES23initialPermutationTableE
	call	_ZNKSt5arrayIiLm64EE3endEv
	mov	r8, qword ptr [r14]
	mov	r9, qword ptr [rsp + 32]
	mov	ebp, dword ptr [rip + x.214]
	mov	edi, dword ptr [rip + y.215]
	mov	esi, ebp
	neg	esi
	not	esi
	imul	esi, ebp
	mov	ebp, esi
	xor	ebp, -2
	and	ebp, esi
	sete	bl
	sete	byte ptr [rsp + 16]
	cmp	edi, 10
	setl	dl
	xor	dl, bl
	mov	edx, -594789007
	mov	ecx, 1557069072
	cmovne	edx, ecx
	test	ebp, ebp
	mov	esi, edx
	cmove	esi, ecx
	cmp	edi, 10
	setl	byte ptr [rsp + 48]
	cmovge	esi, edx
	mov	edi, 680917234
	jmp	.LBB13_60
.LBB13_67:                              
	mov	edi, -348105442
	.p2align	4, 0x90
.LBB13_60:                              


	cmp	edi, 680917233
	jg	.LBB13_64

	cmp	edi, -594789007
	je	.LBB13_67

	cmp	edi, -348105442
	jne	.LBB13_60

	mov	edi, esi
	jmp	.LBB13_60
	.p2align	4, 0x90
.LBB13_64:                              
	cmp	edi, 1557069072
	je	.LBB13_68

	cmp	edi, 680917234
	jne	.LBB13_60

	movzx	ecx, byte ptr [rsp + 16]
	movzx	ebx, byte ptr [rsp + 48]
	mov	edx, ecx
	xor	dl, bl
	mov	edx, -594789007
	mov	ebp, -348105442
	cmovne	edx, ebp
	test	bl, bl
	mov	edi, edx
	cmovne	edi, ebp
	test	cl, cl
	cmove	edi, edx
	jmp	.LBB13_60
.LBB13_68:                              
	mov	ecx, dword ptr [rip + x.216]
	mov	edx, dword ptr [rip + y.217]
	lea	esi, [rcx - 1]
	imul	esi, ecx
	not	esi
	or	esi, -2
	cmp	esi, -1
	sete	cl
	cmp	edx, 10
	setl	bl
	xor	bl, cl
	mov	ecx, -385256741
	mov	edi, -1905940984
	cmovne	ecx, edi
	cmp	esi, -1
	sete	byte ptr [rsp + 15]
	mov	esi, ecx
	cmove	esi, edi
	cmp	edx, 10
	setl	byte ptr [rsp + 16]
	cmovge	esi, ecx
	movabs	rcx, -8201479776197209450
	add	r9, rcx
	sub	r9, r8
	sub	r9, rcx
	mov	edx, -1736172681
	jmp	.LBB13_69
.LBB13_76:                              
	mov	edx, 2057159485
	.p2align	4, 0x90
.LBB13_69:                              


	cmp	edx, -385256742
	jg	.LBB13_73

	cmp	edx, -1905940984
	je	.LBB13_77

	cmp	edx, -1736172681
	jne	.LBB13_69

	movzx	ebx, byte ptr [rsp + 15]
	movzx	edx, byte ptr [rsp + 16]
	mov	ecx, ebx
	xor	cl, dl
	test	dl, dl
	mov	edx, -385256741
	mov	ebp, 2057159485
	cmovne	edx, ebp
	test	bl, bl
	mov	edi, -385256741
	cmove	edx, edi
	test	cl, cl
	cmovne	edx, ebp
	jmp	.LBB13_69
	.p2align	4, 0x90
.LBB13_73:                              
	cmp	edx, -385256741
	je	.LBB13_76

	cmp	edx, 2057159485
	jne	.LBB13_69

	mov	qword ptr [rsp + 48], r9
	mov	edx, esi
	jmp	.LBB13_69
.LBB13_77:                              
	mov	rcx, qword ptr [rsp + 48]
	movabs	rdx, -1211833165474168577
	lea	rcx, [rcx + rdx + 1]
	sub	rcx, rdx
	mov	qword ptr [rsp + 16], rcx
	mov	rdi, r12
	mov	rsi, rax
	mov	rdx, r15
	call	_ZSt9__find_ifIPKiN9__gnu_cxx5__ops16_Iter_equals_valIKlEEET_S7_S7_T0_St26random_access_iterator_tag
	mov	ecx, dword ptr [rip + x.92]
	mov	edx, dword ptr [rip + y.93]
	lea	esi, [rcx - 1]
	imul	esi, ecx
	not	esi
	or	esi, -2
	cmp	esi, -1
	sete	cl
	cmp	edx, 10
	setl	bl
	xor	bl, cl
	mov	edi, 911041906
	mov	ecx, 2101938195
	cmovne	edi, ecx
	cmp	esi, -1
	sete	byte ptr [rsp + 31]
	mov	esi, edi
	cmove	esi, ecx
	cmp	edx, 10
	setl	byte ptr [rsp + 15]
	cmovge	esi, edi
	mov	r15, r13
	sub	rax, r15
	sub	rax, qword ptr [rsp + 112] 
	add	rax, r15
	sar	rax, 2
	mov	edx, -1486924524
	mov	ebp, 197475238
	mov	r13d, dword ptr [rsp + 84] 
	mov	r12d, -901066291
	jmp	.LBB13_78
.LBB13_88:                              
	movzx	ecx, byte ptr [rsp + 31]
	movzx	edx, byte ptr [rsp + 15]
	mov	ebx, ecx
	xor	bl, dl
	mov	edi, 911041906
	cmovne	edi, ebp
	test	dl, dl
	mov	edx, edi
	cmovne	edx, ebp
	test	cl, cl
	cmove	edx, edi
	.p2align	4, 0x90
.LBB13_78:                              


	cmp	edx, 911041905
	jle	.LBB13_79

	cmp	edx, 911041906
	je	.LBB13_89

	cmp	edx, 2101938195
	jne	.LBB13_78
	jmp	.LBB13_84
	.p2align	4, 0x90
.LBB13_79:                              
	cmp	edx, -1486924524
	je	.LBB13_88

	cmp	edx, 197475238
	jne	.LBB13_78

	mov	qword ptr [rsp + 48], rax
	mov	edx, esi
	jmp	.LBB13_78
.LBB13_89:                              
	mov	edx, 197475238
	jmp	.LBB13_78
.LBB13_84:                              
	mov	rax, qword ptr [rsp + 48]
	mov	ecx, r13d
	sub	ecx, eax
	sub	ecx, -1385821986
	movsxd	rbx, ecx
	cmp	rbx, 63
	mov	eax, -1012203524
	mov	ecx, 1185874138
	cmova	eax, ecx
	mov	ecx, -190262516
	jmp	.LBB13_85
	.p2align	4, 0x90
.LBB13_87:                              
	mov	ecx, eax
.LBB13_85:                              


	cmp	ecx, -1012203524
	je	.LBB13_92

	cmp	ecx, -190262516
	je	.LBB13_87

	cmp	ecx, 1185874138
	jne	.LBB13_85
	jmp	.LBB13_91
.LBB13_92:                              
	mov	edx, 1
	lea	rdi, [rsp + 40]
	mov	rsi, rbx
	call	_ZNSt6bitsetILm64EE14_Unchecked_setEmi
	mov	eax, 180231882
	mov	r8d, 1355690161
	mov	r9, qword ptr [rsp + 120] 
	mov	r10, qword ptr [rsp + 128] 
	mov	esi, -1688904936
	jmp	.LBB13_6
.LBB13_38:
	mov	rax, qword ptr [rsp + 96]
	lea	rbx, [rsp + 48]
	mov	rdi, rbx
	call	_ZNSt7__cxx1112basic_stringIcSt11char_traitsIcESaIcEEC2Ev
.Ltmp149:
	lea	rdi, [rsp + 40]
	mov	edx, 48
	mov	ecx, 49
	mov	rsi, rbx
	call	_ZNKSt6bitsetILm64EE17_M_copy_to_stringIcSt11char_traitsIcESaIcEEEvRNSt7__cxx1112basic_stringIT_T0_T1_EES7_S7_
.Ltmp150:

	mov	rdi, qword ptr [rsp + 104] 
	add	rdi, 360
	lea	rbx, [rsp + 48]
	mov	rsi, rbx
	call	_ZNSt7__cxx1112basic_stringIcSt11char_traitsIcESaIcEEaSEOS4_
	mov	rdi, rbx
	call	_ZNSt7__cxx1112basic_stringIcSt11char_traitsIcESaIcEED2Ev
	mov	rax, qword ptr [rsp + 88]
	add	rsp, 152
	pop	rbx
	pop	r12
	pop	r13
	pop	r14
	pop	r15
	pop	rbp
	ret
.LBB13_91:
	mov	edi, .L.str.49
	mov	esi, .L.str.48
	mov	ecx, 64
	xor	eax, eax
	mov	rdx, rbx
	call	_ZSt24__throw_out_of_range_fmtPKcz
.LBB13_37:
.Ltmp151:
	mov	rbx, rax
	lea	rdi, [rsp + 48]
	call	_ZNSt7__cxx1112basic_stringIcSt11char_traitsIcESaIcEED2Ev
	mov	rdi, rbx
	call	_Unwind_Resume
.Lfunc_end13:
	.size	_ZN3DES12initialPermuERKNSt7__cxx1112basic_stringIcSt11char_traitsIcESaIcEEE, .Lfunc_end13-_ZN3DES12initialPermuERKNSt7__cxx1112basic_stringIcSt11char_traitsIcESaIcEEE
	.cfi_endproc
	.section	.gcc_except_table,"a",@progbits
	.p2align	2
GCC_except_table13:
.Lexception6:
	.byte	255                     
	.byte	3                       
	.byte	41                      
	.byte	3                       
	.byte	39                      
	.long	.Lfunc_begin6-.Lfunc_begin6 
	.long	.Ltmp149-.Lfunc_begin6  
	.long	0                       
	.byte	0                       
	.long	.Ltmp149-.Lfunc_begin6  
	.long	.Ltmp150-.Ltmp149       
	.long	.Ltmp151-.Lfunc_begin6  
	.byte	0                       
	.long	.Ltmp150-.Lfunc_begin6  
	.long	.Lfunc_end13-.Ltmp150   
	.long	0                       
	.byte	0                       
	.p2align	2

	.section	.text._ZNKSt5arrayIiLm64EE3endEv,"axG",@progbits,_ZNKSt5arrayIiLm64EE3endEv,comdat
	.weak	_ZNKSt5arrayIiLm64EE3endEv 
	.p2align	4, 0x90
	.type	_ZNKSt5arrayIiLm64EE3endEv,@function
_ZNKSt5arrayIiLm64EE3endEv:             

	push	rbp
	push	r15
	push	r14
	push	r12
	push	rbx
	mov	eax, dword ptr [rip + x.98]
	mov	ecx, dword ptr [rip + y.99]
	lea	edx, [rax - 1]
	imul	edx, eax
	mov	esi, edx
	xor	esi, -2
	and	esi, edx
	sete	al
	sete	byte ptr [rsp - 18]
	cmp	ecx, 10
	setl	dl
	xor	dl, al
	mov	r12d, -1278516135
	mov	r8d, 65537632
	mov	ebp, 65537632
	cmovne	ebp, r12d
	test	esi, esi
	cmovne	r12d, ebp
	cmp	ecx, 10
	setl	byte ptr [rsp - 17]
	mov	ecx, dword ptr [rip + x.210]
	mov	r14d, dword ptr [rip + y.211]
	cmovge	r12d, ebp
	mov	esi, ecx
	neg	esi
	not	esi
	imul	esi, ecx
	mov	ecx, esi
	not	ecx
	or	ecx, -2
	and	esi, 1
	cmp	ecx, -1
	sete	bl
	mov	ebp, 1355690161
	mov	r9d, -1688904936
	mov	ecx, -1688904936
	cmove	ecx, ebp
	cmp	r14d, 10
	setl	dl
	cmovge	ecx, r9d
	xor	dl, bl
	cmovne	ecx, ebp
	mov	ebp, -1299634316
	mov	r10d, 256
	mov	r11d, -341369119
	mov	r15d, -2044286410
	jmp	.LBB14_1
.LBB14_4:                               
	mov	al, byte ptr [rsp - 18]
	mov	bl, byte ptr [rsp - 17]
	mov	edx, eax
	xor	dl, bl
	test	bl, bl
	mov	ebp, 65537632
	cmovne	ebp, r15d
	test	al, al
	cmove	ebp, r8d
	test	dl, dl
	cmovne	ebp, r15d
	.p2align	4, 0x90
.LBB14_1:                               


	cmp	ebp, -1278516136
	jg	.LBB14_5

	cmp	ebp, -2044286410
	je	.LBB14_12

	cmp	ebp, -1299634316
	jne	.LBB14_1
	jmp	.LBB14_4
	.p2align	4, 0x90
.LBB14_5:                               
	cmp	ebp, -1278516135
	je	.LBB14_22

	cmp	ebp, 65537632
	jne	.LBB14_1

	test	esi, esi
	sete	byte ptr [rsp - 20]
	cmp	r14d, 10
	setl	byte ptr [rsp - 19]
	mov	ebp, 1368931181
	jmp	.LBB14_8
.LBB14_12:                              
	test	esi, esi
	sete	byte ptr [rsp - 20]
	cmp	r14d, 10
	setl	byte ptr [rsp - 19]
	mov	ebp, 1368931181
	jmp	.LBB14_13
.LBB14_25:                              
	movzx	eax, byte ptr [rsp - 20]
	movzx	edx, byte ptr [rsp - 19]
	mov	ebx, eax
	xor	bl, dl
	test	dl, dl
	mov	ebp, -1688904936
	cmovne	ebp, r11d
	test	al, al
	cmove	ebp, r9d
	test	bl, bl
	cmovne	ebp, r11d
	.p2align	4, 0x90
.LBB14_8:                               

	cmp	ebp, 1355690160
	jg	.LBB14_23

	cmp	ebp, -1688904936
	je	.LBB14_26

	cmp	ebp, -341369119
	jne	.LBB14_8

	mov	qword ptr [rsp - 16], rdi
	mov	ebp, ecx
	jmp	.LBB14_8
	.p2align	4, 0x90
.LBB14_23:                              
	cmp	ebp, 1355690161
	je	.LBB14_27

	cmp	ebp, 1368931181
	jne	.LBB14_8
	jmp	.LBB14_25
.LBB14_26:                              
	mov	ebp, -341369119
	jmp	.LBB14_8
.LBB14_19:                              
	movzx	eax, byte ptr [rsp - 20]
	movzx	edx, byte ptr [rsp - 19]
	mov	ebx, eax
	xor	bl, dl
	test	dl, dl
	mov	ebp, -1688904936
	cmovne	ebp, r11d
	test	al, al
	cmove	ebp, r9d
	test	bl, bl
	cmovne	ebp, r11d
	.p2align	4, 0x90
.LBB14_13:                              

	cmp	ebp, 1355690160
	jg	.LBB14_17

	cmp	ebp, -1688904936
	je	.LBB14_20

	cmp	ebp, -341369119
	jne	.LBB14_13

	mov	qword ptr [rsp - 16], rdi
	mov	ebp, ecx
	jmp	.LBB14_13
	.p2align	4, 0x90
.LBB14_17:                              
	cmp	ebp, 1355690161
	je	.LBB14_21

	cmp	ebp, 1368931181
	jne	.LBB14_13
	jmp	.LBB14_19
.LBB14_20:                              
	mov	ebp, -341369119
	jmp	.LBB14_13
.LBB14_27:                              
	mov	rax, qword ptr [rsp - 16]
	mov	ebp, -2044286410
	jmp	.LBB14_1
.LBB14_21:                              
	mov	rax, qword ptr [rsp - 16]
	add	rax, r10
	mov	qword ptr [rsp - 8], rax
	mov	ebp, r12d
	jmp	.LBB14_1
.LBB14_22:
	mov	rax, qword ptr [rsp - 8]
	pop	rbx
	pop	r12
	pop	r14
	pop	r15
	pop	rbp
	ret
.Lfunc_end14:
	.size	_ZNKSt5arrayIiLm64EE3endEv, .Lfunc_end14-_ZNKSt5arrayIiLm64EE3endEv

	.text
	.globl	_ZN3DES10finalPermuERKNSt7__cxx1112basic_stringIcSt11char_traitsIcESaIcEEE 
	.p2align	4, 0x90
	.type	_ZN3DES10finalPermuERKNSt7__cxx1112basic_stringIcSt11char_traitsIcESaIcEEE,@function
_ZN3DES10finalPermuERKNSt7__cxx1112basic_stringIcSt11char_traitsIcESaIcEEE: 
.Lfunc_begin7:
	.cfi_startproc
	.cfi_personality 3, __gxx_personality_v0
	.cfi_lsda 3, .Lexception7

	push	rbp
.Lcfi91:
	.cfi_def_cfa_offset 16
	push	r15
.Lcfi92:
	.cfi_def_cfa_offset 24
	push	r14
.Lcfi93:
	.cfi_def_cfa_offset 32
	push	r13
.Lcfi94:
	.cfi_def_cfa_offset 40
	push	r12
.Lcfi95:
	.cfi_def_cfa_offset 48
	push	rbx
.Lcfi96:
	.cfi_def_cfa_offset 56
	sub	rsp, 120
.Lcfi97:
	.cfi_def_cfa_offset 176
.Lcfi98:
	.cfi_offset rbx, -56
.Lcfi99:
	.cfi_offset r12, -48
.Lcfi100:
	.cfi_offset r13, -40
.Lcfi101:
	.cfi_offset r14, -32
.Lcfi102:
	.cfi_offset r15, -24
.Lcfi103:
	.cfi_offset rbp, -16
	lea	rax, [rsp + 112]
	mov	qword ptr [rsp + 104], rax
	lea	rax, [rsp + 32]
	mov	qword ptr [rsp + 72], rax
	mov	rax, qword ptr [rsp + 72]
	mov	eax, dword ptr [rip + x.202]
	mov	ecx, dword ptr [rip + y.203]
	lea	edx, [rax - 1]
	imul	edx, eax
	mov	ebp, edx
	xor	ebp, -2
	and	ebp, edx
	sete	byte ptr [rsp + 8]
	sete	al
	cmp	ecx, 10
	setl	dl
	xor	dl, al
	mov	eax, -509641745
	mov	edx, -903518113
	cmovne	edx, eax
	test	ebp, ebp
	cmovne	eax, edx
	cmp	ecx, 10
	setl	byte ptr [rsp + 40]
	mov	r13, rsi
	mov	qword ptr [rsp + 88], rdi 
	cmovge	eax, edx
	mov	edx, 1511383347
	mov	esi, 858164122
	jmp	.LBB15_1
.LBB15_21:                              
	mov	qword ptr [rsp + 32], 0
	mov	edx, eax
	.p2align	4, 0x90
.LBB15_1:                               
	cmp	edx, 858164121
	jg	.LBB15_18

	cmp	edx, -903518113
	je	.LBB15_22

	cmp	edx, -509641745
	jne	.LBB15_1
	jmp	.LBB15_4
	.p2align	4, 0x90
.LBB15_18:                              
	cmp	edx, 858164122
	je	.LBB15_21

	cmp	edx, 1511383347
	jne	.LBB15_1

	movzx	ecx, byte ptr [rsp + 8]
	movzx	edx, byte ptr [rsp + 40]
	mov	ebx, ecx
	xor	bl, dl
	mov	edi, -903518113
	cmovne	edi, esi
	test	dl, dl
	mov	edx, edi
	cmovne	edx, esi
	test	cl, cl
	cmove	edx, edi
	jmp	.LBB15_1
.LBB15_22:                              
	mov	qword ptr [rsp + 32], 0
	mov	edx, 858164122
	jmp	.LBB15_1
.LBB15_4:
	lea	r10, [rsp + 24]
	mov	qword ptr [rsp + 80], r10
	mov	rax, qword ptr [rsp + 80]
	mov	r9, qword ptr [r13]
	mov	r8d, -901066291
	mov	r11d, -1511853027
	mov	r14d, 1534441363
	mov	r15d, -369009728
	mov	r12d, -1141929952
	jmp	.LBB15_5
	.p2align	4, 0x90
.LBB15_92:                              
	mov	r9, qword ptr [rsp + 24]
	lea	rax, [r9 + 1]
	mov	qword ptr [rsp + 24], rax
	mov	r10, qword ptr [rsp + 104]
.LBB15_5:                               









	mov	eax, -1647851927
	jmp	.LBB15_6
.LBB15_39:                              
	mov	rax, qword ptr [rsp + 24]
	cmp	byte ptr [rax], 49
	mov	eax, -1648127765
	mov	ecx, -1111246495
	cmove	eax, ecx
	.p2align	4, 0x90
.LBB15_6:                               









	mov	ecx, eax
	and	ecx, 2147483647
	cmp	ecx, 1005553695
	jle	.LBB15_7

	cmp	ecx, 1005553696
	je	.LBB15_39

	cmp	ecx, 1036237153
	je	.LBB15_40

	cmp	ecx, 1610367326
	jne	.LBB15_6
	jmp	.LBB15_26
	.p2align	4, 0x90
.LBB15_7:                               
	cmp	ecx, 499355883
	je	.LBB15_92

	cmp	ecx, 499631721
	jne	.LBB15_6

	mov	qword ptr [r10], r9
	mov	rbp, qword ptr [r13]
	mov	ecx, dword ptr [rip + x.274]
	mov	edx, dword ptr [rip + y.275]
	lea	esi, [rcx - 1]
	imul	esi, ecx
	not	esi
	or	esi, -2
	cmp	esi, -1
	sete	cl
	cmp	edx, 10
	setl	bl
	xor	bl, cl
	mov	edi, -1511853027
	cmovne	edi, r8d
	cmp	esi, -1
	sete	byte ptr [rsp + 7]
	mov	ecx, edi
	cmove	ecx, r8d
	cmp	edx, 10
	setl	byte ptr [rsp + 8]
	cmovge	ecx, edi
	mov	rdi, qword ptr [r13 + 8]
	mov	esi, 1978003098
	jmp	.LBB15_10
.LBB15_31:                              
	mov	qword ptr [rsp + 40], rdi
	mov	esi, ecx
	.p2align	4, 0x90
.LBB15_10:                              


	cmp	esi, 1978003097
	jg	.LBB15_28

	cmp	esi, -1511853027
	je	.LBB15_32

	cmp	esi, -901066291
	jne	.LBB15_10
	jmp	.LBB15_13
	.p2align	4, 0x90
.LBB15_28:                              
	cmp	esi, 2092656913
	je	.LBB15_31

	cmp	esi, 1978003098
	jne	.LBB15_10

	movzx	edx, byte ptr [rsp + 7]
	movzx	eax, byte ptr [rsp + 8]
	mov	ebx, edx
	xor	bl, al
	test	al, al
	mov	esi, -1511853027
	mov	eax, 2092656913
	cmovne	esi, eax
	test	dl, dl
	cmove	esi, r11d
	test	bl, bl
	cmovne	esi, eax
	jmp	.LBB15_10
.LBB15_32:                              
	mov	esi, 2092656913
	jmp	.LBB15_10
.LBB15_13:                              
	mov	rdi, qword ptr [rsp + 40]
	mov	ecx, dword ptr [rip + x.86]
	mov	edx, dword ptr [rip + y.87]
	mov	esi, ecx
	neg	esi
	not	esi
	imul	esi, ecx
	mov	ecx, esi
	xor	ecx, -2
	cmp	edx, 10
	setl	bl
	setl	byte ptr [rsp + 8]
	and	ecx, esi
	sete	al
	sete	byte ptr [rsp + 7]
	xor	al, bl
	mov	eax, -369009728
	cmovne	eax, r14d
	test	ecx, ecx
	mov	ecx, eax
	cmove	ecx, r14d
	cmp	edx, 10
	cmovge	ecx, eax
	add	rbp, rdi
	mov	rdi, qword ptr [rsp + 24]
	mov	esi, 2143172987
	jmp	.LBB15_14
.LBB15_36:                              
	cmp	rdi, rbp
	setb	byte ptr [rsp + 40]
	mov	esi, ecx
	.p2align	4, 0x90
.LBB15_14:                              


	cmp	esi, 1534441362
	jg	.LBB15_33

	cmp	esi, -1921148854
	je	.LBB15_36

	cmp	esi, -369009728
	jne	.LBB15_14

	mov	esi, -1921148854
	jmp	.LBB15_14
	.p2align	4, 0x90
.LBB15_33:                              
	cmp	esi, 1534441363
	je	.LBB15_37

	cmp	esi, 2143172987
	jne	.LBB15_14

	movzx	edx, byte ptr [rsp + 7]
	movzx	ebx, byte ptr [rsp + 8]
	mov	eax, edx
	xor	al, bl
	test	bl, bl
	mov	esi, -369009728
	mov	ebx, -1921148854
	cmovne	esi, ebx
	test	dl, dl
	cmove	esi, r15d
	test	al, al
	cmovne	esi, ebx
	jmp	.LBB15_14
.LBB15_37:                              
	mov	al, byte ptr [rsp + 40]
	test	al, al
	mov	eax, -537116322
	cmovne	eax, r12d
	jmp	.LBB15_6
.LBB15_40:                              
	mov	eax, dword ptr [rip + x.210]
	mov	r8d, dword ptr [rip + y.211]
	lea	esi, [rax - 1]
	imul	esi, eax
	mov	ebp, esi
	xor	ebp, -2
	mov	eax, ebp
	and	eax, esi
	sete	byte ptr [rsp + 7]
	sete	bl
	test	eax, eax
	mov	eax, -1688904936
	mov	edx, 1355690161
	cmove	eax, edx
	cmp	r8d, 10
	setl	cl
	setl	byte ptr [rsp + 8]
	mov	edi, -1688904936
	cmovge	eax, edi
	xor	cl, bl
	cmovne	eax, edx
	mov	edi, 1368931181
	jmp	.LBB15_41
.LBB15_48:                              
	mov	edi, -341369119
	.p2align	4, 0x90
.LBB15_41:                              


	cmp	edi, 1355690160
	jg	.LBB15_45

	cmp	edi, -1688904936
	je	.LBB15_48

	cmp	edi, -341369119
	jne	.LBB15_41

	mov	qword ptr [rsp + 40], _ZN3DES21finalPermutationTableE
	mov	edi, eax
	jmp	.LBB15_41
	.p2align	4, 0x90
.LBB15_45:                              
	cmp	edi, 1355690161
	je	.LBB15_49

	cmp	edi, 1368931181
	jne	.LBB15_41

	movzx	edx, byte ptr [rsp + 7]
	movzx	ebx, byte ptr [rsp + 8]
	mov	ecx, edx
	xor	cl, bl
	test	bl, bl
	mov	edi, -1688904936
	mov	ebx, -341369119
	cmovne	edi, ebx
	test	dl, dl
	mov	edx, -1688904936
	cmove	edi, edx
	test	cl, cl
	cmovne	edi, ebx
	jmp	.LBB15_41
.LBB15_49:                              
	test	ebp, esi
	mov	r14, qword ptr [rsp + 40]
	sete	byte ptr [rsp + 7]
	cmp	r8d, 10
	setl	byte ptr [rsp + 8]
	mov	ecx, 1368931181
	jmp	.LBB15_50
.LBB15_57:                              
	mov	ecx, -341369119
	.p2align	4, 0x90
.LBB15_50:                              


	cmp	ecx, 1355690160
	jg	.LBB15_54

	cmp	ecx, -1688904936
	je	.LBB15_57

	cmp	ecx, -341369119
	jne	.LBB15_50

	mov	qword ptr [rsp + 40], _ZN3DES21finalPermutationTableE
	mov	ecx, eax
	jmp	.LBB15_50
	.p2align	4, 0x90
.LBB15_54:                              
	cmp	ecx, 1355690161
	je	.LBB15_58

	cmp	ecx, 1368931181
	jne	.LBB15_50

	movzx	ebx, byte ptr [rsp + 7]
	movzx	ecx, byte ptr [rsp + 8]
	mov	edx, ebx
	xor	dl, cl
	mov	edx, -1688904936
	mov	esi, -341369119
	cmovne	edx, esi
	test	cl, cl
	mov	ecx, edx
	cmovne	ecx, esi
	test	bl, bl
	cmove	ecx, edx
	jmp	.LBB15_50
.LBB15_58:                              
	mov	qword ptr [rsp + 96], r10 
	mov	r12, r9
	mov	r15, qword ptr [rsp + 40]
	mov	edi, _ZN3DES21finalPermutationTableE
	call	_ZNKSt5arrayIiLm64EE3endEv
	mov	r8, qword ptr [r13]
	mov	r9, qword ptr [rsp + 24]
	mov	esi, dword ptr [rip + x.214]
	mov	edi, dword ptr [rip + y.215]
	lea	ebp, [rsi - 1]
	imul	ebp, esi
	not	ebp
	or	ebp, -2
	cmp	ebp, -1
	sete	bl
	cmp	edi, 10
	setl	dl
	xor	dl, bl
	mov	edx, -594789007
	mov	ecx, 1557069072
	cmovne	edx, ecx
	cmp	ebp, -1
	sete	byte ptr [rsp + 8]
	mov	esi, edx
	cmove	esi, ecx
	cmp	edi, 10
	setl	byte ptr [rsp + 40]
	cmovge	esi, edx
	mov	edi, 680917234
	jmp	.LBB15_59
.LBB15_66:                              
	mov	edi, -348105442
	.p2align	4, 0x90
.LBB15_59:                              


	cmp	edi, 680917233
	jg	.LBB15_63

	cmp	edi, -594789007
	je	.LBB15_66

	cmp	edi, -348105442
	jne	.LBB15_59

	mov	edi, esi
	jmp	.LBB15_59
	.p2align	4, 0x90
.LBB15_63:                              
	cmp	edi, 1557069072
	je	.LBB15_67

	cmp	edi, 680917234
	jne	.LBB15_59

	movzx	ecx, byte ptr [rsp + 8]
	movzx	ebx, byte ptr [rsp + 40]
	mov	edx, ecx
	xor	dl, bl
	mov	edx, -594789007
	mov	ebp, -348105442
	cmovne	edx, ebp
	test	bl, bl
	mov	edi, edx
	cmovne	edi, ebp
	test	cl, cl
	cmove	edi, edx
	jmp	.LBB15_59
.LBB15_67:                              
	mov	ecx, dword ptr [rip + x.216]
	mov	edx, dword ptr [rip + y.217]
	mov	esi, ecx
	neg	esi
	not	esi
	imul	esi, ecx
	not	esi
	or	esi, -2
	cmp	esi, -1
	sete	cl
	cmp	edx, 10
	setl	bl
	xor	bl, cl
	mov	ecx, -385256741
	mov	edi, -1905940984
	cmovne	ecx, edi
	cmp	esi, -1
	sete	byte ptr [rsp + 7]
	mov	esi, ecx
	cmove	esi, edi
	cmp	edx, 10
	setl	byte ptr [rsp + 8]
	cmovge	esi, ecx
	sub	r9, r8
	mov	edx, -1736172681
	jmp	.LBB15_68
.LBB15_75:                              
	mov	edx, 2057159485
	.p2align	4, 0x90
.LBB15_68:                              


	cmp	edx, -385256742
	jg	.LBB15_72

	cmp	edx, -1905940984
	je	.LBB15_76

	cmp	edx, -1736172681
	jne	.LBB15_68

	movzx	ebx, byte ptr [rsp + 7]
	movzx	edx, byte ptr [rsp + 8]
	mov	ecx, ebx
	xor	cl, dl
	mov	ecx, -385256741
	mov	edi, 2057159485
	cmovne	ecx, edi
	test	dl, dl
	mov	edx, ecx
	cmovne	edx, edi
	test	bl, bl
	cmove	edx, ecx
	jmp	.LBB15_68
	.p2align	4, 0x90
.LBB15_72:                              
	cmp	edx, -385256741
	je	.LBB15_75

	cmp	edx, 2057159485
	jne	.LBB15_68

	mov	qword ptr [rsp + 40], r9
	mov	edx, esi
	jmp	.LBB15_68
.LBB15_76:                              
	mov	rcx, qword ptr [rsp + 40]
	movabs	rdx, -5940031678843989886
	sub	rcx, rdx
	lea	rcx, [rcx + rdx + 1]
	mov	qword ptr [rsp + 8], rcx
	mov	rdi, r15
	mov	rsi, rax
	lea	rdx, [rsp + 8]
	call	_ZSt9__find_ifIPKiN9__gnu_cxx5__ops16_Iter_equals_valIKlEEET_S7_S7_T0_St26random_access_iterator_tag
	mov	ecx, dword ptr [rip + x.92]
	mov	edi, dword ptr [rip + y.93]
	lea	esi, [rcx - 1]
	imul	esi, ecx
	mov	ecx, esi
	xor	ecx, -2
	and	ecx, esi
	sete	bl
	sete	byte ptr [rsp + 23]
	cmp	edi, 10
	setl	dl
	xor	dl, bl
	mov	edx, 911041906
	mov	ebp, 2101938195
	cmovne	edx, ebp
	test	ecx, ecx
	mov	esi, edx
	cmove	esi, ebp
	cmp	edi, 10
	setl	byte ptr [rsp + 7]
	cmovge	esi, edx
	sub	rax, r14
	sar	rax, 2
	mov	edx, -1486924524
	jmp	.LBB15_77
.LBB15_87:                              
	movzx	ecx, byte ptr [rsp + 23]
	movzx	edx, byte ptr [rsp + 7]
	mov	ebx, ecx
	xor	bl, dl
	mov	edi, 911041906
	mov	ebp, 197475238
	cmovne	edi, ebp
	test	dl, dl
	mov	edx, edi
	cmovne	edx, ebp
	test	cl, cl
	cmove	edx, edi
	.p2align	4, 0x90
.LBB15_77:                              


	cmp	edx, 911041905
	jle	.LBB15_78

	cmp	edx, 911041906
	je	.LBB15_88

	cmp	edx, 2101938195
	jne	.LBB15_77
	jmp	.LBB15_83
	.p2align	4, 0x90
.LBB15_78:                              
	cmp	edx, -1486924524
	je	.LBB15_87

	cmp	edx, 197475238
	jne	.LBB15_77

	mov	qword ptr [rsp + 40], rax
	mov	edx, esi
	jmp	.LBB15_77
.LBB15_88:                              
	mov	edx, 197475238
	jmp	.LBB15_77
.LBB15_83:                              
	mov	rax, qword ptr [rsp + 40]
	mov	ecx, 63
	sub	ecx, eax
	movsxd	rbx, ecx
	cmp	rbx, 63
	mov	eax, -1012203524
	mov	ecx, 1185874138
	cmova	eax, ecx
	mov	ecx, -190262516
	jmp	.LBB15_84
	.p2align	4, 0x90
.LBB15_86:                              
	mov	ecx, eax
.LBB15_84:                              


	cmp	ecx, -1012203524
	je	.LBB15_91

	cmp	ecx, -190262516
	je	.LBB15_86

	cmp	ecx, 1185874138
	jne	.LBB15_84
	jmp	.LBB15_90
.LBB15_91:                              
	mov	edx, 1
	lea	rdi, [rsp + 32]
	mov	rsi, rbx
	call	_ZNSt6bitsetILm64EE14_Unchecked_setEmi
	mov	eax, -1648127765
	mov	r8d, -901066291
	mov	r9, r12
	mov	r10, qword ptr [rsp + 96] 
	mov	r11d, -1511853027
	mov	r14d, 1534441363
	mov	r15d, -369009728
	mov	r12d, -1141929952
	jmp	.LBB15_6
.LBB15_26:
	mov	rax, qword ptr [rsp + 80]
	lea	rbx, [rsp + 40]
	mov	rdi, rbx
	call	_ZNSt7__cxx1112basic_stringIcSt11char_traitsIcESaIcEEC2Ev
.Ltmp152:
	lea	rdi, [rsp + 32]
	mov	edx, 48
	mov	ecx, 49
	mov	rsi, rbx
	call	_ZNKSt6bitsetILm64EE17_M_copy_to_stringIcSt11char_traitsIcESaIcEEEvRNSt7__cxx1112basic_stringIT_T0_T1_EES7_S7_
.Ltmp153:

	mov	rdi, qword ptr [rsp + 88] 
	add	rdi, 40
	lea	rbx, [rsp + 40]
	mov	rsi, rbx
	call	_ZNSt7__cxx1112basic_stringIcSt11char_traitsIcESaIcEEaSEOS4_
	mov	rdi, rbx
	call	_ZNSt7__cxx1112basic_stringIcSt11char_traitsIcESaIcEED2Ev
	mov	rax, qword ptr [rsp + 72]
	add	rsp, 120
	pop	rbx
	pop	r12
	pop	r13
	pop	r14
	pop	r15
	pop	rbp
	ret
.LBB15_90:
	mov	edi, .L.str.49
	mov	esi, .L.str.48
	mov	ecx, 64
	xor	eax, eax
	mov	rdx, rbx
	call	_ZSt24__throw_out_of_range_fmtPKcz
.LBB15_38:
.Ltmp154:
	mov	rbx, rax
	lea	rdi, [rsp + 40]
	call	_ZNSt7__cxx1112basic_stringIcSt11char_traitsIcESaIcEED2Ev
	mov	rdi, rbx
	call	_Unwind_Resume
.Lfunc_end15:
	.size	_ZN3DES10finalPermuERKNSt7__cxx1112basic_stringIcSt11char_traitsIcESaIcEEE, .Lfunc_end15-_ZN3DES10finalPermuERKNSt7__cxx1112basic_stringIcSt11char_traitsIcESaIcEEE
	.cfi_endproc
	.section	.gcc_except_table,"a",@progbits
	.p2align	2
GCC_except_table15:
.Lexception7:
	.byte	255                     
	.byte	3                       
	.byte	41                      
	.byte	3                       
	.byte	39                      
	.long	.Lfunc_begin7-.Lfunc_begin7 
	.long	.Ltmp152-.Lfunc_begin7  
	.long	0                       
	.byte	0                       
	.long	.Ltmp152-.Lfunc_begin7  
	.long	.Ltmp153-.Ltmp152       
	.long	.Ltmp154-.Lfunc_begin7  
	.byte	0                       
	.long	.Ltmp153-.Lfunc_begin7  
	.long	.Lfunc_end15-.Ltmp153   
	.long	0                       
	.byte	0                       
	.p2align	2

	.text
	.globl	_ZN3DES14expansionPermuERKNSt7__cxx1112basic_stringIcSt11char_traitsIcESaIcEEE 
	.p2align	4, 0x90
	.type	_ZN3DES14expansionPermuERKNSt7__cxx1112basic_stringIcSt11char_traitsIcESaIcEEE,@function
_ZN3DES14expansionPermuERKNSt7__cxx1112basic_stringIcSt11char_traitsIcESaIcEEE: 
.Lfunc_begin8:
	.cfi_startproc
	.cfi_personality 3, __gxx_personality_v0
	.cfi_lsda 3, .Lexception8

	push	r15
.Lcfi104:
	.cfi_def_cfa_offset 16
	push	r14
.Lcfi105:
	.cfi_def_cfa_offset 24
	push	r13
.Lcfi106:
	.cfi_def_cfa_offset 32
	push	r12
.Lcfi107:
	.cfi_def_cfa_offset 40
	push	rbx
.Lcfi108:
	.cfi_def_cfa_offset 48
	sub	rsp, 48
.Lcfi109:
	.cfi_def_cfa_offset 96
.Lcfi110:
	.cfi_offset rbx, -48
.Lcfi111:
	.cfi_offset r12, -40
.Lcfi112:
	.cfi_offset r13, -32
.Lcfi113:
	.cfi_offset r14, -24
.Lcfi114:
	.cfi_offset r15, -16
	mov	r15, rsi
	mov	r14, rdi
	mov	eax, dword ptr [rip + x.110]
	mov	ecx, dword ptr [rip + y.111]
	lea	edx, [rax - 1]
	imul	edx, eax
	mov	esi, edx
	xor	esi, -2
	and	esi, edx
	sete	byte ptr [rsp + 14]
	sete	al
	cmp	ecx, 10
	setl	dl
	xor	dl, al
	mov	eax, 484222235
	mov	edx, -672336577
	cmovne	edx, eax
	test	esi, esi
	cmovne	eax, edx
	cmp	ecx, 10
	setl	byte ptr [rsp + 15]
	cmovge	eax, edx
	mov	rdi, qword ptr [r15 + 8]
	mov	esi, -1675833154
	mov	r8d, 1669047271
	jmp	.LBB16_1
.LBB16_20:                              
	movzx	ecx, byte ptr [rsp + 14]
	movzx	edx, byte ptr [rsp + 15]
	mov	ebx, ecx
	xor	bl, dl
	mov	ebx, -672336577
	cmovne	ebx, r8d
	test	dl, dl
	mov	esi, ebx
	cmovne	esi, r8d
	test	cl, cl
	cmove	esi, ebx
	.p2align	4, 0x90
.LBB16_1:                               
	cmp	esi, 484222234
	jg	.LBB16_5

	cmp	esi, -1675833154
	je	.LBB16_20

	cmp	esi, -672336577
	jne	.LBB16_1

	mov	esi, 1669047271
	jmp	.LBB16_1
	.p2align	4, 0x90
.LBB16_5:                               
	cmp	esi, 484222235
	je	.LBB16_8

	cmp	esi, 1669047271
	jne	.LBB16_1

	mov	qword ptr [rsp + 16], rdi
	mov	esi, eax
	jmp	.LBB16_1
.LBB16_8:
	mov	rax, qword ptr [rsp + 16]
	cmp	rax, 32
	jne	.LBB16_21

	movabs	r13, 1274915997691789834
	lea	r12, [rsp + 16]
	mov	rdi, r12
	call	_ZNSt7__cxx1112basic_stringIcSt11char_traitsIcESaIcEEC2Ev
	xor	ebx, ebx
	.p2align	4, 0x90
.LBB16_10:                              

	mov	eax, 2113270834
	jmp	.LBB16_11
.LBB16_13:                              
	mov	eax, 934958512
	.p2align	4, 0x90
.LBB16_11:                              

	mov	ecx, eax
	and	ecx, 2147483647
	cmp	ecx, 934958512
	je	.LBB16_14

	cmp	ecx, 2113270834
	jne	.LBB16_11
	jmp	.LBB16_13
	.p2align	4, 0x90
.LBB16_14:                              
	mov	eax, dword ptr [4*rbx + _ZN3DES25expansionPermutationTalbeE]
	dec	eax
	cdqe
	mov	rcx, qword ptr [r15]
	movsx	esi, byte ptr [rcx + rax]
.Ltmp155:
	mov	rdi, r12
	call	_ZNSt7__cxx1112basic_stringIcSt11char_traitsIcESaIcEE9push_backEc
.Ltmp156:

	lea	rax, [rbx + r13 + 1]
	sub	rax, r13
	cmp	rbx, 47
	mov	rbx, rax
	jb	.LBB16_10

	add	r14, 392
.Ltmp158:
	lea	rsi, [rsp + 16]
	mov	rdi, r14
	call	_ZNSt7__cxx1112basic_stringIcSt11char_traitsIcESaIcEE9_M_assignERKS4_
.Ltmp159:

	lea	rdi, [rsp + 16]
	call	_ZNSt7__cxx1112basic_stringIcSt11char_traitsIcESaIcEED2Ev
	add	rsp, 48
	pop	rbx
	pop	r12
	pop	r13
	pop	r14
	pop	r15
	ret
.LBB16_21:
	mov	edi, _ZSt4cout
	mov	esi, .L.str
	call	_ZStlsISt11char_traitsIcEERSt13basic_ostreamIcT_ES5_PKc
	xor	edi, edi
	call	exit
.LBB16_18:
.Ltmp160:
	jmp	.LBB16_19
.LBB16_22:
.Ltmp157:
.LBB16_19:
	mov	rbx, rax
	lea	rdi, [rsp + 16]
	call	_ZNSt7__cxx1112basic_stringIcSt11char_traitsIcESaIcEED2Ev
	mov	rdi, rbx
	call	_Unwind_Resume
.Lfunc_end16:
	.size	_ZN3DES14expansionPermuERKNSt7__cxx1112basic_stringIcSt11char_traitsIcESaIcEEE, .Lfunc_end16-_ZN3DES14expansionPermuERKNSt7__cxx1112basic_stringIcSt11char_traitsIcESaIcEEE
	.cfi_endproc
	.section	.gcc_except_table,"a",@progbits
	.p2align	2
GCC_except_table16:
.Lexception8:
	.byte	255                     
	.byte	3                       
	.byte	41                      
	.byte	3                       
	.byte	39                      
	.long	.Ltmp155-.Lfunc_begin8  
	.long	.Ltmp156-.Ltmp155       
	.long	.Ltmp157-.Lfunc_begin8  
	.byte	0                       
	.long	.Ltmp158-.Lfunc_begin8  
	.long	.Ltmp159-.Ltmp158       
	.long	.Ltmp160-.Lfunc_begin8  
	.byte	0                       
	.long	.Ltmp159-.Lfunc_begin8  
	.long	.Lfunc_end16-.Ltmp159   
	.long	0                       
	.byte	0                       
	.p2align	2

	.text
	.globl	_ZN3DES9shiftLeftERNSt7__cxx1112basic_stringIcSt11char_traitsIcESaIcEEEi 
	.p2align	4, 0x90
	.type	_ZN3DES9shiftLeftERNSt7__cxx1112basic_stringIcSt11char_traitsIcESaIcEEEi,@function
_ZN3DES9shiftLeftERNSt7__cxx1112basic_stringIcSt11char_traitsIcESaIcEEEi: 
	.cfi_startproc

	push	rbp
.Lcfi115:
	.cfi_def_cfa_offset 16
.Lcfi116:
	.cfi_offset rbp, -16
	mov	rbp, rsp
.Lcfi117:
	.cfi_def_cfa_register rbp
	push	r15
	push	r14
	push	r13
	push	r12
	push	rbx
	sub	rsp, 24
.Lcfi118:
	.cfi_offset rbx, -56
.Lcfi119:
	.cfi_offset r12, -48
.Lcfi120:
	.cfi_offset r13, -40
.Lcfi121:
	.cfi_offset r14, -32
.Lcfi122:
	.cfi_offset r15, -24
	mov	eax, dword ptr [rip + x.118]
	mov	ecx, dword ptr [rip + y.119]
	mov	edi, eax
	neg	edi
	not	edi
	imul	edi, eax
	not	edi
	or	edi, -2
	cmp	edi, -1
	setne	r11b
	sete	byte ptr [rbp - 43]
	sete	r14b
	cmp	ecx, 9
	setg	al
	cmp	ecx, 10
	setl	cl
	setl	byte ptr [rbp - 44]
	mov	edi, dword ptr [rip + x.110]
	mov	r10d, dword ptr [rip + y.111]
	lea	r13d, [rdi - 1]
	imul	r13d, edi
	mov	edi, r13d
	not	edi
	or	edi, -2
	and	r13d, 1
	cmp	edi, -1
	sete	r9b
	mov	edi, 484222235
	mov	r15d, -672336577
	mov	r8d, -672336577
	cmove	r8d, edi
	cmp	r10d, 10
	setl	bl
	cmovge	r8d, r15d
	xor	bl, r9b
	cmovne	r8d, edi
	mov	r9, qword ptr [rsi + 8]
	xor	cl, r14b
	or	al, r11b
	xor	al, 1
	or	al, cl
	mov	r11d, -1710363910
	mov	eax, 1422408505
	cmove	r11d, eax
	mov	ecx, 1202099128
	mov	r15d, 1567335068
	cmovne	r15d, ecx
	mov	ebx, -167270710
	mov	edi, -1662899340
	mov	r14d, 467812290
	mov	r12d, 1669047271
	jmp	.LBB17_1
.LBB17_17:                              
	mov	al, byte ptr [rbp - 43]
	mov	bl, byte ptr [rbp - 44]
	mov	ecx, eax
	xor	cl, bl
	mov	ecx, 1422408505
	cmovne	ecx, r14d
	test	bl, bl
	mov	ebx, ecx
	cmovne	ebx, r14d
	test	al, al
	cmove	ebx, ecx
	.p2align	4, 0x90
.LBB17_1:                               


	cmp	ebx, -167270711
	jle	.LBB17_2

	cmp	ebx, 1202099127
	jg	.LBB17_13

	cmp	ebx, -167270710
	je	.LBB17_17

	cmp	ebx, 467812290
	jne	.LBB17_1

	mov	rax, rsp
	add	rax, -16
	mov	rsp, rax
	test	r13d, r13d
	mov	qword ptr [rbp - 64], rax
	sete	byte ptr [rbp - 41]
	cmp	r10d, 10
	setl	byte ptr [rbp - 42]
	mov	ebx, -1675833154
	jmp	.LBB17_9
	.p2align	4, 0x90
.LBB17_2:                               
	cmp	ebx, -1710363910
	je	.LBB17_22

	cmp	ebx, -1662899340
	je	.LBB17_4

	cmp	ebx, -1127664598
	je	.LBB17_24
	jmp	.LBB17_1
.LBB17_13:                              
	cmp	ebx, 1422408505
	jne	.LBB17_14

	test	r13d, r13d
	sete	byte ptr [rbp - 41]
	cmp	r10d, 10
	setl	byte ptr [rbp - 42]
	mov	ebx, -1675833154
	jmp	.LBB17_35
.LBB17_43:                              
	movzx	r14d, byte ptr [rbp - 41]
	movzx	ecx, byte ptr [rbp - 42]
	mov	eax, r14d
	xor	al, cl
	test	cl, cl
	mov	ebx, -672336577
	cmovne	ebx, r12d
	test	r14b, r14b
	mov	r14d, 467812290
	mov	ecx, -672336577
	cmove	ebx, ecx
	test	al, al
	cmovne	ebx, r12d
	.p2align	4, 0x90
.LBB17_9:                               

	cmp	ebx, 484222234
	jg	.LBB17_18

	cmp	ebx, -1675833154
	je	.LBB17_43

	cmp	ebx, -672336577
	jne	.LBB17_9

	mov	ebx, 1669047271
	jmp	.LBB17_9
	.p2align	4, 0x90
.LBB17_18:                              
	cmp	ebx, 484222235
	je	.LBB17_21

	cmp	ebx, 1669047271
	jne	.LBB17_9

	mov	qword ptr [rbp - 56], r9
	mov	ebx, r8d
	jmp	.LBB17_9
.LBB17_22:                              
	mov	al, byte ptr [rbp - 45]
	test	al, al
	mov	ebx, -1127664598
	cmovne	ebx, edi
	jmp	.LBB17_1
.LBB17_44:                              
	movzx	eax, byte ptr [rbp - 41]
	movzx	ecx, byte ptr [rbp - 42]
	mov	ebx, eax
	xor	bl, cl
	mov	edi, -672336577
	cmovne	edi, r12d
	test	cl, cl
	mov	ebx, edi
	cmovne	ebx, r12d
	test	al, al
	cmove	ebx, edi
	mov	edi, -1662899340
	.p2align	4, 0x90
.LBB17_35:                              

	cmp	ebx, 484222234
	jg	.LBB17_39

	cmp	ebx, -1675833154
	je	.LBB17_44

	cmp	ebx, -672336577
	jne	.LBB17_35

	mov	ebx, 1669047271
	jmp	.LBB17_35
	.p2align	4, 0x90
.LBB17_39:                              
	cmp	ebx, 484222235
	je	.LBB17_42

	cmp	ebx, 1669047271
	jne	.LBB17_35

	mov	qword ptr [rbp - 56], r9
	mov	ebx, r8d
	jmp	.LBB17_35
.LBB17_21:                              
	mov	rax, qword ptr [rbp - 56]
	cmp	eax, edx
	setl	byte ptr [rbp - 45]
	mov	ebx, r11d
	jmp	.LBB17_1
.LBB17_42:                              
	mov	rax, qword ptr [rbp - 56]
	mov	ebx, 467812290
	jmp	.LBB17_1
.LBB17_4:                               
	mov	ebx, r15d
	jmp	.LBB17_1
.LBB17_14:                              
	cmp	ebx, 1202099128
	je	.LBB17_16

	cmp	ebx, 1567335068
	jne	.LBB17_1
.LBB17_16:
	mov	edi, _ZSt4cout
	mov	esi, .L.str.1
	call	_ZStlsISt11char_traitsIcEERSt13basic_ostreamIcT_ES5_PKc
	mov	rdi, rax
	call	_ZSt4endlIcSt11char_traitsIcEERSt13basic_ostreamIT_T0_ES6_
	xor	edi, edi
	call	exit
.LBB17_24:
	mov	rdi, qword ptr [rsi]
	mov	rax, qword ptr [rbp - 64]
	mov	qword ptr [rax], rdi
	mov	rax, qword ptr [rbp - 64]
	mov	r10, qword ptr [rax]
	mov	r11, qword ptr [rsi]
	mov	ebx, dword ptr [rip + x.274]
	mov	r8d, dword ptr [rip + y.275]
	lea	ecx, [rbx - 1]
	imul	ecx, ebx
	mov	eax, ecx
	xor	eax, -2
	and	eax, ecx
	sete	byte ptr [rbp - 41]
	sete	cl
	cmp	r8d, 10
	setl	bl
	xor	bl, cl
	mov	r14d, -901066291
	mov	ecx, -1511853027
	cmovne	ecx, r14d
	test	eax, eax
	cmovne	r14d, ecx
	cmp	r8d, 10
	setl	byte ptr [rbp - 42]
	cmovge	r14d, ecx
	mov	r9, qword ptr [rsi + 8]
	mov	esi, 1978003098
	mov	r8d, 2092656913
	jmp	.LBB17_25
.LBB17_32:                              
	mov	qword ptr [rbp - 56], r9
	mov	esi, r14d
	.p2align	4, 0x90
.LBB17_25:                              
	cmp	esi, 1978003097
	jg	.LBB17_29

	cmp	esi, -1511853027
	je	.LBB17_33

	cmp	esi, -901066291
	jne	.LBB17_25
	jmp	.LBB17_28
	.p2align	4, 0x90
.LBB17_29:                              
	cmp	esi, 2092656913
	je	.LBB17_32

	cmp	esi, 1978003098
	jne	.LBB17_25

	movzx	ebx, byte ptr [rbp - 41]
	movzx	ecx, byte ptr [rbp - 42]
	mov	eax, ebx
	xor	al, cl
	mov	eax, -1511853027
	cmovne	eax, r8d
	test	cl, cl
	mov	esi, eax
	cmovne	esi, r8d
	test	bl, bl
	cmove	esi, eax
	jmp	.LBB17_25
.LBB17_33:                              
	mov	esi, 2092656913
	jmp	.LBB17_25
.LBB17_28:
	movsxd	rax, edx
	add	r10, rax
	mov	rax, qword ptr [rbp - 56]
	add	r11, rax
	mov	rsi, r10
	mov	rdx, r11
	call	_ZNSt3_V28__rotateIN9__gnu_cxx17__normal_iteratorIPcNSt7__cxx1112basic_stringIcSt11char_traitsIcESaIcEEEEEEET_SB_SB_SB_St26random_access_iterator_tag
	lea	rsp, [rbp - 40]
	pop	rbx
	pop	r12
	pop	r13
	pop	r14
	pop	r15
	pop	rbp
	ret
.Lfunc_end17:
	.size	_ZN3DES9shiftLeftERNSt7__cxx1112basic_stringIcSt11char_traitsIcESaIcEEEi, .Lfunc_end17-_ZN3DES9shiftLeftERNSt7__cxx1112basic_stringIcSt11char_traitsIcESaIcEEEi
	.cfi_endproc

	.globl	_ZN3DES6keygenERKNSt7__cxx1112basic_stringIcSt11char_traitsIcESaIcEEEi 
	.p2align	4, 0x90
	.type	_ZN3DES6keygenERKNSt7__cxx1112basic_stringIcSt11char_traitsIcESaIcEEEi,@function
_ZN3DES6keygenERKNSt7__cxx1112basic_stringIcSt11char_traitsIcESaIcEEEi: 
.Lfunc_begin9:
	.cfi_startproc
	.cfi_personality 3, __gxx_personality_v0
	.cfi_lsda 3, .Lexception9

	push	rbp
.Lcfi123:
	.cfi_def_cfa_offset 16
	push	r15
.Lcfi124:
	.cfi_def_cfa_offset 24
	push	r14
.Lcfi125:
	.cfi_def_cfa_offset 32
	push	r13
.Lcfi126:
	.cfi_def_cfa_offset 40
	push	r12
.Lcfi127:
	.cfi_def_cfa_offset 48
	push	rbx
.Lcfi128:
	.cfi_def_cfa_offset 56
	sub	rsp, 72
.Lcfi129:
	.cfi_def_cfa_offset 128
.Lcfi130:
	.cfi_offset rbx, -56
.Lcfi131:
	.cfi_offset r12, -48
.Lcfi132:
	.cfi_offset r13, -40
.Lcfi133:
	.cfi_offset r14, -32
.Lcfi134:
	.cfi_offset r15, -24
.Lcfi135:
	.cfi_offset rbp, -16
	mov	ebp, edx
	mov	qword ptr [rsp + 24], rsi 
	mov	r12, rdi
	lea	r14, [r12 + 232]
	lea	rbx, [r12 + 136]
	lea	r13, [r12 + 168]
	mov	eax, 528481031
	lea	r15, [rsp + 40]
	jmp	.LBB18_1
.LBB18_12:                              
	mov	rsi, r13
	call	_ZN3DES9shiftLeftERNSt7__cxx1112basic_stringIcSt11char_traitsIcESaIcEEEi
	mov	eax, 949980082
	.p2align	4, 0x90
.LBB18_1:                               
	cmp	eax, 528481030
	jle	.LBB18_2

	cmp	eax, 1737367851
	je	.LBB18_13

	cmp	eax, 949980082
	je	.LBB18_14

	cmp	eax, 528481031
	jne	.LBB18_1

	cmp	ebp, 1
	sete	byte ptr [rsp + 13]
	movzx	eax, byte ptr [rsp + 13]
	test	al, al
	mov	eax, -1228123851
	mov	ecx, -1212957139
	cmovne	eax, ecx
	jmp	.LBB18_1
	.p2align	4, 0x90
.LBB18_2:                               
	cmp	eax, -1308156663
	je	.LBB18_11

	cmp	eax, -1228123851
	je	.LBB18_10

	cmp	eax, -1212957139
	jne	.LBB18_1

	mov	rdi, r12
	mov	rsi, qword ptr [rsp + 24] 
	call	_ZN3DES15parityDropPermuERKNSt7__cxx1112basic_stringIcSt11char_traitsIcESaIcEEE
	xor	edx, edx
	mov	ecx, 28
	mov	rdi, r15
	mov	rsi, r14
	call	_ZNKSt7__cxx1112basic_stringIcSt11char_traitsIcESaIcEE6substrEmm
	mov	rdi, rbx
	mov	rsi, r15
	call	_ZNSt7__cxx1112basic_stringIcSt11char_traitsIcESaIcEEaSEOS4_
	mov	rdi, r15
	call	_ZNSt7__cxx1112basic_stringIcSt11char_traitsIcESaIcEED2Ev
	mov	edx, 28
	mov	ecx, 28
	mov	rdi, r15
	mov	rsi, r14
	call	_ZNKSt7__cxx1112basic_stringIcSt11char_traitsIcESaIcEE6substrEmm
	mov	rdi, r13
	mov	rsi, r15
	call	_ZNSt7__cxx1112basic_stringIcSt11char_traitsIcESaIcEEaSEOS4_
	mov	rdi, r15
	call	_ZNSt7__cxx1112basic_stringIcSt11char_traitsIcESaIcEED2Ev
	mov	eax, -1228123851
	jmp	.LBB18_1
.LBB18_10:                              
	cmp	ebp, 16
	sete	al
	cmp	ebp, 9
	sete	dil
	cmp	ebp, 2
	setne	sil
	mov	rcx, rbx
	sete	bl
	movzx	edx, byte ptr [rsp + 13]
	xor	bl, dl
	xor	dl, 1
	or	dl, sil
	xor	dl, 1
	or	dl, bl
	mov	rbx, rcx
	mov	ecx, edi
	and	cl, dl
	xor	dl, dil
	or	dl, cl
	xor	al, dl
	test	al, 1
	mov	ecx, 1737367851
	mov	esi, -1308156663
	cmovne	ecx, esi
	test	dl, 1
	mov	eax, ecx
	cmovne	eax, esi
	cmp	ebp, 16
	mov	qword ptr [rsp + 16], rbx
	cmovne	eax, ecx
	jmp	.LBB18_1
.LBB18_13:                              
	mov	rsi, qword ptr [rsp + 16]
	mov	edx, 2
	call	_ZN3DES9shiftLeftERNSt7__cxx1112basic_stringIcSt11char_traitsIcESaIcEEEi
	mov	edx, 2
	jmp	.LBB18_12
.LBB18_11:                              
	mov	rsi, qword ptr [rsp + 16]
	mov	edx, 1
	call	_ZN3DES9shiftLeftERNSt7__cxx1112basic_stringIcSt11char_traitsIcESaIcEEEi
	mov	edx, 1
	jmp	.LBB18_12
.LBB18_14:
	mov	rsi, qword ptr [rsp + 16]
	lea	rdi, [rsp + 40]
	call	_ZNSt7__cxx1112basic_stringIcSt11char_traitsIcESaIcEEC2ERKS4_
	mov	rsi, qword ptr [r12 + 168]
	mov	eax, dword ptr [rip + x.274]
	mov	ecx, dword ptr [rip + y.275]
	lea	edx, [rax - 1]
	imul	edx, eax
	not	edx
	or	edx, -2
	cmp	edx, -1
	sete	dl
	sete	byte ptr [rsp + 14]
	mov	edi, -901066291
	mov	ebp, -1511853027
	mov	eax, -1511853027
	cmove	eax, edi
	cmp	ecx, 10
	setl	cl
	setl	byte ptr [rsp + 15]
	cmovge	eax, ebp
	xor	cl, dl
	cmovne	eax, edi
	mov	rbp, qword ptr [r12 + 176]
	mov	edi, 1978003098
	mov	r8d, 2092656913
	jmp	.LBB18_15
.LBB18_22:                              
	movzx	ecx, byte ptr [rsp + 14]
	movzx	edx, byte ptr [rsp + 15]
	mov	ebx, ecx
	xor	bl, dl
	mov	ebx, -1511853027
	cmovne	ebx, r8d
	test	dl, dl
	mov	edi, ebx
	cmovne	edi, r8d
	test	cl, cl
	cmove	edi, ebx
	.p2align	4, 0x90
.LBB18_15:                              
	cmp	edi, 1978003097
	jg	.LBB18_20

	cmp	edi, -1511853027
	je	.LBB18_24

	cmp	edi, -901066291
	jne	.LBB18_15
	jmp	.LBB18_18
	.p2align	4, 0x90
.LBB18_20:                              
	cmp	edi, 2092656913
	je	.LBB18_23

	cmp	edi, 1978003098
	jne	.LBB18_15
	jmp	.LBB18_22
.LBB18_24:                              
	mov	edi, 2092656913
	jmp	.LBB18_15
.LBB18_23:                              
	mov	qword ptr [rsp + 32], rbp
	mov	edi, eax
	jmp	.LBB18_15
.LBB18_18:
	mov	rdx, qword ptr [rsp + 32]
.Ltmp161:
	lea	rdi, [rsp + 40]
	call	_ZNSt7__cxx1112basic_stringIcSt11char_traitsIcESaIcEE9_M_appendEPKcm
.Ltmp162:

	lea	rbp, [rsp + 40]
	mov	rdi, r14
	mov	rsi, rbp
	call	_ZNSt7__cxx1112basic_stringIcSt11char_traitsIcESaIcEEaSEOS4_
	mov	rdi, rbp
	call	_ZNSt7__cxx1112basic_stringIcSt11char_traitsIcESaIcEED2Ev
	mov	rdi, r12
	mov	rsi, r14
	call	_ZN3DES16compressionPermuERKNSt7__cxx1112basic_stringIcSt11char_traitsIcESaIcEEE
	add	rsp, 72
	pop	rbx
	pop	r12
	pop	r13
	pop	r14
	pop	r15
	pop	rbp
	ret
.LBB18_25:
.Ltmp163:
	mov	rbx, rax
	lea	rdi, [rsp + 40]
	call	_ZNSt7__cxx1112basic_stringIcSt11char_traitsIcESaIcEED2Ev
	mov	rdi, rbx
	call	_Unwind_Resume
.Lfunc_end18:
	.size	_ZN3DES6keygenERKNSt7__cxx1112basic_stringIcSt11char_traitsIcESaIcEEEi, .Lfunc_end18-_ZN3DES6keygenERKNSt7__cxx1112basic_stringIcSt11char_traitsIcESaIcEEEi
	.cfi_endproc
	.section	.gcc_except_table,"a",@progbits
	.p2align	2
GCC_except_table18:
.Lexception9:
	.byte	255                     
	.byte	3                       
	.byte	41                      
	.byte	3                       
	.byte	39                      
	.long	.Lfunc_begin9-.Lfunc_begin9 
	.long	.Ltmp161-.Lfunc_begin9  
	.long	0                       
	.byte	0                       
	.long	.Ltmp161-.Lfunc_begin9  
	.long	.Ltmp162-.Ltmp161       
	.long	.Ltmp163-.Lfunc_begin9  
	.byte	0                       
	.long	.Ltmp162-.Lfunc_begin9  
	.long	.Lfunc_end18-.Ltmp162   
	.long	0                       
	.byte	0                       
	.p2align	2

	.text
	.globl	_ZN3DES15parityDropPermuERKNSt7__cxx1112basic_stringIcSt11char_traitsIcESaIcEEE 
	.p2align	4, 0x90
	.type	_ZN3DES15parityDropPermuERKNSt7__cxx1112basic_stringIcSt11char_traitsIcESaIcEEE,@function
_ZN3DES15parityDropPermuERKNSt7__cxx1112basic_stringIcSt11char_traitsIcESaIcEEE: 
.Lfunc_begin10:
	.cfi_startproc
	.cfi_personality 3, __gxx_personality_v0
	.cfi_lsda 3, .Lexception10

	push	rbp
.Lcfi136:
	.cfi_def_cfa_offset 16
	push	r15
.Lcfi137:
	.cfi_def_cfa_offset 24
	push	r14
.Lcfi138:
	.cfi_def_cfa_offset 32
	push	r13
.Lcfi139:
	.cfi_def_cfa_offset 40
	push	r12
.Lcfi140:
	.cfi_def_cfa_offset 48
	push	rbx
.Lcfi141:
	.cfi_def_cfa_offset 56
	sub	rsp, 104
.Lcfi142:
	.cfi_def_cfa_offset 160
.Lcfi143:
	.cfi_offset rbx, -56
.Lcfi144:
	.cfi_offset r12, -48
.Lcfi145:
	.cfi_offset r13, -40
.Lcfi146:
	.cfi_offset r14, -32
.Lcfi147:
	.cfi_offset r15, -24
.Lcfi148:
	.cfi_offset rbp, -16
	mov	r13, rsi
	mov	qword ptr [rsp + 80], rdi 
	lea	rax, [rsp + 96]
	mov	qword ptr [rsp + 88], rax
	lea	rax, [rsp + 16]
	mov	qword ptr [rsp + 56], rax
	mov	rax, qword ptr [rsp + 56]
	mov	eax, dword ptr [rip + x.202]
	mov	ecx, dword ptr [rip + y.203]
	lea	edx, [rax - 1]
	imul	edx, eax
	mov	eax, edx
	xor	eax, -2
	and	eax, edx
	sete	dl
	sete	byte ptr [rsp + 1]
	test	eax, eax
	mov	esi, -509641745
	mov	edi, -903518113
	mov	eax, -903518113
	cmove	eax, esi
	cmp	ecx, 10
	setl	cl
	setl	byte ptr [rsp + 24]
	cmovge	eax, edi
	xor	cl, dl
	cmovne	eax, esi
	mov	edx, 1511383347
	mov	esi, 858164122
	jmp	.LBB19_1
.LBB19_13:                              
	mov	qword ptr [rsp + 16], 0
	mov	edx, eax
	.p2align	4, 0x90
.LBB19_1:                               
	cmp	edx, 858164121
	jg	.LBB19_10

	cmp	edx, -903518113
	je	.LBB19_14

	cmp	edx, -509641745
	jne	.LBB19_1
	jmp	.LBB19_4
	.p2align	4, 0x90
.LBB19_10:                              
	cmp	edx, 858164122
	je	.LBB19_13

	cmp	edx, 1511383347
	jne	.LBB19_1

	movzx	ecx, byte ptr [rsp + 1]
	movzx	edx, byte ptr [rsp + 24]
	mov	ebx, ecx
	xor	bl, dl
	mov	edi, -903518113
	cmovne	edi, esi
	test	dl, dl
	mov	edx, edi
	cmovne	edx, esi
	test	cl, cl
	cmove	edx, edi
	jmp	.LBB19_1
.LBB19_14:                              
	mov	qword ptr [rsp + 16], 0
	mov	edx, 858164122
	jmp	.LBB19_1
.LBB19_4:
	lea	rax, [rsp + 4]
	mov	qword ptr [rsp + 64], rax
	mov	rax, qword ptr [rsp + 64]
	lea	r14, [rsp + 8]
	mov	qword ptr [rsp + 72], r14
	mov	rax, qword ptr [rsp + 72]
	mov	r12, qword ptr [r13]
	mov	eax, 1104123374
	mov	r15d, -348105442
	jmp	.LBB19_5
.LBB19_49:                              
	cmovge	eax, esi
	xor	dl, cl
	cmovne	eax, edi
	.p2align	4, 0x90
.LBB19_5:                               










	cmp	eax, -320869768
	jle	.LBB19_6

	cmp	eax, 850519875
	jle	.LBB19_20

	cmp	eax, 850519876
	je	.LBB19_93

	cmp	eax, 981627812
	je	.LBB19_94

	cmp	eax, 1104123374
	jne	.LBB19_5

	mov	qword ptr [r14], r12
	mov	r8, qword ptr [r13]
	mov	ecx, dword ptr [rip + x.274]
	mov	edx, dword ptr [rip + y.275]
	lea	esi, [rcx - 1]
	imul	esi, ecx
	not	esi
	or	esi, -2
	cmp	esi, -1
	sete	byte ptr [rsp + 2]
	sete	bl
	mov	ecx, -1511853027
	mov	eax, -901066291
	cmove	ecx, eax
	cmp	edx, 10
	setl	dl
	setl	byte ptr [rsp + 1]
	mov	esi, -1511853027
	cmovge	ecx, esi
	xor	dl, bl
	cmovne	ecx, eax
	mov	rbp, qword ptr [r13 + 8]
	mov	esi, 1978003098
	jmp	.LBB19_29
	.p2align	4, 0x90
.LBB19_6:                               
	cmp	eax, -1859661680
	jle	.LBB19_7

	cmp	eax, -1859661679
	je	.LBB19_69

	cmp	eax, -889884389
	je	.LBB19_50

	cmp	eax, -550062035
	jne	.LBB19_5

	mov	eax, 850519876
	jmp	.LBB19_5
	.p2align	4, 0x90
.LBB19_20:                              
	cmp	eax, 151109084
	je	.LBB19_48

	cmp	eax, 757597558
	je	.LBB19_113

	cmp	eax, -320869767
	jne	.LBB19_5
	jmp	.LBB19_23
	.p2align	4, 0x90
.LBB19_7:                               
	cmp	eax, -2047139310
	je	.LBB19_70

	cmp	eax, -1975671917
	jne	.LBB19_5

	mov	eax, dword ptr [rip + x.130]
	lea	ecx, [rax - 1]
	imul	ecx, eax
	mov	eax, ecx
	xor	eax, -2
	and	eax, ecx
	sete	cl
	test	eax, eax
	mov	eax, 757597558
	mov	edi, -2047139310
	cmove	eax, edi
	cmp	dword ptr [rip + y.131], 10
	setl	dl
	mov	esi, 757597558
	jmp	.LBB19_49
.LBB19_40:                              
	mov	qword ptr [rsp + 24], rbp
	mov	esi, ecx
	.p2align	4, 0x90
.LBB19_29:                              

	cmp	esi, 1978003097
	jg	.LBB19_37

	cmp	esi, -1511853027
	je	.LBB19_41

	cmp	esi, -901066291
	jne	.LBB19_29
	jmp	.LBB19_32
	.p2align	4, 0x90
.LBB19_37:                              
	cmp	esi, 2092656913
	je	.LBB19_40

	cmp	esi, 1978003098
	jne	.LBB19_29

	movzx	edx, byte ptr [rsp + 2]
	movzx	eax, byte ptr [rsp + 1]
	mov	ebx, edx
	xor	bl, al
	test	al, al
	mov	esi, -1511853027
	mov	edi, 2092656913
	cmovne	esi, edi
	test	dl, dl
	mov	eax, -1511853027
	cmove	esi, eax
	test	bl, bl
	cmovne	esi, edi
	jmp	.LBB19_29
.LBB19_41:                              
	mov	esi, 2092656913
	jmp	.LBB19_29
.LBB19_48:                              
	mov	eax, dword ptr [rip + x.130]
	lea	ecx, [rax - 1]
	imul	ecx, eax
	mov	eax, ecx
	xor	eax, -2
	and	eax, ecx
	sete	cl
	test	eax, eax
	mov	eax, 981627812
	mov	edi, -889884389
	cmove	eax, edi
	cmp	dword ptr [rip + y.131], 10
	setl	dl
	mov	esi, 981627812
	jmp	.LBB19_49
.LBB19_32:                              
	mov	rax, qword ptr [rsp + 24]
	mov	ecx, dword ptr [rip + x.86]
	mov	edx, dword ptr [rip + y.87]
	lea	esi, [rcx - 1]
	imul	esi, ecx
	not	esi
	or	esi, -2
	cmp	esi, -1
	sete	cl
	cmp	edx, 10
	setl	bl
	setl	byte ptr [rsp + 1]
	xor	bl, cl
	mov	ecx, -369009728
	mov	ebx, 1534441363
	cmovne	ecx, ebx
	cmp	esi, -1
	sete	byte ptr [rsp + 2]
	mov	ebp, ecx
	cmove	ebp, ebx
	cmp	edx, 10
	cmovge	ebp, ecx
	add	r8, rax
	mov	rdx, qword ptr [rsp + 8]
	mov	esi, 2143172987
	jmp	.LBB19_33
.LBB19_45:                              
	cmp	rdx, r8
	setb	byte ptr [rsp + 24]
	mov	esi, ebp
	.p2align	4, 0x90
.LBB19_33:                              

	cmp	esi, 1534441362
	jg	.LBB19_42

	cmp	esi, -1921148854
	je	.LBB19_45

	cmp	esi, -369009728
	jne	.LBB19_33

	mov	esi, -1921148854
	jmp	.LBB19_33
	.p2align	4, 0x90
.LBB19_42:                              
	cmp	esi, 1534441363
	je	.LBB19_46

	cmp	esi, 2143172987
	jne	.LBB19_33

	movzx	ebx, byte ptr [rsp + 2]
	movzx	ecx, byte ptr [rsp + 1]
	mov	eax, ebx
	xor	al, cl
	mov	eax, -369009728
	mov	edi, -1921148854
	cmovne	eax, edi
	test	cl, cl
	mov	esi, eax
	cmovne	esi, edi
	test	bl, bl
	cmove	esi, eax
	jmp	.LBB19_33
.LBB19_46:                              
	mov	al, byte ptr [rsp + 24]
	test	al, al
	mov	eax, -320869767
	mov	ecx, 151109084
	cmovne	eax, ecx
	jmp	.LBB19_5
.LBB19_113:                             
	mov	edi, _ZN3DES18parityBitDropTableE
	mov	esi, _ZN3DES18parityBitDropTableE+224
	lea	rdx, [rsp + 4]
	call	_ZSt4findIPKiiET_S2_S2_RKT0_
	mov	ecx, dword ptr [rip + x.92]
	mov	edx, dword ptr [rip + y.93]
	lea	esi, [rcx - 1]
	imul	esi, ecx
	mov	ecx, esi
	xor	ecx, -2
	and	ecx, esi
	sete	byte ptr [rsp + 2]
	sete	bl
	movabs	rsi, -5897801762304502253
	sub	rax, rsi
	mov	edi, _ZN3DES18parityBitDropTableE
	sub	rax, rdi
	add	rax, rsi
	sar	rax, 2
	test	ecx, ecx
	mov	ecx, 911041906
	mov	esi, 2101938195
	cmove	ecx, esi
	cmp	edx, 10
	setl	dl
	setl	byte ptr [rsp + 1]
	mov	edi, 911041906
	cmovge	ecx, edi
	xor	dl, bl
	cmovne	ecx, esi
	mov	edx, -1486924524
	jmp	.LBB19_114
.LBB19_124:                             
	movzx	esi, byte ptr [rsp + 2]
	movzx	edx, byte ptr [rsp + 1]
	mov	ebx, esi
	xor	bl, dl
	mov	edi, 911041906
	mov	ebp, 197475238
	cmovne	edi, ebp
	test	dl, dl
	mov	edx, edi
	cmovne	edx, ebp
	test	sil, sil
	cmove	edx, edi
	.p2align	4, 0x90
.LBB19_114:                             

	cmp	edx, 911041905
	jle	.LBB19_115

	cmp	edx, 911041906
	je	.LBB19_125

	cmp	edx, 2101938195
	jne	.LBB19_114
	jmp	.LBB19_120
	.p2align	4, 0x90
.LBB19_115:                             
	cmp	edx, -1486924524
	je	.LBB19_124

	cmp	edx, 197475238
	jne	.LBB19_114

	mov	qword ptr [rsp + 24], rax
	mov	edx, ecx
	jmp	.LBB19_114
.LBB19_125:                             
	mov	edx, 197475238
	jmp	.LBB19_114
.LBB19_70:                              
	mov	edi, _ZN3DES18parityBitDropTableE
	mov	esi, _ZN3DES18parityBitDropTableE+224
	lea	rdx, [rsp + 4]
	call	_ZSt4findIPKiiET_S2_S2_RKT0_
	mov	ecx, dword ptr [rip + x.92]
	mov	edi, dword ptr [rip + y.93]
	mov	esi, ecx
	neg	esi
	not	esi
	imul	esi, ecx
	mov	ecx, esi
	xor	ecx, -2
	and	ecx, esi
	sete	bl
	sete	byte ptr [rsp + 2]
	cmp	edi, 10
	setl	dl
	xor	dl, bl
	mov	edx, 911041906
	mov	ebp, 2101938195
	cmovne	edx, ebp
	test	ecx, ecx
	mov	esi, edx
	cmove	esi, ebp
	cmp	edi, 10
	setl	byte ptr [rsp + 1]
	cmovge	esi, edx
	movabs	rcx, 4465418262061059848
	add	rax, rcx
	mov	edx, _ZN3DES18parityBitDropTableE
	sub	rax, rdx
	sub	rax, rcx
	sar	rax, 2
	mov	edx, -1486924524
	jmp	.LBB19_71
.LBB19_81:                              
	movzx	ecx, byte ptr [rsp + 2]
	movzx	edx, byte ptr [rsp + 1]
	mov	ebx, ecx
	xor	bl, dl
	mov	edi, 911041906
	mov	ebp, 197475238
	cmovne	edi, ebp
	test	dl, dl
	mov	edx, edi
	cmovne	edx, ebp
	test	cl, cl
	cmove	edx, edi
	.p2align	4, 0x90
.LBB19_71:                              

	cmp	edx, 911041905
	jle	.LBB19_72

	cmp	edx, 911041906
	je	.LBB19_82

	cmp	edx, 2101938195
	jne	.LBB19_71
	jmp	.LBB19_77
	.p2align	4, 0x90
.LBB19_72:                              
	cmp	edx, -1486924524
	je	.LBB19_81

	cmp	edx, 197475238
	jne	.LBB19_71

	mov	qword ptr [rsp + 24], rax
	mov	edx, esi
	jmp	.LBB19_71
.LBB19_82:                              
	mov	edx, 197475238
	jmp	.LBB19_71
.LBB19_120:                             
	mov	rax, qword ptr [rsp + 24]
	mov	ecx, 55
	sub	ecx, eax
	movsxd	rbp, ecx
	cmp	rbp, 55
	mov	eax, -1530906768
	mov	ecx, 1616630659
	cmova	eax, ecx
	mov	ecx, dword ptr [rip + x.562]
	lea	edx, [rcx - 1]
	imul	edx, ecx
	mov	ecx, edx
	xor	ecx, -2
	test	ecx, edx
	sete	cl
	cmp	dword ptr [rip + y.563], 10
	setl	dl
	mov	ebx, edx
	and	bl, cl
	xor	dl, cl
	or	dl, bl
	mov	ecx, 270800520
	mov	edx, 1164835474
	cmovne	ecx, edx
	mov	edx, 270800520
	mov	esi, -184518529
	cmovne	edx, esi
	mov	esi, 551744787
	jmp	.LBB19_121
.LBB19_77:                              
	mov	rax, qword ptr [rsp + 24]
	movabs	rcx, 807516621312970427
	mov	rdx, rcx
	lea	ecx, [rdx + 55]
	sub	ecx, eax
	sub	ecx, edx
	movsxd	rbp, ecx
	cmp	rbp, 55
	mov	eax, -1530906768
	mov	ecx, 1616630659
	cmova	eax, ecx
	mov	ecx, dword ptr [rip + x.562]
	lea	edx, [rcx - 1]
	imul	edx, ecx
	not	edx
	or	edx, -2
	cmp	edx, -1
	setne	cl
	cmp	dword ptr [rip + y.563], 9
	setg	dl
	mov	ebx, edx
	xor	bl, cl
	or	dl, cl
	xor	dl, 1
	or	dl, bl
	mov	ecx, 270800520
	mov	edx, 1164835474
	cmovne	ecx, edx
	mov	edx, 270800520
	mov	esi, -184518529
	cmovne	edx, esi
	mov	esi, 551744787
	jmp	.LBB19_78
.LBB19_93:                              
	mov	r12, qword ptr [rsp + 8]
	lea	rax, [r12 + 1]
	mov	qword ptr [rsp + 8], rax
	mov	r14, qword ptr [rsp + 88]
	mov	eax, 1104123374
	jmp	.LBB19_5
.LBB19_94:                              
	mov	r8, qword ptr [r13]
	mov	rbp, qword ptr [rsp + 8]
	mov	edx, dword ptr [rip + x.214]
	mov	esi, dword ptr [rip + y.215]
	mov	edi, edx
	neg	edi
	not	edi
	imul	edi, edx
	not	edi
	or	edi, -2
	cmp	edi, -1
	sete	bl
	sete	byte ptr [rsp + 1]
	mov	edx, -594789007
	mov	eax, 1557069072
	cmove	edx, eax
	cmp	esi, 10
	setl	cl
	setl	byte ptr [rsp + 24]
	mov	esi, -594789007
	cmovge	edx, esi
	xor	cl, bl
	cmovne	edx, eax
	mov	esi, 680917234
	jmp	.LBB19_95
.LBB19_69:                              
	mov	al, byte ptr [rsp + 3]
	test	al, al
	mov	eax, 850519876
	mov	ecx, -1975671917
	cmovne	eax, ecx
	jmp	.LBB19_5
.LBB19_50:                              
	mov	rbp, qword ptr [r13]
	mov	r8, qword ptr [rsp + 8]
	mov	edx, dword ptr [rip + x.214]
	mov	esi, dword ptr [rip + y.215]
	lea	edi, [rdx - 1]
	imul	edi, edx
	mov	edx, edi
	xor	edx, -2
	and	edx, edi
	sete	bl
	sete	byte ptr [rsp + 1]
	cmp	esi, 10
	setl	cl
	xor	cl, bl
	mov	ecx, -594789007
	mov	eax, 1557069072
	cmovne	ecx, eax
	test	edx, edx
	mov	edx, ecx
	cmove	edx, eax
	cmp	esi, 10
	setl	byte ptr [rsp + 24]
	cmovge	edx, ecx
	mov	esi, 680917234
	jmp	.LBB19_51
.LBB19_102:                             
	mov	esi, -348105442
	.p2align	4, 0x90
.LBB19_95:                              

	cmp	esi, 680917233
	jg	.LBB19_99

	cmp	esi, -594789007
	je	.LBB19_102

	cmp	esi, -348105442
	jne	.LBB19_95

	mov	esi, edx
	jmp	.LBB19_95
	.p2align	4, 0x90
.LBB19_99:                              
	cmp	esi, 1557069072
	je	.LBB19_103

	cmp	esi, 680917234
	jne	.LBB19_95

	movzx	eax, byte ptr [rsp + 1]
	movzx	ebx, byte ptr [rsp + 24]
	mov	ecx, eax
	xor	cl, bl
	test	bl, bl
	mov	esi, -594789007
	cmovne	esi, r15d
	test	al, al
	mov	eax, -594789007
	cmove	esi, eax
	test	cl, cl
	cmovne	esi, r15d
	jmp	.LBB19_95
.LBB19_58:                              
	mov	esi, -348105442
	.p2align	4, 0x90
.LBB19_51:                              

	cmp	esi, 680917233
	jg	.LBB19_55

	cmp	esi, -594789007
	je	.LBB19_58

	cmp	esi, -348105442
	jne	.LBB19_51

	mov	esi, edx
	jmp	.LBB19_51
	.p2align	4, 0x90
.LBB19_55:                              
	cmp	esi, 1557069072
	je	.LBB19_59

	cmp	esi, 680917234
	jne	.LBB19_51

	movzx	eax, byte ptr [rsp + 1]
	movzx	ebx, byte ptr [rsp + 24]
	mov	ecx, eax
	xor	cl, bl
	mov	ecx, -594789007
	cmovne	ecx, r15d
	test	bl, bl
	mov	esi, ecx
	cmovne	esi, r15d
	test	al, al
	cmove	esi, ecx
	jmp	.LBB19_51
.LBB19_103:                             
	mov	eax, dword ptr [rip + x.216]
	mov	edx, dword ptr [rip + y.217]
	lea	ecx, [rax - 1]
	imul	ecx, eax
	mov	eax, ecx
	xor	eax, -2
	and	eax, ecx
	sete	bl
	sete	byte ptr [rsp + 2]
	movabs	rcx, 423369919419089927
	sub	rbp, rcx
	sub	rbp, r8
	add	rbp, rcx
	test	eax, eax
	mov	ecx, -385256741
	mov	esi, -1905940984
	cmove	ecx, esi
	cmp	edx, 10
	setl	al
	setl	byte ptr [rsp + 1]
	mov	edx, -385256741
	cmovge	ecx, edx
	xor	al, bl
	cmovne	ecx, esi
	mov	edx, -1736172681
	jmp	.LBB19_104
.LBB19_59:                              
	mov	eax, dword ptr [rip + x.216]
	mov	ecx, dword ptr [rip + y.217]
	lea	esi, [rax - 1]
	imul	esi, eax
	not	esi
	or	esi, -2
	mov	rdi, r8
	sub	rdi, rbp
	cmp	esi, -1
	sete	bl
	sete	byte ptr [rsp + 2]
	mov	eax, -385256741
	mov	edx, -1905940984
	cmove	eax, edx
	cmp	ecx, 10
	setl	cl
	setl	byte ptr [rsp + 1]
	mov	esi, -385256741
	cmovge	eax, esi
	xor	cl, bl
	cmovne	eax, edx
	mov	esi, -1736172681
	jmp	.LBB19_60
.LBB19_111:                             
	mov	edx, 2057159485
	.p2align	4, 0x90
.LBB19_104:                             

	cmp	edx, -385256742
	jg	.LBB19_108

	cmp	edx, -1905940984
	je	.LBB19_112

	cmp	edx, -1736172681
	jne	.LBB19_104

	movzx	ebx, byte ptr [rsp + 2]
	movzx	edx, byte ptr [rsp + 1]
	mov	eax, ebx
	xor	al, dl
	mov	eax, -385256741
	mov	esi, 2057159485
	cmovne	eax, esi
	test	dl, dl
	mov	edx, eax
	cmovne	edx, esi
	test	bl, bl
	cmove	edx, eax
	jmp	.LBB19_104
	.p2align	4, 0x90
.LBB19_108:                             
	cmp	edx, -385256741
	je	.LBB19_111

	cmp	edx, 2057159485
	jne	.LBB19_104

	mov	qword ptr [rsp + 24], rbp
	mov	edx, ecx
	jmp	.LBB19_104
.LBB19_67:                              
	mov	esi, 2057159485
	.p2align	4, 0x90
.LBB19_60:                              

	cmp	esi, -385256742
	jg	.LBB19_64

	cmp	esi, -1905940984
	je	.LBB19_68

	cmp	esi, -1736172681
	jne	.LBB19_60

	movzx	edx, byte ptr [rsp + 2]
	movzx	ebx, byte ptr [rsp + 1]
	mov	ecx, edx
	xor	cl, bl
	mov	ecx, -385256741
	mov	ebp, 2057159485
	cmovne	ecx, ebp
	test	bl, bl
	mov	esi, ecx
	cmovne	esi, ebp
	test	dl, dl
	cmove	esi, ecx
	jmp	.LBB19_60
	.p2align	4, 0x90
.LBB19_64:                              
	cmp	esi, -385256741
	je	.LBB19_67

	cmp	esi, 2057159485
	jne	.LBB19_60

	mov	qword ptr [rsp + 24], rdi
	mov	esi, eax
	jmp	.LBB19_60
.LBB19_112:                             
	mov	rax, qword ptr [rsp + 24]
	inc	eax
	mov	dword ptr [rsp + 4], eax
	mov	eax, -889884389
	jmp	.LBB19_5
.LBB19_68:                              
	mov	rdx, qword ptr [rsp + 24]
	mov	eax, dword ptr [rip + x.130]
	mov	edi, dword ptr [rip + y.131]
	lea	esi, [rax - 1]
	imul	esi, eax
	mov	eax, esi
	xor	eax, -2
	and	eax, esi
	sete	bl
	cmp	edi, 10
	setl	cl
	xor	cl, bl
	mov	ecx, 981627812
	mov	esi, -1859661679
	cmovne	ecx, esi
	test	eax, eax
	mov	eax, ecx
	cmove	eax, esi
	cmp	edi, 10
	cmovge	eax, ecx
	inc	edx
	mov	dword ptr [rsp + 4], edx
	cmp	byte ptr [r8], 49
	setne	cl
	cmp	edx, 8
	sete	bl
	or	bl, cl
	mov	ecx, edx
	and	ecx, 8
	mov	esi, edx
	xor	esi, 8
	or	esi, ecx
	cmp	esi, 24
	setne	cl
	xor	bl, cl
	and	bl, cl
	mov	ecx, edx
	and	ecx, 24
	mov	esi, edx
	xor	esi, 24
	or	esi, ecx
	cmp	esi, 56
	setne	cl
	xor	bl, cl
	not	bl
	and	bl, cl
	cmp	edx, 64
	not	bl
	sete	cl
	or	cl, bl
	not	cl
	mov	byte ptr [rsp + 3], cl
	jmp	.LBB19_5
.LBB19_130:                             
	mov	esi, eax
	.p2align	4, 0x90
.LBB19_121:                             

	cmp	esi, 551744786
	jg	.LBB19_129

	cmp	esi, -1530906768
	je	.LBB19_123

	cmp	esi, -184518529
	je	.LBB19_134

	cmp	esi, 270800520
	jne	.LBB19_121

	mov	esi, 1164835474
	jmp	.LBB19_121
	.p2align	4, 0x90
.LBB19_129:                             
	cmp	esi, 551744787
	je	.LBB19_130

	cmp	esi, 1164835474
	jne	.LBB19_133

	mov	esi, edx
	jmp	.LBB19_121
.LBB19_123:                             
	mov	esi, ecx
	jmp	.LBB19_121
.LBB19_133:                             
	cmp	esi, 1616630659
	jne	.LBB19_121
	jmp	.LBB19_91
.LBB19_87:                              
	mov	esi, eax
	.p2align	4, 0x90
.LBB19_78:                              

	cmp	esi, 551744786
	jg	.LBB19_86

	cmp	esi, -1530906768
	je	.LBB19_80

	cmp	esi, -184518529
	je	.LBB19_92

	cmp	esi, 270800520
	jne	.LBB19_78

	mov	esi, 1164835474
	jmp	.LBB19_78
	.p2align	4, 0x90
.LBB19_86:                              
	cmp	esi, 551744787
	je	.LBB19_87

	cmp	esi, 1164835474
	jne	.LBB19_90

	mov	esi, edx
	jmp	.LBB19_78
.LBB19_80:                              
	mov	esi, ecx
	jmp	.LBB19_78
.LBB19_90:                              
	cmp	esi, 1616630659
	jne	.LBB19_78
	jmp	.LBB19_91
.LBB19_134:                             
	mov	edx, 1
	lea	rdi, [rsp + 16]
	mov	rsi, rbp
	call	_ZNSt6bitsetILm56EE14_Unchecked_setEmi
	mov	eax, -2047139310
	jmp	.LBB19_5
.LBB19_92:                              
	mov	edx, 1
	lea	rdi, [rsp + 16]
	mov	rsi, rbp
	call	_ZNSt6bitsetILm56EE14_Unchecked_setEmi
	mov	eax, dword ptr [rip + x.130]
	mov	ecx, dword ptr [rip + y.131]
	lea	edx, [rax - 1]
	imul	edx, eax
	not	edx
	or	edx, -2
	cmp	edx, -1
	sete	al
	cmp	ecx, 10
	setl	bl
	xor	bl, al
	mov	esi, 757597558
	mov	edi, -550062035
	cmovne	esi, edi
	cmp	edx, -1
	mov	eax, esi
	cmove	eax, edi
	cmp	ecx, 10
	cmovge	eax, esi
	jmp	.LBB19_5
.LBB19_23:
	mov	rax, qword ptr [rsp + 72]
	lea	rbx, [rsp + 24]
	mov	rdi, rbx
	call	_ZNSt7__cxx1112basic_stringIcSt11char_traitsIcESaIcEEC2Ev
.Ltmp164:
	lea	rdi, [rsp + 16]
	mov	edx, 48
	mov	ecx, 49
	mov	rsi, rbx
	call	_ZNKSt6bitsetILm56EE17_M_copy_to_stringIcSt11char_traitsIcESaIcEEEvRNSt7__cxx1112basic_stringIT_T0_T1_EES7_S7_
.Ltmp165:

	mov	rdi, qword ptr [rsp + 80] 
	add	rdi, 232
	lea	rbx, [rsp + 24]
	mov	rsi, rbx
	call	_ZNSt7__cxx1112basic_stringIcSt11char_traitsIcESaIcEEaSEOS4_
	mov	rdi, rbx
	call	_ZNSt7__cxx1112basic_stringIcSt11char_traitsIcESaIcEED2Ev
	mov	rax, qword ptr [rsp + 64]
	mov	rax, qword ptr [rsp + 56]
	add	rsp, 104
	pop	rbx
	pop	r12
	pop	r13
	pop	r14
	pop	r15
	pop	rbp
	ret
.LBB19_91:
	mov	edi, .L.str.49
	mov	esi, .L.str.48
	mov	ecx, 56
	xor	eax, eax
	mov	rdx, rbp
	call	_ZSt24__throw_out_of_range_fmtPKcz
.LBB19_47:
.Ltmp166:
	mov	rbx, rax
	lea	rdi, [rsp + 24]
	call	_ZNSt7__cxx1112basic_stringIcSt11char_traitsIcESaIcEED2Ev
	mov	rdi, rbx
	call	_Unwind_Resume
.Lfunc_end19:
	.size	_ZN3DES15parityDropPermuERKNSt7__cxx1112basic_stringIcSt11char_traitsIcESaIcEEE, .Lfunc_end19-_ZN3DES15parityDropPermuERKNSt7__cxx1112basic_stringIcSt11char_traitsIcESaIcEEE
	.cfi_endproc
	.section	.gcc_except_table,"a",@progbits
	.p2align	2
GCC_except_table19:
.Lexception10:
	.byte	255                     
	.byte	3                       
	.byte	41                      
	.byte	3                       
	.byte	39                      
	.long	.Lfunc_begin10-.Lfunc_begin10 
	.long	.Ltmp164-.Lfunc_begin10 
	.long	0                       
	.byte	0                       
	.long	.Ltmp164-.Lfunc_begin10 
	.long	.Ltmp165-.Ltmp164       
	.long	.Ltmp166-.Lfunc_begin10 
	.byte	0                       
	.long	.Ltmp165-.Lfunc_begin10 
	.long	.Lfunc_end19-.Ltmp165   
	.long	0                       
	.byte	0                       
	.p2align	2

	.section	.text._ZNKSt7__cxx1112basic_stringIcSt11char_traitsIcESaIcEE6substrEmm,"axG",@progbits,_ZNKSt7__cxx1112basic_stringIcSt11char_traitsIcESaIcEE6substrEmm,comdat
	.weak	_ZNKSt7__cxx1112basic_stringIcSt11char_traitsIcESaIcEE6substrEmm 
	.p2align	4, 0x90
	.type	_ZNKSt7__cxx1112basic_stringIcSt11char_traitsIcESaIcEE6substrEmm,@function
_ZNKSt7__cxx1112basic_stringIcSt11char_traitsIcESaIcEE6substrEmm: 
	.cfi_startproc

	push	rbp
.Lcfi149:
	.cfi_def_cfa_offset 16
	push	r15
.Lcfi150:
	.cfi_def_cfa_offset 24
	push	r14
.Lcfi151:
	.cfi_def_cfa_offset 32
	push	r13
.Lcfi152:
	.cfi_def_cfa_offset 40
	push	r12
.Lcfi153:
	.cfi_def_cfa_offset 48
	push	rbx
.Lcfi154:
	.cfi_def_cfa_offset 56
	push	rax
.Lcfi155:
	.cfi_def_cfa_offset 64
.Lcfi156:
	.cfi_offset rbx, -56
.Lcfi157:
	.cfi_offset r12, -48
.Lcfi158:
	.cfi_offset r13, -40
.Lcfi159:
	.cfi_offset r14, -32
.Lcfi160:
	.cfi_offset r15, -24
.Lcfi161:
	.cfi_offset rbp, -16
	mov	eax, dword ptr [rip + x.132]
	lea	ebp, [rax - 1]
	imul	ebp, eax
	not	ebp
	or	ebp, -2
	cmp	ebp, -1
	sete	byte ptr [rsp + 6]
	mov	eax, dword ptr [rip + y.133]
	cmp	eax, 10
	setl	byte ptr [rsp + 7]
	mov	r14, rcx
	mov	r15, rdx
	mov	r13, rsi
	mov	r12, rdi
	mov	eax, 472111977
	mov	ebp, -786927364
	jmp	.LBB20_1
.LBB20_7:                               
	movzx	ecx, byte ptr [rsp + 6]
	movzx	eax, byte ptr [rsp + 7]
	mov	edx, ecx
	xor	dl, al
	mov	edx, 777729469
	cmovne	edx, ebp
	test	al, al
	mov	eax, edx
	cmovne	eax, ebp
	test	cl, cl
	cmove	eax, edx
	.p2align	4, 0x90
.LBB20_1:                               
	cmp	eax, 472111976
	jg	.LBB20_5

	cmp	eax, -786927364
	je	.LBB20_8

	cmp	eax, -239463718
	jne	.LBB20_1
	jmp	.LBB20_4
	.p2align	4, 0x90
.LBB20_5:                               
	cmp	eax, 777729469
	je	.LBB20_9

	cmp	eax, 472111977
	jne	.LBB20_1
	jmp	.LBB20_7
.LBB20_8:                               
	mov	edx, .L.str.50
	mov	rdi, r13
	mov	rsi, r15
	call	_ZNKSt7__cxx1112basic_stringIcSt11char_traitsIcESaIcEE8_M_checkEmPKc
	mov	rdi, r12
	mov	rsi, r13
	mov	rdx, rax
	mov	rcx, r14
	call	_ZNSt7__cxx1112basic_stringIcSt11char_traitsIcESaIcEEC2ERKS4_mm
	mov	eax, dword ptr [rip + x.132]
	mov	ecx, dword ptr [rip + y.133]
	lea	edx, [rax - 1]
	imul	edx, eax
	not	edx
	or	edx, -2
	cmp	edx, -1
	sete	al
	cmp	ecx, 10
	setl	bl
	xor	bl, al
	mov	esi, 777729469
	mov	edi, -239463718
	cmovne	esi, edi
	cmp	edx, -1
	mov	eax, esi
	cmove	eax, edi
	cmp	ecx, 10
	cmovge	eax, esi
	jmp	.LBB20_1
.LBB20_9:                               
	mov	edx, .L.str.50
	mov	rdi, r13
	mov	rsi, r15
	call	_ZNKSt7__cxx1112basic_stringIcSt11char_traitsIcESaIcEE8_M_checkEmPKc
	mov	rdi, r12
	mov	rsi, r13
	mov	rdx, rax
	mov	rcx, r14
	call	_ZNSt7__cxx1112basic_stringIcSt11char_traitsIcESaIcEEC2ERKS4_mm
	mov	eax, -786927364
	jmp	.LBB20_1
.LBB20_4:
	mov	rax, r12
	add	rsp, 8
	pop	rbx
	pop	r12
	pop	r13
	pop	r14
	pop	r15
	pop	rbp
	ret
.Lfunc_end20:
	.size	_ZNKSt7__cxx1112basic_stringIcSt11char_traitsIcESaIcEE6substrEmm, .Lfunc_end20-_ZNKSt7__cxx1112basic_stringIcSt11char_traitsIcESaIcEE6substrEmm
	.cfi_endproc

	.text
	.globl	_ZN3DES16compressionPermuERKNSt7__cxx1112basic_stringIcSt11char_traitsIcESaIcEEE 
	.p2align	4, 0x90
	.type	_ZN3DES16compressionPermuERKNSt7__cxx1112basic_stringIcSt11char_traitsIcESaIcEEE,@function
_ZN3DES16compressionPermuERKNSt7__cxx1112basic_stringIcSt11char_traitsIcESaIcEEE: 
	.cfi_startproc

	push	rbp
.Lcfi162:
	.cfi_def_cfa_offset 16
	push	r15
.Lcfi163:
	.cfi_def_cfa_offset 24
	push	r14
.Lcfi164:
	.cfi_def_cfa_offset 32
	push	r13
.Lcfi165:
	.cfi_def_cfa_offset 40
	push	r12
.Lcfi166:
	.cfi_def_cfa_offset 48
	push	rbx
.Lcfi167:
	.cfi_def_cfa_offset 56
	sub	rsp, 104
.Lcfi168:
	.cfi_def_cfa_offset 160
.Lcfi169:
	.cfi_offset rbx, -56
.Lcfi170:
	.cfi_offset r12, -48
.Lcfi171:
	.cfi_offset r13, -40
.Lcfi172:
	.cfi_offset r14, -32
.Lcfi173:
	.cfi_offset r15, -24
.Lcfi174:
	.cfi_offset rbp, -16
	mov	r13, rsi
	mov	qword ptr [rsp + 80], rdi 
	lea	rax, [rsp + 96]
	mov	qword ptr [rsp + 88], rax
	lea	rax, [rsp + 8]
	mov	qword ptr [rsp + 56], rax
	mov	rax, qword ptr [rsp + 56]
	mov	eax, dword ptr [rip + x.202]
	mov	edx, dword ptr [rip + y.203]
	mov	ecx, eax
	neg	ecx
	not	ecx
	imul	ecx, eax
	not	ecx
	or	ecx, -2
	cmp	ecx, -1
	sete	bl
	sete	byte ptr [rsp + 2]
	mov	esi, -509641745
	mov	edi, -903518113
	mov	ecx, -903518113
	cmove	ecx, esi
	cmp	edx, 10
	setl	dl
	setl	byte ptr [rsp + 24]
	cmovge	ecx, edi
	xor	dl, bl
	cmovne	ecx, esi
	mov	esi, 1511383347
	mov	ebp, 858164122
	jmp	.LBB21_1
.LBB21_12:                              
	movzx	edx, byte ptr [rsp + 2]
	movzx	eax, byte ptr [rsp + 24]
	mov	ebx, edx
	xor	bl, al
	test	al, al
	mov	esi, -903518113
	cmovne	esi, ebp
	test	dl, dl
	cmove	esi, edi
	test	bl, bl
	cmovne	esi, ebp
	.p2align	4, 0x90
.LBB21_1:                               
	cmp	esi, 858164121
	jg	.LBB21_10

	cmp	esi, -903518113
	je	.LBB21_14

	cmp	esi, -509641745
	jne	.LBB21_1
	jmp	.LBB21_4
	.p2align	4, 0x90
.LBB21_10:                              
	cmp	esi, 858164122
	je	.LBB21_13

	cmp	esi, 1511383347
	jne	.LBB21_1
	jmp	.LBB21_12
.LBB21_14:                              
	mov	qword ptr [rsp + 8], 0
	mov	esi, 858164122
	jmp	.LBB21_1
.LBB21_13:                              
	mov	qword ptr [rsp + 8], 0
	mov	esi, ecx
	jmp	.LBB21_1
.LBB21_4:
	lea	rax, [rsp + 4]
	mov	qword ptr [rsp + 64], rax
	mov	rax, qword ptr [rsp + 64]
	lea	r14, [rsp + 16]
	mov	qword ptr [rsp + 72], r14
	mov	rax, qword ptr [rsp + 72]
	mov	r12, qword ptr [r13]
	mov	eax, 1538055022
	mov	r15d, 850368449
	jmp	.LBB21_5
.LBB21_64:                              
	mov	rcx, qword ptr [rsp + 24]
	inc	ecx
	mov	dword ptr [rsp + 4], ecx
	cmp	byte ptr [r8], 49
	setne	al
	cmp	ecx, 9
	sete	dl
	or	dl, al
	mov	eax, ecx
	and	eax, 4
	mov	esi, ecx
	xor	esi, 4
	or	esi, eax
	cmp	esi, 22
	sete	al
	cmp	ecx, 25
	sete	bl
	or	bl, dl
	or	bl, al
	cmp	ecx, 35
	sete	dl
	or	dl, bl
	cmp	ecx, 38
	setne	bl
	mov	eax, 1598516169
	mov	esi, -1629075364
	cmovne	eax, esi
	xor	bl, dl
	mov	edx, 1598516169
	cmove	eax, edx
	cmp	ecx, 43
	cmove	eax, edx
	cmp	ecx, 54
	cmove	eax, edx
	.p2align	4, 0x90
.LBB21_5:                               










	cmp	eax, 284892782
	jle	.LBB21_6

	cmp	eax, 1538055021
	jg	.LBB21_30

	cmp	eax, 284892783
	je	.LBB21_66

	cmp	eax, 667198130
	jne	.LBB21_5

	mov	edi, _ZN3DES19keyCompressionTableE
	call	_ZNKSt5arrayIiLm48EE5beginEv
	mov	rbp, rax
	mov	edi, _ZN3DES19keyCompressionTableE
	call	_ZNKSt5arrayIiLm48EE5beginEv
	mov	ecx, dword ptr [rip + x.236]
	mov	edx, dword ptr [rip + y.237]
	lea	esi, [rcx - 1]
	imul	esi, ecx
	not	esi
	or	esi, -2
	cmp	esi, -1
	sete	cl
	cmp	edx, 10
	setl	bl
	xor	bl, cl
	mov	edi, -660578646
	mov	ecx, 1068859436
	cmovne	edi, ecx
	cmp	esi, -1
	sete	byte ptr [rsp + 3]
	mov	esi, edi
	cmove	esi, ecx
	cmp	edx, 10
	setl	byte ptr [rsp + 2]
	cmovge	esi, edi
	mov	edx, 1233104079
	jmp	.LBB21_26
	.p2align	4, 0x90
.LBB21_6:                               
	cmp	eax, -363462927
	jle	.LBB21_7

	cmp	eax, -363462926
	je	.LBB21_95

	cmp	eax, 126964063
	jne	.LBB21_5

	mov	rbp, qword ptr [r13]
	mov	r8, qword ptr [rsp + 16]
	mov	edx, dword ptr [rip + x.214]
	mov	esi, dword ptr [rip + y.215]
	lea	edi, [rdx - 1]
	imul	edi, edx
	not	edi
	or	edi, -2
	cmp	edi, -1
	sete	bl
	sete	byte ptr [rsp + 2]
	mov	edx, -594789007
	mov	ecx, 1557069072
	cmove	edx, ecx
	cmp	esi, 10
	setl	al
	setl	byte ptr [rsp + 24]
	mov	esi, -594789007
	cmovge	edx, esi
	xor	al, bl
	cmovne	edx, ecx
	mov	esi, 680917234
	jmp	.LBB21_18
	.p2align	4, 0x90
.LBB21_30:                              
	cmp	eax, 1598516169
	je	.LBB21_96

	cmp	eax, 1538055022
	jne	.LBB21_5

	mov	qword ptr [r14], r12
	mov	r8, qword ptr [r13]
	mov	ecx, dword ptr [rip + x.274]
	mov	edx, dword ptr [rip + y.275]
	lea	esi, [rcx - 1]
	imul	esi, ecx
	not	esi
	or	esi, -2
	cmp	esi, -1
	sete	cl
	cmp	edx, 10
	setl	bl
	xor	bl, cl
	mov	edi, -1511853027
	mov	eax, -901066291
	cmovne	edi, eax
	cmp	esi, -1
	sete	byte ptr [rsp + 3]
	mov	ecx, edi
	cmove	ecx, eax
	cmp	edx, 10
	setl	byte ptr [rsp + 2]
	cmovge	ecx, edi
	mov	rdi, qword ptr [r13 + 8]
	mov	esi, 1978003098
	jmp	.LBB21_33
	.p2align	4, 0x90
.LBB21_7:                               
	cmp	eax, -1629075364
	je	.LBB21_65

	cmp	eax, -1624749015
	jne	.LBB21_5
	jmp	.LBB21_9
.LBB21_44:                              
	mov	qword ptr [rsp + 24], rdi
	mov	esi, ecx
	.p2align	4, 0x90
.LBB21_33:                              

	cmp	esi, 1978003097
	jg	.LBB21_41

	cmp	esi, -1511853027
	je	.LBB21_45

	cmp	esi, -901066291
	jne	.LBB21_33
	jmp	.LBB21_36
	.p2align	4, 0x90
.LBB21_41:                              
	cmp	esi, 2092656913
	je	.LBB21_44

	cmp	esi, 1978003098
	jne	.LBB21_33

	movzx	edx, byte ptr [rsp + 3]
	movzx	eax, byte ptr [rsp + 2]
	mov	ebx, edx
	xor	bl, al
	test	al, al
	mov	esi, -1511853027
	mov	ebp, 2092656913
	cmovne	esi, ebp
	test	dl, dl
	mov	eax, -1511853027
	cmove	esi, eax
	test	bl, bl
	cmovne	esi, ebp
	jmp	.LBB21_33
.LBB21_45:                              
	mov	esi, 2092656913
	jmp	.LBB21_33
.LBB21_100:                             
	mov	edx, 850368449
	.p2align	4, 0x90
.LBB21_26:                              

	cmp	edx, 1068859435
	jg	.LBB21_97

	cmp	edx, -660578646
	je	.LBB21_100

	cmp	edx, 850368449
	jne	.LBB21_26

	mov	qword ptr [rsp + 24], _ZN3DES19keyCompressionTableE
	mov	edx, esi
	jmp	.LBB21_26
	.p2align	4, 0x90
.LBB21_97:                              
	cmp	edx, 1068859436
	je	.LBB21_101

	cmp	edx, 1233104079
	jne	.LBB21_26

	movzx	ecx, byte ptr [rsp + 3]
	movzx	edx, byte ptr [rsp + 2]
	mov	ebx, ecx
	xor	bl, dl
	test	dl, dl
	mov	edx, -660578646
	cmovne	edx, r15d
	test	cl, cl
	mov	ecx, -660578646
	cmove	edx, ecx
	test	bl, bl
	cmovne	edx, r15d
	jmp	.LBB21_26
.LBB21_54:                              
	mov	esi, -348105442
	.p2align	4, 0x90
.LBB21_18:                              

	cmp	esi, 680917233
	jg	.LBB21_51

	cmp	esi, -594789007
	je	.LBB21_54

	cmp	esi, -348105442
	jne	.LBB21_18

	mov	esi, edx
	jmp	.LBB21_18
	.p2align	4, 0x90
.LBB21_51:                              
	cmp	esi, 1557069072
	je	.LBB21_55

	cmp	esi, 680917234
	jne	.LBB21_18

	movzx	ecx, byte ptr [rsp + 2]
	movzx	ebx, byte ptr [rsp + 24]
	mov	eax, ecx
	xor	al, bl
	test	bl, bl
	mov	esi, -594789007
	mov	edi, -348105442
	cmovne	esi, edi
	test	cl, cl
	mov	ecx, -594789007
	cmove	esi, ecx
	test	al, al
	cmovne	esi, edi
	jmp	.LBB21_18
.LBB21_36:                              
	mov	rdi, qword ptr [rsp + 24]
	mov	ecx, dword ptr [rip + x.86]
	mov	edx, dword ptr [rip + y.87]
	lea	esi, [rcx - 1]
	imul	esi, ecx
	mov	ecx, esi
	xor	ecx, -2
	cmp	edx, 10
	setl	bl
	setl	byte ptr [rsp + 2]
	and	ecx, esi
	sete	al
	sete	byte ptr [rsp + 3]
	xor	al, bl
	mov	eax, -369009728
	mov	esi, 1534441363
	cmovne	eax, esi
	test	ecx, ecx
	mov	ecx, eax
	cmove	ecx, esi
	cmp	edx, 10
	cmovge	ecx, eax
	add	r8, rdi
	mov	rdi, qword ptr [rsp + 16]
	mov	esi, 2143172987
	jmp	.LBB21_37
.LBB21_101:                             
	mov	rsi, qword ptr [rsp + 24]
	mov	ecx, 192
	add	rsi, rcx
	mov	rdi, rax
	lea	rdx, [rsp + 4]
	call	_ZSt4findIPKiiET_S2_S2_RKT0_
	mov	ecx, dword ptr [rip + x.92]
	mov	edx, dword ptr [rip + y.93]
	lea	esi, [rcx - 1]
	imul	esi, ecx
	mov	ecx, esi
	xor	ecx, -2
	and	ecx, esi
	sete	byte ptr [rsp + 3]
	sete	bl
	movabs	rsi, 7628255009405353133
	sub	rax, rsi
	sub	rax, rbp
	add	rax, rsi
	sar	rax, 2
	test	ecx, ecx
	mov	ecx, 911041906
	mov	esi, 2101938195
	cmove	ecx, esi
	cmp	edx, 10
	setl	dl
	setl	byte ptr [rsp + 2]
	mov	edi, 911041906
	cmovge	ecx, edi
	xor	dl, bl
	cmovne	ecx, esi
	mov	edx, -1486924524
	jmp	.LBB21_102
.LBB21_114:                             
	movzx	esi, byte ptr [rsp + 3]
	movzx	edx, byte ptr [rsp + 2]
	mov	ebx, esi
	xor	bl, dl
	mov	edi, 911041906
	mov	ebp, 197475238
	cmovne	edi, ebp
	test	dl, dl
	mov	edx, edi
	cmovne	edx, ebp
	test	sil, sil
	cmove	edx, edi
	.p2align	4, 0x90
.LBB21_102:                             

	cmp	edx, 911041905
	jle	.LBB21_103

	cmp	edx, 911041906
	je	.LBB21_115

	cmp	edx, 2101938195
	jne	.LBB21_102
	jmp	.LBB21_108
	.p2align	4, 0x90
.LBB21_103:                             
	cmp	edx, -1486924524
	je	.LBB21_114

	cmp	edx, 197475238
	jne	.LBB21_102

	mov	qword ptr [rsp + 24], rax
	mov	edx, ecx
	jmp	.LBB21_102
.LBB21_115:                             
	mov	edx, 197475238
	jmp	.LBB21_102
.LBB21_55:                              
	mov	eax, dword ptr [rip + x.216]
	mov	esi, dword ptr [rip + y.217]
	lea	ecx, [rax - 1]
	imul	ecx, eax
	not	ecx
	or	ecx, -2
	mov	rdi, r8
	movabs	rax, -7722874383989790138
	sub	rdi, rax
	sub	rdi, rbp
	add	rdi, rax
	cmp	ecx, -1
	sete	al
	sete	byte ptr [rsp + 3]
	mov	ecx, -385256741
	mov	edx, -1905940984
	cmove	ecx, edx
	cmp	esi, 10
	setl	bl
	setl	byte ptr [rsp + 2]
	mov	esi, -385256741
	cmovge	ecx, esi
	xor	bl, al
	cmovne	ecx, edx
	mov	esi, -1736172681
	jmp	.LBB21_56
.LBB21_49:                              
	cmp	rdi, r8
	setb	byte ptr [rsp + 24]
	mov	esi, ecx
	.p2align	4, 0x90
.LBB21_37:                              

	cmp	esi, 1534441362
	jg	.LBB21_46

	cmp	esi, -1921148854
	je	.LBB21_49

	cmp	esi, -369009728
	jne	.LBB21_37

	mov	esi, -1921148854
	jmp	.LBB21_37
	.p2align	4, 0x90
.LBB21_46:                              
	cmp	esi, 1534441363
	je	.LBB21_50

	cmp	esi, 2143172987
	jne	.LBB21_37

	movzx	edx, byte ptr [rsp + 3]
	movzx	ebx, byte ptr [rsp + 2]
	mov	eax, edx
	xor	al, bl
	mov	eax, -369009728
	mov	ebp, -1921148854
	cmovne	eax, ebp
	test	bl, bl
	mov	esi, eax
	cmovne	esi, ebp
	test	dl, dl
	cmove	esi, eax
	jmp	.LBB21_37
.LBB21_108:                             
	mov	rax, qword ptr [rsp + 24]
	mov	ecx, 47
	movabs	rdx, 8373048860745282099
	sub	ecx, edx
	sub	ecx, eax
	add	ecx, edx
	movsxd	rbp, ecx
	cmp	rbp, 47
	mov	eax, -1631934420
	mov	ecx, 1881888195
	cmova	eax, ecx
	mov	ecx, dword ptr [rip + x.570]
	lea	edx, [rcx - 1]
	imul	edx, ecx
	mov	ecx, edx
	xor	ecx, -2
	and	ecx, edx
	sete	dl
	test	ecx, ecx
	mov	ecx, -131295023
	mov	esi, -716684405
	cmove	ecx, esi
	cmp	dword ptr [rip + y.571], 10
	setl	bl
	mov	edi, -131295023
	cmovge	ecx, edi
	xor	bl, dl
	cmovne	ecx, esi
	mov	edx, 354909644
	jmp	.LBB21_109
.LBB21_63:                              
	mov	esi, 2057159485
	.p2align	4, 0x90
.LBB21_56:                              

	cmp	esi, -385256742
	jg	.LBB21_60

	cmp	esi, -1905940984
	je	.LBB21_64

	cmp	esi, -1736172681
	jne	.LBB21_56

	movzx	edx, byte ptr [rsp + 3]
	movzx	ebx, byte ptr [rsp + 2]
	mov	eax, edx
	xor	al, bl
	test	bl, bl
	mov	esi, -385256741
	mov	ebp, 2057159485
	cmovne	esi, ebp
	test	dl, dl
	mov	edx, -385256741
	cmove	esi, edx
	test	al, al
	cmovne	esi, ebp
	jmp	.LBB21_56
	.p2align	4, 0x90
.LBB21_60:                              
	cmp	esi, -385256741
	je	.LBB21_63

	cmp	esi, 2057159485
	jne	.LBB21_56

	mov	qword ptr [rsp + 24], rdi
	mov	esi, ecx
	jmp	.LBB21_56
.LBB21_50:                              
	mov	al, byte ptr [rsp + 24]
	test	al, al
	mov	eax, -1624749015
	mov	ecx, 126964063
	cmovne	eax, ecx
	jmp	.LBB21_5
.LBB21_95:                              
	mov	eax, 1598516169
	jmp	.LBB21_5
.LBB21_65:                              
	mov	eax, dword ptr [rip + x.134]
	lea	ecx, [rax - 1]
	imul	ecx, eax
	mov	eax, ecx
	xor	eax, -2
	and	eax, ecx
	sete	cl
	test	eax, eax
	mov	eax, 667198130
	mov	esi, 284892783
	cmove	eax, esi
	cmp	dword ptr [rip + y.135], 10
	setl	dl
	mov	edi, 667198130
	cmovge	eax, edi
	xor	dl, cl
	cmovne	eax, esi
	jmp	.LBB21_5
.LBB21_66:                              
	mov	edi, _ZN3DES19keyCompressionTableE
	call	_ZNKSt5arrayIiLm48EE5beginEv
	mov	rbp, rax
	mov	edi, _ZN3DES19keyCompressionTableE
	call	_ZNKSt5arrayIiLm48EE5beginEv
	mov	ecx, dword ptr [rip + x.236]
	mov	edi, dword ptr [rip + y.237]
	lea	esi, [rcx - 1]
	imul	esi, ecx
	mov	ecx, esi
	xor	ecx, -2
	and	ecx, esi
	sete	bl
	sete	byte ptr [rsp + 3]
	cmp	edi, 10
	setl	dl
	xor	dl, bl
	mov	edx, -660578646
	mov	ebx, 1068859436
	cmovne	edx, ebx
	test	ecx, ecx
	mov	esi, edx
	cmove	esi, ebx
	cmp	edi, 10
	setl	byte ptr [rsp + 2]
	cmovge	esi, edx
	mov	edx, 1233104079
	jmp	.LBB21_67
.LBB21_96:                              
	mov	r12, qword ptr [rsp + 16]
	lea	rax, [r12 + 1]
	mov	qword ptr [rsp + 16], rax
	mov	r14, qword ptr [rsp + 88]
	mov	eax, 1538055022
	jmp	.LBB21_5
.LBB21_74:                              
	mov	edx, 850368449
	.p2align	4, 0x90
.LBB21_67:                              

	cmp	edx, 1068859435
	jg	.LBB21_71

	cmp	edx, -660578646
	je	.LBB21_74

	cmp	edx, 850368449
	jne	.LBB21_67

	mov	qword ptr [rsp + 24], _ZN3DES19keyCompressionTableE
	mov	edx, esi
	jmp	.LBB21_67
	.p2align	4, 0x90
.LBB21_71:                              
	cmp	edx, 1068859436
	je	.LBB21_75

	cmp	edx, 1233104079
	jne	.LBB21_67

	movzx	ecx, byte ptr [rsp + 3]
	movzx	edx, byte ptr [rsp + 2]
	mov	ebx, ecx
	xor	bl, dl
	test	dl, dl
	mov	edx, -660578646
	cmovne	edx, r15d
	test	cl, cl
	mov	ecx, -660578646
	cmove	edx, ecx
	test	bl, bl
	cmovne	edx, r15d
	jmp	.LBB21_67
.LBB21_75:                              
	mov	rsi, qword ptr [rsp + 24]
	mov	ecx, 192
	add	rsi, rcx
	mov	rdi, rax
	lea	rdx, [rsp + 4]
	call	_ZSt4findIPKiiET_S2_S2_RKT0_
	mov	ecx, dword ptr [rip + x.92]
	mov	edx, dword ptr [rip + y.93]
	lea	esi, [rcx - 1]
	imul	esi, ecx
	not	esi
	or	esi, -2
	cmp	esi, -1
	sete	cl
	cmp	edx, 10
	setl	bl
	xor	bl, cl
	mov	edi, 911041906
	mov	ecx, 2101938195
	cmovne	edi, ecx
	cmp	esi, -1
	sete	byte ptr [rsp + 3]
	mov	esi, edi
	cmove	esi, ecx
	cmp	edx, 10
	setl	byte ptr [rsp + 2]
	cmovge	esi, edi
	movabs	rcx, 8274858770672082080
	sub	rax, rcx
	sub	rax, rbp
	add	rax, rcx
	sar	rax, 2
	mov	edx, -1486924524
	jmp	.LBB21_76
.LBB21_88:                              
	movzx	ecx, byte ptr [rsp + 3]
	movzx	edx, byte ptr [rsp + 2]
	mov	ebx, ecx
	xor	bl, dl
	mov	edi, 911041906
	mov	ebp, 197475238
	cmovne	edi, ebp
	test	dl, dl
	mov	edx, edi
	cmovne	edx, ebp
	test	cl, cl
	cmove	edx, edi
	.p2align	4, 0x90
.LBB21_76:                              

	cmp	edx, 911041905
	jle	.LBB21_77

	cmp	edx, 911041906
	je	.LBB21_89

	cmp	edx, 2101938195
	jne	.LBB21_76
	jmp	.LBB21_82
	.p2align	4, 0x90
.LBB21_77:                              
	cmp	edx, -1486924524
	je	.LBB21_88

	cmp	edx, 197475238
	jne	.LBB21_76

	mov	qword ptr [rsp + 24], rax
	mov	edx, esi
	jmp	.LBB21_76
.LBB21_89:                              
	mov	edx, 197475238
	jmp	.LBB21_76
.LBB21_82:                              
	mov	rcx, qword ptr [rsp + 24]
	mov	eax, dword ptr [rip + x.570]
	mov	edx, dword ptr [rip + y.571]
	lea	esi, [rax - 1]
	imul	esi, eax
	not	esi
	or	esi, -2
	cmp	esi, -1
	sete	al
	cmp	edx, 10
	setl	bl
	xor	bl, al
	mov	edi, -131295023
	mov	ebp, -716684405
	cmovne	edi, ebp
	cmp	esi, -1
	mov	eax, edi
	cmove	eax, ebp
	cmp	edx, 10
	cmovge	eax, edi
	mov	edx, 47
	sub	edx, ecx
	movsxd	rbx, edx
	cmp	rbx, 47
	mov	ecx, -1631934420
	mov	edx, 1881888195
	cmova	ecx, edx
	mov	edx, 354909644
	jmp	.LBB21_83
	.p2align	4, 0x90
.LBB21_117:                             
	mov	edx, eax
.LBB21_109:                             

	cmp	edx, 354909643
	jle	.LBB21_110

	cmp	edx, 354909644
	je	.LBB21_117

	cmp	edx, 1881888195
	jne	.LBB21_109

	mov	edx, ecx
	jmp	.LBB21_109
	.p2align	4, 0x90
.LBB21_110:                             
	cmp	edx, -1631934420
	je	.LBB21_120

	cmp	edx, -716684405
	je	.LBB21_113

	cmp	edx, -131295023
	jne	.LBB21_109
	jmp	.LBB21_113
	.p2align	4, 0x90
.LBB21_91:                              
	mov	edx, ecx
.LBB21_83:                              

	cmp	edx, 354909643
	jle	.LBB21_84

	cmp	edx, 354909644
	je	.LBB21_91

	cmp	edx, 1881888195
	jne	.LBB21_83

	mov	edx, eax
	jmp	.LBB21_83
	.p2align	4, 0x90
.LBB21_84:                              
	cmp	edx, -1631934420
	je	.LBB21_94

	cmp	edx, -716684405
	je	.LBB21_87

	cmp	edx, -131295023
	jne	.LBB21_83
	jmp	.LBB21_87
.LBB21_120:                             
	mov	edx, 1
	lea	rdi, [rsp + 8]
	mov	rsi, rbp
	call	_ZNSt6bitsetILm48EE14_Unchecked_setEmi
	mov	eax, 284892783
	jmp	.LBB21_5
.LBB21_94:                              
	mov	edx, 1
	lea	rdi, [rsp + 8]
	mov	rsi, rbx
	call	_ZNSt6bitsetILm48EE14_Unchecked_setEmi
	mov	eax, dword ptr [rip + x.134]
	lea	ecx, [rax - 1]
	imul	ecx, eax
	mov	eax, ecx
	xor	eax, -2
	and	eax, ecx
	sete	cl
	test	eax, eax
	mov	eax, 667198130
	mov	edi, -363462926
	cmove	eax, edi
	cmp	dword ptr [rip + y.135], 10
	setl	dl
	mov	esi, 667198130
	cmovge	eax, esi
	xor	dl, cl
	cmovne	eax, edi
	jmp	.LBB21_5
.LBB21_9:
	mov	rax, qword ptr [rsp + 72]
	lea	rbx, [rsp + 24]
	lea	rsi, [rsp + 8]
	mov	rdi, rbx
	call	_ZNKSt6bitsetILm48EE9to_stringB5cxx11Ev
	mov	rdi, qword ptr [rsp + 80] 
	add	rdi, 264
	mov	rsi, rbx
	call	_ZNSt7__cxx1112basic_stringIcSt11char_traitsIcESaIcEEaSEOS4_
	mov	rdi, rbx
	call	_ZNSt7__cxx1112basic_stringIcSt11char_traitsIcESaIcEED2Ev
	mov	rax, qword ptr [rsp + 64]
	mov	rax, qword ptr [rsp + 56]
	add	rsp, 104
	pop	rbx
	pop	r12
	pop	r13
	pop	r14
	pop	r15
	pop	rbp
	ret
.LBB21_113:
	mov	edi, .L.str.49
	mov	esi, .L.str.48
	mov	ecx, 48
	xor	eax, eax
	mov	rdx, rbp
	call	_ZSt24__throw_out_of_range_fmtPKcz
.LBB21_87:
	mov	edi, .L.str.49
	mov	esi, .L.str.48
	mov	ecx, 48
	xor	eax, eax
	mov	rdx, rbx
	call	_ZSt24__throw_out_of_range_fmtPKcz
.Lfunc_end21:
	.size	_ZN3DES16compressionPermuERKNSt7__cxx1112basic_stringIcSt11char_traitsIcESaIcEEE, .Lfunc_end21-_ZN3DES16compressionPermuERKNSt7__cxx1112basic_stringIcSt11char_traitsIcESaIcEEE
	.cfi_endproc

	.globl	_ZN3DES4sBoxERKNSt7__cxx1112basic_stringIcSt11char_traitsIcESaIcEEE 
	.p2align	4, 0x90
	.type	_ZN3DES4sBoxERKNSt7__cxx1112basic_stringIcSt11char_traitsIcESaIcEEE,@function
_ZN3DES4sBoxERKNSt7__cxx1112basic_stringIcSt11char_traitsIcESaIcEEE: 
.Lfunc_begin11:
	.cfi_startproc
	.cfi_personality 3, __gxx_personality_v0
	.cfi_lsda 3, .Lexception11

	push	rbp
.Lcfi175:
	.cfi_def_cfa_offset 16
	push	r15
.Lcfi176:
	.cfi_def_cfa_offset 24
	push	r14
.Lcfi177:
	.cfi_def_cfa_offset 32
	push	r13
.Lcfi178:
	.cfi_def_cfa_offset 40
	push	r12
.Lcfi179:
	.cfi_def_cfa_offset 48
	push	rbx
.Lcfi180:
	.cfi_def_cfa_offset 56
	sub	rsp, 200
.Lcfi181:
	.cfi_def_cfa_offset 256
.Lcfi182:
	.cfi_offset rbx, -56
.Lcfi183:
	.cfi_offset r12, -48
.Lcfi184:
	.cfi_offset r13, -40
.Lcfi185:
	.cfi_offset r14, -32
.Lcfi186:
	.cfi_offset r15, -24
.Lcfi187:
	.cfi_offset rbp, -16
	mov	r13, rsi
	mov	eax, dword ptr [rip + x.274]
	mov	ecx, dword ptr [rip + y.275]
	lea	edx, [rax - 1]
	imul	edx, eax
	mov	eax, edx
	xor	eax, -2
	and	eax, edx
	sete	dl
	sete	byte ptr [rsp + 168]
	test	eax, eax
	mov	esi, -901066291
	mov	ebp, -1511853027
	mov	eax, -1511853027
	cmove	eax, esi
	cmp	ecx, 10
	setl	cl
	setl	byte ptr [rsp + 40]
	cmovge	eax, ebp
	xor	cl, dl
	cmovne	eax, esi
	mov	edx, 1978003098
	mov	esi, 2092656913
	jmp	.LBB22_2
.LBB22_1:                               
	mov	rcx, qword ptr [rdi + 336]
	mov	qword ptr [rsp + 8], rcx
	mov	edx, eax
	.p2align	4, 0x90
.LBB22_2:                               
	cmp	edx, 1978003097
	jg	.LBB22_5

	cmp	edx, -1511853027
	je	.LBB22_8

	cmp	edx, -901066291
	jne	.LBB22_2
	jmp	.LBB22_9
	.p2align	4, 0x90
.LBB22_5:                               
	cmp	edx, 2092656913
	je	.LBB22_1

	cmp	edx, 1978003098
	jne	.LBB22_2

	movzx	ecx, byte ptr [rsp + 168]
	movzx	edx, byte ptr [rsp + 40]
	mov	ebx, ecx
	xor	bl, dl
	mov	ebx, -1511853027
	cmovne	ebx, esi
	test	dl, dl
	mov	edx, ebx
	cmovne	edx, esi
	test	cl, cl
	cmove	edx, ebx
	jmp	.LBB22_2
.LBB22_8:                               
	mov	edx, 2092656913
	jmp	.LBB22_2
.LBB22_9:
	mov	rbp, rdi
	add	rbp, 328
	mov	rbx, qword ptr [rsp + 8]
	mov	edi, .L.str.2
	call	_ZNSt11char_traitsIcE6lengthEPKc
	xor	esi, esi
	mov	ecx, .L.str.2
	mov	qword ptr [rsp + 144], rbp 
	mov	rdi, rbp
	mov	rdx, rbx
	mov	r8, rax
	call	_ZNSt7__cxx1112basic_stringIcSt11char_traitsIcESaIcEE10_M_replaceEmmPKcm
	mov	eax, dword ptr [rip + x.202]
	mov	ecx, dword ptr [rip + y.203]
	lea	edx, [rax - 1]
	imul	edx, eax
	mov	esi, edx
	xor	esi, -2
	and	esi, edx
	sete	byte ptr [rsp + 40]
	sete	al
	cmp	ecx, 10
	setl	dl
	xor	dl, al
	mov	eax, -509641745
	mov	edx, -903518113
	cmovne	edx, eax
	test	esi, esi
	cmovne	eax, edx
	cmp	ecx, 10
	setl	byte ptr [rsp + 8]
	mov	r8d, -903518113
	cmovge	eax, edx
	mov	esi, 1511383347
	mov	edi, 858164122
	jmp	.LBB22_11
.LBB22_10:                              
	mov	qword ptr [rsp + 72], 0
	mov	esi, eax
	.p2align	4, 0x90
.LBB22_11:                              
	cmp	esi, 858164121
	jg	.LBB22_14

	cmp	esi, -903518113
	je	.LBB22_17

	cmp	esi, -509641745
	jne	.LBB22_11
	jmp	.LBB22_18
	.p2align	4, 0x90
.LBB22_14:                              
	cmp	esi, 858164122
	je	.LBB22_10

	cmp	esi, 1511383347
	jne	.LBB22_11

	movzx	edx, byte ptr [rsp + 40]
	movzx	ecx, byte ptr [rsp + 8]
	mov	ebx, edx
	xor	bl, cl
	test	cl, cl
	mov	esi, -903518113
	cmovne	esi, edi
	test	dl, dl
	cmove	esi, r8d
	test	bl, bl
	cmovne	esi, edi
	jmp	.LBB22_11
.LBB22_17:                              
	mov	qword ptr [rsp + 72], 0
	mov	esi, 858164122
	jmp	.LBB22_11
.LBB22_18:
	movabs	rax, 8135403659448196087
	xor	r15d, r15d
	lea	r14, [rsp + 40]
	lea	rbp, [rsp + 168]
	lea	r12, [rsp + 8]
	mov	rcx, rax
	not	rcx
	mov	qword ptr [rsp + 160], rcx 
	and	rax, -2
	mov	qword ptr [rsp + 152], rax 
















	.p2align	4, 0x90
.LBB22_19:                              










	mov	ecx, 1
	mov	rdi, r14
	mov	rsi, r13
	mov	rdx, r15
	call	_ZNKSt7__cxx1112basic_stringIcSt11char_traitsIcESaIcEE6substrEmm
	lea	rdx, [r15 + 5]
.Ltmp167:
	mov	ecx, 1
	mov	rdi, rbp
	mov	rsi, r13
	call	_ZNKSt7__cxx1112basic_stringIcSt11char_traitsIcESaIcEE6substrEmm
.Ltmp168:

.Ltmp170:
	mov	rdi, r12
	mov	rsi, r14
	mov	rdx, rbp
	call	_ZStplIcSt11char_traitsIcESaIcEENSt7__cxx1112basic_stringIT_T0_T1_EEOS8_S9_
.Ltmp171:

.Ltmp173:
	mov	rdi, r12
	call	_ZN3DES7bin2decERKNSt7__cxx1112basic_stringIcSt11char_traitsIcESaIcEEE
	mov	rbx, r12
	mov	r12d, eax
.Ltmp174:

	mov	rdi, rbx
	call	_ZNSt7__cxx1112basic_stringIcSt11char_traitsIcESaIcEED2Ev
	mov	rdi, rbp
	call	_ZNSt7__cxx1112basic_stringIcSt11char_traitsIcESaIcEED2Ev
	mov	rdi, r14
	call	_ZNSt7__cxx1112basic_stringIcSt11char_traitsIcESaIcEED2Ev
	mov	rax, r15
	not	rax
	mov	ecx, eax
	not	ecx
	movabs	rdx, 8135403659448196087
	mov	rsi, rdx
	and	rax, rsi
	mov	rdx, r15
	mov	rdi, qword ptr [rsp + 160] 
	and	rdx, rdi
	or	rdx, rax
	mov	eax, edi
	and	eax, 1
	add	rax, qword ptr [rsp + 152] 
	xor	rax, rdx
	mov	edx, esi
	or	edx, edi
	and	edx, ecx
	and	edx, 1
	or	rdx, rax
	mov	ecx, 4
	mov	rdi, rbx
	mov	r14, r13
	mov	rsi, r13
	call	_ZNKSt7__cxx1112basic_stringIcSt11char_traitsIcESaIcEE6substrEmm
.Ltmp176:
	mov	rdi, rbx
	call	_ZN3DES7bin2decERKNSt7__cxx1112basic_stringIcSt11char_traitsIcESaIcEEE
	mov	r13d, eax
.Ltmp177:

	mov	rdi, rbx
	call	_ZNSt7__cxx1112basic_stringIcSt11char_traitsIcESaIcEED2Ev
	cmp	r15, 24
	jae	.LBB22_28

	cmp	r15, 12
	jae	.LBB22_32

	cmp	r15, 6
	jae	.LBB22_38

	test	r15, r15
	jne	.LBB22_132

	mov	eax, dword ptr [rip + x.144]
	mov	esi, dword ptr [rip + y.145]
	lea	edx, [rax - 1]
	imul	edx, eax
	not	edx
	or	edx, -2
	cmp	edx, -1
	sete	al
	cmp	esi, 10
	setl	byte ptr [rsp + 8]
	setl	cl
	xor	cl, al
	mov	ecx, -565767490
	mov	eax, 1094031011
	cmovne	ecx, eax
	cmp	edx, -1
	sete	byte ptr [rsp + 40]
	mov	edi, ecx
	cmove	edi, eax
	cmp	esi, 10
	movsxd	rdx, r12d
	movsxd	rsi, r13d
	cmovge	edi, ecx
	shl	rdx, 6
	mov	esi, dword ptr [rdx + 4*rsi + _ZN3DES2s1E]
	and	esi, 15
	mov	edx, -191198739
	mov	r13, r14
	lea	r12, [rsp + 8]
	jmp	.LBB22_47
	.p2align	4, 0x90
.LBB22_28:                              
	cmp	r15, 36
	jae	.LBB22_35

	cmp	r15, 30
	jae	.LBB22_40

	cmp	r15, 24
	jne	.LBB22_132

	mov	eax, dword ptr [rip + x.144]
	mov	ecx, dword ptr [rip + y.145]
	lea	edx, [rax - 1]
	imul	edx, eax
	mov	eax, edx
	xor	eax, -2
	cmp	ecx, 10
	setl	sil
	setl	byte ptr [rsp + 8]
	and	eax, edx
	sete	dl
	sete	byte ptr [rsp + 40]
	xor	dl, sil
	mov	edx, -565767490
	mov	esi, 1094031011
	cmovne	edx, esi
	test	eax, eax
	mov	edi, edx
	cmove	edi, esi
	cmp	ecx, 10
	movsxd	rcx, r12d
	movsxd	rsi, r13d
	cmovge	edi, edx
	shl	rcx, 6
	mov	esi, dword ptr [rcx + 4*rsi + _ZN3DES2s5E]
	and	esi, 15
	mov	edx, -191198739
	mov	r13, r14
	lea	r12, [rsp + 8]
	jmp	.LBB22_55
	.p2align	4, 0x90
.LBB22_32:                              
	cmp	r15, 18
	jae	.LBB22_42

	cmp	r15, 12
	jne	.LBB22_132

	mov	eax, dword ptr [rip + x.144]
	mov	ecx, dword ptr [rip + y.145]
	lea	edx, [rax - 1]
	imul	edx, eax
	mov	eax, edx
	xor	eax, -2
	cmp	ecx, 10
	setl	sil
	setl	byte ptr [rsp + 8]
	and	eax, edx
	sete	dl
	sete	byte ptr [rsp + 40]
	xor	dl, sil
	mov	edx, -565767490
	mov	esi, 1094031011
	cmovne	edx, esi
	test	eax, eax
	mov	edi, edx
	cmove	edi, esi
	cmp	ecx, 10
	movsxd	rcx, r12d
	movsxd	rsi, r13d
	cmovge	edi, edx
	shl	rcx, 6
	mov	edx, dword ptr [rcx + 4*rsi + _ZN3DES2s3E]
	mov	esi, edx
	xor	esi, -16
	and	esi, edx
	mov	edx, -191198739
	mov	r13, r14
	lea	r12, [rsp + 8]
	jmp	.LBB22_63
	.p2align	4, 0x90
.LBB22_35:                              
	cmp	r15, 42
	jae	.LBB22_44

	cmp	r15, 36
	jne	.LBB22_132

	mov	eax, dword ptr [rip + x.144]
	mov	ecx, dword ptr [rip + y.145]
	lea	edx, [rax - 1]
	imul	edx, eax
	mov	eax, edx
	xor	eax, -2
	cmp	ecx, 10
	setl	sil
	setl	byte ptr [rsp + 8]
	and	eax, edx
	sete	dl
	sete	byte ptr [rsp + 40]
	xor	dl, sil
	mov	edx, -565767490
	mov	esi, 1094031011
	cmovne	edx, esi
	test	eax, eax
	mov	edi, edx
	cmove	edi, esi
	cmp	ecx, 10
	movsxd	rcx, r12d
	movsxd	rsi, r13d
	cmovge	edi, edx
	shl	rcx, 6
	mov	edx, dword ptr [rcx + 4*rsi + _ZN3DES2s7E]
	mov	esi, edx
	xor	esi, -16
	and	esi, edx
	mov	edx, -191198739
	mov	r13, r14
	lea	r12, [rsp + 8]
	jmp	.LBB22_71
.LBB22_38:                              
	jne	.LBB22_132

	movsxd	rax, r12d
	movsxd	rcx, r13d
	shl	rax, 6
	mov	edi, dword ptr [rax + 4*rcx + _ZN3DES2s2E]
	mov	ecx, dword ptr [rip + x.144]
	mov	edx, dword ptr [rip + y.145]
	lea	esi, [rcx - 1]
	imul	esi, ecx
	mov	ecx, esi
	xor	ecx, -2
	and	ecx, esi
	sete	al
	sete	byte ptr [rsp + 40]
	and	edi, 15
	test	ecx, ecx
	mov	esi, -565767490
	mov	ecx, 1094031011
	cmove	esi, ecx
	cmp	edx, 10
	setl	dl
	setl	byte ptr [rsp + 8]
	mov	ebp, -565767490
	cmovge	esi, ebp
	xor	dl, al
	cmovne	esi, ecx
	mov	edx, -191198739
	mov	r13, r14
	lea	r12, [rsp + 8]
	jmp	.LBB22_79
.LBB22_40:                              
	jne	.LBB22_132

	mov	eax, dword ptr [rip + x.144]
	mov	esi, dword ptr [rip + y.145]
	lea	edx, [rax - 1]
	imul	edx, eax
	not	edx
	or	edx, -2
	cmp	edx, -1
	sete	al
	cmp	esi, 10
	setl	byte ptr [rsp + 8]
	setl	cl
	xor	cl, al
	mov	ecx, -565767490
	mov	eax, 1094031011
	cmovne	ecx, eax
	cmp	edx, -1
	sete	byte ptr [rsp + 40]
	mov	edi, ecx
	cmove	edi, eax
	cmp	esi, 10
	movsxd	rdx, r12d
	movsxd	rsi, r13d
	cmovge	edi, ecx
	shl	rdx, 6
	mov	esi, dword ptr [rdx + 4*rsi + _ZN3DES2s6E]
	and	esi, 15
	mov	edx, -191198739
	mov	r13, r14
	lea	r12, [rsp + 8]
	jmp	.LBB22_87
.LBB22_42:                              
	jne	.LBB22_132

	movsxd	rax, r12d
	movsxd	rcx, r13d
	shl	rax, 6
	mov	edi, dword ptr [rax + 4*rcx + _ZN3DES2s4E]
	mov	ecx, dword ptr [rip + x.144]
	mov	edx, dword ptr [rip + y.145]
	lea	esi, [rcx - 1]
	imul	esi, ecx
	not	esi
	or	esi, -2
	and	edi, 15
	cmp	esi, -1
	sete	al
	sete	byte ptr [rsp + 40]
	mov	ecx, -565767490
	mov	esi, 1094031011
	cmove	ecx, esi
	cmp	edx, 10
	setl	dl
	setl	byte ptr [rsp + 8]
	mov	ebp, -565767490
	cmovge	ecx, ebp
	xor	dl, al
	cmovne	ecx, esi
	mov	edx, -191198739
	mov	r13, r14
	lea	r12, [rsp + 8]
	jmp	.LBB22_95
.LBB22_44:                              
	jne	.LBB22_132

	movsxd	rax, r12d
	movsxd	rcx, r13d
	shl	rax, 6
	mov	edi, dword ptr [rax + 4*rcx + _ZN3DES2s8E]
	mov	ecx, dword ptr [rip + x.144]
	mov	edx, dword ptr [rip + y.145]
	lea	esi, [rcx - 1]
	imul	esi, ecx
	not	esi
	or	esi, -2
	and	edi, 15
	cmp	esi, -1
	sete	al
	sete	byte ptr [rsp + 40]
	mov	ecx, -565767490
	mov	esi, 1094031011
	cmove	ecx, esi
	cmp	edx, 10
	setl	dl
	setl	byte ptr [rsp + 8]
	mov	ebp, -565767490
	cmovge	ecx, ebp
	xor	dl, al
	cmovne	ecx, esi
	mov	edx, -191198739
	mov	r13, r14
	lea	r12, [rsp + 8]
	jmp	.LBB22_103
.LBB22_46:                              
	mov	qword ptr [rsp + 80], rsi 
	mov	edx, edi
	.p2align	4, 0x90
.LBB22_47:                              

	cmp	edx, -191198740
	jg	.LBB22_51

	cmp	edx, -1085377371
	je	.LBB22_46

	cmp	edx, -565767490
	jne	.LBB22_47

	mov	edx, -1085377371
	mov	qword ptr [rsp + 80], rsi 
	jmp	.LBB22_47
	.p2align	4, 0x90
.LBB22_51:                              
	cmp	edx, 1094031011
	je	.LBB22_110

	cmp	edx, -191198739
	jne	.LBB22_47

	movzx	eax, byte ptr [rsp + 40]
	movzx	edx, byte ptr [rsp + 8]
	mov	ecx, eax
	xor	cl, dl
	mov	ecx, -565767490
	mov	ebp, -1085377371
	cmovne	ecx, ebp
	test	dl, dl
	mov	edx, ecx
	cmovne	edx, ebp
	test	al, al
	cmove	edx, ecx
	jmp	.LBB22_47
.LBB22_54:                              
	mov	qword ptr [rsp + 112], rsi 
	mov	edx, edi
	.p2align	4, 0x90
.LBB22_55:                              

	cmp	edx, -191198740
	jg	.LBB22_59

	cmp	edx, -1085377371
	je	.LBB22_54

	cmp	edx, -565767490
	jne	.LBB22_55

	mov	edx, -1085377371
	mov	qword ptr [rsp + 112], rsi 
	jmp	.LBB22_55
	.p2align	4, 0x90
.LBB22_59:                              
	cmp	edx, 1094031011
	je	.LBB22_111

	cmp	edx, -191198739
	jne	.LBB22_55

	movzx	eax, byte ptr [rsp + 40]
	movzx	edx, byte ptr [rsp + 8]
	mov	ecx, eax
	xor	cl, dl
	mov	ecx, -565767490
	mov	ebp, -1085377371
	cmovne	ecx, ebp
	test	dl, dl
	mov	edx, ecx
	cmovne	edx, ebp
	test	al, al
	cmove	edx, ecx
	jmp	.LBB22_55
.LBB22_62:                              
	mov	qword ptr [rsp + 96], rsi 
	mov	edx, edi
	.p2align	4, 0x90
.LBB22_63:                              

	cmp	edx, -191198740
	jg	.LBB22_67

	cmp	edx, -1085377371
	je	.LBB22_62

	cmp	edx, -565767490
	jne	.LBB22_63

	mov	edx, -1085377371
	mov	qword ptr [rsp + 96], rsi 
	jmp	.LBB22_63
	.p2align	4, 0x90
.LBB22_67:                              
	cmp	edx, 1094031011
	je	.LBB22_112

	cmp	edx, -191198739
	jne	.LBB22_63

	movzx	ecx, byte ptr [rsp + 40]
	movzx	edx, byte ptr [rsp + 8]
	mov	eax, ecx
	xor	al, dl
	test	dl, dl
	mov	edx, -565767490
	mov	ebp, -1085377371
	cmovne	edx, ebp
	test	cl, cl
	mov	ecx, -565767490
	cmove	edx, ecx
	test	al, al
	cmovne	edx, ebp
	jmp	.LBB22_63
.LBB22_70:                              
	mov	qword ptr [rsp + 128], rsi 
	mov	edx, edi
	.p2align	4, 0x90
.LBB22_71:                              

	cmp	edx, -191198740
	jg	.LBB22_75

	cmp	edx, -1085377371
	je	.LBB22_70

	cmp	edx, -565767490
	jne	.LBB22_71

	mov	edx, -1085377371
	mov	qword ptr [rsp + 128], rsi 
	jmp	.LBB22_71
	.p2align	4, 0x90
.LBB22_75:                              
	cmp	edx, 1094031011
	je	.LBB22_113

	cmp	edx, -191198739
	jne	.LBB22_71

	movzx	ecx, byte ptr [rsp + 40]
	movzx	edx, byte ptr [rsp + 8]
	mov	eax, ecx
	xor	al, dl
	mov	eax, -565767490
	mov	ebp, -1085377371
	cmovne	eax, ebp
	test	dl, dl
	mov	edx, eax
	cmovne	edx, ebp
	test	cl, cl
	cmove	edx, eax
	jmp	.LBB22_71
.LBB22_78:                              
	mov	qword ptr [rsp + 88], rdi 
	mov	edx, esi
	.p2align	4, 0x90
.LBB22_79:                              

	cmp	edx, -191198740
	jg	.LBB22_83

	cmp	edx, -1085377371
	je	.LBB22_78

	cmp	edx, -565767490
	jne	.LBB22_79

	mov	edx, -1085377371
	mov	qword ptr [rsp + 88], rdi 
	jmp	.LBB22_79
	.p2align	4, 0x90
.LBB22_83:                              
	cmp	edx, 1094031011
	je	.LBB22_114

	cmp	edx, -191198739
	jne	.LBB22_79

	movzx	ecx, byte ptr [rsp + 40]
	movzx	edx, byte ptr [rsp + 8]
	mov	eax, ecx
	xor	al, dl
	test	dl, dl
	mov	edx, -565767490
	mov	ebp, -1085377371
	cmovne	edx, ebp
	test	cl, cl
	mov	ecx, -565767490
	cmove	edx, ecx
	test	al, al
	cmovne	edx, ebp
	jmp	.LBB22_79
.LBB22_86:                              
	mov	qword ptr [rsp + 120], rsi 
	mov	edx, edi
	.p2align	4, 0x90
.LBB22_87:                              

	cmp	edx, -191198740
	jg	.LBB22_91

	cmp	edx, -1085377371
	je	.LBB22_86

	cmp	edx, -565767490
	jne	.LBB22_87

	mov	edx, -1085377371
	mov	qword ptr [rsp + 120], rsi 
	jmp	.LBB22_87
	.p2align	4, 0x90
.LBB22_91:                              
	cmp	edx, 1094031011
	je	.LBB22_115

	cmp	edx, -191198739
	jne	.LBB22_87

	movzx	eax, byte ptr [rsp + 40]
	movzx	edx, byte ptr [rsp + 8]
	mov	ecx, eax
	xor	cl, dl
	mov	ecx, -565767490
	mov	ebp, -1085377371
	cmovne	ecx, ebp
	test	dl, dl
	mov	edx, ecx
	cmovne	edx, ebp
	test	al, al
	cmove	edx, ecx
	jmp	.LBB22_87
.LBB22_94:                              
	mov	qword ptr [rsp + 104], rdi 
	mov	edx, ecx
	.p2align	4, 0x90
.LBB22_95:                              

	cmp	edx, -191198740
	jg	.LBB22_99

	cmp	edx, -1085377371
	je	.LBB22_94

	cmp	edx, -565767490
	jne	.LBB22_95

	mov	edx, -1085377371
	mov	qword ptr [rsp + 104], rdi 
	jmp	.LBB22_95
	.p2align	4, 0x90
.LBB22_99:                              
	cmp	edx, 1094031011
	je	.LBB22_116

	cmp	edx, -191198739
	jne	.LBB22_95

	movzx	esi, byte ptr [rsp + 40]
	movzx	edx, byte ptr [rsp + 8]
	mov	eax, esi
	xor	al, dl
	mov	eax, -565767490
	mov	ebp, -1085377371
	cmovne	eax, ebp
	test	dl, dl
	mov	edx, eax
	cmovne	edx, ebp
	test	sil, sil
	cmove	edx, eax
	jmp	.LBB22_95
.LBB22_102:                             
	mov	qword ptr [rsp + 136], rdi 
	mov	edx, ecx
	.p2align	4, 0x90
.LBB22_103:                             

	cmp	edx, -191198740
	jg	.LBB22_107

	cmp	edx, -1085377371
	je	.LBB22_102

	cmp	edx, -565767490
	jne	.LBB22_103

	mov	edx, -1085377371
	mov	qword ptr [rsp + 136], rdi 
	jmp	.LBB22_103
	.p2align	4, 0x90
.LBB22_107:                             
	cmp	edx, 1094031011
	je	.LBB22_117

	cmp	edx, -191198739
	jne	.LBB22_103

	movzx	esi, byte ptr [rsp + 40]
	movzx	edx, byte ptr [rsp + 8]
	mov	eax, esi
	xor	al, dl
	mov	eax, -565767490
	mov	ebp, -1085377371
	cmovne	eax, ebp
	test	dl, dl
	mov	edx, eax
	cmovne	edx, ebp
	test	sil, sil
	cmove	edx, eax
	jmp	.LBB22_103
.LBB22_110:                             
	mov	rax, qword ptr [rsp + 80] 
	jmp	.LBB22_118
.LBB22_111:                             
	mov	rax, qword ptr [rsp + 112] 
	jmp	.LBB22_118
.LBB22_112:                             
	mov	rax, qword ptr [rsp + 96] 
	jmp	.LBB22_118
.LBB22_113:                             
	mov	rax, qword ptr [rsp + 128] 
	jmp	.LBB22_118
.LBB22_114:                             
	mov	rax, qword ptr [rsp + 88] 
	jmp	.LBB22_118
.LBB22_115:                             
	mov	rax, qword ptr [rsp + 120] 
	jmp	.LBB22_118
.LBB22_116:                             
	mov	rax, qword ptr [rsp + 104] 
	jmp	.LBB22_118
.LBB22_117:                             
	mov	rax, qword ptr [rsp + 136] 
	.p2align	4, 0x90
.LBB22_118:                             
	mov	qword ptr [rsp + 72], rax
	mov	rdi, r12
	call	_ZNSt7__cxx1112basic_stringIcSt11char_traitsIcESaIcEEC2Ev
.Ltmp179:
	mov	edx, 48
	mov	ecx, 49
	lea	rdi, [rsp + 72]
	mov	rsi, r12
	call	_ZNKSt6bitsetILm4EE17_M_copy_to_stringIcSt11char_traitsIcESaIcEEEvRNSt7__cxx1112basic_stringIT_T0_T1_EES7_S7_
.Ltmp180:

	mov	eax, dword ptr [rip + x.274]
	mov	ecx, dword ptr [rip + y.275]
	lea	edx, [rax - 1]
	imul	edx, eax
	mov	eax, edx
	xor	eax, -2
	and	eax, edx
	sete	dl
	sete	byte ptr [rsp + 7]
	cmp	ecx, 10
	setl	bl
	xor	bl, dl
	mov	edx, -1511853027
	mov	esi, -901066291
	cmovne	edx, esi
	test	eax, eax
	mov	eax, edx
	cmove	eax, esi
	cmp	ecx, 10
	setl	byte ptr [rsp + 168]
	mov	rsi, qword ptr [rsp + 8]
	cmovge	eax, edx
	mov	edx, 1978003098
	mov	rdi, qword ptr [rsp + 16]
	jmp	.LBB22_121
	.p2align	4, 0x90
.LBB22_120:                             
	mov	cl, byte ptr [rsp + 7]
	mov	dl, byte ptr [rsp + 168]
	mov	ebx, ecx
	xor	bl, dl
	mov	ebx, -1511853027
	mov	ebp, 2092656913
	cmovne	ebx, ebp
	test	dl, dl
	mov	edx, ebx
	cmovne	edx, ebp
	test	cl, cl
	cmove	edx, ebx
.LBB22_121:                             


	lea	r14, [rsp + 40]
	jmp	.LBB22_123
.LBB22_122:                             
	mov	qword ptr [rsp + 40], rdi
	mov	edx, eax
	.p2align	4, 0x90
.LBB22_123:                             


	cmp	edx, 1978003097
	jg	.LBB22_126

	cmp	edx, -1511853027
	je	.LBB22_128

	cmp	edx, -901066291
	jne	.LBB22_123
	jmp	.LBB22_129
	.p2align	4, 0x90
.LBB22_126:                             
	cmp	edx, 2092656913
	je	.LBB22_122

	cmp	edx, 1978003098
	jne	.LBB22_123
	jmp	.LBB22_120
.LBB22_128:                             
	mov	edx, 2092656913
	jmp	.LBB22_123
	.p2align	4, 0x90
.LBB22_129:                             
	mov	rdx, qword ptr [rsp + 40]
.Ltmp182:
	mov	rdi, qword ptr [rsp + 144] 
	call	_ZNSt7__cxx1112basic_stringIcSt11char_traitsIcESaIcEE9_M_appendEPKcm
.Ltmp183:

	mov	rdi, r12
	call	_ZNSt7__cxx1112basic_stringIcSt11char_traitsIcESaIcEED2Ev
	cmp	r15, 42
	lea	r15, [r15 + 6]
	lea	rbp, [rsp + 168]
	jb	.LBB22_19

	add	rsp, 200
	pop	rbx
	pop	r12
	pop	r13
	pop	r14
	pop	r15
	pop	rbp
	ret
.LBB22_132:
	mov	edi, _ZSt4cout
	mov	esi, .L.str.3
	call	_ZStlsISt11char_traitsIcEERSt13basic_ostreamIcT_ES5_PKc
	mov	rdi, rax
	call	_ZSt4endlIcSt11char_traitsIcEERSt13basic_ostreamIT_T0_ES6_
	xor	edi, edi
	call	exit
.LBB22_133:
.Ltmp184:
	jmp	.LBB22_136
.LBB22_134:
.Ltmp181:
	jmp	.LBB22_136
.LBB22_135:
.Ltmp178:
.LBB22_136:
	mov	rbx, rax
	lea	rdi, [rsp + 8]
	jmp	.LBB22_142
.LBB22_137:
.Ltmp175:
	mov	rbx, rax
	lea	rdi, [rsp + 8]
	call	_ZNSt7__cxx1112basic_stringIcSt11char_traitsIcESaIcEED2Ev
	jmp	.LBB22_139
.LBB22_138:
.Ltmp172:
	mov	rbx, rax
.LBB22_139:
	lea	rdi, [rsp + 168]
	call	_ZNSt7__cxx1112basic_stringIcSt11char_traitsIcESaIcEED2Ev
	jmp	.LBB22_141
.LBB22_140:
.Ltmp169:
	mov	rbx, rax
.LBB22_141:
	lea	rdi, [rsp + 40]
.LBB22_142:
	call	_ZNSt7__cxx1112basic_stringIcSt11char_traitsIcESaIcEED2Ev
	mov	rdi, rbx
	call	_Unwind_Resume
.Lfunc_end22:
	.size	_ZN3DES4sBoxERKNSt7__cxx1112basic_stringIcSt11char_traitsIcESaIcEEE, .Lfunc_end22-_ZN3DES4sBoxERKNSt7__cxx1112basic_stringIcSt11char_traitsIcESaIcEEE
	.cfi_endproc
	.section	.gcc_except_table,"a",@progbits
	.p2align	2
GCC_except_table22:
.Lexception11:
	.byte	255                     
	.byte	3                       
	.asciz	"\367\200"              
	.byte	3                       
	.byte	117                     
	.long	.Lfunc_begin11-.Lfunc_begin11 
	.long	.Ltmp167-.Lfunc_begin11 
	.long	0                       
	.byte	0                       
	.long	.Ltmp167-.Lfunc_begin11 
	.long	.Ltmp168-.Ltmp167       
	.long	.Ltmp169-.Lfunc_begin11 
	.byte	0                       
	.long	.Ltmp170-.Lfunc_begin11 
	.long	.Ltmp171-.Ltmp170       
	.long	.Ltmp172-.Lfunc_begin11 
	.byte	0                       
	.long	.Ltmp173-.Lfunc_begin11 
	.long	.Ltmp174-.Ltmp173       
	.long	.Ltmp175-.Lfunc_begin11 
	.byte	0                       
	.long	.Ltmp174-.Lfunc_begin11 
	.long	.Ltmp176-.Ltmp174       
	.long	0                       
	.byte	0                       
	.long	.Ltmp176-.Lfunc_begin11 
	.long	.Ltmp177-.Ltmp176       
	.long	.Ltmp178-.Lfunc_begin11 
	.byte	0                       
	.long	.Ltmp179-.Lfunc_begin11 
	.long	.Ltmp180-.Ltmp179       
	.long	.Ltmp181-.Lfunc_begin11 
	.byte	0                       
	.long	.Ltmp182-.Lfunc_begin11 
	.long	.Ltmp183-.Ltmp182       
	.long	.Ltmp184-.Lfunc_begin11 
	.byte	0                       
	.long	.Ltmp183-.Lfunc_begin11 
	.long	.Lfunc_end22-.Ltmp183   
	.long	0                       
	.byte	0                       
	.p2align	2

	.text
	.globl	_ZN3DES7bin2decERKNSt7__cxx1112basic_stringIcSt11char_traitsIcESaIcEEE 
	.p2align	4, 0x90
	.type	_ZN3DES7bin2decERKNSt7__cxx1112basic_stringIcSt11char_traitsIcESaIcEEE,@function
_ZN3DES7bin2decERKNSt7__cxx1112basic_stringIcSt11char_traitsIcESaIcEEE: 
	.cfi_startproc

	push	rbp
.Lcfi188:
	.cfi_def_cfa_offset 16
	push	r15
.Lcfi189:
	.cfi_def_cfa_offset 24
	push	r14
.Lcfi190:
	.cfi_def_cfa_offset 32
	push	r13
.Lcfi191:
	.cfi_def_cfa_offset 40
	push	r12
.Lcfi192:
	.cfi_def_cfa_offset 48
	push	rbx
.Lcfi193:
	.cfi_def_cfa_offset 56
	sub	rsp, 72
.Lcfi194:
	.cfi_def_cfa_offset 128
.Lcfi195:
	.cfi_offset rbx, -56
.Lcfi196:
	.cfi_offset r12, -48
.Lcfi197:
	.cfi_offset r13, -40
.Lcfi198:
	.cfi_offset r14, -32
.Lcfi199:
	.cfi_offset r15, -24
.Lcfi200:
	.cfi_offset rbp, -16
	mov	r14, rdi
	lea	rax, [rsp + 24]
	mov	qword ptr [rsp + 64], rax
	mov	rax, qword ptr [rsp + 64]
	mov	rax, qword ptr [r14]
	mov	ecx, dword ptr [rip + x.274]
	mov	edx, dword ptr [rip + y.275]
	lea	esi, [rcx - 1]
	imul	esi, ecx
	not	esi
	or	esi, -2
	cmp	esi, -1
	sete	bl
	sete	byte ptr [rsp + 6]
	mov	esi, -901066291
	mov	r8d, -1511853027
	mov	ebp, -1511853027
	cmove	ebp, esi
	cmp	edx, 10
	setl	dl
	setl	byte ptr [rsp + 7]
	cmovge	ebp, r8d
	xor	dl, bl
	cmovne	ebp, esi
	mov	rsi, qword ptr [r14 + 8]
	mov	edx, 1978003098
	mov	edi, 2092656913
	jmp	.LBB23_1
.LBB23_13:                              
	movzx	ecx, byte ptr [rsp + 6]
	movzx	edx, byte ptr [rsp + 7]
	mov	ebx, ecx
	xor	bl, dl
	test	dl, dl
	mov	edx, -1511853027
	cmovne	edx, edi
	test	cl, cl
	cmove	edx, r8d
	test	bl, bl
	cmovne	edx, edi
	.p2align	4, 0x90
.LBB23_1:                               
	cmp	edx, 1978003097
	jg	.LBB23_11

	cmp	edx, -1511853027
	je	.LBB23_15

	cmp	edx, -901066291
	jne	.LBB23_1
	jmp	.LBB23_4
	.p2align	4, 0x90
.LBB23_11:                              
	cmp	edx, 2092656913
	je	.LBB23_14

	cmp	edx, 1978003098
	jne	.LBB23_1
	jmp	.LBB23_13
.LBB23_15:                              
	mov	edx, 2092656913
	jmp	.LBB23_1
.LBB23_14:                              
	mov	qword ptr [rsp + 8], rsi
	mov	edx, ebp
	jmp	.LBB23_1
.LBB23_4:
	mov	rcx, qword ptr [rsp + 8]
	add	rax, rcx
	mov	qword ptr [rsp + 24], rax
	mov	r13d, -692395265
	xor	r15d, r15d

	jmp	.LBB23_5
.LBB23_54:                              
	cmovge	r13d, edx
	xor	al, cl
	cmovne	r13d, esi
	.p2align	4, 0x90
.LBB23_5:                               






	cmp	r13d, -21575084
	jle	.LBB23_6

	cmp	r13d, 798923002
	jle	.LBB23_35

	cmp	r13d, 1542932773
	jg	.LBB23_51

	cmp	r13d, 798923003
	je	.LBB23_85

	cmp	r13d, 1489860015
	je	.LBB23_82

	cmp	r13d, 1223900072
	jne	.LBB23_5
	jmp	.LBB23_50
	.p2align	4, 0x90
.LBB23_6:                               
	cmp	r13d, -754824023
	jg	.LBB23_23

	cmp	r13d, -777965813
	jg	.LBB23_16

	cmp	r13d, -1863401595
	je	.LBB23_76

	cmp	r13d, -1150537149
	jne	.LBB23_5

	mov	eax, dword ptr [rip + x.140]
	lea	ecx, [rax - 1]
	imul	ecx, eax
	mov	eax, ecx
	xor	eax, -2
	and	eax, ecx
	sete	cl
	test	eax, eax
	mov	r13d, -775313681
	mov	edx, -583391600
	cmove	r13d, edx
	cmp	dword ptr [rip + y.141], 10
	setl	al
	mov	esi, -775313681
	cmovge	r13d, esi
	xor	al, cl
	cmovne	r13d, edx
	jmp	.LBB23_5
	.p2align	4, 0x90
.LBB23_35:                              
	cmp	r13d, 127556680
	jg	.LBB23_39

	cmp	r13d, -21575083
	je	.LBB23_83

	cmp	r13d, 121240600
	jne	.LBB23_5

	mov	r13d, 1489860015
	mov	r12d, dword ptr [rsp + 56]
	jmp	.LBB23_5
	.p2align	4, 0x90
.LBB23_23:                              
	cmp	r13d, -662333454
	jg	.LBB23_27

	cmp	r13d, -754824022
	je	.LBB23_84

	cmp	r13d, -692395265
	jne	.LBB23_5

	mov	eax, dword ptr [rip + x.140]
	mov	ecx, dword ptr [rip + y.141]
	lea	edx, [rax - 1]
	imul	edx, eax
	not	edx
	or	edx, -2
	cmp	edx, -1
	sete	al
	cmp	ecx, 10
	setl	bl
	xor	bl, al
	mov	eax, 798923003
	mov	esi, 127556681
	cmovne	eax, esi
	cmp	edx, -1
	mov	r13d, eax
	cmove	r13d, esi
	cmp	ecx, 10
	mov	dword ptr [rsp + 36], r15d
	cmovge	r13d, eax
	jmp	.LBB23_5
.LBB23_51:                              
	cmp	r13d, 1542932774
	je	.LBB23_66

	cmp	r13d, 2033275196
	jne	.LBB23_5

	mov	eax, dword ptr [rip + x.140]
	lea	ecx, [rax - 1]
	imul	ecx, eax
	mov	eax, ecx
	xor	eax, -2
	and	eax, ecx
	sete	cl
	test	eax, eax
	mov	r13d, 781629948
	mov	esi, 1542932774
	cmove	r13d, esi
	cmp	dword ptr [rip + y.141], 10
	setl	al
	mov	edx, 781629948
	jmp	.LBB23_54
.LBB23_16:                              
	cmp	r13d, -777965812
	je	.LBB23_105

	cmp	r13d, -775313681
	jne	.LBB23_5

	mov	rbp, qword ptr [r14]
	mov	ecx, dword ptr [rip + x.274]
	mov	edx, dword ptr [rip + y.275]
	lea	esi, [rcx - 1]
	imul	esi, ecx
	not	esi
	or	esi, -2
	cmp	esi, -1
	sete	cl
	cmp	edx, 10
	setl	bl
	xor	bl, cl
	mov	edi, -1511853027
	mov	eax, -901066291
	cmovne	edi, eax
	cmp	esi, -1
	sete	byte ptr [rsp + 6]
	mov	ecx, edi
	cmove	ecx, eax
	cmp	edx, 10
	setl	byte ptr [rsp + 7]
	cmovge	ecx, edi
	mov	r8, qword ptr [r14 + 8]
	mov	esi, 1978003098
	jmp	.LBB23_19
.LBB23_39:                              
	cmp	r13d, 127556681
	je	.LBB23_55

	cmp	r13d, 781629948
	jne	.LBB23_5

	mov	eax, dword ptr [rip + x.190]
	mov	ecx, dword ptr [rip + y.191]
	mov	edx, eax
	neg	edx
	not	edx
	imul	edx, eax
	not	edx
	or	edx, -2
	cmp	edx, -1
	sete	al
	cmp	ecx, 10
	setl	bl
	xor	bl, al
	mov	esi, -1137079350
	mov	edi, 273113515
	cmovne	esi, edi
	cmp	edx, -1
	sete	byte ptr [rsp + 6]
	mov	eax, esi
	cmove	eax, edi
	cmp	ecx, 10
	setl	byte ptr [rsp + 7]
	cmovge	eax, esi
	mov	rsi, qword ptr [rsp + 24]
	dec	rsi
	mov	edx, 1088801509
	jmp	.LBB23_42
.LBB23_27:                              
	cmp	r13d, -662333453
	je	.LBB23_65

	cmp	r13d, -583391600
	jne	.LBB23_5

	mov	rbp, qword ptr [r14]
	mov	ecx, dword ptr [rip + x.274]
	mov	edx, dword ptr [rip + y.275]
	lea	esi, [rcx - 1]
	imul	esi, ecx
	not	esi
	or	esi, -2
	cmp	esi, -1
	sete	cl
	cmp	edx, 10
	setl	bl
	xor	bl, cl
	mov	edi, -1511853027
	mov	eax, -901066291
	cmovne	edi, eax
	cmp	esi, -1
	sete	byte ptr [rsp + 6]
	mov	ecx, edi
	cmove	ecx, eax
	cmp	edx, 10
	setl	byte ptr [rsp + 7]
	cmovge	ecx, edi
	mov	rdi, qword ptr [r14 + 8]
	mov	esi, 1978003098
	jmp	.LBB23_30
.LBB23_85:                              
	mov	eax, dword ptr [rip + x.188]
	mov	ecx, dword ptr [rip + y.189]
	lea	edx, [rax - 1]
	imul	edx, eax
	not	edx
	or	edx, -2
	cmp	edx, -1
	sete	al
	cmp	ecx, 10
	setl	bl
	xor	bl, al
	mov	esi, 1731944481
	mov	edi, 1278958967
	cmovne	esi, edi
	cmp	edx, -1
	sete	byte ptr [rsp + 6]
	mov	eax, esi
	cmove	eax, edi
	cmp	ecx, 10
	setl	byte ptr [rsp + 7]
	cmovge	eax, esi
	mov	rdi, qword ptr [r14]
	mov	edx, 336033194
	jmp	.LBB23_86
.LBB23_82:                              
	mov	dword ptr [rsp + 60], r12d
	mov	eax, dword ptr [rip + x.140]
	lea	ecx, [rax - 1]
	imul	ecx, eax
	mov	eax, ecx
	xor	eax, -2
	and	eax, ecx
	sete	cl
	test	eax, eax
	mov	r13d, -777965812
	mov	esi, -21575083
	cmove	r13d, esi
	cmp	dword ptr [rip + y.141], 10
	setl	al
	mov	edx, -777965812
	jmp	.LBB23_54
.LBB23_76:                              
	mov	al, byte ptr [rsp + 23]
	test	al, al
	mov	r13d, 1489860015
	mov	eax, -1150537149
	cmovne	r13d, eax
	mov	r12d, dword ptr [rsp + 36]
	jmp	.LBB23_5
.LBB23_83:                              
	dec	qword ptr [rsp + 24]
	mov	eax, dword ptr [rip + x.140]
	lea	ecx, [rax - 1]
	imul	ecx, eax
	not	ecx
	or	ecx, -2
	cmp	ecx, -1
	sete	al
	mov	r13d, -777965812
	mov	edx, -754824022
	cmove	r13d, edx
	cmp	dword ptr [rip + y.141], 10
	setl	cl
	mov	esi, -777965812
	cmovge	r13d, esi
	xor	cl, al
	cmovne	r13d, edx
	jmp	.LBB23_5
.LBB23_84:                              
	mov	r15d, dword ptr [rsp + 60]
	mov	r13d, -692395265
	jmp	.LBB23_5
.LBB23_66:                              
	mov	eax, dword ptr [rip + x.190]
	mov	ecx, dword ptr [rip + y.191]
	lea	edx, [rax - 1]
	imul	edx, eax
	not	edx
	or	edx, -2
	cmp	edx, -1
	sete	dl
	sete	byte ptr [rsp + 6]
	mov	eax, -1137079350
	mov	esi, 273113515
	cmove	eax, esi
	cmp	ecx, 10
	setl	cl
	setl	byte ptr [rsp + 7]
	mov	edi, -1137079350
	cmovge	eax, edi
	xor	cl, dl
	cmovne	eax, esi
	mov	rsi, qword ptr [rsp + 24]
	dec	rsi
	mov	edx, 1088801509
	jmp	.LBB23_67
.LBB23_105:                             
	dec	qword ptr [rsp + 24]
	mov	r13d, -21575083
	jmp	.LBB23_5
.LBB23_102:                             
	movzx	eax, byte ptr [rsp + 6]
	movzx	edx, byte ptr [rsp + 7]
	mov	ebx, eax
	xor	bl, dl
	mov	ebx, -1511853027
	mov	edi, 2092656913
	cmovne	ebx, edi
	test	dl, dl
	mov	esi, ebx
	cmovne	esi, edi
	test	al, al
	cmove	esi, ebx
	.p2align	4, 0x90
.LBB23_19:                              

	cmp	esi, 1978003097
	jg	.LBB23_100

	cmp	esi, -1511853027
	je	.LBB23_104

	cmp	esi, -901066291
	jne	.LBB23_19
	jmp	.LBB23_22
	.p2align	4, 0x90
.LBB23_100:                             
	cmp	esi, 2092656913
	je	.LBB23_103

	cmp	esi, 1978003098
	jne	.LBB23_19
	jmp	.LBB23_102
.LBB23_104:                             
	mov	esi, 2092656913
	jmp	.LBB23_19
.LBB23_103:                             
	mov	qword ptr [rsp + 8], r8
	mov	esi, ecx
	jmp	.LBB23_19
.LBB23_55:                              
	mov	eax, dword ptr [rip + x.188]
	mov	ecx, dword ptr [rip + y.189]
	mov	edx, eax
	neg	edx
	not	edx
	imul	edx, eax
	mov	eax, edx
	xor	eax, -2
	and	eax, edx
	sete	dl
	sete	byte ptr [rsp + 6]
	cmp	ecx, 10
	setl	bl
	xor	bl, dl
	mov	edx, 1731944481
	mov	esi, 1278958967
	cmovne	edx, esi
	test	eax, eax
	mov	eax, edx
	cmove	eax, esi
	cmp	ecx, 10
	setl	byte ptr [rsp + 7]
	cmovge	eax, edx
	mov	rdi, qword ptr [r14]
	mov	edx, 336033194
	jmp	.LBB23_56
.LBB23_97:                              
	movzx	ecx, byte ptr [rsp + 6]
	movzx	edx, byte ptr [rsp + 7]
	mov	ebx, ecx
	xor	bl, dl
	mov	edi, -1137079350
	mov	ebp, 1530750439
	cmovne	edi, ebp
	test	dl, dl
	mov	edx, edi
	cmovne	edx, ebp
	test	cl, cl
	cmove	edx, edi
	.p2align	4, 0x90
.LBB23_42:                              

	cmp	edx, 1088801508
	jg	.LBB23_95

	cmp	edx, -1137079350
	je	.LBB23_99

	cmp	edx, 273113515
	jne	.LBB23_42
	jmp	.LBB23_45
	.p2align	4, 0x90
.LBB23_95:                              
	cmp	edx, 1530750439
	je	.LBB23_98

	cmp	edx, 1088801509
	jne	.LBB23_42
	jmp	.LBB23_97
.LBB23_99:                              
	mov	edx, 1530750439
	jmp	.LBB23_42
.LBB23_98:                              
	mov	qword ptr [rsp + 8], rsi
	mov	edx, eax
	jmp	.LBB23_42
.LBB23_65:                              
	mov	al, byte ptr [rsp + 22]
	test	al, al
	mov	r13d, 1223900072
	mov	eax, 2033275196
	cmovne	r13d, eax
	jmp	.LBB23_5
.LBB23_79:                              
	movzx	eax, byte ptr [rsp + 6]
	movzx	edx, byte ptr [rsp + 7]
	mov	ebx, eax
	xor	bl, dl
	test	dl, dl
	mov	esi, -1511853027
	mov	edx, 2092656913
	cmovne	esi, edx
	test	al, al
	mov	eax, -1511853027
	cmove	esi, eax
	test	bl, bl
	cmovne	esi, edx
	.p2align	4, 0x90
.LBB23_30:                              

	cmp	esi, 1978003097
	jg	.LBB23_77

	cmp	esi, -1511853027
	je	.LBB23_81

	cmp	esi, -901066291
	jne	.LBB23_30
	jmp	.LBB23_33
	.p2align	4, 0x90
.LBB23_77:                              
	cmp	esi, 2092656913
	je	.LBB23_80

	cmp	esi, 1978003098
	jne	.LBB23_30
	jmp	.LBB23_79
.LBB23_81:                              
	mov	esi, 2092656913
	jmp	.LBB23_30
.LBB23_80:                              
	mov	qword ptr [rsp + 8], rdi
	mov	esi, ecx
	jmp	.LBB23_30
.LBB23_93:                              
	movzx	ecx, byte ptr [rsp + 6]
	movzx	edx, byte ptr [rsp + 7]
	mov	ebx, ecx
	xor	bl, dl
	test	dl, dl
	mov	edx, 1731944481
	mov	esi, 989495392
	cmovne	edx, esi
	test	cl, cl
	mov	ecx, 1731944481
	cmove	edx, ecx
	test	bl, bl
	cmovne	edx, esi
	.p2align	4, 0x90
.LBB23_86:                              

	mov	esi, edx
	and	esi, 2147483647
	cmp	esi, 1278958966
	jg	.LBB23_90

	cmp	esi, 336033194
	je	.LBB23_93

	cmp	esi, 989495392
	jne	.LBB23_86

	mov	qword ptr [rsp + 8], rdi
	mov	edx, eax
	jmp	.LBB23_86
	.p2align	4, 0x90
.LBB23_90:                              
	cmp	esi, 1278958967
	je	.LBB23_94

	cmp	esi, 1731944481
	jne	.LBB23_86

	mov	qword ptr [rsp + 8], rdi
	mov	edx, 989495392
	jmp	.LBB23_86
.LBB23_73:                              
	movzx	ecx, byte ptr [rsp + 6]
	movzx	edx, byte ptr [rsp + 7]
	mov	ebx, ecx
	xor	bl, dl
	test	dl, dl
	mov	edx, -1137079350
	mov	edi, 1530750439
	cmovne	edx, edi
	test	cl, cl
	mov	ecx, -1137079350
	cmove	edx, ecx
	test	bl, bl
	cmovne	edx, edi
	.p2align	4, 0x90
.LBB23_67:                              

	cmp	edx, 1088801508
	jg	.LBB23_71

	cmp	edx, -1137079350
	je	.LBB23_75

	cmp	edx, 273113515
	jne	.LBB23_67
	jmp	.LBB23_70
	.p2align	4, 0x90
.LBB23_71:                              
	cmp	edx, 1530750439
	je	.LBB23_74

	cmp	edx, 1088801509
	jne	.LBB23_67
	jmp	.LBB23_73
.LBB23_75:                              
	mov	edx, 1530750439
	jmp	.LBB23_67
.LBB23_74:                              
	mov	qword ptr [rsp + 8], rsi
	mov	edx, eax
	jmp	.LBB23_67
.LBB23_22:                              
	mov	rax, qword ptr [rsp + 8]
	add	rbp, rax
	mov	qword ptr [rsp + 48], rbp
	mov	rax, qword ptr [rsp + 24]
	mov	qword ptr [rsp + 40], rax
	lea	rdi, [rsp + 48]
	lea	rsi, [rsp + 40]
	call	_ZSt8distanceISt16reverse_iteratorIN9__gnu_cxx17__normal_iteratorIPKcNSt7__cxx1112basic_stringIcSt11char_traitsIcESaIcEEEEEEENSt15iterator_traitsIT_E15difference_typeESE_SE_
	mov	eax, dword ptr [rsp + 36]
	mov	r13d, -583391600
	jmp	.LBB23_5
.LBB23_63:                              
	movzx	ecx, byte ptr [rsp + 6]
	movzx	edx, byte ptr [rsp + 7]
	mov	ebx, ecx
	xor	bl, dl
	mov	esi, 1731944481
	mov	ebp, 989495392
	cmovne	esi, ebp
	test	dl, dl
	mov	edx, esi
	cmovne	edx, ebp
	test	cl, cl
	cmove	edx, esi
	.p2align	4, 0x90
.LBB23_56:                              

	mov	esi, edx
	and	esi, 2147483647
	cmp	esi, 1278958966
	jg	.LBB23_60

	cmp	esi, 336033194
	je	.LBB23_63

	cmp	esi, 989495392
	jne	.LBB23_56

	mov	qword ptr [rsp + 8], rdi
	mov	edx, eax
	jmp	.LBB23_56
	.p2align	4, 0x90
.LBB23_60:                              
	cmp	esi, 1278958967
	je	.LBB23_64

	cmp	esi, 1731944481
	jne	.LBB23_56

	mov	qword ptr [rsp + 8], rdi
	mov	edx, 989495392
	jmp	.LBB23_56
.LBB23_45:                              
	mov	rax, qword ptr [rsp + 8]
	mov	r13d, 1542932774
	jmp	.LBB23_5
.LBB23_33:                              
	mov	rax, qword ptr [rsp + 8]
	add	rbp, rax
	mov	qword ptr [rsp + 48], rbp
	mov	rax, qword ptr [rsp + 24]
	mov	qword ptr [rsp + 40], rax
	lea	rdi, [rsp + 48]
	lea	rsi, [rsp + 40]
	call	_ZSt8distanceISt16reverse_iteratorIN9__gnu_cxx17__normal_iteratorIPKcNSt7__cxx1112basic_stringIcSt11char_traitsIcESaIcEEEEEEENSt15iterator_traitsIT_E15difference_typeESE_SE_
	mov	ecx, dword ptr [rip + x.140]
	mov	edx, dword ptr [rip + y.141]
	lea	esi, [rcx - 1]
	imul	esi, ecx
	not	esi
	or	esi, -2
	cmp	esi, -1
	sete	cl
	cmp	edx, 10
	setl	bl
	xor	bl, cl
	mov	ecx, -775313681
	mov	edi, 121240600
	cmovne	ecx, edi
	cmp	esi, -1
	mov	r13d, ecx
	cmove	r13d, edi
	cmp	edx, 10
	cvtsi2sd	xmm0, rax
	cmovge	r13d, ecx
	call	exp2
	cvtsi2sd	xmm1, dword ptr [rsp + 36]
	addsd	xmm1, xmm0
	cvttsd2si	eax, xmm1
	mov	dword ptr [rsp + 56], eax
	jmp	.LBB23_5
.LBB23_94:                              
	lea	rdi, [rsp + 24]
	lea	rsi, [rsp + 8]
	call	_ZStltIN9__gnu_cxx17__normal_iteratorIPKcNSt7__cxx1112basic_stringIcSt11char_traitsIcESaIcEEEEEEbRKSt16reverse_iteratorIT_ESF_
	mov	r13d, 127556681
	jmp	.LBB23_5
.LBB23_70:                              
	mov	rdi, qword ptr [rsp + 8]
	mov	ecx, dword ptr [rip + x.140]
	mov	edx, dword ptr [rip + y.141]
	lea	esi, [rcx - 1]
	imul	esi, ecx
	mov	ecx, esi
	xor	ecx, -2
	and	ecx, esi
	sete	bl
	cmp	edx, 10
	setl	al
	xor	al, bl
	mov	eax, 781629948
	mov	esi, -1863401595
	cmovne	eax, esi
	test	ecx, ecx
	mov	r13d, eax
	cmove	r13d, esi
	cmp	edx, 10
	cmovge	r13d, eax
	cmp	byte ptr [rdi], 49
	sete	byte ptr [rsp + 23]
	jmp	.LBB23_5
.LBB23_64:                              
	lea	rdi, [rsp + 24]
	lea	rsi, [rsp + 8]
	call	_ZStltIN9__gnu_cxx17__normal_iteratorIPKcNSt7__cxx1112basic_stringIcSt11char_traitsIcESaIcEEEEEEbRKSt16reverse_iteratorIT_ESF_
	mov	byte ptr [rsp + 22], al
	mov	eax, dword ptr [rip + x.140]
	mov	ecx, eax
	neg	ecx
	not	ecx
	imul	ecx, eax
	mov	eax, ecx
	xor	eax, -2
	and	eax, ecx
	sete	cl
	test	eax, eax
	mov	r13d, 798923003
	mov	esi, -662333453
	cmove	r13d, esi
	cmp	dword ptr [rip + y.141], 10
	setl	al
	mov	edx, 798923003
	jmp	.LBB23_54
.LBB23_50:
	mov	rax, qword ptr [rsp + 64]
	mov	eax, dword ptr [rsp + 36]
	add	rsp, 72
	pop	rbx
	pop	r12
	pop	r13
	pop	r14
	pop	r15
	pop	rbp
	ret
.Lfunc_end23:
	.size	_ZN3DES7bin2decERKNSt7__cxx1112basic_stringIcSt11char_traitsIcESaIcEEE, .Lfunc_end23-_ZN3DES7bin2decERKNSt7__cxx1112basic_stringIcSt11char_traitsIcESaIcEEE
	.cfi_endproc

	.section	.text._ZStplIcSt11char_traitsIcESaIcEENSt7__cxx1112basic_stringIT_T0_T1_EEOS8_S9_,"axG",@progbits,_ZStplIcSt11char_traitsIcESaIcEENSt7__cxx1112basic_stringIT_T0_T1_EEOS8_S9_,comdat
	.weak	_ZStplIcSt11char_traitsIcESaIcEENSt7__cxx1112basic_stringIT_T0_T1_EEOS8_S9_ 
	.p2align	4, 0x90
	.type	_ZStplIcSt11char_traitsIcESaIcEENSt7__cxx1112basic_stringIT_T0_T1_EEOS8_S9_,@function
_ZStplIcSt11char_traitsIcESaIcEENSt7__cxx1112basic_stringIT_T0_T1_EEOS8_S9_: 
.Lfunc_begin12:
	.cfi_startproc
	.cfi_personality 3, __gxx_personality_v0
	.cfi_lsda 3, .Lexception12

	push	rbp
.Lcfi201:
	.cfi_def_cfa_offset 16
	push	r15
.Lcfi202:
	.cfi_def_cfa_offset 24
	push	r14
.Lcfi203:
	.cfi_def_cfa_offset 32
	push	r13
.Lcfi204:
	.cfi_def_cfa_offset 40
	push	r12
.Lcfi205:
	.cfi_def_cfa_offset 48
	push	rbx
.Lcfi206:
	.cfi_def_cfa_offset 56
	sub	rsp, 56
.Lcfi207:
	.cfi_def_cfa_offset 112
.Lcfi208:
	.cfi_offset rbx, -56
.Lcfi209:
	.cfi_offset r12, -48
.Lcfi210:
	.cfi_offset r13, -40
.Lcfi211:
	.cfi_offset r14, -32
.Lcfi212:
	.cfi_offset r15, -24
.Lcfi213:
	.cfi_offset rbp, -16
	mov	r14, rdx
	mov	r15, rsi
	mov	qword ptr [rsp + 16], rdi 
	mov	eax, dword ptr [rip + x.274]
	mov	ebp, dword ptr [rip + y.275]
	lea	edx, [rax - 1]
	imul	edx, eax
	mov	eax, edx
	not	eax
	or	eax, -2
	cmp	eax, -1
	sete	bl
	cmp	ebp, 10
	setl	byte ptr [rsp + 7]
	setl	cl
	xor	cl, bl
	mov	esi, -901066291
	mov	ecx, -1511853027
	cmovne	ecx, esi
	cmp	eax, -1
	sete	byte ptr [rsp + 6]
	mov	r8d, -1511853027
	cmovne	esi, ecx
	cmp	ebp, 10
	cmovge	esi, ecx
	and	edx, 1
	mov	rdi, qword ptr [r15 + 8]
	mov	eax, 1978003098
	mov	r9d, 2092656913
	jmp	.LBB24_1
.LBB24_22:                              
	movzx	ecx, byte ptr [rsp + 6]
	movzx	eax, byte ptr [rsp + 7]
	mov	ebx, ecx
	xor	bl, al
	test	al, al
	mov	eax, -1511853027
	cmovne	eax, r9d
	test	cl, cl
	cmove	eax, r8d
	test	bl, bl
	cmovne	eax, r9d
	.p2align	4, 0x90
.LBB24_1:                               
	cmp	eax, 1978003097
	jg	.LBB24_20

	cmp	eax, -1511853027
	je	.LBB24_24

	cmp	eax, -901066291
	jne	.LBB24_1
	jmp	.LBB24_4
	.p2align	4, 0x90
.LBB24_20:                              
	cmp	eax, 2092656913
	je	.LBB24_23

	cmp	eax, 1978003098
	jne	.LBB24_1
	jmp	.LBB24_22
.LBB24_24:                              
	mov	eax, 2092656913
	jmp	.LBB24_1
.LBB24_23:                              
	mov	qword ptr [rsp + 8], rdi
	mov	eax, esi
	jmp	.LBB24_1
.LBB24_4:
	test	edx, edx
	mov	rdx, qword ptr [rsp + 8]
	sete	byte ptr [rsp + 6]
	cmp	ebp, 10
	setl	byte ptr [rsp + 7]
	mov	rbp, qword ptr [r14 + 8]
	mov	edi, 1978003098
	mov	r8d, 2092656913
	jmp	.LBB24_5
.LBB24_27:                              
	movzx	ecx, byte ptr [rsp + 6]
	movzx	eax, byte ptr [rsp + 7]
	mov	ebx, ecx
	xor	bl, al
	mov	ebx, -1511853027
	cmovne	ebx, r8d
	test	al, al
	mov	edi, ebx
	cmovne	edi, r8d
	test	cl, cl
	cmove	edi, ebx
	.p2align	4, 0x90
.LBB24_5:                               
	cmp	edi, 1978003097
	jg	.LBB24_25

	cmp	edi, -1511853027
	je	.LBB24_29

	cmp	edi, -901066291
	jne	.LBB24_5
	jmp	.LBB24_8
	.p2align	4, 0x90
.LBB24_25:                              
	cmp	edi, 2092656913
	je	.LBB24_28

	cmp	edi, 1978003098
	jne	.LBB24_5
	jmp	.LBB24_27
.LBB24_29:                              
	mov	edi, 2092656913
	jmp	.LBB24_5
.LBB24_28:                              
	mov	qword ptr [rsp + 8], rbp
	mov	edi, esi
	jmp	.LBB24_5
.LBB24_8:
	mov	rax, qword ptr [rsp + 8]
	neg	rdx
	sub	rax, rdx
	mov	qword ptr [rsp + 24], rax
.Ltmp185:
	mov	rdi, r15
	call	_ZNKSt7__cxx1112basic_stringIcSt11char_traitsIcESaIcEE11_M_is_localEv
.Ltmp186:

	test	al, al
	mov	ecx, 15
	mov	rax, qword ptr [r15 + 16]
	cmovne	rax, rcx
	mov	qword ptr [rsp + 40], rax
	mov	ecx, 1862694915


	mov	ebp, 2092656913
	jmp	.LBB24_10
.LBB24_40:                              
	cmovne	eax, esi
	cmp	ecx, -1
	mov	ecx, eax
	cmove	ecx, esi
	cmp	edx, 10
	cmovge	ecx, eax
	.p2align	4, 0x90
.LBB24_10:                              

	cmp	ecx, 76168452
	jg	.LBB24_35

	cmp	ecx, -1329048036
	jg	.LBB24_31

	cmp	ecx, -2042818594
	je	.LBB24_49

	cmp	ecx, -1726464279
	je	.LBB24_46

	cmp	ecx, -1518487626
	jne	.LBB24_10

	mov	rsi, qword ptr [r14]
	mov	eax, dword ptr [rip + x.274]
	mov	ecx, dword ptr [rip + y.275]
	lea	edx, [rax - 1]
	imul	edx, eax
	mov	eax, edx
	xor	eax, -2
	and	eax, edx
	sete	dl
	sete	byte ptr [rsp + 6]
	test	eax, eax
	mov	eax, -1511853027
	mov	edi, -901066291
	cmove	eax, edi
	cmp	ecx, 10
	setl	cl
	setl	byte ptr [rsp + 7]
	mov	ebx, -1511853027
	cmovge	eax, ebx
	xor	cl, dl
	cmovne	eax, edi
	mov	rdi, qword ptr [r14 + 8]
	mov	edx, 1978003098
	jmp	.LBB24_16
	.p2align	4, 0x90
.LBB24_35:                              
	cmp	ecx, 1116422920
	jg	.LBB24_41

	cmp	ecx, 76168453
	je	.LBB24_59

	cmp	ecx, 274819117
	je	.LBB24_58

	cmp	ecx, 400220596
	jne	.LBB24_10

	mov	eax, dword ptr [rip + x.142]
	mov	edx, dword ptr [rip + y.143]
	mov	ecx, eax
	neg	ecx
	not	ecx
	imul	ecx, eax
	not	ecx
	or	ecx, -2
	cmp	ecx, -1
	sete	al
	cmp	edx, 10
	setl	bl
	xor	bl, al
	mov	eax, 274819117
	mov	esi, -664801699
	jmp	.LBB24_40
	.p2align	4, 0x90
.LBB24_31:                              
	cmp	ecx, -1329048035
	je	.LBB24_57

	cmp	ecx, -664801699
	je	.LBB24_50

	cmp	ecx, 4253832
	jne	.LBB24_10

	mov	rsi, qword ptr [rsp + 32]
	mov	rdi, qword ptr [rsp + 16] 
	call	_ZNSt7__cxx1112basic_stringIcSt11char_traitsIcESaIcEEC2EOS4_
	mov	eax, dword ptr [rip + x.142]
	mov	edx, dword ptr [rip + y.143]
	lea	ecx, [rax - 1]
	imul	ecx, eax
	not	ecx
	or	ecx, -2
	cmp	ecx, -1
	sete	al
	cmp	edx, 10
	setl	bl
	xor	bl, al
	mov	eax, 76168453
	mov	esi, 1116422921
	jmp	.LBB24_40
	.p2align	4, 0x90
.LBB24_41:                              
	cmp	ecx, 1460504913
	je	.LBB24_51

	cmp	ecx, 1862694915
	je	.LBB24_45

	cmp	ecx, 1116422921
	jne	.LBB24_10
	jmp	.LBB24_44
.LBB24_49:                              
	test	r13b, 1
	mov	ecx, -1518487626
	mov	eax, 400220596
	cmovne	ecx, eax
	jmp	.LBB24_10
.LBB24_46:                              
.Ltmp188:
	mov	rdi, r14
	call	_ZNKSt7__cxx1112basic_stringIcSt11char_traitsIcESaIcEE11_M_is_localEv
.Ltmp189:

	test	al, al
	mov	rax, qword ptr [r14 + 16]
	mov	ecx, 15
	cmovne	rax, rcx
	mov	rcx, qword ptr [rsp + 24]
	cmp	rcx, rax
	setbe	r13b
	mov	ecx, -2042818594
	jmp	.LBB24_10
.LBB24_54:                              
	movzx	ecx, byte ptr [rsp + 6]
	movzx	edx, byte ptr [rsp + 7]
	mov	ebx, ecx
	xor	bl, dl
	test	dl, dl
	mov	edx, -1511853027
	cmovne	edx, ebp
	test	cl, cl
	mov	ecx, -1511853027
	cmove	edx, ecx
	test	bl, bl
	cmovne	edx, ebp
	.p2align	4, 0x90
.LBB24_16:                              

	cmp	edx, 1978003097
	jg	.LBB24_52

	cmp	edx, -1511853027
	je	.LBB24_56

	cmp	edx, -901066291
	jne	.LBB24_16
	jmp	.LBB24_19
	.p2align	4, 0x90
.LBB24_52:                              
	cmp	edx, 2092656913
	je	.LBB24_55

	cmp	edx, 1978003098
	jne	.LBB24_16
	jmp	.LBB24_54
.LBB24_56:                              
	mov	edx, 2092656913
	jmp	.LBB24_16
.LBB24_55:                              
	mov	qword ptr [rsp + 8], rdi
	mov	edx, eax
	jmp	.LBB24_16
.LBB24_59:                              
	mov	rsi, qword ptr [rsp + 32]
	mov	rdi, qword ptr [rsp + 16] 
	call	_ZNSt7__cxx1112basic_stringIcSt11char_traitsIcESaIcEEC2EOS4_
	mov	ecx, 4253832
	jmp	.LBB24_10
.LBB24_58:                              
	xor	esi, esi
	mov	rdi, r14
	mov	rdx, r15
	call	_ZNSt7__cxx1112basic_stringIcSt11char_traitsIcESaIcEE6insertEmRKS4_
	mov	ecx, -664801699
	jmp	.LBB24_10
.LBB24_57:                              
	mov	eax, dword ptr [rip + x.142]
	mov	edx, dword ptr [rip + y.143]
	lea	ecx, [rax - 1]
	imul	ecx, eax
	mov	eax, ecx
	xor	eax, -2
	and	eax, ecx
	sete	cl
	cmp	edx, 10
	setl	bl
	xor	bl, cl
	mov	esi, 76168453
	mov	edi, 4253832
	cmovne	esi, edi
	test	eax, eax
	mov	ecx, esi
	cmove	ecx, edi
	cmp	edx, 10
	mov	qword ptr [rsp + 32], r12
	cmovge	ecx, esi
	jmp	.LBB24_10
.LBB24_50:                              
	xor	esi, esi
	mov	rdi, r14
	mov	rdx, r15
	call	_ZNSt7__cxx1112basic_stringIcSt11char_traitsIcESaIcEE6insertEmRKS4_
	mov	qword ptr [rsp + 48], rax
	mov	eax, dword ptr [rip + x.142]
	mov	ecx, eax
	neg	ecx
	not	ecx
	imul	ecx, eax
	not	ecx
	or	ecx, -2
	cmp	ecx, -1
	sete	al
	mov	ecx, 274819117
	mov	esi, 1460504913
	cmove	ecx, esi
	cmp	dword ptr [rip + y.143], 10
	setl	dl
	mov	edi, 274819117
	cmovge	ecx, edi
	xor	dl, al
	cmovne	ecx, esi
	jmp	.LBB24_10
.LBB24_51:                              
	mov	ecx, -1329048035
	mov	r12, qword ptr [rsp + 48]
	jmp	.LBB24_10
.LBB24_45:                              
	mov	rax, qword ptr [rsp + 24]
	cmp	rax, qword ptr [rsp + 40]
	mov	ecx, -2042818594
	mov	eax, -1726464279
	cmova	ecx, eax
	xor	r13d, r13d
	jmp	.LBB24_10
.LBB24_19:                              
	mov	rdx, qword ptr [rsp + 8]
	mov	rdi, r15
	call	_ZNSt7__cxx1112basic_stringIcSt11char_traitsIcESaIcEE9_M_appendEPKcm
	mov	r12, rax
	mov	ecx, -1329048035
	jmp	.LBB24_10
.LBB24_44:
	mov	rax, qword ptr [rsp + 16] 
	add	rsp, 56
	pop	rbx
	pop	r12
	pop	r13
	pop	r14
	pop	r15
	pop	rbp
	ret
.LBB24_30:
.Ltmp187:
	mov	rdi, rax
	call	__clang_call_terminate
.LBB24_48:
.Ltmp190:
	mov	rdi, rax
	call	__clang_call_terminate
.Lfunc_end24:
	.size	_ZStplIcSt11char_traitsIcESaIcEENSt7__cxx1112basic_stringIT_T0_T1_EEOS8_S9_, .Lfunc_end24-_ZStplIcSt11char_traitsIcESaIcEENSt7__cxx1112basic_stringIT_T0_T1_EEOS8_S9_
	.cfi_endproc
	.section	.gcc_except_table,"a",@progbits
	.p2align	2
GCC_except_table24:
.Lexception12:
	.byte	255                     
	.byte	3                       
	.asciz	"\257\200"              
	.byte	3                       
	.byte	39                      
	.long	.Ltmp185-.Lfunc_begin12 
	.long	.Ltmp186-.Ltmp185       
	.long	.Ltmp187-.Lfunc_begin12 
	.byte	1                       
	.long	.Ltmp188-.Lfunc_begin12 
	.long	.Ltmp189-.Ltmp188       
	.long	.Ltmp190-.Lfunc_begin12 
	.byte	1                       
	.long	.Ltmp189-.Lfunc_begin12 
	.long	.Lfunc_end24-.Ltmp189   
	.long	0                       
	.byte	0                       
	.byte	1                       

	.byte	0                       

	.long	0                       
	.p2align	2

	.text
	.globl	_ZN3DES13straightPermuERKNSt7__cxx1112basic_stringIcSt11char_traitsIcESaIcEEE 
	.p2align	4, 0x90
	.type	_ZN3DES13straightPermuERKNSt7__cxx1112basic_stringIcSt11char_traitsIcESaIcEEE,@function
_ZN3DES13straightPermuERKNSt7__cxx1112basic_stringIcSt11char_traitsIcESaIcEEE: 
.Lfunc_begin13:
	.cfi_startproc
	.cfi_personality 3, __gxx_personality_v0
	.cfi_lsda 3, .Lexception13

	push	rbp
.Lcfi214:
	.cfi_def_cfa_offset 16
	push	r15
.Lcfi215:
	.cfi_def_cfa_offset 24
	push	r14
.Lcfi216:
	.cfi_def_cfa_offset 32
	push	r13
.Lcfi217:
	.cfi_def_cfa_offset 40
	push	r12
.Lcfi218:
	.cfi_def_cfa_offset 48
	push	rbx
.Lcfi219:
	.cfi_def_cfa_offset 56
	sub	rsp, 152
.Lcfi220:
	.cfi_def_cfa_offset 208
.Lcfi221:
	.cfi_offset rbx, -56
.Lcfi222:
	.cfi_offset r12, -48
.Lcfi223:
	.cfi_offset r13, -40
.Lcfi224:
	.cfi_offset r14, -32
.Lcfi225:
	.cfi_offset r15, -24
.Lcfi226:
	.cfi_offset rbp, -16
	lea	rax, [rsp + 144]
	mov	qword ptr [rsp + 128], rax
	lea	rax, [rsp + 72]
	mov	qword ptr [rsp + 88], rax
	mov	rax, qword ptr [rsp + 88]
	mov	eax, dword ptr [rip + x.202]
	mov	ecx, dword ptr [rip + y.203]
	lea	edx, [rax - 1]
	imul	edx, eax
	not	edx
	or	edx, -2
	cmp	edx, -1
	sete	al
	cmp	ecx, 10
	setl	bl
	xor	bl, al
	mov	eax, -509641745
	mov	ebp, -903518113
	cmovne	ebp, eax
	cmp	edx, -1
	sete	byte ptr [rsp + 16]
	cmovne	eax, ebp
	cmp	ecx, 10
	setl	byte ptr [rsp + 40]
	mov	r13, rsi
	mov	qword ptr [rsp + 120], rdi 
	cmovge	eax, ebp
	mov	edx, 1511383347
	mov	esi, 858164122
	jmp	.LBB25_1
.LBB25_21:                              
	movzx	ecx, byte ptr [rsp + 16]
	movzx	edx, byte ptr [rsp + 40]
	mov	ebx, ecx
	xor	bl, dl
	mov	edi, -903518113
	cmovne	edi, esi
	test	dl, dl
	mov	edx, edi
	cmovne	edx, esi
	test	cl, cl
	cmove	edx, edi
	.p2align	4, 0x90
.LBB25_1:                               
	cmp	edx, 858164121
	jg	.LBB25_19

	cmp	edx, -903518113
	je	.LBB25_23

	cmp	edx, -509641745
	jne	.LBB25_1
	jmp	.LBB25_4
	.p2align	4, 0x90
.LBB25_19:                              
	cmp	edx, 858164122
	je	.LBB25_22

	cmp	edx, 1511383347
	jne	.LBB25_1
	jmp	.LBB25_21
.LBB25_23:                              
	mov	qword ptr [rsp + 72], 0
	mov	edx, 858164122
	jmp	.LBB25_1
.LBB25_22:                              
	mov	qword ptr [rsp + 72], 0
	mov	edx, eax
	jmp	.LBB25_1
.LBB25_4:
	movabs	rcx, -1992949709068221831
	lea	r15, [rsp + 32]
	mov	qword ptr [rsp + 96], r15
	mov	rax, qword ptr [rsp + 96]
	mov	r12, qword ptr [r13]
	mov	eax, 2107524827
	mov	r8d, -901066291
	mov	r9d, -1511853027
	mov	r10d, 1534441363
	mov	r11d, -369009728
	mov	r14d, -1921148854
	mov	edx, 31
	sub	edx, ecx
	mov	dword ptr [rsp + 84], edx 
	jmp	.LBB25_5
.LBB25_108:                             
	inc	qword ptr [rsp + 32]
	mov	eax, 494912845
	.p2align	4, 0x90
.LBB25_5:                               








	cmp	eax, 494912844
	jg	.LBB25_29

	cmp	eax, 180655792
	jg	.LBB25_24

	cmp	eax, -1908200659
	je	.LBB25_108

	cmp	eax, -1058439452
	je	.LBB25_88

	cmp	eax, -860096253
	jne	.LBB25_5

	mov	rax, qword ptr [rsp + 112]
	mov	rcx, qword ptr [rsp + 104]
	mov	qword ptr [rax], rcx
	mov	rbp, qword ptr [r13]
	mov	ecx, dword ptr [rip + x.274]
	mov	edx, dword ptr [rip + y.275]
	lea	esi, [rcx - 1]
	imul	esi, ecx
	not	esi
	or	esi, -2
	cmp	esi, -1
	sete	cl
	cmp	edx, 10
	setl	bl
	xor	bl, cl
	mov	edi, -1511853027
	cmovne	edi, r8d
	cmp	esi, -1
	sete	byte ptr [rsp + 15]
	mov	ecx, edi
	cmove	ecx, r8d
	cmp	edx, 10
	setl	byte ptr [rsp + 16]
	cmovge	ecx, edi
	mov	rdi, qword ptr [r13 + 8]
	mov	esi, 1978003098
	jmp	.LBB25_11
	.p2align	4, 0x90
.LBB25_29:                              
	cmp	eax, 1814648651
	jle	.LBB25_30

	cmp	eax, 1814648652
	je	.LBB25_89

	cmp	eax, 2093036370
	je	.LBB25_51

	cmp	eax, 2107524827
	jne	.LBB25_5

	mov	eax, dword ptr [rip + x.150]
	mov	ecx, dword ptr [rip + y.151]
	lea	edx, [rax - 1]
	imul	edx, eax
	mov	eax, edx
	xor	eax, -2
	and	eax, edx
	sete	dl
	cmp	ecx, 10
	setl	bl
	xor	bl, dl
	mov	edx, 1814648652
	mov	esi, -860096253
	cmovne	edx, esi
	test	eax, eax
	mov	eax, edx
	cmove	eax, esi
	cmp	ecx, 10
	mov	qword ptr [rsp + 104], r12
	mov	qword ptr [rsp + 112], r15
	cmovge	eax, edx
	jmp	.LBB25_5
	.p2align	4, 0x90
.LBB25_24:                              
	cmp	eax, 180655793
	je	.LBB25_86

	cmp	eax, 401658764
	je	.LBB25_53

	cmp	eax, 244668153
	jne	.LBB25_5
	jmp	.LBB25_27
	.p2align	4, 0x90
.LBB25_30:                              
	cmp	eax, 494912845
	je	.LBB25_87

	cmp	eax, 1677034521
	jne	.LBB25_5

	mov	edi, _ZN3DES24straightPermutationTableE
	call	_ZNKSt5arrayIiLm32EE5beginEv
	mov	r14, rax
	mov	edi, _ZN3DES24straightPermutationTableE
	call	_ZNKSt5arrayIiLm32EE5beginEv
	mov	ecx, dword ptr [rip + x.228]
	mov	edx, dword ptr [rip + y.229]
	lea	esi, [rcx - 1]
	imul	esi, ecx
	not	esi
	or	esi, -2
	cmp	esi, -1
	sete	bl
	sete	byte ptr [rsp + 15]
	mov	ecx, -1939407832
	mov	esi, 1158246676
	cmove	ecx, esi
	cmp	edx, 10
	setl	dl
	setl	byte ptr [rsp + 16]
	mov	edi, -1939407832
	cmovge	ecx, edi
	xor	dl, bl
	cmovne	ecx, esi
	mov	edx, -183789696
	jmp	.LBB25_33
.LBB25_88:                              
	mov	r15, qword ptr [rsp + 128]
	mov	r12, qword ptr [rsp + 136]
	mov	eax, 2107524827
	jmp	.LBB25_5
.LBB25_43:                              
	movzx	edx, byte ptr [rsp + 15]
	movzx	eax, byte ptr [rsp + 16]
	mov	ebx, edx
	xor	bl, al
	test	al, al
	mov	esi, -1511853027
	mov	eax, 2092656913
	cmovne	esi, eax
	test	dl, dl
	cmove	esi, r9d
	test	bl, bl
	cmovne	esi, eax
	.p2align	4, 0x90
.LBB25_11:                              

	cmp	esi, 1978003097
	jg	.LBB25_41

	cmp	esi, -1511853027
	je	.LBB25_45

	cmp	esi, -901066291
	jne	.LBB25_11
	jmp	.LBB25_14
	.p2align	4, 0x90
.LBB25_41:                              
	cmp	esi, 2092656913
	je	.LBB25_44

	cmp	esi, 1978003098
	jne	.LBB25_11
	jmp	.LBB25_43
.LBB25_45:                              
	mov	esi, 2092656913
	jmp	.LBB25_11
.LBB25_44:                              
	mov	qword ptr [rsp + 40], rdi
	mov	esi, ecx
	jmp	.LBB25_11
.LBB25_89:                              
	mov	rax, qword ptr [rsp + 112]
	mov	rcx, qword ptr [rsp + 104]
	mov	qword ptr [rax], rcx
	mov	rdi, qword ptr [r13]
	mov	ecx, dword ptr [rip + x.274]
	mov	edx, dword ptr [rip + y.275]
	lea	esi, [rcx - 1]
	imul	esi, ecx
	not	esi
	or	esi, -2
	cmp	esi, -1
	sete	byte ptr [rsp + 15]
	sete	bl
	mov	ecx, -1511853027
	cmove	ecx, r8d
	cmp	edx, 10
	setl	dl
	setl	byte ptr [rsp + 16]
	cmovge	ecx, r9d
	xor	dl, bl
	cmovne	ecx, r8d
	mov	rbp, qword ptr [r13 + 8]
	mov	esi, 1978003098
	jmp	.LBB25_90
.LBB25_51:                              
	mov	al, byte ptr [rsp + 30]
	test	al, al
	mov	eax, 244668153
	mov	ecx, 401658764
	cmovne	eax, ecx
	jmp	.LBB25_5
.LBB25_86:                              
	mov	eax, dword ptr [rip + x.150]
	mov	ecx, dword ptr [rip + y.151]
	lea	edx, [rax - 1]
	imul	edx, eax
	mov	eax, edx
	xor	eax, -2
	and	eax, edx
	sete	dl
	cmp	ecx, 10
	setl	bl
	xor	bl, dl
	mov	edx, -1908200659
	mov	esi, 494912845
	cmovne	edx, esi
	test	eax, eax
	mov	eax, edx
	cmove	eax, esi
	cmp	ecx, 10
	cmovge	eax, edx
	jmp	.LBB25_5
.LBB25_53:                              
	mov	rax, qword ptr [rsp + 32]
	cmp	byte ptr [rax], 49
	mov	eax, 180655793
	mov	ecx, 1677034521
	cmove	eax, ecx
	jmp	.LBB25_5
.LBB25_87:                              
	mov	rax, qword ptr [rsp + 32]
	lea	rcx, [rax + 1]
	mov	qword ptr [rsp + 32], rcx
	mov	qword ptr [rsp + 136], rax
	mov	eax, dword ptr [rip + x.150]
	lea	ecx, [rax - 1]
	imul	ecx, eax
	not	ecx
	or	ecx, -2
	cmp	ecx, -1
	sete	cl
	mov	eax, -1908200659
	mov	edi, -1058439452
	cmove	eax, edi
	cmp	dword ptr [rip + y.151], 10
	setl	dl
	mov	esi, -1908200659
	cmovge	eax, esi
	xor	dl, cl
	cmovne	eax, edi
	jmp	.LBB25_5
.LBB25_56:                              
	movzx	esi, byte ptr [rsp + 15]
	movzx	edx, byte ptr [rsp + 16]
	mov	ebx, esi
	xor	bl, dl
	test	dl, dl
	mov	edx, -1939407832
	mov	edi, -1471996181
	cmovne	edx, edi
	test	sil, sil
	mov	esi, -1939407832
	cmove	edx, esi
	test	bl, bl
	cmovne	edx, edi
	.p2align	4, 0x90
.LBB25_33:                              

	cmp	edx, -183789697
	jg	.LBB25_54

	cmp	edx, -1939407832
	je	.LBB25_57

	cmp	edx, -1471996181
	jne	.LBB25_33

	mov	qword ptr [rsp + 40], _ZN3DES24straightPermutationTableE
	mov	edx, ecx
	jmp	.LBB25_33
	.p2align	4, 0x90
.LBB25_54:                              
	cmp	edx, 1158246676
	je	.LBB25_58

	cmp	edx, -183789696
	jne	.LBB25_33
	jmp	.LBB25_56
.LBB25_57:                              
	mov	edx, -1471996181
	jmp	.LBB25_33
.LBB25_14:                              
	mov	rax, qword ptr [rsp + 40]
	add	rbp, rax
	mov	eax, dword ptr [rip + x.86]
	mov	edx, dword ptr [rip + y.87]
	lea	ecx, [rax - 1]
	imul	ecx, eax
	mov	eax, ecx
	xor	eax, -2
	and	eax, ecx
	sete	bl
	sete	byte ptr [rsp + 15]
	test	eax, eax
	mov	ecx, -369009728
	cmove	ecx, r10d
	cmp	edx, 10
	setl	al
	setl	byte ptr [rsp + 16]
	mov	rdi, qword ptr [rsp + 32]
	cmovge	ecx, r11d
	xor	al, bl
	cmovne	ecx, r10d
	mov	esi, 2143172987
	jmp	.LBB25_15
.LBB25_100:                             
	movzx	edx, byte ptr [rsp + 15]
	movzx	eax, byte ptr [rsp + 16]
	mov	ebx, edx
	xor	bl, al
	test	al, al
	mov	esi, -1511853027
	mov	eax, 2092656913
	cmovne	esi, eax
	test	dl, dl
	cmove	esi, r9d
	test	bl, bl
	cmovne	esi, eax
	.p2align	4, 0x90
.LBB25_90:                              

	cmp	esi, 1978003097
	jg	.LBB25_98

	cmp	esi, -1511853027
	je	.LBB25_102

	cmp	esi, -901066291
	jne	.LBB25_90
	jmp	.LBB25_93
	.p2align	4, 0x90
.LBB25_98:                              
	cmp	esi, 2092656913
	je	.LBB25_101

	cmp	esi, 1978003098
	jne	.LBB25_90
	jmp	.LBB25_100
.LBB25_102:                             
	mov	esi, 2092656913
	jmp	.LBB25_90
.LBB25_101:                             
	mov	qword ptr [rsp + 40], rbp
	mov	esi, ecx
	jmp	.LBB25_90
.LBB25_58:                              
	mov	rsi, qword ptr [rsp + 40]
	mov	r8, qword ptr [r13]
	mov	r9, qword ptr [rsp + 32]
	mov	edi, dword ptr [rip + x.214]
	mov	ebp, dword ptr [rip + y.215]
	lea	ebx, [rdi - 1]
	imul	ebx, edi
	not	ebx
	or	ebx, -2
	cmp	ebx, -1
	sete	bl
	sete	byte ptr [rsp + 16]
	mov	edi, -594789007
	mov	ecx, 1557069072
	cmove	edi, ecx
	cmp	ebp, 10
	setl	dl
	setl	byte ptr [rsp + 40]
	mov	ebp, -594789007
	cmovge	edi, ebp
	xor	dl, bl
	cmovne	edi, ecx
	mov	ebp, 680917234
	jmp	.LBB25_59
.LBB25_48:                              
	movzx	edx, byte ptr [rsp + 15]
	movzx	ebx, byte ptr [rsp + 16]
	mov	eax, edx
	xor	al, bl
	mov	eax, -369009728
	cmovne	eax, r14d
	test	bl, bl
	mov	esi, eax
	cmovne	esi, r14d
	test	dl, dl
	cmove	esi, eax
	.p2align	4, 0x90
.LBB25_15:                              

	cmp	esi, 1534441362
	jg	.LBB25_46

	cmp	esi, -1921148854
	je	.LBB25_49

	cmp	esi, -369009728
	jne	.LBB25_15

	mov	esi, -1921148854
	jmp	.LBB25_15
	.p2align	4, 0x90
.LBB25_46:                              
	cmp	esi, 1534441363
	je	.LBB25_50

	cmp	esi, 2143172987
	jne	.LBB25_15
	jmp	.LBB25_48
.LBB25_49:                              
	cmp	rdi, rbp
	setb	byte ptr [rsp + 40]
	mov	esi, ecx
	jmp	.LBB25_15
.LBB25_93:                              
	mov	rbp, qword ptr [rsp + 40]
	mov	ecx, dword ptr [rip + x.86]
	mov	edx, dword ptr [rip + y.87]
	lea	esi, [rcx - 1]
	imul	esi, ecx
	mov	ecx, esi
	xor	ecx, -2
	cmp	edx, 10
	setl	bl
	setl	byte ptr [rsp + 16]
	and	ecx, esi
	sete	al
	sete	byte ptr [rsp + 15]
	xor	al, bl
	mov	eax, -369009728
	cmovne	eax, r10d
	test	ecx, ecx
	mov	ecx, eax
	cmove	ecx, r10d
	cmp	edx, 10
	cmovge	ecx, eax
	add	rdi, rbp
	mov	rbp, qword ptr [rsp + 32]
	mov	esi, 2143172987
	jmp	.LBB25_94
.LBB25_62:                              
	mov	ebp, edi
	.p2align	4, 0x90
.LBB25_59:                              

	cmp	ebp, 680917233
	jg	.LBB25_63

	cmp	ebp, -594789007
	je	.LBB25_66

	cmp	ebp, -348105442
	jne	.LBB25_59
	jmp	.LBB25_62
	.p2align	4, 0x90
.LBB25_63:                              
	cmp	ebp, 1557069072
	je	.LBB25_67

	cmp	ebp, 680917234
	jne	.LBB25_59

	movzx	ecx, byte ptr [rsp + 16]
	movzx	ebx, byte ptr [rsp + 40]
	mov	edx, ecx
	xor	dl, bl
	mov	edx, -594789007
	mov	r10d, -348105442
	cmovne	edx, r10d
	test	bl, bl
	mov	ebp, edx
	cmovne	ebp, r10d
	test	cl, cl
	cmove	ebp, edx
	jmp	.LBB25_59
.LBB25_66:                              
	mov	ebp, -348105442
	jmp	.LBB25_59
.LBB25_50:                              
	mov	al, byte ptr [rsp + 40]
	mov	byte ptr [rsp + 30], al
	mov	eax, dword ptr [rip + x.150]
	mov	ecx, eax
	neg	ecx
	not	ecx
	imul	ecx, eax
	not	ecx
	or	ecx, -2
	cmp	ecx, -1
	sete	cl
	mov	eax, 1814648652
	mov	esi, 2093036370
	cmove	eax, esi
	cmp	dword ptr [rip + y.151], 10
	setl	dl
	mov	edi, 1814648652
	cmovge	eax, edi
	xor	dl, cl
	cmovne	eax, esi
	jmp	.LBB25_5
.LBB25_105:                             
	movzx	edx, byte ptr [rsp + 15]
	movzx	ebx, byte ptr [rsp + 16]
	mov	eax, edx
	xor	al, bl
	test	bl, bl
	mov	esi, -369009728
	cmovne	esi, r14d
	test	dl, dl
	cmove	esi, r11d
	test	al, al
	cmovne	esi, r14d
	.p2align	4, 0x90
.LBB25_94:                              

	cmp	esi, 1534441362
	jg	.LBB25_103

	cmp	esi, -1921148854
	je	.LBB25_106

	cmp	esi, -369009728
	jne	.LBB25_94

	mov	esi, -1921148854
	jmp	.LBB25_94
	.p2align	4, 0x90
.LBB25_103:                             
	cmp	esi, 1534441363
	je	.LBB25_107

	cmp	esi, 2143172987
	jne	.LBB25_94
	jmp	.LBB25_105
.LBB25_106:                             
	cmp	rbp, rdi
	setb	byte ptr [rsp + 40]
	mov	esi, ecx
	jmp	.LBB25_94
.LBB25_67:                              
	mov	ecx, dword ptr [rip + x.216]
	mov	ebp, dword ptr [rip + y.217]
	lea	edi, [rcx - 1]
	imul	edi, ecx
	mov	ecx, edi
	xor	ecx, -2
	and	ecx, edi
	sete	bl
	sete	byte ptr [rsp + 15]
	cmp	ebp, 10
	setl	dl
	xor	dl, bl
	mov	edx, -385256741
	mov	ebx, -1905940984
	cmovne	edx, ebx
	test	ecx, ecx
	mov	edi, edx
	cmove	edi, ebx
	cmp	ebp, 10
	setl	byte ptr [rsp + 16]
	cmovge	edi, edx
	sub	r9, r8
	mov	edx, -1736172681
	jmp	.LBB25_68
.LBB25_107:                             
	mov	al, byte ptr [rsp + 40]
	mov	eax, -860096253
	jmp	.LBB25_5
.LBB25_71:                              
	movzx	ebx, byte ptr [rsp + 15]
	movzx	edx, byte ptr [rsp + 16]
	mov	ecx, ebx
	xor	cl, dl
	test	dl, dl
	mov	edx, -385256741
	mov	r8d, 2057159485
	cmovne	edx, r8d
	test	bl, bl
	mov	ebp, -385256741
	cmove	edx, ebp
	test	cl, cl
	cmovne	edx, r8d
	.p2align	4, 0x90
.LBB25_68:                              

	cmp	edx, -385256742
	jg	.LBB25_72

	cmp	edx, -1905940984
	je	.LBB25_76

	cmp	edx, -1736172681
	jne	.LBB25_68
	jmp	.LBB25_71
	.p2align	4, 0x90
.LBB25_72:                              
	cmp	edx, -385256741
	je	.LBB25_75

	cmp	edx, 2057159485
	jne	.LBB25_68

	mov	qword ptr [rsp + 40], r9
	mov	edx, edi
	jmp	.LBB25_68
.LBB25_75:                              
	mov	edx, 2057159485
	jmp	.LBB25_68
.LBB25_76:                              
	sub	rsi, -128
	xor	ecx, ecx
	sub	rcx, qword ptr [rsp + 40]
	mov	edx, 1
	sub	rdx, rcx
	mov	qword ptr [rsp + 16], rdx
	mov	rdi, rax
	lea	rdx, [rsp + 16]
	call	_ZSt9__find_ifIPKiN9__gnu_cxx5__ops16_Iter_equals_valIKlEEET_S7_S7_T0_St26random_access_iterator_tag
	mov	ecx, dword ptr [rip + x.92]
	mov	edx, dword ptr [rip + y.93]
	lea	esi, [rcx - 1]
	imul	esi, ecx
	not	esi
	or	esi, -2
	sub	rax, r14
	sar	rax, 2
	cmp	esi, -1
	sete	bl
	sete	byte ptr [rsp + 31]
	mov	ecx, 911041906
	mov	esi, 2101938195
	cmove	ecx, esi
	cmp	edx, 10
	setl	dl
	setl	byte ptr [rsp + 15]
	mov	edi, 911041906
	cmovge	ecx, edi
	xor	dl, bl
	cmovne	ecx, esi
	mov	edx, -1486924524
	mov	r14d, -1921148854
	jmp	.LBB25_77
.LBB25_84:                              
	movzx	esi, byte ptr [rsp + 31]
	movzx	edx, byte ptr [rsp + 15]
	mov	ebx, esi
	xor	bl, dl
	test	dl, dl
	mov	edx, 911041906
	mov	edi, 197475238
	cmovne	edx, edi
	test	sil, sil
	mov	esi, 911041906
	cmove	edx, esi
	test	bl, bl
	cmovne	edx, edi
	.p2align	4, 0x90
.LBB25_77:                              

	cmp	edx, 911041905
	jle	.LBB25_78

	cmp	edx, 911041906
	je	.LBB25_85

	cmp	edx, 2101938195
	jne	.LBB25_77
	jmp	.LBB25_83
	.p2align	4, 0x90
.LBB25_78:                              
	cmp	edx, -1486924524
	je	.LBB25_84

	cmp	edx, 197475238
	jne	.LBB25_77

	mov	qword ptr [rsp + 40], rax
	mov	edx, ecx
	jmp	.LBB25_77
.LBB25_85:                              
	mov	edx, 197475238
	jmp	.LBB25_77
.LBB25_83:                              
	mov	rax, qword ptr [rsp + 40]
	mov	ecx, dword ptr [rsp + 84] 
	sub	ecx, eax
	movabs	rax, -1992949709068221831
	add	ecx, eax
	movsxd	rsi, ecx
	mov	edx, 1
	lea	rdi, [rsp + 72]
	call	_ZNSt6bitsetILm32EE3setEmb
	mov	eax, 180655793
	mov	r8d, -901066291
	mov	r9d, -1511853027
	mov	r10d, 1534441363
	mov	r11d, -369009728
	jmp	.LBB25_5
.LBB25_27:
	mov	rax, qword ptr [rsp + 96]
	lea	rbx, [rsp + 40]
	mov	rdi, rbx
	call	_ZNSt7__cxx1112basic_stringIcSt11char_traitsIcESaIcEEC2Ev
.Ltmp191:
	lea	rdi, [rsp + 72]
	mov	edx, 48
	mov	ecx, 49
	mov	rsi, rbx
	call	_ZNKSt6bitsetILm32EE17_M_copy_to_stringIcSt11char_traitsIcESaIcEEEvRNSt7__cxx1112basic_stringIT_T0_T1_EES7_S7_
.Ltmp192:

	mov	rdi, qword ptr [rsp + 120] 
	add	rdi, 424
	lea	rbx, [rsp + 40]
	mov	rsi, rbx
	call	_ZNSt7__cxx1112basic_stringIcSt11char_traitsIcESaIcEEaSEOS4_
	mov	rdi, rbx
	call	_ZNSt7__cxx1112basic_stringIcSt11char_traitsIcESaIcEED2Ev
	mov	rax, qword ptr [rsp + 88]
	add	rsp, 152
	pop	rbx
	pop	r12
	pop	r13
	pop	r14
	pop	r15
	pop	rbp
	ret
.LBB25_52:
.Ltmp193:
	mov	rbx, rax
	lea	rdi, [rsp + 40]
	call	_ZNSt7__cxx1112basic_stringIcSt11char_traitsIcESaIcEED2Ev
	mov	rdi, rbx
	call	_Unwind_Resume
.Lfunc_end25:
	.size	_ZN3DES13straightPermuERKNSt7__cxx1112basic_stringIcSt11char_traitsIcESaIcEEE, .Lfunc_end25-_ZN3DES13straightPermuERKNSt7__cxx1112basic_stringIcSt11char_traitsIcESaIcEEE
	.cfi_endproc
	.section	.gcc_except_table,"a",@progbits
	.p2align	2
GCC_except_table25:
.Lexception13:
	.byte	255                     
	.byte	3                       
	.byte	41                      
	.byte	3                       
	.byte	39                      
	.long	.Lfunc_begin13-.Lfunc_begin13 
	.long	.Ltmp191-.Lfunc_begin13 
	.long	0                       
	.byte	0                       
	.long	.Ltmp191-.Lfunc_begin13 
	.long	.Ltmp192-.Ltmp191       
	.long	.Ltmp193-.Lfunc_begin13 
	.byte	0                       
	.long	.Ltmp192-.Lfunc_begin13 
	.long	.Lfunc_end25-.Ltmp192   
	.long	0                       
	.byte	0                       
	.p2align	2

	.section	.text._ZNKSt5arrayIiLm32EE5beginEv,"axG",@progbits,_ZNKSt5arrayIiLm32EE5beginEv,comdat
	.weak	_ZNKSt5arrayIiLm32EE5beginEv 
	.p2align	4, 0x90
	.type	_ZNKSt5arrayIiLm32EE5beginEv,@function
_ZNKSt5arrayIiLm32EE5beginEv:           

	push	rbp
	push	r15
	push	r14
	push	r12
	push	rbx
	mov	eax, dword ptr [rip + x.152]
	mov	ecx, dword ptr [rip + y.153]
	mov	edx, eax
	neg	edx
	not	edx
	imul	edx, eax
	mov	esi, edx
	xor	esi, -2
	and	esi, edx
	sete	byte ptr [rsp - 18]
	sete	al
	cmp	ecx, 10
	setl	dl
	xor	dl, al
	mov	r12d, 960514815
	mov	edx, -2143878865
	cmovne	edx, r12d
	test	esi, esi
	cmovne	r12d, edx
	cmp	ecx, 10
	setl	byte ptr [rsp - 17]
	mov	r8d, -2143878865
	mov	ecx, dword ptr [rip + x.228]
	mov	r9d, dword ptr [rip + y.229]
	cmovge	r12d, edx
	mov	esi, ecx
	neg	esi
	not	esi
	imul	esi, ecx
	mov	r14d, esi
	xor	r14d, -2
	mov	ecx, r14d
	and	ecx, esi
	sete	dl
	cmp	r9d, 10
	setl	bl
	xor	bl, dl
	mov	edx, 1158246676
	mov	r10d, -1939407832
	mov	ebp, -1939407832
	cmovne	ebp, edx
	test	ecx, ecx
	cmovne	edx, ebp
	cmp	r9d, 10
	cmovge	edx, ebp
	mov	ebp, -1648665700
	mov	r11d, -1471996181
	mov	r15d, -2127464923
	jmp	.LBB26_1
.LBB26_11:                              
	mov	al, byte ptr [rsp - 18]
	mov	cl, byte ptr [rsp - 17]
	mov	ebx, eax
	xor	bl, cl
	test	cl, cl
	mov	ebp, -2143878865
	cmovne	ebp, r15d
	test	al, al
	cmove	ebp, r8d
	test	bl, bl
	cmovne	ebp, r15d
	.p2align	4, 0x90
.LBB26_1:                               


	cmp	ebp, -1648665701
	jg	.LBB26_9

	cmp	ebp, -2143878865
	je	.LBB26_18

	cmp	ebp, -2127464923
	jne	.LBB26_1

	test	r14d, esi
	sete	byte ptr [rsp - 20]
	cmp	r9d, 10
	setl	byte ptr [rsp - 19]
	mov	ebp, -183789696
	jmp	.LBB26_5
	.p2align	4, 0x90
.LBB26_9:                               
	cmp	ebp, 960514815
	je	.LBB26_17

	cmp	ebp, -1648665700
	jne	.LBB26_1
	jmp	.LBB26_11
.LBB26_18:                              
	test	r14d, esi
	sete	byte ptr [rsp - 20]
	cmp	r9d, 10
	setl	byte ptr [rsp - 19]
	mov	ebp, -183789696
	jmp	.LBB26_19
.LBB26_14:                              
	movzx	eax, byte ptr [rsp - 20]
	movzx	ecx, byte ptr [rsp - 19]
	mov	ebx, eax
	xor	bl, cl
	mov	ebx, -1939407832
	cmovne	ebx, r11d
	test	cl, cl
	mov	ebp, ebx
	cmovne	ebp, r11d
	test	al, al
	cmove	ebp, ebx
	.p2align	4, 0x90
.LBB26_5:                               

	cmp	ebp, -183789697
	jg	.LBB26_12

	cmp	ebp, -1939407832
	je	.LBB26_15

	cmp	ebp, -1471996181
	jne	.LBB26_5

	mov	qword ptr [rsp - 16], rdi
	mov	ebp, edx
	jmp	.LBB26_5
	.p2align	4, 0x90
.LBB26_12:                              
	cmp	ebp, 1158246676
	je	.LBB26_16

	cmp	ebp, -183789696
	jne	.LBB26_5
	jmp	.LBB26_14
.LBB26_15:                              
	mov	ebp, -1471996181
	jmp	.LBB26_5
.LBB26_25:                              
	movzx	eax, byte ptr [rsp - 20]
	movzx	ecx, byte ptr [rsp - 19]
	mov	ebx, eax
	xor	bl, cl
	test	cl, cl
	mov	ebp, -1939407832
	cmovne	ebp, r11d
	test	al, al
	cmove	ebp, r10d
	test	bl, bl
	cmovne	ebp, r11d
	.p2align	4, 0x90
.LBB26_19:                              

	cmp	ebp, -183789697
	jg	.LBB26_23

	cmp	ebp, -1939407832
	je	.LBB26_26

	cmp	ebp, -1471996181
	jne	.LBB26_19

	mov	qword ptr [rsp - 16], rdi
	mov	ebp, edx
	jmp	.LBB26_19
	.p2align	4, 0x90
.LBB26_23:                              
	cmp	ebp, 1158246676
	je	.LBB26_27

	cmp	ebp, -183789696
	jne	.LBB26_19
	jmp	.LBB26_25
.LBB26_26:                              
	mov	ebp, -1471996181
	jmp	.LBB26_19
.LBB26_16:                              
	mov	rax, qword ptr [rsp - 16]
	mov	qword ptr [rsp - 8], rax
	mov	ebp, r12d
	jmp	.LBB26_1
.LBB26_27:                              
	mov	rax, qword ptr [rsp - 16]
	mov	ebp, -2127464923
	jmp	.LBB26_1
.LBB26_17:
	mov	rax, qword ptr [rsp - 8]
	pop	rbx
	pop	r12
	pop	r14
	pop	r15
	pop	rbp
	ret
.Lfunc_end26:
	.size	_ZNKSt5arrayIiLm32EE5beginEv, .Lfunc_end26-_ZNKSt5arrayIiLm32EE5beginEv

	.section	.text._ZNSt6bitsetILm32EE3setEmb,"axG",@progbits,_ZNSt6bitsetILm32EE3setEmb,comdat
	.weak	_ZNSt6bitsetILm32EE3setEmb 
	.p2align	4, 0x90
	.type	_ZNSt6bitsetILm32EE3setEmb,@function
_ZNSt6bitsetILm32EE3setEmb:             
	.cfi_startproc

	push	rbp
.Lcfi227:
	.cfi_def_cfa_offset 16
	push	r15
.Lcfi228:
	.cfi_def_cfa_offset 24
	push	r14
.Lcfi229:
	.cfi_def_cfa_offset 32
	push	r13
.Lcfi230:
	.cfi_def_cfa_offset 40
	push	r12
.Lcfi231:
	.cfi_def_cfa_offset 48
	push	rbx
.Lcfi232:
	.cfi_def_cfa_offset 56
	sub	rsp, 24
.Lcfi233:
	.cfi_def_cfa_offset 80
.Lcfi234:
	.cfi_offset rbx, -56
.Lcfi235:
	.cfi_offset r12, -48
.Lcfi236:
	.cfi_offset r13, -40
.Lcfi237:
	.cfi_offset r14, -32
.Lcfi238:
	.cfi_offset r15, -24
.Lcfi239:
	.cfi_offset rbp, -16
	mov	r12, rsi
	mov	r14, rdi
	mov	eax, dword ptr [rip + x.156]
	lea	ecx, [rax - 1]
	imul	ecx, eax
	not	ecx
	or	ecx, -2
	cmp	ecx, -1
	sete	byte ptr [rsp + 14]
	mov	eax, dword ptr [rip + y.157]
	cmp	eax, 10
	setl	byte ptr [rsp + 15]
	cmp	r12, 31
	mov	eax, 652335659
	mov	ebp, 1840706291
	cmova	ebp, eax
	movzx	r15d, dl
	mov	ecx, 558285261
	mov	r13d, 258714924
	jmp	.LBB27_1
.LBB27_7:                               
	mov	al, byte ptr [rsp + 14]
	mov	cl, byte ptr [rsp + 15]
	mov	edx, eax
	xor	dl, cl
	mov	edx, -2143345026
	cmovne	edx, r13d
	test	cl, cl
	mov	ecx, edx
	cmovne	ecx, r13d
	test	al, al
	cmove	ecx, edx
	.p2align	4, 0x90
.LBB27_1:                               


	cmp	ecx, 258714923
	jg	.LBB27_5

	cmp	ecx, -2143345026
	je	.LBB27_14

	cmp	ecx, -353727835
	jne	.LBB27_1
	jmp	.LBB27_4
	.p2align	4, 0x90
.LBB27_5:                               
	cmp	ecx, 258714924
	je	.LBB27_8

	cmp	ecx, 558285261
	jne	.LBB27_1
	jmp	.LBB27_7
.LBB27_14:                              
	mov	eax, -687913978
	jmp	.LBB27_15
.LBB27_8:                               
	mov	eax, -687913978
	jmp	.LBB27_9
	.p2align	4, 0x90
.LBB27_20:                              
	mov	eax, ebp
.LBB27_15:                              

	cmp	eax, -687913978
	je	.LBB27_20

	cmp	eax, 1840706291
	je	.LBB27_18

	cmp	eax, 652335659
	jne	.LBB27_15
	jmp	.LBB27_12
.LBB27_18:                              
	mov	rdi, r14
	mov	rsi, r12
	mov	edx, r15d
	call	_ZNSt6bitsetILm32EE14_Unchecked_setEmi
	mov	ecx, 258714924
	jmp	.LBB27_1
	.p2align	4, 0x90
.LBB27_19:                              
	mov	eax, ebp
.LBB27_9:                               

	cmp	eax, -687913978
	je	.LBB27_19

	cmp	eax, 1840706291
	je	.LBB27_13

	cmp	eax, 652335659
	jne	.LBB27_9
	jmp	.LBB27_12
.LBB27_13:                              
	mov	rdi, r14
	mov	rsi, r12
	mov	edx, r15d
	call	_ZNSt6bitsetILm32EE14_Unchecked_setEmi
	mov	ecx, dword ptr [rip + x.156]
	mov	edi, dword ptr [rip + y.157]
	lea	esi, [rcx - 1]
	imul	esi, ecx
	mov	ecx, esi
	xor	ecx, -2
	and	ecx, esi
	sete	bl
	cmp	edi, 10
	setl	dl
	xor	dl, bl
	mov	esi, -353727835
	mov	edx, -2143345026
	cmovne	edx, esi
	test	ecx, ecx
	mov	ecx, edx
	cmove	ecx, esi
	cmp	edi, 10
	mov	qword ptr [rsp + 16], rax
	cmovge	ecx, edx
	jmp	.LBB27_1
.LBB27_4:
	mov	rax, qword ptr [rsp + 16]
	add	rsp, 24
	pop	rbx
	pop	r12
	pop	r13
	pop	r14
	pop	r15
	pop	rbp
	ret
.LBB27_12:
	mov	edi, .L.str.49
	mov	esi, .L.str.48
	mov	ecx, 32
	xor	eax, eax
	mov	rdx, r12
	call	_ZSt24__throw_out_of_range_fmtPKcz
.Lfunc_end27:
	.size	_ZNSt6bitsetILm32EE3setEmb, .Lfunc_end27-_ZNSt6bitsetILm32EE3setEmb
	.cfi_endproc

	.section	.text._ZSt4findIPKiiET_S2_S2_RKT0_,"axG",@progbits,_ZSt4findIPKiiET_S2_S2_RKT0_,comdat
	.weak	_ZSt4findIPKiiET_S2_S2_RKT0_ 
	.p2align	4, 0x90
	.type	_ZSt4findIPKiiET_S2_S2_RKT0_,@function
_ZSt4findIPKiiET_S2_S2_RKT0_:           
	.cfi_startproc

	push	rbp
.Lcfi240:
	.cfi_def_cfa_offset 16
	push	r15
.Lcfi241:
	.cfi_def_cfa_offset 24
	push	r14
.Lcfi242:
	.cfi_def_cfa_offset 32
	push	r13
.Lcfi243:
	.cfi_def_cfa_offset 40
	push	r12
.Lcfi244:
	.cfi_def_cfa_offset 48
	push	rbx
.Lcfi245:
	.cfi_def_cfa_offset 56
	sub	rsp, 24
.Lcfi246:
	.cfi_def_cfa_offset 80
.Lcfi247:
	.cfi_offset rbx, -56
.Lcfi248:
	.cfi_offset r12, -48
.Lcfi249:
	.cfi_offset r13, -40
.Lcfi250:
	.cfi_offset r14, -32
.Lcfi251:
	.cfi_offset r15, -24
.Lcfi252:
	.cfi_offset rbp, -16
	mov	r14, rdx
	mov	r15, rsi
	mov	r13, rdi
	mov	eax, dword ptr [rip + x.162]
	mov	ecx, dword ptr [rip + y.163]
	lea	edx, [rax - 1]
	imul	edx, eax
	not	edx
	or	edx, -2
	cmp	edx, -1
	sete	byte ptr [rsp + 6]
	cmp	ecx, 10
	setl	byte ptr [rsp + 7]
	mov	eax, -1114143766
	mov	r12d, 314718221
	mov	ebp, 1995973035
	jmp	.LBB28_1
.LBB28_16:                              
	mov	cl, byte ptr [rsp + 6]
	mov	al, byte ptr [rsp + 7]
	mov	edx, ecx
	xor	dl, al
	test	al, al
	mov	eax, -1088260807
	mov	esi, -642063126
	cmovne	eax, esi
	test	cl, cl
	mov	ecx, -1088260807
	cmove	eax, ecx
	test	dl, dl
	cmovne	eax, esi
	.p2align	4, 0x90
.LBB28_1:                               




	cmp	eax, -642063127
	jle	.LBB28_2

	cmp	eax, -642063126
	je	.LBB28_17

	cmp	eax, 1010923092
	jne	.LBB28_1
	jmp	.LBB28_15
	.p2align	4, 0x90
.LBB28_2:                               
	cmp	eax, -1114143766
	je	.LBB28_16

	cmp	eax, -1088260807
	jne	.LBB28_1

	mov	eax, dword ptr [rip + x.560]
	mov	ecx, dword ptr [rip + y.561]
	mov	edx, eax
	neg	edx
	not	edx
	imul	edx, eax
	mov	eax, edx
	xor	eax, -2
	and	eax, edx
	sete	dl
	sete	byte ptr [rsp + 4]
	cmp	ecx, 10
	setl	bl
	xor	bl, dl
	mov	edx, -1620874482
	mov	esi, 132385452
	cmovne	edx, esi
	test	eax, eax
	mov	eax, edx
	cmove	eax, esi
	cmp	ecx, 10
	setl	byte ptr [rsp + 8]
	cmovge	eax, edx
	mov	ecx, 1699199524
	jmp	.LBB28_5
.LBB28_17:                              
	mov	eax, dword ptr [rip + x.560]
	mov	ecx, dword ptr [rip + y.561]
	lea	edx, [rax - 1]
	imul	edx, eax
	mov	eax, edx
	xor	eax, -2
	and	eax, edx
	sete	dl
	sete	byte ptr [rsp + 4]
	cmp	ecx, 10
	setl	bl
	xor	bl, dl
	mov	edx, -1620874482
	mov	esi, 132385452
	cmovne	edx, esi
	test	eax, eax
	mov	eax, edx
	cmove	eax, esi
	cmp	ecx, 10
	setl	byte ptr [rsp + 8]
	cmovge	eax, edx
	mov	ecx, 1699199524
	jmp	.LBB28_18
.LBB28_37:                              
	mov	ecx, eax
	.p2align	4, 0x90
.LBB28_5:                               

	cmp	ecx, 1699199523
	jg	.LBB28_36

	cmp	ecx, -1620874482
	je	.LBB28_40

	cmp	ecx, 132385452
	jne	.LBB28_5
	jmp	.LBB28_8
	.p2align	4, 0x90
.LBB28_36:                              
	cmp	ecx, 1995973035
	je	.LBB28_37

	cmp	ecx, 1699199524
	jne	.LBB28_5

	movzx	ebx, byte ptr [rsp + 4]
	movzx	ecx, byte ptr [rsp + 8]
	mov	edx, ebx
	xor	dl, cl
	test	cl, cl
	mov	ecx, -1620874482
	cmovne	ecx, ebp
	test	bl, bl
	mov	esi, -1620874482
	cmove	ecx, esi
	test	dl, dl
	cmovne	ecx, ebp
	jmp	.LBB28_5
.LBB28_40:                              
	mov	ecx, 1995973035
	jmp	.LBB28_5
.LBB28_27:                              
	mov	ecx, eax
	.p2align	4, 0x90
.LBB28_18:                              

	cmp	ecx, 1699199523
	jg	.LBB28_26

	cmp	ecx, -1620874482
	je	.LBB28_30

	cmp	ecx, 132385452
	jne	.LBB28_18
	jmp	.LBB28_21
	.p2align	4, 0x90
.LBB28_26:                              
	cmp	ecx, 1995973035
	je	.LBB28_27

	cmp	ecx, 1699199524
	jne	.LBB28_18

	movzx	ebx, byte ptr [rsp + 4]
	movzx	ecx, byte ptr [rsp + 8]
	mov	edx, ebx
	xor	dl, cl
	test	cl, cl
	mov	ecx, -1620874482
	cmovne	ecx, ebp
	test	bl, bl
	mov	esi, -1620874482
	cmove	ecx, esi
	test	dl, dl
	cmovne	ecx, ebp
	jmp	.LBB28_18
.LBB28_30:                              
	mov	ecx, 1995973035
	jmp	.LBB28_18
.LBB28_8:                               
	mov	eax, dword ptr [rip + x.552]
	mov	ecx, dword ptr [rip + y.553]
	lea	edx, [rax - 1]
	imul	edx, eax
	mov	eax, edx
	xor	eax, -2
	test	eax, edx
	sete	byte ptr [rsp + 5]
	cmp	ecx, 10
	setl	byte ptr [rsp + 4]
	mov	eax, 1869868385
	jmp	.LBB28_9
.LBB28_21:                              
	mov	eax, dword ptr [rip + x.552]
	mov	ecx, dword ptr [rip + y.553]
	lea	edx, [rax - 1]
	imul	edx, eax
	mov	eax, edx
	xor	eax, -2
	test	eax, edx
	sete	byte ptr [rsp + 5]
	cmp	ecx, 10
	setl	byte ptr [rsp + 4]
	mov	eax, 1869868385
	jmp	.LBB28_22
.LBB28_43:                              
	movzx	ecx, byte ptr [rsp + 5]
	movzx	eax, byte ptr [rsp + 4]
	mov	edx, ecx
	xor	dl, al
	mov	edx, 1908730871
	cmovne	edx, r12d
	test	al, al
	mov	eax, edx
	cmovne	eax, r12d
	test	cl, cl
	cmove	eax, edx
	.p2align	4, 0x90
.LBB28_9:                               

	cmp	eax, 1869868384
	jg	.LBB28_41

	cmp	eax, -1560907343
	je	.LBB28_45

	cmp	eax, 314718221
	jne	.LBB28_9

	mov	rdi, r13
	mov	rsi, r15
	mov	rdx, r14
	call	_ZSt9__find_ifIPKiN9__gnu_cxx5__ops16_Iter_equals_valIS0_EEET_S6_S6_T0_St26random_access_iterator_tag
	mov	qword ptr [rsp + 8], rax
	mov	eax, dword ptr [rip + x.552]
	lea	ecx, [rax - 1]
	imul	ecx, eax
	mov	eax, ecx
	xor	eax, -2
	and	eax, ecx
	sete	cl
	test	eax, eax
	mov	eax, 1908730871
	mov	esi, -1560907343
	cmove	eax, esi
	cmp	dword ptr [rip + y.553], 10
	setl	dl
	mov	edi, 1908730871
	cmovge	eax, edi
	xor	dl, cl
	cmovne	eax, esi
	jmp	.LBB28_9
	.p2align	4, 0x90
.LBB28_41:                              
	cmp	eax, 1908730871
	je	.LBB28_44

	cmp	eax, 1869868385
	jne	.LBB28_9
	jmp	.LBB28_43
.LBB28_44:                              
	mov	rdi, r13
	mov	rsi, r15
	mov	rdx, r14
	call	_ZSt9__find_ifIPKiN9__gnu_cxx5__ops16_Iter_equals_valIS0_EEET_S6_S6_T0_St26random_access_iterator_tag
	mov	eax, 314718221
	jmp	.LBB28_9
.LBB28_33:                              
	movzx	ecx, byte ptr [rsp + 5]
	movzx	eax, byte ptr [rsp + 4]
	mov	edx, ecx
	xor	dl, al
	test	al, al
	mov	eax, 1908730871
	cmovne	eax, r12d
	test	cl, cl
	mov	ecx, 1908730871
	cmove	eax, ecx
	test	dl, dl
	cmovne	eax, r12d
	.p2align	4, 0x90
.LBB28_22:                              

	cmp	eax, 1869868384
	jg	.LBB28_31

	cmp	eax, -1560907343
	je	.LBB28_35

	cmp	eax, 314718221
	jne	.LBB28_22

	mov	rdi, r13
	mov	rsi, r15
	mov	rdx, r14
	call	_ZSt9__find_ifIPKiN9__gnu_cxx5__ops16_Iter_equals_valIS0_EEET_S6_S6_T0_St26random_access_iterator_tag
	mov	qword ptr [rsp + 8], rax
	mov	eax, dword ptr [rip + x.552]
	mov	ecx, eax
	neg	ecx
	not	ecx
	imul	ecx, eax
	mov	eax, ecx
	xor	eax, -2
	and	eax, ecx
	sete	cl
	test	eax, eax
	mov	eax, 1908730871
	mov	esi, -1560907343
	cmove	eax, esi
	cmp	dword ptr [rip + y.553], 10
	setl	dl
	mov	edi, 1908730871
	cmovge	eax, edi
	xor	dl, cl
	cmovne	eax, esi
	jmp	.LBB28_22
	.p2align	4, 0x90
.LBB28_31:                              
	cmp	eax, 1908730871
	je	.LBB28_34

	cmp	eax, 1869868385
	jne	.LBB28_22
	jmp	.LBB28_33
.LBB28_34:                              
	mov	rdi, r13
	mov	rsi, r15
	mov	rdx, r14
	call	_ZSt9__find_ifIPKiN9__gnu_cxx5__ops16_Iter_equals_valIS0_EEET_S6_S6_T0_St26random_access_iterator_tag
	mov	eax, 314718221
	jmp	.LBB28_22
.LBB28_45:                              
	mov	rax, qword ptr [rsp + 8]
	mov	eax, -642063126
	jmp	.LBB28_1
.LBB28_35:                              
	mov	rdi, qword ptr [rsp + 8]
	mov	eax, dword ptr [rip + x.162]
	mov	edx, dword ptr [rip + y.163]
	lea	esi, [rax - 1]
	imul	esi, eax
	mov	eax, esi
	xor	eax, -2
	and	eax, esi
	sete	bl
	cmp	edx, 10
	setl	cl
	xor	cl, bl
	mov	ecx, -1088260807
	mov	esi, 1010923092
	cmovne	ecx, esi
	test	eax, eax
	mov	eax, ecx
	cmove	eax, esi
	cmp	edx, 10
	mov	qword ptr [rsp + 16], rdi
	cmovge	eax, ecx
	jmp	.LBB28_1
.LBB28_15:
	mov	rax, qword ptr [rsp + 16]
	add	rsp, 24
	pop	rbx
	pop	r12
	pop	r13
	pop	r14
	pop	r15
	pop	rbp
	ret
.Lfunc_end28:
	.size	_ZSt4findIPKiiET_S2_S2_RKT0_, .Lfunc_end28-_ZSt4findIPKiiET_S2_S2_RKT0_
	.cfi_endproc

	.section	.text._ZNKSt5arrayIiLm48EE5beginEv,"axG",@progbits,_ZNKSt5arrayIiLm48EE5beginEv,comdat
	.weak	_ZNKSt5arrayIiLm48EE5beginEv 
	.p2align	4, 0x90
	.type	_ZNKSt5arrayIiLm48EE5beginEv,@function
_ZNKSt5arrayIiLm48EE5beginEv:           

	push	rbp
	push	r15
	push	r14
	push	rbx
	mov	ecx, dword ptr [rip + x.170]
	mov	r10d, dword ptr [rip + y.171]
	mov	edx, ecx
	neg	edx
	not	edx
	imul	edx, ecx
	mov	ebx, edx
	xor	ebx, -2
	and	ebx, edx
	sete	r11b
	sete	byte ptr [rsp - 18]
	mov	edx, dword ptr [rip + x.236]
	mov	r14d, dword ptr [rip + y.237]
	lea	r15d, [rdx - 1]
	imul	r15d, edx
	mov	edx, r15d
	not	edx
	or	edx, -2
	and	r15d, 1
	cmp	edx, -1
	sete	dl
	mov	ebp, 1068859436
	mov	r8d, -660578646
	mov	esi, -660578646
	cmove	esi, ebp
	cmp	r14d, 10
	setl	al
	cmovge	esi, r8d
	xor	al, dl
	cmovne	esi, ebp
	test	ebx, ebx
	mov	eax, -431001495
	mov	r9d, 568540634
	mov	edx, 568540634
	cmove	edx, eax
	cmp	r10d, 10
	setl	bl
	setl	byte ptr [rsp - 17]
	cmovge	edx, r9d
	xor	bl, r11b
	cmovne	edx, eax
	mov	eax, 657088263
	mov	r10d, 850368449
	mov	r11d, 1972578665
	jmp	.LBB29_1
.LBB29_11:                              
	mov	cl, byte ptr [rsp - 18]
	mov	al, byte ptr [rsp - 17]
	mov	ebx, ecx
	xor	bl, al
	test	al, al
	mov	eax, 568540634
	cmovne	eax, r11d
	test	cl, cl
	cmove	eax, r9d
	test	bl, bl
	cmovne	eax, r11d
	.p2align	4, 0x90
.LBB29_1:                               


	cmp	eax, 657088262
	jg	.LBB29_9

	cmp	eax, -431001495
	je	.LBB29_22

	cmp	eax, 568540634
	jne	.LBB29_1

	test	r15d, r15d
	sete	byte ptr [rsp - 20]
	cmp	r14d, 10
	setl	byte ptr [rsp - 19]
	mov	eax, 1233104079
	jmp	.LBB29_5
	.p2align	4, 0x90
.LBB29_9:                               
	cmp	eax, 1972578665
	je	.LBB29_12

	cmp	eax, 657088263
	jne	.LBB29_1
	jmp	.LBB29_11
.LBB29_25:                              
