	.text
	.intel_syntax noprefix
	.file	"/mnt/c/Users/Adam/Developer/CryptoFunctionDetection/crypto_implementations/botan/src/lib/block/des/des.cpp"
	.globl	_ZNK5Botan3DES9encrypt_nEPKhPhm 
	.p2align	4, 0x90
	.type	_ZNK5Botan3DES9encrypt_nEPKhPhm,@function
_ZNK5Botan3DES9encrypt_nEPKhPhm:        
	.cfi_startproc

	push	rbp
.Lcfi0:
	.cfi_def_cfa_offset 16
.Lcfi1:
	.cfi_offset rbp, -16
	mov	rbp, rsp
.Lcfi2:
	.cfi_def_cfa_register rbp
	push	r15
	push	r14
	push	r13
	push	r12
	push	rbx
	sub	rsp, 184
.Lcfi3:
	.cfi_offset rbx, -56
.Lcfi4:
	.cfi_offset r12, -48
.Lcfi5:
	.cfi_offset r13, -40
.Lcfi6:
	.cfi_offset r14, -32
.Lcfi7:
	.cfi_offset r15, -24
	mov	qword ptr [rbp - 224], rcx 
	mov	qword ptr [rbp - 216], rdx 
	mov	qword ptr [rbp - 208], rsi 
	mov	r14, rdi
	mov	eax, dword ptr [rip + x]
	mov	ecx, eax
	neg	ecx
	not	ecx
	imul	ecx, eax
	mov	eax, ecx
	xor	eax, -2
	test	eax, ecx
	sete	byte ptr [rbp - 49]
	mov	eax, dword ptr [rip + y]
	cmp	eax, 10
	setl	byte ptr [rbp - 50]
	lea	r15, [r14 + 8]
	mov	eax, -987800406
	mov	r12d, 1168054530











	jmp	.LBB0_1
.LBB0_112:                              
	cmovne	edx, esi
	test	eax, eax
	mov	eax, edx
	cmove	eax, esi
	cmp	ecx, 10
	cmovge	eax, edx
	.p2align	4, 0x90
.LBB0_1:                                








	cmp	eax, -666369672
	jle	.LBB0_2

	cmp	eax, 756595227
	jg	.LBB0_29

	cmp	eax, 399632046
	jg	.LBB0_22

	cmp	eax, -666369671
	je	.LBB0_86

	cmp	eax, 169656783
	jne	.LBB0_1

	mov	rax, qword ptr [rbp - 112]
	mov	qword ptr [rbp - 192], rax 
	mov	rax, qword ptr [rbp - 136]
	mov	qword ptr [rbp - 184], rax 
	mov	eax, -666369671
	mov	r13, qword ptr [rbp - 128]
	jmp	.LBB0_1
	.p2align	4, 0x90
.LBB0_2:                                
	cmp	eax, -1501452742
	jg	.LBB0_10

	cmp	eax, -1936421188
	jg	.LBB0_7

	cmp	eax, -2024679297
	je	.LBB0_40

	cmp	eax, -2003365393
	jne	.LBB0_1

	mov	eax, 883389934
	jmp	.LBB0_1
	.p2align	4, 0x90
.LBB0_29:                               
	cmp	eax, 1565886922
	jg	.LBB0_34

	cmp	eax, 756595228
	je	.LBB0_38

	cmp	eax, 883389934
	jne	.LBB0_1

	mov	eax, dword ptr [rip + x]
	lea	ecx, [rax - 1]
	imul	ecx, eax
	mov	eax, ecx
	xor	eax, -2
	and	eax, ecx
	sete	cl
	test	eax, eax
	mov	eax, -2003365393
	mov	edi, -1501452741
	cmove	eax, edi
	cmp	dword ptr [rip + y], 10
	setl	dl
	mov	esi, -2003365393
	jmp	.LBB0_33
	.p2align	4, 0x90
.LBB0_10:                               
	cmp	eax, -1126945802
	jle	.LBB0_11

	cmp	eax, -1126945801
	je	.LBB0_37

	cmp	eax, -987800406
	jne	.LBB0_1

	mov	cl, byte ptr [rbp - 49]
	mov	al, byte ptr [rbp - 50]
	mov	edx, ecx
	xor	dl, al
	test	al, al
	mov	eax, -1936421187
	mov	esi, -1126945801
	cmovne	eax, esi
	test	cl, cl
	mov	ecx, -1936421187
	cmove	eax, ecx
	test	dl, dl
	cmovne	eax, esi
	jmp	.LBB0_1
.LBB0_22:                               
	cmp	eax, 399632047
	je	.LBB0_111

	cmp	eax, 616907234
	jne	.LBB0_1

	mov	rax, qword ptr [rbp - 96]
	mov	r8, qword ptr [rbp - 152]
	mov	ecx, dword ptr [rip + x.13]
	mov	edx, dword ptr [rip + y.14]
	lea	esi, [rcx - 1]
	imul	esi, ecx
	not	esi
	or	esi, -2
	cmp	esi, -1
	sete	cl
	cmp	edx, 10
	setl	bl
	xor	bl, cl
	mov	edi, -1106862460
	cmovne	edi, r12d
	cmp	esi, -1
	sete	byte ptr [rbp - 42]
	mov	ecx, edi
	cmove	ecx, r12d
	cmp	edx, 10
	setl	byte ptr [rbp - 41]
	cmovge	ecx, edi
	mov	edx, -1924553818
	jmp	.LBB0_25
.LBB0_7:                                
	cmp	eax, -1936421187
	je	.LBB0_113

	cmp	eax, -1781766661
	jne	.LBB0_1

	mov	rax, qword ptr [rbp - 144]
	mov	eax, 1601653882
	jmp	.LBB0_1
.LBB0_34:                               
	cmp	eax, 1565886923
	je	.LBB0_87

	cmp	eax, 1601653882
	jne	.LBB0_1

	cmp	qword ptr [rbp - 144], 0
	setne	byte ptr [rbp - 51]
	mov	eax, dword ptr [rip + x]
	lea	ecx, [rax - 1]
	imul	ecx, eax
	not	ecx
	or	ecx, -2
	cmp	ecx, -1
	sete	cl
	mov	eax, -1781766661
	mov	edi, 1565886923
	cmove	eax, edi
	cmp	dword ptr [rip + y], 10
	setl	dl
	mov	esi, -1781766661
.LBB0_33:                               
	cmovge	eax, esi
	xor	dl, cl
	cmovne	eax, edi
	jmp	.LBB0_1
.LBB0_11:                               
	cmp	eax, -1422535620
	je	.LBB0_39

	cmp	eax, -1501452741
	jne	.LBB0_1
	jmp	.LBB0_13
.LBB0_86:                               
	mov	eax, dword ptr [rip + x]
	mov	ecx, dword ptr [rip + y]
	lea	edx, [rax - 1]
	imul	edx, eax
	mov	eax, edx
	xor	eax, -2
	and	eax, edx
	sete	dl
	cmp	ecx, 10
	setl	bl
	xor	bl, dl
	mov	edx, -1781766661
	mov	esi, 1601653882
	cmovne	edx, esi
	test	eax, eax
	mov	eax, edx
	cmove	eax, esi
	cmp	ecx, 10
	mov	qword ptr [rbp - 144], r13
	mov	rcx, qword ptr [rbp - 184] 
	mov	qword ptr [rbp - 200], rcx
	mov	rcx, qword ptr [rbp - 192] 
	mov	qword ptr [rbp - 152], rcx
	cmovge	eax, edx
	jmp	.LBB0_1
.LBB0_40:                               
	mov	rax, qword ptr [rbp - 64]
	mov	rdi, qword ptr [rbp - 112]
	mov	ecx, dword ptr [rip + x.13]
	mov	edx, dword ptr [rip + y.14]
	mov	esi, ecx
	neg	esi
	not	esi
	imul	esi, ecx
	mov	ecx, esi
	xor	ecx, -2
	and	ecx, esi
	sete	byte ptr [rbp - 42]
	sete	bl
	test	ecx, ecx
	mov	ecx, -1106862460
	cmove	ecx, r12d
	cmp	edx, 10
	setl	dl
	setl	byte ptr [rbp - 41]
	mov	eax, -1106862460
	cmovge	ecx, eax
	xor	dl, bl
	cmovne	ecx, r12d
	mov	edx, -1924553818
	jmp	.LBB0_41
.LBB0_38:                               
	mov	eax, -1422535620
	mov	rcx, qword ptr [rbp - 224] 
	mov	qword ptr [rbp - 160], rcx 
	mov	rcx, qword ptr [rbp - 216] 
	mov	qword ptr [rbp - 168], rcx 
	mov	rcx, qword ptr [rbp - 208] 
	mov	qword ptr [rbp - 176], rcx 
	jmp	.LBB0_1
.LBB0_37:                               
	mov	rax, rsp
	add	rax, -16
	mov	rsp, rax
	mov	qword ptr [rbp - 64], rax
	mov	rax, rsp
	add	rax, -16
	mov	rsp, rax
	mov	qword ptr [rbp - 72], rax
	mov	rax, rsp
	add	rax, -16
	mov	rsp, rax
	mov	qword ptr [rbp - 80], rax
	mov	rax, rsp
	add	rax, -16
	mov	rsp, rax
	mov	qword ptr [rbp - 88], rax
	mov	rax, rsp
	add	rax, -16
	mov	rsp, rax
	mov	qword ptr [rbp - 96], rax
	mov	rax, rsp
	add	rax, -16
	mov	rsp, rax
	mov	qword ptr [rbp - 104], rax
	mov	qword ptr [rbp - 120], r15
	mov	rbx, r14
	mov	r14, qword ptr [rbp - 120]
	mov	rdi, r14
	call	_ZNKSt6vectorIjN5Botan16secure_allocatorIjEEE5beginEv
	mov	r12, r15
	mov	r15, rax
	mov	rdi, r14
	mov	r14, rbx
	call	_ZNKSt6vectorIjN5Botan16secure_allocatorIjEEE3endEv
	xor	esi, esi
	cmp	r15, rax
	mov	r15, r12
	mov	r12d, 1168054530
	setne	sil
	mov	rdi, r14
	call	_ZNK5Botan18SymmetricAlgorithm14verify_key_setEb
	mov	eax, dword ptr [rip + x]
	mov	ecx, dword ptr [rip + y]
	mov	edx, eax
	neg	edx
	not	edx
	imul	edx, eax
	mov	eax, edx
	xor	eax, -2
	and	eax, edx
	sete	dl
	cmp	ecx, 10
	setl	bl
	xor	bl, dl
	mov	edx, -1936421187
	mov	esi, 756595228
	jmp	.LBB0_112
.LBB0_111:                              
	mov	eax, dword ptr [rip + x]
	mov	ecx, dword ptr [rip + y]
	lea	edx, [rax - 1]
	imul	edx, eax
	mov	eax, edx
	xor	eax, -2
	and	eax, edx
	sete	dl
	cmp	ecx, 10
	setl	bl
	xor	bl, dl
	mov	edx, -2003365393
	mov	esi, 883389934
	jmp	.LBB0_112
.LBB0_95:                               
	movzx	eax, byte ptr [rbp - 42]
	movzx	edx, byte ptr [rbp - 41]
	mov	ebx, eax
	xor	bl, dl
	mov	esi, -1106862460
	mov	edi, -1169115405
	cmovne	esi, edi
	test	dl, dl
	mov	edx, esi
	cmovne	edx, edi
	test	al, al
	cmove	edx, esi
	.p2align	4, 0x90
.LBB0_25:                               

	cmp	edx, -1106862461
	jle	.LBB0_26

	cmp	edx, -1106862460
	je	.LBB0_96

	cmp	edx, 1168054530
	jne	.LBB0_25
	jmp	.LBB0_90
	.p2align	4, 0x90
.LBB0_26:                               
	cmp	edx, -1924553818
	je	.LBB0_95

	cmp	edx, -1169115405
	jne	.LBB0_25

	mov	eax, dword ptr [r8]
	bswap	eax
	mov	dword ptr [rbp - 48], eax
	mov	edx, ecx
	jmp	.LBB0_25
.LBB0_96:                               
	mov	edx, -1169115405
	jmp	.LBB0_25
.LBB0_113:                              
	mov	rdi, r15
	call	_ZNKSt6vectorIjN5Botan16secure_allocatorIjEEE5beginEv
	mov	rbx, rax
	mov	rdi, r15
	call	_ZNKSt6vectorIjN5Botan16secure_allocatorIjEEE3endEv
	xor	esi, esi
	cmp	rbx, rax
	setne	sil
	mov	rdi, r14
	call	_ZNK5Botan18SymmetricAlgorithm14verify_key_setEb
	mov	eax, -1126945801
	jmp	.LBB0_1
.LBB0_87:                               
	mov	al, byte ptr [rbp - 51]
	test	al, al
	mov	eax, 399632047
	mov	ecx, 616907234
	cmovne	eax, ecx
	jmp	.LBB0_1
.LBB0_39:                               
	mov	rax, qword ptr [rbp - 160] 
	mov	qword ptr [rbp - 128], rax
	mov	rax, qword ptr [rbp - 168] 
	mov	qword ptr [rbp - 136], rax
	mov	rax, qword ptr [rbp - 176] 
	mov	qword ptr [rbp - 112], rax
	mov	rax, qword ptr [rbp - 128]
	cmp	rax, 1
	mov	eax, 169656783
	mov	ecx, -2024679297
	cmova	eax, ecx
	jmp	.LBB0_1
.LBB0_52:                               
	movzx	eax, byte ptr [rbp - 42]
	movzx	edx, byte ptr [rbp - 41]
	mov	ebx, eax
	xor	bl, dl
	mov	esi, -1106862460
	mov	ebx, -1169115405
	cmovne	esi, ebx
	test	dl, dl
	mov	edx, esi
	cmovne	edx, ebx
	test	al, al
	cmove	edx, esi
	.p2align	4, 0x90
.LBB0_41:                               

	cmp	edx, -1106862461
	jle	.LBB0_42

	cmp	edx, -1106862460
	je	.LBB0_53

	cmp	edx, 1168054530
	jne	.LBB0_41
	jmp	.LBB0_47
	.p2align	4, 0x90
.LBB0_42:                               
	cmp	edx, -1924553818
	je	.LBB0_52

	cmp	edx, -1169115405
	jne	.LBB0_41

	mov	eax, dword ptr [rdi]
	bswap	eax
	mov	dword ptr [rbp - 48], eax
	mov	edx, ecx
	jmp	.LBB0_41
.LBB0_53:                               
	mov	edx, -1169115405
	jmp	.LBB0_41
.LBB0_90:                               
	mov	eax, dword ptr [rbp - 48]
	mov	rcx, qword ptr [rbp - 96]
	mov	dword ptr [rcx], eax
	mov	rax, qword ptr [rbp - 104]
	mov	rdi, qword ptr [rbp - 152]
	mov	ecx, dword ptr [rip + x.13]
	mov	edx, dword ptr [rip + y.14]
	lea	esi, [rcx - 1]
	imul	esi, ecx
	mov	ecx, esi
	xor	ecx, -2
	and	ecx, esi
	sete	byte ptr [rbp - 42]
	sete	bl
	test	ecx, ecx
	mov	ecx, -1106862460
	cmove	ecx, r12d
	cmp	edx, 10
	setl	dl
	setl	byte ptr [rbp - 41]
	mov	eax, -1106862460
	cmovge	ecx, eax
	xor	dl, bl
	cmovne	ecx, r12d
	mov	edx, -1924553818
	jmp	.LBB0_91
.LBB0_47:                               
	mov	eax, dword ptr [rbp - 48]
	mov	rcx, qword ptr [rbp - 64]
	mov	dword ptr [rcx], eax
	mov	rax, qword ptr [rbp - 72]
	mov	r8, qword ptr [rbp - 112]
	mov	ecx, dword ptr [rip + x.13]
	mov	edx, dword ptr [rip + y.14]
	lea	esi, [rcx - 1]
	imul	esi, ecx
	not	esi
	or	esi, -2
	cmp	esi, -1
	sete	cl
	cmp	edx, 10
	setl	bl
	xor	bl, cl
	mov	edi, -1106862460
	cmovne	edi, r12d
	cmp	esi, -1
	sete	byte ptr [rbp - 42]
	mov	ecx, edi
	cmove	ecx, r12d
	cmp	edx, 10
	setl	byte ptr [rbp - 41]
	cmovge	ecx, edi
	mov	edx, -1924553818
	jmp	.LBB0_48
.LBB0_104:                              
	movzx	eax, byte ptr [rbp - 42]
	movzx	edx, byte ptr [rbp - 41]
	mov	ebx, eax
	xor	bl, dl
	mov	esi, -1106862460
	mov	ebx, -1169115405
	cmovne	esi, ebx
	test	dl, dl
	mov	edx, esi
	cmovne	edx, ebx
	test	al, al
	cmove	edx, esi
	.p2align	4, 0x90
.LBB0_91:                               

	cmp	edx, -1106862461
	jle	.LBB0_92

	cmp	edx, -1106862460
	je	.LBB0_105

	cmp	edx, 1168054530
	jne	.LBB0_91
	jmp	.LBB0_99
	.p2align	4, 0x90
.LBB0_92:                               
	cmp	edx, -1924553818
	je	.LBB0_104

	cmp	edx, -1169115405
	jne	.LBB0_91

	mov	eax, dword ptr [rdi + 4]
	bswap	eax
	mov	dword ptr [rbp - 48], eax
	mov	edx, ecx
	jmp	.LBB0_91
.LBB0_105:                              
	mov	edx, -1169115405
	jmp	.LBB0_91
.LBB0_61:                               
	movzx	eax, byte ptr [rbp - 42]
	movzx	edx, byte ptr [rbp - 41]
	mov	ebx, eax
	xor	bl, dl
	mov	esi, -1106862460
	mov	edi, -1169115405
	cmovne	esi, edi
	test	dl, dl
	mov	edx, esi
	cmovne	edx, edi
	test	al, al
	cmove	edx, esi
	.p2align	4, 0x90
.LBB0_48:                               

	cmp	edx, -1106862461
	jle	.LBB0_49

	cmp	edx, -1106862460
	je	.LBB0_62

	cmp	edx, 1168054530
	jne	.LBB0_48
	jmp	.LBB0_56
	.p2align	4, 0x90
.LBB0_49:                               
	cmp	edx, -1924553818
	je	.LBB0_61

	cmp	edx, -1169115405
	jne	.LBB0_48

	mov	eax, dword ptr [r8 + 4]
	bswap	eax
	mov	dword ptr [rbp - 48], eax
	mov	edx, ecx
	jmp	.LBB0_48
.LBB0_62:                               
	mov	edx, -1169115405
	jmp	.LBB0_48
.LBB0_99:                               
	mov	eax, dword ptr [rbp - 48]
	mov	rcx, qword ptr [rbp - 104]
	mov	dword ptr [rcx], eax
	mov	rdi, qword ptr [rbp - 96]
	mov	rsi, qword ptr [rbp - 104]
	call	_ZN5Botan12_GLOBAL__N_16des_IPERjS1_
	mov	rax, qword ptr [rbp - 120]
	mov	rdx, qword ptr [rax]
	mov	eax, dword ptr [rip + x.421]
	mov	ecx, dword ptr [rip + y.422]
	lea	esi, [rax - 1]
	imul	esi, eax
	not	esi
	or	esi, -2
	cmp	esi, -1
	sete	al
	cmp	ecx, 10
	setl	bl
	xor	bl, al
	mov	edi, 710475645
	mov	eax, -1962322502
	cmovne	edi, eax
	cmp	esi, -1
	sete	byte ptr [rbp - 41]
	mov	esi, edi
	cmove	esi, eax
	cmp	ecx, 10
	setl	byte ptr [rbp - 48]
	cmovge	esi, edi
	mov	ecx, 1018270514
	jmp	.LBB0_100
.LBB0_56:                               
	mov	eax, dword ptr [rbp - 48]
	mov	rcx, qword ptr [rbp - 72]
	mov	dword ptr [rcx], eax
	mov	rax, qword ptr [rbp - 80]
	mov	rdi, qword ptr [rbp - 112]
	mov	ecx, dword ptr [rip + x.13]
	mov	edx, dword ptr [rip + y.14]
	lea	esi, [rcx - 1]
	imul	esi, ecx
	mov	ecx, esi
	xor	ecx, -2
	and	ecx, esi
	sete	bl
	sete	byte ptr [rbp - 42]
	cmp	edx, 10
	setl	al
	xor	al, bl
	mov	eax, -1106862460
	cmovne	eax, r12d
	test	ecx, ecx
	mov	ecx, eax
	cmove	ecx, r12d
	cmp	edx, 10
	setl	byte ptr [rbp - 41]
	cmovge	ecx, eax
	mov	edx, -1924553818
	jmp	.LBB0_57
.LBB0_107:                              
	mov	ecx, esi
	.p2align	4, 0x90
.LBB0_100:                              

	cmp	ecx, 1018270513
	jg	.LBB0_106

	cmp	ecx, -1962322502
	je	.LBB0_110

	cmp	ecx, 710475645
	jne	.LBB0_100

	mov	ecx, 1924581560
	jmp	.LBB0_100
	.p2align	4, 0x90
.LBB0_106:                              
	cmp	ecx, 1924581560
	je	.LBB0_107

	cmp	ecx, 1018270514
	jne	.LBB0_100

	movzx	eax, byte ptr [rbp - 41]
	movzx	ecx, byte ptr [rbp - 48]
	mov	ebx, eax
	xor	bl, cl
	mov	edi, 710475645
	mov	ebx, 1924581560
	cmovne	edi, ebx
	test	cl, cl
	mov	ecx, edi
	cmovne	ecx, ebx
	test	al, al
	cmove	ecx, edi
	jmp	.LBB0_100
.LBB0_70:                               
	movzx	ebx, byte ptr [rbp - 42]
	movzx	edx, byte ptr [rbp - 41]
	mov	eax, ebx
	xor	al, dl
	mov	eax, -1106862460
	mov	esi, -1169115405
	cmovne	eax, esi
	test	dl, dl
	mov	edx, eax
	cmovne	edx, esi
	test	bl, bl
	cmove	edx, eax
	.p2align	4, 0x90
.LBB0_57:                               

	cmp	edx, -1106862461
	jle	.LBB0_58

	cmp	edx, -1106862460
	je	.LBB0_71

	cmp	edx, 1168054530
	jne	.LBB0_57
	jmp	.LBB0_65
	.p2align	4, 0x90
.LBB0_58:                               
	cmp	edx, -1924553818
	je	.LBB0_70

	cmp	edx, -1169115405
	jne	.LBB0_57

	mov	eax, dword ptr [rdi + 8]
	bswap	eax
	mov	dword ptr [rbp - 48], eax
	mov	edx, ecx
	jmp	.LBB0_57
.LBB0_71:                               
	mov	edx, -1169115405
	jmp	.LBB0_57
.LBB0_110:                              
	mov	rdi, qword ptr [rbp - 96]
	mov	rsi, qword ptr [rbp - 104]
	call	_ZN5Botan12_GLOBAL__N_111des_encryptERjS1_PKj
	mov	rdi, qword ptr [rbp - 96]
	mov	rsi, qword ptr [rbp - 104]
	call	_ZN5Botan12_GLOBAL__N_16des_FPERjS1_
	mov	rax, qword ptr [rbp - 104]
	mov	esi, dword ptr [rax]
	mov	rax, qword ptr [rbp - 96]
	mov	edx, dword ptr [rax]
	mov	rdi, qword ptr [rbp - 200]
	call	_ZN5Botan8store_beIjEEvPhT_S2_
	mov	rax, qword ptr [rbp - 152]
	add	rax, 8
	mov	qword ptr [rbp - 192], rax 
	mov	rax, qword ptr [rbp - 200]
	add	rax, 8
	mov	qword ptr [rbp - 184], rax 
	xor	r13d, r13d
	sub	r13, qword ptr [rbp - 144]
	not	r13
	mov	eax, -666369671
	jmp	.LBB0_1
.LBB0_65:                               
	mov	eax, dword ptr [rbp - 48]
	mov	rcx, qword ptr [rbp - 80]
	mov	dword ptr [rcx], eax
	mov	rax, qword ptr [rbp - 88]
	mov	rdi, qword ptr [rbp - 112]
	mov	ecx, dword ptr [rip + x.13]
	mov	edx, dword ptr [rip + y.14]
	lea	esi, [rcx - 1]
	imul	esi, ecx
	not	esi
	or	esi, -2
	cmp	esi, -1
	sete	bl
	sete	byte ptr [rbp - 42]
	mov	ecx, -1106862460
	cmove	ecx, r12d
	cmp	edx, 10
	setl	dl
	setl	byte ptr [rbp - 41]
	mov	eax, -1106862460
	cmovge	ecx, eax
	xor	dl, bl
	cmovne	ecx, r12d
	mov	edx, -1924553818
	jmp	.LBB0_66
.LBB0_79:                               
	movzx	eax, byte ptr [rbp - 42]
	movzx	edx, byte ptr [rbp - 41]
	mov	ebx, eax
	xor	bl, dl
	mov	esi, -1106862460
	mov	ebx, -1169115405
	cmovne	esi, ebx
	test	dl, dl
	mov	edx, esi
	cmovne	edx, ebx
	test	al, al
	cmove	edx, esi
	.p2align	4, 0x90
.LBB0_66:                               

	cmp	edx, -1106862461
	jle	.LBB0_67

	cmp	edx, -1106862460
	je	.LBB0_80

	cmp	edx, 1168054530
	jne	.LBB0_66
	jmp	.LBB0_74
	.p2align	4, 0x90
.LBB0_67:                               
	cmp	edx, -1924553818
	je	.LBB0_79

	cmp	edx, -1169115405
	jne	.LBB0_66

	mov	eax, dword ptr [rdi + 12]
	bswap	eax
	mov	dword ptr [rbp - 48], eax
	mov	edx, ecx
	jmp	.LBB0_66
.LBB0_80:                               
	mov	edx, -1169115405
	jmp	.LBB0_66
.LBB0_74:                               
	mov	eax, dword ptr [rbp - 48]
	mov	rcx, qword ptr [rbp - 88]
	mov	dword ptr [rcx], eax
	mov	rdi, qword ptr [rbp - 64]
	mov	rsi, qword ptr [rbp - 72]
	call	_ZN5Botan12_GLOBAL__N_16des_IPERjS1_
	mov	rdi, qword ptr [rbp - 80]
	mov	rsi, qword ptr [rbp - 88]
	call	_ZN5Botan12_GLOBAL__N_16des_IPERjS1_
	mov	rax, qword ptr [rbp - 120]
	mov	r8, qword ptr [rax]
	mov	eax, dword ptr [rip + x.421]
	mov	ecx, dword ptr [rip + y.422]
	mov	edx, eax
	neg	edx
	not	edx
	imul	edx, eax
	not	edx
	or	edx, -2
	cmp	edx, -1
	sete	al
	cmp	ecx, 10
	setl	bl
	xor	bl, al
	mov	esi, 710475645
	mov	edi, -1962322502
	cmovne	esi, edi
	cmp	edx, -1
	sete	byte ptr [rbp - 41]
	mov	eax, esi
	cmove	eax, edi
	cmp	ecx, 10
	setl	byte ptr [rbp - 48]
	cmovge	eax, esi
	mov	ecx, 1018270514
	jmp	.LBB0_75
.LBB0_82:                               
	mov	ecx, eax
	.p2align	4, 0x90
.LBB0_75:                               

	cmp	ecx, 1018270513
	jg	.LBB0_81

	cmp	ecx, -1962322502
	je	.LBB0_85

	cmp	ecx, 710475645
	jne	.LBB0_75

	mov	ecx, 1924581560
	jmp	.LBB0_75
	.p2align	4, 0x90
.LBB0_81:                               
	cmp	ecx, 1924581560
	je	.LBB0_82

	cmp	ecx, 1018270514
	jne	.LBB0_75

	movzx	ebx, byte ptr [rbp - 41]
	movzx	ecx, byte ptr [rbp - 48]
	mov	edx, ebx
	xor	dl, cl
	test	cl, cl
	mov	ecx, 710475645
	mov	edi, 1924581560
	cmovne	ecx, edi
	test	bl, bl
	mov	esi, 710475645
	cmove	ecx, esi
	test	dl, dl
	cmovne	ecx, edi
	jmp	.LBB0_75
.LBB0_85:                               
	mov	rdi, qword ptr [rbp - 64]
	mov	rsi, qword ptr [rbp - 72]
	mov	rdx, qword ptr [rbp - 80]
	mov	rcx, qword ptr [rbp - 88]
	call	_ZN5Botan12_GLOBAL__N_114des_encrypt_x2ERjS1_S1_S1_PKj
	mov	rdi, qword ptr [rbp - 64]
	mov	rsi, qword ptr [rbp - 72]
	call	_ZN5Botan12_GLOBAL__N_16des_FPERjS1_
	mov	rdi, qword ptr [rbp - 80]
	mov	rsi, qword ptr [rbp - 88]
	call	_ZN5Botan12_GLOBAL__N_16des_FPERjS1_
	mov	rax, qword ptr [rbp - 72]
	mov	esi, dword ptr [rax]
	mov	rax, qword ptr [rbp - 64]
	mov	edx, dword ptr [rax]
	mov	rax, qword ptr [rbp - 88]
	mov	ecx, dword ptr [rax]
	mov	rax, qword ptr [rbp - 80]
	mov	r8d, dword ptr [rax]
	mov	rdi, qword ptr [rbp - 136]
	call	_ZN5Botan8store_beIjEEvPhT_S2_S2_S2_
	mov	rax, qword ptr [rbp - 112]
	add	rax, 16
	mov	qword ptr [rbp - 176], rax 
	mov	rax, qword ptr [rbp - 136]
	add	rax, 16
	mov	qword ptr [rbp - 168], rax 
	mov	rax, qword ptr [rbp - 128]
	movabs	rcx, -840348523245025624
	lea	rax, [rax + rcx - 2]
	sub	rax, rcx
	mov	qword ptr [rbp - 160], rax 
	mov	eax, -1422535620
	jmp	.LBB0_1
.LBB0_13:
	lea	rsp, [rbp - 40]
	pop	rbx
	pop	r12
	pop	r13
	pop	r14
	pop	r15
	pop	rbp
	ret
.Lfunc_end0:
	.size	_ZNK5Botan3DES9encrypt_nEPKhPhm, .Lfunc_end0-_ZNK5Botan3DES9encrypt_nEPKhPhm
	.cfi_endproc

	.section	.text._ZNK5Botan18SymmetricAlgorithm14verify_key_setEb,"axG",@progbits,_ZNK5Botan18SymmetricAlgorithm14verify_key_setEb,comdat
	.weak	_ZNK5Botan18SymmetricAlgorithm14verify_key_setEb 
	.p2align	4, 0x90
	.type	_ZNK5Botan18SymmetricAlgorithm14verify_key_setEb,@function
_ZNK5Botan18SymmetricAlgorithm14verify_key_setEb: 
	.cfi_startproc

	push	rbp
.Lcfi8:
	.cfi_def_cfa_offset 16
	push	r15
.Lcfi9:
	.cfi_def_cfa_offset 24
	push	r14
.Lcfi10:
	.cfi_def_cfa_offset 32
	push	r13
.Lcfi11:
	.cfi_def_cfa_offset 40
	push	r12
.Lcfi12:
	.cfi_def_cfa_offset 48
	push	rbx
.Lcfi13:
	.cfi_def_cfa_offset 56
	push	rax
.Lcfi14:
	.cfi_def_cfa_offset 64
.Lcfi15:
	.cfi_offset rbx, -56
.Lcfi16:
	.cfi_offset r12, -48
.Lcfi17:
	.cfi_offset r13, -40
.Lcfi18:
	.cfi_offset r14, -32
.Lcfi19:
	.cfi_offset r15, -24
.Lcfi20:
	.cfi_offset rbp, -16
	mov	r12d, esi
	mov	r14, rdi
	mov	eax, dword ptr [rip + x.9]
	mov	ecx, dword ptr [rip + y.10]
	lea	edx, [rax - 1]
	imul	edx, eax
	mov	eax, edx
	xor	eax, -2
	test	eax, edx
	sete	byte ptr [rsp + 5]
	cmp	ecx, 10
	setl	byte ptr [rsp + 6]
	xor	r12b, 1
	mov	eax, 1388704968
	mov	r15d, -797354516
	mov	ebp, -1936547236
	mov	r13d, 2061366485
	jmp	.LBB1_1
.LBB1_10:                               
	mov	eax, dword ptr [rip + x.9]
	mov	ecx, dword ptr [rip + y.10]
	mov	edx, eax
	neg	edx
	not	edx
	imul	edx, eax
	mov	eax, edx
	xor	eax, -2
	and	eax, edx
	sete	dl
	cmp	ecx, 10
	setl	bl
	xor	bl, dl
	mov	edx, -849618115
	cmovne	edx, ebp
	test	eax, eax
	mov	eax, edx
	cmove	eax, ebp
	cmp	ecx, 10
	mov	byte ptr [rsp + 7], r12b
	cmovge	eax, edx
	.p2align	4, 0x90
.LBB1_1:                                
	cmp	eax, -152203460
	jg	.LBB1_6

	cmp	eax, -1936547236
	je	.LBB1_11

	cmp	eax, -849618115
	je	.LBB1_13

	cmp	eax, -797354516
	jne	.LBB1_1

	mov	rdi, r14
	call	_ZNK5Botan18SymmetricAlgorithm23throw_key_not_set_errorEv
	mov	eax, -152203459
	jmp	.LBB1_1
	.p2align	4, 0x90
.LBB1_6:                                
	cmp	eax, -152203459
	je	.LBB1_12

	cmp	eax, 2061366485
	je	.LBB1_10

	cmp	eax, 1388704968
	jne	.LBB1_1

	movzx	ecx, byte ptr [rsp + 5]
	movzx	eax, byte ptr [rsp + 6]
	mov	edx, ecx
	xor	dl, al
	test	al, al
	mov	eax, -849618115
	cmovne	eax, r13d
	test	cl, cl
	mov	ecx, -849618115
	cmove	eax, ecx
	test	dl, dl
	cmovne	eax, r13d
	jmp	.LBB1_1
.LBB1_11:                               
	movzx	eax, byte ptr [rsp + 7]
	test	al, al
	mov	eax, -152203459
	cmovne	eax, r15d
	jmp	.LBB1_1
.LBB1_13:                               
	mov	eax, 2061366485
	jmp	.LBB1_1
.LBB1_12:
	add	rsp, 8
	pop	rbx
	pop	r12
	pop	r13
	pop	r14
	pop	r15
	pop	rbp
	ret
.Lfunc_end1:
	.size	_ZNK5Botan18SymmetricAlgorithm14verify_key_setEb, .Lfunc_end1-_ZNK5Botan18SymmetricAlgorithm14verify_key_setEb
	.cfi_endproc

	.text
	.p2align	4, 0x90         
	.type	_ZN5Botan12_GLOBAL__N_16des_IPERjS1_,@function
_ZN5Botan12_GLOBAL__N_16des_IPERjS1_:   

	push	rbp
	push	r15
	push	r14
	push	r13
	push	r12
	push	rbx
	mov	eax, dword ptr [rip + x.15]
	mov	ecx, eax
	neg	ecx
	not	ecx
	imul	ecx, eax
	mov	eax, ecx
	xor	eax, -2
	test	eax, ecx
	sete	byte ptr [rsp - 2]
	mov	eax, dword ptr [rip + y.16]
	cmp	eax, 10
	setl	byte ptr [rsp - 1]
	mov	eax, -156137621
	mov	r12d, -741997311
	mov	r13d, -326086129
	mov	r11d, -76585926
	mov	r9d, 316890968
	mov	r14d, 1138871954
	jmp	.LBB2_1
.LBB2_11:                               
	mov	cl, byte ptr [rsp - 2]
	mov	al, byte ptr [rsp - 1]
	mov	edx, ecx
	xor	dl, al
	mov	edx, -1534975704
	mov	ebp, -2119457230
	cmovne	edx, ebp
	test	al, al
	mov	eax, edx
	cmovne	eax, ebp
	test	cl, cl
	cmove	eax, edx
	.p2align	4, 0x90
.LBB2_1:                                






	mov	ecx, eax
	and	ecx, 2147483647
	cmp	ecx, 1241704781
	jg	.LBB2_9

	cmp	ecx, 28026418
	je	.LBB2_12

	cmp	ecx, 612507944
	jne	.LBB2_1

	mov	eax, dword ptr [rsi]
	mov	ebx, eax
	shl	ebx, 4
	shr	eax, 28
	mov	edx, ebx
	not	edx
	mov	ebp, eax
	not	ebp
	mov	r8d, edx
	and	r8d, 852892062
	mov	ecx, ebx
	and	ecx, -852892064
	or	ecx, r8d
	and	ebp, 852892062
	and	eax, 1
	or	eax, ebp
	xor	eax, ecx
	mov	dword ptr [rsi], eax
	mov	ecx, dword ptr [rdi]
	mov	ebp, ecx
	not	ebp
	and	ebx, ebp
	and	edx, ecx
	or	edx, ebx
	mov	eax, edx
	xor	eax, 252645135
	and	eax, edx
	mov	r8d, eax
	not	r8d
	mov	edx, r8d
	and	edx, -2038775192
	mov	ebx, eax
	and	ebx, 2038775191
	or	ebx, edx
	and	ebp, -2038775192
	and	ecx, 2038775191
	or	ecx, ebp
	xor	ecx, ebx
	mov	dword ptr [rdi], ecx
	mov	ecx, dword ptr [rsi]
	mov	edx, ecx
	not	edx
	and	edx, -719666487
	and	ecx, 719666486
	or	ecx, edx
	and	r8d, -719666487
	and	eax, 719666486
	or	eax, r8d
	xor	eax, ecx
	mov	r8d, eax
	shl	r8d, 12
	rol	eax, 12
	mov	dword ptr [rsi], eax
	mov	eax, dword ptr [rdi]
	mov	ecx, eax
	not	ecx
	mov	edx, r8d
	and	edx, ecx
	not	r8d
	and	r8d, eax
	or	r8d, edx
	mov	r12d, r8d
	not	r12d
	or	r12d, 65535
	and	r8d, -65536
	and	eax, r12d
	and	ecx, r8d
	or	ecx, eax
	mov	dword ptr [rdi], ecx
	mov	r15d, dword ptr [rsi]
	mov	ecx, dword ptr [rip + x.101]
	mov	r10d, dword ptr [rip + y.102]
	lea	ebp, [rcx - 1]
	imul	ebp, ecx
	mov	ecx, ebp
	xor	ecx, -2
	and	ecx, ebp
	sete	byte ptr [rsp - 10]
	sete	al
	cmp	r10d, 10
	setl	bl
	xor	bl, al
	mov	eax, -2000466273
	mov	edx, 2055428002
	cmovne	eax, edx
	test	ecx, ecx
	mov	ecx, eax
	cmove	ecx, edx
	cmp	r10d, 10
	setl	byte ptr [rsp - 9]
	cmovge	ecx, eax
	and	r12d, r15d
	not	r15d
	and	r15d, r8d
	or	r12d, r15d
	mov	eax, r12d
	shr	eax, 18
	shl	r12d, 14
	mov	ebp, eax
	not	ebp
	mov	edx, r12d
	not	edx
	and	ebp, -1222362733
	and	eax, 1644
	or	eax, ebp
	and	edx, -1222362733
	and	r12d, 1222361088
	or	r12d, edx
	xor	r12d, eax
	mov	eax, 1340673213
	jmp	.LBB2_5
	.p2align	4, 0x90
.LBB2_9:                                
	cmp	ecx, 1241704782
	je	.LBB2_40

	cmp	ecx, 1991346027
	jne	.LBB2_1
	jmp	.LBB2_11
.LBB2_12:                               
	mov	eax, dword ptr [rsi]
	mov	ebx, eax
	shl	ebx, 4
	rol	eax, 4
	mov	dword ptr [rsi], eax
	mov	edx, dword ptr [rdi]
	mov	r8d, edx
	not	r8d
	mov	eax, r8d
	and	eax, -1939416448
	mov	ecx, edx
	and	ecx, 1939416447
	or	ecx, eax
	mov	eax, ebx
	not	eax
	and	eax, -1939416448
	and	ebx, 1939416432
	or	ebx, eax
	xor	ebx, ecx
	mov	eax, ebx
	xor	eax, 252645135
	and	eax, ebx
	mov	ebx, eax
	not	ebx
	mov	ecx, ebx
	and	ecx, -1100332653
	mov	ebp, eax
	and	ebp, 1100332652
	or	ebp, ecx
	and	r8d, -1100332653
	and	edx, 1100332652
	or	edx, r8d
	xor	edx, ebp
	mov	dword ptr [rdi], edx
	mov	ecx, dword ptr [rsi]
	mov	edx, ecx
	not	edx
	and	edx, 360818104
	and	ecx, -360818105
	or	ecx, edx
	and	ebx, 360818104
	and	eax, -360818105
	or	eax, ebx
	xor	eax, ecx
	mov	ecx, eax
	shl	ecx, 12
	rol	eax, 12
	mov	dword ptr [rsi], eax
	mov	ebx, dword ptr [rdi]
	mov	ebp, ebx
	not	ebp
	mov	eax, ecx
	and	eax, ebp
	not	ecx
	and	ecx, ebx
	or	ecx, eax
	mov	edx, ecx
	xor	edx, 65535
	and	edx, ecx
	mov	eax, edx
	not	eax
	and	ebx, eax
	and	ebp, edx
	or	ebp, ebx
	mov	dword ptr [rdi], ebp
	mov	ebx, dword ptr [rsi]
	mov	ecx, dword ptr [rip + x.101]
	mov	r8d, dword ptr [rip + y.102]
	lea	ebp, [rcx - 1]
	imul	ebp, ecx
	mov	ecx, ebp
	xor	ecx, -2
	and	ecx, ebp
	sete	bpl
	sete	byte ptr [rsp - 10]
	cmp	r8d, 10
	setl	r15b
	xor	r15b, bpl
	mov	ebp, -2000466273
	mov	r10d, 2055428002
	cmovne	ebp, r10d
	test	ecx, ecx
	mov	r15d, ebp
	cmove	r15d, r10d
	cmp	r8d, 10
	mov	ecx, ebx
	not	ecx
	setl	byte ptr [rsp - 9]
	cmovge	r15d, ebp
	and	ecx, 276836573
	and	ebx, -276836574
	or	ebx, ecx
	and	eax, 276836573
	and	edx, -276836574
	or	edx, eax
	xor	edx, ebx
	rol	edx, 14
	mov	eax, 1340673213
	jmp	.LBB2_13
.LBB2_43:                               
	movzx	ebx, byte ptr [rsp - 10]
	movzx	eax, byte ptr [rsp - 9]
	mov	edx, ebx
	xor	dl, al
	test	al, al
	mov	eax, -2000466273
	cmovne	eax, r14d
	test	bl, bl
	mov	ebp, -2000466273
	cmove	eax, ebp
	test	dl, dl
	cmovne	eax, r14d
	.p2align	4, 0x90
.LBB2_5:                                

	cmp	eax, 1340673212
	jg	.LBB2_41

	cmp	eax, -2000466273
	je	.LBB2_44

	cmp	eax, 1138871954
	jne	.LBB2_5

	mov	dword ptr [rsp - 8], r12d
	mov	eax, ecx
	jmp	.LBB2_5
	.p2align	4, 0x90
.LBB2_41:                               
	cmp	eax, 2055428002
	je	.LBB2_45

	cmp	eax, 1340673213
	jne	.LBB2_5
	jmp	.LBB2_43
.LBB2_44:                               
	mov	eax, 1138871954
	jmp	.LBB2_5
.LBB2_19:                               
	movzx	ebx, byte ptr [rsp - 10]
	movzx	eax, byte ptr [rsp - 9]
	mov	ecx, ebx
	xor	cl, al
	test	al, al
	mov	eax, -2000466273
	cmovne	eax, r14d
	test	bl, bl
	mov	ebp, -2000466273
	cmove	eax, ebp
	test	cl, cl
	cmovne	eax, r14d
	.p2align	4, 0x90
.LBB2_13:                               

	cmp	eax, 1340673212
	jg	.LBB2_17

	cmp	eax, -2000466273
	je	.LBB2_20

	cmp	eax, 1138871954
	jne	.LBB2_13

	mov	dword ptr [rsp - 8], edx
	mov	eax, r15d
	jmp	.LBB2_13
	.p2align	4, 0x90
.LBB2_17:                               
	cmp	eax, 2055428002
	je	.LBB2_21

	cmp	eax, 1340673213
	jne	.LBB2_13
	jmp	.LBB2_19
.LBB2_20:                               
	mov	eax, 1138871954
	jmp	.LBB2_13
.LBB2_45:                               
	mov	edx, dword ptr [rsp - 8]
	mov	dword ptr [rsi], edx
	mov	ebp, dword ptr [rdi]
	mov	r8d, ebp
	not	r8d
	mov	ecx, r8d
	and	ecx, 1355042514
	mov	eax, ebp
	and	eax, -1355042515
	or	eax, ecx
	mov	ecx, edx
	not	ecx
	and	ecx, 1355042514
	and	edx, -1355042515
	or	edx, ecx
	xor	edx, eax
	mov	ebx, edx
	xor	ebx, -858993460
	and	ebx, edx
	mov	r10d, ebx
	not	r10d
	mov	ecx, r10d
	and	ecx, 883136943
	mov	eax, ebx
	and	eax, -883136944
	or	eax, ecx
	and	r8d, 883136943
	and	ebp, -883136944
	or	ebp, r8d
	xor	ebp, eax
	mov	dword ptr [rdi], ebp
	mov	eax, dword ptr [rsi]
	and	r10d, eax
	not	eax
	and	eax, ebx
	or	r10d, eax
	mov	eax, dword ptr [rip + x.103]
	mov	ebp, dword ptr [rip + y.104]
	mov	ecx, eax
	neg	ecx
	not	ecx
	imul	ecx, eax
	not	ecx
	or	ecx, -2
	rol	r10d, 26
	cmp	ecx, -1
	sete	al
	sete	byte ptr [rsp - 10]
	mov	ecx, 1833141439
	mov	r12d, -741997311
	cmove	ecx, r12d
	cmp	ebp, 10
	setl	bl
	setl	byte ptr [rsp - 9]
	mov	edx, 1833141439
	cmovge	ecx, edx
	xor	bl, al
	cmovne	ecx, r12d
	mov	eax, -1075016413
	jmp	.LBB2_46
.LBB2_21:                               
	mov	ecx, dword ptr [rsp - 8]
	mov	dword ptr [rsi], ecx
	mov	ebp, dword ptr [rdi]
	mov	ebx, ebp
	not	ebx
	mov	eax, ecx
	and	eax, ebx
	not	ecx
	and	ecx, ebp
	or	ecx, eax
	mov	edx, ecx
	xor	edx, -858993460
	and	edx, ecx
	mov	r8d, edx
	not	r8d
	mov	ecx, r8d
	and	ecx, 456840968
	mov	eax, edx
	and	eax, -456840969
	or	eax, ecx
	and	ebx, 456840968
	and	ebp, -456840969
	or	ebp, ebx
	xor	ebp, eax
	mov	dword ptr [rdi], ebp
	mov	r15d, dword ptr [rsi]
	mov	eax, dword ptr [rip + x.103]
	mov	ebp, dword ptr [rip + y.104]
	mov	ecx, eax
	neg	ecx
	not	ecx
	imul	ecx, eax
	not	ecx
	or	ecx, -2
	cmp	ecx, -1
	sete	al
	cmp	ebp, 10
	setl	bl
	xor	bl, al
	mov	eax, 1833141439
	cmovne	eax, r12d
	cmp	ecx, -1
	sete	byte ptr [rsp - 10]
	mov	ecx, eax
	cmove	ecx, r12d
	cmp	ebp, 10
	setl	byte ptr [rsp - 9]
	cmovge	ecx, eax
	and	r8d, r15d
	not	r15d
	and	r15d, edx
	or	r8d, r15d
	mov	eax, r8d
	shr	eax, 6
	shl	r8d, 26
	mov	ebp, eax
	not	ebp
	mov	edx, r8d
	not	edx
	and	ebp, 1412844618
	and	eax, 63550389
	or	eax, ebp
	and	edx, 1412844618
	and	r8d, -1476395008
	or	r8d, edx
	xor	r8d, eax
	mov	eax, -1075016413
	jmp	.LBB2_22
.LBB2_57:                               
	movzx	edx, byte ptr [rsp - 10]
	movzx	eax, byte ptr [rsp - 9]
	mov	ebx, edx
	xor	bl, al
	mov	ebp, 1833141439
	cmovne	ebp, r13d
	test	al, al
	mov	eax, ebp
	cmovne	eax, r13d
	test	dl, dl
	cmove	eax, ebp
	.p2align	4, 0x90
.LBB2_46:                               

	cmp	eax, -326086130
	jg	.LBB2_54

	cmp	eax, -1075016413
	je	.LBB2_57

	cmp	eax, -741997311
	jne	.LBB2_46
	jmp	.LBB2_49
	.p2align	4, 0x90
.LBB2_54:                               
	cmp	eax, -326086129
	je	.LBB2_58

	cmp	eax, 1833141439
	jne	.LBB2_46

	mov	eax, -326086129
	jmp	.LBB2_46
.LBB2_58:                               
	mov	dword ptr [rsp - 8], r10d
	mov	eax, ecx
	jmp	.LBB2_46
.LBB2_33:                               
	movzx	edx, byte ptr [rsp - 10]
	movzx	eax, byte ptr [rsp - 9]
	mov	ebx, edx
	xor	bl, al
	mov	ebx, 1833141439
	cmovne	ebx, r13d
	test	al, al
	mov	eax, ebx
	cmovne	eax, r13d
	test	dl, dl
	cmove	eax, ebx
	.p2align	4, 0x90
.LBB2_22:                               

	cmp	eax, -326086130
	jg	.LBB2_30

	cmp	eax, -1075016413
	je	.LBB2_33

	cmp	eax, -741997311
	jne	.LBB2_22
	jmp	.LBB2_25
	.p2align	4, 0x90
.LBB2_30:                               
	cmp	eax, -326086129
	je	.LBB2_34

	cmp	eax, 1833141439
	jne	.LBB2_22

	mov	eax, -326086129
	jmp	.LBB2_22
.LBB2_34:                               
	mov	dword ptr [rsp - 8], r8d
	mov	eax, ecx
	jmp	.LBB2_22
.LBB2_49:                               
	mov	eax, dword ptr [rsp - 8]
	mov	dword ptr [rsi], eax
	mov	ecx, dword ptr [rdi]
	mov	ebp, ecx
	not	ebp
	mov	edx, eax
	and	edx, ebp
	not	eax
	and	eax, ecx
	or	eax, edx
	mov	ebx, eax
	xor	ebx, -16711936
	and	ebx, eax
	mov	r8d, ebx
	not	r8d
	mov	eax, r8d
	and	eax, 8015486
	mov	edx, ebx
	and	edx, -8015487
	or	edx, eax
	and	ebp, 8015486
	and	ecx, -8015487
	or	ecx, ebp
	xor	ecx, edx
	mov	dword ptr [rdi], ecx
	mov	ecx, dword ptr [rsi]
	mov	eax, dword ptr [rip + x.105]
	mov	r10d, dword ptr [rip + y.106]
	lea	ebp, [rax - 1]
	imul	ebp, eax
	not	ebp
	or	ebp, -2
	cmp	ebp, -1
	sete	al
	cmp	r10d, 10
	setl	dl
	xor	dl, al
	mov	edx, 822421346
	cmovne	edx, r11d
	cmp	ebp, -1
	sete	byte ptr [rsp - 10]
	mov	ebp, edx
	cmove	ebp, r11d
	cmp	r10d, 10
	mov	eax, ecx
	not	eax
	setl	byte ptr [rsp - 9]
	cmovge	ebp, edx
	and	eax, -1422845164
	and	ecx, 1422845163
	or	ecx, eax
	and	r8d, -1422845164
	and	ebx, 1422845163
	or	ebx, r8d
	xor	ebx, ecx
	mov	eax, ebx
	shl	eax, 9
	shr	ebx, 23
	mov	ecx, eax
	not	ecx
	mov	edx, ebx
	not	edx
	and	ecx, 1792352312
	and	eax, -1792352768
	or	eax, ecx
	and	edx, 1792352312
	and	ebx, 455
	or	ebx, edx
	xor	ebx, eax
	mov	eax, -1752780101
	jmp	.LBB2_50
.LBB2_25:                               
	mov	ebx, dword ptr [rsp - 8]
	mov	dword ptr [rsi], ebx
	mov	ecx, dword ptr [rdi]
	mov	r8d, ecx
	not	r8d
	mov	edx, r8d
	and	edx, -400875657
	mov	ebp, ecx
	and	ebp, 400875656
	or	ebp, edx
	mov	edx, ebx
	not	edx
	and	edx, -400875657
	and	ebx, 400875656
	or	ebx, edx
	xor	ebx, ebp
	mov	ebp, ebx
	not	ebp
	or	ebp, -16711936
	mov	edx, ebp
	and	edx, -455038708
	mov	eax, ebx
	and	eax, 2031859
	or	eax, edx
	and	r8d, -455038708
	and	ecx, 455038707
	or	ecx, r8d
	xor	ecx, eax
	mov	dword ptr [rdi], ecx
	mov	eax, dword ptr [rsi]
	and	ebp, eax
	not	eax
	and	eax, ebx
	and	eax, 16711935
	or	ebp, eax
	mov	eax, dword ptr [rip + x.105]
	mov	edx, dword ptr [rip + y.106]
	lea	ecx, [rax - 1]
	imul	ecx, eax
	not	ecx
	or	ecx, -2
	rol	ebp, 9
	cmp	ecx, -1
	sete	al
	sete	byte ptr [rsp - 10]
	mov	ecx, 822421346
	cmove	ecx, r11d
	cmp	edx, 10
	setl	dl
	setl	byte ptr [rsp - 9]
	mov	ebx, 822421346
	cmovge	ecx, ebx
	xor	dl, al
	cmovne	ecx, r11d
	mov	eax, -1752780101
	jmp	.LBB2_26
.LBB2_62:                               
	movzx	ecx, byte ptr [rsp - 10]
	movzx	eax, byte ptr [rsp - 9]
	mov	edx, ecx
	xor	dl, al
	mov	edx, 822421346
	cmovne	edx, r9d
	test	al, al
	mov	eax, edx
	cmovne	eax, r9d
	test	cl, cl
	cmove	eax, edx
	.p2align	4, 0x90
.LBB2_50:                               

	cmp	eax, 316890967
	jg	.LBB2_59

	cmp	eax, -1752780101
	je	.LBB2_62

	cmp	eax, -76585926
	jne	.LBB2_50
	jmp	.LBB2_53
	.p2align	4, 0x90
.LBB2_59:                               
	cmp	eax, 316890968
	je	.LBB2_63

	cmp	eax, 822421346
	jne	.LBB2_50

	mov	eax, 316890968
	jmp	.LBB2_50
.LBB2_63:                               
	mov	dword ptr [rsp - 8], ebx
	mov	eax, ebp
	jmp	.LBB2_50
.LBB2_38:                               
	movzx	ebx, byte ptr [rsp - 10]
	movzx	eax, byte ptr [rsp - 9]
	mov	edx, ebx
	xor	dl, al
	mov	edx, 822421346
	cmovne	edx, r9d
	test	al, al
	mov	eax, edx
	cmovne	eax, r9d
	test	bl, bl
	cmove	eax, edx
	.p2align	4, 0x90
.LBB2_26:                               

	cmp	eax, 316890967
	jg	.LBB2_35

	cmp	eax, -1752780101
	je	.LBB2_38

	cmp	eax, -76585926
	jne	.LBB2_26
	jmp	.LBB2_29
	.p2align	4, 0x90
.LBB2_35:                               
	cmp	eax, 316890968
	je	.LBB2_39

	cmp	eax, 822421346
	jne	.LBB2_26

	mov	eax, 316890968
	jmp	.LBB2_26
.LBB2_39:                               
	mov	dword ptr [rsp - 8], ebp
	mov	eax, ecx
	jmp	.LBB2_26
.LBB2_53:                               
	mov	edx, dword ptr [rsp - 8]
	mov	dword ptr [rsi], edx
	mov	eax, dword ptr [rdi]
	mov	ebp, eax
	not	ebp
	mov	ecx, edx
	and	ecx, ebp
	not	edx
	and	edx, eax
	or	edx, ecx
	mov	r8d, edx
	xor	r8d, 1431655765
	and	r8d, edx
	mov	ecx, r8d
	not	ecx
	mov	edx, ecx
	and	edx, 14758858
	mov	ebx, r8d
	and	ebx, -14758859
	or	ebx, edx
	and	ebp, 14758858
	and	eax, -14758859
	or	eax, ebp
	xor	eax, ebx
	lea	ebp, [rax + rax]
	shr	eax, 31
	mov	edx, ebp
	not	edx
	not	eax
	and	edx, 920035727
	and	ebp, -920035728
	or	ebp, edx
	and	eax, 920035727
	xor	eax, ebp
	mov	dword ptr [rdi], eax
	mov	eax, dword ptr [rsi]
	and	ecx, eax
	not	eax
	and	eax, r8d
	or	ecx, eax
	mov	dword ptr [rsi], ecx
	mov	eax, -2119457230
	jmp	.LBB2_1
.LBB2_29:                               
	mov	eax, dword ptr [rsp - 8]
	mov	dword ptr [rsi], eax
	mov	ecx, dword ptr [rdi]
	mov	edx, ecx
	not	edx
	mov	ebp, eax
	and	ebp, edx
	not	eax
	and	eax, ecx
	or	eax, ebp
	mov	ebp, eax
	xor	ebp, 1431655765
	and	ebp, eax
	mov	eax, ebp
	not	eax
	and	ecx, eax
	and	edx, ebp
	or	edx, ecx
	rol	edx
	mov	dword ptr [rdi], edx
	mov	ecx, dword ptr [rsi]
	mov	edx, ecx
	not	edx
	and	edx, 687666558
	and	ecx, -687666559
	or	ecx, edx
	and	eax, 687666558
	and	ebp, -687666559
	or	ebp, eax
	xor	ebp, ecx
	mov	dword ptr [rsi], ebp
	mov	eax, dword ptr [rip + x.15]
	mov	ecx, dword ptr [rip + y.16]
	lea	edx, [rax - 1]
	imul	edx, eax
	mov	eax, edx
	xor	eax, -2
	and	eax, edx
	sete	dl
	cmp	ecx, 10
	setl	bl
	xor	bl, dl
	mov	edx, -1534975704
	mov	ebp, -905778866
	cmovne	edx, ebp
	test	eax, eax
	mov	eax, edx
	cmove	eax, ebp
	cmp	ecx, 10
	cmovge	eax, edx
	jmp	.LBB2_1
.LBB2_40:
	pop	rbx
	pop	r12
	pop	r13
	pop	r14
	pop	r15
	pop	rbp
	ret
.Lfunc_end2:
	.size	_ZN5Botan12_GLOBAL__N_16des_IPERjS1_, .Lfunc_end2-_ZN5Botan12_GLOBAL__N_16des_IPERjS1_

	.p2align	4, 0x90         
	.type	_ZN5Botan12_GLOBAL__N_114des_encrypt_x2ERjS1_S1_S1_PKj,@function
_ZN5Botan12_GLOBAL__N_114des_encrypt_x2ERjS1_S1_S1_PKj: 

	push	rbp
	push	r15
	push	r14
	push	r13
	push	r12
	push	rbx
	sub	rsp, 80
	mov	eax, dword ptr [rip + x.111]
	mov	r14d, dword ptr [rip + y.112]
	lea	r13d, [rax - 1]
	imul	r13d, eax
	mov	eax, r13d
	xor	eax, -2
	mov	dword ptr [rsp - 104], eax 
	and	eax, r13d
	sete	r9b
	cmp	r14d, 10
	setl	bl
	xor	bl, r9b
	mov	r15d, 1702022579
	mov	ebp, 674206395
	cmovne	ebp, r15d
	test	eax, eax
	cmovne	r15d, ebp
	cmp	r14d, 10
	mov	eax, dword ptr [rip + x.17]
	mov	r11d, dword ptr [rip + y.18]
	cmovge	r15d, ebp
	lea	ebp, [rax - 1]
	imul	ebp, eax
	not	ebp
	or	ebp, -2
	cmp	ebp, -1
	setne	r9b
	sete	byte ptr [rsp - 94]
	sete	r10b
	cmp	r11d, 9
	setg	bl
	cmp	r11d, 10
	setl	al
	setl	byte ptr [rsp - 93]
	xor	al, r10b
	or	bl, r9b
	xor	bl, 1
	or	bl, al
	mov	ebp, 1380970860
	mov	ebx, 907880745
	mov	eax, 703139728
	cmove	ebx, eax
	mov	dword ptr [rsp - 32], ebx 
	mov	ebx, -181584115
	cmove	ebx, eax
	mov	dword ptr [rsp - 36], ebx 
	mov	eax, -1372995364
	cmove	ebp, eax
	mov	dword ptr [rsp - 28], ebp 
	movabs	rax, 6287463295665497164
	movabs	rbp, 4611686018427387902
	and	rbp, rax
	mov	qword ptr [rsp + 64], rbp 
	mov	qword ptr [rsp + 32], rdi 
	mov	eax, dword ptr [rdi]
	mov	dword ptr [rsp - 40], eax 
	mov	qword ptr [rsp + 40], rsi 
	mov	eax, dword ptr [rsi]
	mov	dword ptr [rsp - 44], eax 
	mov	qword ptr [rsp + 48], rdx 
	mov	eax, dword ptr [rdx]
	mov	dword ptr [rsp - 48], eax 
	mov	qword ptr [rsp + 56], rcx 
	mov	eax, dword ptr [rcx]
	mov	dword ptr [rsp - 52], eax 
	mov	eax, 1311155965









	mov	dword ptr [rsp - 72], r13d 
	mov	dword ptr [rsp - 88], r15d 
	mov	qword ptr [rsp + 16], r8 
	mov	dword ptr [rsp - 56], r14d 
	jmp	.LBB3_1
.LBB3_93:                               
	mov	eax, dword ptr [rsp - 116]
	mov	eax, dword ptr [rsp - 124]
	mov	eax, dword ptr [rsp - 124]
	mov	eax, dword ptr [rsp - 124]
	mov	eax, dword ptr [rsp - 124]
	mov	eax, dword ptr [rsp - 124]
	mov	eax, dword ptr [rsp - 124]
	mov	rax, qword ptr [rsp - 112]
	mov	rax, qword ptr [rsp - 112]
	mov	rax, qword ptr [rsp - 112]
	mov	rax, qword ptr [rsp - 112]
	mov	rax, qword ptr [rsp - 112]
	mov	rax, qword ptr [rsp - 112]
	mov	rax, qword ptr [rsp - 112]
	mov	rax, qword ptr [rsp - 112]
	mov	rax, qword ptr [rsp - 112]
	mov	rax, qword ptr [rsp - 112]
	mov	rax, qword ptr [rsp - 112]
	mov	eax, 907880745
	mov	ebp, dword ptr [rsp - 84] 
	.p2align	4, 0x90
.LBB3_1:                                








	cmp	eax, 703139727
	jle	.LBB3_2

	cmp	eax, 907880744
	jle	.LBB3_11

	cmp	eax, 907880745
	je	.LBB3_20

	cmp	eax, 1380970860
	je	.LBB3_19

	cmp	eax, 1311155965
	jne	.LBB3_1

	mov	cl, byte ptr [rsp - 94]
	mov	al, byte ptr [rsp - 93]
	mov	edx, ecx
	xor	dl, al
	test	al, al
	mov	eax, -1372995364
	mov	esi, 650403676
	cmovne	eax, esi
	test	cl, cl
	mov	ecx, -1372995364
	cmove	eax, ecx
	test	dl, dl
	cmovne	eax, esi
	jmp	.LBB3_1
	.p2align	4, 0x90
.LBB3_2:                                
	cmp	eax, -181584116
	jle	.LBB3_3

	cmp	eax, -181584115
	je	.LBB3_57

	cmp	eax, 650403676
	je	.LBB3_18

	cmp	eax, 132305388
	jne	.LBB3_1
	jmp	.LBB3_9
	.p2align	4, 0x90
.LBB3_11:                               
	cmp	eax, 703139728
	je	.LBB3_59

	cmp	eax, 853315700
	jne	.LBB3_1

	mov	rax, qword ptr [rsp + 24] 
	mov	qword ptr [rsp - 112], rax
	mov	eax, dword ptr [rsp - 68] 
	mov	dword ptr [rsp - 124], eax
	mov	eax, dword ptr [rsp - 60] 
	mov	dword ptr [rsp - 92], eax
	mov	eax, dword ptr [rsp - 64] 
	mov	dword ptr [rsp - 120], eax
	mov	dword ptr [rsp - 100], ebp
	mov	rax, qword ptr [rsp - 112]
	cmp	rax, 16
	mov	eax, -374921384
	mov	ecx, 132305388
	cmove	eax, ecx
	jmp	.LBB3_1
	.p2align	4, 0x90
.LBB3_3:                                
	cmp	eax, -1372995364
	je	.LBB3_58

	cmp	eax, -374921384
	jne	.LBB3_1

	mov	eax, dword ptr [rsp - 32] 
	jmp	.LBB3_1
.LBB3_20:                               
	test	r13d, dword ptr [rsp - 104] 
	mov	eax, dword ptr [rsp - 120]
	sete	byte ptr [rsp - 126]
	cmp	r14d, 10
	setl	byte ptr [rsp - 125]
	rol	eax, 28
	mov	ecx, -29994451
	jmp	.LBB3_21
.LBB3_19:                               
	mov	ebp, dword ptr [rsp - 8]
	mov	eax, dword ptr [rsp - 4]
	mov	dword ptr [rsp - 64], eax 
	mov	eax, dword ptr [rsp]
	mov	dword ptr [rsp - 60], eax 
	mov	eax, 853315700
	mov	ecx, dword ptr [rsp + 4]
	mov	dword ptr [rsp - 68], ecx 
	mov	ecx, 0
	mov	qword ptr [rsp + 24], rcx 
	jmp	.LBB3_1
.LBB3_57:                               
	mov	ebp, dword ptr [rsp - 80]
	mov	eax, dword ptr [rsp - 76]
	mov	dword ptr [rsp - 60], eax 
	mov	eax, dword ptr [rsp + 8]
	mov	dword ptr [rsp - 64], eax 
	mov	eax, dword ptr [rsp + 12]
	mov	dword ptr [rsp - 68], eax 
	mov	eax, 853315700
	mov	rcx, qword ptr [rsp + 72]
	mov	qword ptr [rsp + 24], rcx 
	jmp	.LBB3_1
.LBB3_18:                               
	mov	eax, dword ptr [rsp - 40] 
	mov	dword ptr [rsp - 8], eax
	mov	eax, dword ptr [rsp - 44] 
	mov	dword ptr [rsp - 4], eax
	mov	eax, dword ptr [rsp - 48] 
	mov	dword ptr [rsp], eax
	mov	eax, dword ptr [rsp - 52] 
	mov	dword ptr [rsp + 4], eax
	mov	eax, dword ptr [rsp - 28] 
	jmp	.LBB3_1
.LBB3_59:                               
	test	r13d, dword ptr [rsp - 104] 
	mov	eax, dword ptr [rsp - 120]
	sete	byte ptr [rsp - 126]
	cmp	r14d, 10
	setl	byte ptr [rsp - 125]
	mov	ecx, eax
	shr	ecx, 4
	shl	eax, 28
	mov	edx, ecx
	not	edx
	mov	esi, eax
	not	esi
	and	edx, -1733605847
	and	ecx, 122993110
	or	ecx, edx
	and	esi, -1733605847
	and	eax, 1610612736
	or	eax, esi
	xor	eax, ecx
	mov	ecx, -29994451
	jmp	.LBB3_60
.LBB3_58:                               
	mov	eax, 650403676
	jmp	.LBB3_1
.LBB3_24:                               
	movzx	ebx, byte ptr [rsp - 126]
	movzx	ecx, byte ptr [rsp - 125]
	mov	edx, ebx
	xor	dl, cl
	test	cl, cl
	mov	ecx, 674206395
	mov	edi, -728779100
	cmovne	ecx, edi
	test	bl, bl
	mov	esi, 674206395
	cmove	ecx, esi
	test	dl, dl
	cmovne	ecx, edi
	.p2align	4, 0x90
.LBB3_21:                               

	cmp	ecx, 674206394
	jle	.LBB3_22

	cmp	ecx, 674206395
	je	.LBB3_33

	cmp	ecx, 1702022579
	jne	.LBB3_21
	jmp	.LBB3_27
	.p2align	4, 0x90
.LBB3_22:                               
	cmp	ecx, -728779100
	je	.LBB3_32

	cmp	ecx, -29994451
	jne	.LBB3_21
	jmp	.LBB3_24
.LBB3_33:                               
	mov	ecx, -728779100
	jmp	.LBB3_21
.LBB3_32:                               
	mov	dword ptr [rsp - 116], eax
	mov	ecx, r15d
	jmp	.LBB3_21
.LBB3_63:                               
	movzx	ebx, byte ptr [rsp - 126]
	movzx	ecx, byte ptr [rsp - 125]
	mov	edx, ebx
	xor	dl, cl
	mov	edx, 674206395
	mov	esi, -728779100
	cmovne	edx, esi
	test	cl, cl
	mov	ecx, edx
	cmovne	ecx, esi
	test	bl, bl
	cmove	ecx, edx
	.p2align	4, 0x90
.LBB3_60:                               

	cmp	ecx, 674206394
	jle	.LBB3_61

	cmp	ecx, 674206395
	je	.LBB3_72

	cmp	ecx, 1702022579
	jne	.LBB3_60
	jmp	.LBB3_66
	.p2align	4, 0x90
.LBB3_61:                               
	cmp	ecx, -728779100
	je	.LBB3_71

	cmp	ecx, -29994451
	jne	.LBB3_60
	jmp	.LBB3_63
.LBB3_72:                               
	mov	ecx, -728779100
	jmp	.LBB3_60
.LBB3_71:                               
	mov	dword ptr [rsp - 116], eax
	mov	ecx, r15d
	jmp	.LBB3_60
.LBB3_27:                               
	mov	dword ptr [rsp - 84], ebp 
	mov	ecx, dword ptr [rsp - 116]
	mov	r15, qword ptr [rsp - 112]
	mov	r11d, dword ptr [r8 + 8*r15]
	mov	r12d, r14d
	mov	r14d, dword ptr [r8 + 8*r15 + 4]
	mov	r10d, r11d
	not	r10d
	mov	eax, ecx
	and	eax, r10d
	not	ecx
	and	ecx, r11d
	or	ecx, eax
	mov	ebp, dword ptr [rsp - 120]
	mov	edx, ebp
	not	edx
	and	edx, r14d
	mov	r9d, r14d
	not	r9d
	and	ebp, r9d
	or	ebp, edx
	mov	edx, ecx
	mov	esi, ecx
	shr	esi, 24
	and	esi, 63
	movzx	esi, byte ptr [rsi + _ZN5Botan12_GLOBAL__N_1L10SPBOX_CATSE]
	imul	esi, esi, 1879314694
	mov	edi, esi
	xor	edi, -16843782
	and	edi, esi
	mov	esi, ebp
	shr	esi, 24
	mov	ebx, esi
	not	ebx
	or	ebx, -362661440
	and	ebx, -362661391
	and	esi, 14
	or	esi, ebx
	xor	esi, -362661455
	movzx	esi, byte ptr [rsi + _ZN5Botan12_GLOBAL__N_1L10SPBOX_CATSE]
	imul	esi, esi, 33628192
	and	esi, -2146402272
	mov	ebx, esi
	and	ebx, edi
	xor	esi, edi
	or	esi, ebx
	shr	edx, 16
	mov	ebx, edx
	xor	ebx, 65472
	and	ebx, edx
	mov	edx, ebx
	and	edx, 128
	xor	ebx, 128
	or	ebx, edx
	mov	edi, esi
	not	edi
	mov	edx, edi
	and	edx, 979100348
	and	esi, -979100350
	or	esi, edx
	mov	eax, ebp
	movzx	edx, byte ptr [rbx + _ZN5Botan12_GLOBAL__N_1L10SPBOX_CATSE]
	imul	edx, edx, 9441352
	not	edx
	or	edx, -134349321
	or	edi, edx
	and	edx, 979100348
	xor	edx, esi
	not	edi
	or	edi, edx
	shr	eax, 16
	mov	edx, eax
	xor	edx, 65472
	and	edx, eax
	mov	eax, edx
	not	eax
	and	eax, 1609670745
	mov	esi, edx
	and	esi, 24486
	or	esi, eax
	mov	ebx, ecx
	xor	ebx, -64
	and	ebx, ecx
	mov	eax, ecx
	xor	esi, 1609670809
	and	edx, 192
	or	edx, esi
	movzx	ecx, byte ptr [rdx + _ZN5Botan12_GLOBAL__N_1L10SPBOX_CATSE]
	imul	ecx, ecx, -1912208863
	mov	edx, ecx
	xor	edx, -8396930
	and	edx, ecx
	mov	esi, edi
	and	esi, edx
	xor	edx, edi
	mov	ecx, ebp
	xor	ecx, -64
	and	ecx, ebp
	mov	edi, ebp
	or	edx, esi
	shr	eax, 8
	or	eax, 256
	and	eax, 319
	movzx	eax, byte ptr [rax + _ZN5Botan12_GLOBAL__N_1L10SPBOX_CATSE]
	imul	eax, eax, 9511232
	mov	esi, eax
	xor	esi, -1107820864
	and	esi, eax
	mov	eax, edx
	and	eax, esi
	xor	esi, edx
	or	esi, eax
	shr	edi, 8
	or	edi, 320
	and	edi, 383
	movzx	eax, byte ptr [rdi + _ZN5Botan12_GLOBAL__N_1L10SPBOX_CATSE]
	imul	edx, eax, -2138828776
	mov	eax, esi
	not	eax
	mov	edi, eax
	and	edi, 1862367296
	and	esi, -1862367297
	or	esi, edi
	mov	edi, edx
	not	edi
	or	edi, -541081617
	or	eax, edi
	and	edi, 1862367296
	and	edx, 4194320
	or	edx, edi
	xor	edx, esi
	not	eax
	or	eax, edx
	mov	edx, ebx
	not	edx
	and	edx, -1188752925
	mov	esi, ebx
	and	esi, 1188752924
	or	esi, edx
	xor	esi, -1188753309
	and	ebx, 384
	or	ebx, esi
	movzx	edx, byte ptr [rbx + _ZN5Botan12_GLOBAL__N_1L10SPBOX_CATSE]
	imul	edx, edx, -535690750
	mov	esi, dword ptr [rsp - 100]
	mov	edi, ecx
	and	edi, 448
	xor	ecx, 448
	or	ecx, edi
	mov	edi, esi
	not	edi
	and	edi, edx
	not	edx
	or	edx, -69208067
	and	edx, esi
	and	edi, 69208066
	or	edi, edx
	mov	edx, edi
	not	edx
	and	edx, eax
	not	eax
	and	eax, edi
	movzx	ecx, byte ptr [rcx + _ZN5Botan12_GLOBAL__N_1L10SPBOX_CATSE]
	imul	ecx, ecx, 2171456
	or	eax, edx
	mov	edx, eax
	not	edx
	and	edx, 639060499
	and	eax, -639060500
	or	eax, edx
	mov	edx, ecx
	not	edx
	or	edx, 638798355
	and	edx, 639060499
	and	ecx, 268439616
	or	ecx, edx
	xor	ecx, eax
	test	r13d, dword ptr [rsp - 104] 
	mov	dword ptr [rsp - 80], ecx
	mov	eax, dword ptr [rsp - 124]
	sete	byte ptr [rsp - 126]
	mov	r8d, r12d
	cmp	r12d, 10
	setl	byte ptr [rsp - 125]
	mov	ecx, eax
	shr	ecx, 4
	shl	eax, 28
	mov	edx, ecx
	not	edx
	and	edx, 706302907
	and	ecx, 99003460
	or	ecx, edx
	mov	edx, eax
	not	edx
	and	edx, 706302907
	and	eax, -805306368
	or	eax, edx
	lea	rsi, [r15 + r15]
	mov	r15d, dword ptr [rsp - 88] 
	xor	eax, ecx
	mov	ecx, -29994451
	jmp	.LBB3_28
.LBB3_66:                               
	mov	dword ptr [rsp - 84], ebp 
	mov	edx, dword ptr [rsp - 116]
	mov	rax, qword ptr [rsp - 112]
	mov	rax, qword ptr [rsp - 112]
	mov	rax, qword ptr [rsp - 112]
	mov	rax, qword ptr [rsp - 112]
	mov	rax, qword ptr [rsp - 112]
	mov	rax, qword ptr [rsp - 112]
	mov	rax, qword ptr [rsp - 112]
	mov	rax, qword ptr [rsp - 112]
	mov	rax, qword ptr [rsp - 112]
	mov	rax, qword ptr [rsp - 112]
	mov	rax, qword ptr [rsp - 112]
	mov	rax, qword ptr [rsp - 112]
	mov	rax, qword ptr [rsp - 112]
	mov	rax, qword ptr [rsp - 112]
	mov	ebx, r14d
	mov	r12d, dword ptr [r8 + 8*rax]
	add	rax, rax
	mov	esi, r12d
	not	esi
	mov	ecx, edx
	mov	dword ptr [rsp - 12], esi 
	and	ecx, esi
	not	edx
	and	edx, r12d
	or	edx, ecx
	mov	rcx, rax
	not	rcx
	movabs	rsi, 6287463295665497164
	mov	rdi, rsi
	not	rsi
	and	rcx, rdi
	and	rax, rsi
	or	rax, rcx
	and	esi, 1
	add	rsi, qword ptr [rsp + 64] 
	xor	rsi, rax
	mov	ecx, dword ptr [r8 + 4*rsi]
	mov	eax, dword ptr [rsp - 120]
	mov	eax, dword ptr [rsp - 120]
	mov	eax, dword ptr [rsp - 120]
	mov	eax, dword ptr [rsp - 120]
	mov	eax, dword ptr [rsp - 120]
	mov	eax, dword ptr [rsp - 120]
	mov	edi, dword ptr [rsp - 120]
	mov	eax, edi
	not	eax
	and	eax, ecx
	mov	dword ptr [rsp - 16], ecx 
	mov	r8d, ecx
	not	r8d
	and	edi, r8d
	or	edi, eax
	mov	eax, edx
	shr	eax, 24
	and	eax, 63
	movzx	eax, byte ptr [rax + _ZN5Botan12_GLOBAL__N_1L10SPBOX_CATSE]
	imul	eax, eax, 1879314694
	mov	dword ptr [rsp - 20], eax 
	mov	eax, edi
	shr	eax, 24
	mov	ecx, eax
	xor	ecx, 192
	and	ecx, eax
	mov	eax, ecx
	not	eax
	and	eax, 751694888
	mov	esi, ecx
	and	esi, 215
	or	esi, eax
	xor	esi, 751694952
	and	ecx, 64
	or	ecx, esi
	movzx	eax, byte ptr [rcx + _ZN5Botan12_GLOBAL__N_1L10SPBOX_CATSE]
	imul	eax, eax, 33628192
	mov	r11d, eax
	xor	r11d, 2146402240
	and	r11d, eax
	mov	eax, edx
	shr	eax, 16
	mov	ecx, eax
	xor	ecx, 65472
	and	ecx, eax
	mov	eax, ecx
	not	eax
	and	eax, 380637816
	mov	esi, ecx
	and	esi, 60807
	or	esi, eax
	xor	esi, 380637944
	and	ecx, 128
	or	ecx, esi
	movzx	eax, byte ptr [rcx + _ZN5Botan12_GLOBAL__N_1L10SPBOX_CATSE]
	imul	esi, eax, 9441352
	and	esi, 134349320
	mov	eax, edi
	shr	eax, 16
	mov	ecx, eax
	xor	ecx, 65472
	and	ecx, eax
	mov	eax, ecx
	and	eax, 192
	xor	ecx, 192
	or	ecx, eax
	movzx	eax, byte ptr [rcx + _ZN5Botan12_GLOBAL__N_1L10SPBOX_CATSE]
	imul	eax, eax, -1912208863
	mov	r10d, eax
	xor	r10d, -8396930
	and	r10d, eax
	mov	eax, edx
	shr	eax, 8
	or	eax, 256
	and	eax, 319
	movzx	eax, byte ptr [rax + _ZN5Botan12_GLOBAL__N_1L10SPBOX_CATSE]
	imul	r15d, eax, 9511232
	and	r15d, 1107820800
	mov	eax, edi
	shr	eax, 8
	or	eax, 320
	and	eax, 383
	movzx	eax, byte ptr [rax + _ZN5Botan12_GLOBAL__N_1L10SPBOX_CATSE]
	imul	eax, eax, -2138828776
	and	eax, 541081616
	mov	dword ptr [rsp - 24], eax 
	mov	eax, edx
	not	eax
	or	eax, -1565441792
	and	eax, -1565441745
	and	edx, 16
	or	edx, eax
	xor	edx, -1565441873
	movzx	eax, byte ptr [rdx + _ZN5Botan12_GLOBAL__N_1L10SPBOX_CATSE]
	imul	ecx, eax, -535690750
	mov	eax, ecx
	xor	eax, -69208068
	and	eax, ecx
	or	edi, 448
	and	edi, 511
	movzx	ecx, byte ptr [rdi + _ZN5Botan12_GLOBAL__N_1L10SPBOX_CATSE]
	imul	ecx, ecx, 2171456
	mov	edi, ecx
	xor	edi, 805040000
	and	edi, ecx
	test	r13d, dword ptr [rsp - 104] 
	mov	ecx, dword ptr [rsp - 100]
	mov	ecx, dword ptr [rsp - 100]
	mov	ecx, dword ptr [rsp - 100]
	mov	ecx, dword ptr [rsp - 100]
	mov	r9d, dword ptr [rsp - 100]
	mov	ecx, dword ptr [rsp - 124]
	sete	byte ptr [rsp - 126]
	cmp	ebx, 10
	setl	byte ptr [rsp - 125]
	rol	ecx, 28
	mov	ebp, -29994451
	jmp	.LBB3_67
.LBB3_31:                               
	movzx	edx, byte ptr [rsp - 126]
	movzx	ecx, byte ptr [rsp - 125]
	mov	ebx, edx
	xor	bl, cl
	test	cl, cl
	mov	ecx, 674206395
	mov	edi, -728779100
	cmovne	ecx, edi
	test	dl, dl
	mov	edx, 674206395
	cmove	ecx, edx
	test	bl, bl
	cmovne	ecx, edi
	.p2align	4, 0x90
.LBB3_28:                               

	cmp	ecx, 674206394
	jle	.LBB3_29

	cmp	ecx, 674206395
	je	.LBB3_42

	cmp	ecx, 1702022579
	jne	.LBB3_28
	jmp	.LBB3_36
	.p2align	4, 0x90
.LBB3_29:                               
	cmp	ecx, -728779100
	je	.LBB3_41

	cmp	ecx, -29994451
	jne	.LBB3_28
	jmp	.LBB3_31
.LBB3_42:                               
	mov	ecx, -728779100
	jmp	.LBB3_28
.LBB3_41:                               
	mov	dword ptr [rsp - 116], eax
	mov	ecx, r15d
	jmp	.LBB3_28
.LBB3_70:                               
	movzx	r13d, byte ptr [rsp - 126]
	movzx	ebx, byte ptr [rsp - 125]
	mov	r14d, r13d
	xor	r14b, bl
	test	bl, bl
	mov	ebp, 674206395
	mov	edx, -728779100
	cmovne	ebp, edx
	test	r13b, r13b
	mov	r13d, dword ptr [rsp - 72] 
	mov	ebx, 674206395
	cmove	ebp, ebx
	test	r14b, r14b
	cmovne	ebp, edx
	.p2align	4, 0x90
.LBB3_67:                               

	cmp	ebp, 674206394
	jle	.LBB3_68

	cmp	ebp, 674206395
	je	.LBB3_81

	cmp	ebp, 1702022579
	jne	.LBB3_67
	jmp	.LBB3_75
	.p2align	4, 0x90
.LBB3_68:                               
	cmp	ebp, -728779100
	je	.LBB3_80

	cmp	ebp, -29994451
	jne	.LBB3_67
	jmp	.LBB3_70
.LBB3_81:                               
	mov	ebp, -728779100
	jmp	.LBB3_67
.LBB3_80:                               
	mov	dword ptr [rsp - 116], ecx
	mov	ebp, dword ptr [rsp - 88] 
	jmp	.LBB3_67
.LBB3_36:                               
	mov	eax, dword ptr [rsp - 116]
	mov	ecx, eax
	not	ecx
	and	ecx, -493483696
	and	eax, 493483695
	or	eax, ecx
	and	r10d, -493483696
	and	r11d, 493483695
	or	r11d, r10d
	xor	r11d, eax
	mov	eax, dword ptr [rsp - 124]
	mov	ecx, eax
	not	ecx
	and	ecx, -978634419
	and	eax, 978634418
	or	eax, ecx
	and	r9d, -978634419
	and	r14d, 978634418
	or	r14d, r9d
	xor	r14d, eax
	mov	eax, r11d
	shr	eax, 24
	and	eax, 63
	movzx	eax, byte ptr [rax + _ZN5Botan12_GLOBAL__N_1L10SPBOX_CATSE]
	imul	eax, eax, 1879314694
	mov	ecx, eax
	xor	ecx, -16843782
	and	ecx, eax
	mov	eax, r14d
	shr	eax, 24
	mov	edx, eax
	not	edx
	or	edx, 1094690496
	and	edx, 1094690522
	and	eax, 37
	or	eax, edx
	xor	eax, 1094690458
	movzx	eax, byte ptr [rax + _ZN5Botan12_GLOBAL__N_1L10SPBOX_CATSE]
	imul	eax, eax, 33628192
	and	eax, -2146402272
	mov	edx, eax
	and	edx, ecx
	xor	eax, ecx
	or	eax, edx
	mov	ecx, r11d
	shr	ecx, 16
	mov	edx, ecx
	xor	edx, 65472
	and	edx, ecx
	mov	ecx, edx
	and	ecx, 128
	xor	edx, 128
	or	edx, ecx
	movzx	ecx, byte ptr [rdx + _ZN5Botan12_GLOBAL__N_1L10SPBOX_CATSE]
	imul	ecx, ecx, 9441352
	mov	edx, ecx
	xor	edx, -134349328
	and	edx, ecx
	mov	ecx, eax
	not	ecx
	mov	edi, edx
	not	edi
	mov	ebp, ecx
	and	ebp, -1076906676
	and	eax, 1076906674
	or	eax, ebp
	or	ecx, edi
	and	edi, -1076906676
	and	edx, 1076906672
	or	edx, edi
	xor	edx, eax
	not	ecx
	or	ecx, edx
	mov	eax, r14d
	shr	eax, 16
	mov	edx, eax
	xor	edx, 65472
	and	edx, eax
	mov	eax, edx
	and	eax, 192
	xor	edx, 192
	or	edx, eax
	movzx	eax, byte ptr [rdx + _ZN5Botan12_GLOBAL__N_1L10SPBOX_CATSE]
	imul	eax, eax, -1912208863
	and	eax, 8396929
	mov	edx, ecx
	and	edx, eax
	xor	eax, ecx
	or	eax, edx
	mov	ecx, r11d
	shr	ecx, 8
	mov	edx, ecx
	not	edx
	or	edx, -1106637056
	and	edx, -1106637041
	and	ecx, 48
	or	ecx, edx
	xor	ecx, -1106637297
	movzx	ecx, byte ptr [rcx + _ZN5Botan12_GLOBAL__N_1L10SPBOX_CATSE]
	imul	edx, ecx, 9511232
	mov	ecx, edx
	xor	ecx, -1107820864
	and	ecx, edx
	mov	edx, eax
	and	edx, ecx
	xor	ecx, eax
	or	ecx, edx
	mov	eax, r14d
	shr	eax, 8
	mov	edx, eax
	xor	edx, 16777152
	and	edx, eax
	mov	eax, edx
	not	eax
	and	eax, 1169924685
	mov	edi, edx
	and	edi, 4480434
	or	edi, eax
	xor	edi, 1169924877
	and	edx, 320
	or	edx, edi
	movzx	eax, byte ptr [rdx + _ZN5Botan12_GLOBAL__N_1L10SPBOX_CATSE]
	imul	eax, eax, -2138828776
	mov	edx, eax
	xor	edx, -541081624
	and	edx, eax
	mov	eax, ecx
	not	eax
	mov	edi, edx
	not	edi
	mov	ebp, eax
	and	ebp, 1766724209
	and	ecx, -1766724210
	or	ecx, ebp
	or	eax, edi
	and	edi, 1766724209
	and	edx, -1766724216
	or	edx, edi
	xor	edx, ecx
	not	eax
	or	eax, edx
	mov	ecx, r11d
	xor	ecx, -64
	and	ecx, r11d
	mov	edx, ecx
	and	edx, 384
	xor	ecx, 384
	or	ecx, edx
	movzx	ecx, byte ptr [rcx + _ZN5Botan12_GLOBAL__N_1L10SPBOX_CATSE]
	imul	ecx, ecx, -535690750
	mov	ebp, ecx
	xor	ebp, -69208068
	and	ebp, ecx
	or	r14d, 448
	and	r14d, 511
	movzx	ecx, byte ptr [r14 + _ZN5Botan12_GLOBAL__N_1L10SPBOX_CATSE]
	imul	ecx, ecx, 2171456
	mov	edi, dword ptr [rsp - 92]
	mov	edx, ebp
	not	edx
	and	edx, edi
	not	edi
	and	edi, ebp
	or	edi, edx
	mov	edx, edi
	not	edx
	and	edx, 1000220996
	and	edi, -1000220997
	or	edi, edx
	mov	edx, eax
	not	edx
	and	edx, 1000220996
	and	eax, -1000220997
	or	eax, edx
	xor	eax, edi
	mov	edx, eax
	not	edx
	and	edx, ecx
	not	ecx
	or	ecx, -268701761
	and	edx, 268701760
	and	eax, ecx
	or	eax, edx
	test	r13d, dword ptr [rsp - 104] 
	mov	dword ptr [rsp - 76], eax
	mov	eax, dword ptr [rsp - 80]
	sete	byte ptr [rsp - 126]
	mov	r14d, r8d
	cmp	r14d, 10
	setl	byte ptr [rsp - 125]
	rol	eax, 28
	mov	ecx, -29994451
	mov	r8, qword ptr [rsp + 16] 
	jmp	.LBB3_37
.LBB3_75:                               
	mov	ecx, dword ptr [rsp - 20] 
	mov	ebx, ecx
	xor	ebx, -16843781
	and	ebx, ecx
	mov	ecx, r11d
	not	ecx
	mov	ebp, ecx
	and	ebp, 188138947
	and	r11d, -188138948
	or	r11d, ebp
	mov	ebp, ebx
	not	ebp
	or	ecx, ebp
	and	ebp, 188138947
	and	ebx, -188138948
	or	ebx, ebp
	xor	ebx, r11d
	not	ecx
	or	ecx, ebx
	mov	ebp, ecx
	and	ebp, esi
	xor	ecx, esi
	or	ecx, ebp
	mov	ebp, ecx
	and	ebp, r10d
	xor	ecx, r10d
	or	ecx, ebp
	mov	ebp, ecx
	not	ebp
	mov	ebx, ebp
	and	ebx, -794731441
	and	ecx, 794731440
	or	ecx, ebx
	mov	esi, r15d
	not	esi
	or	ebp, esi
	and	esi, -794731441
	and	r15d, 794731440
	or	r15d, esi
	xor	r15d, ecx
	not	ebp
	or	ebp, r15d
	mov	ecx, ebp
	mov	edx, dword ptr [rsp - 24] 
	and	ecx, edx
	xor	ebp, edx
	or	ebp, ecx
	mov	ecx, ebp
	not	ecx
	and	ecx, -2116017501
	and	ebp, 2116017500
	or	ebp, ecx
	mov	ecx, eax
	not	ecx
	and	ecx, -2116017501
	and	eax, 2116017500
	or	eax, ecx
	xor	eax, ebp
	mov	ecx, eax
	not	ecx
	and	ecx, edi
	not	edi
	and	edi, eax
	or	edi, ecx
	mov	eax, edi
	not	eax
	and	eax, r9d
	not	r9d
	and	r9d, edi
	or	r9d, eax
	mov	eax, dword ptr [rsp - 116]
	mov	ecx, eax
	not	ecx
	and	ecx, 1182142138
	and	eax, -1182142139
	or	eax, ecx
	mov	ecx, dword ptr [rsp - 12] 
	and	ecx, 1182142138
	and	r12d, -1182142139
	or	r12d, ecx
	xor	r12d, eax
	mov	eax, dword ptr [rsp - 124]
	mov	eax, dword ptr [rsp - 124]
	mov	eax, dword ptr [rsp - 124]
	mov	eax, dword ptr [rsp - 124]
	mov	eax, dword ptr [rsp - 124]
	mov	eax, dword ptr [rsp - 124]
	mov	eax, dword ptr [rsp - 124]
	mov	eax, dword ptr [rsp - 124]
	and	r8d, eax
	not	eax
	mov	ecx, dword ptr [rsp - 16] 
	and	ecx, eax
	or	r8d, ecx
	mov	eax, r12d
	shr	eax, 24
	mov	ecx, eax
	xor	ecx, 192
	and	ecx, eax
	movzx	eax, byte ptr [rcx + _ZN5Botan12_GLOBAL__N_1L10SPBOX_CATSE]
	imul	r14d, eax, 1879314694
	mov	eax, r8d
	shr	eax, 24
	mov	ecx, eax
	xor	ecx, 192
	and	ecx, eax
	mov	eax, ecx
	and	eax, 64
	xor	ecx, 64
	or	ecx, eax
	movzx	eax, byte ptr [rcx + _ZN5Botan12_GLOBAL__N_1L10SPBOX_CATSE]
	imul	r10d, eax, 33628192
	and	r10d, -2146402272
	mov	eax, r12d
	shr	eax, 16
	mov	esi, eax
	xor	esi, 65472
	and	esi, eax
	mov	eax, esi
	and	eax, 128
	xor	esi, 128
	or	esi, eax
	movzx	eax, byte ptr [rsi + _ZN5Botan12_GLOBAL__N_1L10SPBOX_CATSE]
	imul	edi, eax, 9441352
	and	edi, 134349320
	mov	eax, r8d
	shr	eax, 16
	mov	esi, eax
	xor	esi, 65472
	and	esi, eax
	mov	eax, esi
	and	eax, 192
	xor	esi, 192
	or	esi, eax
	movzx	eax, byte ptr [rsi + _ZN5Botan12_GLOBAL__N_1L10SPBOX_CATSE]
	imul	r11d, eax, -1912208863
	and	r11d, 8396929
	mov	eax, r12d
	shr	eax, 8
	mov	esi, eax
	xor	esi, 16777152
	and	esi, eax
	mov	eax, esi
	not	eax
	and	eax, -354878614
	mov	ebp, esi
	and	ebp, 2557077
	or	ebp, eax
	xor	ebp, -354878870
	and	esi, 256
	or	esi, ebp
	movzx	eax, byte ptr [rsi + _ZN5Botan12_GLOBAL__N_1L10SPBOX_CATSE]
	imul	eax, eax, 9511232
	mov	r15d, eax
	xor	r15d, -1107820864
	and	r15d, eax
	mov	eax, r8d
	shr	eax, 8
	mov	esi, eax
	not	esi
	or	esi, -1693842752
	and	esi, -1693842746
	and	eax, 57
	or	eax, esi
	xor	eax, -1693842554
	movzx	eax, byte ptr [rax + _ZN5Botan12_GLOBAL__N_1L10SPBOX_CATSE]
	imul	eax, eax, -2138828776
	mov	ecx, r13d
	mov	r13d, eax
	xor	r13d, -541081624
	and	r13d, eax
	mov	eax, r12d
	xor	eax, -64
	and	eax, r12d
	mov	esi, eax
	and	esi, 384
	xor	eax, 384
	or	eax, esi
	movzx	eax, byte ptr [rax + _ZN5Botan12_GLOBAL__N_1L10SPBOX_CATSE]
	imul	ebp, eax, -535690750
	and	ebp, 69208066
	mov	eax, r8d
	not	eax
	or	eax, 505509312
	and	eax, 505509361
	and	r8d, 14
	or	r8d, eax
	xor	r8d, 505508913
	movzx	eax, byte ptr [r8 + _ZN5Botan12_GLOBAL__N_1L10SPBOX_CATSE]
	imul	eax, eax, 2171456
	mov	ebx, eax
	xor	ebx, 805040000
	and	ebx, eax
	test	ecx, dword ptr [rsp - 104] 
	mov	eax, dword ptr [rsp - 92]
	mov	eax, dword ptr [rsp - 92]
	mov	eax, dword ptr [rsp - 92]
	mov	r12d, dword ptr [rsp - 92]
	sete	byte ptr [rsp - 126]
	mov	eax, dword ptr [rsp - 56] 
	mov	r8d, eax
	cmp	eax, 10
	setl	byte ptr [rsp - 125]
	mov	eax, r9d
	shr	eax, 4
	shl	r9d, 28
	mov	ecx, eax
	not	ecx
	and	ecx, 1456403176
	and	eax, 154209559
	or	eax, ecx
	mov	ecx, r9d
	not	ecx
	and	ecx, 1456403176
	and	r9d, -1610612736
	or	r9d, ecx
	xor	r9d, eax
	mov	eax, -29994451
	jmp	.LBB3_76
.LBB3_40:                               
	movzx	ebx, byte ptr [rsp - 126]
	movzx	ecx, byte ptr [rsp - 125]
	mov	edx, ebx
	xor	dl, cl
	test	cl, cl
	mov	ecx, 674206395
	mov	ebp, -728779100
	cmovne	ecx, ebp
	test	bl, bl
	mov	edi, 674206395
	cmove	ecx, edi
	test	dl, dl
	cmovne	ecx, ebp
	.p2align	4, 0x90
.LBB3_37:                               

	cmp	ecx, 674206394
	jle	.LBB3_38

	cmp	ecx, 674206395
	je	.LBB3_51

	cmp	ecx, 1702022579
	jne	.LBB3_37
	jmp	.LBB3_45
	.p2align	4, 0x90
.LBB3_38:                               
	cmp	ecx, -728779100
	je	.LBB3_50

	cmp	ecx, -29994451
	jne	.LBB3_37
	jmp	.LBB3_40
.LBB3_51:                               
	mov	ecx, -728779100
	jmp	.LBB3_37
.LBB3_50:                               
	mov	dword ptr [rsp - 116], eax
	mov	ecx, r15d
	jmp	.LBB3_37
.LBB3_79:                               
	movzx	edx, byte ptr [rsp - 126]
	movzx	eax, byte ptr [rsp - 125]
	mov	ecx, edx
	xor	cl, al
	mov	ecx, 674206395
	mov	esi, -728779100
	cmovne	ecx, esi
	test	al, al
	mov	eax, ecx
	cmovne	eax, esi
	test	dl, dl
	cmove	eax, ecx
	.p2align	4, 0x90
.LBB3_76:                               

	cmp	eax, 674206394
	jle	.LBB3_77

	cmp	eax, 674206395
	je	.LBB3_90

	cmp	eax, 1702022579
	jne	.LBB3_76
	jmp	.LBB3_84
	.p2align	4, 0x90
.LBB3_77:                               
	cmp	eax, -728779100
	je	.LBB3_89

	cmp	eax, -29994451
	jne	.LBB3_76
	jmp	.LBB3_79
.LBB3_90:                               
	mov	eax, -728779100
	jmp	.LBB3_76
.LBB3_89:                               
	mov	dword ptr [rsp - 116], r9d
	mov	eax, dword ptr [rsp - 88] 
	jmp	.LBB3_76
.LBB3_45:                               
	mov	ecx, dword ptr [rsp - 116]
	mov	r11d, dword ptr [r8 + 4*rsi + 8]
	mov	ebp, r11d
	not	ebp
	mov	eax, ebp
	and	eax, -1050215730
	mov	edx, r11d
	and	edx, 1050215729
	or	edx, eax
	mov	eax, ecx
	not	eax
	and	eax, -1050215730
	and	ecx, 1050215729
	or	ecx, eax
	xor	ecx, edx
	movabs	rax, -7601993011557294692
	mov	rdx, rax
	lea	rax, [rsi + rdx + 3]
	sub	rax, rdx
	mov	r9d, dword ptr [r8 + 4*rax]
	mov	eax, dword ptr [rsp - 80]
	mov	edx, eax
	not	edx
	and	edx, r9d
	mov	r10d, r9d
	not	r10d
	and	eax, r10d
	or	eax, edx
	mov	edx, ecx
	shr	edx, 24
	mov	esi, edx
	xor	esi, 192
	and	esi, edx
	movzx	edx, byte ptr [rsi + _ZN5Botan12_GLOBAL__N_1L10SPBOX_CATSE]
	imul	esi, edx, 1879314694
	mov	edx, esi
	xor	edx, -16843782
	and	edx, esi
	mov	esi, eax
	shr	esi, 24
	mov	edi, esi
	xor	edi, 192
	and	edi, esi
	mov	esi, edi
	not	esi
	and	esi, 2094855786
	mov	ebx, edi
	and	ebx, 149
	or	ebx, esi
	mov	esi, ecx
	xor	ebx, 2094855722
	and	edi, 64
	or	edi, ebx
	movzx	edi, byte ptr [rdi + _ZN5Botan12_GLOBAL__N_1L10SPBOX_CATSE]
	imul	ebx, edi, 33628192
	mov	edi, ebx
	xor	edi, 2146402240
	and	edi, ebx
	mov	ebx, edi
	and	ebx, edx
	xor	edi, edx
	or	edi, ebx
	shr	esi, 16
	mov	edx, esi
	xor	edx, 65472
	and	edx, esi
	mov	esi, edx
	and	esi, 128
	xor	edx, 128
	or	edx, esi
	movzx	edx, byte ptr [rdx + _ZN5Botan12_GLOBAL__N_1L10SPBOX_CATSE]
	imul	ebx, edx, 9441352
	and	ebx, 134349320
	mov	edx, edi
	and	edx, ebx
	xor	ebx, edi
	or	ebx, edx
	mov	edx, eax
	shr	edx, 16
	mov	edi, edx
	not	edi
	or	edi, -1920485120
	and	edi, -1920485096
	and	edx, 39
	or	edx, edi
	xor	edx, -1920484904
	movzx	edx, byte ptr [rdx + _ZN5Botan12_GLOBAL__N_1L10SPBOX_CATSE]
	imul	edi, edx, -1912208863
	mov	edx, edi
	xor	edx, -8396930
	and	edx, edi
	mov	esi, ebx
	not	esi
	mov	edi, esi
	and	edi, 703830663
	and	ebx, -703830664
	or	ebx, edi
	mov	edi, edx
	not	edi
	or	esi, edi
	and	edi, 703830663
	and	edx, -703830664
	or	edx, edi
	mov	edi, ecx
	xor	edi, -64
	and	edi, ecx

	xor	edx, ebx
	not	esi
	or	esi, edx
	shr	ecx, 8
	or	ecx, 256
	and	ecx, 319
	movzx	ecx, byte ptr [rcx + _ZN5Botan12_GLOBAL__N_1L10SPBOX_CATSE]
	imul	edx, ecx, 9511232
	and	edx, 1107820800
	mov	ecx, esi
	and	ecx, edx
	xor	edx, esi
	or	edx, ecx
	mov	ecx, eax
	shr	ecx, 8
	or	ecx, 320
	and	ecx, 383
	movzx	ecx, byte ptr [rcx + _ZN5Botan12_GLOBAL__N_1L10SPBOX_CATSE]
	imul	ecx, ecx, -2138828776
	mov	esi, ecx
	xor	esi, -541081624
	and	esi, ecx
	mov	ecx, edx
	not	ecx
	mov	ebx, ecx
	and	ebx, -1804773862
	and	edx, 1804773861
	or	edx, ebx
	mov	ebx, esi
	not	ebx
	or	ecx, ebx
	and	ebx, -1804773862
	and	esi, 1804773856
	or	esi, ebx
	xor	esi, edx
	not	ecx
	or	ecx, esi
	mov	edx, edi
	and	edx, 384
	xor	edi, 384
	or	edi, edx
	movzx	edx, byte ptr [rdi + _ZN5Botan12_GLOBAL__N_1L10SPBOX_CATSE]
	imul	edx, edx, -535690750
	mov	esi, dword ptr [rsp - 120]
	or	eax, 448
	and	eax, 511
	movzx	eax, byte ptr [rax + _ZN5Botan12_GLOBAL__N_1L10SPBOX_CATSE]
	imul	edi, eax, 2171456
	mov	eax, edi
	xor	eax, 805040000
	and	eax, edi
	mov	edi, esi
	not	edi
	and	edi, edx
	not	edx
	or	edx, -69208067
	and	edx, esi
	and	edi, 69208066
	or	edi, edx
	mov	edx, edi
	not	edx
	and	edx, ecx
	not	ecx
	and	ecx, edi
	or	ecx, edx
	mov	edx, ecx
	not	edx
	and	edx, 1057445627
	and	ecx, -1057445628
	or	ecx, edx
	mov	edx, eax
	not	edx
	and	edx, 1057445627
	and	eax, 16296192
	or	eax, edx
	xor	eax, ecx
	test	r13d, dword ptr [rsp - 104] 
	mov	dword ptr [rsp + 8], eax
	mov	eax, dword ptr [rsp - 76]
	sete	byte ptr [rsp - 126]
	cmp	r14d, 10
	setl	byte ptr [rsp - 125]
	rol	eax, 28
	mov	ecx, -29994451
	jmp	.LBB3_46
.LBB3_84:                               
	mov	eax, r14d
	xor	eax, -16843781
	and	eax, r14d
	mov	edx, r10d
	not	edx
	mov	ecx, edx
	and	ecx, -161670709
	and	r10d, 161670708
	or	r10d, ecx
	mov	ecx, eax
	not	ecx
	or	edx, ecx
	and	ecx, -161670709
	and	eax, 161670708
	or	eax, ecx
	xor	eax, r10d
	not	edx
	or	edx, eax
	mov	ecx, edx
	not	ecx
	mov	eax, ecx
	and	eax, 702319911
	and	edx, -702319912
	or	edx, eax
	mov	eax, edi
	not	eax
	or	ecx, eax
	and	eax, 702319911
	and	edi, -702319912
	or	edi, eax
	xor	edi, edx
	not	ecx
	or	ecx, edi
	mov	eax, ecx
	and	eax, r11d
	xor	ecx, r11d
	or	ecx, eax
	mov	eax, ecx
	and	eax, r15d
	xor	ecx, r15d
	or	ecx, eax
	mov	eax, ecx
	not	eax
	mov	edx, eax
	and	edx, 1504654394
	and	ecx, -1504654395
	or	ecx, edx
	mov	edx, r13d
	not	edx
	or	eax, edx
	and	edx, 1504654394
	and	r13d, -1504654395
	or	r13d, edx
	xor	r13d, ecx
	not	eax
	or	eax, r13d
	mov	ecx, eax
	not	ecx
	and	ecx, ebp
	not	ebp
	and	ebp, eax
	or	ebp, ecx
	mov	eax, ebp
	not	eax
	and	eax, 88932664
	and	ebp, -88932665
	or	ebp, eax
	mov	eax, ebx
	not	eax
	and	eax, 88932664
	and	ebx, -88932665
	or	ebx, eax
	xor	ebx, ebp
	mov	eax, ebx
	not	eax
	and	eax, 460951465
	and	ebx, -460951466
	or	ebx, eax
	mov	eax, r12d
	not	eax
	and	eax, 460951465
	and	r12d, -460951466
	or	r12d, eax
	xor	r12d, ebx
	mov	r13d, dword ptr [rsp - 72] 
	test	r13d, dword ptr [rsp - 104] 
	mov	eax, dword ptr [rsp - 116]
	mov	eax, dword ptr [rsp - 120]
	mov	eax, dword ptr [rsp - 120]
	mov	eax, dword ptr [rsp - 120]
	mov	eax, dword ptr [rsp - 120]
	sete	byte ptr [rsp - 126]
	mov	r14d, r8d
	cmp	r14d, 10
	setl	byte ptr [rsp - 125]
	rol	r12d, 28
	mov	eax, -29994451
	mov	r8, qword ptr [rsp + 16] 
	mov	r15d, dword ptr [rsp - 88] 
	jmp	.LBB3_85
.LBB3_49:                               
	movzx	ebx, byte ptr [rsp - 126]
	movzx	ecx, byte ptr [rsp - 125]
	mov	edx, ebx
	xor	dl, cl
	mov	edx, 674206395
	mov	esi, -728779100
	cmovne	edx, esi
	test	cl, cl
	mov	ecx, edx
	cmovne	ecx, esi
	test	bl, bl
	cmove	ecx, edx
	.p2align	4, 0x90
.LBB3_46:                               

	cmp	ecx, 674206394
	jle	.LBB3_47

	cmp	ecx, 674206395
	je	.LBB3_56

	cmp	ecx, 1702022579
	jne	.LBB3_46
	jmp	.LBB3_54
	.p2align	4, 0x90
.LBB3_47:                               
	cmp	ecx, -728779100
	je	.LBB3_55

	cmp	ecx, -29994451
	jne	.LBB3_46
	jmp	.LBB3_49
.LBB3_56:                               
	mov	ecx, -728779100
	jmp	.LBB3_46
.LBB3_55:                               
	mov	dword ptr [rsp - 116], eax
	mov	ecx, r15d
	jmp	.LBB3_46
.LBB3_88:                               
	movzx	ecx, byte ptr [rsp - 126]
	movzx	eax, byte ptr [rsp - 125]
	mov	edx, ecx
	xor	dl, al
	test	al, al
	mov	eax, 674206395
	mov	esi, -728779100
	cmovne	eax, esi
	test	cl, cl
	mov	ecx, 674206395
	cmove	eax, ecx
	test	dl, dl
	cmovne	eax, esi
	.p2align	4, 0x90
.LBB3_85:                               

	cmp	eax, 674206394
	jle	.LBB3_86

	cmp	eax, 674206395
	je	.LBB3_95

	cmp	eax, 1702022579
	jne	.LBB3_85
	jmp	.LBB3_93
	.p2align	4, 0x90
.LBB3_86:                               
	cmp	eax, -728779100
	je	.LBB3_94

	cmp	eax, -29994451
	jne	.LBB3_85
	jmp	.LBB3_88
.LBB3_95:                               
	mov	eax, -728779100
	jmp	.LBB3_85
.LBB3_94:                               
	mov	dword ptr [rsp - 116], r12d
	mov	eax, r15d
	jmp	.LBB3_85
.LBB3_54:                               
	mov	eax, dword ptr [rsp - 116]
	and	ebp, eax
	not	eax
	and	r11d, eax
	or	ebp, r11d
	mov	eax, dword ptr [rsp - 76]
	and	r10d, eax
	not	eax
	and	r9d, eax
	or	r10d, r9d
	mov	eax, ebp
	shr	eax, 24
	and	eax, 63
	movzx	eax, byte ptr [rax + _ZN5Botan12_GLOBAL__N_1L10SPBOX_CATSE]
	imul	eax, eax, 1879314694
	and	eax, 16843780
	mov	ecx, r10d
	shr	ecx, 24
	or	ecx, 64
	and	ecx, 127
	movzx	ecx, byte ptr [rcx + _ZN5Botan12_GLOBAL__N_1L10SPBOX_CATSE]
	imul	edx, ecx, 33628192
	and	edx, -2146402272
	or	edx, eax
	mov	eax, ebp
	shr	eax, 16
	mov	ecx, eax
	not	ecx
	or	ecx, -1148686144
	and	ecx, -1148686136
	and	eax, 55
	or	eax, ecx
	xor	eax, -1148686264
	movzx	eax, byte ptr [rax + _ZN5Botan12_GLOBAL__N_1L10SPBOX_CATSE]
	imul	eax, eax, 9441352
	mov	ecx, eax
	xor	ecx, -134349328
	and	ecx, eax
	mov	eax, edx
	and	eax, ecx
	xor	ecx, edx
	or	ecx, eax
	mov	eax, r10d
	shr	eax, 16
	mov	edx, eax
	xor	edx, 65472
	and	edx, eax
	mov	eax, edx
	not	eax
	and	eax, 549236652
	mov	esi, edx
	and	esi, 20563
	or	esi, eax
	xor	esi, 549236588
	and	edx, 192
	or	edx, esi
	movzx	eax, byte ptr [rdx + _ZN5Botan12_GLOBAL__N_1L10SPBOX_CATSE]
	imul	eax, eax, -1912208863
	and	eax, 8396929
	mov	edx, ecx
	and	edx, eax
	xor	eax, ecx
	or	eax, edx
	mov	ecx, ebp
	shr	ecx, 8
	mov	edx, ecx
	xor	edx, 16777152
	and	edx, ecx
	mov	ecx, edx
	not	ecx
	and	ecx, 403710110
	mov	esi, edx
	and	esi, 15720289
	or	esi, ecx
	xor	esi, 403710366
	and	edx, 256
	or	edx, esi
	movzx	ecx, byte ptr [rdx + _ZN5Botan12_GLOBAL__N_1L10SPBOX_CATSE]
	imul	ecx, ecx, 9511232
	mov	edx, ecx
	xor	edx, -1107820864
	and	edx, ecx
	mov	ecx, eax
	and	ecx, edx
	xor	edx, eax
	or	edx, ecx
	mov	eax, r10d
	shr	eax, 8
	or	eax, 320
	and	eax, 383
	movzx	eax, byte ptr [rax + _ZN5Botan12_GLOBAL__N_1L10SPBOX_CATSE]
	imul	eax, eax, -2138828776
	and	eax, 541081616
	mov	ecx, edx
	and	ecx, eax
	xor	eax, edx
	or	eax, ecx
	mov	ecx, ebp
	not	ecx
	or	ecx, 136086016
	and	ecx, 136086052
	and	ebp, 27
	or	ebp, ecx
	xor	ebp, 136086436
	movzx	ecx, byte ptr [rbp + _ZN5Botan12_GLOBAL__N_1L10SPBOX_CATSE]
	imul	ecx, ecx, -535690750
	mov	ebp, ecx
	xor	ebp, -69208068
	and	ebp, ecx
	mov	ecx, r10d
	xor	ecx, -64
	and	ecx, r10d
	mov	esi, ecx
	not	esi
	and	esi, -611600676
	mov	edi, ecx
	and	edi, 611600675
	or	edi, esi
	xor	edi, -611600612
	and	ecx, 448
	or	ecx, edi
	movzx	ecx, byte ptr [rcx + _ZN5Botan12_GLOBAL__N_1L10SPBOX_CATSE]
	imul	ecx, ecx, 2171456
	mov	esi, ecx
	not	esi
	or	esi, 251905572
	mov	edi, dword ptr [rsp - 124]
	mov	edx, ebp
	not	edx
	and	edx, -1145870054
	and	ebp, 1145870052
	or	ebp, edx
	mov	edx, edi
	not	edx
	and	edx, -1145870054
	and	edi, 1145870053
	or	edi, edx
	xor	edi, ebp
	mov	edx, edi
	not	edx
	and	edx, eax
	not	eax
	and	eax, edi
	or	eax, edx
	mov	edx, eax
	not	edx
	and	edx, 520607268
	and	eax, -520607269
	or	eax, edx
	and	esi, 520607268
	and	ecx, 64
	or	ecx, esi
	xor	ecx, eax
	mov	dword ptr [rsp + 12], ecx
	mov	rax, qword ptr [rsp - 112]
	add	rax, 2
	mov	qword ptr [rsp + 72], rax
	mov	eax, dword ptr [rsp - 36] 
	mov	ebp, dword ptr [rsp - 84] 
	jmp	.LBB3_1
.LBB3_9:
	mov	eax, dword ptr [rsp - 100]
	mov	rcx, qword ptr [rsp + 32] 
	mov	dword ptr [rcx], eax
	mov	eax, dword ptr [rsp - 120]
	mov	rcx, qword ptr [rsp + 40] 
	mov	dword ptr [rcx], eax
	mov	eax, dword ptr [rsp - 92]
	mov	rcx, qword ptr [rsp + 48] 
	mov	dword ptr [rcx], eax
	mov	eax, dword ptr [rsp - 124]
	mov	rcx, qword ptr [rsp + 56] 
	mov	dword ptr [rcx], eax
	add	rsp, 80
	pop	rbx
	pop	r12
	pop	r13
	pop	r14
	pop	r15
	pop	rbp
	ret
.Lfunc_end3:
	.size	_ZN5Botan12_GLOBAL__N_114des_encrypt_x2ERjS1_S1_S1_PKj, .Lfunc_end3-_ZN5Botan12_GLOBAL__N_114des_encrypt_x2ERjS1_S1_S1_PKj

	.p2align	4, 0x90         
	.type	_ZN5Botan12_GLOBAL__N_16des_FPERjS1_,@function
_ZN5Botan12_GLOBAL__N_16des_FPERjS1_:   

	push	rbx
	mov	r9d, dword ptr [rsi]
	mov	ecx, dword ptr [rip + x.113]
	mov	edx, dword ptr [rip + y.114]
	lea	eax, [rcx - 1]
	imul	eax, ecx
	mov	ecx, eax
	xor	ecx, -2
	and	ecx, eax
	sete	byte ptr [rsp - 6]
	sete	al
	ror	r9d
	test	ecx, ecx
	mov	r8d, 1783599803
	mov	r10d, 733334120
	mov	ecx, 733334120
	cmove	ecx, r8d
	cmp	edx, 10
	setl	dl
	setl	byte ptr [rsp - 5]
	cmovge	ecx, r10d
	xor	dl, al
	cmovne	ecx, r8d
	mov	edx, 105035285
	mov	r8d, -1813100267
	jmp	.LBB4_1
.LBB4_4:                                
	movzx	r10d, byte ptr [rsp - 6]
	movzx	edx, byte ptr [rsp - 5]
	mov	eax, r10d
	xor	al, dl
	mov	eax, 733334120
	cmovne	eax, r8d
	test	dl, dl
	mov	edx, eax
	cmovne	edx, r8d
	test	r10b, r10b
	cmove	edx, eax
	.p2align	4, 0x90
.LBB4_1:                                
	cmp	edx, 733334119
	jle	.LBB4_2

	cmp	edx, 733334120
	je	.LBB4_13

	cmp	edx, 1783599803
	jne	.LBB4_1
	jmp	.LBB4_7
	.p2align	4, 0x90
.LBB4_2:                                
	cmp	edx, -1813100267
	je	.LBB4_12

	cmp	edx, 105035285
	jne	.LBB4_1
	jmp	.LBB4_4
.LBB4_13:                               
	mov	edx, -1813100267
	jmp	.LBB4_1
.LBB4_12:                               
	mov	dword ptr [rsp - 4], r9d
	mov	edx, ecx
	jmp	.LBB4_1
.LBB4_7:
	mov	eax, dword ptr [rsp - 4]
	mov	dword ptr [rsi], eax
	mov	ecx, dword ptr [rdi]
	mov	edx, ecx
	not	edx
	and	edx, 1197712550
	and	ecx, -1197712551
	or	ecx, edx
	mov	r8d, eax
	not	r8d
	mov	r9d, r8d
	and	r9d, 1197712550
	mov	edx, eax
	and	edx, -1197712551
	or	edx, r9d
	xor	edx, ecx
	mov	ecx, edx
	not	ecx
	or	ecx, 1431655765
	mov	r9d, ecx
	and	r9d, -1768860534
	mov	r10d, edx
	and	r10d, 673884704
	or	r10d, r9d
	and	r8d, -1768860534
	and	eax, 1768860533
	or	eax, r8d
	xor	eax, r10d
	mov	dword ptr [rsi], eax
	mov	eax, dword ptr [rdi]
	and	ecx, eax
	not	eax
	and	eax, edx
	and	eax, -1431655766
	or	ecx, eax
	mov	eax, ecx
	shr	eax, 9
	shl	ecx, 23
	mov	edx, eax
	not	edx
	mov	r8d, ecx
	not	r8d
	and	edx, -885789782
	and	eax, 4985941
	or	eax, edx
	and	r8d, -885789782
	and	ecx, 880803840
	or	ecx, r8d
	xor	ecx, eax
	mov	dword ptr [rdi], ecx
	mov	eax, dword ptr [rsi]
	mov	edx, ecx
	not	edx
	and	edx, eax
	mov	r8d, eax
	not	r8d
	and	ecx, r8d
	or	ecx, edx
	mov	edx, ecx
	not	edx
	or	edx, -16711936
	mov	r9d, edx
	and	r9d, 479026216
	mov	r10d, ecx
	and	r10d, 7471319
	or	r10d, r9d
	and	r8d, 479026216
	and	eax, -479026217
	or	eax, r8d
	xor	eax, r10d
	mov	dword ptr [rsi], eax
	mov	r8d, dword ptr [rdi]
	mov	eax, r8d
	not	eax
	and	eax, ecx
	and	edx, r8d
	and	eax, 16711935
	or	eax, edx
	mov	edx, dword ptr [rip + x.117]
	mov	r9d, dword ptr [rip + y.118]
	mov	ecx, edx
	neg	ecx
	not	ecx
	imul	ecx, edx
	mov	edx, ecx
	xor	edx, -2
	and	edx, ecx
	sete	byte ptr [rsp - 6]
	sete	r10b
	shld	eax, r8d, 6
	test	edx, edx
	mov	r11d, -1985616342
	mov	r8d, 1724579580
	mov	ebx, 1724579580
	cmove	ebx, r11d
	cmp	r9d, 10
	setl	dl
	setl	byte ptr [rsp - 5]
	cmovge	ebx, r8d
	xor	dl, r10b
	cmovne	ebx, r11d
	mov	edx, -1892459369
	mov	r9d, -1923488527
	jmp	.LBB4_8
.LBB4_16:                               
	movzx	r10d, byte ptr [rsp - 6]
	movzx	edx, byte ptr [rsp - 5]
	mov	ecx, r10d
	xor	cl, dl
	test	dl, dl
	mov	edx, 1724579580
	cmovne	edx, r9d
	test	r10b, r10b
	cmove	edx, r8d
	test	cl, cl
	cmovne	edx, r9d
	.p2align	4, 0x90
.LBB4_8:                                
	cmp	edx, -1892459370
	jg	.LBB4_14

	cmp	edx, -1985616342
	je	.LBB4_18

	cmp	edx, -1923488527
	jne	.LBB4_8

	mov	dword ptr [rsp - 4], eax
	mov	edx, ebx
	jmp	.LBB4_8
	.p2align	4, 0x90
.LBB4_14:                               
	cmp	edx, 1724579580
	je	.LBB4_17

	cmp	edx, -1892459369
	jne	.LBB4_8
	jmp	.LBB4_16
.LBB4_17:                               
	mov	edx, -1923488527
	jmp	.LBB4_8
.LBB4_18:
	mov	ecx, dword ptr [rsp - 4]
	mov	dword ptr [rdi], ecx
	mov	ebx, dword ptr [rsi]
	mov	edx, ebx
	not	edx
	mov	eax, ecx
	and	eax, edx
	not	ecx
	and	ecx, ebx
	or	ecx, eax
	mov	eax, ecx
	not	eax
	or	eax, -858993460
	and	ecx, 858993459
	and	ebx, eax
	and	edx, ecx
	or	edx, ebx
	mov	dword ptr [rsi], edx
	mov	edx, dword ptr [rdi]
	and	eax, edx
	not	edx
	and	edx, ecx
	or	eax, edx
	rol	eax, 18
	mov	dword ptr [rdi], eax
	mov	r8d, dword ptr [rsi]
	mov	edx, eax
	not	edx
	and	edx, 49006149
	and	eax, -49006150
	or	eax, edx
	mov	edx, r8d
	not	edx
	mov	ebx, edx
	and	ebx, 49006149
	mov	ecx, r8d
	and	ecx, -49006150
	or	ecx, ebx
	xor	ecx, eax
	mov	eax, ecx
	xor	eax, 65535
	and	eax, ecx
	mov	ecx, eax
	not	ecx
	and	r8d, ecx
	and	edx, eax
	or	edx, r8d
	mov	dword ptr [rsi], edx
	mov	ebx, dword ptr [rdi]
	and	ecx, ebx
	mov	edx, ebx
	not	edx
	and	edx, eax
	or	edx, ecx
	shrd	edx, ebx, 12
	mov	dword ptr [rdi], edx
	mov	ebx, dword ptr [rsi]
	mov	ecx, edx
	not	ecx
	and	ecx, ebx
	mov	eax, ebx
	not	eax
	and	edx, eax
	or	edx, ecx
	mov	ecx, edx
	xor	ecx, 252645135
	and	ecx, edx
	mov	edx, ecx
	not	edx
	and	ebx, edx
	and	eax, ecx
	or	eax, ebx
	mov	dword ptr [rsi], eax
	mov	r10d, dword ptr [rdi]
	mov	esi, dword ptr [rip + x.111]
	mov	r9d, dword ptr [rip + y.112]
	lea	ebx, [rsi - 1]
	imul	ebx, esi
	not	ebx
	or	ebx, -2
	cmp	ebx, -1
	sete	sil
	cmp	r9d, 10
	setl	al
	xor	al, sil
	mov	esi, 1702022579
	mov	r8d, 674206395
	mov	eax, 674206395
	cmovne	eax, esi
	cmp	ebx, -1
	sete	byte ptr [rsp - 6]
	cmovne	esi, eax
	cmp	r9d, 10
	mov	ebx, r10d
	not	ebx
	setl	byte ptr [rsp - 5]
	cmovge	esi, eax
	and	edx, r10d
	and	ebx, ecx
	or	ebx, edx
	shr	ebx, 4
	shl	r10d, 28
	mov	eax, ebx
	not	eax
	mov	ecx, r10d
	not	ecx
	and	eax, -1714834175
	and	ebx, 104221438
	or	ebx, eax
	and	ecx, -1714834175
	and	r10d, 1610612736
	or	r10d, ecx
	xor	r10d, ebx
	mov	edx, -29994451
	mov	ecx, -728779100
	jmp	.LBB4_19
.LBB4_22:                               
	movzx	ebx, byte ptr [rsp - 6]
	movzx	edx, byte ptr [rsp - 5]
	mov	eax, ebx
	xor	al, dl
	test	dl, dl
	mov	edx, 674206395
	cmovne	edx, ecx
	test	bl, bl
	cmove	edx, r8d
	test	al, al
	cmovne	edx, ecx
	.p2align	4, 0x90
.LBB4_19:                               
	cmp	edx, 674206394
	jle	.LBB4_20

	cmp	edx, 674206395
	je	.LBB4_27

	cmp	edx, 1702022579
	jne	.LBB4_19
	jmp	.LBB4_25
	.p2align	4, 0x90
.LBB4_20:                               
	cmp	edx, -728779100
	je	.LBB4_26

	cmp	edx, -29994451
	jne	.LBB4_19
	jmp	.LBB4_22
.LBB4_27:                               
	mov	edx, -728779100
	jmp	.LBB4_19
.LBB4_26:                               
	mov	dword ptr [rsp - 4], r10d
	mov	edx, esi
	jmp	.LBB4_19
.LBB4_25:
	mov	eax, dword ptr [rsp - 4]
	mov	dword ptr [rdi], eax
	pop	rbx
	ret
.Lfunc_end4:
	.size	_ZN5Botan12_GLOBAL__N_16des_FPERjS1_, .Lfunc_end4-_ZN5Botan12_GLOBAL__N_16des_FPERjS1_

	.section	.text._ZN5Botan8store_beIjEEvPhT_S2_S2_S2_,"axG",@progbits,_ZN5Botan8store_beIjEEvPhT_S2_S2_S2_,comdat
	.weak	_ZN5Botan8store_beIjEEvPhT_S2_S2_S2_ 
	.p2align	4, 0x90
	.type	_ZN5Botan8store_beIjEEvPhT_S2_S2_S2_,@function
_ZN5Botan8store_beIjEEvPhT_S2_S2_S2_:   
	.cfi_startproc

	push	rbp
.Lcfi21:
	.cfi_def_cfa_offset 16
	push	rbx
.Lcfi22:
	.cfi_def_cfa_offset 24
.Lcfi23:
	.cfi_offset rbx, -24
.Lcfi24:
	.cfi_offset rbp, -16
	mov	r9d, dword ptr [rip + x.125]
	lea	eax, [r9 - 1]
	imul	eax, r9d
	not	eax
	or	eax, -2
	cmp	eax, -1
	sete	byte ptr [rsp - 8]
	mov	eax, dword ptr [rip + y.126]
	cmp	eax, 10
	setl	byte ptr [rsp - 7]
	bswap	esi
	mov	eax, -299333923
	mov	r9d, 1897006806
	mov	r10d, 698231037
	jmp	.LBB5_1
.LBB5_33:                               
	movzx	r11d, byte ptr [rsp - 8]
	movzx	eax, byte ptr [rsp - 7]
	mov	ebx, r11d
	xor	bl, al
	mov	ebx, 121308913
	cmovne	ebx, r9d
	test	al, al
	mov	eax, ebx
	cmovne	eax, r9d
	test	r11b, r11b
	cmove	eax, ebx
	.p2align	4, 0x90
.LBB5_1:                                
	cmp	eax, 698231036
	jg	.LBB5_5

	cmp	eax, -299333923
	je	.LBB5_33

	cmp	eax, 121308913
	jne	.LBB5_1

	mov	dword ptr [rdi], esi
	mov	eax, 1897006806
	jmp	.LBB5_1
	.p2align	4, 0x90
.LBB5_5:                                
	cmp	eax, 698231037
	je	.LBB5_8

	cmp	eax, 1897006806
	jne	.LBB5_1

	mov	dword ptr [rdi], esi
	mov	eax, dword ptr [rip + x.125]
	mov	r11d, dword ptr [rip + y.126]
	lea	ebx, [rax - 1]
	imul	ebx, eax
	not	ebx
	or	ebx, -2
	cmp	ebx, -1
	sete	bpl
	cmp	r11d, 10
	setl	al
	xor	al, bpl
	mov	ebp, 121308913
	cmovne	ebp, r10d
	cmp	ebx, -1
	mov	eax, ebp
	cmove	eax, r10d
	cmp	r11d, 10
	cmovge	eax, ebp
	jmp	.LBB5_1
.LBB5_8:
	bswap	edx
	mov	eax, dword ptr [rip + x.125]
	mov	r9d, dword ptr [rip + y.126]
	lea	esi, [rax - 1]
	imul	esi, eax
	mov	eax, esi
	not	eax
	or	eax, -2
	and	esi, 1
	cmp	eax, -1
	sete	al
	sete	byte ptr [rsp - 2]
	mov	ebp, 698231037
	mov	r10d, 121308913
	mov	r11d, 121308913
	cmove	r11d, ebp
	cmp	r9d, 10
	setl	bl
	setl	byte ptr [rsp - 1]
	cmovge	r11d, r10d
	xor	bl, al
	cmovne	r11d, ebp
	mov	eax, -299333923
	mov	r10d, 1897006806
	jmp	.LBB5_9
.LBB5_34:                               
	movzx	ebp, byte ptr [rsp - 2]
	movzx	eax, byte ptr [rsp - 1]
	mov	ebx, ebp
	xor	bl, al
	mov	ebx, 121308913
	cmovne	ebx, r10d
	test	al, al
	mov	eax, ebx
	cmovne	eax, r10d
	test	bpl, bpl
	cmove	eax, ebx
	.p2align	4, 0x90
.LBB5_9:                                
	cmp	eax, 698231036
	jg	.LBB5_13

	cmp	eax, -299333923
	je	.LBB5_34

	cmp	eax, 121308913
	jne	.LBB5_9

	mov	dword ptr [rdi + 4], edx
	mov	eax, 1897006806
	jmp	.LBB5_9
	.p2align	4, 0x90
.LBB5_13:                               
	cmp	eax, 698231037
	je	.LBB5_16

	cmp	eax, 1897006806
	jne	.LBB5_9

	mov	dword ptr [rdi + 4], edx
	mov	eax, r11d
	jmp	.LBB5_9
.LBB5_16:
	test	esi, esi
	sete	byte ptr [rsp - 4]
	cmp	r9d, 10
	bswap	ecx
	setl	byte ptr [rsp - 3]
	mov	eax, -299333923
	mov	ebp, 1897006806
	jmp	.LBB5_17
.LBB5_35:                               
	movzx	edx, byte ptr [rsp - 4]
	movzx	eax, byte ptr [rsp - 3]
	mov	ebx, edx
	xor	bl, al
	mov	ebx, 121308913
	cmovne	ebx, ebp
	test	al, al
	mov	eax, ebx
	cmovne	eax, ebp
	test	dl, dl
	cmove	eax, ebx
	.p2align	4, 0x90
.LBB5_17:                               
	cmp	eax, 698231036
	jg	.LBB5_21

	cmp	eax, -299333923
	je	.LBB5_35

	cmp	eax, 121308913
	jne	.LBB5_17

	mov	dword ptr [rdi + 8], ecx
	mov	eax, 1897006806
	jmp	.LBB5_17
	.p2align	4, 0x90
.LBB5_21:                               
	cmp	eax, 698231037
	je	.LBB5_24

	cmp	eax, 1897006806
	jne	.LBB5_17

	mov	dword ptr [rdi + 8], ecx
	mov	eax, r11d
	jmp	.LBB5_17
.LBB5_24:
	test	esi, esi
	sete	byte ptr [rsp - 6]
	cmp	r9d, 10
	bswap	r8d
	setl	byte ptr [rsp - 5]
	mov	eax, -299333923
	mov	ecx, 1897006806
	jmp	.LBB5_25
.LBB5_36:                               
	movzx	ebx, byte ptr [rsp - 6]
	movzx	eax, byte ptr [rsp - 5]
	mov	edx, ebx
	xor	dl, al
	mov	edx, 121308913
	cmovne	edx, ecx
	test	al, al
	mov	eax, edx
	cmovne	eax, ecx
	test	bl, bl
	cmove	eax, edx
	.p2align	4, 0x90
.LBB5_25:                               
	cmp	eax, 698231036
	jg	.LBB5_29

	cmp	eax, -299333923
	je	.LBB5_36

	cmp	eax, 121308913
	jne	.LBB5_25

	mov	dword ptr [rdi + 12], r8d
	mov	eax, 1897006806
	jmp	.LBB5_25
	.p2align	4, 0x90
.LBB5_29:                               
	cmp	eax, 698231037
	je	.LBB5_32

	cmp	eax, 1897006806
	jne	.LBB5_25

	mov	dword ptr [rdi + 12], r8d
	mov	eax, r11d
	jmp	.LBB5_25
.LBB5_32:
	pop	rbx
	pop	rbp
	ret
.Lfunc_end5:
	.size	_ZN5Botan8store_beIjEEvPhT_S2_S2_S2_, .Lfunc_end5-_ZN5Botan8store_beIjEEvPhT_S2_S2_S2_
	.cfi_endproc

	.text
	.p2align	4, 0x90         
	.type	_ZN5Botan12_GLOBAL__N_111des_encryptERjS1_PKj,@function
_ZN5Botan12_GLOBAL__N_111des_encryptERjS1_PKj: 

	push	rbp
	push	r15
	push	r14
	push	r13
	push	r12
	push	rbx
	mov	eax, dword ptr [rip + x.111]
	mov	r8d, dword ptr [rip + y.112]
	lea	r15d, [rax - 1]
	imul	r15d, eax
	mov	ecx, r15d
	not	ecx
	or	ecx, -2
	cmp	ecx, -1
	sete	al
	cmp	r8d, 10
	setl	bl
	xor	bl, al
	mov	r12d, 1702022579
	mov	eax, 674206395
	cmovne	eax, r12d
	cmp	ecx, -1
	cmovne	r12d, eax
	cmp	r8d, 10
	mov	qword ptr [rsp - 24], rdi 
	mov	ecx, dword ptr [rdi]
	mov	dword ptr [rsp - 44], ecx 
	mov	qword ptr [rsp - 16], rsi 
	mov	ecx, dword ptr [rsi]
	mov	dword ptr [rsp - 48], ecx 
	mov	ecx, dword ptr [rip + x.25]
	cmovge	r12d, eax
	lea	esi, [rcx - 1]
	imul	esi, ecx
	not	esi
	or	esi, -2
	cmp	esi, -1
	sete	cl
	cmp	dword ptr [rip + y.26], 10
	setl	bl
	mov	eax, ebx
	and	al, cl
	xor	bl, cl
	and	r15d, 1
	or	bl, al
	mov	eax, -89797895
	mov	ecx, 820068653
	cmove	eax, ecx
	mov	dword ptr [rsp - 40], eax 
	mov	r14d, -1726920274
	cmove	r14d, ecx
	xor	eax, eax
	mov	qword ptr [rsp - 32], rax 
	mov	r10d, -728779100
	jmp	.LBB6_1
	.p2align	4, 0x90
.LBB6_31:                               
	mov	eax, dword ptr [rsp - 52]
	mov	dword ptr [rsp - 44], eax 
	mov	eax, dword ptr [rsp - 36]
	mov	dword ptr [rsp - 48], eax 
	mov	rax, qword ptr [rsp - 8]
	mov	qword ptr [rsp - 32], rax 
.LBB6_1:                                





	mov	ecx, -1966140800
	jmp	.LBB6_2
.LBB6_15:                               
	mov	rax, qword ptr [rsp - 32] 
	mov	qword ptr [rsp - 64], rax
	mov	eax, dword ptr [rsp - 48] 
	mov	dword ptr [rsp - 76], eax
	mov	eax, dword ptr [rsp - 44] 
	mov	dword ptr [rsp - 72], eax
	mov	rcx, qword ptr [rsp - 64]
	cmp	rcx, 16
	mov	ecx, 1393267468
	mov	eax, 1181703050
	cmove	ecx, eax
	.p2align	4, 0x90
.LBB6_2:                                





	cmp	ecx, 820068652
	jle	.LBB6_3

	cmp	ecx, 820068653
	je	.LBB6_32

	cmp	ecx, 1181703050
	je	.LBB6_16

	cmp	ecx, 1393267468
	jne	.LBB6_2

	mov	ecx, dword ptr [rsp - 40] 
	jmp	.LBB6_2
	.p2align	4, 0x90
.LBB6_3:                                
	cmp	ecx, -1966140800
	je	.LBB6_15

	cmp	ecx, -1726920274
	je	.LBB6_31

	cmp	ecx, -89797895
	jne	.LBB6_2

	test	r15d, r15d
	mov	ecx, dword ptr [rsp - 76]
	sete	byte ptr [rsp - 78]
	cmp	r8d, 10
	setl	byte ptr [rsp - 77]
	mov	esi, ecx
	shr	esi, 4
	shl	ecx, 28
	mov	edi, esi
	not	edi
	and	edi, 233716526
	and	esi, 34718929
	or	esi, edi
	or	ecx, 233716526
	xor	ecx, esi
	mov	esi, -29994451
	jmp	.LBB6_7
.LBB6_32:                               
	test	r15d, r15d
	mov	esi, dword ptr [rsp - 76]
	sete	byte ptr [rsp - 78]
	cmp	r8d, 10
	setl	byte ptr [rsp - 77]
	mov	eax, esi
	shr	eax, 4
	shl	esi, 28
	mov	ecx, eax
	not	ecx
	mov	edi, esi
	not	edi
	and	ecx, -1698329207
	and	eax, 87716470
	or	eax, ecx
	and	edi, -1698329207
	and	esi, 1610612736
	or	esi, edi
	xor	esi, eax
	mov	ecx, -29994451
	jmp	.LBB6_33
.LBB6_24:                               
	mov	dword ptr [rsp - 68], ecx
	mov	esi, r12d
	.p2align	4, 0x90
.LBB6_7:                                


	cmp	esi, 674206394
	jle	.LBB6_8

	cmp	esi, 674206395
	je	.LBB6_25

	cmp	esi, 1702022579
	jne	.LBB6_7
	jmp	.LBB6_19
	.p2align	4, 0x90
.LBB6_8:                                
	cmp	esi, -728779100
	je	.LBB6_24

	cmp	esi, -29994451
	jne	.LBB6_7

	movzx	edi, byte ptr [rsp - 78]
	movzx	eax, byte ptr [rsp - 77]
	mov	ebx, edi
	xor	bl, al
	mov	ebp, 674206395
	cmovne	ebp, r10d
	test	al, al
	mov	esi, ebp
	cmovne	esi, r10d
	test	dil, dil
	cmove	esi, ebp
	jmp	.LBB6_7
.LBB6_25:                               
	mov	esi, -728779100
	jmp	.LBB6_7
.LBB6_36:                               
	movzx	ebx, byte ptr [rsp - 78]
	movzx	ecx, byte ptr [rsp - 77]
	mov	eax, ebx
	xor	al, cl
	test	cl, cl
	mov	ecx, 674206395
	cmovne	ecx, r10d
	test	bl, bl
	mov	edi, 674206395
	cmove	ecx, edi
	test	al, al
	cmovne	ecx, r10d
	.p2align	4, 0x90
.LBB6_33:                               


	cmp	ecx, 674206394
	jle	.LBB6_34

	cmp	ecx, 674206395
	je	.LBB6_45

	cmp	ecx, 1702022579
	jne	.LBB6_33
	jmp	.LBB6_39
	.p2align	4, 0x90
.LBB6_34:                               
	cmp	ecx, -728779100
	je	.LBB6_44

	cmp	ecx, -29994451
	jne	.LBB6_33
	jmp	.LBB6_36
.LBB6_45:                               
	mov	ecx, -728779100
	jmp	.LBB6_33
.LBB6_44:                               
	mov	dword ptr [rsp - 68], esi
	mov	ecx, r12d
	jmp	.LBB6_33
.LBB6_39:                               
	mov	ebx, dword ptr [rsp - 68]
	mov	rax, qword ptr [rsp - 64]
	mov	rax, qword ptr [rsp - 64]
	mov	rax, qword ptr [rsp - 64]
	mov	rax, qword ptr [rsp - 64]
	mov	rax, qword ptr [rsp - 64]
	mov	ecx, dword ptr [rdx + 8*rax]
	add	rax, rax
	mov	esi, ecx
	not	esi
	and	esi, ebx
	not	ebx
	and	ebx, ecx
	or	ebx, esi
	movabs	rcx, 2137626894470810164
	mov	rsi, rcx
	not	rcx
	and	rcx, rax
	not	rax
	and	rax, rsi
	or	rcx, rax
	lea	rax, [rsi + 1]
	xor	rax, rcx
	mov	r13d, dword ptr [rdx + 4*rax]
	mov	eax, dword ptr [rsp - 76]
	mov	eax, dword ptr [rsp - 76]
	mov	eax, dword ptr [rsp - 76]
	mov	ecx, eax
	not	ecx
	and	ecx, r13d
	not	r13d
	and	r13d, eax
	or	r13d, ecx
	mov	r9d, ebx
	mov	r11d, ebx
	mov	ecx, ebx
	xor	ecx, -64
	and	ecx, ebx
	mov	eax, ebx
	shr	eax, 24
	and	eax, 63
	movzx	eax, byte ptr [rax + _ZN5Botan12_GLOBAL__N_1L10SPBOX_CATSE]
	imul	ebx, eax, 1879314694
	mov	eax, ebx
	xor	eax, -16843782
	and	eax, ebx
	mov	ebp, r13d
	shr	ebp, 24
	mov	ebx, ebp
	not	ebx
	or	ebx, 892756288
	and	ebx, 892756290
	and	ebp, 61
	or	ebp, ebx
	xor	ebp, 892756226
	movzx	ebp, byte ptr [rbp + _ZN5Botan12_GLOBAL__N_1L10SPBOX_CATSE]
	imul	ebx, ebp, 33628192
	mov	ebp, ebx
	not	ebp
	or	ebp, 2146402271
	mov	edi, ebp
	and	edi, -1653806858
	and	ebx, 1048576
	or	ebx, edi
	mov	edi, eax
	not	edi
	or	ebp, edi
	and	edi, -1653806858
	and	eax, 1653806856
	or	eax, edi
	xor	eax, ebx
	not	ebp
	or	ebp, eax
	shr	r9d, 16
	mov	eax, r9d
	xor	eax, 65472
	and	eax, r9d
	mov	edi, eax
	and	edi, 128
	xor	eax, 128
	or	eax, edi
	movzx	eax, byte ptr [rax + _ZN5Botan12_GLOBAL__N_1L10SPBOX_CATSE]
	imul	eax, eax, 9441352
	and	eax, 134349320
	mov	edi, ebp
	and	edi, eax
	xor	eax, ebp
	or	eax, edi
	mov	edi, r13d
	shr	edi, 16
	mov	ebp, edi
	xor	ebp, 65472
	and	ebp, edi
	mov	edi, ebp
	not	edi
	and	edi, 881734557
	mov	ebx, ebp
	and	ebx, 52322
	or	ebx, edi
	xor	ebx, 881734493
	and	ebp, 192
	or	ebp, ebx
	movzx	edi, byte ptr [rbp + _ZN5Botan12_GLOBAL__N_1L10SPBOX_CATSE]
	imul	esi, edi, -1912208863
	mov	ebp, eax
	not	ebp
	mov	ebx, ebp
	and	ebx, 723882005
	and	eax, -723882006
	or	eax, ebx
	mov	edi, esi
	not	edi
	or	edi, -8396930
	or	ebp, edi
	and	edi, 723882005
	and	esi, 8396928
	or	esi, edi
	xor	esi, eax
	not	ebp
	or	ebp, esi
	shr	r11d, 8
	mov	eax, r11d
	xor	eax, 16777152
	and	eax, r11d
	mov	esi, eax
	not	esi
	and	esi, 1019912550
	mov	edi, eax
	and	edi, 3497625
	or	edi, esi
	xor	edi, 1019912294
	and	eax, 256
	or	eax, edi
	movzx	eax, byte ptr [rax + _ZN5Botan12_GLOBAL__N_1L10SPBOX_CATSE]
	imul	eax, eax, 9511232
	mov	esi, eax
	xor	esi, -1107820864
	and	esi, eax
	mov	eax, ebp
	and	eax, esi
	xor	esi, ebp
	or	esi, eax
	mov	eax, r13d
	shr	eax, 8
	or	eax, 320
	and	eax, 383
	movzx	eax, byte ptr [rax + _ZN5Botan12_GLOBAL__N_1L10SPBOX_CATSE]
	imul	eax, eax, -2138828776
	mov	edi, eax
	not	edi
	or	edi, -541081617
	mov	ebp, esi
	not	ebp
	mov	ebx, ebp
	and	ebx, 291147872
	and	esi, -291147873
	or	esi, ebx
	or	ebp, edi
	and	edi, 291147872
	and	eax, 536887312
	or	eax, edi
	xor	eax, esi
	not	ebp
	or	ebp, eax
	mov	eax, ecx
	and	eax, 384
	xor	ecx, 384
	or	ecx, eax
	movzx	eax, byte ptr [rcx + _ZN5Botan12_GLOBAL__N_1L10SPBOX_CATSE]
	imul	eax, eax, -535690750
	mov	ecx, eax
	xor	ecx, -69208068
	and	ecx, eax
	mov	eax, ebp
	not	eax
	and	eax, -417997656
	and	ebp, 417997655
	or	ebp, eax
	mov	eax, ecx
	not	eax
	and	eax, -417997656
	and	ecx, 417997654
	or	ecx, eax
	xor	ecx, ebp
	mov	eax, r13d
	not	eax
	or	eax, -1058981504
	and	eax, -1058981492
	and	r13d, 51
	or	r13d, eax
	xor	r13d, -1058981812
	movzx	eax, byte ptr [r13 + _ZN5Botan12_GLOBAL__N_1L10SPBOX_CATSE]
	imul	eax, eax, 2171456
	mov	esi, eax
	xor	esi, 805040000
	and	esi, eax
	mov	eax, ecx
	not	eax
	and	eax, esi
	not	esi
	and	esi, ecx
	or	esi, eax
	mov	eax, dword ptr [rsp - 72]
	mov	eax, dword ptr [rsp - 72]
	mov	eax, dword ptr [rsp - 72]
	mov	eax, dword ptr [rsp - 72]
	mov	eax, dword ptr [rsp - 72]
	mov	eax, dword ptr [rsp - 72]
	mov	ecx, dword ptr [rsp - 72]
	mov	eax, esi
	not	eax
	and	eax, ecx
	not	ecx
	and	ecx, esi
	or	ecx, eax
	test	r15d, r15d
	sete	byte ptr [rsp - 78]
	cmp	r8d, 10
	setl	byte ptr [rsp - 77]
	rol	ecx, 28
	mov	esi, -29994451
	jmp	.LBB6_40
.LBB6_43:                               
	movzx	edi, byte ptr [rsp - 78]
	movzx	ebx, byte ptr [rsp - 77]
	mov	eax, edi
	xor	al, bl
	test	bl, bl
	mov	esi, 674206395
	cmovne	esi, r10d
	test	dil, dil
	mov	edi, 674206395
	cmove	esi, edi
	test	al, al
	cmovne	esi, r10d
	.p2align	4, 0x90
.LBB6_40:                               


	cmp	esi, 674206394
	jle	.LBB6_41

	cmp	esi, 674206395
	je	.LBB6_50

	cmp	esi, 1702022579
	jne	.LBB6_40
	jmp	.LBB6_48
	.p2align	4, 0x90
.LBB6_41:                               
	cmp	esi, -728779100
	je	.LBB6_49

	cmp	esi, -29994451
	jne	.LBB6_40
	jmp	.LBB6_43
.LBB6_50:                               
	mov	esi, -728779100
	jmp	.LBB6_40
.LBB6_49:                               
	mov	dword ptr [rsp - 68], ecx
	mov	esi, r12d
	jmp	.LBB6_40
.LBB6_48:                               
	mov	eax, dword ptr [rsp - 68]
	mov	eax, dword ptr [rsp - 76]
	mov	eax, dword ptr [rsp - 76]
	mov	eax, dword ptr [rsp - 76]
	mov	eax, dword ptr [rsp - 76]
	mov	eax, dword ptr [rsp - 76]
	mov	rax, qword ptr [rsp - 64]
	mov	rax, qword ptr [rsp - 64]
	mov	ecx, -89797895
	jmp	.LBB6_2
.LBB6_19:                               
	mov	r9d, dword ptr [rsp - 68]
	mov	r13, qword ptr [rsp - 64]
	mov	eax, dword ptr [rdx + 8*r13]
	add	r13, r13
	mov	ecx, eax
	not	ecx
	and	ecx, r9d
	not	r9d
	and	r9d, eax
	or	r9d, ecx
	mov	rax, r13
	not	rax
	movabs	rcx, 2990779926111133269
	mov	rsi, rcx
	not	rcx
	and	rax, rsi
	and	rcx, r13
	or	rcx, rax
	movabs	rax, 2990779926111133268
	xor	rcx, rax
	mov	ebx, dword ptr [rdx + 4*rcx]
	mov	eax, dword ptr [rsp - 76]
	mov	ecx, eax
	not	ecx
	and	ecx, ebx
	not	ebx
	and	ebx, eax
	or	ebx, ecx
	mov	eax, r9d
	shr	eax, 24
	mov	ecx, eax
	xor	ecx, 192
	and	ecx, eax
	movzx	eax, byte ptr [rcx + _ZN5Botan12_GLOBAL__N_1L10SPBOX_CATSE]
	imul	eax, eax, 1879314694
	mov	ebp, eax
	xor	ebp, -16843782
	and	ebp, eax
	mov	esi, ebx
	mov	edi, ebx
	mov	r11d, ebx
	xor	r11d, -64
	and	r11d, ebx
	mov	eax, ebx
	shr	eax, 24
	mov	ecx, eax
	not	ecx
	or	ecx, -210695552
	and	ecx, -210695519
	and	eax, 30
	or	eax, ecx
	xor	eax, -210695455
	movzx	eax, byte ptr [rax + _ZN5Botan12_GLOBAL__N_1L10SPBOX_CATSE]
	imul	eax, eax, 33628192
	and	eax, -2146402272
	mov	ecx, eax
	and	ecx, ebp
	xor	eax, ebp
	or	eax, ecx
	mov	ecx, r9d
	shr	ecx, 16
	mov	ebx, ecx
	xor	ebx, 65472
	and	ebx, ecx
	mov	ecx, ebx
	not	ecx
	and	ecx, 725741223
	mov	ebp, ebx
	and	ebp, 4440
	or	ebp, ecx
	xor	ebp, 725741095
	and	ebx, 128
	or	ebx, ebp
	movzx	ecx, byte ptr [rbx + _ZN5Botan12_GLOBAL__N_1L10SPBOX_CATSE]
	imul	ecx, ecx, 9441352
	mov	ebx, ecx
	xor	ebx, -134349328
	and	ebx, ecx
	mov	ecx, eax
	not	ecx
	mov	ebp, ecx
	and	ebp, -1566416042
	and	eax, 1566416040
	or	eax, ebp
	mov	ebp, ebx
	not	ebp
	or	ecx, ebp
	and	ebp, -1566416042
	and	ebx, 1566416040
	or	ebx, ebp
	xor	ebx, eax
	not	ecx
	or	ecx, ebx
	shr	esi, 16
	mov	eax, esi
	xor	eax, 65472
	and	eax, esi
	mov	esi, eax
	and	esi, 192
	xor	eax, 192
	or	eax, esi
	movzx	eax, byte ptr [rax + _ZN5Botan12_GLOBAL__N_1L10SPBOX_CATSE]
	imul	eax, eax, -1912208863
	mov	esi, ecx
	not	esi
	mov	ebx, esi
	and	ebx, 1558610939
	and	ecx, -1558610940
	or	ecx, ebx
	mov	ebx, eax
	not	ebx
	or	ebx, -8396930
	or	esi, ebx
	and	ebx, 1558610939
	and	eax, 8192
	or	eax, ebx
	xor	eax, ecx
	not	esi
	or	esi, eax
	mov	eax, r9d
	shr	eax, 8
	mov	ecx, eax
	xor	ecx, 16777152
	and	ecx, eax
	mov	eax, ecx
	not	eax
	and	eax, -1114321766
	mov	ebx, ecx
	and	ebx, 7025509
	or	ebx, eax
	xor	ebx, -1114321510
	and	ecx, 256
	or	ecx, ebx
	movzx	eax, byte ptr [rcx + _ZN5Botan12_GLOBAL__N_1L10SPBOX_CATSE]
	imul	eax, eax, 9511232
	and	eax, 1107820800
	mov	ecx, esi
	and	ecx, eax
	xor	eax, esi
	or	eax, ecx
	shr	edi, 8
	mov	ecx, edi
	xor	ecx, 16777152
	and	ecx, edi
	mov	esi, ecx
	and	esi, 320
	xor	ecx, 320
	or	ecx, esi
	movzx	ecx, byte ptr [rcx + _ZN5Botan12_GLOBAL__N_1L10SPBOX_CATSE]
	imul	esi, ecx, -2138828776
	mov	ecx, esi
	xor	ecx, -541081624
	and	ecx, esi
	mov	esi, eax
	and	esi, ecx
	xor	ecx, eax
	or	ecx, esi
	or	r9d, 384
	and	r9d, 447
	movzx	eax, byte ptr [r9 + _ZN5Botan12_GLOBAL__N_1L10SPBOX_CATSE]
	imul	eax, eax, -535690750
	mov	esi, eax
	xor	esi, -69208068
	and	esi, eax
	mov	eax, r11d
	not	eax
	and	eax, -2116083348
	mov	edi, r11d
	and	edi, 2116083347
	or	edi, eax
	xor	edi, -2116083540
	and	r11d, 448
	or	r11d, edi
	movzx	eax, byte ptr [r11 + _ZN5Botan12_GLOBAL__N_1L10SPBOX_CATSE]
	imul	eax, eax, 2171456
	mov	edi, dword ptr [rsp - 72]
	mov	ebp, esi
	not	ebp
	and	ebp, -921467322
	and	esi, 921467320
	or	esi, ebp
	mov	ebp, edi
	not	ebp
	and	ebp, -921467322
	and	edi, 921467321
	or	edi, ebp
	xor	edi, esi
	mov	esi, edi
	not	esi
	and	esi, ecx
	not	ecx
	and	ecx, edi
	or	ecx, esi
	mov	esi, ecx
	not	esi
	and	esi, eax
	not	eax
	or	eax, -268701761
	and	esi, 268701760
	and	ecx, eax
	or	ecx, esi
	test	r15d, r15d
	mov	dword ptr [rsp - 52], ecx
	mov	edi, dword ptr [rsp - 52]
	sete	byte ptr [rsp - 78]
	cmp	r8d, 10
	setl	byte ptr [rsp - 77]
	rol	edi, 28
	mov	esi, -29994451
	jmp	.LBB6_20
.LBB6_29:                               
	mov	dword ptr [rsp - 68], edi
	mov	esi, r12d
	.p2align	4, 0x90
.LBB6_20:                               


	cmp	esi, 674206394
	jle	.LBB6_21

	cmp	esi, 674206395
	je	.LBB6_30

	cmp	esi, 1702022579
	jne	.LBB6_20
	jmp	.LBB6_28
	.p2align	4, 0x90
.LBB6_21:                               
	cmp	esi, -728779100
	je	.LBB6_29

	cmp	esi, -29994451
	jne	.LBB6_20

	movzx	ecx, byte ptr [rsp - 78]
	movzx	ebx, byte ptr [rsp - 77]
	mov	eax, ecx
	xor	al, bl
	test	bl, bl
	mov	esi, 674206395
	cmovne	esi, r10d
	test	cl, cl
	mov	ecx, 674206395
	cmove	esi, ecx
	test	al, al
	cmovne	esi, r10d
	jmp	.LBB6_20
.LBB6_30:                               
	mov	esi, -728779100
	jmp	.LBB6_20
.LBB6_28:                               
	mov	ebp, dword ptr [rsp - 68]
	mov	rax, r13
	movabs	rcx, -4603167948303918678
	sub	rax, rcx
	lea	rax, [rax + rcx + 2]
	mov	eax, dword ptr [rdx + 4*rax]
	mov	ecx, eax
	not	ecx
	and	ecx, ebp
	not	ebp
	and	ebp, eax
	or	ebp, ecx
	shl	r13, 2
	mov	rax, -12
	sub	rax, r13
	neg	rax
	mov	r9d, dword ptr [rdx + rax]
	mov	eax, dword ptr [rsp - 52]
	mov	ecx, eax
	not	ecx
	and	ecx, r9d
	not	r9d
	and	r9d, eax
	or	r9d, ecx
	mov	eax, ebp
	shr	eax, 24
	mov	ecx, eax
	xor	ecx, 192
	and	ecx, eax
	movzx	eax, byte ptr [rcx + _ZN5Botan12_GLOBAL__N_1L10SPBOX_CATSE]
	imul	eax, eax, 1879314694
	mov	ecx, eax
	xor	ecx, -16843782
	and	ecx, eax
	mov	eax, r9d
	shr	eax, 24
	mov	esi, eax
	xor	esi, 192
	and	esi, eax
	mov	eax, esi
	not	eax
	and	eax, 880510912
	mov	edi, esi
	and	edi, 63
	or	edi, eax
	xor	edi, 880510848
	and	esi, 64
	or	esi, edi
	movzx	eax, byte ptr [rsi + _ZN5Botan12_GLOBAL__N_1L10SPBOX_CATSE]
	imul	eax, eax, 33628192
	and	eax, -2146402272
	mov	esi, eax
	and	esi, ecx
	xor	eax, ecx
	or	eax, esi
	mov	ecx, ebp
	shr	ecx, 16
	mov	esi, ecx
	not	esi
	or	esi, -108206208
	and	esi, -108206185
	and	ecx, 40
	or	ecx, esi
	xor	ecx, -108206313
	movzx	ecx, byte ptr [rcx + _ZN5Botan12_GLOBAL__N_1L10SPBOX_CATSE]
	imul	esi, ecx, 9441352
	and	esi, 134349320
	mov	ecx, eax
	and	ecx, esi
	xor	esi, eax
	or	esi, ecx
	mov	eax, r9d
	shr	eax, 16
	mov	ecx, eax
	not	ecx
	or	ecx, 1404290688
	and	ecx, 1404290719
	and	eax, 32
	or	eax, ecx
	xor	eax, 1404290655
	movzx	eax, byte ptr [rax + _ZN5Botan12_GLOBAL__N_1L10SPBOX_CATSE]
	imul	eax, eax, -1912208863
	mov	edi, eax
	not	edi
	or	edi, -8396930
	mov	ecx, esi
	not	ecx
	mov	ebx, ecx
	and	ebx, -1732074614
	and	esi, 1732074613
	or	esi, ebx
	or	ecx, edi
	and	edi, -1732074614
	and	eax, 1
	or	eax, edi
	xor	eax, esi
	not	ecx
	or	ecx, eax
	mov	eax, ebp
	shr	eax, 8
	or	eax, 256
	and	eax, 319
	movzx	eax, byte ptr [rax + _ZN5Botan12_GLOBAL__N_1L10SPBOX_CATSE]
	imul	eax, eax, 9511232
	mov	esi, eax
	xor	esi, -1107820864
	and	esi, eax
	mov	edi, ecx
	not	edi
	mov	eax, esi
	not	eax
	mov	ebx, edi
	and	ebx, 964793263
	and	ecx, -964793264
	or	ecx, ebx
	or	edi, eax
	and	eax, 964793263
	and	esi, -964793280
	or	esi, eax
	xor	esi, ecx
	not	edi
	or	edi, esi
	mov	eax, r9d
	shr	eax, 8
	mov	ecx, eax
	xor	ecx, 16777152
	and	ecx, eax
	mov	eax, ecx
	not	eax
	and	eax, 863742279
	mov	esi, ecx
	and	esi, 8672952
	or	esi, eax
	xor	esi, 863741959
	and	ecx, 320
	or	ecx, esi
	movzx	eax, byte ptr [rcx + _ZN5Botan12_GLOBAL__N_1L10SPBOX_CATSE]
	imul	eax, eax, -2138828776
	mov	ecx, eax
	xor	ecx, -541081624
	and	ecx, eax
	mov	esi, edi
	not	esi
	mov	eax, ecx
	not	eax
	mov	ebx, esi
	and	ebx, -1057684557
	and	edi, 1057684556
	or	edi, ebx
	or	esi, eax
	and	eax, -1057684557
	and	ecx, 1057684552
	or	ecx, eax
	xor	ecx, edi
	not	esi
	or	esi, ecx
	mov	eax, ebp
	not	eax
	or	eax, 826370176
	and	eax, 826370230
	and	ebp, 9
	or	ebp, eax
	xor	ebp, 826370358
	movzx	eax, byte ptr [rbp + _ZN5Botan12_GLOBAL__N_1L10SPBOX_CATSE]
	imul	eax, eax, -535690750
	not	eax
	or	eax, -904289483
	or	r9d, 448
	and	r9d, 511
	movzx	ecx, byte ptr [r9 + _ZN5Botan12_GLOBAL__N_1L10SPBOX_CATSE]
	imul	ecx, ecx, 2171456
	mov	edi, ecx
	not	edi
	or	edi, 559491340
	mov	ebp, dword ptr [rsp - 76]
	and	eax, -835081417
	mov	ebx, ebp
	not	ebx
	and	ebx, -835081417
	and	ebp, 835081416
	or	ebp, ebx
	xor	ebp, eax
	mov	eax, ebp
	not	eax
	and	eax, esi
	not	esi
	and	esi, ebp
	or	esi, eax
	mov	eax, esi
	not	eax
	and	eax, 828189004
	and	esi, -828189005
	or	esi, eax
	and	edi, 828189004
	and	ecx, 4096
	or	ecx, edi
	xor	ecx, esi
	mov	dword ptr [rsp - 36], ecx
	mov	rax, qword ptr [rsp - 64]
	add	rax, 2
	mov	qword ptr [rsp - 8], rax
	mov	ecx, r14d
	jmp	.LBB6_2
.LBB6_16:
	mov	eax, dword ptr [rsp - 72]
	mov	rcx, qword ptr [rsp - 24] 
	mov	dword ptr [rcx], eax
	mov	eax, dword ptr [rsp - 76]
	mov	rcx, qword ptr [rsp - 16] 
	mov	dword ptr [rcx], eax
	pop	rbx
	pop	r12
	pop	r13
	pop	r14
	pop	r15
	pop	rbp
	ret
.Lfunc_end6:
	.size	_ZN5Botan12_GLOBAL__N_111des_encryptERjS1_PKj, .Lfunc_end6-_ZN5Botan12_GLOBAL__N_111des_encryptERjS1_PKj

	.section	.text._ZN5Botan8store_beIjEEvPhT_S2_,"axG",@progbits,_ZN5Botan8store_beIjEEvPhT_S2_,comdat
	.weak	_ZN5Botan8store_beIjEEvPhT_S2_ 
	.p2align	4, 0x90
	.type	_ZN5Botan8store_beIjEEvPhT_S2_,@function
_ZN5Botan8store_beIjEEvPhT_S2_:         
	.cfi_startproc

	push	rbp
.Lcfi25:
	.cfi_def_cfa_offset 16
	push	r15
.Lcfi26:
	.cfi_def_cfa_offset 24
	push	r14
.Lcfi27:
	.cfi_def_cfa_offset 32
	push	r12
.Lcfi28:
	.cfi_def_cfa_offset 40
	push	rbx
.Lcfi29:
	.cfi_def_cfa_offset 48
.Lcfi30:
	.cfi_offset rbx, -48
.Lcfi31:
	.cfi_offset r12, -40
.Lcfi32:
	.cfi_offset r14, -32
.Lcfi33:
	.cfi_offset r15, -24
.Lcfi34:
	.cfi_offset rbp, -16
	mov	eax, dword ptr [rip + x.27]
	mov	ecx, dword ptr [rip + y.28]
	lea	ebp, [rax - 1]
	imul	ebp, eax
	not	ebp
	or	ebp, -2
	cmp	ebp, -1
	sete	byte ptr [rsp - 10]
	cmp	ecx, 10
	setl	byte ptr [rsp - 9]
	bswap	esi
	bswap	edx
	mov	ebx, 253197497
	mov	r14d, 1897006806
	mov	r8d, 121308913
	mov	r15d, 698231037
	mov	r9d, -349200125
	mov	r10d, -863944404
	mov	r11d, 1561909947
	jmp	.LBB7_1
.LBB7_7:                                
	mov	cl, byte ptr [rsp - 10]
	mov	bl, byte ptr [rsp - 9]
	mov	eax, ecx
	xor	al, bl
	test	bl, bl
	mov	ebx, -863944404
	cmovne	ebx, r11d
	test	cl, cl
	cmove	ebx, r10d
	test	al, al
	cmovne	ebx, r11d
	.p2align	4, 0x90
.LBB7_1:                                




	cmp	ebx, 253197496
	jg	.LBB7_5

	cmp	ebx, -863944404
	je	.LBB7_25

	cmp	ebx, -349200125
	jne	.LBB7_1
	jmp	.LBB7_4
	.p2align	4, 0x90
.LBB7_5:                                
	cmp	ebx, 1561909947
	je	.LBB7_8

	cmp	ebx, 253197497
	jne	.LBB7_1
	jmp	.LBB7_7
.LBB7_25:                               
	mov	eax, dword ptr [rip + x.125]
	mov	ecx, dword ptr [rip + y.126]
	lea	ebx, [rax - 1]
	imul	ebx, eax
	mov	eax, ebx
	xor	eax, -2
	test	eax, ebx
	sete	byte ptr [rsp - 4]
	cmp	ecx, 10
	setl	byte ptr [rsp - 3]
	mov	ebx, -299333923
	jmp	.LBB7_26
.LBB7_8:                                
	mov	eax, dword ptr [rip + x.125]
	mov	ecx, dword ptr [rip + y.126]
	lea	ebx, [rax - 1]
	imul	ebx, eax
	not	ebx
	or	ebx, -2
	cmp	ebx, -1
	sete	byte ptr [rsp - 8]
	cmp	ecx, 10
	setl	byte ptr [rsp - 7]
	mov	ebx, -299333923
	jmp	.LBB7_9
.LBB7_44:                               
	movzx	eax, byte ptr [rsp - 4]
	movzx	ecx, byte ptr [rsp - 3]
	mov	ebx, eax
	xor	bl, cl
	mov	ebp, 121308913
	cmovne	ebp, r14d
	test	cl, cl
	mov	ebx, ebp
	cmovne	ebx, r14d
	test	al, al
	cmove	ebx, ebp
	.p2align	4, 0x90
.LBB7_26:                               

	cmp	ebx, 698231036
	jg	.LBB7_30

	cmp	ebx, -299333923
	je	.LBB7_44

	cmp	ebx, 121308913
	jne	.LBB7_26

	mov	dword ptr [rdi], esi
	mov	ebx, 1897006806
	jmp	.LBB7_26
	.p2align	4, 0x90
.LBB7_30:                               
	cmp	ebx, 698231037
	je	.LBB7_33

	cmp	ebx, 1897006806
	jne	.LBB7_26

	mov	dword ptr [rdi], esi
	mov	eax, dword ptr [rip + x.125]
	lea	ecx, [rax - 1]
	imul	ecx, eax
	not	ecx
	or	ecx, -2
	cmp	ecx, -1
	sete	al
	mov	ebx, 121308913
	cmove	ebx, r15d
	cmp	dword ptr [rip + y.126], 10
	setl	cl
	cmovge	ebx, r8d
	xor	cl, al
	cmovne	ebx, r15d
	jmp	.LBB7_26
.LBB7_42:                               
	movzx	ebp, byte ptr [rsp - 8]
	movzx	ecx, byte ptr [rsp - 7]
	mov	eax, ebp
	xor	al, cl
	test	cl, cl
	mov	ebx, 121308913
	cmovne	ebx, r14d
	test	bpl, bpl
	cmove	ebx, r8d
	test	al, al
	cmovne	ebx, r14d
	.p2align	4, 0x90
.LBB7_9:                                

	cmp	ebx, 698231036
	jg	.LBB7_13

	cmp	ebx, -299333923
	je	.LBB7_42

	cmp	ebx, 121308913
	jne	.LBB7_9

	mov	dword ptr [rdi], esi
	mov	ebx, 1897006806
	jmp	.LBB7_9
	.p2align	4, 0x90
.LBB7_13:                               
	cmp	ebx, 698231037
	je	.LBB7_16

	cmp	ebx, 1897006806
	jne	.LBB7_9

	mov	dword ptr [rdi], esi
	mov	eax, dword ptr [rip + x.125]
	mov	ecx, eax
	neg	ecx
	not	ecx
	imul	ecx, eax
	not	ecx
	or	ecx, -2
	cmp	ecx, -1
	sete	al
	mov	ebx, 121308913
	cmove	ebx, r15d
	cmp	dword ptr [rip + y.126], 10
	setl	cl
	cmovge	ebx, r8d
	xor	cl, al
	cmovne	ebx, r15d
	jmp	.LBB7_9
.LBB7_33:                               
	mov	eax, dword ptr [rip + x.125]
	mov	ebp, dword ptr [rip + y.126]
	lea	ebx, [rax - 1]
	imul	ebx, eax
	mov	eax, ebx
	xor	eax, -2
	and	eax, ebx
	sete	bl
	sete	byte ptr [rsp - 6]
	cmp	ebp, 10
	setl	cl
	xor	cl, bl
	mov	ecx, 121308913
	cmovne	ecx, r15d
	test	eax, eax
	mov	r12d, ecx
	cmove	r12d, r15d
	cmp	ebp, 10
	setl	byte ptr [rsp - 5]
	cmovge	r12d, ecx
	mov	ebp, -299333923
	jmp	.LBB7_34
.LBB7_16:                               
	mov	eax, dword ptr [rip + x.125]
	mov	ecx, dword ptr [rip + y.126]
	mov	ebx, eax
	neg	ebx
	not	ebx
	imul	ebx, eax
	not	ebx
	or	ebx, -2
	cmp	ebx, -1
	sete	al
	sete	byte ptr [rsp - 2]
	mov	ebx, 121308913
	cmove	ebx, r15d
	cmp	ecx, 10
	setl	cl
	setl	byte ptr [rsp - 1]
	cmovge	ebx, r8d
	xor	cl, al
	cmovne	ebx, r15d
	mov	ebp, -299333923
	jmp	.LBB7_17
.LBB7_45:                               
	movzx	ebx, byte ptr [rsp - 6]
	movzx	ecx, byte ptr [rsp - 5]
	mov	eax, ebx
	xor	al, cl
	mov	eax, 121308913
	cmovne	eax, r14d
	test	cl, cl
	mov	ebp, eax
	cmovne	ebp, r14d
	test	bl, bl
	cmove	ebp, eax
	.p2align	4, 0x90
.LBB7_34:                               

	cmp	ebp, 698231036
	jg	.LBB7_38

	cmp	ebp, -299333923
	je	.LBB7_45

	cmp	ebp, 121308913
	jne	.LBB7_34

	mov	dword ptr [rdi + 4], edx
	mov	ebp, 1897006806
	jmp	.LBB7_34
	.p2align	4, 0x90
.LBB7_38:                               
	cmp	ebp, 698231037
	je	.LBB7_41

	cmp	ebp, 1897006806
	jne	.LBB7_34

	mov	dword ptr [rdi + 4], edx
	mov	ebp, r12d
	jmp	.LBB7_34
.LBB7_43:                               
	movzx	r12d, byte ptr [rsp - 2]
	movzx	ecx, byte ptr [rsp - 1]
	mov	eax, r12d
	xor	al, cl
	test	cl, cl
	mov	ebp, 121308913
	cmovne	ebp, r14d
	test	r12b, r12b
	cmove	ebp, r8d
	test	al, al
	cmovne	ebp, r14d
	.p2align	4, 0x90
.LBB7_17:                               

	cmp	ebp, 698231036
	jg	.LBB7_21

	cmp	ebp, -299333923
	je	.LBB7_43

	cmp	ebp, 121308913
	jne	.LBB7_17

	mov	dword ptr [rdi + 4], edx
	mov	ebp, 1897006806
	jmp	.LBB7_17
	.p2align	4, 0x90
.LBB7_21:                               
	cmp	ebp, 698231037
	je	.LBB7_24

	cmp	ebp, 1897006806
	jne	.LBB7_17

	mov	dword ptr [rdi + 4], edx
	mov	ebp, ebx
	jmp	.LBB7_17
.LBB7_41:                               
	mov	ebx, 1561909947
	jmp	.LBB7_1
.LBB7_24:                               
	mov	eax, dword ptr [rip + x.27]
	lea	ecx, [rax - 1]
	imul	ecx, eax
	not	ecx
	or	ecx, -2
	cmp	ecx, -1
	sete	al
	mov	ebx, -863944404
	cmove	ebx, r9d
	cmp	dword ptr [rip + y.28], 10
	setl	cl
	cmovge	ebx, r10d
	xor	cl, al
	cmovne	ebx, r9d
	jmp	.LBB7_1
.LBB7_4:
	pop	rbx
	pop	r12
	pop	r14
	pop	r15
	pop	rbp
	ret
.Lfunc_end7:
	.size	_ZN5Botan8store_beIjEEvPhT_S2_, .Lfunc_end7-_ZN5Botan8store_beIjEEvPhT_S2_
	.cfi_endproc

	.text
	.globl	_ZNK5Botan3DES9decrypt_nEPKhPhm 
	.p2align	4, 0x90
	.type	_ZNK5Botan3DES9decrypt_nEPKhPhm,@function
_ZNK5Botan3DES9decrypt_nEPKhPhm:        
	.cfi_startproc

	push	rbp
.Lcfi35:
	.cfi_def_cfa_offset 16
	push	r15
.Lcfi36:
	.cfi_def_cfa_offset 24
	push	r14
.Lcfi37:
	.cfi_def_cfa_offset 32
	push	r13
.Lcfi38:
	.cfi_def_cfa_offset 40
	push	r12
.Lcfi39:
	.cfi_def_cfa_offset 48
	push	rbx
.Lcfi40:
	.cfi_def_cfa_offset 56
	sub	rsp, 168
.Lcfi41:
	.cfi_def_cfa_offset 224
.Lcfi42:
	.cfi_offset rbx, -56
.Lcfi43:
	.cfi_offset r12, -48
.Lcfi44:
	.cfi_offset r13, -40
.Lcfi45:
	.cfi_offset r14, -32
.Lcfi46:
	.cfi_offset r15, -24
.Lcfi47:
	.cfi_offset rbp, -16
	mov	qword ptr [rsp + 104], rcx 
	mov	qword ptr [rsp + 96], rdx 
	mov	qword ptr [rsp + 88], rsi 
	mov	r14, rdi
	lea	rax, [r14 + 8]
	mov	qword ptr [rsp + 64], rax
	mov	rbp, qword ptr [rsp + 64]
	mov	rdi, rbp
	call	_ZNKSt6vectorIjN5Botan16secure_allocatorIjEEE5beginEv
	mov	rbx, rax
	mov	rdi, rbp
	call	_ZNKSt6vectorIjN5Botan16secure_allocatorIjEEE3endEv
	xor	esi, esi
	cmp	rbx, rax
	setne	sil
	mov	rdi, r14
	call	_ZNK5Botan18SymmetricAlgorithm14verify_key_setEb
	mov	eax, -2025539208
	mov	r9d, -1106862460
	mov	r15d, -1169115405





	jmp	.LBB8_1
.LBB8_11:                               
	cmovge	eax, edi
	xor	dl, cl
	cmovne	eax, esi
	.p2align	4, 0x90
.LBB8_1:                                

















	cmp	eax, -1391489661
	jle	.LBB8_2

	cmp	eax, 420523193
	jle	.LBB8_20

	cmp	eax, 1151112713
	jg	.LBB8_31

	cmp	eax, 420523194
	je	.LBB8_76

	cmp	eax, 755041219
	jne	.LBB8_1

	mov	eax, dword ptr [rip + x.29]
	lea	ecx, [rax - 1]
	imul	ecx, eax
	mov	eax, ecx
	xor	eax, -2
	and	eax, ecx
	sete	cl
	test	eax, eax
	mov	eax, -1391489660
	mov	edi, -674789322
	cmove	eax, edi
	cmp	dword ptr [rip + y.30], 10
	setl	dl
	mov	esi, -1391489660
	jmp	.LBB8_78
	.p2align	4, 0x90
.LBB8_2:                                
	cmp	eax, -2025539209
	jle	.LBB8_3

	cmp	eax, -1629086016
	jg	.LBB8_12

	cmp	eax, -2025539208
	je	.LBB8_34

	cmp	eax, -1928108633
	jne	.LBB8_1

	mov	eax, dword ptr [rip + x.29]
	lea	ecx, [rax - 1]
	imul	ecx, eax
	not	ecx
	or	ecx, -2
	cmp	ecx, -1
	sete	cl
	mov	eax, -1391489660
	mov	esi, 755041219
	cmove	eax, esi
	cmp	dword ptr [rip + y.30], 10
	setl	dl
	mov	edi, -1391489660
	jmp	.LBB8_11
	.p2align	4, 0x90
.LBB8_20:                               
	cmp	eax, -674789323
	jg	.LBB8_24

	cmp	eax, -1391489660
	je	.LBB8_180

	cmp	eax, -790337387
	jne	.LBB8_1

	mov	eax, dword ptr [rip + x.29]
	mov	ecx, dword ptr [rip + y.30]
	lea	edx, [rax - 1]
	imul	edx, eax
	not	edx
	or	edx, -2
	cmp	edx, -1
	sete	al
	cmp	ecx, 10
	setl	bl
	xor	bl, al
	mov	esi, 1151112714
	mov	edi, -1598644284
	cmovne	esi, edi
	cmp	edx, -1
	mov	eax, esi
	cmove	eax, edi
	cmp	ecx, 10
	cmovge	eax, esi
	jmp	.LBB8_1
	.p2align	4, 0x90
.LBB8_3:                                
	cmp	eax, -2142806613
	je	.LBB8_179

	cmp	eax, -2091282423
	je	.LBB8_80

	cmp	eax, -2028312422
	jne	.LBB8_1

	mov	eax, dword ptr [rip + x.29]
	mov	ecx, eax
	neg	ecx
	not	ecx
	imul	ecx, eax
	not	ecx
	or	ecx, -2
	cmp	ecx, -1
	sete	cl
	mov	eax, -2142806613
	mov	esi, -166863904
	cmove	eax, esi
	cmp	dword ptr [rip + y.30], 10
	setl	dl
	mov	edi, -2142806613
	jmp	.LBB8_11
.LBB8_31:                               
	cmp	eax, 1151112714
	je	.LBB8_133

	cmp	eax, 1323475440
	jne	.LBB8_1

	mov	qword ptr [rsp + 128], r14
	mov	rax, qword ptr [rsp + 112] 
	mov	qword ptr [rsp + 136], rax
	mov	rax, qword ptr [rsp + 120] 
	mov	qword ptr [rsp + 80], rax
	cmp	qword ptr [rsp + 128], 0
	mov	eax, -2091282423
	mov	ecx, -1928108633
	cmove	eax, ecx
	jmp	.LBB8_1
.LBB8_12:                               
	cmp	eax, -1629086015
	je	.LBB8_77

	cmp	eax, -1598644284
	jne	.LBB8_1

	mov	r8, qword ptr [rsp + 48]
	mov	eax, dword ptr [rip + x.13]
	mov	ebp, dword ptr [rip + y.14]
	lea	edx, [rax - 1]
	imul	edx, eax
	mov	eax, edx
	not	eax
	or	eax, -2
	cmp	eax, -1
	sete	bl
	cmp	ebp, 10
	setl	byte ptr [rsp + 24]
	setl	cl
	xor	cl, bl
	mov	ecx, -1106862460
	mov	edi, 1168054530
	cmovne	ecx, edi
	cmp	eax, -1
	sete	byte ptr [rsp + 20]
	mov	esi, ecx
	cmove	esi, edi
	cmp	ebp, 10
	cmovge	esi, ecx
	and	edx, 1
	mov	edi, -1924553818
	jmp	.LBB8_15
.LBB8_24:                               
	cmp	eax, -166863904
	je	.LBB8_79

	cmp	eax, -674789322
	jne	.LBB8_1
	jmp	.LBB8_26
.LBB8_76:                               
	mov	rax, qword ptr [rsp + 144]
	mov	qword ptr [rsp + 88], rax 
	mov	rax, qword ptr [rsp + 152]
	mov	qword ptr [rsp + 96], rax 
	mov	rax, qword ptr [rsp + 160]
	mov	qword ptr [rsp + 104], rax 
	mov	eax, -2025539208
	jmp	.LBB8_1
.LBB8_34:                               
	mov	rax, qword ptr [rsp + 104] 
	mov	qword ptr [rsp + 72], rax
	mov	rax, qword ptr [rsp + 96] 
	mov	qword ptr [rsp + 56], rax
	mov	rax, qword ptr [rsp + 88] 
	mov	qword ptr [rsp + 48], rax
	mov	rax, qword ptr [rsp + 72]
	cmp	rax, 1
	mov	eax, -1629086015
	mov	ecx, -790337387
	cmova	eax, ecx
	jmp	.LBB8_1
.LBB8_180:                              
	mov	eax, 755041219
	jmp	.LBB8_1
.LBB8_179:                              
	mov	eax, -2028312422
	jmp	.LBB8_1
.LBB8_80:                               
	mov	r8, qword ptr [rsp + 80]
	mov	eax, dword ptr [rip + x.13]
	mov	ebp, dword ptr [rip + y.14]
	lea	esi, [rax - 1]
	imul	esi, eax
	mov	eax, esi
	not	eax
	or	eax, -2
	and	esi, 1
	cmp	eax, -1
	sete	bl
	sete	byte ptr [rsp + 24]
	mov	eax, -1106862460
	mov	ecx, 1168054530
	cmove	eax, ecx
	cmp	ebp, 10
	setl	dl
	setl	byte ptr [rsp + 32]
	cmovge	eax, r9d
	xor	dl, bl
	cmovne	eax, ecx
	mov	edi, -1924553818
	jmp	.LBB8_81
.LBB8_133:                              
	mov	rdi, qword ptr [rsp + 48]
	mov	eax, dword ptr [rip + x.13]
	mov	r8d, dword ptr [rip + y.14]
	mov	edx, eax
	neg	edx
	not	edx
	imul	edx, eax
	mov	esi, edx
	xor	esi, -2
	mov	eax, esi
	and	eax, edx
	sete	byte ptr [rsp + 20]
	sete	cl
	test	eax, eax
	mov	ebp, -1106862460
	mov	ebx, 1168054530
	cmove	ebp, ebx
	cmp	r8d, 10
	setl	al
	setl	byte ptr [rsp + 24]
	cmovge	ebp, r9d
	xor	al, cl
	cmovne	ebp, ebx
	mov	eax, -1924553818
	jmp	.LBB8_134
.LBB8_77:                               
	mov	eax, dword ptr [rip + x.29]
	lea	ecx, [rax - 1]
	imul	ecx, eax
	mov	eax, ecx
	xor	eax, -2
	and	eax, ecx
	sete	cl
	test	eax, eax
	mov	eax, -2142806613
	mov	edi, -2028312422
	cmove	eax, edi
	cmp	dword ptr [rip + y.30], 10
	setl	dl
	mov	esi, -2142806613
.LBB8_78:                               
	cmovge	eax, esi
	xor	dl, cl
	cmovne	eax, edi
	jmp	.LBB8_1
.LBB8_42:                               
	movzx	eax, byte ptr [rsp + 20]
	movzx	ebx, byte ptr [rsp + 24]
	mov	ecx, eax
	xor	cl, bl
	test	bl, bl
	mov	edi, -1106862460
	cmovne	edi, r15d
	test	al, al
	cmove	edi, r9d
	test	cl, cl
	cmovne	edi, r15d
	.p2align	4, 0x90
.LBB8_15:                               

	cmp	edi, -1106862461
	jle	.LBB8_16

	cmp	edi, -1106862460
	je	.LBB8_43

	cmp	edi, 1168054530
	jne	.LBB8_15
	jmp	.LBB8_37
	.p2align	4, 0x90
.LBB8_16:                               
	cmp	edi, -1924553818
	je	.LBB8_42

	cmp	edi, -1169115405
	jne	.LBB8_15

	mov	eax, dword ptr [r8]
	bswap	eax
	mov	dword ptr [rsp + 40], eax
	mov	edi, esi
	jmp	.LBB8_15
.LBB8_43:                               
	mov	edi, -1169115405
	jmp	.LBB8_15
.LBB8_79:                               
	mov	rax, qword ptr [rsp + 48]
	mov	qword ptr [rsp + 120], rax 
	mov	rax, qword ptr [rsp + 56]
	mov	qword ptr [rsp + 112], rax 
	mov	eax, 1323475440
	mov	r14, qword ptr [rsp + 72]
	jmp	.LBB8_1
.LBB8_92:                               
	movzx	ecx, byte ptr [rsp + 24]
	movzx	ebx, byte ptr [rsp + 32]
	mov	edx, ecx
	xor	dl, bl
	test	bl, bl
	mov	edi, -1106862460
	cmovne	edi, r15d
	test	cl, cl
	cmove	edi, r9d
	test	dl, dl
	cmovne	edi, r15d
	.p2align	4, 0x90
.LBB8_81:                               

	cmp	edi, -1106862461
	jle	.LBB8_82

	cmp	edi, -1106862460
	je	.LBB8_93

	cmp	edi, 1168054530
	jne	.LBB8_81
	jmp	.LBB8_87
	.p2align	4, 0x90
.LBB8_82:                               
	cmp	edi, -1924553818
	je	.LBB8_92

	cmp	edi, -1169115405
	jne	.LBB8_81

	mov	ecx, dword ptr [r8]
	bswap	ecx
	mov	dword ptr [rsp + 40], ecx
	mov	edi, eax
	jmp	.LBB8_81
.LBB8_93:                               
	mov	edi, -1169115405
	jmp	.LBB8_81
.LBB8_145:                              
	movzx	ebx, byte ptr [rsp + 20]
	movzx	eax, byte ptr [rsp + 24]
	mov	ecx, ebx
	xor	cl, al
	test	al, al
	mov	eax, -1106862460
	cmovne	eax, r15d
	test	bl, bl
	cmove	eax, r9d
	test	cl, cl
	cmovne	eax, r15d
	.p2align	4, 0x90
.LBB8_134:                              

	cmp	eax, -1106862461
	jle	.LBB8_135

	cmp	eax, -1106862460
	je	.LBB8_146

	cmp	eax, 1168054530
	jne	.LBB8_134
	jmp	.LBB8_140
	.p2align	4, 0x90
.LBB8_135:                              
	cmp	eax, -1924553818
	je	.LBB8_145

	cmp	eax, -1169115405
	jne	.LBB8_134

	mov	eax, dword ptr [rdi]
	bswap	eax
	mov	dword ptr [rsp + 40], eax
	mov	eax, ebp
	jmp	.LBB8_134
.LBB8_146:                              
	mov	eax, -1169115405
	jmp	.LBB8_134
.LBB8_37:                               
	test	edx, edx
	mov	eax, dword ptr [rsp + 40]
	mov	dword ptr [rsp + 32], eax
	mov	r8, qword ptr [rsp + 48]
	sete	byte ptr [rsp + 16]
	cmp	ebp, 10
	setl	byte ptr [rsp + 20]
	mov	edi, -1924553818
	jmp	.LBB8_38
.LBB8_87:                               
	test	esi, esi
	mov	ecx, dword ptr [rsp + 40]
	mov	dword ptr [rsp + 16], ecx
	mov	rsi, qword ptr [rsp + 80]
	sete	byte ptr [rsp + 24]
	cmp	ebp, 10
	setl	byte ptr [rsp + 32]
	mov	ecx, -1924553818
	jmp	.LBB8_88
.LBB8_140:                              
	test	esi, edx
	mov	eax, dword ptr [rsp + 40]
	mov	dword ptr [rsp + 32], eax
	mov	rdi, qword ptr [rsp + 48]
	sete	byte ptr [rsp + 16]
	cmp	r8d, 10
	setl	byte ptr [rsp + 20]
	mov	eax, -1924553818
	jmp	.LBB8_141
.LBB8_51:                               
	movzx	eax, byte ptr [rsp + 16]
	movzx	ebx, byte ptr [rsp + 20]
	mov	ecx, eax
	xor	cl, bl
	test	bl, bl
	mov	edi, -1106862460
	cmovne	edi, r15d
	test	al, al
	cmove	edi, r9d
	test	cl, cl
	cmovne	edi, r15d
	.p2align	4, 0x90
.LBB8_38:                               

	cmp	edi, -1106862461
	jle	.LBB8_39

	cmp	edi, -1106862460
	je	.LBB8_52

	cmp	edi, 1168054530
	jne	.LBB8_38
	jmp	.LBB8_46
	.p2align	4, 0x90
.LBB8_39:                               
	cmp	edi, -1924553818
	je	.LBB8_51

	cmp	edi, -1169115405
	jne	.LBB8_38

	mov	eax, dword ptr [r8 + 4]
	bswap	eax
	mov	dword ptr [rsp + 40], eax
	mov	edi, esi
	jmp	.LBB8_38
.LBB8_52:                               
	mov	edi, -1169115405
	jmp	.LBB8_38
.LBB8_101:                              
	movzx	edx, byte ptr [rsp + 24]
	movzx	ecx, byte ptr [rsp + 32]
	mov	ebx, edx
	xor	bl, cl
	mov	edi, -1106862460
	cmovne	edi, r15d
	test	cl, cl
	mov	ecx, edi
	cmovne	ecx, r15d
	test	dl, dl
	cmove	ecx, edi
	.p2align	4, 0x90
.LBB8_88:                               

	cmp	ecx, -1106862461
	jle	.LBB8_89

	cmp	ecx, -1106862460
	je	.LBB8_102

	cmp	ecx, 1168054530
	jne	.LBB8_88
	jmp	.LBB8_96
	.p2align	4, 0x90
.LBB8_89:                               
	cmp	ecx, -1924553818
	je	.LBB8_101

	cmp	ecx, -1169115405
	jne	.LBB8_88

	mov	ecx, dword ptr [rsi + 4]
	bswap	ecx
	mov	dword ptr [rsp + 40], ecx
	mov	ecx, eax
	jmp	.LBB8_88
.LBB8_102:                              
	mov	ecx, -1169115405
	jmp	.LBB8_88
.LBB8_154:                              
	movzx	ebx, byte ptr [rsp + 16]
	movzx	eax, byte ptr [rsp + 20]
	mov	ecx, ebx
	xor	cl, al
	mov	ecx, -1106862460
	cmovne	ecx, r15d
	test	al, al
	mov	eax, ecx
	cmovne	eax, r15d
	test	bl, bl
	cmove	eax, ecx
	.p2align	4, 0x90
.LBB8_141:                              

	cmp	eax, -1106862461
	jle	.LBB8_142

	cmp	eax, -1106862460
	je	.LBB8_155

	cmp	eax, 1168054530
	jne	.LBB8_141
	jmp	.LBB8_149
	.p2align	4, 0x90
.LBB8_142:                              
	cmp	eax, -1924553818
	je	.LBB8_154

	cmp	eax, -1169115405
	jne	.LBB8_141

	mov	eax, dword ptr [rdi + 4]
	bswap	eax
	mov	dword ptr [rsp + 40], eax
	mov	eax, ebp
	jmp	.LBB8_141
.LBB8_155:                              
	mov	eax, -1169115405
	jmp	.LBB8_141
.LBB8_46:                               
	test	edx, edx
	mov	eax, dword ptr [rsp + 40]
	mov	dword ptr [rsp + 24], eax
	mov	r8, qword ptr [rsp + 48]
	sete	byte ptr [rsp + 28]
	cmp	ebp, 10
	setl	byte ptr [rsp + 16]
	mov	edi, -1924553818
	jmp	.LBB8_47
.LBB8_96:                               
	mov	eax, dword ptr [rsp + 40]
	mov	dword ptr [rsp + 28], eax
	lea	rdi, [rsp + 16]
	lea	rsi, [rsp + 28]
	call	_ZN5Botan12_GLOBAL__N_16des_IPERjS1_
	mov	rax, qword ptr [rsp + 64]
	mov	r8, qword ptr [rax]
	mov	eax, dword ptr [rip + x.421]
	mov	ecx, dword ptr [rip + y.422]
	mov	edx, eax
	neg	edx
	not	edx
	imul	edx, eax
	not	edx
	or	edx, -2
	cmp	edx, -1
	sete	al
	cmp	ecx, 10
	setl	bl
	xor	bl, al
	mov	esi, 710475645
	mov	edi, -1962322502
	cmovne	esi, edi
	cmp	edx, -1
	sete	byte ptr [rsp + 32]
	mov	eax, esi
	cmove	eax, edi
	cmp	ecx, 10
	setl	byte ptr [rsp + 40]
	cmovge	eax, esi
	mov	ecx, 1018270514
	jmp	.LBB8_97
.LBB8_149:                              
	test	esi, edx
	mov	eax, dword ptr [rsp + 40]
	mov	dword ptr [rsp + 24], eax
	mov	rdi, qword ptr [rsp + 48]
	sete	byte ptr [rsp + 28]
	cmp	r8d, 10
	setl	byte ptr [rsp + 16]
	mov	eax, -1924553818
	jmp	.LBB8_150
.LBB8_60:                               
	movzx	eax, byte ptr [rsp + 28]
	movzx	ebx, byte ptr [rsp + 16]
	mov	ecx, eax
	xor	cl, bl
	mov	ecx, -1106862460
	cmovne	ecx, r15d
	test	bl, bl
	mov	edi, ecx
	cmovne	edi, r15d
	test	al, al
	cmove	edi, ecx
	.p2align	4, 0x90
.LBB8_47:                               

	cmp	edi, -1106862461
	jle	.LBB8_48

	cmp	edi, -1106862460
	je	.LBB8_61

	cmp	edi, 1168054530
	jne	.LBB8_47
	jmp	.LBB8_55
	.p2align	4, 0x90
.LBB8_48:                               
	cmp	edi, -1924553818
	je	.LBB8_60

	cmp	edi, -1169115405
	jne	.LBB8_47

	mov	eax, dword ptr [r8 + 8]
	bswap	eax
	mov	dword ptr [rsp + 40], eax
	mov	edi, esi
	jmp	.LBB8_47
.LBB8_61:                               
	mov	edi, -1169115405
	jmp	.LBB8_47
.LBB8_104:                              
	mov	ecx, eax
	.p2align	4, 0x90
.LBB8_97:                               

	cmp	ecx, 1018270513
	jg	.LBB8_103

	cmp	ecx, -1962322502
	je	.LBB8_107

	cmp	ecx, 710475645
	jne	.LBB8_97

	mov	ecx, 1924581560
	jmp	.LBB8_97
	.p2align	4, 0x90
.LBB8_103:                              
	cmp	ecx, 1924581560
	je	.LBB8_104

	cmp	ecx, 1018270514
	jne	.LBB8_97

	movzx	ebx, byte ptr [rsp + 32]
	movzx	ecx, byte ptr [rsp + 40]
	mov	edx, ebx
	xor	dl, cl
	test	cl, cl
	mov	ecx, 710475645
	mov	edi, 1924581560
	cmovne	ecx, edi
	test	bl, bl
	mov	esi, 710475645
	cmove	ecx, esi
	test	dl, dl
	cmovne	ecx, edi
	jmp	.LBB8_97
.LBB8_163:                              
	movzx	ebx, byte ptr [rsp + 28]
	movzx	eax, byte ptr [rsp + 16]
	mov	ecx, ebx
	xor	cl, al
	test	al, al
	mov	eax, -1106862460
	cmovne	eax, r15d
	test	bl, bl
	cmove	eax, r9d
	test	cl, cl
	cmovne	eax, r15d
	.p2align	4, 0x90
.LBB8_150:                              

	cmp	eax, -1106862461
	jle	.LBB8_151

	cmp	eax, -1106862460
	je	.LBB8_164

	cmp	eax, 1168054530
	jne	.LBB8_150
	jmp	.LBB8_158
	.p2align	4, 0x90
.LBB8_151:                              
	cmp	eax, -1924553818
	je	.LBB8_163

	cmp	eax, -1169115405
	jne	.LBB8_150

	mov	eax, dword ptr [rdi + 8]
	bswap	eax
	mov	dword ptr [rsp + 40], eax
	mov	eax, ebp
	jmp	.LBB8_150
.LBB8_164:                              
	mov	eax, -1169115405
	jmp	.LBB8_150
.LBB8_55:                               
	test	edx, edx
	mov	eax, dword ptr [rsp + 40]
	mov	dword ptr [rsp + 20], eax
	mov	rdx, qword ptr [rsp + 48]
	sete	byte ptr [rsp + 15]
	cmp	ebp, 10
	setl	byte ptr [rsp + 28]
	mov	ecx, -1924553818
	jmp	.LBB8_56
.LBB8_107:                              
	mov	r12d, dword ptr [rsp + 16]
	mov	eax, dword ptr [rsp + 28]
	mov	ecx, 16
	jmp	.LBB8_108
.LBB8_158:                              
	test	esi, edx
	mov	eax, dword ptr [rsp + 40]
	mov	dword ptr [rsp + 20], eax
	mov	rdx, qword ptr [rsp + 48]
	sete	byte ptr [rsp + 15]
	cmp	r8d, 10
	setl	byte ptr [rsp + 28]
	mov	eax, -1924553818
	jmp	.LBB8_159
.LBB8_69:                               
	movzx	ebx, byte ptr [rsp + 15]
	movzx	ecx, byte ptr [rsp + 28]
	mov	eax, ebx
	xor	al, cl
	test	cl, cl
	mov	ecx, -1106862460
	cmovne	ecx, r15d
	test	bl, bl
	cmove	ecx, r9d
	test	al, al
	cmovne	ecx, r15d
	.p2align	4, 0x90
.LBB8_56:                               

	cmp	ecx, -1106862461
	jle	.LBB8_57

	cmp	ecx, -1106862460
	je	.LBB8_70

	cmp	ecx, 1168054530
	jne	.LBB8_56
	jmp	.LBB8_64
	.p2align	4, 0x90
.LBB8_57:                               
	cmp	ecx, -1924553818
	je	.LBB8_69

	cmp	ecx, -1169115405
	jne	.LBB8_56

	mov	eax, dword ptr [rdx + 12]
	bswap	eax
	mov	dword ptr [rsp + 40], eax
	mov	ecx, esi
	jmp	.LBB8_56
.LBB8_70:                               
	mov	ecx, -1169115405
	jmp	.LBB8_56
	.p2align	4, 0x90
.LBB8_129:                              
	mov	eax, dword ptr [rsp + 32]
	movabs	rcx, 7723604721280096795
	mov	rdx, rcx
	lea	rcx, [rdi + rdx - 4]
	sub	rcx, rdx
	mov	ecx, dword ptr [r8 + 4*rcx]
	mov	edx, ecx
	not	edx
	and	edx, eax
	not	eax
	and	eax, ecx
	or	eax, edx
	mov	edx, dword ptr [r8 + 4*rdi - 12]
	mov	ecx, edx
	not	ecx
	and	ecx, 977451179
	and	edx, -977451180
	or	edx, ecx
	mov	esi, r12d
	not	esi
	and	esi, 977451179
	mov	ebx, r12d
	and	ebx, -977451180
	or	ebx, esi
	xor	ebx, edx
	mov	edx, eax
	mov	esi, eax
	mov	ebp, eax
	xor	ebp, -64
	and	ebp, eax
	shr	eax, 24
	mov	edi, eax
	xor	edi, 192
	and	edi, eax
	movzx	eax, byte ptr [rdi + _ZN5Botan12_GLOBAL__N_1L10SPBOX_CATSE]
	imul	eax, eax, 1879314694
	mov	edi, eax
	not	edi
	or	edi, -1971534927
	mov	ecx, ebx
	shr	ecx, 24
	or	ecx, 64
	and	ecx, 127
	movzx	ecx, byte ptr [rcx + _ZN5Botan12_GLOBAL__N_1L10SPBOX_CATSE]
	imul	ecx, ecx, 33628192
	not	ecx
	or	ecx, 191711121
	and	ecx, -1954691151
	and	edi, -1954691151
	and	eax, 4
	or	eax, edi
	xor	eax, ecx
	shr	edx, 16
	mov	ecx, edx
	xor	ecx, 65472
	and	ecx, edx
	mov	edx, ecx
	not	edx
	and	edx, -847133700
	mov	edi, ecx
	and	edi, 15363
	or	edi, edx
	xor	edi, -847133828
	and	ecx, 128
	or	ecx, edi
	movzx	ecx, byte ptr [rcx + _ZN5Botan12_GLOBAL__N_1L10SPBOX_CATSE]
	imul	ecx, ecx, 9441352
	and	ecx, 134349320
	or	ecx, eax
	mov	eax, ebx
	shr	eax, 16
	mov	edx, eax
	not	edx
	or	edx, -1505102720
	and	edx, -1505102687
	and	eax, 30
	or	eax, edx
	xor	eax, -1505102751
	movzx	eax, byte ptr [rax + _ZN5Botan12_GLOBAL__N_1L10SPBOX_CATSE]
	imul	eax, eax, -1912208863
	mov	edx, eax
	xor	edx, -8396930
	and	edx, eax
	mov	eax, ecx
	not	eax
	mov	edi, eax
	and	edi, 2067907154
	and	ecx, -2146302932
	or	ecx, edi
	mov	edi, edx
	not	edi
	or	eax, edi
	and	edi, 2067907154
	and	edx, -2067907155
	or	edx, edi
	xor	edx, ecx
	not	eax
	or	eax, edx
	shr	esi, 8
	mov	ecx, esi
	xor	ecx, 16777152
	and	ecx, esi
	mov	edx, ecx
	and	edx, 256
	xor	ecx, 256
	or	ecx, edx
	movzx	ecx, byte ptr [rcx + _ZN5Botan12_GLOBAL__N_1L10SPBOX_CATSE]
	imul	ecx, ecx, 9511232
	mov	esi, ecx
	xor	esi, -1107820864
	and	esi, ecx
	mov	ecx, eax
	and	ecx, esi
	xor	esi, eax
	or	esi, ecx
	mov	eax, ebx
	shr	eax, 8
	mov	ecx, eax
	not	ecx
	or	ecx, -2041290176
	and	ecx, -2041290152
	and	eax, 39
	or	eax, ecx
	xor	eax, -2041289960
	movzx	eax, byte ptr [rax + _ZN5Botan12_GLOBAL__N_1L10SPBOX_CATSE]
	imul	eax, eax, -2138828776
	mov	ecx, eax
	xor	ecx, -541081624
	and	ecx, eax
	mov	edx, esi
	not	edx
	mov	eax, ecx
	not	eax
	mov	edi, edx
	and	edi, -1297663596
	and	esi, 1297663595
	or	esi, edi
	or	edx, eax
	and	eax, -1297663596
	and	ecx, 1297663592
	or	ecx, eax
	xor	ecx, esi
	not	edx
	or	edx, ecx
	mov	eax, ebp
	and	eax, 384
	xor	ebp, 384
	or	ebp, eax
	movzx	eax, byte ptr [rbp + _ZN5Botan12_GLOBAL__N_1L10SPBOX_CATSE]
	imul	eax, eax, -535690750
	mov	ecx, eax
	xor	ecx, -69208068
	and	ecx, eax
	mov	eax, ebx
	not	eax
	or	eax, 1565620352
	and	eax, 1565620384
	and	ebx, 31
	or	ebx, eax
	xor	ebx, 1565620576
	movzx	eax, byte ptr [rbx + _ZN5Botan12_GLOBAL__N_1L10SPBOX_CATSE]
	imul	eax, eax, 2171456
	or	eax, 137609362
	mov	esi, dword ptr [rsp + 20]
	mov	edi, ecx
	not	edi
	and	edi, esi
	not	esi
	and	esi, ecx
	or	esi, edi
	mov	ecx, esi
	not	ecx
	and	ecx, 1651591625
	and	esi, -1651591626
	or	esi, ecx
	mov	ecx, edx
	not	ecx
	and	ecx, 1651591625
	and	edx, -1651591626
	or	edx, ecx
	xor	edx, esi
	mov	ecx, edx
	not	ecx
	and	ecx, 137609362
	and	edx, -137609363
	or	edx, ecx
	and	eax, 406311122
	xor	eax, edx
	mov	rcx, qword ptr [rsp + 40]
	movabs	rdx, 2154566128422780910
	lea	rcx, [rcx + rdx - 2]
	sub	rcx, rdx
.LBB8_108:                              




	mov	edx, 486280369
	jmp	.LBB8_109
.LBB8_112:                              
	mov	qword ptr [rsp + 40], rcx
	mov	dword ptr [rsp + 20], eax
	mov	dword ptr [rsp + 24], r12d
	cmp	qword ptr [rsp + 40], 0
	mov	edx, 1444008001
	mov	esi, 922526255
	cmove	edx, esi
	.p2align	4, 0x90
.LBB8_109:                              


	mov	esi, edx
	and	esi, 2147483647
	cmp	esi, 1444008001
	je	.LBB8_113

	cmp	esi, 922526255
	je	.LBB8_132

	cmp	esi, 486280369
	jne	.LBB8_109
	jmp	.LBB8_112
	.p2align	4, 0x90
.LBB8_113:                              
	mov	ebp, dword ptr [rsp + 20]
	mov	ecx, dword ptr [rip + x.111]
	mov	r9d, dword ptr [rip + y.112]
	mov	r14d, ecx
	neg	r14d
	not	r14d
	imul	r14d, ecx
	mov	ecx, r14d
	not	ecx
	or	ecx, -2
	and	r14d, 1
	mov	esi, ebp
	shr	esi, 4
	shl	ebp, 28
	mov	edi, esi
	not	edi
	mov	eax, ebp
	not	eax
	and	edi, 837940110
	and	esi, 235801713
	or	esi, edi
	and	eax, 837940110
	and	ebp, -1073741824
	or	ebp, eax
	xor	ebp, esi
	cmp	ecx, -1
	sete	al
	sete	byte ptr [rsp + 39]
	mov	r11d, 674206395
	mov	edx, 1702022579
	cmove	r11d, edx
	cmp	r9d, 10
	setl	cl
	setl	byte ptr [rsp + 15]
	mov	esi, 674206395
	cmovge	r11d, esi
	xor	cl, al
	cmovne	r11d, edx
	mov	ecx, -29994451
	jmp	.LBB8_114
.LBB8_117:                              
	movzx	ebx, byte ptr [rsp + 39]
	movzx	ecx, byte ptr [rsp + 15]
	mov	eax, ebx
	xor	al, cl
	test	cl, cl
	mov	ecx, 674206395
	mov	esi, -728779100
	cmovne	ecx, esi
	test	bl, bl
	mov	edx, 674206395
	cmove	ecx, edx
	test	al, al
	cmovne	ecx, esi
	.p2align	4, 0x90
.LBB8_114:                              


	cmp	ecx, 674206394
	jle	.LBB8_115

	cmp	ecx, 674206395
	je	.LBB8_126

	cmp	ecx, 1702022579
	jne	.LBB8_114
	jmp	.LBB8_120
	.p2align	4, 0x90
.LBB8_115:                              
	cmp	ecx, -728779100
	je	.LBB8_125

	cmp	ecx, -29994451
	jne	.LBB8_114
	jmp	.LBB8_117
.LBB8_126:                              
	mov	ecx, -728779100
	jmp	.LBB8_114
.LBB8_125:                              
	mov	dword ptr [rsp + 32], ebp
	mov	ecx, r11d
	jmp	.LBB8_114
	.p2align	4, 0x90
.LBB8_120:                              
	mov	edi, dword ptr [rsp + 32]
	mov	r10, qword ptr [rsp + 40]
	movabs	rax, 4379356050703951903
	mov	rcx, rax
	lea	rax, [rcx + 2*r10 - 2]
	sub	rax, rcx
	mov	eax, dword ptr [r8 + 4*rax]
	mov	ecx, eax
	not	ecx
	and	ecx, edi
	not	edi
	and	edi, eax
	or	edi, ecx
	movabs	rax, -6846905550163907602
	mov	rcx, rax
	lea	rax, [rcx + 2*r10 - 1]
	sub	rax, rcx
	mov	ebx, dword ptr [r8 + 4*rax]
	mov	eax, dword ptr [rsp + 20]
	mov	ecx, eax
	not	ecx
	and	ecx, ebx
	not	ebx
	and	ebx, eax
	or	ebx, ecx
	mov	eax, edi
	shr	eax, 24
	and	eax, 63
	movzx	eax, byte ptr [rax + _ZN5Botan12_GLOBAL__N_1L10SPBOX_CATSE]
	imul	eax, eax, 1879314694
	mov	r12d, ebx
	mov	ebp, ebx
	mov	esi, ebx
	xor	esi, -64
	and	esi, ebx
	shr	ebx, 24
	mov	edx, ebx
	xor	edx, 192
	and	edx, ebx
	mov	ebx, edx
	not	ebx
	and	ebx, 1889351857
	mov	ecx, edx
	and	ecx, 78
	or	ecx, ebx
	xor	ecx, 1889351921
	and	edx, 64
	or	edx, ecx
	movzx	ecx, byte ptr [rdx + _ZN5Botan12_GLOBAL__N_1L10SPBOX_CATSE]
	imul	ecx, ecx, 33628192
	mov	edx, ecx
	xor	edx, 2146402240
	and	edx, ecx
	mov	ecx, edx
	not	ecx
	mov	ebx, ecx
	and	ebx, -753363520
	and	edx, 753363488
	or	edx, ebx
	mov	ebx, eax
	not	ebx
	or	ebx, -16843781
	or	ecx, ebx
	and	ebx, -753363520
	and	eax, 65540
	or	eax, ebx
	xor	eax, edx
	not	ecx
	or	ecx, eax
	mov	eax, edi
	shr	eax, 16
	mov	edx, eax
	xor	edx, 65472
	and	edx, eax
	mov	eax, edx
	and	eax, 128
	xor	edx, 128
	or	edx, eax
	movzx	eax, byte ptr [rdx + _ZN5Botan12_GLOBAL__N_1L10SPBOX_CATSE]
	imul	eax, eax, 9441352
	mov	edx, ecx
	not	edx
	mov	ebx, edx
	and	ebx, 1637520725
	and	ecx, -1637520736
	or	ecx, ebx
	mov	ebx, eax
	not	ebx
	or	ebx, -134349321
	or	edx, ebx
	and	ebx, 1637520725
	and	eax, 134218248
	or	eax, ebx
	xor	eax, ecx
	not	edx
	or	edx, eax
	shr	r12d, 16
	mov	eax, r12d
	xor	eax, 65472
	and	eax, r12d
	mov	ecx, eax
	and	ecx, 192
	xor	eax, 192
	or	eax, ecx
	movzx	eax, byte ptr [rax + _ZN5Botan12_GLOBAL__N_1L10SPBOX_CATSE]
	imul	eax, eax, -1912208863
	mov	ecx, eax
	xor	ecx, -8396930
	and	ecx, eax
	mov	eax, edx
	and	eax, ecx
	xor	ecx, edx
	or	ecx, eax
	mov	eax, edi
	shr	eax, 8
	mov	edx, eax
	xor	edx, 16777152
	and	edx, eax
	mov	eax, edx
	not	eax
	and	eax, -351206289
	mov	ebx, edx
	and	ebx, 15661968
	or	ebx, eax
	xor	ebx, -351206033
	and	edx, 256
	or	edx, ebx
	movzx	eax, byte ptr [rdx + _ZN5Botan12_GLOBAL__N_1L10SPBOX_CATSE]
	imul	eax, eax, 9511232
	mov	edx, eax
	xor	edx, -1107820864
	and	edx, eax
	mov	ebx, ecx
	not	ebx
	mov	eax, ebx
	and	eax, 989629624
	and	ecx, -989629625
	or	ecx, eax
	mov	eax, edx
	not	eax
	or	ebx, eax
	and	eax, 989629624
	and	edx, -989629632
	or	edx, eax
	xor	edx, ecx
	not	ebx
	or	ebx, edx
	shr	ebp, 8
	mov	eax, ebp
	not	eax
	or	eax, 1400648576
	and	eax, 1400648588
	and	ebp, 51
	or	ebp, eax
	xor	ebp, 1400648396
	movzx	eax, byte ptr [rbp + _ZN5Botan12_GLOBAL__N_1L10SPBOX_CATSE]
	imul	eax, eax, -2138828776
	and	eax, 541081616
	mov	ecx, ebx
	and	ecx, eax
	xor	eax, ebx
	or	eax, ecx
	or	edi, 384
	and	edi, 447
	movzx	ecx, byte ptr [rdi + _ZN5Botan12_GLOBAL__N_1L10SPBOX_CATSE]
	imul	ecx, ecx, -535690750
	mov	edx, ecx
	xor	edx, -69208068
	and	edx, ecx
	mov	ecx, esi
	and	ecx, 448
	xor	esi, 448
	or	esi, ecx
	movzx	ecx, byte ptr [rsi + _ZN5Botan12_GLOBAL__N_1L10SPBOX_CATSE]
	imul	ecx, ecx, 2171456
	mov	r12d, ecx
	xor	r12d, 805040000
	and	r12d, ecx
	mov	ecx, dword ptr [rsp + 24]
	mov	esi, edx
	not	esi
	and	esi, 663384180
	and	edx, -663384182
	or	edx, esi
	mov	esi, ecx
	not	esi
	and	esi, 663384180
	and	ecx, -663384181
	or	ecx, esi
	xor	ecx, edx
	mov	edx, ecx
	not	edx
	and	edx, eax
	not	eax
	and	eax, ecx
	or	eax, edx
	mov	ecx, eax
	not	ecx
	and	ecx, 829134716
	mov	edx, eax
	and	edx, -829134717
	or	edx, ecx
	mov	ecx, r12d
	not	ecx
	and	ecx, 829134716
	and	r12d, 244607104
	or	r12d, ecx
	xor	r12d, edx
	test	r14d, r14d
	sete	byte ptr [rsp + 39]
	lea	rdi, [r10 + r10]
	cmp	r9d, 10
	setl	byte ptr [rsp + 15]
	mov	edx, r12d
	shr	edx, 4
	shl	eax, 28
	mov	esi, edx
	not	esi
	mov	ebp, eax
	not	ebp
	and	esi, -655344504
	and	edx, 118473591
	or	edx, esi
	and	ebp, -655344504
	and	eax, 536870912
	or	eax, ebp
	xor	eax, edx
	mov	edx, -29994451
	jmp	.LBB8_121
.LBB8_124:                              
	movzx	ecx, byte ptr [rsp + 39]
	movzx	edx, byte ptr [rsp + 15]
	mov	ebx, ecx
	xor	bl, dl
	mov	esi, 674206395
	mov	ebp, -728779100
	cmovne	esi, ebp
	test	dl, dl
	mov	edx, esi
	cmovne	edx, ebp
	test	cl, cl
	cmove	edx, esi
	.p2align	4, 0x90
.LBB8_121:                              


	cmp	edx, 674206394
	jle	.LBB8_122

	cmp	edx, 674206395
	je	.LBB8_131

	cmp	edx, 1702022579
	jne	.LBB8_121
	jmp	.LBB8_129
	.p2align	4, 0x90
.LBB8_122:                              
	cmp	edx, -728779100
	je	.LBB8_130

	cmp	edx, -29994451
	jne	.LBB8_121
	jmp	.LBB8_124
.LBB8_131:                              
	mov	edx, -728779100
	jmp	.LBB8_121
.LBB8_130:                              
	mov	dword ptr [rsp + 32], eax
	mov	edx, r11d
	jmp	.LBB8_121
.LBB8_172:                              
	movzx	ebx, byte ptr [rsp + 15]
	movzx	eax, byte ptr [rsp + 28]
	mov	ecx, ebx
	xor	cl, al
	mov	ecx, -1106862460
	cmovne	ecx, r15d
	test	al, al
	mov	eax, ecx
	cmovne	eax, r15d
	test	bl, bl
	cmove	eax, ecx
	.p2align	4, 0x90
.LBB8_159:                              

	cmp	eax, -1106862461
	jle	.LBB8_160

	cmp	eax, -1106862460
	je	.LBB8_173

	cmp	eax, 1168054530
	jne	.LBB8_159
	jmp	.LBB8_167
	.p2align	4, 0x90
.LBB8_160:                              
	cmp	eax, -1924553818
	je	.LBB8_172

	cmp	eax, -1169115405
	jne	.LBB8_159

	mov	eax, dword ptr [rdx + 12]
	bswap	eax
	mov	dword ptr [rsp + 40], eax
	mov	eax, ebp
	jmp	.LBB8_159
.LBB8_173:                              
	mov	eax, -1169115405
	jmp	.LBB8_159
.LBB8_64:                               
	mov	eax, dword ptr [rsp + 40]
	mov	dword ptr [rsp + 16], eax
	lea	rdi, [rsp + 32]
	lea	rsi, [rsp + 24]
	call	_ZN5Botan12_GLOBAL__N_16des_IPERjS1_
	lea	rdi, [rsp + 20]
	lea	rsi, [rsp + 16]
	call	_ZN5Botan12_GLOBAL__N_16des_IPERjS1_
	mov	rax, qword ptr [rsp + 64]
	mov	r8, qword ptr [rax]
	mov	eax, dword ptr [rip + x.421]
	mov	ecx, dword ptr [rip + y.422]
	lea	edx, [rax - 1]
	imul	edx, eax
	mov	eax, edx
	xor	eax, -2
	and	eax, edx
	sete	dl
	sete	byte ptr [rsp + 28]
	cmp	ecx, 10
	setl	bl
	xor	bl, dl
	mov	edx, 710475645
	mov	esi, -1962322502
	cmovne	edx, esi
	test	eax, eax
	mov	eax, edx
	cmove	eax, esi
	cmp	ecx, 10
	setl	byte ptr [rsp + 40]
	cmovge	eax, edx
	mov	ecx, 1018270514
	jmp	.LBB8_65
.LBB8_132:                              
	mov	eax, dword ptr [rsp + 24]
	mov	dword ptr [rsp + 16], eax
	mov	eax, dword ptr [rsp + 20]
	mov	dword ptr [rsp + 28], eax
	lea	rdi, [rsp + 16]
	lea	rsi, [rsp + 28]
	call	_ZN5Botan12_GLOBAL__N_16des_FPERjS1_
	mov	esi, dword ptr [rsp + 28]
	mov	edx, dword ptr [rsp + 16]
	mov	rdi, qword ptr [rsp + 136]
	call	_ZN5Botan8store_beIjEEvPhT_S2_
	mov	rax, qword ptr [rsp + 80]
	add	rax, 8
	mov	qword ptr [rsp + 120], rax 
	mov	rax, qword ptr [rsp + 136]
	add	rax, 8
	mov	qword ptr [rsp + 112], rax 
	mov	r14, qword ptr [rsp + 128]
	dec	r14
	mov	eax, 1323475440
	mov	r9d, -1106862460
	jmp	.LBB8_1
.LBB8_167:                              
	mov	eax, dword ptr [rsp + 40]
	mov	dword ptr [rsp + 16], eax
	lea	rdi, [rsp + 32]
	lea	rsi, [rsp + 24]
	call	_ZN5Botan12_GLOBAL__N_16des_IPERjS1_
	lea	rdi, [rsp + 20]
	lea	rsi, [rsp + 16]
	call	_ZN5Botan12_GLOBAL__N_16des_IPERjS1_
	mov	rax, qword ptr [rsp + 64]
	mov	r8, qword ptr [rax]
	mov	eax, dword ptr [rip + x.421]
	mov	ecx, dword ptr [rip + y.422]
	lea	edx, [rax - 1]
	imul	edx, eax
	not	edx
	or	edx, -2
	cmp	edx, -1
	sete	al
	cmp	ecx, 10
	setl	bl
	xor	bl, al
	mov	esi, 710475645
	mov	edi, -1962322502
	cmovne	esi, edi
	cmp	edx, -1
	sete	byte ptr [rsp + 28]
	mov	eax, esi
	cmove	eax, edi
	cmp	ecx, 10
	setl	byte ptr [rsp + 40]
	cmovge	eax, esi
	mov	ecx, 1018270514
	jmp	.LBB8_168
.LBB8_72:                               
	mov	ecx, eax
	.p2align	4, 0x90
.LBB8_65:                               

	cmp	ecx, 1018270513
	jg	.LBB8_71

	cmp	ecx, -1962322502
	je	.LBB8_75

	cmp	ecx, 710475645
	jne	.LBB8_65

	mov	ecx, 1924581560
	jmp	.LBB8_65
	.p2align	4, 0x90
.LBB8_71:                               
	cmp	ecx, 1924581560
	je	.LBB8_72

	cmp	ecx, 1018270514
	jne	.LBB8_65

	movzx	ebx, byte ptr [rsp + 28]
	movzx	ecx, byte ptr [rsp + 40]
	mov	edx, ebx
	xor	dl, cl
	mov	edx, 710475645
	mov	esi, 1924581560
	cmovne	edx, esi
	test	cl, cl
	mov	ecx, edx
	cmovne	ecx, esi
	test	bl, bl
	cmove	ecx, edx
	jmp	.LBB8_65
.LBB8_175:                              
	mov	ecx, eax
	.p2align	4, 0x90
.LBB8_168:                              

	cmp	ecx, 1018270513
	jg	.LBB8_174

	cmp	ecx, -1962322502
	je	.LBB8_178

	cmp	ecx, 710475645
	jne	.LBB8_168

	mov	ecx, 1924581560
	jmp	.LBB8_168
	.p2align	4, 0x90
.LBB8_174:                              
	cmp	ecx, 1924581560
	je	.LBB8_175

	cmp	ecx, 1018270514
	jne	.LBB8_168

	movzx	ebx, byte ptr [rsp + 28]
	movzx	ecx, byte ptr [rsp + 40]
	mov	edx, ebx
	xor	dl, cl
	mov	edx, 710475645
	mov	esi, 1924581560
	cmovne	edx, esi
	test	cl, cl
	mov	ecx, edx
	cmovne	ecx, esi
	test	bl, bl
	cmove	ecx, edx
	jmp	.LBB8_168
.LBB8_75:                               
	lea	rbp, [rsp + 32]
	mov	rdi, rbp
	lea	r12, [rsp + 24]
	mov	rsi, r12
	lea	r13, [rsp + 20]
	mov	rdx, r13
	lea	rbx, [rsp + 16]
	mov	rcx, rbx
	call	_ZN5Botan12_GLOBAL__N_114des_decrypt_x2ERjS1_S1_S1_PKj
	mov	rdi, rbp
	mov	rsi, r12
	call	_ZN5Botan12_GLOBAL__N_16des_FPERjS1_
	mov	rdi, r13
	mov	rsi, rbx
	call	_ZN5Botan12_GLOBAL__N_16des_FPERjS1_
	mov	esi, dword ptr [rsp + 24]
	mov	edx, dword ptr [rsp + 32]
	mov	ecx, dword ptr [rsp + 16]
	mov	r8d, dword ptr [rsp + 20]
	mov	rdi, qword ptr [rsp + 56]
	call	_ZN5Botan8store_beIjEEvPhT_S2_S2_S2_
	mov	rax, qword ptr [rsp + 48]
	add	rax, 16
	mov	qword ptr [rsp + 144], rax
	mov	rax, qword ptr [rsp + 56]
	add	rax, 16
	mov	qword ptr [rsp + 152], rax
	mov	rax, qword ptr [rsp + 72]
	add	rax, -2
	mov	qword ptr [rsp + 160], rax
	mov	eax, dword ptr [rip + x.29]
	lea	ecx, [rax - 1]
	imul	ecx, eax
	mov	eax, ecx
	xor	eax, -2
	and	eax, ecx
	sete	cl
	test	eax, eax
	mov	eax, 1151112714
	mov	esi, 420523194
	cmove	eax, esi
	cmp	dword ptr [rip + y.30], 10
	setl	dl
	mov	edi, 1151112714
	cmovge	eax, edi
	xor	dl, cl
	cmovne	eax, esi
	mov	r9d, -1106862460
	jmp	.LBB8_1
.LBB8_178:                              
	lea	rbp, [rsp + 32]
	mov	rdi, rbp
	lea	r12, [rsp + 24]
	mov	rsi, r12
	lea	r13, [rsp + 20]
	mov	rdx, r13
	lea	rbx, [rsp + 16]
	mov	rcx, rbx
	call	_ZN5Botan12_GLOBAL__N_114des_decrypt_x2ERjS1_S1_S1_PKj
	mov	rdi, rbp
	mov	rsi, r12
	call	_ZN5Botan12_GLOBAL__N_16des_FPERjS1_
	mov	rdi, r13
	mov	rsi, rbx
	call	_ZN5Botan12_GLOBAL__N_16des_FPERjS1_
	mov	esi, dword ptr [rsp + 24]
	mov	edx, dword ptr [rsp + 32]
	mov	ecx, dword ptr [rsp + 16]
	mov	r8d, dword ptr [rsp + 20]
	mov	rdi, qword ptr [rsp + 56]
	call	_ZN5Botan8store_beIjEEvPhT_S2_S2_S2_
	mov	rax, qword ptr [rsp + 48]
	mov	rax, qword ptr [rsp + 56]
	mov	rax, qword ptr [rsp + 72]
	mov	eax, -1598644284
	mov	r9d, -1106862460
	jmp	.LBB8_1
.LBB8_26:
	add	rsp, 168
	pop	rbx
	pop	r12
	pop	r13
	pop	r14
	pop	r15
	pop	rbp
	ret
.Lfunc_end8:
	.size	_ZNK5Botan3DES9decrypt_nEPKhPhm, .Lfunc_end8-_ZNK5Botan3DES9decrypt_nEPKhPhm
	.cfi_endproc

	.p2align	4, 0x90         
	.type	_ZN5Botan12_GLOBAL__N_114des_decrypt_x2ERjS1_S1_S1_PKj,@function
_ZN5Botan12_GLOBAL__N_114des_decrypt_x2ERjS1_S1_S1_PKj: 

	push	rbp
	push	r15
	push	r14
	push	r13
	push	r12
	push	rbx
	sub	rsp, 16
	mov	eax, dword ptr [rip + x.111]
	mov	r10d, dword ptr [rip + y.112]
	mov	r12d, eax
	neg	r12d
	not	r12d
	imul	r12d, eax
	mov	eax, r12d
	not	eax
	or	eax, -2
	cmp	eax, -1
	sete	r9b
	cmp	r10d, 10
	setl	bl
	xor	bl, r9b
	mov	r13d, 1702022579
	mov	ebp, 674206395
	cmovne	ebp, r13d
	cmp	eax, -1
	cmovne	r13d, ebp
	mov	dword ptr [rsp - 112], r10d 
	cmp	r10d, 10
	mov	eax, dword ptr [rip + x.31]
	mov	ebx, dword ptr [rip + y.32]
	cmovge	r13d, ebp
	lea	ebp, [rax - 1]
	imul	ebp, eax
	mov	eax, ebp
	xor	eax, -2
	test	eax, ebp
	sete	r9b
	sete	byte ptr [rsp - 115]
	cmp	ebx, 10
	setl	bl
	setl	byte ptr [rsp - 114]
	mov	eax, ebx
	and	al, r9b
	xor	bl, r9b
	or	bl, al
	mov	ebp, 1693618463
	mov	eax, 1762900725
	cmove	ebp, eax
	mov	dword ptr [rsp - 48], ebp 
	mov	ebp, -1780857269
	mov	eax, -312043222
	cmove	ebp, eax
	mov	dword ptr [rsp - 52], ebp 
	mov	ebp, -1016245761
	cmove	ebp, eax
	mov	dword ptr [rsp - 56], ebp 
	and	r12d, 1
	mov	qword ptr [rsp - 24], rdi 
	mov	eax, dword ptr [rdi]
	mov	dword ptr [rsp - 60], eax 
	mov	qword ptr [rsp - 16], rsi 
	mov	eax, dword ptr [rsi]
	mov	dword ptr [rsp - 64], eax 
	mov	qword ptr [rsp - 8], rdx 
	mov	eax, dword ptr [rdx]
	mov	dword ptr [rsp - 68], eax 
	mov	qword ptr [rsp], rcx    
	mov	eax, dword ptr [rcx]
	mov	dword ptr [rsp - 72], eax 
	mov	edx, 861570466





	mov	qword ptr [rsp + 8], r8 
	mov	dword ptr [rsp - 100], r13d 
	mov	dword ptr [rsp - 76], r12d 
	jmp	.LBB9_1
.LBB9_59:                               
	mov	rax, qword ptr [rsp - 88]
	mov	edx, -1780857269
	.p2align	4, 0x90
.LBB9_1:                                




	cmp	edx, -300275044
	jle	.LBB9_2

	cmp	edx, 1693618462
	jle	.LBB9_11

	cmp	edx, 1693618463
	je	.LBB9_18

	cmp	edx, 1762900725
	je	.LBB9_58

	cmp	edx, 1833793198
	jne	.LBB9_1

	mov	eax, dword ptr [rsp - 60] 
	mov	dword ptr [rsp - 40], eax
	mov	eax, dword ptr [rsp - 64] 
	mov	dword ptr [rsp - 36], eax
	mov	eax, dword ptr [rsp - 68] 
	mov	dword ptr [rsp - 32], eax
	mov	eax, dword ptr [rsp - 72] 
	mov	dword ptr [rsp - 28], eax
	mov	edx, dword ptr [rsp - 48] 
	jmp	.LBB9_1
	.p2align	4, 0x90
.LBB9_2:                                
	cmp	edx, -1016245762
	jle	.LBB9_3

	cmp	edx, -1016245761
	je	.LBB9_20

	cmp	edx, -312043222
	je	.LBB9_59

	cmp	edx, -619535734
	jne	.LBB9_1
	jmp	.LBB9_9
	.p2align	4, 0x90
.LBB9_11:                               
	cmp	edx, -300275043
	je	.LBB9_21

	cmp	edx, 861570466
	jne	.LBB9_1

	mov	cl, byte ptr [rsp - 115]
	mov	dl, byte ptr [rsp - 114]
	mov	ebx, ecx
	xor	bl, dl
	mov	ebx, 1762900725
	mov	eax, 1833793198
	cmovne	ebx, eax
	test	dl, dl
	mov	edx, ebx
	cmovne	edx, eax
	test	cl, cl
	cmove	edx, ebx
	jmp	.LBB9_1
	.p2align	4, 0x90
.LBB9_3:                                
	cmp	edx, -1780857269
	je	.LBB9_19

	cmp	edx, -1164516482
	jne	.LBB9_1

	mov	qword ptr [rsp - 88], rbp
	mov	dword ptr [rsp - 108], esi
	mov	dword ptr [rsp - 96], r15d
	mov	dword ptr [rsp - 104], r9d
	mov	dword ptr [rsp - 92], edi
	mov	edx, dword ptr [rsp - 52] 
	jmp	.LBB9_1
.LBB9_18:                               
	mov	edi, dword ptr [rsp - 40]
	mov	r9d, dword ptr [rsp - 36]
	mov	r15d, dword ptr [rsp - 32]
	mov	edx, -1164516482
	mov	esi, dword ptr [rsp - 28]
	mov	ebp, 16
	jmp	.LBB9_1
.LBB9_58:                               
	mov	edx, 1833793198
	jmp	.LBB9_1
.LBB9_20:                               
	mov	cl, byte ptr [rsp - 113]
	test	cl, cl
	mov	edx, -619535734
	mov	eax, -300275043
	cmovne	edx, eax
	jmp	.LBB9_1
.LBB9_21:                               
	test	r12d, r12d
	mov	eax, dword ptr [rsp - 104]
	sete	byte ptr [rsp - 122]
	cmp	dword ptr [rsp - 112], 10 
	setl	byte ptr [rsp - 121]
	mov	ecx, eax
	shr	ecx, 4
	shl	eax, 28
	mov	edx, ecx
	not	edx
	mov	esi, eax
	not	esi
	and	edx, 1818201265
	and	ecx, 60846926
	or	ecx, edx
	and	esi, 1818201265
	and	eax, -1879048192
	or	eax, esi
	xor	eax, ecx
	mov	ecx, -29994451
	jmp	.LBB9_22
.LBB9_19:                               
	cmp	qword ptr [rsp - 88], 0
	setne	byte ptr [rsp - 113]
	mov	edx, dword ptr [rsp - 56] 
	jmp	.LBB9_1
.LBB9_25:                               
	movzx	ebx, byte ptr [rsp - 122]
	movzx	ecx, byte ptr [rsp - 121]
	mov	edx, ebx
	xor	dl, cl
	mov	edx, 674206395
	mov	esi, -728779100
	cmovne	edx, esi
	test	cl, cl
	mov	ecx, edx
	cmovne	ecx, esi
	test	bl, bl
	cmove	ecx, edx
	.p2align	4, 0x90
.LBB9_22:                               

	cmp	ecx, 674206394
	jle	.LBB9_23

	cmp	ecx, 674206395
	je	.LBB9_34

	cmp	ecx, 1702022579
	jne	.LBB9_22
	jmp	.LBB9_28
	.p2align	4, 0x90
.LBB9_23:                               
	cmp	ecx, -728779100
	je	.LBB9_33

	cmp	ecx, -29994451
	jne	.LBB9_22
	jmp	.LBB9_25
.LBB9_34:                               
	mov	ecx, -728779100
	jmp	.LBB9_22
.LBB9_33:                               
	mov	dword ptr [rsp - 120], eax
	mov	ecx, r13d
	jmp	.LBB9_22
.LBB9_28:                               
	mov	ebx, dword ptr [rsp - 120]
	mov	r14, qword ptr [rsp - 88]
	mov	r15d, dword ptr [r8 + 8*r14 - 8]
	add	r14, r14
	mov	r10d, r15d
	not	r10d
	mov	eax, ebx
	and	eax, r10d
	not	ebx
	and	ebx, r15d
	or	ebx, eax
	mov	rax, r14
	neg	rax
	lea	rax, [4*rax + 4]
	neg	rax
	mov	r9d, dword ptr [r8 + rax]
	mov	eax, dword ptr [rsp - 104]
	mov	edx, eax
	not	edx
	and	edx, 1530562618
	and	eax, -1530562619
	or	eax, edx
	mov	r11d, r9d
	not	r11d
	mov	edx, r11d
	and	edx, 1530562618
	mov	edi, r9d
	and	edi, -1530562619
	or	edi, edx
	xor	edi, eax
	mov	eax, ebx
	mov	edx, ebx
	shr	edx, 24
	and	edx, 63
	movzx	edx, byte ptr [rdx + _ZN5Botan12_GLOBAL__N_1L10SPBOX_CATSE]
	imul	edx, edx, 1879314694
	and	edx, 16843780
	mov	esi, edi
	shr	esi, 24
	mov	ebp, esi
	xor	ebp, 192
	and	ebp, esi
	mov	esi, ebp
	and	esi, 64
	xor	ebp, 64
	or	ebp, esi
	movzx	esi, byte ptr [rbp + _ZN5Botan12_GLOBAL__N_1L10SPBOX_CATSE]
	imul	esi, esi, 33628192
	mov	ebp, esi
	xor	ebp, 2146402240
	and	ebp, esi
	mov	esi, ebp
	and	esi, edx
	xor	ebp, edx
	or	ebp, esi
	shr	eax, 16
	mov	edx, eax
	not	edx
	or	edx, 640174592
	and	edx, 640174643
	and	eax, 12
	or	eax, edx
	xor	eax, 640174771
	movzx	eax, byte ptr [rax + _ZN5Botan12_GLOBAL__N_1L10SPBOX_CATSE]
	imul	eax, eax, 9441352
	mov	edx, eax
	xor	edx, -134349328
	and	edx, eax
	mov	esi, ebp
	not	esi
	mov	eax, esi
	and	eax, 1513442242
	and	ebp, -1513442268
	or	ebp, eax
	mov	eax, edx
	not	eax
	or	esi, eax
	and	eax, 1513442242
	and	edx, -1513442248
	or	edx, eax
	xor	edx, ebp
	not	esi
	or	esi, edx
	mov	eax, edi
	shr	eax, 16
	mov	edx, eax
	xor	edx, 65472
	and	edx, eax
	mov	ebp, edx
	not	ebp
	and	ebp, -394607381
	mov	eax, edx
	and	eax, 15124
	or	eax, ebp
	mov	ebp, ebx
	xor	ebp, -64
	and	ebp, ebx

	xor	eax, -394607573
	and	edx, 192
	or	edx, eax
	movzx	eax, byte ptr [rdx + _ZN5Botan12_GLOBAL__N_1L10SPBOX_CATSE]
	imul	eax, eax, -1912208863
	and	eax, 8396929
	mov	edx, esi
	and	edx, eax
	xor	eax, esi
	or	eax, edx
	shr	ebx, 8
	or	ebx, 256
	and	ebx, 319
	movzx	edx, byte ptr [rbx + _ZN5Botan12_GLOBAL__N_1L10SPBOX_CATSE]
	imul	edx, edx, 9511232
	mov	esi, edx
	xor	esi, -1107820864
	and	esi, edx
	mov	edx, eax
	and	edx, esi
	xor	esi, eax
	or	esi, edx
	mov	eax, edi
	shr	eax, 8
	or	eax, 320
	and	eax, 383
	movzx	eax, byte ptr [rax + _ZN5Botan12_GLOBAL__N_1L10SPBOX_CATSE]
	imul	eax, eax, -2138828776
	mov	edx, eax
	xor	edx, -541081624
	and	edx, eax
	mov	ebx, esi
	not	ebx
	mov	eax, ebx
	and	eax, 1495200997
	and	esi, -1495200998
	or	esi, eax
	mov	eax, edx
	not	eax
	or	ebx, eax
	and	eax, 1495200997
	and	edx, -1495201000
	or	edx, eax
	xor	edx, esi
	not	ebx
	or	ebx, edx
	mov	eax, ebp
	and	eax, 384
	xor	ebp, 384
	or	ebp, eax
	movzx	eax, byte ptr [rbp + _ZN5Botan12_GLOBAL__N_1L10SPBOX_CATSE]
	imul	eax, eax, -535690750
	mov	edx, eax
	xor	edx, -69208068
	and	edx, eax
	mov	eax, edi
	not	eax
	or	eax, -710460928
	and	eax, -710460889
	and	edi, 24
	or	edi, eax
	mov	eax, dword ptr [rsp - 92]
	mov	esi, edx
	not	esi
	and	esi, eax
	not	eax
	and	eax, edx
	xor	edi, -710460441
	movzx	edx, byte ptr [rdi + _ZN5Botan12_GLOBAL__N_1L10SPBOX_CATSE]
	imul	edi, edx, 2171456
	or	eax, esi
	mov	edx, eax
	not	edx
	and	edx, 250079218
	and	eax, -250079219
	or	eax, edx
	mov	edx, ebx
	not	edx
	and	edx, 250079218
	and	ebx, -250079219
	or	ebx, edx
	xor	ebx, eax
	test	r12d, r12d
	mov	esi, dword ptr [rsp - 108]
	sete	byte ptr [rsp - 122]
	cmp	dword ptr [rsp - 112], 10 
	setl	byte ptr [rsp - 121]
	rol	esi, 28
	mov	edx, -29994451
	jmp	.LBB9_29
.LBB9_32:                               
	movzx	eax, byte ptr [rsp - 122]
	movzx	edx, byte ptr [rsp - 121]
	mov	ecx, eax
	xor	cl, dl
	mov	ecx, 674206395
	mov	ebp, edi
	mov	edi, -728779100
	cmovne	ecx, edi
	test	dl, dl
	mov	edx, ecx
	cmovne	edx, edi
	mov	edi, ebp
	test	al, al
	cmove	edx, ecx
	.p2align	4, 0x90
.LBB9_29:                               

	cmp	edx, 674206394
	jle	.LBB9_30

	cmp	edx, 674206395
	je	.LBB9_43

	cmp	edx, 1702022579
	jne	.LBB9_29
	jmp	.LBB9_37
	.p2align	4, 0x90
.LBB9_30:                               
	cmp	edx, -728779100
	je	.LBB9_42

	cmp	edx, -29994451
	jne	.LBB9_29
	jmp	.LBB9_32
.LBB9_43:                               
	mov	edx, -728779100
	jmp	.LBB9_29
.LBB9_42:                               
	mov	dword ptr [rsp - 120], esi
	mov	edx, r13d
	jmp	.LBB9_29
.LBB9_37:                               
	mov	eax, edi
	not	eax
	or	eax, 1677217198
	mov	ecx, ebx
	not	ecx
	and	ecx, 1677221358
	mov	edx, ebx
	and	edx, -1677221359
	or	edx, ecx
	and	eax, 1677221358
	and	edi, 268697600
	or	edi, eax
	xor	edi, edx
	mov	eax, dword ptr [rsp - 120]
	mov	ecx, eax
	not	ecx
	and	ecx, -1655984155
	and	eax, 1655984154
	or	eax, ecx
	and	r10d, -1655984155
	and	r15d, 1655984154
	or	r15d, r10d
	xor	r15d, eax
	mov	eax, dword ptr [rsp - 108]
	mov	ecx, eax
	not	ecx
	and	ecx, 932778094
	and	eax, -932778095
	or	eax, ecx
	and	r11d, 932778094
	and	r9d, -932778095
	or	r9d, r11d
	xor	r9d, eax
	mov	eax, r15d
	shr	eax, 24
	mov	ecx, eax
	xor	ecx, 192
	and	ecx, eax
	movzx	eax, byte ptr [rcx + _ZN5Botan12_GLOBAL__N_1L10SPBOX_CATSE]
	imul	eax, eax, 1879314694
	mov	edx, eax
	xor	edx, -16843782
	and	edx, eax
	mov	eax, r9d
	shr	eax, 24
	mov	ecx, eax
	not	ecx
	or	ecx, -1113342848
	and	ecx, -1113342817
	and	eax, 32
	or	eax, ecx
	xor	eax, -1113342753
	movzx	eax, byte ptr [rax + _ZN5Botan12_GLOBAL__N_1L10SPBOX_CATSE]
	imul	ecx, eax, 33628192
	mov	eax, ecx
	not	eax
	or	eax, 2146402271
	mov	esi, edx
	not	esi
	mov	ebp, eax
	and	ebp, -1848945728
	and	ecx, 1081376
	or	ecx, ebp
	or	eax, esi
	and	esi, -1848945728
	and	edx, 1848945726
	or	edx, esi
	xor	edx, ecx
	not	eax
	or	eax, edx
	mov	ecx, r15d
	shr	ecx, 16
	mov	edx, ecx
	not	edx
	or	edx, -166384704
	and	edx, -166384649
	and	ecx, 8
	or	ecx, edx
	xor	ecx, -166384777
	movzx	ecx, byte ptr [rcx + _ZN5Botan12_GLOBAL__N_1L10SPBOX_CATSE]
	imul	ecx, ecx, 9441352
	mov	edx, ecx
	xor	edx, -134349328
	and	edx, ecx
	mov	ecx, eax
	and	ecx, edx
	xor	edx, eax
	or	edx, ecx
	mov	eax, r9d
	shr	eax, 16
	or	eax, 192
	movzx	eax, al
	movzx	eax, byte ptr [rax + _ZN5Botan12_GLOBAL__N_1L10SPBOX_CATSE]
	imul	ecx, eax, -1912208863
	not	ecx
	or	ecx, -8396930
	mov	eax, edx
	not	eax
	mov	esi, eax
	and	esi, -511541789
	and	edx, 511541788
	or	edx, esi
	or	eax, ecx
	and	ecx, -511541789
	xor	ecx, edx
	not	eax
	or	eax, ecx
	mov	ecx, r15d
	shr	ecx, 8
	mov	edx, ecx
	not	edx
	or	edx, 1804732608
	and	edx, 1804732653
	and	ecx, 18
	or	ecx, edx
	xor	ecx, 1804732909
	movzx	ecx, byte ptr [rcx + _ZN5Botan12_GLOBAL__N_1L10SPBOX_CATSE]
	imul	ecx, ecx, 9511232
	mov	esi, ecx
	xor	esi, -1107820864
	and	esi, ecx
	mov	edx, eax
	not	edx
	mov	ecx, esi
	not	ecx
	mov	ebp, edx
	and	ebp, 1017451086
	and	eax, -1017451087
	or	eax, ebp
	or	edx, ecx
	and	ecx, 1017451086
	and	esi, -1017451136
	or	esi, ecx
	xor	esi, eax
	not	edx
	or	edx, esi
	mov	eax, r9d
	shr	eax, 8
	mov	ecx, eax
	xor	ecx, 16777152
	and	ecx, eax
	mov	eax, ecx
	not	eax
	and	eax, 686161845
	mov	esi, ecx
	and	esi, 1704010
	or	esi, eax
	xor	esi, 686161653
	and	ecx, 320
	or	ecx, esi
	movzx	eax, byte ptr [rcx + _ZN5Botan12_GLOBAL__N_1L10SPBOX_CATSE]
	imul	eax, eax, -2138828776
	mov	r11d, eax
	xor	r11d, -541081624
	and	r11d, eax
	mov	eax, edx
	and	eax, r11d
	xor	r11d, edx
	or	r11d, eax
	mov	eax, r15d
	not	eax
	or	eax, 316762752
	and	eax, 316762761
	and	r15d, 54
	or	r15d, eax
	xor	r15d, 316762889
	movzx	eax, byte ptr [r15 + _ZN5Botan12_GLOBAL__N_1L10SPBOX_CATSE]
	imul	eax, eax, -535690750
	mov	edx, dword ptr [rsp - 96]
	mov	ecx, edx
	not	ecx
	and	ecx, eax
	mov	esi, eax
	not	esi
	or	esi, -69208067
	or	r9d, 448
	and	r9d, 511
	movzx	eax, byte ptr [r9 + _ZN5Botan12_GLOBAL__N_1L10SPBOX_CATSE]
	imul	ebp, eax, 2171456
	and	esi, edx
	and	ecx, 69208066
	or	ecx, esi
	mov	edx, ecx
	not	edx
	and	edx, 1721333312
	and	ecx, -1721333313
	or	ecx, edx
	mov	edx, r11d
	not	edx
	and	edx, 1721333312
	and	r11d, -1721333313
	or	r11d, edx
	xor	r11d, ecx
	test	r12d, r12d
	sete	byte ptr [rsp - 122]
	cmp	dword ptr [rsp - 112], 10 
	setl	byte ptr [rsp - 121]
	mov	ecx, edi
	shr	ecx, 4
	shl	ebx, 28
	mov	edx, ecx
	not	edx
	mov	esi, ebx
	not	esi
	and	edx, 1033002365
	and	ecx, 40739458
	or	ecx, edx
	and	esi, 1033002365
	and	ebx, -1073741824
	or	ebx, esi
	xor	ebx, ecx
	mov	ecx, -29994451
	jmp	.LBB9_38
.LBB9_41:                               
	movzx	eax, byte ptr [rsp - 122]
	movzx	ecx, byte ptr [rsp - 121]
	mov	edx, eax
	xor	dl, cl
	test	cl, cl
	mov	ecx, 674206395
	mov	esi, -728779100
	cmovne	ecx, esi
	test	al, al
	mov	eax, 674206395
	cmove	ecx, eax
	test	dl, dl
	cmovne	ecx, esi
	.p2align	4, 0x90
.LBB9_38:                               

	cmp	ecx, 674206394
	jle	.LBB9_39

	cmp	ecx, 674206395
	je	.LBB9_52

	cmp	ecx, 1702022579
	jne	.LBB9_38
	jmp	.LBB9_46
	.p2align	4, 0x90
.LBB9_39:                               
	cmp	ecx, -728779100
	je	.LBB9_51

	cmp	ecx, -29994451
	jne	.LBB9_38
	jmp	.LBB9_41
.LBB9_52:                               
	mov	ecx, -728779100
	jmp	.LBB9_38
.LBB9_51:                               
	mov	dword ptr [rsp - 120], ebx
	mov	ecx, r13d
	jmp	.LBB9_38
.LBB9_46:                               
	mov	r15d, ebp
	not	r15d
	or	r15d, -268701761
	mov	eax, r11d
	not	eax
	and	eax, ebp
	and	eax, 268701760
	and	r15d, r11d
	or	r15d, eax
	mov	eax, dword ptr [rsp - 120]
	mov	r12d, dword ptr [r8 + 4*r14 - 16]
	mov	ebp, r12d
	not	ebp
	mov	ecx, eax
	and	ecx, ebp
	not	eax
	and	eax, r12d
	or	eax, ecx
	movabs	rcx, -3934632477594788574
	mov	rdx, rcx
	lea	rcx, [r14 + rdx - 3]
	sub	rcx, rdx
	mov	r10d, dword ptr [r8 + 4*rcx]
	mov	r14d, r10d
	not	r14d
	mov	edx, r14d
	and	edx, 1097349815
	mov	esi, r10d
	and	esi, -1097349816
	or	esi, edx
	mov	ecx, edi
	not	edi
	and	edi, 1097349815
	mov	dword ptr [rsp - 44], ecx 
	mov	edx, ecx
	and	edx, -1097349816
	or	edx, edi
	xor	edx, esi
	mov	esi, eax
	shr	esi, 24
	and	esi, 63
	movzx	esi, byte ptr [rsi + _ZN5Botan12_GLOBAL__N_1L10SPBOX_CATSE]
	imul	edi, esi, 1879314694
	mov	esi, edi
	xor	esi, -16843782
	and	esi, edi
	mov	edi, edx
	mov	ebx, edx
	shr	ebx, 24
	mov	ecx, ebx
	xor	ecx, 192
	and	ecx, ebx
	mov	ebx, ecx
	and	ebx, 64
	xor	ecx, 64
	or	ecx, ebx
	movzx	ecx, byte ptr [rcx + _ZN5Botan12_GLOBAL__N_1L10SPBOX_CATSE]
	imul	ebx, ecx, 33628192
	mov	ecx, ebx
	xor	ecx, 2146402240
	and	ecx, ebx
	mov	ebx, ecx
	and	ebx, esi
	xor	ecx, esi
	or	ecx, ebx
	mov	esi, eax
	shr	esi, 16
	or	esi, 128
	and	esi, 191
	movzx	esi, byte ptr [rsi + _ZN5Botan12_GLOBAL__N_1L10SPBOX_CATSE]
	imul	esi, esi, 9441352
	and	esi, 134349320
	mov	ebx, ecx
	and	ebx, esi
	xor	esi, ecx
	or	esi, ebx
	shr	edi, 16
	mov	ecx, edi
	xor	ecx, 65472
	and	ecx, edi
	mov	edi, ecx
	and	edi, 192
	xor	ecx, 192
	or	ecx, edi
	movzx	ecx, byte ptr [rcx + _ZN5Botan12_GLOBAL__N_1L10SPBOX_CATSE]
	imul	ecx, ecx, -1912208863
	mov	edi, ecx
	xor	edi, -8396930
	and	edi, ecx
	mov	r13d, esi
	not	r13d
	mov	ecx, r13d
	and	ecx, 479146761
	and	esi, -479146762
	or	esi, ecx
	mov	ecx, edi
	not	ecx
	or	r13d, ecx
	and	ecx, 479146761
	and	edi, -479146762
	or	edi, ecx
	xor	edi, esi
	not	r13d
	or	r13d, edi
	mov	ecx, eax
	shr	ecx, 8
	or	ecx, 256
	and	ecx, 319
	movzx	ecx, byte ptr [rcx + _ZN5Botan12_GLOBAL__N_1L10SPBOX_CATSE]
	imul	r8d, ecx, 9511232
	mov	esi, r13d
	not	esi
	mov	ecx, esi
	and	ecx, 1155431224
	and	r13d, -1155431225
	or	r13d, ecx
	mov	ecx, r8d
	not	ecx
	or	ecx, -1107820801
	or	esi, ecx
	and	ecx, 1155431224
	and	r8d, 33554432
	or	r8d, ecx
	mov	r9d, edx
	xor	r9d, -64
	and	r9d, edx
	xor	r8d, r13d
	mov	ebx, dword ptr [rsp - 112] 
	not	esi
	or	esi, r8d
	shr	edx, 8
	mov	ecx, edx
	xor	ecx, 16777152
	and	ecx, edx
	mov	edx, ecx
	and	edx, 320
	xor	ecx, 320
	or	ecx, edx
	movzx	ecx, byte ptr [rcx + _ZN5Botan12_GLOBAL__N_1L10SPBOX_CATSE]
	imul	ecx, ecx, -2138828776
	mov	edi, ecx
	xor	edi, -541081624
	and	edi, ecx
	mov	edx, esi
	not	edx
	mov	ecx, edx
	and	ecx, 65142547
	and	esi, -65142548
	or	esi, ecx
	mov	ecx, edi
	not	ecx
	or	edx, ecx
	and	ecx, 65142547
	and	edi, -65142552
	or	edi, ecx
	xor	edi, esi
	not	edx
	or	edx, edi
	mov	ecx, eax
	not	ecx
	or	ecx, -1537206656
	and	ecx, -1537206635
	and	eax, 42
	or	eax, ecx
	xor	eax, -1537206507
	movzx	eax, byte ptr [rax + _ZN5Botan12_GLOBAL__N_1L10SPBOX_CATSE]
	imul	eax, eax, -535690750
	mov	ecx, eax
	xor	ecx, -69208068
	and	ecx, eax
	mov	eax, r9d
	not	eax
	and	eax, -739028081
	mov	esi, r9d
	and	esi, 739028080
	or	esi, eax
	xor	esi, -739028401
	and	r9d, 448
	or	r9d, esi
	mov	eax, dword ptr [rsp - 104]
	mov	esi, ecx
	not	esi
	and	esi, 1529621069
	and	ecx, -1529621070
	or	ecx, esi
	mov	esi, eax
	not	esi
	and	esi, 1529621069
	and	eax, -1529621070
	or	eax, esi
	xor	eax, ecx
	mov	ecx, eax
	not	ecx
	and	ecx, -1804328198
	and	eax, 1804328197
	or	eax, ecx
	mov	ecx, edx
	not	ecx
	and	ecx, -1804328198
	and	edx, 1804328197
	or	edx, ecx
	movzx	ecx, byte ptr [r9 + _ZN5Botan12_GLOBAL__N_1L10SPBOX_CATSE]
	imul	r9d, ecx, 2171456
	xor	edx, eax
	mov	eax, dword ptr [rsp - 76] 
	mov	r13d, eax
	test	eax, eax
	sete	byte ptr [rsp - 122]
	cmp	ebx, 10
	setl	byte ptr [rsp - 121]
	shld	r11d, r15d, 28
	mov	eax, -29994451
	jmp	.LBB9_47
.LBB9_50:                               
	movzx	ebx, byte ptr [rsp - 122]
	movzx	eax, byte ptr [rsp - 121]
	mov	ecx, ebx
	xor	cl, al
	test	al, al
	mov	eax, 674206395
	mov	edi, -728779100
	cmovne	eax, edi
	test	bl, bl
	mov	esi, 674206395
	cmove	eax, esi
	test	cl, cl
	cmovne	eax, edi
	.p2align	4, 0x90
.LBB9_47:                               

	cmp	eax, 674206394
	jle	.LBB9_48

	cmp	eax, 674206395
	je	.LBB9_57

	cmp	eax, 1702022579
	jne	.LBB9_47
	jmp	.LBB9_55
	.p2align	4, 0x90
.LBB9_48:                               
	cmp	eax, -728779100
	je	.LBB9_56

	cmp	eax, -29994451
	jne	.LBB9_47
	jmp	.LBB9_50
.LBB9_57:                               
	mov	eax, -728779100
	jmp	.LBB9_47
.LBB9_56:                               
	mov	dword ptr [rsp - 120], r11d
	mov	eax, dword ptr [rsp - 100] 
	jmp	.LBB9_47
.LBB9_55:                               
	mov	eax, r9d
	not	eax
	or	eax, 1330876063
	mov	ecx, edx
	not	ecx
	and	ecx, 1330876127
	and	edx, -1330876128
	or	edx, ecx
	and	eax, 1330876127
	and	r9d, 268701696
	or	r9d, eax
	xor	r9d, edx
	mov	eax, dword ptr [rsp - 120]
	and	ebp, eax
	not	eax
	and	r12d, eax
	or	ebp, r12d
	and	r14d, r15d
	mov	eax, r15d
	not	eax
	and	r10d, eax
	or	r10d, r14d
	mov	eax, ebp
	shr	eax, 24
	mov	ecx, eax
	xor	ecx, 192
	and	ecx, eax
	movzx	eax, byte ptr [rcx + _ZN5Botan12_GLOBAL__N_1L10SPBOX_CATSE]
	imul	eax, eax, 1879314694
	and	eax, 16843780
	mov	ecx, r10d
	shr	ecx, 24
	mov	edx, ecx
	not	edx
	or	edx, -2091404672
	and	edx, -2091404648
	and	ecx, 39
	or	ecx, edx
	xor	ecx, -2091404584
	movzx	ecx, byte ptr [rcx + _ZN5Botan12_GLOBAL__N_1L10SPBOX_CATSE]
	imul	edx, ecx, 33628192
	and	edx, -2146402272
	or	edx, eax
	mov	eax, ebp
	shr	eax, 16
	or	eax, 128
	and	eax, 191
	movzx	eax, byte ptr [rax + _ZN5Botan12_GLOBAL__N_1L10SPBOX_CATSE]
	imul	eax, eax, 9441352
	mov	ecx, eax
	xor	ecx, -134349328
	and	ecx, eax
	mov	eax, edx
	not	eax
	mov	edi, ecx
	not	edi
	mov	ebx, eax
	and	ebx, -369839906
	and	edx, 66592
	or	edx, ebx
	or	eax, edi
	and	edi, -369839906
	and	ecx, 369839904
	or	ecx, edi
	xor	ecx, edx
	not	eax
	or	eax, ecx
	mov	ecx, r10d
	shr	ecx, 16
	mov	edx, ecx
	xor	edx, 65472
	and	edx, ecx
	mov	ecx, edx
	not	ecx
	and	ecx, -483988846
	mov	edi, edx
	and	edi, 5485
	or	edi, ecx
	xor	edi, -483988910
	and	edx, 192
	or	edx, edi
	movzx	ecx, byte ptr [rdx + _ZN5Botan12_GLOBAL__N_1L10SPBOX_CATSE]
	imul	ecx, ecx, -1912208863
	and	ecx, 8396929
	mov	edx, eax
	and	edx, ecx
	xor	ecx, eax
	or	ecx, edx
	mov	eax, ebp
	shr	eax, 8
	or	eax, 256
	and	eax, 319
	movzx	eax, byte ptr [rax + _ZN5Botan12_GLOBAL__N_1L10SPBOX_CATSE]
	imul	eax, eax, 9511232
	and	eax, 1107820800
	mov	edx, ecx
	and	edx, eax
	xor	eax, ecx
	or	eax, edx
	mov	ecx, r10d
	shr	ecx, 8
	or	ecx, 320
	and	ecx, 383
	movzx	ecx, byte ptr [rcx + _ZN5Botan12_GLOBAL__N_1L10SPBOX_CATSE]
	imul	edx, ecx, -2138828776
	and	edx, 541081616
	mov	ecx, eax
	and	ecx, edx
	xor	edx, eax
	or	edx, ecx
	mov	eax, ebp
	xor	eax, -64
	and	eax, ebp
	mov	ecx, eax
	and	ecx, 384
	xor	eax, 384
	or	eax, ecx
	movzx	eax, byte ptr [rax + _ZN5Botan12_GLOBAL__N_1L10SPBOX_CATSE]
	imul	eax, eax, -535690750
	mov	ecx, dword ptr [rsp - 108]
	mov	ebp, ecx
	not	ebp
	and	ebp, eax
	mov	edi, eax
	not	edi
	or	edi, -69208067
	mov	eax, r10d
	xor	eax, -64
	and	eax, r10d
	mov	ebx, eax
	and	ebx, 448
	xor	eax, 448
	or	eax, ebx
	movzx	eax, byte ptr [rax + _ZN5Botan12_GLOBAL__N_1L10SPBOX_CATSE]
	imul	eax, eax, 2171456
	mov	esi, eax
	xor	esi, 805040000
	and	esi, eax
	and	edi, ecx
	and	ebp, 69208066
	or	ebp, edi
	mov	eax, ebp
	not	eax
	and	eax, edx
	not	edx
	and	edx, ebp
	or	edx, eax
	mov	eax, edx
	not	eax
	and	eax, 1768837720
	and	edx, -1768837721
	or	edx, eax
	mov	eax, esi
	not	eax
	and	eax, 1768837720
	and	esi, 378645888
	or	esi, eax
	xor	esi, edx
	mov	rbp, qword ptr [rsp - 88]
	add	rbp, -2
	mov	edx, -1164516482
	mov	r8, qword ptr [rsp + 8] 
	mov	r12d, r13d
	mov	r13d, dword ptr [rsp - 100] 
	mov	edi, dword ptr [rsp - 44] 
	jmp	.LBB9_1
.LBB9_9:
	mov	eax, dword ptr [rsp - 92]
	mov	rcx, qword ptr [rsp - 24] 
	mov	dword ptr [rcx], eax
	mov	eax, dword ptr [rsp - 104]
	mov	rcx, qword ptr [rsp - 16] 
	mov	dword ptr [rcx], eax
	mov	eax, dword ptr [rsp - 96]
	mov	rcx, qword ptr [rsp - 8] 
	mov	dword ptr [rcx], eax
	mov	eax, dword ptr [rsp - 108]
	mov	rcx, qword ptr [rsp]    
	mov	dword ptr [rcx], eax
	add	rsp, 16
	pop	rbx
	pop	r12
	pop	r13
	pop	r14
	pop	r15
	pop	rbp
	ret
.Lfunc_end9:
	.size	_ZN5Botan12_GLOBAL__N_114des_decrypt_x2ERjS1_S1_S1_PKj, .Lfunc_end9-_ZN5Botan12_GLOBAL__N_114des_decrypt_x2ERjS1_S1_S1_PKj

	.globl	_ZN5Botan3DES12key_scheduleEPKhm 
	.p2align	4, 0x90
	.type	_ZN5Botan3DES12key_scheduleEPKhm,@function
_ZN5Botan3DES12key_scheduleEPKhm:       
	.cfi_startproc

	push	rbp
.Lcfi48:
	.cfi_def_cfa_offset 16
	push	r15
.Lcfi49:
	.cfi_def_cfa_offset 24
	push	r14
.Lcfi50:
	.cfi_def_cfa_offset 32
	push	r13
.Lcfi51:
	.cfi_def_cfa_offset 40
	push	r12
.Lcfi52:
	.cfi_def_cfa_offset 48
	push	rbx
.Lcfi53:
	.cfi_def_cfa_offset 56
	push	rax
.Lcfi54:
	.cfi_def_cfa_offset 64
.Lcfi55:
	.cfi_offset rbx, -56
.Lcfi56:
	.cfi_offset r12, -48
.Lcfi57:
	.cfi_offset r13, -40
.Lcfi58:
	.cfi_offset r14, -32
.Lcfi59:
	.cfi_offset r15, -24
.Lcfi60:
	.cfi_offset rbp, -16
	mov	r14, rsi
	mov	r12, rdi
	mov	eax, dword ptr [rip + x.35]
	lea	ecx, [rax - 1]
	imul	ecx, eax
	mov	eax, ecx
	xor	eax, -2
	test	eax, ecx
	sete	byte ptr [rsp + 2]
	mov	eax, dword ptr [rip + y.36]
	cmp	eax, 10
	setl	byte ptr [rsp + 3]
	add	r12, 8
	mov	eax, 1063108333
	mov	ebp, -1962322502
	mov	r13d, 1924581560
	mov	r15d, -294647818
	jmp	.LBB10_1
.LBB10_11:                              
	mov	cl, byte ptr [rsp + 2]
	mov	al, byte ptr [rsp + 3]
	mov	edx, ecx
	xor	dl, al
	test	al, al
	mov	eax, 2102667412
	cmovne	eax, r15d
	test	cl, cl
	mov	ecx, 2102667412
	cmove	eax, ecx
	test	dl, dl
	cmovne	eax, r15d
	.p2align	4, 0x90
.LBB10_1:                               


	cmp	eax, 1063108332
	jg	.LBB10_9

	cmp	eax, -1384053088
	je	.LBB10_17

	cmp	eax, -294647818
	jne	.LBB10_1

	mov	esi, 32
	mov	rdi, r12
	call	_ZNSt6vectorIjN5Botan16secure_allocatorIjEEE6resizeEm
	mov	rdi, qword ptr [r12]
	mov	eax, dword ptr [rip + x.421]
	mov	ecx, dword ptr [rip + y.422]
	lea	edx, [rax - 1]
	imul	edx, eax
	not	edx
	or	edx, -2
	cmp	edx, -1
	sete	dl
	sete	byte ptr [rsp + 4]
	mov	eax, 710475645
	cmove	eax, ebp
	cmp	ecx, 10
	setl	cl
	setl	byte ptr [rsp + 5]
	mov	esi, 710475645
	cmovge	eax, esi
	xor	cl, dl
	cmovne	eax, ebp
	mov	ecx, 1018270514
	jmp	.LBB10_5
	.p2align	4, 0x90
.LBB10_9:                               
	cmp	eax, 2102667412
	je	.LBB10_18

	cmp	eax, 1063108333
	jne	.LBB10_1
	jmp	.LBB10_11
.LBB10_13:                              
	mov	ecx, eax
	.p2align	4, 0x90
.LBB10_5:                               

	cmp	ecx, 1018270513
	jg	.LBB10_12

	cmp	ecx, -1962322502
	je	.LBB10_16

	cmp	ecx, 710475645
	jne	.LBB10_5

	mov	ecx, 1924581560
	jmp	.LBB10_5
	.p2align	4, 0x90
.LBB10_12:                              
	cmp	ecx, 1924581560
	je	.LBB10_13

	cmp	ecx, 1018270514
	jne	.LBB10_5

	movzx	ebx, byte ptr [rsp + 4]
	movzx	ecx, byte ptr [rsp + 5]
	mov	edx, ebx
	xor	dl, cl
	mov	edx, 710475645
	cmovne	edx, r13d
	test	cl, cl
	mov	ecx, edx
	cmovne	ecx, r13d
	test	bl, bl
	cmove	ecx, edx
	jmp	.LBB10_5
.LBB10_18:                              
	mov	esi, 32
	mov	rdi, r12
	call	_ZNSt6vectorIjN5Botan16secure_allocatorIjEEE6resizeEm
	mov	rdi, qword ptr [r12]
	mov	eax, dword ptr [rip + x.421]
	mov	ecx, dword ptr [rip + y.422]
	lea	edx, [rax - 1]
	imul	edx, eax
	not	edx
	or	edx, -2
	cmp	edx, -1
	sete	dl
	sete	byte ptr [rsp + 6]
	mov	eax, 710475645
	cmove	eax, ebp
	cmp	ecx, 10
	setl	cl
	setl	byte ptr [rsp + 7]
	mov	esi, 710475645
	cmovge	eax, esi
	xor	cl, dl
	cmovne	eax, ebp
	mov	ecx, 1018270514
	jmp	.LBB10_19
.LBB10_16:                              
	mov	rsi, r14
	call	_ZN5Botan12_GLOBAL__N_116des_key_scheduleEPjPKh
	mov	eax, dword ptr [rip + x.35]
	mov	ecx, dword ptr [rip + y.36]
	lea	edx, [rax - 1]
	imul	edx, eax
	not	edx
	or	edx, -2
	cmp	edx, -1
	sete	al
	cmp	ecx, 10
	setl	bl
	xor	bl, al
	mov	esi, 2102667412
	mov	edi, -1384053088
	cmovne	esi, edi
	cmp	edx, -1
	mov	eax, esi
	cmove	eax, edi
	cmp	ecx, 10
	cmovge	eax, esi
	jmp	.LBB10_1
.LBB10_24:                              
	mov	ecx, eax
	.p2align	4, 0x90
.LBB10_19:                              

	cmp	ecx, 1018270513
	jg	.LBB10_23

	cmp	ecx, -1962322502
	je	.LBB10_27

	cmp	ecx, 710475645
	jne	.LBB10_19

	mov	ecx, 1924581560
	jmp	.LBB10_19
	.p2align	4, 0x90
.LBB10_23:                              
	cmp	ecx, 1924581560
	je	.LBB10_24

	cmp	ecx, 1018270514
	jne	.LBB10_19

	movzx	ebx, byte ptr [rsp + 6]
	movzx	ecx, byte ptr [rsp + 7]
	mov	edx, ebx
	xor	dl, cl
	mov	edx, 710475645
	cmovne	edx, r13d
	test	cl, cl
	mov	ecx, edx
	cmovne	ecx, r13d
	test	bl, bl
	cmove	ecx, edx
	jmp	.LBB10_19
.LBB10_27:                              
	mov	rsi, r14
	call	_ZN5Botan12_GLOBAL__N_116des_key_scheduleEPjPKh
	mov	eax, -294647818
	jmp	.LBB10_1
.LBB10_17:
	add	rsp, 8
	pop	rbx
	pop	r12
	pop	r13
	pop	r14
	pop	r15
	pop	rbp
	ret
.Lfunc_end10:
	.size	_ZN5Botan3DES12key_scheduleEPKhm, .Lfunc_end10-_ZN5Botan3DES12key_scheduleEPKhm
	.cfi_endproc

	.section	.text._ZNSt6vectorIjN5Botan16secure_allocatorIjEEE6resizeEm,"axG",@progbits,_ZNSt6vectorIjN5Botan16secure_allocatorIjEEE6resizeEm,comdat
	.weak	_ZNSt6vectorIjN5Botan16secure_allocatorIjEEE6resizeEm 
	.p2align	4, 0x90
	.type	_ZNSt6vectorIjN5Botan16secure_allocatorIjEEE6resizeEm,@function
_ZNSt6vectorIjN5Botan16secure_allocatorIjEEE6resizeEm: 
.Lfunc_begin0:
	.cfi_startproc
	.cfi_personality 3, __gxx_personality_v0
	.cfi_lsda 3, .Lexception0

	push	rbp
.Lcfi61:
	.cfi_def_cfa_offset 16
	push	r15
.Lcfi62:
	.cfi_def_cfa_offset 24
	push	r14
.Lcfi63:
	.cfi_def_cfa_offset 32
	push	r13
.Lcfi64:
	.cfi_def_cfa_offset 40
	push	r12
.Lcfi65:
	.cfi_def_cfa_offset 48
	push	rbx
.Lcfi66:
	.cfi_def_cfa_offset 56
	sub	rsp, 24
.Lcfi67:
	.cfi_def_cfa_offset 80
.Lcfi68:
	.cfi_offset rbx, -56
.Lcfi69:
	.cfi_offset r12, -48
.Lcfi70:
	.cfi_offset r13, -40
.Lcfi71:
	.cfi_offset r14, -32
.Lcfi72:
	.cfi_offset r15, -24
.Lcfi73:
	.cfi_offset rbp, -16
	mov	r14, rsi
	mov	r15, rdi
	mov	eax, dword ptr [rip + x.423]
	mov	edx, dword ptr [rip + y.424]
	lea	ecx, [rax - 1]
	imul	ecx, eax
	not	ecx
	or	ecx, -2
	cmp	ecx, -1
	sete	bl
	sete	byte ptr [rsp + 4]
	mov	esi, 1845280380
	mov	r8d, 1661721947
	mov	ecx, 1661721947
	cmove	ecx, esi
	cmp	edx, 10
	setl	dl
	setl	byte ptr [rsp + 5]
	cmovge	ecx, r8d
	xor	dl, bl
	cmovne	ecx, esi
	mov	edi, -1952603336
	movabs	rbp, -7062694018049413436
	mov	esi, -2043362372
	jmp	.LBB11_1
.LBB11_4:                               
	movzx	edx, byte ptr [rsp + 4]
	movzx	eax, byte ptr [rsp + 5]
	mov	ebx, edx
	xor	bl, al
	test	al, al
	mov	edi, 1661721947
	cmovne	edi, esi
	test	dl, dl
	cmove	edi, r8d
	test	bl, bl
	cmovne	edi, esi
	.p2align	4, 0x90
.LBB11_1:                               
	cmp	edi, 1661721946
	jle	.LBB11_2

	cmp	edi, 1661721947
	je	.LBB11_14

	cmp	edi, 1845280380
	jne	.LBB11_1
	jmp	.LBB11_7
	.p2align	4, 0x90
.LBB11_2:                               
	cmp	edi, -2043362372
	je	.LBB11_13

	cmp	edi, -1952603336
	jne	.LBB11_1
	jmp	.LBB11_4
.LBB11_14:                              
	mov	edi, -2043362372
	jmp	.LBB11_1
.LBB11_13:                              
	mov	rax, qword ptr [r15 + 8]
	sub	rax, rbp
	sub	rax, qword ptr [r15]
	add	rax, rbp
	sar	rax, 2
	mov	qword ptr [rsp + 8], rax
	mov	edi, ecx
	jmp	.LBB11_1
.LBB11_7:
	mov	rax, qword ptr [rsp + 8]
	cmp	rax, r14
	setb	byte ptr [rsp + 6]
	mov	eax, -888541572
	mov	ebp, -971137099
	mov	r13d, -2073589660
	mov	r12d, 388097487
	jmp	.LBB11_8
.LBB11_41:                              
	xor	dl, cl
	cmovne	eax, esi
	.p2align	4, 0x90
.LBB11_8:                               


	cmp	eax, -971137100
	jle	.LBB11_9

	cmp	eax, 138690941
	jle	.LBB11_20

	cmp	eax, 138690942
	je	.LBB11_43

	cmp	eax, 388097487
	je	.LBB11_55

	cmp	eax, 773022096
	jne	.LBB11_8

	mov	eax, dword ptr [rip + x.37]
	lea	ecx, [rax - 1]
	imul	ecx, eax
	not	ecx
	or	ecx, -2
	cmp	ecx, -1
	sete	cl
	mov	eax, -2073589660
	cmove	eax, r12d
	cmp	dword ptr [rip + y.38], 10
	setl	dl
	cmovge	eax, r13d
	xor	dl, cl
	cmovne	eax, r12d
	jmp	.LBB11_8
	.p2align	4, 0x90
.LBB11_9:                               
	cmp	eax, -1774279197
	jle	.LBB11_10

	cmp	eax, -1774279196
	je	.LBB11_39

	cmp	eax, -1122661496
	je	.LBB11_42

	cmp	eax, -1053814815
	jne	.LBB11_8

	mov	rax, qword ptr [rsp + 16]
	cmp	rax, r14
	seta	byte ptr [rsp + 7]
	mov	eax, dword ptr [rip + x.37]
	lea	ecx, [rax - 1]
	imul	ecx, eax
	mov	eax, ecx
	xor	eax, -2
	and	eax, ecx
	sete	cl
	test	eax, eax
	mov	eax, -971137099
	mov	esi, -1122661496
	jmp	.LBB11_40
	.p2align	4, 0x90
.LBB11_20:                              
	cmp	eax, -971137099
	je	.LBB11_56

	cmp	eax, -888541572
	je	.LBB11_28

	cmp	eax, -153369689
	jne	.LBB11_8
	jmp	.LBB11_23
	.p2align	4, 0x90
.LBB11_10:                              
	cmp	eax, -2122672641
	je	.LBB11_38

	cmp	eax, -2073589660
	jne	.LBB11_8

	mov	eax, 388097487
	jmp	.LBB11_8
.LBB11_43:                              
	mov	rbp, qword ptr [r15]
	mov	rsi, qword ptr [r15 + 8]
	mov	ecx, dword ptr [rip + x.131]
	mov	edx, dword ptr [rip + y.132]
	mov	edi, ecx
	neg	edi
	not	edi
	imul	edi, ecx
	not	edi
	or	edi, -2
	cmp	edi, -1
	sete	bl
	sete	byte ptr [rsp + 4]
	mov	ecx, 2079666823
	mov	eax, 2094101779
	cmove	ecx, eax
	cmp	edx, 10
	setl	dl
	setl	byte ptr [rsp + 5]
	mov	edi, 2079666823
	cmovge	ecx, edi
	xor	dl, bl
	cmovne	ecx, eax
	mov	edx, -101896205
	jmp	.LBB11_44
.LBB11_55:                              
	mov	eax, dword ptr [rip + x.37]
	lea	ecx, [rax - 1]
	imul	ecx, eax
	mov	eax, ecx
	xor	eax, -2
	and	eax, ecx
	sete	cl
	test	eax, eax
	mov	eax, -2073589660
	mov	esi, -153369689
	cmove	eax, esi
	cmp	dword ptr [rip + y.38], 10
	setl	dl
	cmovge	eax, r13d
	jmp	.LBB11_41
.LBB11_39:                              
	mov	eax, dword ptr [rip + x.37]
	lea	ecx, [rax - 1]
	imul	ecx, eax
	not	ecx
	or	ecx, -2
	cmp	ecx, -1
	sete	cl
	mov	eax, -971137099
	mov	esi, -1053814815
.LBB11_40:                              
	cmove	eax, esi
	cmp	dword ptr [rip + y.38], 10
	setl	dl
	cmovge	eax, ebp
	jmp	.LBB11_41
.LBB11_42:                              
	mov	al, byte ptr [rsp + 7]
	test	al, al
	mov	eax, 773022096
	mov	ecx, 138690942
	cmovne	eax, ecx
	jmp	.LBB11_8
.LBB11_56:                              
	mov	rax, qword ptr [rsp + 16]
	mov	eax, -1053814815
	jmp	.LBB11_8
.LBB11_28:                              
	mov	eax, dword ptr [rip + x.423]
	mov	ecx, dword ptr [rip + y.424]
	lea	edx, [rax - 1]
	imul	edx, eax
	mov	eax, edx
	xor	eax, -2
	and	eax, edx
	sete	byte ptr [rsp + 4]
	sete	dl
	test	eax, eax
	mov	eax, 1661721947
	mov	esi, 1845280380
	cmove	eax, esi
	cmp	ecx, 10
	setl	cl
	setl	byte ptr [rsp + 5]
	mov	edi, 1661721947
	cmovge	eax, edi
	xor	cl, dl
	cmovne	eax, esi
	mov	ecx, -1952603336
	jmp	.LBB11_29
.LBB11_38:                              
	mov	rax, qword ptr [rsp + 16]
	mov	rsi, r14
	sub	rsi, rax
	mov	rdi, r15
	call	_ZNSt6vectorIjN5Botan16secure_allocatorIjEEE17_M_default_appendEm
	mov	eax, 773022096
	jmp	.LBB11_8
.LBB11_52:                              
	movzx	eax, byte ptr [rsp + 4]
	movzx	edx, byte ptr [rsp + 5]
	mov	ebx, eax
	xor	bl, dl
	test	dl, dl
	mov	edx, 2079666823
	mov	edi, 1575591681
	cmovne	edx, edi
	test	al, al
	mov	eax, 2079666823
	cmove	edx, eax
	test	bl, bl
	cmovne	edx, edi
	.p2align	4, 0x90
.LBB11_44:                              

	cmp	edx, 2079666822
	jle	.LBB11_45

	cmp	edx, 2079666823
	je	.LBB11_53

	cmp	edx, 2094101779
	jne	.LBB11_44
	jmp	.LBB11_50
	.p2align	4, 0x90
.LBB11_45:                              
	cmp	edx, -101896205
	je	.LBB11_52

	cmp	edx, 1575591681
	jne	.LBB11_44

	mov	qword ptr [rsp + 8], r15
	mov	edx, ecx
	jmp	.LBB11_44
.LBB11_53:                              
	mov	edx, 1575591681
	jmp	.LBB11_44
.LBB11_32:                              
	movzx	ebx, byte ptr [rsp + 4]
	movzx	ecx, byte ptr [rsp + 5]
	mov	edx, ebx
	xor	dl, cl
	mov	edx, 1661721947
	mov	esi, -2043362372
	cmovne	edx, esi
	test	cl, cl
	mov	ecx, edx
	cmovne	ecx, esi
	test	bl, bl
	cmove	ecx, edx
	.p2align	4, 0x90
.LBB11_29:                              

	cmp	ecx, 1661721946
	jle	.LBB11_30

	cmp	ecx, 1661721947
	je	.LBB11_37

	cmp	ecx, 1845280380
	jne	.LBB11_29
	jmp	.LBB11_35
	.p2align	4, 0x90
.LBB11_30:                              
	cmp	ecx, -2043362372
	je	.LBB11_36

	cmp	ecx, -1952603336
	jne	.LBB11_29
	jmp	.LBB11_32
.LBB11_37:                              
	mov	ecx, -2043362372
	jmp	.LBB11_29
.LBB11_36:                              
	mov	rcx, qword ptr [r15 + 8]
	movabs	rdx, 7371068656061466363
	add	rcx, rdx
	sub	rcx, qword ptr [r15]
	sub	rcx, rdx
	sar	rcx, 2
	mov	qword ptr [rsp + 8], rcx
	mov	ecx, eax
	jmp	.LBB11_29
.LBB11_50:                              
	lea	rbx, [rbp + 4*r14]
	mov	rdx, qword ptr [rsp + 8]
.Ltmp0:
	mov	rdi, rbx
	call	_ZSt8_DestroyIPjN5Botan16secure_allocatorIjEEEvT_S4_RT0_
.Ltmp1:

	mov	qword ptr [r15 + 8], rbx
	mov	eax, 773022096
	mov	ebp, -971137099
	jmp	.LBB11_8
.LBB11_35:                              
	mov	rax, qword ptr [rsp + 8]
	mov	qword ptr [rsp + 16], rax
	mov	al, byte ptr [rsp + 6]
	test	al, al
	mov	eax, -1774279196
	mov	ecx, -2122672641
	cmovne	eax, ecx
	jmp	.LBB11_8
.LBB11_23:
	add	rsp, 24
	pop	rbx
	pop	r12
	pop	r13
	pop	r14
	pop	r15
	pop	rbp
	ret
.LBB11_54:
.Ltmp2:
	mov	rdi, rax
	call	__clang_call_terminate
.Lfunc_end11:
	.size	_ZNSt6vectorIjN5Botan16secure_allocatorIjEEE6resizeEm, .Lfunc_end11-_ZNSt6vectorIjN5Botan16secure_allocatorIjEEE6resizeEm
	.cfi_endproc
	.section	.gcc_except_table,"a",@progbits
	.p2align	2
GCC_except_table11:
.Lexception0:
	.byte	255                     
	.byte	3                       
	.asciz	"\242\200\200"          
	.byte	3                       
	.byte	26                      
	.long	.Lfunc_begin0-.Lfunc_begin0 
	.long	.Ltmp0-.Lfunc_begin0    
	.long	0                       
	.byte	0                       
	.long	.Ltmp0-.Lfunc_begin0    
	.long	.Ltmp1-.Ltmp0           
	.long	.Ltmp2-.Lfunc_begin0    
	.byte	1                       
	.byte	1                       

	.byte	0                       

	.long	0                       
	.p2align	2

	.text
	.p2align	4, 0x90         
	.type	_ZN5Botan12_GLOBAL__N_116des_key_scheduleEPjPKh,@function
_ZN5Botan12_GLOBAL__N_116des_key_scheduleEPjPKh: 

	push	rbp
	push	r15
	push	r14
	push	r13
	push	r12
	push	rbx
	mov	qword ptr [rsp - 8], rdi 
	movzx	r14d, byte ptr [rsi + 7]
	mov	ecx, r14d
	shl	ecx, 20
	mov	eax, ecx
	xor	eax, 133169152
	and	eax, ecx
	movzx	r13d, byte ptr [rsi + 6]
	mov	ecx, r13d
	shl	ecx, 19
	mov	r10d, ecx
	xor	r10d, 66584576
	and	r10d, ecx
	movzx	edx, byte ptr [rsi + 4]
	mov	ecx, edx
	mov	rdi, rdx
	shl	ecx, 17
	mov	r11d, ecx
	xor	r11d, 16646144
	and	r11d, ecx
	movzx	edx, byte ptr [rsi + 3]
	mov	ecx, edx
	mov	rbx, rdx
	mov	qword ptr [rsp - 24], rbx 
	shl	ecx, 16
	mov	edx, ecx
	xor	edx, 8323072
	and	edx, ecx
	mov	dword ptr [rsp - 96], edx 
	movzx	ecx, byte ptr [rsi + 2]
	mov	qword ptr [rsp - 48], rcx 

	shl	ecx, 15
	mov	edx, ecx
	xor	edx, 4161536
	and	edx, ecx
	mov	dword ptr [rsp - 92], edx 
	movzx	ecx, byte ptr [rsi + 1]
	mov	qword ptr [rsp - 40], rcx 

	shl	ecx, 14
	mov	r12d, ecx
	xor	r12d, 2080768
	and	r12d, ecx
	movzx	ecx, byte ptr [rsi]
	mov	qword ptr [rsp - 16], rcx 

	shl	ecx, 13
	mov	edx, ecx
	xor	edx, 1040384
	and	edx, ecx
	mov	dword ptr [rsp - 100], edx 
	mov	edx, r14d
	and	edx, 64
	shl	edx, 13
	or	edx, eax
	mov	rcx, rdi
	mov	eax, ecx
	shl	eax, 10
	mov	edi, eax
	xor	edi, 195584
	and	edi, eax
	mov	eax, r14d
	shl	eax, 6
	mov	ebp, eax
	xor	ebp, 14272
	and	ebp, eax
	or	ebp, edx
	lea	eax, [8*rcx]
	mov	rdx, rcx
	mov	qword ptr [rsp - 32], rdx 
	mov	r8d, eax
	xor	r8d, 1784
	and	r8d, eax
	lea	eax, [4*rbx]
	mov	r9d, eax
	xor	r9d, 892
	and	r9d, eax
	mov	ecx, r14d
	shr	ecx
	mov	eax, ecx
	xor	eax, 119
	and	eax, ecx
	mov	ebx, r13d
	shr	ebx, 2
	mov	ecx, ebx
	xor	ecx, 59
	and	ecx, ebx
	movzx	ebx, byte ptr [rsi + 5]
	mov	esi, ebx
	mov	r15d, ebx
	shr	esi, 3
	mov	ebx, esi
	xor	ebx, 29
	and	ebx, esi
	mov	esi, edx
	shr	esi, 4
	mov	edx, esi
	xor	edx, 14
	and	edx, esi
	mov	esi, ebp
	and	esi, eax
	xor	eax, ebp
	or	eax, esi
	mov	esi, eax
	and	esi, r10d
	xor	eax, r10d
	or	eax, esi
	mov	esi, r13d
	and	esi, 64
	shl	esi, 12
	mov	ebp, eax
	and	ebp, esi
	xor	eax, esi
	or	eax, ebp
	mov	esi, r13d
	mov	r10d, r13d
	mov	dword ptr [rsp - 68], r10d 
	and	esi, 32
	shl	esi, 5
	mov	ebp, eax
	and	ebp, esi
	xor	eax, esi
	or	eax, ebp
	mov	esi, eax
	and	esi, ecx
	xor	eax, ecx
	or	eax, esi
	mov	ecx, eax
	not	ecx
	mov	esi, ecx
	and	esi, -1429536743
	and	eax, 1429536742
	or	eax, esi
	mov	esi, r15d
	shl	esi, 18
	not	esi
	or	esi, -33554433
	or	ecx, esi
	and	esi, -1429536743
	xor	esi, eax
	not	ecx
	or	ecx, esi
	mov	esi, r15d
	shl	esi, 11
	mov	eax, esi
	not	eax
	mov	ebp, ecx
	not	ebp
	or	eax, ebp
	and	ebp, -274100429
	and	ecx, 274100428
	or	ecx, ebp
	and	esi, 131072
	or	esi, -274100429
	xor	esi, ecx
	not	eax
	and	eax, 131072
	or	eax, esi
	mov	ecx, r15d
	and	ecx, 32
	shl	ecx, 4
	mov	esi, eax
	and	esi, ecx
	xor	eax, ecx
	or	eax, esi
	mov	ecx, eax
	and	ecx, ebx
	xor	eax, ebx
	or	eax, ecx
	mov	ecx, eax
	and	ecx, r11d
	xor	eax, r11d
	or	eax, ecx
	mov	ecx, eax
	not	ecx
	mov	esi, ecx
	and	esi, 604733879
	and	eax, -604733880
	or	eax, esi
	mov	esi, edi
	not	esi
	or	ecx, esi
	and	esi, 604733879
	and	edi, 31744
	or	edi, esi
	xor	edi, eax
	not	ecx
	or	ecx, edi
	mov	edi, ecx
	not	edi
	mov	eax, edi
	and	eax, -1642139784
	and	ecx, 1642139783
	or	ecx, eax
	mov	eax, r8d
	not	eax
	or	edi, eax
	and	eax, -1642139784
	and	r8d, 128
	or	r8d, eax
	xor	r8d, ecx
	not	edi
	or	edi, r8d
	mov	eax, edi
	not	eax
	mov	ecx, eax
	and	ecx, -530894312
	and	edi, 530894311
	or	edi, ecx
	mov	ecx, edx
	not	ecx
	or	eax, ecx
	and	ecx, -530894312
	and	edx, 7
	or	edx, ecx
	xor	edx, edi
	not	eax
	or	eax, edx
	mov	ecx, eax
	mov	edx, dword ptr [rsp - 96] 
	and	ecx, edx
	xor	eax, edx
	or	eax, ecx
	mov	rbx, qword ptr [rsp - 24] 
	mov	ecx, ebx
	and	ecx, 64
	shl	ecx, 9
	mov	edx, eax
	and	edx, ecx
	xor	eax, ecx
	or	eax, edx
	mov	ecx, eax
	not	ecx
	mov	edx, ecx
	and	edx, 1004344236
	and	eax, -1004344237
	or	eax, edx
	mov	edx, r9d
	not	edx
	or	ecx, edx
	and	edx, 1004344236
	and	r9d, 80
	or	r9d, edx
	xor	r9d, eax
	not	ecx
	or	ecx, r9d
	mov	eax, ecx
	mov	edx, dword ptr [rsp - 92] 
	and	eax, edx
	xor	ecx, edx
	or	ecx, eax
	mov	r13, qword ptr [rsp - 48] 
	mov	eax, r13d
	and	eax, 64
	shl	eax, 8
	mov	edx, ecx
	and	edx, eax
	xor	ecx, eax
	or	ecx, edx
	lea	eax, [r13 + r13]
	mov	r8, r13
	and	eax, 64
	mov	edx, ecx
	and	edx, eax
	xor	ecx, eax
	or	ecx, edx
	mov	r13, qword ptr [rsp - 40] 
	mov	eax, r13d
	xor	eax, 223
	and	eax, r13d
	mov	edx, ecx
	and	edx, eax
	xor	ecx, eax
	or	ecx, edx
	mov	eax, ecx
	not	eax
	mov	edx, eax
	and	edx, -140230400
	and	ecx, 140230399
	or	ecx, edx
	mov	edx, r12d
	not	edx
	or	eax, edx
	and	edx, -140230400
	and	r12d, 1802240
	or	r12d, edx
	xor	r12d, ecx
	not	eax
	or	eax, r12d
	mov	ecx, eax
	not	ecx
	mov	edx, ecx
	and	edx, 1193240327
	and	eax, -1193240328
	or	eax, edx
	mov	edx, r13d
	shl	edx, 7
	not	edx
	or	edx, -8193
	or	ecx, edx
	and	edx, 1193240327
	xor	edx, eax
	mov	rbp, qword ptr [rsp - 16] 
	mov	esi, ebp
	shl	esi, 6
	not	esi
	or	esi, -4097
	not	ecx
	or	ecx, edx
	mov	eax, ecx
	mov	edx, dword ptr [rsp - 100] 
	and	eax, edx
	xor	ecx, edx
	or	ecx, eax
	mov	eax, ecx
	not	eax
	mov	edx, eax
	and	edx, 1335997524
	and	ecx, -1335997525
	or	ecx, edx
	mov	edx, ebp
	shr	edx
	or	eax, esi
	and	esi, 1335997524
	xor	esi, ecx
	mov	edi, edx
	not	edi
	and	edx, 16
	not	eax
	or	eax, esi
	mov	ecx, eax
	not	ecx
	or	edi, ecx
	not	edi
	and	ecx, 1656398637
	and	eax, -1656398638
	or	eax, ecx
	or	edx, 1656398637
	xor	edx, eax
	and	edi, 16
	or	edi, edx
	mov	dword ptr [rsp - 100], edi 
	mov	dword ptr [rsp - 64], r15d 
	mov	eax, r15d
	shl	eax, 24
	mov	r12d, eax
	xor	r12d, -50331648
	and	r12d, eax
	mov	r9, rbx
	mov	eax, r9d
	shl	eax, 22
	mov	r11d, eax
	xor	r11d, 1061158912
	and	r11d, eax
	mov	ecx, r14d
	shl	ecx, 17
	mov	esi, ecx
	xor	esi, 32899072
	and	esi, ecx
	mov	ecx, r14d
	and	ecx, 2
	shl	ecx, 26
	or	esi, ecx
	mov	edx, r10d
	shl	edx, 16
	mov	ecx, edx
	xor	ecx, 16449536
	and	ecx, edx
	mov	edx, r15d
	shl	edx, 15
	mov	ebx, edx
	xor	ebx, 8224768
	and	ebx, edx
	mov	rax, qword ptr [rsp - 32] 
	mov	edx, eax
	shl	edx, 14
	mov	edi, edx
	xor	edi, 4112384
	and	edi, edx
	mov	edx, r8d
	shl	edx, 12
	mov	eax, edx
	xor	eax, 1028096
	and	eax, edx
	mov	dword ptr [rsp - 56], eax 
	mov	edx, r13d
	shl	edx, 11
	mov	r15d, edx
	xor	r15d, 514048
	and	r15d, edx
	lea	edx, [8*r8]
	mov	eax, edx
	xor	eax, 1976
	and	eax, edx
	mov	dword ptr [rsp - 60], eax 
	lea	edx, [4*r13]
	mov	eax, edx
	xor	eax, 988
	and	eax, edx
	mov	dword ptr [rsp - 52], eax 
	mov	rax, r9
	mov	edx, eax
	mov	r9d, eax
	shr	eax
	mov	r10d, eax
	xor	r10d, 119
	and	r10d, eax
	mov	rax, rbp
	mov	dword ptr [rsp - 96], ebp 
	mov	r13d, eax
	lea	ebp, [rax + rax]
	mov	dword ptr [rsp - 92], ebp 
	shr	eax, 4
	mov	ebp, eax
	xor	ebp, 14
	and	ebp, eax
	mov	eax, esi
	not	eax
	and	eax, -46337856
	and	esi, 12713984
	or	esi, eax
	and	r14d, 8
	shl	r14d, 8
	or	r14d, -46337856
	xor	r14d, esi
	mov	r8d, dword ptr [rsp - 68] 
	mov	eax, r8d
	and	eax, 2
	shl	eax, 25
	mov	esi, r14d
	and	esi, eax
	xor	r14d, eax
	or	r14d, esi
	mov	eax, r14d
	not	eax
	mov	esi, eax
	and	esi, 1650710219
	and	r14d, -1650710220
	or	r14d, esi
	mov	esi, ecx
	not	esi
	or	eax, esi
	and	esi, 1650710219
	and	ecx, 10223616
	or	ecx, esi
	xor	ecx, r14d
	not	eax
	or	eax, ecx
	and	r8d, 8
	shl	r8d, 7
	mov	ecx, eax
	and	ecx, r8d
	xor	eax, r8d
	or	eax, ecx
	mov	ecx, eax
	and	ecx, r12d
	xor	eax, r12d
	or	eax, ecx
	mov	ecx, eax
	and	ecx, ebx
	xor	eax, ebx
	or	eax, ecx
	mov	ebx, dword ptr [rsp - 64] 
	shl	ebx, 6
	mov	ecx, ebx
	not	ecx
	mov	esi, eax
	not	esi
	or	ecx, esi
	and	esi, 1421071401
	and	eax, -1421071402
	or	eax, esi
	and	ebx, 512
	or	ebx, 1421071401
	xor	ebx, eax
	not	ecx
	and	ecx, 512
	or	ecx, ebx
	mov	rbx, qword ptr [rsp - 32] 
	mov	eax, ebx
	and	eax, 2
	shl	eax, 23
	mov	esi, ecx
	and	esi, eax
	xor	ecx, eax
	or	ecx, esi
	mov	eax, ecx
	not	eax
	mov	esi, eax
	and	esi, 802751772
	and	ecx, -802751773
	or	ecx, esi
	mov	esi, edi
	not	esi
	or	eax, esi
	and	esi, 802751772
	and	edi, 2539520
	or	edi, esi
	xor	edi, ecx
	not	eax
	or	eax, edi
	mov	rsi, rbx
	shl	esi, 5
	mov	ecx, esi
	mov	rdi, rsi
	not	ecx
	mov	esi, eax
	not	esi
	or	ecx, esi
	and	esi, -1761828184
	and	eax, 1761828183
	or	eax, esi
	mov	rsi, rdi
	and	esi, 256
	or	esi, -1761828184
	xor	esi, eax
	not	ecx
	and	ecx, 256
	or	ecx, esi
	mov	eax, ecx
	not	eax
	mov	esi, eax
	and	esi, 289534473
	and	ecx, -289534474
	or	ecx, esi
	mov	esi, r11d
	not	esi
	or	eax, esi
	and	esi, 289534473
	and	r11d, 780140544
	or	r11d, esi
	xor	r11d, ecx
	not	eax
	or	eax, r11d
	mov	ecx, eax
	not	ecx
	mov	esi, ecx
	and	esi, 78495115
	and	eax, -78495116
	or	eax, esi
	shl	edx, 13
	not	edx
	or	edx, -32769
	or	ecx, edx
	and	edx, 78495115
	xor	edx, eax
	not	ecx
	or	ecx, edx
	mov	eax, ecx
	not	eax
	mov	edx, eax
	and	edx, 363628935
	and	ecx, -363628936
	or	ecx, edx
	shl	r9d, 4
	not	r9d
	or	r9d, -129
	or	eax, r9d
	and	r9d, 363628935
	xor	r9d, ecx
	not	eax
	or	eax, r9d
	mov	ecx, eax
	not	ecx
	mov	edx, ecx
	and	edx, 1742241637
	and	eax, -1742241638
	or	eax, edx
	mov	edx, r10d
	not	edx
	or	ecx, edx
	and	edx, 1742241637
	and	r10d, 26
	or	r10d, edx
	xor	r10d, eax
	not	ecx
	or	ecx, r10d
	mov	rdi, qword ptr [rsp - 48] 
	mov	edx, edi
	shl	edx, 21
	mov	eax, edx
	not	eax
	mov	esi, ecx
	not	esi
	or	eax, esi
	and	esi, -2130355809
	and	ecx, 2130355808
	or	ecx, esi
	and	edx, 4194304
	or	edx, -2130355809
	xor	edx, ecx
	not	eax
	and	eax, 4194304
	or	eax, edx
	mov	ecx, eax
	mov	edx, dword ptr [rsp - 56] 
	and	ecx, edx
	xor	eax, edx
	or	eax, ecx
	mov	ecx, eax
	mov	edx, dword ptr [rsp - 60] 
	and	ecx, edx
	xor	eax, edx
	or	eax, ecx
	mov	ecx, eax
	not	ecx
	mov	edx, ecx
	and	edx, -1576361289
	and	eax, 1576361288
	or	eax, edx
	mov	rdx, rdi
	shr	edx, 2
	not	edx
	or	edx, -5
	or	ecx, edx
	and	edx, -1576361289
	xor	edx, eax
	mov	rsi, qword ptr [rsp - 40] 
	mov	eax, esi
	and	eax, 2
	shl	eax, 20
	not	ecx
	or	ecx, edx
	mov	edx, ecx
	and	edx, eax
	xor	ecx, eax
	or	ecx, edx
	mov	eax, ecx
	not	eax
	mov	edx, eax
	and	edx, 1760031613
	and	ecx, -1760031614
	or	ecx, edx
	mov	edx, r15d
	not	edx
	or	eax, edx
	and	edx, 1760031613
	and	r15d, 2048
	or	r15d, edx
	xor	r15d, ecx
	not	eax
	or	eax, r15d
	mov	ecx, eax
	mov	edx, dword ptr [rsp - 52] 
	and	ecx, edx
	xor	eax, edx
	or	eax, ecx
	mov	edx, eax
	not	edx
	mov	ecx, edx
	and	ecx, -1269418850
	and	eax, 1269418849
	or	eax, ecx
	mov	rcx, rsi
	shr	ecx, 3
	not	ecx
	or	ecx, -3
	or	edx, ecx
	and	ecx, -1269418850
	xor	ecx, eax
	mov	esi, dword ptr [rsp - 96] 
	and	esi, 2
	shl	esi, 19
	shl	r13d, 10
	not	edx
	or	edx, ecx
	mov	eax, edx
	and	eax, esi
	xor	edx, esi
	mov	ecx, r13d
	not	ecx
	or	edx, eax
	mov	eax, edx
	not	eax
	or	ecx, eax
	and	eax, 340103122
	and	edx, -340103123
	or	edx, eax
	and	r13d, 4096
	or	r13d, 340103122
	xor	r13d, edx
	mov	edx, dword ptr [rsp - 92] 
	and	edx, 16
	not	ecx
	and	ecx, 4096
	or	ecx, r13d
	mov	eax, ecx
	and	eax, edx
	xor	ecx, edx
	or	ecx, eax
	mov	eax, ecx
	and	eax, ebp
	xor	ecx, ebp
	or	ecx, eax
	xor	eax, eax
	mov	r8, qword ptr [rsp - 8] 
	jmp	.LBB12_1
	.p2align	4, 0x90
.LBB12_7:                               
	mov	rax, qword ptr [rsp - 80]
	movzx	eax, byte ptr [rax + _ZZN5Botan12_GLOBAL__N_116des_key_scheduleEPjPKhE3ROT]
	mov	esi, dword ptr [rsp - 84]
	mov	ecx, eax
	shl	esi, cl
	mov	edx, 28
	sub	edx, eax
	mov	r11d, dword ptr [rsp - 84]
	mov	ecx, edx
	shr	r11d, cl
	mov	ecx, r11d
	and	ecx, esi
	xor	r11d, esi
	or	r11d, ecx
	mov	esi, dword ptr [rsp - 88]
	mov	ecx, eax
	shl	esi, cl
	mov	r12d, dword ptr [rsp - 88]
	mov	ecx, edx
	shr	r12d, cl
	mov	eax, r12d
	and	eax, esi
	xor	r12d, esi
	or	r12d, eax
	mov	eax, r11d
	shl	eax, 22
	mov	ecx, eax
	xor	ecx, -71303168
	and	ecx, eax
	mov	eax, r11d
	shl	eax, 17
	mov	edx, eax
	xor	edx, -268566528
	and	edx, eax
	mov	eax, ecx
	not	eax
	mov	esi, edx
	not	esi
	mov	edi, eax
	and	edi, -548609954
	and	ecx, 545259520
	or	ecx, edi
	or	eax, esi
	and	esi, -548609954
	and	edx, 548536320
	or	edx, esi
	xor	edx, ecx
	not	eax
	or	eax, edx
	mov	ecx, r11d
	shl	ecx, 16
	mov	edx, ecx
	xor	edx, -2162688
	and	edx, ecx
	mov	ecx, eax
	and	ecx, edx
	xor	edx, eax
	or	edx, ecx
	mov	ecx, r11d
	shl	ecx, 15
	and	ecx, 537001984
	mov	eax, edx
	and	eax, ecx
	xor	ecx, edx
	or	ecx, eax
	mov	edx, r11d
	shl	edx, 11
	not	edx
	or	edx, -1048577
	mov	eax, ecx
	not	eax
	mov	esi, eax
	and	esi, -1841440958
	and	ecx, 1841440957
	or	ecx, esi
	or	eax, edx
	and	edx, -1841440958
	xor	edx, ecx
	not	eax
	or	eax, edx
	mov	r14d, r11d
	shl	r14d, 10
	not	r14d
	mov	ecx, r14d
	or	ecx, -134217729
	mov	edx, eax
	not	edx
	mov	esi, edx
	and	esi, -832492912
	and	eax, 832492911
	or	eax, esi
	or	edx, ecx
	and	ecx, -832492912
	xor	ecx, eax
	not	edx
	or	edx, ecx
	mov	eax, r11d
	shr	eax, 6
	and	eax, 262144
	mov	ecx, edx
	and	ecx, eax
	xor	eax, edx
	or	eax, ecx
	mov	edx, r11d
	shr	edx, 4
	and	edx, 65536
	mov	ecx, eax
	and	ecx, edx
	xor	edx, eax
	or	edx, ecx
	lea	eax, [8*r11]
	mov	ecx, eax
	not	ecx
	and	eax, 524288
	mov	esi, edx
	not	esi
	or	ecx, esi
	not	ecx
	and	esi, 1832213384
	and	edx, -1832213385
	or	edx, esi
	or	eax, 1832213384
	xor	eax, edx
	and	ecx, 524288
	or	ecx, eax
	mov	edx, r11d
	shr	edx, 2
	mov	eax, edx
	xor	eax, 1040187391
	and	eax, edx
	mov	edx, ecx
	and	edx, eax
	xor	eax, ecx
	or	eax, edx
	lea	ecx, [r11 + r11]
	mov	edx, ecx
	xor	edx, -16777218
	and	edx, ecx
	mov	edi, eax
	not	edi
	mov	ecx, edx
	not	ecx
	mov	esi, edi
	and	esi, -1721285266
	and	eax, 1721285265
	or	eax, esi
	or	edi, ecx
	and	ecx, -1721285266
	and	edx, 1721285264
	or	edx, ecx
	xor	edx, eax
	not	edi
	or	edi, edx
	mov	ebp, r12d
	shl	ebp, 8
	mov	eax, r12d
	shl	eax, 7
	mov	edx, eax
	xor	edx, -384
	and	edx, eax
	lea	eax, [4*r12]
	mov	ecx, eax
	xor	ecx, -8
	and	ecx, eax
	mov	esi, r12d
	and	esi, 512
	mov	eax, r12d
	shr	eax, 2
	mov	ebx, eax
	xor	ebx, 1073733631
	and	ebx, eax
	mov	eax, r12d
	shr	eax, 9
	mov	r13d, eax
	xor	r13d, 8387583
	and	r13d, eax
	mov	eax, r12d
	shr	eax, 21
	mov	r15d, eax
	xor	r15d, 2045
	and	r15d, eax
	mov	eax, edi
	and	eax, esi
	xor	esi, edi
	mov	edi, ebp
	not	edi
	or	esi, eax
	mov	eax, esi
	not	eax
	or	edi, eax
	and	eax, -2078028295
	and	esi, 2078028294
	or	esi, eax
	and	ebp, 4096
	or	ebp, -2078028295
	xor	ebp, esi
	mov	r9d, r11d
	not	edi
	and	edi, 4096
	or	edi, ebp
	mov	eax, edi
	and	eax, edx
	xor	edi, edx
	or	edi, eax
	mov	edx, edi
	not	edx
	mov	eax, edx
	and	eax, -218654793
	and	edi, 218654792
	or	edi, eax
	mov	eax, ecx
	not	eax
	or	edx, eax
	and	eax, -218654793
	and	ecx, 218654792
	or	ecx, eax
	mov	r10d, r12d
	shr	r10d, 3
	xor	ecx, edi
	not	edx
	or	edx, ecx
	mov	ecx, edx
	not	ecx
	mov	eax, ecx
	and	eax, -459913033
	and	edx, 459913032
	or	edx, eax
	mov	eax, ebx
	not	eax
	or	ecx, eax
	and	eax, -459913033
	and	ebx, 459913032
	or	ebx, eax
	mov	eax, r10d
	xor	eax, 536870894
	and	eax, r10d
	xor	ebx, edx
	mov	esi, r12d
	shr	esi, 7
	not	esi
	or	esi, -33
	not	ecx
	or	ecx, ebx
	mov	edx, ecx
	and	edx, eax
	xor	ecx, eax
	or	ecx, edx
	mov	edi, ecx
	not	edi
	mov	eax, edi
	and	eax, -121943625
	and	ecx, 121943624
	or	ecx, eax
	mov	edx, r12d
	shr	edx, 14
	or	edi, esi
	and	esi, -121943625
	xor	esi, ecx
	not	edi
	or	edi, esi
	mov	eax, edi
	and	eax, r13d
	xor	edi, r13d
	or	edi, eax
	mov	ebx, edi
	not	ebx
	mov	eax, ebx
	and	eax, 2116848688
	and	edi, -2116848689
	or	edi, eax
	mov	ebp, edx
	mov	r13d, edx
	xor	r13d, 261631
	and	r13d, edx
	not	edx
	or	edx, -2057
	or	ebx, edx
	and	edx, 2116848688
	and	ebp, 8
	or	ebp, edx
	xor	ebp, edi
	not	ebx
	or	ebx, ebp
	mov	edx, ebx
	not	edx
	mov	eax, r15d
	not	eax
	mov	esi, edx
	and	esi, -451862089
	and	ebx, 451862088
	or	ebx, esi
	or	edx, eax
	and	eax, -451862089
	and	r15d, 1608
	or	r15d, eax
	xor	r15d, ebx
	not	edx
	or	edx, r15d
	mov	r15, qword ptr [rsp - 80]
	mov	dword ptr [r8 + 8*r15], edx
	mov	edx, r11d
	shl	edx, 28
	mov	esi, edx
	xor	esi, -536870912
	and	esi, edx
	mov	edx, r11d
	shl	edx, 18
	mov	edi, edx
	not	edi
	or	edi, 359672120
	mov	ebx, esi
	not	ebx
	and	ebx, 393226552
	and	esi, -536870912
	or	esi, ebx
	and	edi, 393226552
	and	edx, 524288
	or	edx, edi
	xor	edx, esi
	mov	esi, r11d
	shl	esi, 14
	mov	edi, esi
	not	edi
	and	esi, 134217728
	mov	ebx, edx
	not	ebx
	or	edi, ebx
	not	edi
	and	ebx, -1070449433
	and	edx, 839385088
	or	edx, ebx
	or	esi, -1070449433
	xor	esi, edx
	and	edi, 134217728
	or	edi, esi
	or	r14d, -262145
	mov	edx, edi
	not	edx
	mov	esi, edx
	and	esi, -69237461
	and	edi, 69220564
	or	edi, esi
	or	edx, r14d
	and	r14d, -69237461
	xor	r14d, edi
	not	edx
	or	edx, r14d
	mov	esi, r11d
	shl	esi, 9
	and	esi, 2097152
	mov	edi, edx
	and	edi, esi
	xor	esi, edx
	or	esi, edi
	mov	edx, r11d
	shl	edx, 6
	mov	edi, edx
	xor	edi, -16777280
	and	edi, edx
	mov	edx, esi
	and	edx, edi
	xor	edi, esi
	or	edi, edx
	mov	edx, r11d
	shl	edx, 4
	mov	esi, edx
	xor	esi, -603979792
	and	esi, edx
	mov	edx, edi
	and	edx, esi
	xor	esi, edi
	or	esi, edx
	lea	edx, [4*r11]
	and	edx, 131072
	mov	edi, esi
	and	edi, edx
	xor	edx, esi
	or	edx, edi
	mov	esi, r11d
	shr	esi
	mov	edi, esi
	xor	edi, 2146435071
	and	edi, esi
	mov	esi, edx
	and	esi, edi
	xor	edi, edx
	or	edi, esi
	shr	r11d, 10
	mov	esi, r11d
	xor	esi, 4128767
	and	esi, r11d
	mov	edx, edi
	and	edx, esi
	xor	esi, edi
	or	esi, edx
	mov	edx, r12d
	shl	edx, 6
	mov	ebp, edx
	xor	ebp, -2112
	and	ebp, edx
	mov	ebx, r12d
	xor	ebx, -257
	and	ebx, r12d
	mov	eax, r10d
	xor	eax, 536870903
	and	eax, r10d
	mov	edx, r12d
	shr	edx, 13
	mov	r10d, edx
	xor	r10d, 516095
	and	r10d, edx
	mov	edx, r12d
	shr	edx, 24
	mov	edi, edx
	xor	edi, 254
	and	edi, edx
	mov	edx, esi
	and	edx, ebx
	xor	ebx, esi
	mov	ecx, r12d
	shr	ecx
	or	ebx, edx
	mov	edx, ebx
	and	edx, ebp
	xor	ebx, ebp
	mov	esi, ecx
	not	esi
	or	ebx, edx
	mov	edx, ebx
	not	edx
	or	esi, edx
	and	edx, 2070149673
	and	ebx, -2070149674
	or	ebx, edx
	and	ecx, 1024
	or	ecx, 2070149673
	xor	ecx, ebx
	not	esi
	and	esi, 1024
	or	esi, ecx
	mov	ecx, esi
	and	ecx, eax
	xor	esi, eax
	mov	eax, r12d
	shr	eax, 4
	and	eax, 4096
	or	esi, ecx
	mov	ecx, esi
	and	ecx, eax
	xor	esi, eax
	mov	eax, r12d
	shr	eax, 5
	and	eax, 32
	or	esi, ecx
	mov	ecx, esi
	and	ecx, eax
	xor	esi, eax
	mov	eax, r12d
	shr	eax, 10
	and	eax, 16
	or	esi, ecx
	mov	ecx, esi
	and	ecx, eax
	xor	esi, eax
	or	esi, ecx
	mov	eax, esi
	and	eax, r10d
	xor	esi, r10d
	or	esi, eax
	mov	eax, esi
	and	eax, r13d
	xor	esi, r13d
	mov	ecx, r12d
	shr	ecx, 18
	and	ecx, 4
	or	esi, eax
	mov	eax, esi
	and	eax, ecx
	xor	esi, ecx
	or	esi, eax
	mov	eax, esi
	not	eax
	mov	ecx, eax
	and	ecx, -2122262499
	and	esi, 2122262498
	or	esi, ecx
	mov	ecx, edi
	not	ecx
	or	eax, ecx
	and	ecx, -2122262499
	and	edi, 226
	or	edi, ecx
	xor	edi, esi
	mov	ecx, r12d
	xor	ecx, -268435456
	and	ecx, r12d
	shr	r12d, 26
	and	r12d, 2
	not	eax
	or	eax, edi
	mov	edx, eax
	and	edx, r12d
	xor	eax, r12d
	or	eax, edx
	mov	dword ptr [r8 + 8*r15 + 4], eax
	and	r9d, 268435455
	mov	dword ptr [rsp - 100], r9d 
	mov	rax, qword ptr [rsp - 80]
	movabs	rdx, 1939926780268278673
	lea	rax, [rax + rdx + 1]
	sub	rax, rdx
.LBB12_1:                               

	mov	edx, 1508040723
	jmp	.LBB12_2
.LBB12_5:                               
	mov	qword ptr [rsp - 80], rax
	mov	dword ptr [rsp - 88], ecx
	mov	edx, dword ptr [rsp - 100] 
	mov	dword ptr [rsp - 84], edx
	mov	rdx, qword ptr [rsp - 80]
	cmp	rdx, 16
	mov	edx, -1208245362
	mov	esi, 1936364302
	cmove	edx, esi
	.p2align	4, 0x90
.LBB12_2:                               

	cmp	edx, -1208245362
	je	.LBB12_7

	cmp	edx, 1936364302
	je	.LBB12_6

	cmp	edx, 1508040723
	jne	.LBB12_2
	jmp	.LBB12_5
.LBB12_6:
	pop	rbx
	pop	r12
	pop	r13
	pop	r14
	pop	r15
	pop	rbp
	ret
.Lfunc_end12:
	.size	_ZN5Botan12_GLOBAL__N_116des_key_scheduleEPjPKh, .Lfunc_end12-_ZN5Botan12_GLOBAL__N_116des_key_scheduleEPjPKh

	.globl	_ZN5Botan3DES5clearEv   
	.p2align	4, 0x90
	.type	_ZN5Botan3DES5clearEv,@function
_ZN5Botan3DES5clearEv:                  
	.cfi_startproc

	add	rdi, 8
	jmp	_ZN5Botan3zapIjNS_16secure_allocatorIjEEEEvRSt6vectorIT_T0_E 
.Lfunc_end13:
	.size	_ZN5Botan3DES5clearEv, .Lfunc_end13-_ZN5Botan3DES5clearEv
	.cfi_endproc

	.section	.text._ZN5Botan3zapIjNS_16secure_allocatorIjEEEEvRSt6vectorIT_T0_E,"axG",@progbits,_ZN5Botan3zapIjNS_16secure_allocatorIjEEEEvRSt6vectorIT_T0_E,comdat
	.weak	_ZN5Botan3zapIjNS_16secure_allocatorIjEEEEvRSt6vectorIT_T0_E 
	.p2align	4, 0x90
	.type	_ZN5Botan3zapIjNS_16secure_allocatorIjEEEEvRSt6vectorIT_T0_E,@function
_ZN5Botan3zapIjNS_16secure_allocatorIjEEEEvRSt6vectorIT_T0_E: 
	.cfi_startproc

	push	rbp
.Lcfi74:
	.cfi_def_cfa_offset 16
	push	r15
.Lcfi75:
	.cfi_def_cfa_offset 24
	push	r14
.Lcfi76:
	.cfi_def_cfa_offset 32
	push	rbx
.Lcfi77:
	.cfi_def_cfa_offset 40
	push	rax
.Lcfi78:
	.cfi_def_cfa_offset 48
.Lcfi79:
	.cfi_offset rbx, -40
.Lcfi80:
	.cfi_offset r14, -32
.Lcfi81:
	.cfi_offset r15, -24
.Lcfi82:
	.cfi_offset rbp, -16
	mov	rbp, rdi
	call	_ZN5Botan7zeroiseIjNS_16secure_allocatorIjEEEEvRSt6vectorIT_T0_E
	mov	rdi, rbp
	call	_ZNSt6vectorIjN5Botan16secure_allocatorIjEEE5clearEv
	mov	eax, dword ptr [rip + x.473]
	lea	ecx, [rax - 1]
	imul	ecx, eax
	mov	eax, ecx
	xor	eax, -2
	test	eax, ecx
	sete	byte ptr [rsp + 6]
	mov	eax, dword ptr [rip + y.474]
	cmp	eax, 10
	setl	byte ptr [rsp + 7]
	mov	eax, 152110539
	mov	r14d, -1094985338
	mov	r15d, -1750537663
	jmp	.LBB14_1
.LBB14_7:                               
	movzx	ecx, byte ptr [rsp + 6]
	movzx	eax, byte ptr [rsp + 7]
	mov	edx, ecx
	xor	dl, al
	mov	edx, 543151152
	cmovne	edx, r15d
	test	al, al
	mov	eax, edx
	cmovne	eax, r15d
	test	cl, cl
	cmove	eax, edx
	.p2align	4, 0x90
.LBB14_1:                               
	cmp	eax, 152110538
	jg	.LBB14_5

	cmp	eax, -1750537663
	je	.LBB14_8

	cmp	eax, -1094985338
	jne	.LBB14_1
	jmp	.LBB14_4
	.p2align	4, 0x90
.LBB14_5:                               
	cmp	eax, 543151152
	je	.LBB14_9

	cmp	eax, 152110539
	jne	.LBB14_1
	jmp	.LBB14_7
.LBB14_8:                               
	mov	rdi, rbp
	call	_ZNSt6vectorIjN5Botan16secure_allocatorIjEEE16_M_shrink_to_fitEv
	mov	eax, dword ptr [rip + x.473]
	mov	ecx, dword ptr [rip + y.474]
	lea	edx, [rax - 1]
	imul	edx, eax
	mov	eax, edx
	xor	eax, -2
	and	eax, edx
	sete	dl
	cmp	ecx, 10
	setl	bl
	xor	bl, dl
	mov	edx, 543151152
	cmovne	edx, r14d
	test	eax, eax
	mov	eax, edx
	cmove	eax, r14d
	cmp	ecx, 10
	cmovge	eax, edx
	jmp	.LBB14_1
.LBB14_9:                               
	mov	rdi, rbp
	call	_ZNSt6vectorIjN5Botan16secure_allocatorIjEEE16_M_shrink_to_fitEv
	mov	eax, -1750537663
	jmp	.LBB14_1
.LBB14_4:
	add	rsp, 8
	pop	rbx
	pop	r14
	pop	r15
	pop	rbp
	ret
.Lfunc_end14:
	.size	_ZN5Botan3zapIjNS_16secure_allocatorIjEEEEvRSt6vectorIT_T0_E, .Lfunc_end14-_ZN5Botan3zapIjNS_16secure_allocatorIjEEEEvRSt6vectorIT_T0_E
	.cfi_endproc

	.text
	.globl	_ZNK5Botan9TripleDES9encrypt_nEPKhPhm 
	.p2align	4, 0x90
	.type	_ZNK5Botan9TripleDES9encrypt_nEPKhPhm,@function
_ZNK5Botan9TripleDES9encrypt_nEPKhPhm:  
	.cfi_startproc

	push	rbp
.Lcfi83:
	.cfi_def_cfa_offset 16
	push	r15
.Lcfi84:
	.cfi_def_cfa_offset 24
	push	r14
.Lcfi85:
	.cfi_def_cfa_offset 32
	push	r13
.Lcfi86:
	.cfi_def_cfa_offset 40
	push	r12
.Lcfi87:
	.cfi_def_cfa_offset 48
	push	rbx
.Lcfi88:
	.cfi_def_cfa_offset 56
	sub	rsp, 200
.Lcfi89:
	.cfi_def_cfa_offset 256
.Lcfi90:
	.cfi_offset rbx, -56
.Lcfi91:
	.cfi_offset r12, -48
.Lcfi92:
	.cfi_offset r13, -40
.Lcfi93:
	.cfi_offset r14, -32
.Lcfi94:
	.cfi_offset r15, -24
.Lcfi95:
	.cfi_offset rbp, -16
	mov	r12, rcx
	mov	qword ptr [rsp + 112], rdx 
	mov	qword ptr [rsp + 104], rsi 
	mov	r14, rdi
	lea	rax, [r14 + 8]
	mov	qword ptr [rsp + 56], rax
	mov	rbp, qword ptr [rsp + 56]
	mov	rdi, rbp
	call	_ZNKSt6vectorIjN5Botan16secure_allocatorIjEEE5beginEv
	mov	rbx, rax
	mov	rdi, rbp
	call	_ZNKSt6vectorIjN5Botan16secure_allocatorIjEEE3endEv
	xor	esi, esi
	cmp	rbx, rax
	setne	sil
	mov	rdi, r14
	call	_ZNK5Botan18SymmetricAlgorithm14verify_key_setEb
	mov	eax, -1659107400
	mov	r14d, 1168054530
	mov	r10d, -1106862460
	mov	r11d, -1169115405
	lea	r15, [rsp + 28]






	jmp	.LBB15_1
.LBB15_45:                              
	cmovge	eax, edi
	xor	dl, cl
	cmovne	eax, esi
	.p2align	4, 0x90
.LBB15_1:                               




















	cmp	eax, 704327569
	jle	.LBB15_2

	cmp	eax, 1456623846
	jle	.LBB15_23

	cmp	eax, 1961775606
	jle	.LBB15_31

	cmp	eax, 1961775607
	je	.LBB15_79

	cmp	eax, 2010755221
	je	.LBB15_125

	cmp	eax, 2075781290
	jne	.LBB15_1

	mov	r8, qword ptr [rsp + 80]
	mov	eax, dword ptr [rip + x.13]
	mov	ebp, dword ptr [rip + y.14]
	lea	esi, [rax - 1]
	imul	esi, eax
	mov	eax, esi
	not	eax
	or	eax, -2
	and	esi, 1
	cmp	eax, -1
	sete	bl
	sete	byte ptr [rsp + 20]
	mov	eax, -1106862460
	cmove	eax, r14d
	cmp	ebp, 10
	setl	dl
	setl	byte ptr [rsp + 24]
	cmovge	eax, r10d
	xor	dl, bl
	cmovne	eax, r14d
	mov	edi, -1924553818
	jmp	.LBB15_38
	.p2align	4, 0x90
.LBB15_2:                               
	cmp	eax, -1542353863
	jle	.LBB15_3

	cmp	eax, -1051815091
	jle	.LBB15_11

	cmp	eax, -1051815090
	je	.LBB15_42

	cmp	eax, 281879272
	je	.LBB15_127

	cmp	eax, -755737775
	jne	.LBB15_1
	jmp	.LBB15_21
	.p2align	4, 0x90
.LBB15_23:                              
	cmp	eax, 838722127
	jg	.LBB15_27

	cmp	eax, 704327570
	je	.LBB15_80

	cmp	eax, 791111418
	jne	.LBB15_1

	cmp	qword ptr [rsp + 48], 0
	setne	byte ptr [rsp + 47]
	mov	eax, dword ptr [rip + x.47]
	mov	ecx, eax
	neg	ecx
	not	ecx
	imul	ecx, eax
	not	ecx
	or	ecx, -2
	cmp	ecx, -1
	sete	cl
	mov	eax, -1718613049
	mov	esi, 1961775607
	cmove	eax, esi
	cmp	dword ptr [rip + y.48], 10
	setl	dl
	mov	edi, -1718613049
	jmp	.LBB15_45
	.p2align	4, 0x90
.LBB15_3:                               
	cmp	eax, -1718613050
	jg	.LBB15_7

	cmp	eax, -1803339918
	je	.LBB15_44

	cmp	eax, -1720041097
	jne	.LBB15_1

	mov	rax, qword ptr [rsp + 152]
	mov	qword ptr [rsp + 104], rax 
	mov	rax, qword ptr [rsp + 160]
	mov	qword ptr [rsp + 112], rax 
	mov	r12, qword ptr [rsp + 168]
	mov	eax, -1659107400
	jmp	.LBB15_1
.LBB15_31:                              
	cmp	eax, 1456623847
	je	.LBB15_126

	cmp	eax, 1560071103
	jne	.LBB15_1

	mov	al, byte ptr [rsp + 46]
	test	al, al
	mov	eax, -1542353862
	mov	ecx, -1803339918
	cmovne	eax, ecx
	jmp	.LBB15_1
.LBB15_11:                              
	cmp	eax, -1542353862
	je	.LBB15_78

	cmp	eax, -1139135945
	jne	.LBB15_1

	mov	rdi, qword ptr [rsp + 64]
	mov	eax, dword ptr [rip + x.13]
	mov	r8d, dword ptr [rip + y.14]
	lea	edx, [rax - 1]
	imul	edx, eax
	mov	esi, edx
	xor	esi, -2
	mov	eax, esi
	and	eax, edx
	sete	byte ptr [rsp + 16]
	sete	bl
	test	eax, eax
	mov	ebp, -1106862460
	cmove	ebp, r14d
	cmp	r8d, 10
	setl	al
	setl	byte ptr [rsp + 20]
	cmovge	ebp, r10d
	xor	al, bl
	cmovne	ebp, r14d
	mov	eax, -1924553818
	jmp	.LBB15_14
.LBB15_27:                              
	cmp	eax, 838722128
	je	.LBB15_81

	cmp	eax, 888427556
	jne	.LBB15_1

	mov	eax, dword ptr [rip + x.47]
	mov	ecx, dword ptr [rip + y.48]
	lea	edx, [rax - 1]
	imul	edx, eax
	mov	eax, edx
	xor	eax, -2
	and	eax, edx
	sete	dl
	cmp	ecx, 10
	setl	bl
	xor	bl, dl
	mov	edx, -1718613049
	mov	esi, 791111418
	cmovne	edx, esi
	test	eax, eax
	mov	eax, edx
	cmove	eax, esi
	cmp	ecx, 10
	mov	rcx, qword ptr [rsp + 120] 
	mov	qword ptr [rsp + 48], rcx
	mov	rcx, qword ptr [rsp + 128] 
	mov	qword ptr [rsp + 96], rcx
	mov	rcx, qword ptr [rsp + 136] 
	mov	qword ptr [rsp + 80], rcx
	cmovge	eax, edx
	jmp	.LBB15_1
.LBB15_7:                               
	cmp	eax, -1718613049
	je	.LBB15_164

	cmp	eax, -1659107400
	jne	.LBB15_1

	mov	qword ptr [rsp + 72], r12
	mov	rax, qword ptr [rsp + 112] 
	mov	qword ptr [rsp + 88], rax
	mov	rax, qword ptr [rsp + 104] 
	mov	qword ptr [rsp + 64], rax
	mov	eax, dword ptr [rip + x.47]
	lea	ecx, [rax - 1]
	imul	ecx, eax
	mov	eax, ecx
	xor	eax, -2
	and	eax, ecx
	sete	cl
	test	eax, eax
	mov	eax, 1456623847
	mov	esi, -1051815090
	cmove	eax, esi
	cmp	dword ptr [rip + y.48], 10
	setl	dl
	mov	edi, 1456623847
	jmp	.LBB15_45
.LBB15_79:                              
	mov	al, byte ptr [rsp + 47]
	test	al, al
	mov	eax, -755737775
	mov	ecx, 704327570
	cmovne	eax, ecx
	jmp	.LBB15_1
.LBB15_125:                             
	mov	rax, qword ptr [rsp + 176]
	mov	qword ptr [rsp + 136], rax 
	mov	rax, qword ptr [rsp + 184]
	mov	qword ptr [rsp + 128], rax 
	mov	eax, 888427556
	mov	rcx, qword ptr [rsp + 192]
	mov	qword ptr [rsp + 120], rcx 
	jmp	.LBB15_1
.LBB15_172:                             
	movzx	ecx, byte ptr [rsp + 20]
	movzx	ebx, byte ptr [rsp + 24]
	mov	edx, ecx
	xor	dl, bl
	test	bl, bl
	mov	edi, -1106862460
	cmovne	edi, r11d
	test	cl, cl
	cmove	edi, r10d
	test	dl, dl
	cmovne	edi, r11d
	.p2align	4, 0x90
.LBB15_38:                              

	cmp	edi, -1106862461
	jle	.LBB15_39

	cmp	edi, -1106862460
	je	.LBB15_173

	cmp	edi, 1168054530
	jne	.LBB15_38
	jmp	.LBB15_167
	.p2align	4, 0x90
.LBB15_39:                              
	cmp	edi, -1924553818
	je	.LBB15_172

	cmp	edi, -1169115405
	jne	.LBB15_38

	mov	ecx, dword ptr [r8]
	bswap	ecx
	mov	dword ptr [rsp + 32], ecx
	mov	edi, eax
	jmp	.LBB15_38
.LBB15_173:                             
	mov	edi, -1169115405
	jmp	.LBB15_38
.LBB15_42:                              
	mov	rax, qword ptr [rsp + 72]
	cmp	rax, 1
	seta	byte ptr [rsp + 46]
	mov	eax, dword ptr [rip + x.47]
	lea	ecx, [rax - 1]
	imul	ecx, eax
	not	ecx
	or	ecx, -2
	cmp	ecx, -1
	sete	cl
	mov	eax, 1456623847
	mov	edi, 1560071103
	cmove	eax, edi
	cmp	dword ptr [rip + y.48], 10
	setl	dl
	mov	esi, 1456623847
	jmp	.LBB15_43
.LBB15_127:                             
	mov	rsi, qword ptr [rsp + 64]
	mov	eax, dword ptr [rip + x.13]
	mov	r8d, dword ptr [rip + y.14]
	lea	ebp, [rax - 1]
	imul	ebp, eax
	mov	eax, ebp
	not	eax
	or	eax, -2
	and	ebp, 1
	cmp	eax, -1
	sete	bl
	sete	byte ptr [rsp + 16]
	mov	eax, -1106862460
	cmove	eax, r14d
	cmp	r8d, 10
	setl	cl
	setl	byte ptr [rsp + 20]
	cmovge	eax, r10d
	xor	cl, bl
	cmovne	eax, r14d
	mov	edi, -1924553818
	jmp	.LBB15_128
.LBB15_80:                              
	mov	eax, dword ptr [rip + x.47]
	mov	ecx, eax
	neg	ecx
	not	ecx
	imul	ecx, eax
	mov	eax, ecx
	xor	eax, -2
	and	eax, ecx
	sete	cl
	test	eax, eax
	mov	eax, 2075781290
	mov	esi, 838722128
	cmove	eax, esi
	cmp	dword ptr [rip + y.48], 10
	setl	dl
	mov	edi, 2075781290
	jmp	.LBB15_45
.LBB15_44:                              
	mov	eax, dword ptr [rip + x.47]
	lea	ecx, [rax - 1]
	imul	ecx, eax
	not	ecx
	or	ecx, -2
	cmp	ecx, -1
	sete	cl
	mov	eax, 281879272
	mov	esi, -1139135945
	cmove	eax, esi
	cmp	dword ptr [rip + y.48], 10
	setl	dl
	mov	edi, 281879272
	jmp	.LBB15_45
.LBB15_126:                             
	mov	rax, qword ptr [rsp + 72]
	mov	eax, -1051815090
	jmp	.LBB15_1
.LBB15_78:                              
	mov	rax, qword ptr [rsp + 64]
	mov	qword ptr [rsp + 136], rax 
	mov	rax, qword ptr [rsp + 88]
	mov	qword ptr [rsp + 128], rax 
	mov	eax, 888427556
	mov	rcx, qword ptr [rsp + 72]
	mov	qword ptr [rsp + 120], rcx 
	jmp	.LBB15_1
.LBB15_53:                              
	movzx	ecx, byte ptr [rsp + 16]
	movzx	eax, byte ptr [rsp + 20]
	mov	ebx, ecx
	xor	bl, al
	mov	ebx, -1106862460
	cmovne	ebx, r11d
	test	al, al
	mov	eax, ebx
	cmovne	eax, r11d
	test	cl, cl
	cmove	eax, ebx
	.p2align	4, 0x90
.LBB15_14:                              

	cmp	eax, -1106862461
	jle	.LBB15_15

	cmp	eax, -1106862460
	je	.LBB15_54

	cmp	eax, 1168054530
	jne	.LBB15_14
	jmp	.LBB15_48
	.p2align	4, 0x90
.LBB15_15:                              
	cmp	eax, -1924553818
	je	.LBB15_53

	cmp	eax, -1169115405
	jne	.LBB15_14

	mov	eax, dword ptr [rdi]
	bswap	eax
	mov	dword ptr [rsp + 32], eax
	mov	eax, ebp
	jmp	.LBB15_14
.LBB15_54:                              
	mov	eax, -1169115405
	jmp	.LBB15_14
.LBB15_81:                              
	mov	r8, qword ptr [rsp + 80]
	mov	eax, dword ptr [rip + x.13]
	mov	r9d, dword ptr [rip + y.14]
	mov	esi, eax
	neg	esi
	not	esi
	imul	esi, eax
	mov	edi, esi
	xor	edi, -2
	mov	eax, edi
	and	eax, esi
	sete	byte ptr [rsp + 20]
	sete	bl
	test	eax, eax
	mov	eax, -1106862460
	cmove	eax, r14d
	cmp	r9d, 10
	setl	dl
	setl	byte ptr [rsp + 24]
	cmovge	eax, r10d
	xor	dl, bl
	cmovne	eax, r14d
	mov	ebp, -1924553818
	jmp	.LBB15_82
.LBB15_164:                             
	mov	rax, qword ptr [rsp + 48]
	mov	eax, 791111418
	jmp	.LBB15_1
.LBB15_167:                             
	test	esi, esi
	mov	ecx, dword ptr [rsp + 32]
	mov	dword ptr [rsp + 12], ecx
	mov	rsi, qword ptr [rsp + 80]
	sete	byte ptr [rsp + 20]
	cmp	ebp, 10
	setl	byte ptr [rsp + 24]
	mov	ecx, -1924553818
	jmp	.LBB15_168
.LBB15_139:                             
	movzx	edx, byte ptr [rsp + 16]
	movzx	ebx, byte ptr [rsp + 20]
	mov	ecx, edx
	xor	cl, bl
	mov	ecx, -1106862460
	cmovne	ecx, r11d
	test	bl, bl
	mov	edi, ecx
	cmovne	edi, r11d
	test	dl, dl
	cmove	edi, ecx
	.p2align	4, 0x90
.LBB15_128:                             

	cmp	edi, -1106862461
	jle	.LBB15_129

	cmp	edi, -1106862460
	je	.LBB15_140

	cmp	edi, 1168054530
	jne	.LBB15_128
	jmp	.LBB15_134
	.p2align	4, 0x90
.LBB15_129:                             
	cmp	edi, -1924553818
	je	.LBB15_139

	cmp	edi, -1169115405
	jne	.LBB15_128

	mov	ecx, dword ptr [rsi]
	bswap	ecx
	mov	dword ptr [rsp + 32], ecx
	mov	edi, eax
	jmp	.LBB15_128
.LBB15_140:                             
	mov	edi, -1169115405
	jmp	.LBB15_128
.LBB15_48:                              
	test	esi, edx
	mov	eax, dword ptr [rsp + 32]
	mov	dword ptr [rsp + 24], eax
	mov	rdi, qword ptr [rsp + 64]
	sete	byte ptr [rsp + 12]
	cmp	r8d, 10
	setl	byte ptr [rsp + 16]
	mov	eax, -1924553818
	jmp	.LBB15_49
.LBB15_93:                              
	movzx	ecx, byte ptr [rsp + 20]
	movzx	ebx, byte ptr [rsp + 24]
	mov	edx, ecx
	xor	dl, bl
	mov	edx, -1106862460
	cmovne	edx, r11d
	test	bl, bl
	mov	ebp, edx
	cmovne	ebp, r11d
	test	cl, cl
	cmove	ebp, edx
	.p2align	4, 0x90
.LBB15_82:                              

	cmp	ebp, -1106862461
	jle	.LBB15_83

	cmp	ebp, -1106862460
	je	.LBB15_94

	cmp	ebp, 1168054530
	jne	.LBB15_82
	jmp	.LBB15_88
	.p2align	4, 0x90
.LBB15_83:                              
	cmp	ebp, -1924553818
	je	.LBB15_93

	cmp	ebp, -1169115405
	jne	.LBB15_82

	mov	ecx, dword ptr [r8]
	bswap	ecx
	mov	dword ptr [rsp + 32], ecx
	mov	ebp, eax
	jmp	.LBB15_82
.LBB15_94:                              
	mov	ebp, -1169115405
	jmp	.LBB15_82
.LBB15_182:                             
	movzx	edx, byte ptr [rsp + 20]
	movzx	ecx, byte ptr [rsp + 24]
	mov	ebx, edx
	xor	bl, cl
	test	cl, cl
	mov	ecx, -1106862460
	cmovne	ecx, r11d
	test	dl, dl
	cmove	ecx, r10d
	test	bl, bl
	cmovne	ecx, r11d
	.p2align	4, 0x90
.LBB15_168:                             

	cmp	ecx, -1106862461
	jle	.LBB15_169

	cmp	ecx, -1106862460
	je	.LBB15_183

	cmp	ecx, 1168054530
	jne	.LBB15_168
	jmp	.LBB15_176
	.p2align	4, 0x90
.LBB15_169:                             
	cmp	ecx, -1924553818
	je	.LBB15_182

	cmp	ecx, -1169115405
	jne	.LBB15_168

	mov	ecx, dword ptr [rsi + 4]
	bswap	ecx
	mov	dword ptr [rsp + 32], ecx
	mov	ecx, eax
	jmp	.LBB15_168
.LBB15_183:                             
	mov	ecx, -1169115405
	jmp	.LBB15_168
.LBB15_134:                             
	test	ebp, ebp
	mov	ecx, dword ptr [rsp + 32]
	mov	dword ptr [rsp + 24], ecx
	mov	rsi, qword ptr [rsp + 64]
	sete	byte ptr [rsp + 12]
	cmp	r8d, 10
	setl	byte ptr [rsp + 16]
	mov	edi, -1924553818
	jmp	.LBB15_135
.LBB15_62:                              
	movzx	ebx, byte ptr [rsp + 12]
	movzx	eax, byte ptr [rsp + 16]
	mov	ecx, ebx
	xor	cl, al
	test	al, al
	mov	eax, -1106862460
	cmovne	eax, r11d
	test	bl, bl
	cmove	eax, r10d
	test	cl, cl
	cmovne	eax, r11d
	.p2align	4, 0x90
.LBB15_49:                              

	cmp	eax, -1106862461
	jle	.LBB15_50

	cmp	eax, -1106862460
	je	.LBB15_63

	cmp	eax, 1168054530
	jne	.LBB15_49
	jmp	.LBB15_57
	.p2align	4, 0x90
.LBB15_50:                              
	cmp	eax, -1924553818
	je	.LBB15_62

	cmp	eax, -1169115405
	jne	.LBB15_49

	mov	eax, dword ptr [rdi + 4]
	bswap	eax
	mov	dword ptr [rsp + 32], eax
	mov	eax, ebp
	jmp	.LBB15_49
.LBB15_63:                              
	mov	eax, -1169115405
	jmp	.LBB15_49
.LBB15_88:                              
	test	edi, esi
	mov	ecx, dword ptr [rsp + 32]
	mov	dword ptr [rsp + 12], ecx
	mov	rsi, qword ptr [rsp + 80]
	sete	byte ptr [rsp + 20]
	cmp	r9d, 10
	setl	byte ptr [rsp + 24]
	mov	ecx, -1924553818
	jmp	.LBB15_89
.LBB15_176:                             
	mov	eax, dword ptr [rsp + 32]
	mov	dword ptr [rsp + 28], eax
	lea	rbx, [rsp + 12]
	mov	rdi, rbx
	mov	rsi, r15
	call	_ZN5Botan12_GLOBAL__N_16des_IPERjS1_
	mov	rax, qword ptr [rsp + 56]
	mov	rdx, qword ptr [rax]
	mov	rdi, rbx
	mov	rsi, r15
	call	_ZN5Botan12_GLOBAL__N_111des_encryptERjS1_PKj
	mov	rax, qword ptr [rsp + 56]
	mov	r8, qword ptr [rax]
	mov	r11d, dword ptr [rsp + 28]
	mov	eax, dword ptr [rsp + 12]
	mov	edx, 16
	jmp	.LBB15_177
.LBB15_148:                             
	movzx	ebx, byte ptr [rsp + 12]
	movzx	edx, byte ptr [rsp + 16]
	mov	ecx, ebx
	xor	cl, dl
	test	dl, dl
	mov	edi, -1106862460
	cmovne	edi, r11d
	test	bl, bl
	cmove	edi, r10d
	test	cl, cl
	cmovne	edi, r11d
	.p2align	4, 0x90
.LBB15_135:                             

	cmp	edi, -1106862461
	jle	.LBB15_136

	cmp	edi, -1106862460
	je	.LBB15_149

	cmp	edi, 1168054530
	jne	.LBB15_135
	jmp	.LBB15_143
	.p2align	4, 0x90
.LBB15_136:                             
	cmp	edi, -1924553818
	je	.LBB15_148

	cmp	edi, -1169115405
	jne	.LBB15_135

	mov	ecx, dword ptr [rsi + 4]
	bswap	ecx
	mov	dword ptr [rsp + 32], ecx
	mov	edi, eax
	jmp	.LBB15_135
.LBB15_149:                             
	mov	edi, -1169115405
	jmp	.LBB15_135
.LBB15_57:                              
	test	esi, edx
	mov	eax, dword ptr [rsp + 32]
	mov	dword ptr [rsp + 20], eax
	mov	rdi, qword ptr [rsp + 64]
	sete	byte ptr [rsp + 28]
	cmp	r8d, 10
	setl	byte ptr [rsp + 12]
	mov	eax, -1924553818
	jmp	.LBB15_58
.LBB15_103:                             
	movzx	edx, byte ptr [rsp + 20]
	movzx	ecx, byte ptr [rsp + 24]
	mov	ebx, edx
	xor	bl, cl
	test	cl, cl
	mov	ecx, -1106862460
	cmovne	ecx, r11d
	test	dl, dl
	cmove	ecx, r10d
	test	bl, bl
	cmovne	ecx, r11d
	.p2align	4, 0x90
.LBB15_89:                              

	cmp	ecx, -1106862461
	jle	.LBB15_90

	cmp	ecx, -1106862460
	je	.LBB15_104

	cmp	ecx, 1168054530
	jne	.LBB15_89
	jmp	.LBB15_97
	.p2align	4, 0x90
.LBB15_90:                              
	cmp	ecx, -1924553818
	je	.LBB15_103

	cmp	ecx, -1169115405
	jne	.LBB15_89

	mov	ecx, dword ptr [rsi + 4]
	bswap	ecx
	mov	dword ptr [rsp + 32], ecx
	mov	ecx, eax
	jmp	.LBB15_89
.LBB15_104:                             
	mov	ecx, -1169115405
	jmp	.LBB15_89
	.p2align	4, 0x90
.LBB15_200:                             
	mov	esi, dword ptr [rsp + 24]
	movabs	rax, 6998866268776206327
	mov	rcx, rax
	lea	rax, [r10 + rcx - 4]
	sub	rax, rcx
	mov	eax, dword ptr [r8 + 4*rax + 128]
	mov	ecx, eax
	not	ecx
	and	ecx, 1531026139
	and	eax, -1531026140
	or	eax, ecx
	mov	ecx, esi
	not	ecx
	and	ecx, 1531026139
	and	esi, -1531026140
	or	esi, ecx
	xor	esi, eax
	mov	eax, dword ptr [r8 + 4*r10 + 116]
	mov	ecx, eax
	not	ecx
	and	ecx, 1232046635
	and	eax, -1232046636
	or	eax, ecx
	mov	ecx, r11d
	not	ecx
	and	ecx, 1232046635
	mov	edx, r11d
	and	edx, -1232046636
	or	edx, ecx
	xor	edx, eax
	mov	edi, esi
	mov	eax, esi
	mov	ebp, esi
	xor	ebp, -64
	and	ebp, esi
	shr	esi, 24
	mov	ecx, esi
	xor	ecx, 192
	and	ecx, esi
	movzx	ecx, byte ptr [rcx + _ZN5Botan12_GLOBAL__N_1L10SPBOX_CATSE]
	imul	ecx, ecx, 1879314694
	mov	esi, edx
	shr	esi, 24
	mov	ebx, esi
	not	ebx
	or	ebx, 672613056
	and	ebx, 672613094
	and	esi, 25
	or	esi, ebx
	xor	esi, 672613030
	movzx	esi, byte ptr [rsi + _ZN5Botan12_GLOBAL__N_1L10SPBOX_CATSE]
	imul	ebx, esi, 33628192
	mov	esi, ebx
	not	esi
	or	esi, 1529283339
	and	esi, 1529283371
	and	ebx, -2146402304
	or	ebx, esi
	mov	esi, ecx
	not	esi
	or	esi, 1512440619
	and	esi, 1529283371
	and	ecx, 1028
	or	ecx, esi
	xor	ecx, ebx
	shr	edi, 16
	mov	esi, edi
	not	esi
	or	esi, 1827716992
	and	esi, 1827717022
	and	edi, 33
	or	edi, esi
	xor	edi, 1827716894
	movzx	esi, byte ptr [rdi + _ZN5Botan12_GLOBAL__N_1L10SPBOX_CATSE]
	imul	esi, esi, 9441352
	mov	edi, esi
	xor	edi, -134349328
	and	edi, esi
	mov	esi, ecx
	and	esi, edi
	xor	edi, ecx
	or	edi, esi
	mov	ecx, edx
	shr	ecx, 16
	mov	esi, ecx
	not	esi
	or	esi, -1070073664
	and	esi, -1070073652
	and	ecx, 51
	or	ecx, esi
	xor	ecx, -1070073844
	movzx	ecx, byte ptr [rcx + _ZN5Botan12_GLOBAL__N_1L10SPBOX_CATSE]
	imul	ecx, ecx, -1912208863
	mov	esi, ecx
	xor	esi, -8396930
	and	esi, ecx
	mov	ecx, edi
	not	ecx
	mov	ebx, ecx
	and	ebx, -582333771
	and	edi, 582333770
	or	edi, ebx
	mov	ebx, esi
	not	ebx
	or	ecx, ebx
	and	ebx, -582333771
	and	esi, 582333770
	or	esi, ebx
	xor	esi, edi
	not	ecx
	or	ecx, esi
	shr	eax, 8
	mov	esi, eax
	xor	esi, 16777152
	and	esi, eax
	mov	eax, esi
	and	eax, 256
	xor	esi, 256
	or	esi, eax
	movzx	eax, byte ptr [rsi + _ZN5Botan12_GLOBAL__N_1L10SPBOX_CATSE]
	imul	eax, eax, 9511232
	mov	esi, eax
	not	esi
	or	esi, -1107820801
	mov	edi, ecx
	not	edi
	mov	ebx, edi
	and	ebx, 1246646911
	and	ecx, -1246646912
	or	ecx, ebx
	or	edi, esi
	and	esi, 1246646911
	and	eax, 256
	or	eax, esi
	xor	eax, ecx
	not	edi
	or	edi, eax
	mov	eax, edx
	shr	eax, 8
	mov	ecx, eax
	xor	ecx, 16777152
	and	ecx, eax
	mov	eax, ecx
	not	eax
	and	eax, -1670059390
	mov	esi, ecx
	and	esi, 9115005
	or	esi, eax
	xor	esi, -1670059070
	and	ecx, 320
	or	ecx, esi
	movzx	eax, byte ptr [rcx + _ZN5Botan12_GLOBAL__N_1L10SPBOX_CATSE]
	imul	eax, eax, -2138828776
	mov	ecx, eax
	not	ecx
	or	ecx, -541081617
	mov	esi, edi
	not	esi
	mov	ebx, esi
	and	ebx, -289807977
	and	edi, 289807976
	or	edi, ebx
	or	esi, ecx
	and	ecx, -289807977
	and	eax, 4194304
	or	eax, ecx
	xor	eax, edi
	not	esi
	or	esi, eax
	mov	eax, ebp
	not	eax
	and	eax, 1073947938
	mov	ecx, ebp
	and	ecx, -1073947939
	or	ecx, eax
	xor	ecx, 1073947810
	and	ebp, 384
	or	ebp, ecx
	movzx	eax, byte ptr [rbp + _ZN5Botan12_GLOBAL__N_1L10SPBOX_CATSE]
	imul	ecx, eax, -535690750
	mov	edi, ecx
	not	edi
	or	edi, 1355605932
	or	edx, 448
	and	edx, 511
	movzx	eax, byte ptr [rdx + _ZN5Botan12_GLOBAL__N_1L10SPBOX_CATSE]
	imul	edx, eax, 2171456
	mov	eax, edx
	xor	eax, 805040000
	and	eax, edx
	mov	edx, dword ptr [rsp + 16]
	and	edi, 1424813996
	and	ecx, 2
	or	ecx, edi
	mov	edi, edx
	not	edi
	and	edi, 1424813996
	and	edx, -1424813997
	or	edx, edi
	xor	edx, ecx
	mov	ecx, edx
	not	ecx
	and	ecx, esi
	not	esi
	and	esi, edx
	or	esi, ecx
	mov	ecx, esi
	not	ecx
	and	ecx, eax
	not	eax
	and	eax, esi
	or	eax, ecx
	mov	rdx, qword ptr [rsp + 32]
	add	rdx, -2
.LBB15_177:                             




	mov	esi, 486280369
	jmp	.LBB15_178
.LBB15_181:                             
	mov	qword ptr [rsp + 32], rdx
	mov	dword ptr [rsp + 16], eax
	mov	dword ptr [rsp + 20], r11d
	cmp	qword ptr [rsp + 32], 0
	mov	esi, 1444008001
	mov	ecx, 922526255
	cmove	esi, ecx
	.p2align	4, 0x90
.LBB15_178:                             


	mov	edi, esi
	and	edi, 2147483647
	cmp	edi, 1444008001
	je	.LBB15_184

	cmp	edi, 922526255
	je	.LBB15_203

	cmp	edi, 486280369
	jne	.LBB15_178
	jmp	.LBB15_181
	.p2align	4, 0x90
.LBB15_184:                             
	mov	ebp, dword ptr [rsp + 16]
	mov	ecx, dword ptr [rip + x.111]
	mov	r9d, dword ptr [rip + y.112]
	lea	r14d, [rcx - 1]
	imul	r14d, ecx
	mov	ecx, r14d
	not	ecx
	or	ecx, -2
	and	r14d, 1
	mov	edx, ebp
	shr	edx, 4
	shl	ebp, 28
	mov	esi, edx
	not	esi
	mov	eax, ebp
	not	eax
	and	esi, 1134384588
	and	edx, 207792691
	or	edx, esi
	and	eax, 1134384588
	and	ebp, -1342177280
	or	ebp, eax
	xor	ebp, edx
	cmp	ecx, -1
	sete	al
	sete	byte ptr [rsp + 11]
	mov	edi, 674206395
	mov	edx, 1702022579
	cmove	edi, edx
	cmp	r9d, 10
	setl	cl
	setl	byte ptr [rsp + 10]
	mov	esi, 674206395
	cmovge	edi, esi
	xor	cl, al
	cmovne	edi, edx
	mov	ecx, -29994451
	jmp	.LBB15_185
.LBB15_188:                             
	movzx	ebx, byte ptr [rsp + 11]
	movzx	ecx, byte ptr [rsp + 10]
	mov	eax, ebx
	xor	al, cl
	mov	eax, 674206395
	mov	edx, -728779100
	cmovne	eax, edx
	test	cl, cl
	mov	ecx, eax
	cmovne	ecx, edx
	test	bl, bl
	cmove	ecx, eax
	.p2align	4, 0x90
.LBB15_185:                             


	cmp	ecx, 674206394
	jle	.LBB15_186

	cmp	ecx, 674206395
	je	.LBB15_197

	cmp	ecx, 1702022579
	jne	.LBB15_185
	jmp	.LBB15_191
	.p2align	4, 0x90
.LBB15_186:                             
	cmp	ecx, -728779100
	je	.LBB15_196

	cmp	ecx, -29994451
	jne	.LBB15_185
	jmp	.LBB15_188
.LBB15_197:                             
	mov	ecx, -728779100
	jmp	.LBB15_185
.LBB15_196:                             
	mov	dword ptr [rsp + 24], ebp
	mov	ecx, edi
	jmp	.LBB15_185
	.p2align	4, 0x90
.LBB15_191:                             
	mov	ecx, dword ptr [rsp + 24]
	mov	rax, qword ptr [rsp + 32]
	mov	ebp, dword ptr [r8 + 8*rax + 120]
	mov	esi, ebp
	not	esi
	and	esi, ecx
	not	ecx
	and	ecx, ebp
	or	ecx, esi
	movabs	rdx, 8572235577020359146
	lea	rsi, [rdx + 2*rax - 1]
	lea	r10, [rax + rax]
	sub	rsi, rdx
	mov	ebp, dword ptr [r8 + 4*rsi + 128]
	mov	eax, dword ptr [rsp + 16]
	mov	esi, eax
	not	esi
	and	esi, ebp
	not	ebp
	and	ebp, eax
	or	ebp, esi
	mov	eax, ecx
	shr	eax, 24
	mov	esi, eax
	xor	esi, 192
	and	esi, eax
	movzx	eax, byte ptr [rsi + _ZN5Botan12_GLOBAL__N_1L10SPBOX_CATSE]
	imul	eax, eax, 1879314694
	mov	esi, eax
	xor	esi, -16843782
	and	esi, eax
	mov	eax, ebp
	shr	eax, 24
	or	eax, 64
	and	eax, 127
	movzx	eax, byte ptr [rax + _ZN5Botan12_GLOBAL__N_1L10SPBOX_CATSE]
	imul	eax, eax, 33628192
	and	eax, -2146402272
	mov	ebx, eax
	and	ebx, esi
	xor	eax, esi
	or	eax, ebx
	mov	esi, ecx
	shr	esi, 16
	or	esi, 128
	and	esi, 191
	movzx	esi, byte ptr [rsi + _ZN5Botan12_GLOBAL__N_1L10SPBOX_CATSE]
	imul	esi, esi, 9441352
	and	esi, 134349320
	mov	ebx, eax
	and	ebx, esi
	xor	esi, eax
	or	esi, ebx
	mov	eax, ebp
	shr	eax, 16
	or	eax, 192
	movzx	eax, al
	movzx	eax, byte ptr [rax + _ZN5Botan12_GLOBAL__N_1L10SPBOX_CATSE]
	imul	ebx, eax, -1912208863
	mov	eax, ebx
	xor	eax, -8396930
	and	eax, ebx
	mov	ebx, esi
	and	ebx, eax
	xor	eax, esi
	or	eax, ebx
	mov	esi, ecx
	shr	esi, 8
	mov	ebx, esi
	not	ebx
	or	ebx, -1732265088
	and	ebx, -1732265050
	and	esi, 25
	or	esi, ebx
	xor	esi, -1732265306
	movzx	esi, byte ptr [rsi + _ZN5Botan12_GLOBAL__N_1L10SPBOX_CATSE]
	imul	esi, esi, 9511232
	and	esi, 1107820800
	mov	ebx, eax
	and	ebx, esi
	xor	esi, eax
	or	esi, ebx
	mov	eax, ebp
	shr	eax, 8
	or	eax, 320
	and	eax, 383
	movzx	eax, byte ptr [rax + _ZN5Botan12_GLOBAL__N_1L10SPBOX_CATSE]
	imul	ebx, eax, -2138828776
	mov	eax, ebx
	xor	eax, -541081624
	and	eax, ebx
	mov	ebx, esi
	and	ebx, eax
	xor	eax, esi
	or	eax, ebx
	or	ecx, 384
	and	ecx, 447
	movzx	ecx, byte ptr [rcx + _ZN5Botan12_GLOBAL__N_1L10SPBOX_CATSE]
	imul	ecx, ecx, -535690750
	mov	ebx, dword ptr [rsp + 20]
	mov	esi, ebx
	not	esi
	and	esi, ecx
	not	ecx
	or	ecx, -69208067
	or	ebp, 448
	and	ebp, 511
	movzx	ebp, byte ptr [rbp + _ZN5Botan12_GLOBAL__N_1L10SPBOX_CATSE]
	imul	ebp, ebp, 2171456
	mov	r11d, ebp
	xor	r11d, 805040000
	and	r11d, ebp
	and	ecx, ebx
	and	esi, 69208066
	or	esi, ecx
	mov	ecx, esi
	not	ecx
	and	ecx, 940542592
	and	esi, -940542593
	or	esi, ecx
	mov	ecx, eax
	not	ecx
	and	ecx, 940542592
	and	eax, -940542593
	or	eax, ecx
	xor	eax, esi
	mov	ecx, eax
	not	ecx
	and	ecx, r11d
	not	r11d
	and	r11d, eax
	or	r11d, ecx
	test	r14d, r14d
	sete	byte ptr [rsp + 11]
	cmp	r9d, 10
	setl	byte ptr [rsp + 10]
	mov	ecx, r11d
	shr	ecx, 4
	shl	eax, 28
	mov	esi, ecx
	not	esi
	not	eax
	and	esi, -43539874
	and	ecx, 43539873
	or	ecx, esi
	and	eax, -43539874
	xor	eax, ecx
	mov	esi, -29994451
	mov	r14d, 1168054530
	jmp	.LBB15_192
.LBB15_195:                             
	movzx	edx, byte ptr [rsp + 11]
	movzx	ebx, byte ptr [rsp + 10]
	mov	ecx, edx
	xor	cl, bl
	test	bl, bl
	mov	esi, 674206395
	mov	ebp, -728779100
	cmovne	esi, ebp
	test	dl, dl
	mov	edx, 674206395
	cmove	esi, edx
	test	cl, cl
	cmovne	esi, ebp
	.p2align	4, 0x90
.LBB15_192:                             


	cmp	esi, 674206394
	jle	.LBB15_193

	cmp	esi, 674206395
	je	.LBB15_202

	cmp	esi, 1702022579
	jne	.LBB15_192
	jmp	.LBB15_200
	.p2align	4, 0x90
.LBB15_193:                             
	cmp	esi, -728779100
	je	.LBB15_201

	cmp	esi, -29994451
	jne	.LBB15_192
	jmp	.LBB15_195
.LBB15_202:                             
	mov	esi, -728779100
	jmp	.LBB15_192
.LBB15_201:                             
	mov	dword ptr [rsp + 24], eax
	mov	esi, edi
	jmp	.LBB15_192
.LBB15_143:                             
	test	ebp, ebp
	mov	ecx, dword ptr [rsp + 32]
	mov	dword ptr [rsp + 20], ecx
	mov	rsi, qword ptr [rsp + 64]
	sete	byte ptr [rsp + 28]
	cmp	r8d, 10
	setl	byte ptr [rsp + 12]
	mov	edi, -1924553818
	jmp	.LBB15_144
.LBB15_71:                              
	movzx	ebx, byte ptr [rsp + 28]
	movzx	eax, byte ptr [rsp + 12]
	mov	ecx, ebx
	xor	cl, al
	mov	ecx, -1106862460
	cmovne	ecx, r11d
	test	al, al
	mov	eax, ecx
	cmovne	eax, r11d
	test	bl, bl
	cmove	eax, ecx
	.p2align	4, 0x90
.LBB15_58:                              

	cmp	eax, -1106862461
	jle	.LBB15_59

	cmp	eax, -1106862460
	je	.LBB15_72

	cmp	eax, 1168054530
	jne	.LBB15_58
	jmp	.LBB15_66
	.p2align	4, 0x90
.LBB15_59:                              
	cmp	eax, -1924553818
	je	.LBB15_71

	cmp	eax, -1169115405
	jne	.LBB15_58

	mov	eax, dword ptr [rdi + 8]
	bswap	eax
	mov	dword ptr [rsp + 32], eax
	mov	eax, ebp
	jmp	.LBB15_58
.LBB15_72:                              
	mov	eax, -1169115405
	jmp	.LBB15_58
.LBB15_97:                              
	mov	qword ptr [rsp + 144], r12 
	mov	eax, dword ptr [rsp + 32]
	mov	dword ptr [rsp + 28], eax
	lea	rbx, [rsp + 12]
	mov	rdi, rbx
	mov	rsi, r15
	call	_ZN5Botan12_GLOBAL__N_16des_IPERjS1_
	mov	rax, qword ptr [rsp + 56]
	mov	rdx, qword ptr [rax]
	mov	rdi, rbx
	mov	rsi, r15
	call	_ZN5Botan12_GLOBAL__N_111des_encryptERjS1_PKj
	mov	rax, qword ptr [rsp + 56]
	mov	r8, qword ptr [rax]
	mov	r12d, dword ptr [rsp + 28]
	mov	eax, dword ptr [rsp + 12]
	mov	edx, 16
	jmp	.LBB15_98
.LBB15_203:                             
	mov	eax, dword ptr [rsp + 20]
	mov	dword ptr [rsp + 28], eax
	mov	eax, dword ptr [rsp + 16]
	mov	dword ptr [rsp + 12], eax
	mov	rax, qword ptr [rsp + 56]
	mov	rdx, qword ptr [rax]
	add	rdx, 256
	lea	rbx, [rsp + 12]
	mov	rdi, rbx
	mov	rsi, r15
	call	_ZN5Botan12_GLOBAL__N_111des_encryptERjS1_PKj
	mov	rdi, rbx
	mov	rsi, r15
	call	_ZN5Botan12_GLOBAL__N_16des_FPERjS1_
	mov	esi, dword ptr [rsp + 28]
	mov	edx, dword ptr [rsp + 12]
	mov	rdi, qword ptr [rsp + 96]
	call	_ZN5Botan8store_beIjEEvPhT_S2_
	mov	rax, qword ptr [rsp + 80]
	mov	rax, qword ptr [rsp + 96]
	mov	rax, qword ptr [rsp + 48]
	mov	rax, qword ptr [rsp + 48]
	mov	rax, qword ptr [rsp + 48]
	mov	rax, qword ptr [rsp + 48]
	mov	rax, qword ptr [rsp + 48]
	mov	rax, qword ptr [rsp + 48]
	mov	rax, qword ptr [rsp + 48]
	mov	rax, qword ptr [rsp + 48]
	mov	rax, qword ptr [rsp + 48]
	mov	rax, qword ptr [rsp + 48]
	mov	rax, qword ptr [rsp + 48]
	mov	eax, 838722128
	jmp	.LBB15_204
.LBB15_157:                             
	movzx	ebx, byte ptr [rsp + 28]
	movzx	edx, byte ptr [rsp + 12]
	mov	ecx, ebx
	xor	cl, dl
	test	dl, dl
	mov	edi, -1106862460
	cmovne	edi, r11d
	test	bl, bl
	cmove	edi, r10d
	test	cl, cl
	cmovne	edi, r11d
	.p2align	4, 0x90
.LBB15_144:                             

	cmp	edi, -1106862461
	jle	.LBB15_145

	cmp	edi, -1106862460
	je	.LBB15_158

	cmp	edi, 1168054530
	jne	.LBB15_144
	jmp	.LBB15_152
	.p2align	4, 0x90
.LBB15_145:                             
	cmp	edi, -1924553818
	je	.LBB15_157

	cmp	edi, -1169115405
	jne	.LBB15_144

	mov	ecx, dword ptr [rsi + 8]
	bswap	ecx
	mov	dword ptr [rsp + 32], ecx
	mov	edi, eax
	jmp	.LBB15_144
.LBB15_158:                             
	mov	edi, -1169115405
	jmp	.LBB15_144
.LBB15_66:                              
	test	esi, edx
	mov	eax, dword ptr [rsp + 32]
	mov	dword ptr [rsp + 16], eax
	mov	rdx, qword ptr [rsp + 64]
	sete	byte ptr [rsp + 10]
	cmp	r8d, 10
	setl	byte ptr [rsp + 28]
	mov	eax, -1924553818
	jmp	.LBB15_67
	.p2align	4, 0x90
.LBB15_121:                             
	mov	r11d, dword ptr [rsp + 24]
	movabs	rax, -8547928395934467777
	mov	rcx, rax
	lea	rax, [r10 + rcx - 4]
	sub	rax, rcx
	mov	eax, dword ptr [r8 + 4*rax + 128]
	mov	esi, eax
	not	esi
	and	esi, r11d
	not	r11d
	and	r11d, eax
	or	r11d, esi
	mov	eax, dword ptr [r8 + 4*r10 + 116]
	mov	esi, eax
	not	esi
	and	esi, -2034021893
	and	eax, 2034021892
	or	eax, esi
	mov	edi, r12d
	not	edi
	and	edi, -2034021893
	mov	esi, r12d
	and	esi, 2034021892
	or	esi, edi
	xor	esi, eax
	mov	eax, r11d
	shr	eax, 24
	mov	edi, eax
	xor	edi, 192
	and	edi, eax
	movzx	eax, byte ptr [rdi + _ZN5Botan12_GLOBAL__N_1L10SPBOX_CATSE]
	imul	r9d, eax, 1879314694
	and	r9d, 16843780
	mov	eax, esi
	mov	r10d, esi
	mov	ebx, esi
	xor	ebx, -64
	and	ebx, esi
	shr	esi, 24
	mov	edi, esi
	xor	edi, 192
	and	edi, esi
	mov	esi, edi
	not	esi
	and	esi, 606796613
	mov	ecx, edi
	and	ecx, 186
	or	ecx, esi
	xor	ecx, 606796549
	and	edi, 64
	or	edi, ecx
	movzx	ecx, byte ptr [rdi + _ZN5Botan12_GLOBAL__N_1L10SPBOX_CATSE]
	imul	ecx, ecx, 33628192
	mov	esi, ecx
	xor	esi, 2146402240
	and	esi, ecx
	mov	ecx, esi
	and	ecx, r9d
	xor	esi, r9d
	or	esi, ecx
	mov	ecx, r11d
	shr	ecx, 16
	or	ecx, 128
	and	ecx, 191
	movzx	ecx, byte ptr [rcx + _ZN5Botan12_GLOBAL__N_1L10SPBOX_CATSE]
	imul	edx, ecx, 9441352
	mov	edi, esi
	not	edi
	mov	ebp, edi
	and	ebp, -878139281
	and	esi, 878139264
	or	esi, ebp
	mov	ecx, edx
	not	ecx
	or	ecx, -134349321
	or	edi, ecx
	and	ecx, -878139281
	and	edx, 131584
	or	edx, ecx
	xor	edx, esi
	not	edi
	or	edi, edx
	shr	eax, 16
	mov	ecx, eax
	not	ecx
	or	ecx, 438233024
	and	ecx, 438233051
	and	eax, 36
	or	eax, ecx
	xor	eax, 438232859
	movzx	eax, byte ptr [rax + _ZN5Botan12_GLOBAL__N_1L10SPBOX_CATSE]
	imul	eax, eax, -1912208863
	and	eax, 8396929
	mov	ecx, edi
	and	ecx, eax
	xor	eax, edi
	or	eax, ecx
	mov	ecx, r11d
	shr	ecx, 8
	mov	edx, ecx
	not	edx
	or	edx, 1175069184
	and	edx, 1175069197
	and	ecx, 50
	or	ecx, edx
	xor	ecx, 1175069453
	movzx	ecx, byte ptr [rcx + _ZN5Botan12_GLOBAL__N_1L10SPBOX_CATSE]
	imul	ecx, ecx, 9511232
	and	ecx, 1107820800
	mov	edx, eax
	and	edx, ecx
	xor	ecx, eax
	or	ecx, edx
	shr	r10d, 8
	mov	eax, r10d
	xor	eax, 16777152
	and	eax, r10d
	mov	edx, eax
	not	edx
	and	edx, -1816850697
	mov	esi, eax
	and	esi, 4911368
	or	esi, edx
	xor	esi, -1816850505
	and	eax, 320
	or	eax, esi
	movzx	eax, byte ptr [rax + _ZN5Botan12_GLOBAL__N_1L10SPBOX_CATSE]
	imul	eax, eax, -2138828776
	mov	edx, eax
	not	edx
	or	edx, -541081617
	mov	esi, ecx
	not	esi
	mov	edi, esi
	and	edi, -8787514
	and	ecx, 8787513
	or	ecx, edi
	or	esi, edx
	and	edx, -8787514
	and	eax, 16
	or	eax, edx
	xor	eax, ecx
	not	esi
	or	esi, eax
	mov	eax, r11d
	not	eax
	or	eax, -781689408
	and	eax, -781689378
	and	r11d, 33
	or	r11d, eax
	xor	r11d, -781689762
	movzx	eax, byte ptr [r11 + _ZN5Botan12_GLOBAL__N_1L10SPBOX_CATSE]
	imul	eax, eax, -535690750
	mov	ecx, eax
	xor	ecx, -69208068
	and	ecx, eax
	mov	eax, ebx
	and	eax, 448
	xor	ebx, 448
	or	ebx, eax
	movzx	eax, byte ptr [rbx + _ZN5Botan12_GLOBAL__N_1L10SPBOX_CATSE]
	imul	eax, eax, 2171456
	mov	edx, eax
	not	edx
	or	edx, 187360404
	mov	edi, dword ptr [rsp + 16]
	mov	ebp, ecx
	not	ebp
	and	ebp, 197627636
	and	ecx, -197627638
	or	ecx, ebp
	mov	ebp, edi
	not	ebp
	and	ebp, 197627636
	and	edi, -197627637
	or	edi, ebp
	xor	edi, ecx
	mov	ecx, edi
	not	ecx
	and	ecx, -297619325
	and	edi, 297619324
	or	edi, ecx
	mov	ecx, esi
	not	ecx
	and	ecx, -297619325
	and	esi, 297619324
	or	esi, ecx
	xor	esi, edi
	mov	ecx, esi
	not	ecx
	and	ecx, 455795924
	and	esi, -455795925
	or	esi, ecx
	and	edx, 455795924
	and	eax, 266240
	or	eax, edx
	xor	eax, esi
	mov	rcx, qword ptr [rsp + 32]
	movabs	rdx, -6964120803051018556
	mov	rsi, rdx
	lea	rdx, [rcx + rsi - 2]
	sub	rdx, rsi
	mov	r14d, 1168054530
.LBB15_98:                              




	mov	esi, 486280369
	jmp	.LBB15_99
.LBB15_102:                             
	mov	qword ptr [rsp + 32], rdx
	mov	dword ptr [rsp + 16], eax
	mov	dword ptr [rsp + 20], r12d
	cmp	qword ptr [rsp + 32], 0
	mov	esi, 1444008001
	mov	ecx, 922526255
	cmove	esi, ecx
	.p2align	4, 0x90
.LBB15_99:                              


	mov	edi, esi
	and	edi, 2147483647
	cmp	edi, 1444008001
	je	.LBB15_105

	cmp	edi, 922526255
	je	.LBB15_124

	cmp	edi, 486280369
	jne	.LBB15_99
	jmp	.LBB15_102
	.p2align	4, 0x90
.LBB15_105:                             
	mov	eax, dword ptr [rsp + 16]
	mov	ecx, dword ptr [rip + x.111]
	mov	r9d, dword ptr [rip + y.112]
	lea	r11d, [rcx - 1]
	imul	r11d, ecx
	mov	ecx, r11d
	not	ecx
	or	ecx, -2
	and	r11d, 1
	rol	eax, 28
	cmp	ecx, -1
	sete	cl
	sete	byte ptr [rsp + 11]
	mov	r14d, 674206395
	mov	edx, 1702022579
	cmove	r14d, edx
	cmp	r9d, 10
	setl	bl
	setl	byte ptr [rsp + 10]
	mov	esi, 674206395
	cmovge	r14d, esi
	xor	bl, cl
	cmovne	r14d, edx
	mov	ecx, -29994451
	jmp	.LBB15_106
.LBB15_109:                             
	movzx	edx, byte ptr [rsp + 11]
	movzx	ecx, byte ptr [rsp + 10]
	mov	ebx, edx
	xor	bl, cl
	test	cl, cl
	mov	ecx, 674206395
	mov	esi, -728779100
	cmovne	ecx, esi
	test	dl, dl
	mov	edx, 674206395
	cmove	ecx, edx
	test	bl, bl
	cmovne	ecx, esi
	.p2align	4, 0x90
.LBB15_106:                             


	cmp	ecx, 674206394
	jle	.LBB15_107

	cmp	ecx, 674206395
	je	.LBB15_118

	cmp	ecx, 1702022579
	jne	.LBB15_106
	jmp	.LBB15_112
	.p2align	4, 0x90
.LBB15_107:                             
	cmp	ecx, -728779100
	je	.LBB15_117

	cmp	ecx, -29994451
	jne	.LBB15_106
	jmp	.LBB15_109
.LBB15_118:                             
	mov	ecx, -728779100
	jmp	.LBB15_106
.LBB15_117:                             
	mov	dword ptr [rsp + 24], eax
	mov	ecx, r14d
	jmp	.LBB15_106
	.p2align	4, 0x90
.LBB15_112:                             
	mov	ebp, dword ptr [rsp + 24]
	mov	r10, qword ptr [rsp + 32]
	mov	eax, dword ptr [r8 + 8*r10 + 120]
	mov	r13d, dword ptr [r8 + 8*r10 + 124]
	mov	ecx, eax
	not	ecx
	and	ecx, 984971705
	and	eax, -984971706
	or	eax, ecx
	mov	ecx, ebp
	not	ecx
	and	ecx, 984971705
	and	ebp, -984971706
	or	ebp, ecx
	xor	ebp, eax
	mov	eax, dword ptr [rsp + 16]
	mov	ecx, eax
	not	ecx
	and	ecx, -987253129
	and	eax, 987253128
	or	eax, ecx
	mov	ecx, r13d
	not	ecx
	and	ecx, -987253129
	and	r13d, 987253128
	or	r13d, ecx
	xor	r13d, eax
	mov	eax, ebp
	mov	esi, ebp
	mov	ecx, ebp
	xor	ecx, -64
	and	ecx, ebp
	mov	edx, ebp
	shr	edx, 24
	and	edx, 63
	movzx	edx, byte ptr [rdx + _ZN5Botan12_GLOBAL__N_1L10SPBOX_CATSE]
	imul	r12d, edx, 1879314694
	mov	ebx, r13d
	mov	edi, r13d
	mov	ebp, r13d
	xor	ebp, -64
	and	ebp, r13d
	mov	edx, r13d
	shr	edx, 24
	or	edx, 64
	and	edx, 127
	movzx	edx, byte ptr [rdx + _ZN5Botan12_GLOBAL__N_1L10SPBOX_CATSE]
	imul	r13d, edx, 33628192
	mov	edx, r13d
	not	edx
	or	edx, 1881961159
	and	edx, 1883042503
	and	r13d, -2147483616
	or	r13d, edx
	mov	edx, r12d
	not	edx
	or	edx, 1883042499
	and	edx, 1883042503
	and	r12d, 16843776
	or	r12d, edx
	xor	r12d, r13d
	shr	eax, 16
	or	eax, 128
	and	eax, 191
	movzx	eax, byte ptr [rax + _ZN5Botan12_GLOBAL__N_1L10SPBOX_CATSE]
	imul	eax, eax, 9441352
	mov	edx, r12d
	not	edx
	mov	r13d, edx
	and	r13d, -146326374
	and	r12d, 1081380
	or	r12d, r13d
	mov	r13d, eax
	not	r13d
	or	r13d, -134349321
	or	edx, r13d
	and	r13d, -146326374
	and	eax, 134218240
	or	eax, r13d
	xor	eax, r12d
	not	edx
	or	edx, eax
	shr	ebx, 16
	or	ebx, 192
	movzx	eax, bl
	movzx	eax, byte ptr [rax + _ZN5Botan12_GLOBAL__N_1L10SPBOX_CATSE]
	imul	eax, eax, -1912208863
	mov	ebx, eax
	xor	ebx, -8396930
	and	ebx, eax
	mov	eax, edx
	not	eax
	mov	r12d, eax
	and	r12d, -21802145
	and	edx, 21277856
	or	edx, r12d
	mov	r12d, ebx
	not	r12d
	or	eax, r12d
	and	r12d, -21802145
	and	ebx, 21802144
	or	ebx, r12d
	lea	r10, [r10 + r10]
	xor	ebx, edx
	not	eax
	or	eax, ebx
	shr	esi, 8
	mov	edx, esi
	not	edx
	or	edx, -615260480
	and	edx, -615260446
	and	esi, 29
	or	esi, edx
	xor	esi, -615260190
	movzx	edx, byte ptr [rsi + _ZN5Botan12_GLOBAL__N_1L10SPBOX_CATSE]
	imul	edx, edx, 9511232
	mov	ebx, eax
	not	ebx
	mov	esi, ebx
	and	esi, -1702465194
	and	eax, 1702465193
	or	eax, esi
	mov	esi, edx
	not	esi
	or	esi, -1107820801
	or	ebx, esi
	and	esi, -1702465194
	and	edx, 1074266112
	or	edx, esi
	xor	edx, eax
	not	ebx
	or	ebx, edx
	shr	edi, 8
	or	edi, 320
	and	edi, 383
	movzx	eax, byte ptr [rdi + _ZN5Botan12_GLOBAL__N_1L10SPBOX_CATSE]
	imul	eax, eax, -2138828776
	mov	esi, eax
	xor	esi, -541081624
	and	esi, eax
	mov	eax, ebx
	and	eax, esi
	xor	esi, ebx
	or	esi, eax
	mov	eax, ecx
	and	eax, 384
	xor	ecx, 384
	or	ecx, eax
	movzx	eax, byte ptr [rcx + _ZN5Botan12_GLOBAL__N_1L10SPBOX_CATSE]
	imul	eax, eax, -535690750
	mov	edx, eax
	not	edx
	or	edx, 2051294169
	mov	ecx, ebp
	not	ecx
	and	ecx, 1382665251
	mov	edi, ebp
	and	edi, -1382665252
	or	edi, ecx
	xor	edi, 1382665699
	and	ebp, 448
	or	ebp, edi
	movzx	ecx, byte ptr [rbp + _ZN5Botan12_GLOBAL__N_1L10SPBOX_CATSE]
	imul	r12d, ecx, 2171456
	mov	edi, r12d
	not	edi
	or	edi, -1412813154
	mov	ebx, dword ptr [rsp + 20]
	and	edx, 2118405081
	and	eax, 2097154
	or	eax, edx
	mov	edx, ebx
	not	edx
	and	edx, 2118405081
	and	ebx, -2118405082
	or	ebx, edx
	xor	ebx, eax
	mov	eax, ebx
	not	eax
	and	eax, -1690414885
	and	ebx, 1690414884
	or	ebx, eax
	mov	eax, esi
	not	eax
	and	eax, -1690414885
	and	esi, 1690414884
	or	esi, eax
	xor	esi, ebx
	mov	eax, esi
	not	eax
	and	eax, -1144377634
	mov	edx, esi
	and	edx, 1144377633
	or	edx, eax
	and	edi, -1144377634
	and	r12d, 266240
	or	r12d, edi
	xor	r12d, edx
	test	r11d, r11d
	sete	byte ptr [rsp + 11]
	cmp	r9d, 10
	setl	byte ptr [rsp + 10]
	shld	esi, r12d, 28
	mov	edi, -29994451
	jmp	.LBB15_113
.LBB15_116:                             
	movzx	ebx, byte ptr [rsp + 11]
	movzx	edx, byte ptr [rsp + 10]
	mov	eax, ebx
	xor	al, dl
	mov	eax, 674206395
	mov	ecx, -728779100
	cmovne	eax, ecx
	test	dl, dl
	mov	edi, eax
	cmovne	edi, ecx
	test	bl, bl
	cmove	edi, eax
	.p2align	4, 0x90
.LBB15_113:                             


	cmp	edi, 674206394
	jle	.LBB15_114

	cmp	edi, 674206395
	je	.LBB15_123

	cmp	edi, 1702022579
	jne	.LBB15_113
	jmp	.LBB15_121
	.p2align	4, 0x90
.LBB15_114:                             
	cmp	edi, -728779100
	je	.LBB15_122

	cmp	edi, -29994451
	jne	.LBB15_113
	jmp	.LBB15_116
.LBB15_123:                             
	mov	edi, -728779100
	jmp	.LBB15_113
.LBB15_122:                             
	mov	dword ptr [rsp + 24], esi
	mov	edi, r14d
	jmp	.LBB15_113
.LBB15_152:                             
	test	ebp, ebp
	mov	ecx, dword ptr [rsp + 32]
	mov	dword ptr [rsp + 16], ecx
	mov	rsi, qword ptr [rsp + 64]
	sete	byte ptr [rsp + 10]
	cmp	r8d, 10
	setl	byte ptr [rsp + 28]
	mov	ecx, -1924553818
	jmp	.LBB15_153
.LBB15_76:                              
	movzx	ebx, byte ptr [rsp + 10]
	movzx	eax, byte ptr [rsp + 28]
	mov	ecx, ebx
	xor	cl, al
	mov	ecx, -1106862460
	cmovne	ecx, r11d
	test	al, al
	mov	eax, ecx
	cmovne	eax, r11d
	test	bl, bl
	cmove	eax, ecx
	.p2align	4, 0x90
.LBB15_67:                              

	cmp	eax, -1106862461
	jle	.LBB15_68

	cmp	eax, -1106862460
	je	.LBB15_77

	cmp	eax, 1168054530
	jne	.LBB15_67
	jmp	.LBB15_75
	.p2align	4, 0x90
.LBB15_68:                              
	cmp	eax, -1924553818
	je	.LBB15_76

	cmp	eax, -1169115405
	jne	.LBB15_67

	mov	eax, dword ptr [rdx + 12]
	bswap	eax
	mov	dword ptr [rsp + 32], eax
	mov	eax, ebp
	jmp	.LBB15_67
.LBB15_77:                              
	mov	eax, -1169115405
	jmp	.LBB15_67
.LBB15_124:                             
	mov	eax, dword ptr [rsp + 20]
	mov	dword ptr [rsp + 28], eax
	mov	eax, dword ptr [rsp + 16]
	mov	dword ptr [rsp + 12], eax
	mov	rax, qword ptr [rsp + 56]
	mov	rdx, qword ptr [rax]
	add	rdx, 256
	lea	rbx, [rsp + 12]
	mov	rdi, rbx
	mov	rsi, r15
	call	_ZN5Botan12_GLOBAL__N_111des_encryptERjS1_PKj
	mov	rdi, rbx
	mov	rsi, r15
	call	_ZN5Botan12_GLOBAL__N_16des_FPERjS1_
	mov	esi, dword ptr [rsp + 28]
	mov	edx, dword ptr [rsp + 12]
	mov	rdi, qword ptr [rsp + 96]
	call	_ZN5Botan8store_beIjEEvPhT_S2_
	mov	rax, qword ptr [rsp + 80]
	add	rax, 8
	mov	qword ptr [rsp + 176], rax
	mov	rax, qword ptr [rsp + 96]
	add	rax, 8
	mov	qword ptr [rsp + 184], rax
	mov	rax, qword ptr [rsp + 48]
	xor	ecx, ecx
	sub	rcx, rax
	not	rcx
	mov	qword ptr [rsp + 192], rcx
	mov	eax, dword ptr [rip + x.47]
	lea	ecx, [rax - 1]
	imul	ecx, eax
	mov	eax, ecx
	xor	eax, -2
	and	eax, ecx
	sete	cl
	test	eax, eax
	mov	eax, 2075781290
	mov	edi, 2010755221
	cmove	eax, edi
	cmp	dword ptr [rip + y.48], 10
	setl	dl
	mov	esi, 2075781290
	cmovge	eax, esi
	xor	dl, cl
	cmovne	eax, edi
	mov	r12, qword ptr [rsp + 144] 
.LBB15_204:                             
	mov	r10d, -1106862460
	mov	r11d, -1169115405
	jmp	.LBB15_1
.LBB15_162:                             
	movzx	edx, byte ptr [rsp + 10]
	movzx	ecx, byte ptr [rsp + 28]
	mov	ebx, edx
	xor	bl, cl
	test	cl, cl
	mov	ecx, -1106862460
	cmovne	ecx, r11d
	test	dl, dl
	cmove	ecx, r10d
	test	bl, bl
	cmovne	ecx, r11d
	.p2align	4, 0x90
.LBB15_153:                             

	cmp	ecx, -1106862461
	jle	.LBB15_154

	cmp	ecx, -1106862460
	je	.LBB15_163

	cmp	ecx, 1168054530
	jne	.LBB15_153
	jmp	.LBB15_161
	.p2align	4, 0x90
.LBB15_154:                             
	cmp	ecx, -1924553818
	je	.LBB15_162

	cmp	ecx, -1169115405
	jne	.LBB15_153

	mov	ecx, dword ptr [rsi + 12]
	bswap	ecx
	mov	dword ptr [rsp + 32], ecx
	mov	ecx, eax
	jmp	.LBB15_153
.LBB15_163:                             
	mov	ecx, -1169115405
	jmp	.LBB15_153
.LBB15_75:                              
	mov	eax, dword ptr [rsp + 32]
	mov	dword ptr [rsp + 12], eax
	lea	rbx, [rsp + 24]
	mov	rdi, rbx
	lea	rbp, [rsp + 20]
	mov	rsi, rbp
	call	_ZN5Botan12_GLOBAL__N_16des_IPERjS1_
	lea	r13, [rsp + 16]
	mov	rdi, r13
	lea	r15, [rsp + 12]
	mov	rsi, r15
	call	_ZN5Botan12_GLOBAL__N_16des_IPERjS1_
	mov	rax, qword ptr [rsp + 56]
	mov	r8, qword ptr [rax]
	mov	rdi, rbx
	mov	rsi, rbp
	mov	rdx, r13
	mov	rcx, r15
	call	_ZN5Botan12_GLOBAL__N_114des_encrypt_x2ERjS1_S1_S1_PKj
	mov	rax, qword ptr [rsp + 56]
	mov	r8, qword ptr [rax]
	sub	r8, -128
	mov	rdi, rbp
	mov	rsi, rbx
	mov	rdx, r15
	mov	rcx, r13
	call	_ZN5Botan12_GLOBAL__N_114des_decrypt_x2ERjS1_S1_S1_PKj
	mov	rax, qword ptr [rsp + 56]
	mov	r8, qword ptr [rax]
	add	r8, 256
	mov	rdi, rbx
	mov	rsi, rbp
	mov	rdx, r13
	mov	rcx, r15
	call	_ZN5Botan12_GLOBAL__N_114des_encrypt_x2ERjS1_S1_S1_PKj
	mov	rdi, rbx
	mov	rsi, rbp
	call	_ZN5Botan12_GLOBAL__N_16des_FPERjS1_
	mov	rdi, r13
	mov	rsi, r15
	lea	r15, [rsp + 28]
	call	_ZN5Botan12_GLOBAL__N_16des_FPERjS1_
	mov	esi, dword ptr [rsp + 20]
	mov	edx, dword ptr [rsp + 24]
	mov	ecx, dword ptr [rsp + 12]
	mov	r8d, dword ptr [rsp + 16]
	mov	rdi, qword ptr [rsp + 88]
	call	_ZN5Botan8store_beIjEEvPhT_S2_S2_S2_
	mov	r11d, -1169115405
	mov	r10d, -1106862460
	mov	rax, qword ptr [rsp + 64]
	add	rax, 16
	mov	qword ptr [rsp + 152], rax
	mov	rax, qword ptr [rsp + 88]
	add	rax, 16
	mov	qword ptr [rsp + 160], rax
	xor	eax, eax
	sub	rax, qword ptr [rsp + 72]
	mov	rcx, -2
	sub	rcx, rax
	mov	qword ptr [rsp + 168], rcx
	mov	eax, dword ptr [rip + x.47]
	mov	ecx, eax
	neg	ecx
	not	ecx
	imul	ecx, eax
	not	ecx
	or	ecx, -2
	cmp	ecx, -1
	sete	cl
	mov	eax, 281879272
	mov	edi, -1720041097
	cmove	eax, edi
	cmp	dword ptr [rip + y.48], 10
	setl	dl
	mov	esi, 281879272
.LBB15_43:                              
	cmovge	eax, esi
	xor	dl, cl
	cmovne	eax, edi
	jmp	.LBB15_1
.LBB15_161:                             
	mov	eax, dword ptr [rsp + 32]
	mov	dword ptr [rsp + 12], eax
	lea	rbx, [rsp + 24]
	mov	rdi, rbx
	lea	rbp, [rsp + 20]
	mov	rsi, rbp
	call	_ZN5Botan12_GLOBAL__N_16des_IPERjS1_
	lea	r13, [rsp + 16]
	mov	rdi, r13
	lea	r15, [rsp + 12]
	mov	rsi, r15
	call	_ZN5Botan12_GLOBAL__N_16des_IPERjS1_
	mov	rax, qword ptr [rsp + 56]
	mov	r8, qword ptr [rax]
	mov	rdi, rbx
	mov	rsi, rbp
	mov	rdx, r13
	mov	rcx, r15
	call	_ZN5Botan12_GLOBAL__N_114des_encrypt_x2ERjS1_S1_S1_PKj
	mov	rax, qword ptr [rsp + 56]
	mov	r8, qword ptr [rax]
	sub	r8, -128
	mov	rdi, rbp
	mov	rsi, rbx
	mov	rdx, r15
	mov	rcx, r13
	call	_ZN5Botan12_GLOBAL__N_114des_decrypt_x2ERjS1_S1_S1_PKj
	mov	rax, qword ptr [rsp + 56]
	mov	r8, qword ptr [rax]
	add	r8, 256
	mov	rdi, rbx
	mov	rsi, rbp
	mov	rdx, r13
	mov	rcx, r15
	call	_ZN5Botan12_GLOBAL__N_114des_encrypt_x2ERjS1_S1_S1_PKj
	mov	rdi, rbx
	mov	rsi, rbp
	call	_ZN5Botan12_GLOBAL__N_16des_FPERjS1_
	mov	rdi, r13
	mov	rsi, r15
	lea	r15, [rsp + 28]
	call	_ZN5Botan12_GLOBAL__N_16des_FPERjS1_
	mov	esi, dword ptr [rsp + 20]
	mov	edx, dword ptr [rsp + 24]
	mov	ecx, dword ptr [rsp + 12]
	mov	r8d, dword ptr [rsp + 16]
	mov	rdi, qword ptr [rsp + 88]
	call	_ZN5Botan8store_beIjEEvPhT_S2_S2_S2_
	mov	r11d, -1169115405
	mov	r10d, -1106862460
	mov	rax, qword ptr [rsp + 64]
	mov	rax, qword ptr [rsp + 88]
	mov	rax, qword ptr [rsp + 72]
	mov	rax, qword ptr [rsp + 72]
	mov	rax, qword ptr [rsp + 72]
	mov	rax, qword ptr [rsp + 72]
	mov	eax, -1139135945
	jmp	.LBB15_1
.LBB15_21:
	add	rsp, 200
	pop	rbx
	pop	r12
	pop	r13
	pop	r14
	pop	r15
	pop	rbp
	ret
.Lfunc_end15:
	.size	_ZNK5Botan9TripleDES9encrypt_nEPKhPhm, .Lfunc_end15-_ZNK5Botan9TripleDES9encrypt_nEPKhPhm
	.cfi_endproc

	.globl	_ZNK5Botan9TripleDES9decrypt_nEPKhPhm 
	.p2align	4, 0x90
	.type	_ZNK5Botan9TripleDES9decrypt_nEPKhPhm,@function
_ZNK5Botan9TripleDES9decrypt_nEPKhPhm:  
	.cfi_startproc

	push	rbp
.Lcfi96:
	.cfi_def_cfa_offset 16
	push	r15
.Lcfi97:
	.cfi_def_cfa_offset 24
	push	r14
.Lcfi98:
	.cfi_def_cfa_offset 32
	push	r13
.Lcfi99:
	.cfi_def_cfa_offset 40
	push	r12
.Lcfi100:
	.cfi_def_cfa_offset 48
	push	rbx
.Lcfi101:
	.cfi_def_cfa_offset 56
	sub	rsp, 168
.Lcfi102:
	.cfi_def_cfa_offset 224
.Lcfi103:
	.cfi_offset rbx, -56
.Lcfi104:
	.cfi_offset r12, -48
.Lcfi105:
	.cfi_offset r13, -40
.Lcfi106:
	.cfi_offset r14, -32
.Lcfi107:
	.cfi_offset r15, -24
.Lcfi108:
	.cfi_offset rbp, -16
	mov	qword ptr [rsp + 96], rcx 
	mov	qword ptr [rsp + 104], rdx 
	mov	qword ptr [rsp + 112], rsi 
	mov	r14, rdi
	lea	rax, [r14 + 8]
	mov	qword ptr [rsp + 40], rax
	mov	rbp, qword ptr [rsp + 40]
	mov	rdi, rbp
	call	_ZNKSt6vectorIjN5Botan16secure_allocatorIjEEE5beginEv
	mov	rbx, rax
	mov	rdi, rbp
	call	_ZNKSt6vectorIjN5Botan16secure_allocatorIjEEE3endEv
	xor	esi, esi
	cmp	rbx, rax
	setne	sil
	mov	rdi, r14
	call	_ZNK5Botan18SymmetricAlgorithm14verify_key_setEb
	mov	eax, 93640587
	mov	r14d, -1106862460
	mov	r15d, -1169115405
	lea	r13, [rsp + 20]






	jmp	.LBB16_1
.LBB16_63:                              
	cmovge	eax, esi
	xor	dl, cl
	cmovne	eax, edi
	.p2align	4, 0x90
.LBB16_1:                               
























	cmp	eax, 93640586
	jle	.LBB16_2

	cmp	eax, 1208286986
	jg	.LBB16_20

	cmp	eax, 93640587
	je	.LBB16_24

	cmp	eax, 673868259
	je	.LBB16_62

	cmp	eax, 1172192517
	jne	.LBB16_1

	mov	rax, qword ptr [rsp + 48]
	mov	qword ptr [rsp + 136], rax 
	mov	rax, qword ptr [rsp + 88]
	mov	qword ptr [rsp + 128], rax 
	mov	eax, 673868259
	mov	rcx, qword ptr [rsp + 80]
	mov	qword ptr [rsp + 120], rcx 
	jmp	.LBB16_1
	.p2align	4, 0x90
.LBB16_2:                               
	cmp	eax, -2031408942
	jg	.LBB16_11

	cmp	eax, -2097347976
	je	.LBB16_66

	cmp	eax, -2060561436
	je	.LBB16_132

	cmp	eax, -2039712075
	jne	.LBB16_1

	mov	r8, qword ptr [rsp + 64]
	mov	eax, dword ptr [rip + x.13]
	mov	ecx, dword ptr [rip + y.14]
	mov	esi, eax
	neg	esi
	not	esi
	imul	esi, eax
	mov	edi, esi
	xor	edi, -2
	mov	eax, edi
	and	eax, esi
	sete	bl
	sete	byte ptr [rsp + 12]
	cmp	ecx, 10
	setl	dl
	xor	dl, bl
	mov	edx, -1106862460
	mov	ebx, 1168054530
	cmovne	edx, ebx
	test	eax, eax
	mov	ebp, edx
	cmove	ebp, ebx
	cmp	ecx, 10
	setl	byte ptr [rsp + 4]
	cmovge	ebp, edx
	mov	eax, -1924553818
	jmp	.LBB16_7
	.p2align	4, 0x90
.LBB16_20:                              
	cmp	eax, 1208286987
	je	.LBB16_25

	cmp	eax, 1311359983
	je	.LBB16_131

	cmp	eax, 1845146308
	jne	.LBB16_1

	mov	rax, qword ptr [rsp + 144]
	mov	qword ptr [rsp + 136], rax 
	mov	rax, qword ptr [rsp + 152]
	mov	qword ptr [rsp + 128], rax 
	mov	eax, 673868259
	mov	rcx, qword ptr [rsp + 160]
	mov	qword ptr [rsp + 120], rcx 
	jmp	.LBB16_1
	.p2align	4, 0x90
.LBB16_11:                              
	cmp	eax, -2031408941
	je	.LBB16_65

	cmp	eax, -691803990
	je	.LBB16_64

	cmp	eax, -382194918
	jne	.LBB16_1
	jmp	.LBB16_14
.LBB16_24:                              
	mov	rax, qword ptr [rsp + 96] 
	mov	qword ptr [rsp + 80], rax
	mov	rax, qword ptr [rsp + 104] 
	mov	qword ptr [rsp + 88], rax
	mov	rax, qword ptr [rsp + 112] 
	mov	qword ptr [rsp + 48], rax
	mov	rax, qword ptr [rsp + 80]
	cmp	rax, 1
	mov	eax, 1172192517
	mov	ecx, 1208286987
	cmova	eax, ecx
	jmp	.LBB16_1
.LBB16_62:                              
	mov	rax, qword ptr [rsp + 120] 
	mov	qword ptr [rsp + 56], rax
	mov	rax, qword ptr [rsp + 128] 
	mov	qword ptr [rsp + 72], rax
	mov	rax, qword ptr [rsp + 136] 
	mov	qword ptr [rsp + 64], rax
	mov	eax, dword ptr [rip + x.51]
	lea	ecx, [rax - 1]
	imul	ecx, eax
	mov	eax, ecx
	xor	eax, -2
	and	eax, ecx
	sete	cl
	test	eax, eax
	mov	eax, 1311359983
	mov	edi, -691803990
	cmove	eax, edi
	cmp	dword ptr [rip + y.52], 10
	setl	dl
	mov	esi, 1311359983
	jmp	.LBB16_63
.LBB16_66:                              
	mov	eax, dword ptr [rip + x.51]
	mov	ecx, dword ptr [rip + y.52]
	lea	edx, [rax - 1]
	imul	edx, eax
	mov	eax, edx
	xor	eax, -2
	and	eax, edx
	sete	dl
	cmp	ecx, 10
	setl	bl
	xor	bl, dl
	mov	edx, -2060561436
	mov	esi, -2039712075
	cmovne	edx, esi
	test	eax, eax
	mov	eax, edx
	cmove	eax, esi
	cmp	ecx, 10
	cmovge	eax, edx
	jmp	.LBB16_1
.LBB16_132:                             
	mov	r8, qword ptr [rsp + 64]
	mov	eax, dword ptr [rip + x.13]
	mov	ebp, dword ptr [rip + y.14]
	lea	esi, [rax - 1]
	imul	esi, eax
	mov	eax, esi
	not	eax
	or	eax, -2
	and	esi, 1
	cmp	eax, -1
	sete	bl
	sete	byte ptr [rsp + 12]
	mov	eax, -1106862460
	mov	ecx, 1168054530
	cmove	eax, ecx
	cmp	ebp, 10
	setl	dl
	setl	byte ptr [rsp + 4]
	cmovge	eax, r14d
	xor	dl, bl
	cmovne	eax, ecx
	mov	edi, -1924553818
	jmp	.LBB16_133
.LBB16_74:                              
	movzx	ebx, byte ptr [rsp + 12]
	movzx	eax, byte ptr [rsp + 4]
	mov	edx, ebx
	xor	dl, al
	test	al, al
	mov	eax, -1106862460
	cmovne	eax, r15d
	test	bl, bl
	cmove	eax, r14d
	test	dl, dl
	cmovne	eax, r15d
	.p2align	4, 0x90
.LBB16_7:                               

	cmp	eax, -1106862461
	jle	.LBB16_8

	cmp	eax, -1106862460
	je	.LBB16_75

	cmp	eax, 1168054530
	jne	.LBB16_7
	jmp	.LBB16_69
	.p2align	4, 0x90
.LBB16_8:                               
	cmp	eax, -1924553818
	je	.LBB16_74

	cmp	eax, -1169115405
	jne	.LBB16_7

	mov	eax, dword ptr [r8]
	bswap	eax
	mov	dword ptr [rsp + 24], eax
