	.text
	.intel_syntax noprefix
	.file	"/mnt/c/Users/Adam/Developer/CryptoFunctionDetection/crypto_implementations/botan/src/lib/block/des/des.cpp"
	.globl	_ZNK5Botan3DES9encrypt_nEPKhPhm 
	.p2align	1, 0x90
	.type	_ZNK5Botan3DES9encrypt_nEPKhPhm,@function
_ZNK5Botan3DES9encrypt_nEPKhPhm:        
	.cfi_startproc

	push	rbp
.Lcfi0:
	.cfi_def_cfa_offset 16
	push	r15
.Lcfi1:
	.cfi_def_cfa_offset 24
	push	r14
.Lcfi2:
	.cfi_def_cfa_offset 32
	push	r13
.Lcfi3:
	.cfi_def_cfa_offset 40
	push	r12
.Lcfi4:
	.cfi_def_cfa_offset 48
	push	rbx
.Lcfi5:
	.cfi_def_cfa_offset 56
	sub	rsp, 152
.Lcfi6:
	.cfi_def_cfa_offset 208
.Lcfi7:
	.cfi_offset rbx, -56
.Lcfi8:
	.cfi_offset r12, -48
.Lcfi9:
	.cfi_offset r13, -40
.Lcfi10:
	.cfi_offset r14, -32
.Lcfi11:
	.cfi_offset r15, -24
.Lcfi12:
	.cfi_offset rbp, -16
	mov	r15, rcx
	mov	r13, rdx
	mov	qword ptr [rsp + 88], rsi 
	mov	rbx, rdi
	movabs	rbp, 1125397610925556528
	lea	rax, [rbx + 8]
	mov	qword ptr [rsp + 56], rax
	mov	rdi, qword ptr [rsp + 56]
	call	_ZNKSt6vectorIjN5Botan16secure_allocatorIjEEE5emptyEv
	xor	al, 1
	movzx	esi, al
	mov	rdi, rbx
	call	_ZNK5Botan18SymmetricAlgorithm14verify_key_setEb
	mov	eax, 1696326028
	movabs	rcx, 4611686018427387902
	and	rcx, rbp
	mov	qword ptr [rsp + 120], rcx 






	jmp	.LBB0_1
.LBB0_2:                                
	cmp	eax, -467518911
	jg	.LBB0_6

	cmp	eax, -1870849012
	je	.LBB0_73

	cmp	eax, -1487841670
	jne	.LBB0_1

	mov	rax, qword ptr [rsp + 128]
	mov	qword ptr [rsp + 112], rax 
	mov	rax, qword ptr [rsp + 136]
	mov	qword ptr [rsp + 104], rax 
	mov	eax, 304869793
	mov	rcx, qword ptr [rsp + 144]
	mov	qword ptr [rsp + 96], rcx 
	jmp	.LBB0_1
.LBB0_14:                               
	cmp	eax, 1713184274
	je	.LBB0_17

	cmp	eax, 1696326028
	jne	.LBB0_1

	mov	qword ptr [rsp + 72], r15
	mov	qword ptr [rsp + 80], r13
	mov	rax, qword ptr [rsp + 88] 
	mov	qword ptr [rsp + 40], rax
	mov	rax, qword ptr [rsp + 72]
	cmp	rax, 1
	mov	eax, -467518910
	mov	ecx, 1713184274
	cmova	eax, ecx
	jmp	.LBB0_1
.LBB0_6:                                
	cmp	eax, -467518910
	je	.LBB0_36

	cmp	eax, -436703498
	jne	.LBB0_1

	mov	eax, dword ptr [rip + x]
	lea	ecx, [rax - 1]
	imul	ecx, eax
	mov	eax, ecx
	xor	eax, -2
	and	eax, ecx
	sete	cl
	test	eax, eax
	mov	eax, -1870849012
	mov	esi, 202441066
	cmove	eax, esi
	cmp	dword ptr [rip + y], 10
	setl	dl
	mov	edi, -1870849012
	cmovge	eax, edi
	xor	dl, cl
	cmovne	eax, esi
	jmp	.LBB0_1
.LBB0_38:                               
	mov	rax, qword ptr [rsp + 48]
	mov	eax, dword ptr [rax]
	bswap	eax
	mov	rcx, qword ptr [rsp + 48]
	mov	edx, dword ptr [rcx + 4]
	bswap	edx
	mov	esi, edx
	shl	esi, 4
	rol	edx, 4
	mov	edi, esi
	not	edi
	and	edi, eax
	mov	r8d, eax
	not	r8d
	and	esi, r8d
	or	esi, edi
	mov	edi, esi
	xor	edi, 252645135
	and	edi, esi
	mov	esi, edi
	not	esi
	and	eax, esi
	and	r8d, edi
	or	r8d, eax
	and	esi, 1137086487
	and	edi, -1137086488
	or	edi, esi
	mov	eax, edx
	not	eax
	and	eax, 1137086487
	and	edx, -1137086488
	or	edx, eax
	xor	edx, edi
	mov	eax, edx
	shr	eax, 20
	shl	edx, 12
	mov	esi, eax
	not	esi
	mov	edi, edx
	not	edi
	and	esi, 1256131773
	and	eax, 834
	or	eax, esi
	mov	ebp, edi
	and	ebp, 1256131773
	mov	ebx, edx
	and	ebx, -1256132608
	or	ebx, ebp
	xor	ebx, eax
	and	edi, -367686890
	and	edx, 367685632
	or	edx, edi
	mov	r9d, r8d
	not	r9d
	mov	edi, r9d
	and	edi, -367686890
	mov	ecx, r8d
	and	ecx, 367686889
	or	ecx, edi
	xor	ecx, edx
	mov	edx, ecx
	xor	edx, 65535
	and	edx, ecx
	mov	ecx, edx
	not	ecx
	and	r8d, ecx
	and	r9d, edx
	or	r9d, r8d
	and	ecx, ebx
	not	ebx
	and	ebx, edx
	or	ebx, ecx
	rol	ebx, 14
	mov	ecx, ebx
	not	ecx
	mov	edx, r9d
	and	edx, ecx
	mov	edi, r9d
	not	edi
	mov	esi, ebx
	and	esi, edi
	or	esi, edx
	mov	edx, esi
	not	edx
	or	edx, -858993460
	and	ecx, esi
	and	ebx, edx
	and	edx, -448996268
	and	esi, 302195491
	or	esi, edx
	and	edi, -448996268
	and	r9d, 448996267
	or	r9d, edi
	xor	r9d, esi
	and	ecx, 858993459
	or	ecx, ebx
	mov	edx, ecx
	shr	edx, 6
	rol	ecx, 26
	mov	dword ptr [rsp + 12], ecx
	mov	esi, edx
	not	esi
	and	esi, r9d
	mov	eax, r9d
	not	eax
	and	edx, eax
	or	edx, esi
	mov	ebp, edx
	xor	ebp, -16711936
	and	ebp, edx
	mov	edi, ebp
	not	edi
	mov	edx, edi
	and	edx, -1829559488
	mov	esi, ebp
	and	esi, 1829559487
	or	esi, edx
	and	eax, -1829559488
	and	r9d, 1829559487
	or	r9d, eax
	xor	r9d, esi
	mov	dword ptr [rsp + 16], r9d
	mov	eax, dword ptr [rip + x.105]
	mov	esi, dword ptr [rip + y.106]
	lea	edx, [rax - 1]
	imul	edx, eax
	mov	eax, edx
	xor	eax, -2
	and	eax, edx
	sete	byte ptr [rsp + 8]
	sete	dl
	cmp	esi, 10
	setl	bl
	xor	bl, dl
	mov	edx, 127678515
	mov	ebx, -1181345563
	cmovne	edx, ebx
	test	eax, eax
	mov	r8d, edx
	cmove	r8d, ebx
	cmp	esi, 10
	setl	byte ptr [rsp + 4]
	cmovge	r8d, edx
	and	edi, ecx
	not	ecx
	and	ecx, ebp
	or	ecx, edi
	mov	edx, ecx
	shl	edx, 9
	shr	ecx, 23
	mov	esi, edx
	not	esi
	mov	edi, ecx
	not	edi
	and	esi, 1007979457
	and	edx, -1007979520
	or	edx, esi
	and	edi, 1007979457
	and	ecx, 62
	or	ecx, edi
	xor	ecx, edx
	mov	esi, 127001814
	jmp	.LBB0_39
.LBB0_48:                               
	cmp	esi, 127678515
	je	.LBB0_52

	cmp	esi, 127001814
	jne	.LBB0_39

	mov	al, byte ptr [rsp + 8]
	mov	bl, byte ptr [rsp + 4]
	mov	edx, eax
	xor	dl, bl
	test	bl, bl
	mov	esi, 127678515
	mov	edi, -1275833750
	cmovne	esi, edi
	test	al, al
	mov	eax, 127678515
	cmove	esi, eax
	test	dl, dl
	cmovne	esi, edi
	jmp	.LBB0_39
.LBB0_51:                               
	mov	dword ptr [rsp + 24], ecx
	mov	esi, r8d
	jmp	.LBB0_39
.LBB0_52:                               
	mov	esi, -1275833750
.LBB0_39:                               

	cmp	esi, 127001813
	jg	.LBB0_48

	cmp	esi, -1275833750
	je	.LBB0_51

	cmp	esi, -1181345563
	jne	.LBB0_39

	mov	ebx, dword ptr [rsp + 24]
	mov	ecx, ebx
	not	ecx
	mov	eax, ecx
	and	eax, -1328985681
	mov	edx, ebx
	and	edx, 1328985680
	or	edx, eax
	mov	edi, r9d
	not	edi
	mov	eax, edi
	and	eax, -1328985681
	mov	esi, r9d
	and	esi, 1328985680
	or	esi, eax
	xor	esi, edx
	mov	ebp, esi
	not	ebp
	or	ebp, 1431655765
	and	esi, -1431655766
	and	r9d, ebp
	and	edi, esi
	or	edi, r9d
	lea	eax, [rdi + rdi]
	shr	edi, 31
	mov	edx, eax
	not	edx
	not	edi
	and	edx, 661574129
	and	eax, -661574130
	or	eax, edx
	and	edi, 661574129
	xor	edi, eax
	mov	dword ptr [rsp + 16], edi
	and	ebp, ebx
	and	esi, ecx
	or	esi, ebp
	mov	dword ptr [rsp + 12], esi
	mov	rdi, qword ptr [rsp + 56]
	mov	rsi, qword ptr [rdi]
	call	_ZNKSt6vectorIjN5Botan16secure_allocatorIjEEE11_M_data_ptrIjEEPT_S6_
	mov	r12, rax
	mov	ebx, dword ptr [rsp + 16]
	mov	eax, dword ptr [rsp + 12]
	xor	ecx, ecx
.LBB0_43:                               


	mov	edx, 377414099
	jmp	.LBB0_44
.LBB0_46:                               
	cmp	edx, 377414099
	jne	.LBB0_44

	mov	qword ptr [rsp + 24], rcx
	mov	dword ptr [rsp + 8], eax
	mov	dword ptr [rsp + 4], ebx
	mov	rdx, qword ptr [rsp + 24]
	cmp	rdx, 16
	mov	edx, -1108240195
	mov	esi, -2055170464
	cmove	edx, esi
.LBB0_44:                               


	cmp	edx, -2055170464
	je	.LBB0_54

	cmp	edx, -1108240195
	jne	.LBB0_46

	mov	ecx, dword ptr [rsp + 8]
	rol	ecx, 28
	mov	r14, qword ptr [rsp + 24]
	lea	rax, [r14 + r14]
	lea	rdx, [8*r14]
	mov	rbp, -12
	sub	rbp, rdx
	mov	edi, dword ptr [r12 + 8*r14]
	mov	edx, ecx
	not	edx
	and	edx, -1505215567
	and	ecx, 1505215566
	or	ecx, edx
	mov	edx, edi
	not	edx
	and	edx, -1505215567
	and	edi, 1505215566
	or	edi, edx
	xor	edi, ecx
	mov	rcx, rax
	not	rcx
	movabs	rdx, 1125397610925556528
	mov	rsi, rdx
	not	rdx
	and	rcx, rsi
	and	rax, rdx
	or	rax, rcx
	and	edx, 1
	add	rdx, qword ptr [rsp + 120] 
	xor	rdx, rax
	mov	esi, dword ptr [r12 + 4*rdx]
	mov	eax, dword ptr [rsp + 8]
	mov	ecx, eax
	not	ecx
	and	ecx, 1707704575
	and	eax, -1707704576
	or	eax, ecx
	mov	ecx, esi
	not	ecx
	and	ecx, 1707704575
	and	esi, -1707704576
	or	esi, ecx
	xor	esi, eax
	call	_ZN5Botan12_GLOBAL__N_15spboxEjj
	mov	ebx, eax
	mov	eax, dword ptr [rsp + 4]
	mov	ecx, eax
	not	ecx
	and	ecx, ebx
	not	ebx
	and	ebx, eax
	or	ebx, ecx
	mov	eax, ebx
	rol	eax, 28
	mov	edi, dword ptr [r12 + 8*r14 + 8]
	mov	ecx, eax
	not	ecx
	and	ecx, 1832946858
	and	eax, -1832946859
	lea	eax, [rax + rcx]
	mov	ecx, edi
	not	ecx
	and	ecx, 1832946858
	and	edi, -1832946859
	or	edi, ecx
	xor	edi, eax
	neg	rbp
	mov	esi, dword ptr [r12 + rbp]
	mov	eax, ebx
	not	eax
	and	eax, esi
	not	esi
	and	esi, ebx
	or	esi, eax
	call	_ZN5Botan12_GLOBAL__N_15spboxEjj
	mov	ecx, dword ptr [rsp + 8]
	mov	edx, ecx
	not	edx
	and	edx, 1072369071
	and	ecx, -1072369072
	or	ecx, edx
	mov	edx, eax
	not	edx
	and	edx, 1072369071
	and	eax, -1072369072
	or	eax, edx
	xor	eax, ecx
	mov	rcx, qword ptr [rsp + 24]
	add	rcx, 2
	jmp	.LBB0_43
.LBB0_37:                               
	mov	rax, qword ptr [rsp + 96] 
	mov	qword ptr [rsp + 32], rax
	mov	rax, qword ptr [rsp + 104] 
	mov	qword ptr [rsp + 64], rax
	mov	rax, qword ptr [rsp + 112] 
	mov	qword ptr [rsp + 48], rax
	cmp	qword ptr [rsp + 32], 0
	mov	eax, -436703498
	mov	ecx, -91618975
	cmove	eax, ecx
	jmp	.LBB0_1
.LBB0_73:                               
	mov	rax, qword ptr [rsp + 48]
	mov	esi, dword ptr [rax]
	bswap	esi
	mov	rax, qword ptr [rsp + 48]
	mov	edx, dword ptr [rax + 4]
	bswap	edx
	mov	ecx, edx
	shl	ecx, 4
	rol	edx, 4
	mov	edi, ecx
	not	edi
	and	edi, esi
	mov	r8d, esi
	not	r8d
	and	ecx, r8d
	or	ecx, edi
	mov	edi, ecx
	not	edi
	or	edi, 252645135
	and	r8d, ecx
	and	esi, edi
	and	r8d, -252645136
	or	r8d, esi
	and	edi, 658077172
	and	ecx, -792690688
	or	ecx, edi
	mov	esi, edx
	not	esi
	and	esi, 658077172
	and	edx, -658077173
	or	edx, esi
	xor	edx, ecx
	mov	ecx, edx
	shl	ecx, 12
	rol	edx, 12
	mov	esi, ecx
	not	esi
	and	esi, 1186319627
	and	ecx, -1186320384
	or	ecx, esi
	mov	esi, r8d
	not	esi
	mov	edi, esi
	and	edi, 1186319627
	mov	eax, r8d
	and	eax, -1186319628
	or	eax, edi
	xor	eax, ecx
	mov	ecx, eax
	xor	ecx, 65535
	and	ecx, eax
	mov	eax, ecx
	not	eax
	mov	edi, eax
	and	edi, -882466168
	mov	ebx, ecx
	and	ebx, 882466167
	or	ebx, edi
	and	esi, -882466168
	and	r8d, 882466167
	or	r8d, esi
	xor	r8d, ebx
	and	eax, 590443049
	and	ecx, -590443050
	or	ecx, eax
	mov	eax, edx
	not	eax
	and	eax, 590443049
	and	edx, -590443050
	or	edx, eax
	xor	edx, ecx
	mov	eax, edx
	shr	eax, 18
	shl	edx, 14
	mov	ecx, eax
	not	ecx
	mov	esi, edx
	not	esi
	and	ecx, 1835478487
	and	eax, 4648
	or	eax, ecx
	and	esi, 1835478487
	and	edx, -1835483136
	or	edx, esi
	xor	edx, eax
	mov	ecx, edx
	not	ecx
	mov	eax, ecx
	and	eax, -1109450875
	mov	esi, edx
	and	esi, 1109450874
	or	esi, eax
	mov	eax, r8d
	not	eax
	mov	edi, eax
	and	edi, -1109450875
	mov	ebp, r8d
	and	ebp, 1109450874
	or	ebp, edi
	xor	ebp, esi
	mov	esi, ebp
	not	esi
	or	esi, -858993460
	and	ecx, ebp
	and	edx, esi
	and	esi, -1516120195
	and	ebp, 303177730
	or	ebp, esi
	and	eax, -1516120195
	and	r8d, 1516120194
	or	r8d, eax
	xor	r8d, ebp
	and	ecx, 858993459
	or	ecx, edx
	mov	edi, ecx
	shr	edi, 6
	shl	ecx, 26
	mov	eax, edi
	not	eax
	mov	edx, ecx
	not	edx
	mov	esi, r8d
	and	esi, eax
	and	eax, -1960351891
	mov	ebp, edi
	and	ebp, 14194834
	or	ebp, eax
	and	edx, -1960351891
	and	ecx, 1946157056
	or	ecx, edx
	xor	ecx, ebp
	mov	dword ptr [rsp + 12], ecx
	mov	edx, r8d
	not	edx
	and	edi, edx
	or	edi, esi
	mov	esi, edi
	xor	esi, -16711936
	and	esi, edi
	mov	edi, esi
	not	edi
	and	r8d, edi
	and	edx, esi
	or	edx, r8d
	mov	ebx, dword ptr [rip + x.105]
	mov	ebp, dword ptr [rip + y.106]
	mov	eax, ebx
	neg	eax
	not	eax
	imul	eax, ebx
	not	eax
	or	eax, -2
	mov	r9d, -1
	cmp	eax, r9d
	sete	r8b
	cmp	ebp, 10
	setl	bl
	xor	bl, r8b
	mov	ebx, 127678515
	mov	r10d, -1181345563
	cmovne	ebx, r10d
	mov	r12d, -1
	cmp	eax, r9d
	sete	byte ptr [rsp + 8]
	mov	dword ptr [rsp + 16], edx
	mov	r8d, ebx
	cmove	r8d, r10d
	cmp	ebp, 10
	mov	ebp, ecx
	not	ebp
	setl	byte ptr [rsp + 4]
	cmovge	r8d, ebx
	and	edi, -1341554831
	and	esi, 1341554830
	or	esi, edi
	and	ebp, -1341554831
	and	ecx, 1341554830
	or	ecx, ebp
	xor	ecx, esi
	rol	ecx, 9
	mov	esi, 127001814
	jmp	.LBB0_74
.LBB0_83:                               
	cmp	esi, 127678515
	je	.LBB0_87

	cmp	esi, 127001814
	jne	.LBB0_74

	mov	dil, byte ptr [rsp + 8]
	mov	al, byte ptr [rsp + 4]
	mov	ebx, edi
	xor	bl, al
	test	al, al
	mov	esi, 127678515
	mov	ebp, -1275833750
	cmovne	esi, ebp
	test	dil, dil
	mov	eax, 127678515
	cmove	esi, eax
	test	bl, bl
	cmovne	esi, ebp
	jmp	.LBB0_74
.LBB0_86:                               
	mov	dword ptr [rsp + 24], ecx
	mov	esi, r8d
	jmp	.LBB0_74
.LBB0_87:                               
	mov	esi, -1275833750
.LBB0_74:                               

	cmp	esi, 127001813
	jg	.LBB0_83

	cmp	esi, -1275833750
	je	.LBB0_86

	cmp	esi, -1181345563
	jne	.LBB0_74

	mov	ecx, dword ptr [rsp + 24]
	mov	r8d, ecx
	not	r8d
	mov	edi, edx
	and	edi, r8d
	mov	ebp, edx
	not	ebp
	mov	eax, ecx
	and	eax, ebp
	or	eax, edi
	mov	ebx, eax
	not	ebx
	or	ebx, 1431655765
	mov	edi, ebx
	and	edi, -1595174563
	mov	esi, eax
	and	esi, 167783074
	or	esi, edi
	and	ebp, -1595174563
	and	edx, 1595174562
	or	edx, ebp
	xor	edx, esi
	lea	esi, [rdx + rdx]
	shr	edx, 31
	mov	edi, esi
	not	edi
	not	edx
	and	edi, 242824475
	and	esi, -242824476
	or	esi, edi
	and	edx, 242824475
	xor	edx, esi
	mov	dword ptr [rsp + 16], edx
	and	ebx, -1440089144
	and	eax, 8519714
	or	eax, ebx
	and	r8d, -1440089144
	and	ecx, 1440089143
	or	ecx, r8d
	xor	ecx, eax
	mov	dword ptr [rsp + 12], ecx
	mov	rdi, qword ptr [rsp + 56]
	mov	rsi, qword ptr [rdi]
	call	_ZNKSt6vectorIjN5Botan16secure_allocatorIjEEE11_M_data_ptrIjEEPT_S6_
	mov	r14, rax
	mov	ebp, dword ptr [rsp + 16]
	mov	eax, dword ptr [rsp + 12]
	xor	ecx, ecx
.LBB0_78:                               


	mov	edx, 377414099
	jmp	.LBB0_79
.LBB0_81:                               
	cmp	edx, 377414099
	jne	.LBB0_79

	mov	qword ptr [rsp + 24], rcx
	mov	dword ptr [rsp + 8], eax
	mov	dword ptr [rsp + 4], ebp
	mov	rdx, qword ptr [rsp + 24]
	cmp	rdx, 16
	mov	edx, -1108240195
	mov	esi, -2055170464
	cmove	edx, esi
.LBB0_79:                               


	cmp	edx, -2055170464
	je	.LBB0_89

	cmp	edx, -1108240195
	jne	.LBB0_81

	mov	eax, dword ptr [rsp + 8]
	rol	eax, 28
	mov	rbx, qword ptr [rsp + 24]
	mov	ecx, eax
	not	ecx
	mov	edi, dword ptr [r14 + 8*rbx]
	mov	esi, dword ptr [r14 + 8*rbx + 4]
	and	ecx, edi
	not	edi
	and	edi, eax
	or	edi, ecx
	mov	eax, dword ptr [rsp + 8]
	mov	ecx, eax
	not	ecx
	and	ecx, 1560870781
	and	eax, -1560870782
	or	eax, ecx
	mov	ecx, esi
	not	ecx
	and	ecx, 1560870781
	and	esi, -1560870782
	or	esi, ecx
	xor	esi, eax
	call	_ZN5Botan12_GLOBAL__N_15spboxEjj
	mov	ebp, eax
	mov	eax, dword ptr [rsp + 4]
	mov	ecx, eax
	not	ecx
	and	ecx, ebp
	not	ebp
	and	ebp, eax
	or	ebp, ecx
	mov	eax, ebp
	rol	eax, 28
	mov	edi, dword ptr [r14 + 8*rbx + 8]
	mov	ecx, eax
	not	ecx
	and	ecx, -495050268
	and	eax, 495050267
	lea	eax, [rax + rcx]
	mov	ecx, edi
	not	ecx
	and	ecx, -495050268
	and	edi, 495050267
	or	edi, ecx
	xor	edi, eax
	movabs	rax, -7863297872245595936
	mov	rcx, rax
	lea	rax, [rcx + 2*rbx + 3]
	sub	rax, rcx
	mov	esi, dword ptr [r14 + 4*rax]
	mov	eax, ebp
	not	eax
	and	eax, esi
	not	esi
	and	esi, ebp
	or	esi, eax
	call	_ZN5Botan12_GLOBAL__N_15spboxEjj
	mov	ecx, dword ptr [rsp + 8]
	mov	edx, ecx
	not	edx
	and	edx, eax
	not	eax
	and	eax, ecx
	or	eax, edx
	mov	rcx, qword ptr [rsp + 24]
	add	rcx, 2
	jmp	.LBB0_78
.LBB0_17:                               
	mov	rax, qword ptr [rsp + 40]
	mov	r9d, dword ptr [rax]
	bswap	r9d
	mov	rax, qword ptr [rsp + 40]
	mov	edi, dword ptr [rax + 4]
	bswap	edi
	mov	rax, qword ptr [rsp + 40]
	mov	r10d, dword ptr [rax + 8]
	bswap	r10d
	mov	dword ptr [rsp + 16], r10d
	mov	rax, qword ptr [rsp + 40]
	mov	r15d, dword ptr [rax + 12]
	bswap	r15d
	mov	dword ptr [rsp + 12], r15d
	mov	esi, edi
	shl	esi, 4
	shr	edi, 28
	mov	ecx, esi
	not	ecx
	mov	ebp, edi
	not	ebp
	mov	r8d, r9d
	and	r8d, ecx
	and	ecx, -262790734
	mov	ebx, esi
	and	ebx, 262790720
	or	ebx, ecx
	and	ebp, -262790734
	and	edi, 13
	or	edi, ebp
	xor	edi, ebx
	mov	ecx, r9d
	not	ecx
	and	esi, ecx
	or	esi, r8d
	mov	ebp, esi
	xor	ebp, 252645135
	and	ebp, esi
	mov	esi, edi
	mov	ebx, ebp
	not	edi
	and	edi, ebp
	not	ebp
	and	esi, ebp
	and	ebp, -1511442965
	and	ebx, 1511442964
	or	ebx, ebp
	and	ecx, -1511442965
	and	r9d, 1511442964
	or	r9d, ecx
	xor	r9d, ebx
	or	edi, esi
	mov	ecx, edi
	shr	ecx, 20
	shl	edi, 12
	mov	esi, ecx
	not	esi
	mov	ebp, edi
	not	ebp
	and	esi, -1342131843
	and	ecx, 3714
	or	ecx, esi
	mov	ebx, r9d
	and	ebx, ebp
	and	ebp, -1342131843
	mov	esi, edi
	and	esi, 1342128128
	or	esi, ebp
	xor	esi, ecx
	mov	edx, r9d
	not	edx
	and	edi, edx
	or	edi, ebx
	mov	ecx, edi
	xor	ecx, 65535
	and	ecx, edi
	mov	edi, ecx
	not	edi
	mov	ebp, edi
	and	ebp, -832579912
	mov	ebx, ecx
	and	ebx, 832579911
	or	ebx, ebp
	and	edx, -832579912
	and	r9d, 832579911
	or	r9d, edx
	xor	r9d, ebx
	and	edi, 1442761721
	and	ecx, -1442761722
	or	ecx, edi
	mov	edx, esi
	not	edx
	and	edx, 1442761721
	and	esi, -1442761722
	or	esi, edx
	xor	esi, ecx
	rol	esi, 14
	mov	ecx, esi
	not	ecx
	mov	edx, r9d
	and	edx, ecx
	mov	ebp, r9d
	not	ebp
	mov	edi, esi
	and	edi, ebp
	or	edi, edx
	mov	edx, edi
	xor	edx, -858993460
	and	edx, edi
	mov	edi, edx
	not	edi
	and	r9d, edi
	and	ebp, edx
	or	ebp, r9d
	and	edi, -2143896339
	and	edx, 2143896338
	or	edx, edi
	and	ecx, -2143896339
	and	esi, 2143896338
	or	esi, ecx
	xor	esi, edx
	mov	ecx, esi
	shr	ecx, 6
	shl	esi, 26
	mov	edx, ecx
	not	edx
	not	esi
	mov	edi, ebp
	and	edi, edx
	and	edx, -55063947
	mov	ebx, ecx
	and	ebx, 55063946
	or	ebx, edx
	and	esi, -55063947
	xor	esi, ebx
	mov	dword ptr [rsp + 8], esi
	mov	edx, ebp
	not	edx
	and	ecx, edx
	or	ecx, edi
	mov	eax, ecx
	xor	eax, -16711936
	and	eax, ecx
	mov	ecx, eax
	not	ecx
	mov	edi, ecx
	and	edi, -1964450756
	mov	ebx, eax
	and	ebx, 1964450755
	or	ebx, edi
	and	edx, -1964450756
	and	ebp, 1964450755
	or	ebp, edx
	xor	ebp, ebx
	mov	dword ptr [rsp + 4], ebp
	mov	edx, dword ptr [rip + x.105]
	mov	r8d, dword ptr [rip + y.106]
	lea	r11d, [rdx - 1]
	imul	r11d, edx
	mov	r9d, r11d
	xor	r9d, -2
	mov	edx, r9d
	and	edx, r11d
	sete	byte ptr [rsp + 22]
	sete	dil
	cmp	r8d, 10
	setl	bl
	xor	bl, dil
	mov	edi, 127678515
	mov	ebx, -1181345563
	cmovne	edi, ebx
	test	edx, edx
	mov	r14d, edi
	cmove	r14d, ebx
	cmp	r8d, 10
	mov	edx, esi
	not	edx
	setl	byte ptr [rsp + 23]
	cmovge	r14d, edi
	and	ecx, 2077360071
	and	eax, -2077360072
	or	eax, ecx
	and	edx, 2077360071
	and	esi, -2077360072
	or	esi, edx
	xor	esi, eax
	mov	eax, esi
	shl	eax, 9
	shr	esi, 23
	mov	ecx, eax
	not	ecx
	mov	edx, esi
	not	edx
	and	ecx, -1358945519
	and	eax, 1358945280
	or	eax, ecx
	and	edx, -1358945519
	and	esi, 238
	or	esi, edx
	xor	esi, eax
	mov	ecx, 127001814
	jmp	.LBB0_18
.LBB0_26:                               
	cmp	ecx, 127678515
	je	.LBB0_30

	cmp	ecx, 127001814
	jne	.LBB0_18

	mov	al, byte ptr [rsp + 22]
	mov	cl, byte ptr [rsp + 23]
	mov	edx, eax
	xor	dl, cl
	test	cl, cl
	mov	ecx, 127678515
	mov	edi, -1275833750
	cmovne	ecx, edi
	test	al, al
	mov	eax, 127678515
	cmove	ecx, eax
	test	dl, dl
	cmovne	ecx, edi
	jmp	.LBB0_18
.LBB0_29:                               
	mov	dword ptr [rsp + 24], esi
	mov	ecx, r14d
	jmp	.LBB0_18
.LBB0_30:                               
	mov	ecx, -1275833750
.LBB0_18:                               

	cmp	ecx, 127001813
	jg	.LBB0_26

	cmp	ecx, -1275833750
	je	.LBB0_29

	cmp	ecx, -1181345563
	jne	.LBB0_18

	mov	edi, dword ptr [rsp + 24]
	mov	ecx, edi
	not	ecx
	mov	eax, ebp
	and	eax, ecx
	mov	r13d, ebp
	not	r13d
	mov	edx, edi
	and	edx, r13d
	or	edx, eax
	mov	r12d, edx
	xor	r12d, 1431655765
	and	r12d, edx
	mov	eax, r12d
	not	eax
	and	ebp, eax
	and	r13d, r12d
	or	r13d, ebp
	lea	edx, [r13 + r13]
	shr	r13d, 31
	mov	ebp, edx
	not	ebp
	and	ebp, 788705958
	and	edx, -788705960
	or	edx, ebp
	or	r13d, 788705958
	xor	r13d, edx
	and	eax, edi
	and	r12d, ecx
	or	r12d, eax
	mov	edi, r15d
	shl	edi, 4
	shr	r15d, 28
	mov	eax, edi
	not	eax
	mov	ecx, r15d
	not	ecx
	mov	edx, eax
	and	edx, -2124689366
	mov	ebp, edi
	and	ebp, 2124689360
	or	ebp, edx
	and	ecx, -2124689366
	and	r15d, 5
	or	r15d, ecx
	xor	r15d, ebp
	and	eax, -275237929
	and	edi, 275237920
	or	edi, eax
	mov	ecx, r10d
	not	ecx
	mov	eax, ecx
	and	eax, -275237929
	mov	edx, r10d
	and	edx, 275237928
	or	edx, eax
	xor	edx, edi
	mov	eax, edx
	xor	eax, 252645135
	and	eax, edx
	mov	edx, eax
	not	edx
	and	r10d, edx
	and	ecx, eax
	or	ecx, r10d
	and	edx, r15d
	not	r15d
	and	r15d, eax
	or	r15d, edx
	mov	eax, r15d
	shl	eax, 12
	rol	r15d, 12
	mov	edi, eax
	not	edi
	and	edi, ecx
	mov	esi, ecx
	not	esi
	and	eax, esi
	or	eax, edi
	mov	edi, eax
	xor	edi, 65535
	and	edi, eax
	mov	eax, edi
	not	eax
	and	ecx, eax
	and	esi, edi
	or	esi, ecx
	and	eax, 2123070965
	and	edi, -2123070966
	or	edi, eax
	mov	eax, r15d
	not	eax
	and	eax, 2123070965
	and	r15d, -2123070966
	or	r15d, eax
	xor	r15d, edi
	rol	r15d, 14
	mov	ecx, r15d
	not	ecx
	mov	eax, ecx
	and	eax, 1076177929
	mov	edi, r15d
	and	edi, -1076177930
	or	edi, eax
	mov	eax, esi
	not	eax
	mov	ebp, eax
	and	ebp, 1076177929
	mov	edx, esi
	and	edx, -1076177930
	or	edx, ebp
	xor	edx, edi
	mov	ebp, edx
	xor	ebp, -858993460
	and	ebp, edx
	mov	edx, ebp
	not	edx
	mov	edi, edx
	and	edi, -1043643530
	mov	ebx, ebp
	and	ebx, 1043643529
	or	ebx, edi
	and	eax, -1043643530
	and	esi, 1043643529
	or	esi, eax
	xor	esi, ebx
	and	edx, -1204193534
	and	ebp, 1204193533
	or	ebp, edx
	and	ecx, -1204193534
	and	r15d, 1204193533
	or	r15d, ecx
	xor	r15d, ebp
	mov	ebx, r15d
	shr	ebx, 6
	shl	r15d, 26
	mov	eax, ebx
	not	eax
	mov	edx, r15d
	not	edx
	mov	edi, eax
	and	edi, 1242835755
	mov	ecx, ebx
	and	ecx, 32232660
	or	ecx, edi
	and	edx, 1242835755
	and	r15d, -1275068416
	or	r15d, edx
	xor	r15d, ecx
	and	eax, 1952909893
	and	ebx, 60356026
	or	ebx, eax
	mov	ebp, esi
	not	ebp
	mov	eax, ebp
	and	eax, 1952909893
	mov	edi, esi
	and	edi, -1952909894
	or	edi, eax
	xor	edi, ebx
	mov	eax, edi
	not	eax
	or	eax, -16711936
	and	ebp, edi
	and	esi, eax
	and	ebp, 16711935
	or	ebp, esi
	and	eax, -1814169862
	and	edi, 2228229
	or	edi, eax
	mov	eax, r15d
	not	eax
	and	eax, -1814169862
	mov	ecx, r15d
	and	ecx, 1814169861
	or	ecx, eax
	xor	ecx, edi
	test	r9d, r11d
	mov	dword ptr [rsp + 4], r13d
	mov	dword ptr [rsp + 8], r12d
	mov	dword ptr [rsp + 12], r15d
	mov	dword ptr [rsp + 16], ebp
	sete	byte ptr [rsp + 22]
	cmp	r8d, 10
	setl	byte ptr [rsp + 23]
	rol	ecx, 9
	mov	eax, 127001814
	jmp	.LBB0_22
.LBB0_31:                               
	cmp	eax, 127678515
	je	.LBB0_35

	cmp	eax, 127001814
	jne	.LBB0_22

	mov	bl, byte ptr [rsp + 22]
	mov	al, byte ptr [rsp + 23]
	mov	edx, ebx
	xor	dl, al
	test	al, al
	mov	eax, 127678515
	mov	edi, -1275833750
	cmovne	eax, edi
	test	bl, bl
	mov	esi, 127678515
	cmove	eax, esi
	test	dl, dl
	cmovne	eax, edi
	jmp	.LBB0_22
.LBB0_34:                               
	mov	dword ptr [rsp + 24], ecx
	mov	eax, r14d
	jmp	.LBB0_22
.LBB0_35:                               
	mov	eax, -1275833750
.LBB0_22:                               

	cmp	eax, 127001813
	jg	.LBB0_31

	cmp	eax, -1275833750
	je	.LBB0_34

	cmp	eax, -1181345563
	jne	.LBB0_22

	mov	eax, dword ptr [rsp + 24]
	mov	ecx, eax
	not	ecx
	mov	edx, ecx
	and	edx, -2072504373
	mov	esi, eax
	and	esi, 2072504372
	or	esi, edx
	mov	edi, ebp
	not	edi
	mov	ebx, edi
	and	ebx, -2072504373
	mov	edx, ebp
	and	edx, 2072504372
	or	edx, ebx
	xor	edx, esi
	mov	esi, edx
	not	esi
	or	esi, 1431655765
	and	edi, edx
	and	ebp, esi
	and	edi, -1431655766
	or	edi, ebp
	rol	edi
	mov	dword ptr [rsp + 16], edi
	and	esi, 23070571
	and	edx, -1433753472
	or	edx, esi
	and	ecx, 23070571
	and	eax, -23070572
	or	eax, ecx
	xor	eax, edx
	mov	dword ptr [rsp + 12], eax
	mov	rdi, qword ptr [rsp + 56]
	mov	rsi, qword ptr [rdi]
	call	_ZNKSt6vectorIjN5Botan16secure_allocatorIjEEE11_M_data_ptrIjEEPT_S6_
	lea	r14, [rsp + 4]
	mov	rdi, r14
	lea	r15, [rsp + 8]
	mov	rsi, r15
	lea	rbx, [rsp + 16]
	mov	rdx, rbx
	lea	rbp, [rsp + 12]
	mov	rcx, rbp
	mov	r8, rax
	call	_ZN5Botan12_GLOBAL__N_114des_encrypt_x2ERjS1_S1_S1_PKj
	mov	rdi, r14
	mov	rsi, r15
	call	_ZN5Botan12_GLOBAL__N_16des_FPERjS1_
	mov	rdi, rbx
	mov	rsi, rbp
	call	_ZN5Botan12_GLOBAL__N_16des_FPERjS1_
	mov	esi, dword ptr [rsp + 8]
	mov	edx, dword ptr [rsp + 4]
	mov	ecx, dword ptr [rsp + 12]
	mov	r8d, dword ptr [rsp + 16]
	mov	rdi, qword ptr [rsp + 80]
	call	_ZN5Botan8store_beIjEEvPhT_S2_S2_S2_
	mov	rax, qword ptr [rsp + 40]
	add	rax, 16
	mov	qword ptr [rsp + 88], rax 
	mov	r13, qword ptr [rsp + 80]
	add	r13, 16
	mov	r15, qword ptr [rsp + 72]
	add	r15, -2
	mov	eax, 1696326028
	jmp	.LBB0_1
.LBB0_36:                               
	mov	rax, qword ptr [rsp + 40]
	mov	qword ptr [rsp + 112], rax 
	mov	rax, qword ptr [rsp + 80]
	mov	qword ptr [rsp + 104], rax 
	mov	eax, 304869793
	mov	rcx, qword ptr [rsp + 72]
	mov	qword ptr [rsp + 96], rcx 
	jmp	.LBB0_1
.LBB0_54:                               
	mov	eax, dword ptr [rsp + 4]
	mov	dword ptr [rsp + 16], eax
	mov	eax, dword ptr [rsp + 8]
	mov	dword ptr [rsp + 12], eax
	lea	rdi, [rsp + 16]
	lea	rsi, [rsp + 12]
	call	_ZN5Botan12_GLOBAL__N_16des_FPERjS1_
	mov	edx, dword ptr [rsp + 12]
	mov	r8d, dword ptr [rsp + 16]
	mov	r9, qword ptr [rsp + 64]
	mov	esi, dword ptr [rip + x.123]
	mov	edi, dword ptr [rip + y.124]
	lea	ebp, [rsi - 1]
	imul	ebp, esi
	mov	esi, ebp
	xor	esi, -2
	test	esi, ebp
	sete	byte ptr [rsp + 4]
	cmp	edi, 10
	setl	byte ptr [rsp + 24]
	bswap	edx
	mov	esi, -1594289886
	mov	edi, -1703216472
	jmp	.LBB0_55
.LBB0_89:                               
	mov	eax, dword ptr [rsp + 4]
	mov	dword ptr [rsp + 16], eax
	mov	eax, dword ptr [rsp + 8]
	mov	dword ptr [rsp + 12], eax
	lea	rdi, [rsp + 16]
	lea	rsi, [rsp + 12]
	call	_ZN5Botan12_GLOBAL__N_16des_FPERjS1_
	mov	edx, dword ptr [rsp + 12]
	mov	r8d, dword ptr [rsp + 16]
	mov	r9, qword ptr [rsp + 64]
	mov	ebp, dword ptr [rip + x.123]
	mov	edi, dword ptr [rip + y.124]
	mov	esi, ebp
	neg	esi
	not	esi
	imul	esi, ebp
	not	esi
	or	esi, -2
	cmp	esi, r12d
	sete	byte ptr [rsp + 4]
	cmp	edi, 10
	setl	byte ptr [rsp + 24]
	bswap	edx
	mov	esi, -1594289886
	mov	r10d, -1703216472
	jmp	.LBB0_90
.LBB0_67:                               
	mov	dword ptr [r9], edx
	mov	esi, -616711071
	jmp	.LBB0_55
.LBB0_66:                               
	mov	dword ptr [r9], edx
	mov	eax, dword ptr [rip + x.123]
	lea	ecx, [rax - 1]
	imul	ecx, eax
	mov	eax, ecx
	xor	eax, -2
	and	eax, ecx
	sete	cl
	test	eax, eax
	mov	esi, -1703216472
	mov	ebp, 1506076261
	cmove	esi, ebp
	cmp	dword ptr [rip + y.124], 10
	setl	al
	cmovge	esi, edi
	xor	al, cl
	cmovne	esi, ebp
.LBB0_55:                               

	cmp	esi, -616711072
	jg	.LBB0_59

	cmp	esi, -1703216472
	je	.LBB0_67

	cmp	esi, -1594289886
	jne	.LBB0_55

	mov	cl, byte ptr [rsp + 4]
	mov	al, byte ptr [rsp + 24]
	mov	ebx, ecx
	xor	bl, al
	test	al, al
	mov	esi, -1703216472
	mov	eax, -616711071
	cmovne	esi, eax
	test	cl, cl
	cmove	esi, edi
	test	bl, bl
	cmovne	esi, eax
	jmp	.LBB0_55
.LBB0_59:                               
	cmp	esi, -616711071
	je	.LBB0_66

	cmp	esi, 1506076261
	jne	.LBB0_55

	mov	eax, dword ptr [rip + x.123]
	mov	ecx, dword ptr [rip + y.124]
	lea	edx, [rax - 1]
	imul	edx, eax
	mov	eax, edx
	xor	eax, -2
	and	eax, edx
	sete	bl
	sete	byte ptr [rsp + 4]
	test	eax, eax
	mov	edx, -1703216472
	mov	esi, 1506076261
	cmove	edx, esi
	cmp	ecx, 10
	setl	al
	setl	byte ptr [rsp + 24]
	bswap	r8d
	cmovge	edx, edi
	xor	al, bl
	cmovne	edx, esi
	mov	esi, -1594289886
	jmp	.LBB0_62
.LBB0_102:                              
	mov	dword ptr [r9], edx
	mov	esi, -616711071
	jmp	.LBB0_90
.LBB0_101:                              
	mov	dword ptr [r9], edx
	mov	eax, dword ptr [rip + x.123]
	mov	ecx, eax
	neg	ecx
	not	ecx
	imul	ecx, eax
	mov	eax, ecx
	xor	eax, -2
	and	eax, ecx
	sete	cl
	test	eax, eax
	mov	esi, -1703216472
	mov	edi, 1506076261
	cmove	esi, edi
	cmp	dword ptr [rip + y.124], 10
	setl	al
	cmovge	esi, r10d
	xor	al, cl
	cmovne	esi, edi
.LBB0_90:                               

	cmp	esi, -616711072
	jg	.LBB0_94

	cmp	esi, -1703216472
	je	.LBB0_102

	cmp	esi, -1594289886
	jne	.LBB0_90

	mov	cl, byte ptr [rsp + 4]
	mov	al, byte ptr [rsp + 24]
	mov	ebx, ecx
	xor	bl, al
	mov	edi, -1703216472
	mov	ebp, -616711071
	cmovne	edi, ebp
	test	al, al
	mov	esi, edi
	cmovne	esi, ebp
	test	cl, cl
	cmove	esi, edi
	jmp	.LBB0_90
.LBB0_94:                               
	cmp	esi, -616711071
	je	.LBB0_101

	cmp	esi, 1506076261
	jne	.LBB0_90

	mov	eax, dword ptr [rip + x.123]
	mov	ecx, dword ptr [rip + y.124]
	lea	edx, [rax - 1]
	imul	edx, eax
	mov	eax, edx
	xor	eax, -2
	and	eax, edx
	sete	bl
	sete	byte ptr [rsp + 4]
	test	eax, eax
	mov	edx, -1703216472
	mov	esi, 1506076261
	cmove	edx, esi
	cmp	ecx, 10
	setl	al
	setl	byte ptr [rsp + 24]
	bswap	r8d
	cmovge	edx, r10d
	xor	al, bl
	cmovne	edx, esi
	mov	esi, -1594289886
	jmp	.LBB0_97
.LBB0_72:                               
	mov	dword ptr [r9 + 4], r8d
	mov	esi, -616711071
	jmp	.LBB0_62
.LBB0_71:                               
	mov	dword ptr [r9 + 4], r8d
	mov	esi, edx
.LBB0_62:                               

	cmp	esi, -616711072
	jg	.LBB0_68

	cmp	esi, -1703216472
	je	.LBB0_72

	cmp	esi, -1594289886
	jne	.LBB0_62

	mov	bl, byte ptr [rsp + 4]
	mov	cl, byte ptr [rsp + 24]
	mov	eax, ebx
	xor	al, cl
	mov	eax, -1703216472
	mov	edi, -616711071
	cmovne	eax, edi
	test	cl, cl
	mov	esi, eax
	cmovne	esi, edi
	test	bl, bl
	cmove	esi, eax
	jmp	.LBB0_62
.LBB0_68:                               
	cmp	esi, -616711071
	je	.LBB0_71

	cmp	esi, 1506076261
	jne	.LBB0_62

	mov	rax, qword ptr [rsp + 48]
	add	rax, 8
	mov	qword ptr [rsp + 128], rax
	mov	rax, qword ptr [rsp + 64]
	add	rax, 8
	mov	qword ptr [rsp + 136], rax
	mov	rax, qword ptr [rsp + 32]
	dec	rax
	mov	qword ptr [rsp + 144], rax
	mov	eax, dword ptr [rip + x]
	mov	ecx, dword ptr [rip + y]
	lea	edx, [rax - 1]
	imul	edx, eax
	not	edx
	or	edx, -2
	mov	edi, -1
	cmp	edx, edi
	sete	al
	cmp	ecx, 10
	setl	bl
	xor	bl, al
	mov	esi, -1870849012
	mov	ebp, -1487841670
	cmovne	esi, ebp
	cmp	edx, edi
	mov	eax, esi
	cmove	eax, ebp
	cmp	ecx, 10
	cmovge	eax, esi
	jmp	.LBB0_1
.LBB0_107:                              
	mov	dword ptr [r9 + 4], r8d
	mov	esi, -616711071
	jmp	.LBB0_97
.LBB0_106:                              
	mov	dword ptr [r9 + 4], r8d
	mov	esi, edx
.LBB0_97:                               

	cmp	esi, -616711072
	jg	.LBB0_103

	cmp	esi, -1703216472
	je	.LBB0_107

	cmp	esi, -1594289886
	jne	.LBB0_97

	mov	bl, byte ptr [rsp + 4]
	mov	cl, byte ptr [rsp + 24]
	mov	eax, ebx
	xor	al, cl
	test	cl, cl
	mov	esi, -1703216472
	mov	ecx, -616711071
	cmovne	esi, ecx
	test	bl, bl
	cmove	esi, r10d
	test	al, al
	cmovne	esi, ecx
	jmp	.LBB0_97
.LBB0_103:                              
	cmp	esi, -616711071
	je	.LBB0_106

	cmp	esi, 1506076261
	jne	.LBB0_97

	mov	rax, qword ptr [rsp + 48]
	mov	rax, qword ptr [rsp + 64]
	mov	rax, qword ptr [rsp + 32]
	mov	rax, qword ptr [rsp + 32]
	mov	rax, qword ptr [rsp + 32]
	mov	rax, qword ptr [rsp + 32]
	mov	rax, qword ptr [rsp + 32]
	mov	rax, qword ptr [rsp + 32]
	mov	eax, 202441066
.LBB0_1:                                












	cmp	eax, -91618976
	jle	.LBB0_2

	cmp	eax, 1696326027
	jg	.LBB0_14

	cmp	eax, 202441066
	je	.LBB0_38

	cmp	eax, 304869793
	je	.LBB0_37

	cmp	eax, -91618975
	jne	.LBB0_1

	add	rsp, 152
	pop	rbx
	pop	r12
	pop	r13
	pop	r14
	pop	r15
	pop	rbp
	ret
.Lfunc_end0:
	.size	_ZNK5Botan3DES9encrypt_nEPKhPhm, .Lfunc_end0-_ZNK5Botan3DES9encrypt_nEPKhPhm
	.cfi_endproc

	.section	.text._ZNK5Botan18SymmetricAlgorithm14verify_key_setEb,"axG",@progbits,_ZNK5Botan18SymmetricAlgorithm14verify_key_setEb,comdat
	.weak	_ZNK5Botan18SymmetricAlgorithm14verify_key_setEb 
	.p2align	1, 0x90
	.type	_ZNK5Botan18SymmetricAlgorithm14verify_key_setEb,@function
_ZNK5Botan18SymmetricAlgorithm14verify_key_setEb: 
	.cfi_startproc

	push	rbp
.Lcfi13:
	.cfi_def_cfa_offset 16
	push	rbx
.Lcfi14:
	.cfi_def_cfa_offset 24
	push	rax
.Lcfi15:
	.cfi_def_cfa_offset 32
.Lcfi16:
	.cfi_offset rbx, -24
.Lcfi17:
	.cfi_offset rbp, -16
	mov	rbx, rdi
	movzx	eax, sil
	mov	dword ptr [rsp + 4], eax
	mov	eax, -572229255
	mov	ebp, 1547828887
	jmp	.LBB1_1
.LBB1_3:                                
	cmp	eax, -572229255
	jne	.LBB1_1

	cmp	dword ptr [rsp + 4], 0
	mov	eax, 1215554264
	cmove	eax, ebp
	jmp	.LBB1_1
.LBB1_5:                                
	mov	rdi, rbx
	call	_ZNK5Botan18SymmetricAlgorithm23throw_key_not_set_errorEv
	mov	eax, 1215554264
.LBB1_1:                                
	cmp	eax, 1547828887
	je	.LBB1_5

	cmp	eax, 1215554264
	jne	.LBB1_3

	add	rsp, 8
	pop	rbx
	pop	rbp
	ret
.Lfunc_end1:
	.size	_ZNK5Botan18SymmetricAlgorithm14verify_key_setEb, .Lfunc_end1-_ZNK5Botan18SymmetricAlgorithm14verify_key_setEb
	.cfi_endproc

	.section	.text._ZNKSt6vectorIjN5Botan16secure_allocatorIjEEE5emptyEv,"axG",@progbits,_ZNKSt6vectorIjN5Botan16secure_allocatorIjEEE5emptyEv,comdat
	.weak	_ZNKSt6vectorIjN5Botan16secure_allocatorIjEEE5emptyEv 
	.p2align	1, 0x90
	.type	_ZNKSt6vectorIjN5Botan16secure_allocatorIjEEE5emptyEv,@function
_ZNKSt6vectorIjN5Botan16secure_allocatorIjEEE5emptyEv: 

	mov	eax, dword ptr [rip + x.11]
	mov	ecx, dword ptr [rip + y.12]
	mov	edx, eax
	neg	edx
	not	edx
	imul	edx, eax
	mov	eax, edx
	xor	eax, -2
	and	eax, edx
	sete	dl
	sete	byte ptr [rsp - 3]
	test	eax, eax
	mov	esi, -1687554237
	mov	r8d, -1280601047
	mov	eax, -1280601047
	cmove	eax, esi
	cmp	ecx, 10
	setl	cl
	setl	byte ptr [rsp - 2]
	cmovge	eax, r8d
	xor	cl, dl
	cmovne	eax, esi
	mov	edx, 1981471668
	mov	esi, 1535152421
	jmp	.LBB2_1
.LBB2_3:                                
	cmp	edx, -1280601047
	jne	.LBB2_1

	mov	edx, 1535152421
	jmp	.LBB2_1
.LBB2_5:                                
	cmp	edx, 1535152421
	je	.LBB2_8

	cmp	edx, 1981471668
	jne	.LBB2_1

	mov	r8b, byte ptr [rsp - 3]
	mov	dl, byte ptr [rsp - 2]
	mov	ecx, r8d
	xor	cl, dl
	mov	ecx, -1280601047
	cmovne	ecx, esi
	test	dl, dl
	mov	edx, ecx
	cmovne	edx, esi
	test	r8b, r8b
	cmove	edx, ecx
	jmp	.LBB2_1
.LBB2_8:                                
	mov	rcx, qword ptr [rdi]
	cmp	rcx, qword ptr [rdi + 8]
	sete	byte ptr [rsp - 1]
	mov	edx, eax
.LBB2_1:                                
	cmp	edx, 1535152420
	jg	.LBB2_5

	cmp	edx, -1687554237
	jne	.LBB2_3

	mov	al, byte ptr [rsp - 1]
	ret
.Lfunc_end2:
	.size	_ZNKSt6vectorIjN5Botan16secure_allocatorIjEEE5emptyEv, .Lfunc_end2-_ZNKSt6vectorIjN5Botan16secure_allocatorIjEEE5emptyEv

	.text
	.type	_ZN5Botan12_GLOBAL__N_114des_encrypt_x2ERjS1_S1_S1_PKj,@function 
_ZN5Botan12_GLOBAL__N_114des_encrypt_x2ERjS1_S1_S1_PKj: 

	push	rbp
	push	r15
	push	r14
	push	r13
	push	r12
	push	rbx
	sub	rsp, 72
	mov	qword ptr [rsp + 32], r8 
	mov	r9, rcx
	mov	r10, rsi
	mov	r11, rdi
	mov	r13d, dword ptr [r11]
	mov	r15d, dword ptr [r10]
	mov	r14d, dword ptr [rdx]
	mov	eax, dword ptr [r9]
	xor	r8d, r8d
.LBB3_1:                                

	mov	edi, 120700058
	jmp	.LBB3_2
.LBB3_7:                                
	cmp	edi, 1180244601
	je	.LBB3_11

	cmp	edi, 367382189
	je	.LBB3_12

	cmp	edi, 120700058
	jne	.LBB3_2

	mov	qword ptr [rsp + 24], r8
	mov	dword ptr [rsp + 8], eax
	mov	dword ptr [rsp + 16], r14d
	mov	dword ptr [rsp + 12], r15d
	mov	dword ptr [rsp + 20], r13d
	mov	rcx, qword ptr [rsp + 24]
	cmp	rcx, 16
	mov	edi, -150549694
	mov	ecx, 1180244601
	cmove	edi, ecx
	jmp	.LBB3_2
.LBB3_14:                               
	mov	ecx, dword ptr [rsp + 20]
	mov	dword ptr [r11], ecx
	mov	ecx, dword ptr [rsp + 12]
	mov	dword ptr [r10], ecx
	mov	ecx, dword ptr [rsp + 16]
	mov	dword ptr [rdx], ecx
	mov	ecx, dword ptr [rsp + 8]
	mov	dword ptr [r9], ecx
	mov	edi, 367382189
	jmp	.LBB3_2
.LBB3_11:                               
	mov	edi, dword ptr [rip + x.17]
	mov	esi, dword ptr [rip + y.18]
	lea	ecx, [rdi - 1]
	imul	ecx, edi
	mov	edi, ecx
	xor	edi, -2
	and	edi, ecx
	sete	bl
	cmp	esi, 10
	setl	cl
	xor	cl, bl
	mov	ecx, -1800616768
	mov	ebx, 367382189
	cmovne	ecx, ebx
	test	edi, edi
	mov	edi, ecx
	cmove	edi, ebx
	cmp	esi, 10
	cmovge	edi, ecx
	jmp	.LBB3_2
.LBB3_12:                               
	mov	ecx, dword ptr [rsp + 20]
	mov	dword ptr [r11], ecx
	mov	ecx, dword ptr [rsp + 12]
	mov	dword ptr [r10], ecx
	mov	ecx, dword ptr [rsp + 16]
	mov	dword ptr [rdx], ecx
	mov	ecx, dword ptr [rsp + 8]
	mov	dword ptr [r9], ecx
	mov	ecx, dword ptr [rip + x.17]
	lea	esi, [rcx - 1]
	imul	esi, ecx
	not	esi
	or	esi, -2
	mov	ecx, -1
	cmp	esi, ecx
	sete	cl
	mov	edi, -1800616768
	mov	ebp, -1439894831
	cmove	edi, ebp
	cmp	dword ptr [rip + y.18], 10
	setl	bl
	mov	esi, -1800616768
	cmovge	edi, esi
	xor	bl, cl
	cmovne	edi, ebp
.LBB3_2:                                

	cmp	edi, 120700057
	jg	.LBB3_7

	cmp	edi, -1800616768
	je	.LBB3_14

	cmp	edi, -1439894831
	je	.LBB3_13

	cmp	edi, -150549694
	jne	.LBB3_2

	mov	eax, dword ptr [rsp + 12]
	rol	eax, 28
	mov	rbx, qword ptr [rsp + 24]
	lea	rcx, [8*rbx]
	mov	r12, -12
	sub	r12, rcx
	mov	ecx, eax
	not	ecx
	mov	rbp, qword ptr [rsp + 32] 
	mov	edi, dword ptr [rbp + 8*rbx]
	mov	esi, dword ptr [rbp + 8*rbx + 4]
	and	ecx, edi
	not	edi
	and	edi, eax
	or	edi, ecx
	mov	eax, dword ptr [rsp + 12]
	mov	ecx, eax
	not	ecx
	and	ecx, esi
	not	esi
	and	esi, eax
	or	esi, ecx
	mov	qword ptr [rsp + 64], r9 
	mov	qword ptr [rsp + 56], rdx 
	mov	qword ptr [rsp + 48], r10 
	mov	qword ptr [rsp + 40], r11 
	call	_ZN5Botan12_GLOBAL__N_15spboxEjj
	mov	r13d, eax
	mov	eax, dword ptr [rsp + 20]
	mov	ecx, eax
	not	ecx
	and	ecx, r13d
	not	r13d
	and	r13d, eax
	or	r13d, ecx
	mov	eax, dword ptr [rsp + 8]
	mov	ecx, eax
	shr	ecx, 4
	shl	eax, 28
	mov	edx, ecx
	not	edx
	mov	esi, eax
	not	esi
	and	edx, 1203202181
	and	ecx, 138975098
	or	ecx, edx
	and	esi, 1203202181
	and	eax, -1342177280
	or	eax, esi
	xor	eax, ecx
	mov	ecx, eax
	not	ecx
	and	ecx, 407201171
	and	eax, -407201172
	or	eax, ecx
	mov	edi, dword ptr [rbp + 8*rbx]
	mov	esi, dword ptr [rbp + 8*rbx + 4]
	mov	ecx, edi
	not	ecx
	and	ecx, 407201171
	and	edi, -407201172
	or	edi, ecx
	xor	edi, eax
	mov	eax, dword ptr [rsp + 8]
	mov	ecx, eax
	not	ecx
	and	ecx, -1147428995
	and	eax, 1147428994
	or	eax, ecx
	mov	ecx, esi
	not	ecx
	and	ecx, -1147428995
	and	esi, 1147428994
	or	esi, ecx
	xor	esi, eax
	call	_ZN5Botan12_GLOBAL__N_15spboxEjj
	mov	r14d, eax
	mov	eax, dword ptr [rsp + 16]
	mov	ecx, eax
	not	ecx
	and	ecx, 1096635527
	and	eax, -1096635528
	or	eax, ecx
	mov	ecx, r14d
	not	ecx
	and	ecx, 1096635527
	and	r14d, -1096635528
	or	r14d, ecx
	xor	r14d, eax
	mov	eax, r13d
	rol	eax, 28
	movabs	rcx, 9148040337654086442
	lea	rbx, [rcx + 2*rbx + 2]
	sub	rbx, rcx
	mov	ecx, dword ptr [rbp + 4*rbx]
	mov	edi, ecx
	not	edi
	and	edi, eax
	not	eax
	and	eax, ecx
	or	edi, eax
	mov	rax, rbp
	sub	rax, r12
	neg	r12
	mov	esi, dword ptr [rax]
	mov	eax, r13d
	not	eax
	and	eax, esi
	not	esi
	and	esi, r13d
	or	esi, eax
	call	_ZN5Botan12_GLOBAL__N_15spboxEjj
	mov	r15d, eax
	mov	eax, dword ptr [rsp + 12]
	mov	ecx, eax
	not	ecx
	and	ecx, r15d
	not	r15d
	and	r15d, eax
	or	r15d, ecx
	mov	eax, r14d
	rol	eax, 28
	mov	ecx, dword ptr [rbp + 4*rbx]
	mov	edi, ecx
	not	edi
	and	edi, eax
	not	eax
	and	eax, ecx
	or	edi, eax
	mov	esi, dword ptr [rbp + r12]
	mov	eax, esi
	not	eax
	and	eax, 888904289
	and	esi, -888904290
	or	esi, eax
	mov	eax, r14d
	not	eax
	and	eax, 888904289
	mov	ecx, r14d
	and	ecx, -888904290
	or	ecx, eax
	xor	esi, ecx
	call	_ZN5Botan12_GLOBAL__N_15spboxEjj
	mov	r11, qword ptr [rsp + 40] 
	mov	r10, qword ptr [rsp + 48] 
	mov	rdx, qword ptr [rsp + 56] 
	mov	r9, qword ptr [rsp + 64] 
	mov	ecx, dword ptr [rsp + 8]
	mov	esi, ecx
	not	esi
	and	esi, 1378133555
	and	ecx, -1378133556
	or	ecx, esi
	mov	esi, eax
	not	esi
	and	esi, 1378133555
	and	eax, -1378133556
	or	eax, esi
	xor	eax, ecx
	mov	rcx, qword ptr [rsp + 24]
	movabs	rsi, 913344840100201452
	sub	rcx, rsi
	lea	r8, [rcx + rsi + 2]
	jmp	.LBB3_1
.LBB3_13:
	add	rsp, 72
	pop	rbx
	pop	r12
	pop	r13
	pop	r14
	pop	r15
	pop	rbp
	ret
.Lfunc_end3:
	.size	_ZN5Botan12_GLOBAL__N_114des_encrypt_x2ERjS1_S1_S1_PKj, .Lfunc_end3-_ZN5Botan12_GLOBAL__N_114des_encrypt_x2ERjS1_S1_S1_PKj

	.type	_ZN5Botan12_GLOBAL__N_16des_FPERjS1_,@function 
_ZN5Botan12_GLOBAL__N_16des_FPERjS1_:   

	push	rbp
	push	r15
	push	r14
	push	r13
	push	r12
	push	rbx
	mov	eax, dword ptr [rip + x.21]
	lea	ecx, [rax - 1]
	imul	ecx, eax
	mov	eax, ecx
	xor	eax, -2
	test	eax, ecx
	sete	byte ptr [rsp - 14]
	mov	eax, dword ptr [rip + y.22]
	cmp	eax, 10
	setl	byte ptr [rsp - 13]
	mov	ecx, 1323379726
	mov	r15d, 1349989321
	mov	r12d, 423878212
	mov	r9d, -1
	mov	r11d, -737929980
	mov	r14d, 1459023803
	jmp	.LBB4_1
.LBB4_3:                                
	cmp	ecx, 840315410
	jne	.LBB4_1

	mov	edx, dword ptr [rsi]
	ror	edx
	mov	dword ptr [rsi], edx
	mov	eax, dword ptr [rdi]
	mov	ecx, eax
	not	ecx
	and	ecx, -980827855
	and	eax, 980827854
	or	eax, ecx
	mov	ebx, edx
	not	ebx
	mov	ebp, ebx
	and	ebp, -980827855
	mov	ecx, edx
	and	ecx, 980827854
	or	ecx, ebp
	xor	ecx, eax
	mov	eax, ecx
	xor	eax, 1431655765
	and	eax, ecx
	mov	r8d, eax
	not	r8d
	mov	ecx, r8d
	and	ecx, -227333135
	mov	ebp, eax
	and	ebp, 227333134
	or	ebp, ecx
	and	ebx, -227333135
	and	edx, 227333134
	or	edx, ebx
	xor	edx, ebp
	mov	dword ptr [rsi], edx
	mov	ecx, dword ptr [rdi]
	and	r8d, ecx
	not	ecx
	and	ecx, eax
	or	r8d, ecx
	mov	eax, dword ptr [rip + x.115]
	mov	r10d, dword ptr [rip + y.116]
	mov	edx, eax
	neg	edx
	not	edx
	imul	edx, eax
	mov	eax, edx
	xor	eax, -2
	and	eax, edx
	sete	dl
	sete	byte ptr [rsp - 12]
	mov	ebp, r8d
	shr	ebp, 9
	shl	r8d, 23
	mov	ebx, ebp
	not	ebx
	mov	ecx, r8d
	not	ecx
	and	ebx, -1771212146
	and	ebp, 1215857
	or	ebp, ebx
	and	ecx, -1771212146
	and	r8d, 1769996288
	or	r8d, ecx
	xor	r8d, ebp
	test	eax, eax
	mov	ebp, -1037862267
	cmove	ebp, r15d
	cmp	r10d, 10
	setl	al
	setl	byte ptr [rsp - 11]
	mov	ecx, -1037862267
	cmovge	ebp, ecx
	xor	al, dl
	cmovne	ebp, r15d
	mov	ecx, -1889108130
	jmp	.LBB4_5
.LBB4_9:                                
	cmp	ecx, 1459023803
	je	.LBB4_12

	cmp	ecx, 1323379726
	jne	.LBB4_1

	mov	al, byte ptr [rsp - 14]
	mov	cl, byte ptr [rsp - 13]
	mov	ebx, eax
	xor	bl, cl
	test	cl, cl
	mov	ecx, 840315410
	cmovne	ecx, r14d
	test	al, al
	mov	eax, 840315410
	cmove	ecx, eax
	test	bl, bl
	cmovne	ecx, r14d
	jmp	.LBB4_1
.LBB4_26:                               
	mov	al, byte ptr [rsp - 12]
	mov	cl, byte ptr [rsp - 11]
	mov	edx, eax
	xor	dl, cl
	mov	edx, -1037862267
	cmovne	edx, r12d
	test	cl, cl
	mov	ecx, edx
	cmovne	ecx, r12d
	test	al, al
	cmove	ecx, edx
	jmp	.LBB4_5
.LBB4_27:                               
	mov	dword ptr [rsp - 8], r8d
	mov	ecx, ebp
.LBB4_5:                                

	cmp	ecx, 423878211
	jg	.LBB4_23

	cmp	ecx, -1889108130
	je	.LBB4_26

	cmp	ecx, -1037862267
	jne	.LBB4_5

	mov	ecx, 423878212
	jmp	.LBB4_5
.LBB4_23:                               
	cmp	ecx, 423878212
	je	.LBB4_27

	cmp	ecx, 1349989321
	jne	.LBB4_5

	mov	eax, dword ptr [rsp - 8]
	mov	dword ptr [rdi], eax
	mov	ecx, dword ptr [rsi]
	mov	edx, ecx
	not	edx
	mov	ebp, eax
	and	ebp, edx
	not	eax
	and	eax, ecx
	or	eax, ebp
	mov	ebp, eax
	xor	ebp, -16711936
	and	ebp, eax
	mov	ebx, ebp
	not	ebx
	and	ecx, ebx
	and	edx, ebp
	or	edx, ecx
	mov	dword ptr [rsi], edx
	mov	ecx, dword ptr [rdi]
	mov	eax, ecx
	not	eax
	and	eax, ebp
	and	ebx, ecx
	or	ebx, eax
	shl	ebx, 6
	shr	ecx, 26
	mov	eax, ebx
	not	eax
	mov	edx, ecx
	not	edx
	and	eax, -1908980256
	and	ebx, 1908980224
	or	ebx, eax
	and	edx, -1908980256
	and	ecx, 31
	or	ecx, edx
	xor	ecx, ebx
	mov	dword ptr [rdi], ecx
	mov	eax, dword ptr [rsi]
	mov	edx, ecx
	not	edx
	and	edx, eax
	mov	ebp, eax
	not	ebp
	and	ecx, ebp
	or	ecx, edx
	mov	ebx, ecx
	xor	ebx, -858993460
	and	ebx, ecx
	mov	ecx, ebx
	not	ecx
	mov	r8d, ecx
	and	r8d, -1605764015
	mov	edx, ebx
	and	edx, 1605764014
	or	edx, r8d
	and	ebp, -1605764015
	and	eax, 1605764014
	or	eax, ebp
	xor	eax, edx
	mov	dword ptr [rsi], eax
	mov	eax, dword ptr [rdi]
	and	ecx, eax
	not	eax
	and	eax, ebx
	or	eax, ecx
	rol	eax, 18
	mov	dword ptr [rdi], eax
	mov	ebp, dword ptr [rsi]
	mov	edx, eax
	not	edx
	and	edx, ebp
	mov	ecx, ebp
	not	ecx
	and	eax, ecx
	or	eax, edx
	mov	edx, eax
	xor	edx, 65535
	and	edx, eax
	mov	eax, edx
	not	eax
	and	ebp, eax
	and	ecx, edx
	or	ecx, ebp
	mov	dword ptr [rsi], ecx
	mov	ebp, dword ptr [rdi]
	and	eax, -2096160768
	and	edx, 2096156672
	or	edx, eax
	mov	eax, ebp
	not	eax
	and	eax, -2096160768
	mov	ecx, ebp
	and	ecx, 2096156672
	or	ecx, eax
	xor	ecx, edx
	shrd	ecx, ebp, 12
	mov	dword ptr [rdi], ecx
	mov	eax, dword ptr [rsi]
	mov	edx, ecx
	not	edx
	and	edx, 1824601232
	and	ecx, -1824601233
	or	ecx, edx
	mov	edx, eax
	not	edx
	mov	ebp, edx
	and	ebp, 1824601232
	mov	ebx, eax
	and	ebx, -1824601233
	or	ebx, ebp
	xor	ebx, ecx
	mov	ebp, ebx
	not	ebp
	or	ebp, 252645135
	and	edx, ebx
	and	eax, ebp
	and	edx, -252645136
	or	edx, eax
	mov	dword ptr [rsi], edx
	mov	ecx, dword ptr [rdi]
	and	ebp, -1136398160
	and	ebx, 1085276224
	or	ebx, ebp
	mov	eax, ecx
	not	eax
	and	eax, -1136398160
	mov	edx, ecx
	and	edx, 1136398144
	or	edx, eax
	xor	edx, ebx
	shr	edx, 4
	shl	ecx, 28
	mov	eax, edx
	not	eax
	mov	ebp, ecx
	not	ebp
	and	eax, -1730325667
	and	edx, 119712930
	or	edx, eax
	and	ebp, -1730325667
	and	ecx, 1610612736
	or	ecx, ebp
	xor	ecx, edx
	mov	dword ptr [rdi], ecx
	mov	ecx, 1459023803
	jmp	.LBB4_1
.LBB4_12:                               
	mov	ebp, dword ptr [rsi]
	ror	ebp
	mov	dword ptr [rsi], ebp
	mov	eax, dword ptr [rdi]
	mov	ecx, eax
	not	ecx
	and	ecx, ebp
	mov	edx, ebp
	not	edx
	and	eax, edx
	or	eax, ecx
	mov	ebx, eax
	xor	ebx, 1431655765
	and	ebx, eax
	mov	r13d, ebx
	not	r13d
	mov	eax, r13d
	and	eax, 1009522952
	mov	ecx, ebx
	and	ecx, -1009522953
	or	ecx, eax
	and	edx, 1009522952
	and	ebp, -1009522953
	or	ebp, edx
	xor	ebp, ecx
	mov	dword ptr [rsi], ebp
	mov	r8d, dword ptr [rdi]
	mov	ecx, dword ptr [rip + x.115]
	mov	edx, dword ptr [rip + y.116]
	lea	ebp, [rcx - 1]
	imul	ebp, ecx
	mov	ecx, ebp
	xor	ecx, -2
	and	ecx, ebp
	sete	bpl
	sete	byte ptr [rsp - 10]
	cmp	edx, 10
	setl	r10b
	xor	r10b, bpl
	mov	ebp, -1037862267
	cmovne	ebp, r15d
	test	ecx, ecx
	mov	eax, ebp
	cmove	eax, r15d
	cmp	edx, 10
	setl	byte ptr [rsp - 9]
	cmovge	eax, ebp
	and	r13d, r8d
	not	r8d
	and	r8d, ebx
	or	r13d, r8d
	rol	r13d, 23
	mov	ecx, -1889108130
	jmp	.LBB4_13
.LBB4_20:                               
	mov	bl, byte ptr [rsp - 10]
	mov	cl, byte ptr [rsp - 9]
	mov	edx, ebx
	xor	dl, cl
	test	cl, cl
	mov	ecx, -1037862267
	cmovne	ecx, r12d
	test	bl, bl
	mov	ebp, -1037862267
	cmove	ecx, ebp
	test	dl, dl
	cmovne	ecx, r12d
	jmp	.LBB4_13
.LBB4_21:                               
	mov	dword ptr [rsp - 4], r13d
	mov	ecx, eax
.LBB4_13:                               

	cmp	ecx, 423878211
	jg	.LBB4_17

	cmp	ecx, -1889108130
	je	.LBB4_20

	cmp	ecx, -1037862267
	jne	.LBB4_13

	mov	ecx, 423878212
	jmp	.LBB4_13
.LBB4_17:                               
	cmp	ecx, 423878212
	je	.LBB4_21

	cmp	ecx, 1349989321
	jne	.LBB4_13

	mov	eax, dword ptr [rsp - 4]
	mov	dword ptr [rdi], eax
	mov	ebp, dword ptr [rsi]
	mov	r8d, ebp
	not	r8d
	mov	edx, r8d
	and	edx, 904895643
	mov	ecx, ebp
	and	ecx, -904895644
	or	ecx, edx
	mov	edx, eax
	not	edx
	and	edx, 904895643
	and	eax, -904895644
	or	eax, edx
	xor	eax, ecx
	mov	ebx, eax
	xor	ebx, -16711936
	and	ebx, eax
	mov	eax, ebx
	not	eax
	mov	ecx, eax
	and	ecx, 572169994
	mov	edx, ebx
	and	edx, -572169995
	or	edx, ecx
	and	r8d, 572169994
	and	ebp, -572169995
	or	ebp, r8d
	xor	ebp, edx
	mov	dword ptr [rsi], ebp
	mov	ebp, dword ptr [rdi]
	mov	ecx, ebp
	not	ecx
	and	ecx, 65598086
	mov	edx, ebp
	and	edx, 1510777
	or	edx, ecx
	and	eax, 65598086
	and	ebx, 1510777
	or	ebx, eax
	xor	ebx, edx
	shl	ebx, 6
	shr	ebp, 26
	mov	eax, ebx
	not	eax
	mov	ecx, ebp
	not	ecx
	and	eax, 1677959230
	and	ebx, -1677959232
	or	ebx, eax
	and	ecx, 1677959230
	and	ebp, 1
	or	ebp, ecx
	xor	ebp, ebx
	mov	dword ptr [rdi], ebp
	mov	eax, dword ptr [rsi]
	mov	ecx, ebp
	not	ecx
	and	ecx, 427838947
	and	ebp, -427838948
	or	ebp, ecx
	mov	edx, eax
	not	edx
	mov	ebx, edx
	and	ebx, 427838947
	mov	ecx, eax
	and	ecx, -427838948
	or	ecx, ebx
	xor	ecx, ebp
	mov	ebx, ecx
	not	ebx
	or	ebx, -858993460
	and	edx, ecx
	and	eax, ebx
	and	edx, 858993459
	or	edx, eax
	mov	dword ptr [rsi], edx
	mov	ebp, dword ptr [rdi]
	and	ebx, 2041283081
	and	ecx, 34615602
	or	ecx, ebx
	mov	eax, ebp
	not	eax
	and	eax, 2041283081
	and	ebp, -2041283082
	or	ebp, eax
	xor	ebp, ecx
	mov	eax, ebp
	shl	eax, 18
	shr	ebp, 14
	mov	ecx, eax
	not	ecx
	mov	edx, ebp
	not	edx
	and	ecx, 1627835522
	and	eax, -1627914240
	or	eax, ecx
	and	edx, 1627835522
	and	ebp, 78717
	or	ebp, edx
	xor	ebp, eax
	mov	dword ptr [rdi], ebp
	mov	eax, dword ptr [rsi]
	mov	ecx, ebp
	not	ecx
	and	ecx, eax
	mov	edx, eax
	not	edx
	and	ebp, edx
	or	ebp, ecx
	mov	ecx, ebp
	not	ecx
	or	ecx, 65535
	mov	r8d, ecx
	and	r8d, 309612977
	mov	ebx, ebp
	and	ebx, -309657600
	or	ebx, r8d
	and	edx, 309612977
	and	eax, -309612978
	or	eax, edx
	xor	eax, ebx
	mov	dword ptr [rsi], eax
	mov	ebx, dword ptr [rdi]
	mov	eax, ebx
	not	eax
	and	eax, ebp
	and	ecx, ebx
	and	eax, -65536
	or	eax, ecx
	shl	ebx, 20
	shr	eax, 12
	mov	ecx, eax
	not	ecx
	mov	edx, ebx
	not	edx
	and	ecx, 117833843
	and	eax, 655244
	or	eax, ecx
	and	edx, 117833843
	and	ebx, -118489088
	or	ebx, edx
	xor	ebx, eax
	mov	dword ptr [rdi], ebx
	mov	eax, dword ptr [rsi]
	mov	ecx, ebx
	not	ecx
	and	ecx, eax
	mov	edx, eax
	not	edx
	and	ebx, edx
	or	ebx, ecx
	mov	ebp, ebx
	not	ebp
	or	ebp, 252645135
	mov	r8d, ebp
	and	r8d, -125767113
	mov	ecx, ebx
	and	ecx, 7340224
	or	ecx, r8d
	and	edx, -125767113
	and	eax, 125767112
	or	eax, edx
	xor	eax, ecx
	mov	dword ptr [rsi], eax
	mov	ecx, dword ptr [rdi]
	and	ebp, -1632301808
	and	ebx, 1614868704
	or	ebx, ebp
	mov	eax, ecx
	not	eax
	and	eax, -1632301808
	mov	edx, ecx
	and	edx, 1632301792
	or	edx, eax
	xor	edx, ebx
	shr	edx, 4
	shl	ecx, 28
	mov	eax, edx
	not	eax
	mov	ebp, ecx
	not	ebp
	and	eax, 2001295464
	and	edx, 146188183
	or	edx, eax
	and	ebp, 2001295464
	and	ecx, -2147483648
	or	ecx, ebp
	xor	ecx, edx
	mov	dword ptr [rdi], ecx
	mov	eax, dword ptr [rip + x.21]
	mov	edx, dword ptr [rip + y.22]
	lea	ecx, [rax - 1]
	imul	ecx, eax
	not	ecx
	or	ecx, -2
	cmp	ecx, r9d
	sete	al
	cmp	edx, 10
	setl	bl
	xor	bl, al
	mov	eax, 840315410
	cmovne	eax, r11d
	cmp	ecx, r9d
	mov	ecx, eax
	cmove	ecx, r11d
	cmp	edx, 10
	cmovge	ecx, eax
.LBB4_1:                                


	cmp	ecx, 1323379725
	jg	.LBB4_9

	cmp	ecx, -737929980
	jne	.LBB4_3

	pop	rbx
	pop	r12
	pop	r13
	pop	r14
	pop	r15
	pop	rbp
	ret
.Lfunc_end4:
	.size	_ZN5Botan12_GLOBAL__N_16des_FPERjS1_, .Lfunc_end4-_ZN5Botan12_GLOBAL__N_16des_FPERjS1_

	.section	.text._ZN5Botan8store_beIjEEvPhT_S2_S2_S2_,"axG",@progbits,_ZN5Botan8store_beIjEEvPhT_S2_S2_S2_,comdat
	.weak	_ZN5Botan8store_beIjEEvPhT_S2_S2_S2_ 
	.type	_ZN5Botan8store_beIjEEvPhT_S2_S2_S2_,@function
_ZN5Botan8store_beIjEEvPhT_S2_S2_S2_:   
	.cfi_startproc

	push	rbp
.Lcfi18:
	.cfi_def_cfa_offset 16
	push	rbx
.Lcfi19:
	.cfi_def_cfa_offset 24
.Lcfi20:
	.cfi_offset rbx, -24
.Lcfi21:
	.cfi_offset rbp, -16
	mov	r10d, dword ptr [rip + x.123]
	mov	r9d, dword ptr [rip + y.124]
	lea	r11d, [r10 - 1]
	imul	r11d, r10d
	not	r11d
	or	r11d, -2
	mov	eax, -1
	cmp	r11d, eax
	sete	byte ptr [rsp - 8]
	cmp	r9d, 10
	setl	byte ptr [rsp - 7]
	bswap	esi
	mov	eax, -1594289886
	mov	r10d, -616711071
	mov	r9d, -1703216472
	mov	r11d, 1506076261
	jmp	.LBB5_1
.LBB5_13:                               
	mov	dword ptr [rdi], esi
	mov	eax, -616711071
	jmp	.LBB5_1
.LBB5_12:                               
	mov	dword ptr [rdi], esi
	mov	eax, dword ptr [rip + x.123]
	lea	ebx, [rax - 1]
	imul	ebx, eax
	mov	eax, ebx
	xor	eax, -2
	and	eax, ebx
	sete	bpl
	test	eax, eax
	mov	eax, -1703216472
	cmove	eax, r11d
	cmp	dword ptr [rip + y.124], 10
	setl	bl
	cmovge	eax, r9d
	xor	bl, bpl
	cmovne	eax, r11d
.LBB5_1:                                
	cmp	eax, -616711072
	jg	.LBB5_5

	cmp	eax, -1703216472
	je	.LBB5_13

	cmp	eax, -1594289886
	jne	.LBB5_1

	mov	bpl, byte ptr [rsp - 8]
	mov	al, byte ptr [rsp - 7]
	mov	ebx, ebp
	xor	bl, al
	mov	ebx, -1703216472
	cmovne	ebx, r10d
	test	al, al
	mov	eax, ebx
	cmovne	eax, r10d
	test	bpl, bpl
	cmove	eax, ebx
	jmp	.LBB5_1
.LBB5_5:                                
	cmp	eax, -616711071
	je	.LBB5_12

	cmp	eax, 1506076261
	jne	.LBB5_1

	mov	eax, dword ptr [rip + x.123]
	mov	r9d, dword ptr [rip + y.124]
	mov	esi, eax
	neg	esi
	not	esi
	imul	esi, eax
	mov	eax, esi
	not	eax
	or	eax, -2
	and	esi, 1
	mov	ebp, -1
	cmp	eax, ebp
	sete	al
	sete	byte ptr [rsp - 2]
	mov	ebp, 1506076261
	mov	r10d, -1703216472
	mov	r11d, -1703216472
	cmove	r11d, ebp
	cmp	r9d, 10
	setl	bl
	setl	byte ptr [rsp - 1]
	bswap	edx
	cmovge	r11d, r10d
	xor	bl, al
	cmovne	r11d, ebp
	mov	eax, -1594289886
	mov	r10d, -616711071
	jmp	.LBB5_8
.LBB5_22:                               
	mov	dword ptr [rdi + 4], edx
	mov	eax, -616711071
	jmp	.LBB5_8
.LBB5_21:                               
	mov	dword ptr [rdi + 4], edx
	mov	eax, r11d
.LBB5_8:                                
	cmp	eax, -616711072
	jg	.LBB5_14

	cmp	eax, -1703216472
	je	.LBB5_22

	cmp	eax, -1594289886
	jne	.LBB5_8

	mov	bpl, byte ptr [rsp - 2]
	mov	al, byte ptr [rsp - 1]
	mov	ebx, ebp
	xor	bl, al
	mov	ebx, -1703216472
	cmovne	ebx, r10d
	test	al, al
	mov	eax, ebx
	cmovne	eax, r10d
	test	bpl, bpl
	cmove	eax, ebx
	jmp	.LBB5_8
.LBB5_14:                               
	cmp	eax, -616711071
	je	.LBB5_21

	cmp	eax, 1506076261
	jne	.LBB5_8

	test	esi, esi
	sete	byte ptr [rsp - 4]
	cmp	r9d, 10
	setl	byte ptr [rsp - 3]
	bswap	ecx
	mov	eax, -1594289886
	mov	ebp, -616711071
	mov	r10d, -1703216472
	jmp	.LBB5_17
.LBB5_31:                               
	mov	dword ptr [rdi + 8], ecx
	mov	eax, -616711071
	jmp	.LBB5_17
.LBB5_30:                               
	mov	dword ptr [rdi + 8], ecx
	mov	eax, r11d
.LBB5_17:                               
	cmp	eax, -616711072
	jg	.LBB5_23

	cmp	eax, -1703216472
	je	.LBB5_31

	cmp	eax, -1594289886
	jne	.LBB5_17

	mov	dl, byte ptr [rsp - 4]
	mov	al, byte ptr [rsp - 3]
	mov	ebx, edx
	xor	bl, al
	test	al, al
	mov	eax, -1703216472
	cmovne	eax, ebp
	test	dl, dl
	cmove	eax, r10d
	test	bl, bl
	cmovne	eax, ebp
	jmp	.LBB5_17
.LBB5_23:                               
	cmp	eax, -616711071
	je	.LBB5_30

	cmp	eax, 1506076261
	jne	.LBB5_17

	test	esi, esi
	sete	byte ptr [rsp - 6]
	cmp	r9d, 10
	setl	byte ptr [rsp - 5]
	bswap	r8d
	mov	eax, -1594289886
	mov	ecx, -616711071
	mov	esi, -1703216472
	jmp	.LBB5_26
.LBB5_36:                               
	mov	dword ptr [rdi + 12], r8d
	mov	eax, -616711071
	jmp	.LBB5_26
.LBB5_35:                               
	mov	dword ptr [rdi + 12], r8d
	mov	eax, r11d
.LBB5_26:                               
	cmp	eax, -616711072
	jg	.LBB5_32

	cmp	eax, -1703216472
	je	.LBB5_36

	cmp	eax, -1594289886
	jne	.LBB5_26

	mov	dl, byte ptr [rsp - 6]
	mov	al, byte ptr [rsp - 5]
	mov	ebx, edx
	xor	bl, al
	test	al, al
	mov	eax, -1703216472
	cmovne	eax, ecx
	test	dl, dl
	cmove	eax, esi
	test	bl, bl
	cmovne	eax, ecx
	jmp	.LBB5_26
.LBB5_32:                               
	cmp	eax, -616711071
	je	.LBB5_35

	cmp	eax, 1506076261
	jne	.LBB5_26

	pop	rbx
	pop	rbp
	ret
.Lfunc_end5:
	.size	_ZN5Botan8store_beIjEEvPhT_S2_S2_S2_, .Lfunc_end5-_ZN5Botan8store_beIjEEvPhT_S2_S2_S2_
	.cfi_endproc

	.text
	.globl	_ZNK5Botan3DES9decrypt_nEPKhPhm 
	.p2align	1, 0x90
	.type	_ZNK5Botan3DES9decrypt_nEPKhPhm,@function
_ZNK5Botan3DES9decrypt_nEPKhPhm:        
	.cfi_startproc

	push	rbp
.Lcfi22:
	.cfi_def_cfa_offset 16
	push	r15
.Lcfi23:
	.cfi_def_cfa_offset 24
	push	r14
.Lcfi24:
	.cfi_def_cfa_offset 32
	push	r13
.Lcfi25:
	.cfi_def_cfa_offset 40
	push	r12
.Lcfi26:
	.cfi_def_cfa_offset 48
	push	rbx
.Lcfi27:
	.cfi_def_cfa_offset 56
	sub	rsp, 168
.Lcfi28:
	.cfi_def_cfa_offset 224
.Lcfi29:
	.cfi_offset rbx, -56
.Lcfi30:
	.cfi_offset r12, -48
.Lcfi31:
	.cfi_offset r13, -40
.Lcfi32:
	.cfi_offset r14, -32
.Lcfi33:
	.cfi_offset r15, -24
.Lcfi34:
	.cfi_offset rbp, -16
	mov	r13, rcx
	mov	qword ptr [rsp + 96], rdx 
	mov	qword ptr [rsp + 88], rsi 
	mov	rbx, rdi
	lea	rax, [rbx + 8]
	mov	qword ptr [rsp + 64], rax
	mov	rdi, qword ptr [rsp + 64]
	call	_ZNKSt6vectorIjN5Botan16secure_allocatorIjEEE5emptyEv
	xor	al, 1
	movzx	esi, al
	mov	rdi, rbx
	call	_ZNK5Botan18SymmetricAlgorithm14verify_key_setEb
	mov	eax, -1469441706
	mov	r15d, -1






	jmp	.LBB6_1
.LBB6_40:                               
	mov	rax, qword ptr [rsp + 144]
	mov	qword ptr [rsp + 88], rax 
	mov	rax, qword ptr [rsp + 152]
	mov	qword ptr [rsp + 96], rax 
	mov	r13, qword ptr [rsp + 160]
	mov	eax, -1469441706
	jmp	.LBB6_1
.LBB6_20:                               
	mov	qword ptr [rsp + 48], r13
	mov	rax, qword ptr [rsp + 96] 
	mov	qword ptr [rsp + 56], rax
	mov	rax, qword ptr [rsp + 88] 
	mov	qword ptr [rsp + 40], rax
	mov	rax, qword ptr [rsp + 48]
	cmp	rax, 1
	mov	eax, -487769288
	mov	ecx, -1411245644
	cmova	eax, ecx
	jmp	.LBB6_1
.LBB6_21:                               
	mov	qword ptr [rsp + 136], r13 
	mov	rax, qword ptr [rsp + 40]
	mov	ebp, dword ptr [rax]
	bswap	ebp
	mov	rax, qword ptr [rsp + 40]
	mov	edi, dword ptr [rax + 4]
	bswap	edi
	mov	rax, qword ptr [rsp + 40]
	mov	r12d, dword ptr [rax + 8]
	bswap	r12d
	mov	dword ptr [rsp + 16], r12d
	mov	rcx, qword ptr [rsp + 40]
	mov	r11d, dword ptr [rcx + 12]
	bswap	r11d
	mov	dword ptr [rsp + 24], r11d
	mov	edx, edi
	shl	edx, 4
	rol	edi, 4
	mov	ecx, edx
	not	ecx
	and	ecx, 113391894
	and	edx, -113391904
	or	edx, ecx
	mov	esi, ebp
	not	esi
	mov	ebx, esi
	and	ebx, 113391894
	mov	ecx, ebp
	and	ecx, -113391895
	or	ecx, ebx
	xor	ecx, edx
	mov	edx, ecx
	not	edx
	or	edx, 252645135
	mov	ebx, edx
	and	ebx, -302454355
	mov	eax, ecx
	and	eax, 268439632
	or	eax, ebx
	and	esi, -302454355
	and	ebp, 302454354
	or	ebp, esi
	xor	ebp, eax
	and	edx, -1252348287
	and	ecx, 1084248176
	or	ecx, edx
	mov	eax, edi
	not	eax
	and	eax, -1252348287
	and	edi, 1252348286
	or	edi, eax
	xor	edi, ecx
	mov	eax, edi
	shr	eax, 20
	shl	edi, 12
	mov	ecx, eax
	not	ecx
	mov	esi, edi
	not	esi
	and	ecx, 846528640
	and	eax, 3967
	or	eax, ecx
	mov	ecx, ebp
	and	ecx, esi
	and	esi, 846528640
	mov	edx, edi
	and	edx, -846532608
	or	edx, esi
	xor	edx, eax
	mov	ebx, ebp
	not	ebx
	and	edi, ebx
	or	edi, ecx
	mov	eax, edi
	xor	eax, 65535
	and	eax, edi
	mov	ecx, eax
	not	ecx
	and	ebp, ecx
	and	ebx, eax
	or	ebx, ebp
	and	ecx, edx
	not	edx
	and	edx, eax
	or	edx, ecx
	mov	eax, edx
	shr	eax, 18
	shl	edx, 14
	mov	ecx, eax
	not	ecx
	mov	esi, edx
	not	esi
	and	ecx, -796614251
	and	eax, 7786
	or	eax, ecx
	and	esi, -796614251
	and	edx, 796606464
	or	edx, esi
	xor	edx, eax
	mov	ecx, edx
	not	ecx
	mov	eax, ebx
	and	eax, ecx
	mov	esi, ebx
	not	esi
	mov	ebp, edx
	and	ebp, esi
	or	ebp, eax
	mov	r14d, ebp
	xor	r14d, -858993460
	and	r14d, ebp
	mov	eax, r14d
	not	eax
	and	edx, eax
	and	eax, -1660704131
	mov	edi, r14d
	and	edi, 1660704130
	or	edi, eax
	and	esi, -1660704131
	and	ebx, 1660704130
	or	ebx, esi
	xor	ebx, edi
	and	r14d, ecx
	or	r14d, edx
	mov	eax, r14d
	shr	eax, 6
	rol	r14d, 26
	mov	dword ptr [rsp + 28], r14d
	mov	ecx, eax
	not	ecx
	and	ecx, -412670141
	and	eax, 10016956
	or	eax, ecx
	mov	edx, ebx
	not	edx
	mov	ecx, edx
	and	ecx, -412670141
	mov	esi, ebx
	and	esi, 412670140
	or	esi, ecx
	xor	esi, eax
	mov	eax, esi
	xor	eax, -16711936
	and	eax, esi
	mov	ecx, r14d
	mov	esi, eax
	not	r14d
	and	r14d, eax
	not	eax
	and	ecx, eax
	and	eax, -2002136011
	and	esi, 2002136010
	or	esi, eax
	and	edx, -2002136011
	and	ebx, 2002136010
	or	ebx, edx
	xor	ebx, esi
	mov	dword ptr [rsp + 32], ebx
	or	r14d, ecx
	mov	eax, dword ptr [rip + x.105]
	mov	r8d, dword ptr [rip + y.106]
	lea	r10d, [rax - 1]
	imul	r10d, eax
	mov	r9d, r10d
	xor	r9d, -2
	mov	eax, r9d
	and	eax, r10d
	sete	cl
	sete	byte ptr [rsp + 14]
	rol	r14d, 9
	test	eax, eax
	mov	r13d, 127678515
	mov	edx, -1181345563
	cmove	r13d, edx
	cmp	r8d, 10
	setl	al
	setl	byte ptr [rsp + 15]
	mov	esi, 127678515
	cmovge	r13d, esi
	xor	al, cl
	cmovne	r13d, edx
	mov	ecx, 127001814
	jmp	.LBB6_22
.LBB6_30:                               
	cmp	ecx, 127678515
	je	.LBB6_34

	cmp	ecx, 127001814
	jne	.LBB6_22

	mov	al, byte ptr [rsp + 14]
	mov	cl, byte ptr [rsp + 15]
	mov	edx, eax
	xor	dl, cl
	test	cl, cl
	mov	ecx, 127678515
	mov	esi, -1275833750
	cmovne	ecx, esi
	test	al, al
	mov	eax, 127678515
	cmove	ecx, eax
	test	dl, dl
	cmovne	ecx, esi
	jmp	.LBB6_22
.LBB6_33:                               
	mov	dword ptr [rsp + 20], r14d
	mov	ecx, r13d
	jmp	.LBB6_22
.LBB6_34:                               
	mov	ecx, -1275833750
.LBB6_22:                               

	cmp	ecx, 127001813
	jg	.LBB6_30

	cmp	ecx, -1275833750
	je	.LBB6_33

	cmp	ecx, -1181345563
	jne	.LBB6_22

	mov	r14d, dword ptr [rsp + 20]
	mov	edx, r14d
	not	edx
	mov	eax, edx
	and	eax, 674975419
	mov	ebp, r14d
	and	ebp, -674975420
	or	ebp, eax
	mov	eax, ebx
	not	eax
	mov	esi, eax
	and	esi, 674975419
	mov	ecx, ebx
	and	ecx, -674975420
	or	ecx, esi
	xor	ecx, ebp
	mov	esi, ecx
	not	esi
	or	esi, 1431655765
	mov	ebp, esi
	and	ebp, -393434614
	mov	edi, ecx
	and	edi, 35782816
	or	edi, ebp
	and	eax, -393434614
	and	ebx, 393434613
	or	ebx, eax
	xor	ebx, edi
	rol	ebx
	and	esi, 1052964075
	and	ecx, -2144859648
	or	ecx, esi
	and	edx, 1052964075
	and	r14d, -1052964076
	or	r14d, edx
	xor	r14d, ecx
	mov	ecx, r11d
	shl	ecx, 4
	shr	r11d, 28
	mov	eax, ecx
	not	eax
	not	r11d
	mov	edx, eax
	and	edx, 1203978319
	mov	esi, ecx
	and	esi, -1203978320
	or	esi, edx
	and	r11d, 1203978319
	xor	r11d, esi
	and	eax, -1339630730
	and	ecx, 1339630720
	or	ecx, eax
	mov	eax, r12d
	not	eax
	mov	edx, eax
	and	edx, -1339630730
	mov	esi, r12d
	and	esi, 1339630729
	or	esi, edx
	xor	esi, ecx
	mov	ecx, esi
	not	ecx
	or	ecx, 252645135
	mov	edx, r11d
	not	edx
	and	edx, esi
	and	r11d, ecx
	and	ecx, -726651882
	and	esi, 541118688
	or	esi, ecx
	and	eax, -726651882
	and	r12d, 726651881
	or	r12d, eax
	xor	r12d, esi
	and	edx, -252645136
	or	edx, r11d
	mov	eax, edx
	shl	eax, 12
	rol	edx, 12
	mov	ecx, eax
	not	ecx
	and	ecx, 1595836854
	and	eax, -1595838464
	or	eax, ecx
	mov	ecx, r12d
	not	ecx
	mov	esi, ecx
	and	esi, 1595836854
	mov	edi, r12d
	and	edi, -1595836855
	or	edi, esi
	xor	edi, eax
	mov	eax, edi
	xor	eax, 65535
	and	eax, edi
	mov	esi, edx
	mov	edi, eax
	not	edx
	and	edx, eax
	not	eax
	and	esi, eax
	and	eax, 2026693435
	and	edi, -2026693436
	or	edi, eax
	and	ecx, 2026693435
	and	r12d, -2026693436
	or	r12d, ecx
	xor	r12d, edi
	or	edx, esi
	rol	edx, 14
	mov	eax, edx
	not	eax
	mov	ecx, r12d
	and	ecx, eax
	mov	esi, r12d
	not	esi
	mov	edi, edx
	and	edi, esi
	or	edi, ecx
	mov	ebp, edi
	xor	ebp, -858993460
	and	ebp, edi
	mov	ecx, ebp
	not	ecx
	and	edx, ecx
	and	ecx, -1706997771
	mov	edi, ebp
	and	edi, 1706997770
	or	edi, ecx
	and	esi, -1706997771
	and	r12d, 1706997770
	or	r12d, esi
	xor	r12d, edi
	and	ebp, eax
	or	ebp, edx
	mov	eax, ebp
	shr	eax, 6
	rol	ebp, 26
	mov	ecx, eax
	not	ecx
	and	ecx, r12d
	mov	edx, r12d
	not	edx
	and	eax, edx
	or	eax, ecx
	mov	ecx, eax
	xor	ecx, -16711936
	and	ecx, eax
	mov	eax, ecx
	not	eax
	and	r12d, eax
	and	edx, ecx
	or	edx, r12d
	and	eax, 488405768
	and	ecx, -488405769
	or	ecx, eax
	mov	eax, ebp
	mov	dword ptr [rsp + 24], ebp
	not	ebp
	and	ebp, 488405768
	and	eax, -488405769
	or	eax, ebp
	xor	eax, ecx
	test	r9d, r10d
	mov	dword ptr [rsp + 32], ebx
	mov	dword ptr [rsp + 28], r14d
	mov	dword ptr [rsp + 16], edx
	sete	byte ptr [rsp + 14]
	cmp	r8d, 10
	setl	byte ptr [rsp + 15]
	rol	eax, 9
	mov	ecx, 127001814
	jmp	.LBB6_26
.LBB6_35:                               
	cmp	ecx, 127678515
	je	.LBB6_39

	cmp	ecx, 127001814
	jne	.LBB6_26

	mov	sil, byte ptr [rsp + 14]
	mov	cl, byte ptr [rsp + 15]
	mov	ebx, esi
	xor	bl, cl
	mov	edi, 127678515
	mov	ebp, -1275833750
	cmovne	edi, ebp
	test	cl, cl
	mov	ecx, edi
	cmovne	ecx, ebp
	test	sil, sil
	cmove	ecx, edi
	jmp	.LBB6_26
.LBB6_38:                               
	mov	dword ptr [rsp + 20], eax
	mov	ecx, r13d
	jmp	.LBB6_26
.LBB6_39:                               
	mov	ecx, -1275833750
.LBB6_26:                               

	cmp	ecx, 127001813
	jg	.LBB6_35

	cmp	ecx, -1275833750
	je	.LBB6_38

	cmp	ecx, -1181345563
	jne	.LBB6_26

	mov	r8d, dword ptr [rsp + 20]
	mov	eax, r8d
	not	eax
	mov	esi, eax
	and	esi, -1016456833
	mov	edi, r8d
	and	edi, 1016456832
	or	edi, esi
	mov	ebp, edx
	not	ebp
	mov	ebx, ebp
	and	ebx, -1016456833
	mov	esi, edx
	and	esi, 1016456832
	or	esi, ebx
	xor	esi, edi
	mov	ebx, esi
	xor	ebx, 1431655765
	and	ebx, esi
	mov	edi, ebx
	not	edi
	mov	esi, edi
	and	esi, 879738141
	mov	ecx, ebx
	and	ecx, -879738142
	or	ecx, esi
	and	ebp, 879738141
	and	edx, -879738142
	or	edx, ebp
	xor	edx, ecx
	lea	ecx, [rdx + rdx]
	shr	edx, 31
	mov	esi, ecx
	not	esi
	not	edx
	and	esi, -278968641
	and	ecx, 278968640
	or	ecx, esi
	and	edx, -278968641
	xor	edx, ecx
	mov	dword ptr [rsp + 16], edx
	and	edi, r8d
	and	ebx, eax
	or	ebx, edi
	mov	dword ptr [rsp + 24], ebx
	mov	rdi, qword ptr [rsp + 64]
	mov	rsi, qword ptr [rdi]
	call	_ZNKSt6vectorIjN5Botan16secure_allocatorIjEEE11_M_data_ptrIjEEPT_S6_
	lea	rbx, [rsp + 32]
	mov	rdi, rbx
	lea	rbp, [rsp + 28]
	mov	rsi, rbp
	lea	r14, [rsp + 16]
	mov	rdx, r14
	lea	r12, [rsp + 24]
	mov	rcx, r12
	mov	r8, rax
	call	_ZN5Botan12_GLOBAL__N_114des_decrypt_x2ERjS1_S1_S1_PKj
	mov	rdi, rbx
	mov	rsi, rbp
	call	_ZN5Botan12_GLOBAL__N_16des_FPERjS1_
	mov	rdi, r14
	mov	rsi, r12
	call	_ZN5Botan12_GLOBAL__N_16des_FPERjS1_
	mov	esi, dword ptr [rsp + 28]
	mov	edx, dword ptr [rsp + 32]
	mov	ecx, dword ptr [rsp + 24]
	mov	r8d, dword ptr [rsp + 16]
	mov	rdi, qword ptr [rsp + 56]
	call	_ZN5Botan8store_beIjEEvPhT_S2_S2_S2_
	mov	rax, qword ptr [rsp + 40]
	add	rax, 16
	mov	qword ptr [rsp + 144], rax
	mov	rax, qword ptr [rsp + 56]
	add	rax, 16
	mov	qword ptr [rsp + 152], rax
	mov	rax, qword ptr [rsp + 48]
	add	rax, -2
	mov	qword ptr [rsp + 160], rax
	mov	eax, dword ptr [rip + x.29]
	mov	ecx, dword ptr [rip + y.30]
	lea	edx, [rax - 1]
	imul	edx, eax
	not	edx
	or	edx, -2
	cmp	edx, r15d
	sete	al
	cmp	ecx, 10
	setl	bl
	xor	bl, al
	mov	esi, -248213581
	mov	edi, -1582708616
	cmovne	esi, edi
	cmp	edx, r15d
	mov	eax, esi
	cmove	eax, edi
	cmp	ecx, 10
	cmovge	eax, esi
	mov	r13, qword ptr [rsp + 136] 
	jmp	.LBB6_1
.LBB6_43:                               
	mov	rax, qword ptr [rsp + 80]
	mov	ebp, dword ptr [rax]
	bswap	ebp
	mov	rax, qword ptr [rsp + 80]
	mov	edx, dword ptr [rax + 4]
	bswap	edx
	mov	eax, edx
	shl	eax, 4
	rol	edx, 4
	mov	esi, eax
	not	esi
	and	esi, ebp
	mov	edi, ebp
	not	edi
	and	eax, edi
	or	eax, esi
	mov	esi, eax
	not	esi
	or	esi, 252645135
	mov	ecx, esi
	and	ecx, -625545971
	mov	ebx, eax
	and	ebx, 541069552
	or	ebx, ecx
	and	edi, -625545971
	and	ebp, 625545970
	or	ebp, edi
	xor	ebp, ebx
	and	esi, 250543385
	and	eax, -267386656
	or	eax, esi
	mov	esi, edx
	not	esi
	and	esi, 250543385
	and	edx, -250543386
	or	edx, esi
	xor	edx, eax
	mov	esi, edx
	shr	esi, 20
	shl	edx, 12
	mov	eax, esi
	not	eax
	mov	edi, edx
	not	edi
	and	eax, -1348275538
	and	esi, 3409
	or	esi, eax
	mov	ecx, ebp
	and	ecx, edi
	and	edi, -1348275538
	mov	eax, edx
	and	eax, 1348272128
	or	eax, edi
	xor	eax, esi
	mov	esi, ebp
	not	esi
	and	edx, esi
	or	edx, ecx
	mov	edi, edx
	not	edi
	or	edi, 65535
	mov	ecx, edi
	and	ecx, -1718248789
	mov	ebx, edx
	and	ebx, 1718222848
	or	ebx, ecx
	and	esi, -1718248789
	and	ebp, 1718248788
	or	ebp, esi
	xor	ebp, ebx
	and	edi, 67723403
	and	edx, -67764224
	or	edx, edi
	mov	esi, eax
	not	esi
	and	esi, 67723403
	and	eax, -67723404
	or	eax, esi
	xor	eax, edx
	rol	eax, 14
	mov	r8d, eax
	not	r8d
	mov	esi, r8d
	and	esi, -899047221
	mov	edi, eax
	and	edi, 899047220
	or	edi, esi
	mov	ecx, ebp
	not	ecx
	mov	ebx, ecx
	and	ebx, -899047221
	mov	esi, ebp
	and	esi, 899047220
	or	esi, ebx
	xor	esi, edi
	mov	edi, esi
	not	edi
	or	edi, -858993460
	mov	ebx, edi
	and	ebx, -1900056014
	mov	edx, esi
	and	edx, 822083841
	or	edx, ebx
	and	ecx, -1900056014
	and	ebp, 1900056013
	or	ebp, ecx
	xor	ebp, edx
	and	edi, -563282079
	and	esi, 554893330
	or	esi, edi
	and	r8d, -563282079
	and	eax, 563282078
	or	eax, r8d
	xor	eax, esi
	mov	ecx, eax
	shr	ecx, 6
	rol	eax, 26
	mov	dword ptr [rsp + 28], eax
	mov	edx, ecx
	not	edx
	and	edx, 1719516068
	and	ecx, 25314395
	or	ecx, edx
	mov	edx, ebp
	not	edx
	mov	edi, edx
	and	edi, 1719516068
	mov	esi, ebp
	and	esi, -1719516069
	or	esi, edi
	xor	esi, ecx
	mov	edi, esi
	not	edi
	or	edi, -16711936
	and	edx, esi
	and	ebp, edi
	and	edx, 16711935
	or	edx, ebp
	mov	ecx, dword ptr [rip + x.105]
	mov	ebp, dword ptr [rip + y.106]
	lea	ebx, [rcx - 1]
	imul	ebx, ecx
	not	ebx
	or	ebx, -2
	cmp	ebx, r15d
	sete	r8b
	cmp	ebp, 10
	setl	cl
	xor	cl, r8b
	mov	ecx, 127678515
	mov	r9d, -1181345563
	cmovne	ecx, r9d
	cmp	ebx, r15d
	sete	byte ptr [rsp + 24]
	mov	dword ptr [rsp + 32], edx
	mov	r8d, ecx
	cmove	r8d, r9d
	cmp	ebp, 10
	mov	ebp, eax
	not	ebp
	setl	byte ptr [rsp + 16]
	cmovge	r8d, ecx
	and	edi, -339301968
	and	esi, 3735631
	or	esi, edi
	and	ebp, -339301968
	and	eax, 339301967
	or	eax, ebp
	xor	eax, esi
	rol	eax, 9
	mov	esi, 127001814
	jmp	.LBB6_44
.LBB6_52:                               
	cmp	esi, 127678515
	je	.LBB6_56

	cmp	esi, 127001814
	jne	.LBB6_44

	mov	dil, byte ptr [rsp + 24]
	mov	bl, byte ptr [rsp + 16]
	mov	ecx, edi
	xor	cl, bl
	test	bl, bl
	mov	esi, 127678515
	mov	ebp, -1275833750
	cmovne	esi, ebp
	test	dil, dil
	mov	edi, 127678515
	cmove	esi, edi
	test	cl, cl
	cmovne	esi, ebp
	jmp	.LBB6_44
.LBB6_55:                               
	mov	dword ptr [rsp + 20], eax
	mov	esi, r8d
	jmp	.LBB6_44
.LBB6_56:                               
	mov	esi, -1275833750
.LBB6_44:                               

	cmp	esi, 127001813
	jg	.LBB6_52

	cmp	esi, -1275833750
	je	.LBB6_55

	cmp	esi, -1181345563
	jne	.LBB6_44

	mov	ecx, dword ptr [rsp + 20]
	mov	eax, ecx
	not	eax
	mov	esi, eax
	and	esi, -1270502306
	mov	edi, ecx
	and	edi, 1270502305
	or	edi, esi
	mov	ebp, edx
	not	ebp
	mov	ebx, ebp
	and	ebx, -1270502306
	mov	esi, edx
	and	esi, 1270502305
	or	esi, ebx
	xor	esi, edi
	mov	ebx, esi
	not	ebx
	or	ebx, 1431655765
	and	eax, esi
	mov	edi, ebx
	and	edi, 1886669026
	and	esi, -1970626040
	or	esi, edi
	and	ebp, 1886669026
	and	edx, -1886669027
	or	edx, ebp
	xor	edx, esi
	lea	esi, [rdx + rdx]
	shr	edx, 31
	mov	edi, esi
	not	edi
	and	edi, 1363794152
	and	esi, -1363794154
	or	esi, edi
	or	edx, 1363794152
	xor	edx, esi
	mov	dword ptr [rsp + 32], edx
	and	ebx, ecx
	and	eax, -1431655766
	or	eax, ebx
	mov	dword ptr [rsp + 28], eax
	mov	rdi, qword ptr [rsp + 64]
	mov	rsi, qword ptr [rdi]
	call	_ZNKSt6vectorIjN5Botan16secure_allocatorIjEEE11_M_data_ptrIjEEPT_S6_
	lea	rbx, [rsp + 32]
	mov	rdi, rbx
	lea	rbp, [rsp + 28]
	mov	rsi, rbp
	mov	rdx, rax
	call	_ZN5Botan12_GLOBAL__N_111des_decryptERjS1_PKj
	mov	rdi, rbx
	mov	rsi, rbp
	call	_ZN5Botan12_GLOBAL__N_16des_FPERjS1_
	mov	edx, dword ptr [rsp + 28]
	mov	r8d, dword ptr [rsp + 32]
	mov	r9, qword ptr [rsp + 128]
	mov	esi, dword ptr [rip + x.123]
	mov	edi, dword ptr [rip + y.124]
	lea	ebp, [rsi - 1]
	imul	ebp, esi
	mov	esi, ebp
	xor	esi, -2
	test	esi, ebp
	sete	byte ptr [rsp + 16]
	cmp	edi, 10
	setl	byte ptr [rsp + 20]
	bswap	edx
	mov	esi, -1594289886
	jmp	.LBB6_48
.LBB6_41:                               
	mov	rax, qword ptr [rsp + 104] 
	mov	qword ptr [rsp + 72], rax
	mov	rax, qword ptr [rsp + 112] 
	mov	qword ptr [rsp + 128], rax
	mov	rax, qword ptr [rsp + 120] 
	mov	qword ptr [rsp + 80], rax
	mov	eax, dword ptr [rip + x.29]
	lea	ecx, [rax - 1]
	imul	ecx, eax
	not	ecx
	or	ecx, -2
	cmp	ecx, r15d
	sete	cl
	mov	eax, 135774819
	mov	esi, 2146231910
	cmove	eax, esi
	cmp	dword ptr [rip + y.30], 10
	setl	dl
	mov	edi, 135774819
	cmovge	eax, edi
	xor	dl, cl
	cmovne	eax, esi
	jmp	.LBB6_1
.LBB6_42:                               
	mov	al, byte ptr [rsp + 39]
	test	al, al
	mov	eax, -143866028
	mov	ecx, 1667532346
	cmovne	eax, ecx
	jmp	.LBB6_1
.LBB6_71:                               
	mov	rax, qword ptr [rsp + 40]
	mov	r8d, dword ptr [rax]
	bswap	r8d
	mov	rax, qword ptr [rsp + 40]
	mov	ebp, dword ptr [rax + 4]
	bswap	ebp
	mov	rax, qword ptr [rsp + 40]
	mov	r11d, dword ptr [rax + 8]
	bswap	r11d
	mov	dword ptr [rsp + 16], r11d
	mov	rdx, qword ptr [rsp + 40]
	mov	r14d, dword ptr [rdx + 12]
	bswap	r14d
	mov	dword ptr [rsp + 24], r14d
	mov	edi, ebp
	shl	edi, 4
	shr	ebp, 28
	mov	edx, edi
	not	edx
	mov	ebx, ebp
	not	ebx
	mov	eax, r8d
	and	eax, edx
	and	edx, 239459082
	mov	esi, edi
	and	esi, -239459088
	or	esi, edx
	and	ebx, 239459082
	and	ebp, 5
	or	ebp, ebx
	xor	ebp, esi
	mov	esi, r8d
	not	esi
	and	edi, esi
	or	edi, eax
	mov	edx, edi
	xor	edx, 252645135
	and	edx, edi
	mov	eax, edx
	not	eax
	mov	edi, eax
	and	edi, -1139516623
	mov	ebx, edx
	and	ebx, 1139516622
	or	ebx, edi
	and	esi, -1139516623
	and	r8d, 1139516622
	or	r8d, esi
	xor	r8d, ebx
	and	eax, 1117257646
	and	edx, -1117257647
	or	edx, eax
	mov	eax, ebp
	not	eax
	and	eax, 1117257646
	and	ebp, -1117257647
	or	ebp, eax
	xor	ebp, edx
	mov	edi, ebp
	shl	edi, 12
	rol	ebp, 12
	mov	eax, edi
	not	eax
	and	eax, r8d
	mov	ecx, r8d
	not	ecx
	and	edi, ecx
	or	edi, eax
	mov	eax, edi
	not	eax
	or	eax, 65535
	and	ecx, edi
	and	r8d, eax
	and	ecx, -65536
	or	ecx, r8d
	and	eax, 480243272
	and	edi, -480247808
	or	edi, eax
	mov	eax, ebp
	not	eax
	and	eax, 480243272
	and	ebp, -480243273
	or	ebp, eax
	xor	ebp, edi
	rol	ebp, 14
	mov	ebx, ebp
	not	ebx
	mov	eax, ebx
	and	eax, 1893348664
	mov	esi, ebp
	and	esi, -1893348665
	or	esi, eax
	mov	edi, ecx
	not	edi
	mov	eax, edi
	and	eax, 1893348664
	mov	edx, ecx
	and	edx, -1893348665
	or	edx, eax
	xor	edx, esi
	mov	eax, edx
	xor	eax, -858993460
	and	eax, edx
	mov	edx, eax
	not	edx
	and	ecx, edx
	and	edi, eax
	or	edi, ecx
	and	edx, -1367101748
	and	eax, 1367101747
	or	eax, edx
	and	ebx, -1367101748
	and	ebp, 1367101747
	or	ebp, ebx
	xor	ebp, eax
	mov	eax, ebp
	shr	eax, 6
	rol	ebp, 26
	mov	dword ptr [rsp + 28], ebp
	mov	ecx, eax
	not	ecx
	and	ecx, edi
	mov	r12d, edi
	not	r12d
	and	eax, r12d
	or	eax, ecx
	mov	ebx, eax
	xor	ebx, -16711936
	and	ebx, eax
	mov	eax, ebx
	not	eax
	and	edi, eax
	and	r12d, ebx
	or	r12d, edi
	mov	dword ptr [rsp + 32], r12d
	mov	ecx, dword ptr [rip + x.105]
	mov	r8d, dword ptr [rip + y.106]
	mov	r10d, ecx
	neg	r10d
	not	r10d
	imul	r10d, ecx
	mov	ecx, r10d
	not	ecx
	or	ecx, -2
	cmp	ecx, r15d
	sete	sil
	cmp	r8d, 10
	setl	dl
	setl	byte ptr [rsp + 15]
	xor	dl, sil
	mov	edx, 127678515
	mov	esi, -1181345563
	cmovne	edx, esi
	cmp	ecx, r15d
	sete	byte ptr [rsp + 14]
	mov	r9d, edx
	cmove	r9d, esi
	cmp	r8d, 10
	cmovge	r9d, edx
	and	eax, ebp
	not	ebp
	and	ebp, ebx
	or	ebp, eax
	and	r10d, 1
	rol	ebp, 9
	mov	ecx, 127001814
	jmp	.LBB6_72
.LBB6_80:                               
	cmp	ecx, 127678515
	je	.LBB6_84

	cmp	ecx, 127001814
	jne	.LBB6_72

	mov	al, byte ptr [rsp + 14]
	mov	cl, byte ptr [rsp + 15]
	mov	edx, eax
	xor	dl, cl
	test	cl, cl
	mov	ecx, 127678515
	mov	esi, -1275833750
	cmovne	ecx, esi
	test	al, al
	mov	eax, 127678515
	cmove	ecx, eax
	test	dl, dl
	cmovne	ecx, esi
	jmp	.LBB6_72
.LBB6_83:                               
	mov	dword ptr [rsp + 20], ebp
	mov	ecx, r9d
	jmp	.LBB6_72
.LBB6_84:                               
	mov	ecx, -1275833750
.LBB6_72:                               

	cmp	ecx, 127001813
	jg	.LBB6_80

	cmp	ecx, -1275833750
	je	.LBB6_83

	cmp	ecx, -1181345563
	jne	.LBB6_72

	mov	ebp, dword ptr [rsp + 20]
	mov	ecx, ebp
	not	ecx
	mov	eax, r12d
	and	eax, ecx
	mov	edx, r12d
	not	edx
	mov	edi, ebp
	and	edi, edx
	or	edi, eax
	mov	eax, edi
	not	eax
	or	eax, 1431655765
	mov	esi, eax
	and	esi, -1639136243
	mov	ebx, edi
	and	ebx, 547498658
	or	ebx, esi
	and	edx, -1639136243
	and	r12d, 1639136242
	or	r12d, edx
	xor	r12d, ebx
	rol	r12d
	and	eax, -875511092
	and	edi, 539633698
	or	edi, eax
	and	ecx, -875511092
	and	ebp, 875511091
	or	ebp, ecx
	xor	ebp, edi
	mov	ecx, r14d
	shl	ecx, 4
	shr	r14d, 28
	mov	eax, ecx
	not	eax
	mov	edx, r14d
	not	edx
	mov	esi, r11d
	and	esi, eax
	and	eax, 239705524
	mov	edi, ecx
	and	edi, -239705536
	or	edi, eax
	and	edx, 239705524
	and	r14d, 11
	or	r14d, edx
	xor	r14d, edi
	mov	ebx, r11d
	not	ebx
	and	ecx, ebx
	or	ecx, esi
	mov	eax, ecx
	not	eax
	or	eax, 252645135
	and	ecx, -252645136
	and	r11d, eax
	and	ebx, ecx
	or	ebx, r11d
	and	eax, r14d
	not	r14d
	and	r14d, ecx
	or	r14d, eax
	mov	ecx, r14d
	shr	ecx, 20
	shl	r14d, 12
	mov	eax, ecx
	not	eax
	mov	edx, r14d
	not	edx
	and	eax, 735882435
	and	ecx, 828
	or	ecx, eax
	mov	esi, ebx
	and	esi, edx
	and	edx, 735882435
	mov	eax, r14d
	and	eax, -735883264
	or	eax, edx
	xor	eax, ecx
	mov	r11d, ebx
	not	r11d
	and	r14d, r11d
	or	r14d, esi
	mov	ecx, r14d
	not	ecx
	or	ecx, 65535
	and	r11d, r14d
	and	ebx, ecx
	and	r11d, -65536
	or	r11d, ebx
	and	ecx, -913724942
	and	r14d, 913702912
	or	r14d, ecx
	mov	ecx, eax
	not	ecx
	and	ecx, -913724942
	and	eax, 913724941
	or	eax, ecx
	xor	eax, r14d
	mov	ecx, eax
	shr	ecx, 18
	shl	eax, 14
	mov	edx, ecx
	not	edx
	mov	esi, eax
	not	esi
	and	edx, 43654691
	and	ecx, 8668
	or	ecx, edx
	and	esi, 43654691
	and	eax, -43663360
	or	eax, esi
	xor	eax, ecx
	mov	ecx, eax
	not	ecx
	mov	edx, ecx
	and	edx, 1747241008
	mov	esi, eax
	and	esi, -1747241009
	or	esi, edx
	mov	edi, r11d
	not	edi
	mov	edx, edi
	and	edx, 1747241008
	mov	ebx, r11d
	and	ebx, -1747241009
	or	ebx, edx
	xor	ebx, esi
	mov	esi, ebx
	xor	esi, -858993460
	and	esi, ebx
	mov	edx, esi
	not	edx
	and	eax, edx
	and	edx, -1906617626
	mov	ebx, esi
	and	ebx, 1906617625
	or	ebx, edx
	and	edi, -1906617626
	and	r11d, 1906617625
	or	r11d, edi
	xor	r11d, ebx
	and	esi, ecx
	or	esi, eax
	mov	eax, esi
	shr	eax, 6
	rol	esi, 26
	mov	ecx, eax
	not	ecx
	and	ecx, -738239986
	and	eax, 42481
	or	eax, ecx
	mov	edx, r11d
	not	edx
	mov	edi, edx
	and	edi, -738239986
	mov	ecx, r11d
	and	ecx, 738239985
	or	ecx, edi
	xor	ecx, eax
	mov	eax, ecx
	not	eax
	or	eax, -16711936
	mov	edi, eax
	and	edi, 637260014
	mov	ebx, ecx
	and	ebx, 262161
	or	ebx, edi
	and	edx, 637260014
	and	r11d, -637260015
	or	r11d, edx
	xor	r11d, ebx
	and	eax, 254247897
	and	ecx, 14155814
	or	ecx, eax
	mov	eax, esi
	mov	dword ptr [rsp + 24], esi
	not	esi
	and	esi, 254247897
	and	eax, -254247898
	or	eax, esi
	xor	eax, ecx
	test	r10d, r10d
	mov	dword ptr [rsp + 32], r12d
	mov	dword ptr [rsp + 28], ebp
	mov	dword ptr [rsp + 16], r11d
	sete	byte ptr [rsp + 14]
	cmp	r8d, 10
	setl	byte ptr [rsp + 15]
	rol	eax, 9
	mov	ecx, 127001814
	jmp	.LBB6_76
.LBB6_85:                               
	cmp	ecx, 127678515
	je	.LBB6_89

	cmp	ecx, 127001814
	jne	.LBB6_76

	mov	bl, byte ptr [rsp + 14]
	mov	cl, byte ptr [rsp + 15]
	mov	edx, ebx
	xor	dl, cl
	mov	edx, 127678515
	mov	esi, -1275833750
	cmovne	edx, esi
	test	cl, cl
	mov	ecx, edx
	cmovne	ecx, esi
	test	bl, bl
	cmove	ecx, edx
	jmp	.LBB6_76
.LBB6_88:                               
	mov	dword ptr [rsp + 20], eax
	mov	ecx, r9d
	jmp	.LBB6_76
.LBB6_89:                               
	mov	ecx, -1275833750
.LBB6_76:                               

	cmp	ecx, 127001813
	jg	.LBB6_85

	cmp	ecx, -1275833750
	je	.LBB6_88

	cmp	ecx, -1181345563
	jne	.LBB6_76

	mov	eax, dword ptr [rsp + 20]
	mov	edx, eax
	not	edx
	mov	ecx, r11d
	and	ecx, edx
	mov	ebp, r11d
	not	ebp
	mov	esi, eax
	and	esi, ebp
	or	esi, ecx
	mov	ecx, esi
	not	ecx
	or	ecx, 1431655765
	and	ebp, esi
	and	r11d, ecx
	and	ebp, -1431655766
	or	ebp, r11d
	lea	ebx, [rbp + rbp]
	shr	ebp, 31
	mov	edi, ebx
	not	edi
	and	edi, -147987750
	and	ebx, 147987748
	or	ebx, edi
	or	ebp, -147987750
	xor	ebp, ebx
	mov	dword ptr [rsp + 16], ebp
	and	ecx, -236596102
	and	esi, 168438400
	or	esi, ecx
	and	edx, -236596102
	and	eax, 236596101
	or	eax, edx
	xor	eax, esi
	mov	dword ptr [rsp + 24], eax
	mov	rdi, qword ptr [rsp + 64]
	mov	rsi, qword ptr [rdi]
	call	_ZNKSt6vectorIjN5Botan16secure_allocatorIjEEE11_M_data_ptrIjEEPT_S6_
	lea	rbx, [rsp + 32]
	mov	rdi, rbx
	lea	rbp, [rsp + 28]
	mov	rsi, rbp
	lea	r14, [rsp + 16]
	mov	rdx, r14
	lea	r12, [rsp + 24]
	mov	rcx, r12
	mov	r8, rax
	call	_ZN5Botan12_GLOBAL__N_114des_decrypt_x2ERjS1_S1_S1_PKj
	mov	rdi, rbx
	mov	rsi, rbp
	call	_ZN5Botan12_GLOBAL__N_16des_FPERjS1_
	mov	rdi, r14
	mov	rsi, r12
	call	_ZN5Botan12_GLOBAL__N_16des_FPERjS1_
	mov	esi, dword ptr [rsp + 28]
	mov	edx, dword ptr [rsp + 32]
	mov	ecx, dword ptr [rsp + 24]
	mov	r8d, dword ptr [rsp + 16]
	mov	rdi, qword ptr [rsp + 56]
	call	_ZN5Botan8store_beIjEEvPhT_S2_S2_S2_
	mov	rax, qword ptr [rsp + 40]
	mov	rax, qword ptr [rsp + 56]
	mov	rax, qword ptr [rsp + 48]
	mov	rax, qword ptr [rsp + 48]
	mov	rax, qword ptr [rsp + 48]
	mov	eax, 215239954
	jmp	.LBB6_1
.LBB6_90:                               
	mov	rax, qword ptr [rsp + 72]
	mov	eax, 2146231910
	jmp	.LBB6_1
.LBB6_65:                               
	mov	dword ptr [r9], edx
	mov	esi, -616711071
	jmp	.LBB6_48
.LBB6_64:                               
	mov	dword ptr [r9], edx
	mov	eax, dword ptr [rip + x.123]
	mov	ecx, dword ptr [rip + y.124]
	lea	esi, [rax - 1]
	imul	esi, eax
	not	esi
	or	esi, -2
	cmp	esi, r15d
	sete	al
	cmp	ecx, 10
	setl	bl
	xor	bl, al
	mov	eax, -1703216472
	mov	edi, 1506076261
	cmovne	eax, edi
	cmp	esi, r15d
	mov	esi, eax
	cmove	esi, edi
	cmp	ecx, 10
	cmovge	esi, eax
.LBB6_48:                               

	cmp	esi, -616711072
	jg	.LBB6_57

	cmp	esi, -1703216472
	je	.LBB6_65

	cmp	esi, -1594289886
	jne	.LBB6_48

	mov	cl, byte ptr [rsp + 16]
	mov	al, byte ptr [rsp + 20]
	mov	ebx, ecx
	xor	bl, al
	test	al, al
	mov	esi, -1703216472
	mov	eax, -616711071
	cmovne	esi, eax
	test	cl, cl
	mov	ecx, -1703216472
	cmove	esi, ecx
	test	bl, bl
	cmovne	esi, eax
	jmp	.LBB6_48
.LBB6_57:                               
	cmp	esi, -616711071
	je	.LBB6_64

	cmp	esi, 1506076261
	jne	.LBB6_48

	mov	eax, dword ptr [rip + x.123]
	mov	ecx, dword ptr [rip + y.124]
	lea	edx, [rax - 1]
	imul	edx, eax
	not	edx
	or	edx, -2
	cmp	edx, r15d
	sete	al
	cmp	ecx, 10
	setl	bl
	xor	bl, al
	mov	eax, -1703216472
	mov	esi, 1506076261
	cmovne	eax, esi
	cmp	edx, r15d
	sete	byte ptr [rsp + 16]
	mov	edx, eax
	cmove	edx, esi
	cmp	ecx, 10
	setl	byte ptr [rsp + 20]
	bswap	r8d
	cmovge	edx, eax
	mov	esi, -1594289886
	jmp	.LBB6_60
.LBB6_70:                               
	mov	dword ptr [r9 + 4], r8d
	mov	esi, -616711071
	jmp	.LBB6_60
.LBB6_69:                               
	mov	dword ptr [r9 + 4], r8d
	mov	esi, edx
.LBB6_60:                               

	cmp	esi, -616711072
	jg	.LBB6_66

	cmp	esi, -1703216472
	je	.LBB6_70

	cmp	esi, -1594289886
	jne	.LBB6_60

	mov	bl, byte ptr [rsp + 16]
	mov	cl, byte ptr [rsp + 20]
	mov	eax, ebx
	xor	al, cl
	mov	eax, -1703216472
	mov	edi, -616711071
	cmovne	eax, edi
	test	cl, cl
	mov	esi, eax
	cmovne	esi, edi
	test	bl, bl
	cmove	esi, eax
	jmp	.LBB6_60
.LBB6_66:                               
	cmp	esi, -616711071
	je	.LBB6_69

	cmp	esi, 1506076261
	jne	.LBB6_60

	mov	rax, qword ptr [rsp + 80]
	add	rax, 8
	mov	qword ptr [rsp + 120], rax 
	mov	rax, qword ptr [rsp + 128]
	add	rax, 8
	mov	qword ptr [rsp + 112], rax 
	mov	rax, qword ptr [rsp + 72]
	movabs	rcx, -9019576226666237830
	lea	rax, [rax + rcx - 1]
	sub	rax, rcx
	mov	qword ptr [rsp + 104], rax 
	mov	eax, -1069504709
.LBB6_1:                                







	cmp	eax, -248213582
	jg	.LBB6_11

	cmp	eax, -1069504710
	jg	.LBB6_7

	cmp	eax, -1582708616
	je	.LBB6_40

	cmp	eax, -1469441706
	je	.LBB6_20

	cmp	eax, -1411245644
	jne	.LBB6_1

	mov	eax, dword ptr [rip + x.29]
	mov	ecx, dword ptr [rip + y.30]
	lea	edx, [rax - 1]
	imul	edx, eax
	not	edx
	or	edx, -2
	cmp	edx, r15d
	sete	al
	cmp	ecx, 10
	setl	bl
	xor	bl, al
	mov	esi, -248213581
	mov	edi, 215239954
	cmovne	esi, edi
	cmp	edx, r15d
	mov	eax, esi
	cmove	eax, edi
	cmp	ecx, 10
	cmovge	eax, esi
	jmp	.LBB6_1
.LBB6_11:                               
	cmp	eax, 215239953
	jle	.LBB6_12

	cmp	eax, 215239954
	je	.LBB6_21

	cmp	eax, 1667532346
	je	.LBB6_43

	cmp	eax, 2146231910
	jne	.LBB6_1

	mov	eax, dword ptr [rip + x.29]
	mov	ecx, dword ptr [rip + y.30]
	lea	edx, [rax - 1]
	imul	edx, eax
	mov	eax, edx
	xor	eax, -2
	and	eax, edx
	sete	dl
	cmp	ecx, 10
	setl	bl
	xor	bl, dl
	mov	edx, 135774819
	mov	esi, -610454004
	cmovne	edx, esi
	test	eax, eax
	mov	eax, edx
	cmove	eax, esi
	cmp	ecx, 10
	cmovge	eax, edx
	cmp	qword ptr [rsp + 72], 0
	setne	byte ptr [rsp + 39]
	jmp	.LBB6_1
.LBB6_7:                                
	cmp	eax, -1069504709
	je	.LBB6_41

	cmp	eax, -610454004
	je	.LBB6_42

	cmp	eax, -487769288
	jne	.LBB6_1

	mov	rax, qword ptr [rsp + 40]
	mov	qword ptr [rsp + 120], rax 
	mov	rax, qword ptr [rsp + 56]
	mov	qword ptr [rsp + 112], rax 
	mov	eax, -1069504709
	mov	rcx, qword ptr [rsp + 48]
	mov	qword ptr [rsp + 104], rcx 
	jmp	.LBB6_1
.LBB6_12:                               
	cmp	eax, -248213581
	je	.LBB6_71

	cmp	eax, 135774819
	je	.LBB6_90

	cmp	eax, -143866028
	jne	.LBB6_1

	add	rsp, 168
	pop	rbx
	pop	r12
	pop	r13
	pop	r14
	pop	r15
	pop	rbp
	ret
.Lfunc_end6:
	.size	_ZNK5Botan3DES9decrypt_nEPKhPhm, .Lfunc_end6-_ZNK5Botan3DES9decrypt_nEPKhPhm
	.cfi_endproc

	.type	_ZN5Botan12_GLOBAL__N_114des_decrypt_x2ERjS1_S1_S1_PKj,@function 
_ZN5Botan12_GLOBAL__N_114des_decrypt_x2ERjS1_S1_S1_PKj: 

	push	rbp
	push	r15
	push	r14
	push	r13
	push	r12
	push	rbx
	sub	rsp, 88
	mov	qword ptr [rsp + 80], r8 
	mov	r8, rcx
	mov	r10, rsi
	mov	r11, rdi
	mov	eax, dword ptr [rip + x.31]
	lea	ecx, [rax - 1]
	imul	ecx, eax
	not	ecx
	or	ecx, -2
	mov	r15d, -1
	cmp	ecx, r15d
	sete	byte ptr [rsp + 6]
	mov	eax, dword ptr [rip + y.32]
	cmp	eax, 10
	setl	byte ptr [rsp + 7]
	mov	esi, -1945809949





	mov	qword ptr [rsp + 72], r8 
	mov	qword ptr [rsp + 64], rdx 
	mov	qword ptr [rsp + 56], r10 
	mov	qword ptr [rsp + 48], r11 
	jmp	.LBB7_1
.LBB7_11:                               
	cmp	esi, 301721875
	je	.LBB7_23

	cmp	esi, 342317546
	jne	.LBB7_1

	mov	qword ptr [rsp + 24], r9
	mov	dword ptr [rsp + 8], eax
	mov	dword ptr [rsp + 16], r14d
	mov	dword ptr [rsp + 12], r13d
	mov	dword ptr [rsp + 20], ebp
	cmp	qword ptr [rsp + 24], 0
	mov	esi, 301721875
	mov	ecx, 1998899617
	cmove	esi, ecx
	jmp	.LBB7_1
.LBB7_3:                                
	cmp	esi, -1945809949
	je	.LBB7_19

	cmp	esi, -835126199
	jne	.LBB7_1

	mov	ecx, dword ptr [rsp + 20]
	mov	dword ptr [r11], ecx
	mov	ecx, dword ptr [rsp + 12]
	mov	dword ptr [r10], ecx
	mov	ecx, dword ptr [rsp + 16]
	mov	dword ptr [rdx], ecx
	mov	ecx, dword ptr [rsp + 8]
	mov	dword ptr [r8], ecx
	mov	esi, 1173730350
	jmp	.LBB7_1
.LBB7_22:                               
	mov	ecx, dword ptr [rsp + 20]
	mov	dword ptr [r11], ecx
	mov	ecx, dword ptr [rsp + 12]
	mov	dword ptr [r10], ecx
	mov	ecx, dword ptr [rsp + 16]
	mov	dword ptr [rdx], ecx
	mov	ecx, dword ptr [rsp + 8]
	mov	dword ptr [r8], ecx
	mov	ecx, dword ptr [rip + x.31]
	mov	edi, dword ptr [rip + y.32]
	lea	esi, [rcx - 1]
	imul	esi, ecx
	not	esi
	or	esi, -2
	cmp	esi, r15d
	sete	cl
	cmp	edi, 10
	setl	bl
	xor	bl, cl
	mov	ecx, -835126199
	mov	ebx, -635462022
.LBB7_18:                               
	cmovne	ecx, ebx
	cmp	esi, r15d
	mov	esi, ecx
	cmove	esi, ebx
	cmp	edi, 10
	cmovge	esi, ecx
	jmp	.LBB7_1
.LBB7_24:                               
	mov	esi, 165514925
	jmp	.LBB7_1
.LBB7_21:                               
	mov	ebp, dword ptr [rsp + 32]
	mov	r13d, dword ptr [rsp + 36]
	mov	r14d, dword ptr [rsp + 40]
	mov	esi, 342317546
	mov	eax, dword ptr [rsp + 44]
	mov	r9d, 16
	jmp	.LBB7_1
.LBB7_20:                               
	mov	ecx, dword ptr [rip + x.31]
	mov	edi, dword ptr [rip + y.32]
	lea	esi, [rcx - 1]
	imul	esi, ecx
	mov	ecx, esi
	xor	ecx, -2
	and	ecx, esi
	sete	sil
	cmp	edi, 10
	setl	bl
	xor	bl, sil
	mov	ebx, 1905859123
	mov	r12d, -701277385
	cmovne	ebx, r12d
	test	ecx, ecx
	mov	esi, ebx
	cmove	esi, r12d
	cmp	edi, 10
	mov	ecx, dword ptr [r11]
	mov	dword ptr [rsp + 32], ecx
	mov	ecx, dword ptr [r10]
	mov	dword ptr [rsp + 36], ecx
	mov	ecx, dword ptr [rdx]
	mov	dword ptr [rsp + 40], ecx
	mov	ecx, dword ptr [r8]
	mov	dword ptr [rsp + 44], ecx
	cmovge	esi, ebx
	jmp	.LBB7_1
.LBB7_23:                               
	mov	eax, dword ptr [rsp + 12]
	mov	ecx, eax
	shr	ecx, 4
	shl	eax, 28
	mov	edi, ecx
	not	edi
	mov	esi, eax
	not	esi
	and	edi, 754513656
	and	ecx, 50792711
	or	ecx, edi
	and	esi, 754513656
	and	eax, -805306368
	or	eax, esi
	xor	eax, ecx
	mov	r12, qword ptr [rsp + 24]
	lea	rcx, [r12 + r12]
	mov	r15, qword ptr [rsp + 80] 
	mov	edi, dword ptr [r15 + 8*r12 - 8]
	mov	esi, eax
	not	esi
	and	esi, edi
	not	edi
	and	edi, eax
	or	edi, esi
	neg	rcx
	lea	rbx, [4*rcx + 4]
	mov	rax, r15
	sub	rax, rbx
	neg	rbx
	mov	esi, dword ptr [rax]
	mov	eax, dword ptr [rsp + 12]
	mov	ecx, eax
	not	ecx
	and	ecx, -780109014
	and	eax, 780109013
	or	eax, ecx
	mov	ecx, esi
	not	ecx
	and	ecx, -780109014
	and	esi, 780109013
	or	esi, ecx
	xor	esi, eax
	call	_ZN5Botan12_GLOBAL__N_15spboxEjj
	mov	ebp, eax
	mov	eax, dword ptr [rsp + 20]
	mov	ecx, eax
	not	ecx
	and	ecx, ebp
	not	ebp
	and	ebp, eax
	or	ebp, ecx
	mov	eax, dword ptr [rsp + 8]
	rol	eax, 28
	mov	edi, dword ptr [r15 + 8*r12 - 8]
	mov	ecx, eax
	not	ecx
	and	ecx, -421086190
	and	eax, 421086189
	or	eax, ecx
	mov	ecx, edi
	not	ecx
	and	ecx, -421086190
	and	edi, 421086189
	or	edi, ecx
	xor	edi, eax
	mov	esi, dword ptr [r15 + rbx]
	mov	eax, dword ptr [rsp + 8]
	mov	ecx, eax
	not	ecx
	and	ecx, esi
	not	esi
	and	esi, eax
	or	esi, ecx
	call	_ZN5Botan12_GLOBAL__N_15spboxEjj
	mov	r14d, eax
	mov	eax, dword ptr [rsp + 16]
	mov	ecx, eax
	not	ecx
	and	ecx, r14d
	not	r14d
	and	r14d, eax
	or	r14d, ecx
	mov	eax, ebp
	rol	eax, 28
	mov	edi, dword ptr [r15 + 8*r12 - 16]
	mov	ecx, edi
	not	ecx
	and	ecx, 162163448
	and	edi, -162163449
	or	edi, ecx
	mov	ecx, eax
	not	ecx
	and	ecx, 162163448
	and	eax, -162163449
	or	eax, ecx
	xor	edi, eax
	movabs	rax, 4309029823107654821
	lea	r13, [rax + 2*r12 - 3]
	sub	r13, rax
	mov	esi, dword ptr [r15 + 4*r13]
	mov	eax, ebp
	not	eax
	and	eax, esi
	not	esi
	and	esi, ebp
	or	esi, eax
	call	_ZN5Botan12_GLOBAL__N_15spboxEjj
	mov	edx, dword ptr [rsp + 12]
	mov	ecx, edx
	not	ecx
	and	ecx, eax
	not	eax
	and	eax, edx
	or	eax, ecx
	mov	ecx, r14d
	shr	ecx, 4
	mov	ebx, r14d
	shl	ebx, 28
	mov	edx, ecx
	not	edx
	mov	esi, ebx
	not	esi
	and	edx, -1013425097
	and	ecx, 208118728
	or	ecx, edx
	and	esi, -1013425097
	and	ebx, 805306368
	or	ebx, esi
	xor	ebx, ecx
	mov	edi, dword ptr [r15 + 8*r12 - 16]
	mov	ecx, edi
	not	ecx
	and	ecx, -1087081223
	and	edi, 1087081222
	or	edi, ecx
	mov	ecx, ebx
	not	ecx
	and	ecx, -1087081223
	and	ebx, 1087081222
	or	ebx, ecx
	xor	edi, ebx
	mov	esi, dword ptr [r15 + 4*r13]
	mov	r13d, eax
	mov	r15d, -1
	mov	eax, r14d
	not	eax
	and	eax, esi
	not	esi
	and	esi, r14d
	or	esi, eax
	call	_ZN5Botan12_GLOBAL__N_15spboxEjj
	mov	r11, qword ptr [rsp + 48] 
	mov	r10, qword ptr [rsp + 56] 
	mov	rdx, qword ptr [rsp + 64] 
	mov	r8, qword ptr [rsp + 72] 
	mov	ecx, dword ptr [rsp + 8]
	mov	esi, ecx
	not	esi
	and	esi, eax
	not	eax
	and	eax, ecx
	or	eax, esi
	mov	r9, qword ptr [rsp + 24]
	add	r9, -2
	mov	esi, 342317546
	jmp	.LBB7_1
.LBB7_19:                               
	mov	dil, byte ptr [rsp + 6]
	mov	cl, byte ptr [rsp + 7]
	mov	ebx, edi
	xor	bl, cl
	test	cl, cl
	mov	esi, 1905859123
	mov	ecx, 165514925
	cmovne	esi, ecx
	test	dil, dil
	mov	edi, 1905859123
	cmove	esi, edi
	test	bl, bl
	cmovne	esi, ecx
.LBB7_1:                                
	cmp	esi, 301721874
	jle	.LBB7_2

	cmp	esi, 1173730349
	jle	.LBB7_11

	cmp	esi, 1173730350
	je	.LBB7_22

	cmp	esi, 1905859123
	je	.LBB7_24

	cmp	esi, 1998899617
	jne	.LBB7_1

	mov	ecx, dword ptr [rip + x.31]
	mov	edi, dword ptr [rip + y.32]
	lea	esi, [rcx - 1]
	imul	esi, ecx
	not	esi
	or	esi, -2
	cmp	esi, r15d
	sete	cl
	cmp	edi, 10
	setl	bl
	xor	bl, cl
	mov	ecx, -835126199
	mov	ebx, 1173730350
	jmp	.LBB7_18
.LBB7_2:                                
	cmp	esi, -701277386
	jle	.LBB7_3

	cmp	esi, -701277385
	je	.LBB7_21

	cmp	esi, 165514925
	je	.LBB7_20

	cmp	esi, -635462022
	jne	.LBB7_1

	add	rsp, 88
	pop	rbx
	pop	r12
	pop	r13
	pop	r14
	pop	r15
	pop	rbp
	ret
.Lfunc_end7:
	.size	_ZN5Botan12_GLOBAL__N_114des_decrypt_x2ERjS1_S1_S1_PKj, .Lfunc_end7-_ZN5Botan12_GLOBAL__N_114des_decrypt_x2ERjS1_S1_S1_PKj

	.type	_ZN5Botan12_GLOBAL__N_111des_decryptERjS1_PKj,@function 
_ZN5Botan12_GLOBAL__N_111des_decryptERjS1_PKj: 

	push	rbp
	push	r15
	push	r14
	push	r13
	push	r12
	push	rbx
	sub	rsp, 24
	mov	r13, rdx
	mov	r14, rsi
	mov	r15, rdi
	mov	ebp, dword ptr [r15]
	mov	eax, dword ptr [r14]
	mov	r8d, 16
.LBB8_1:                                

	mov	edx, -828772923
	jmp	.LBB8_2
.LBB8_11:                               
	mov	qword ptr [rsp + 16], r8
	mov	dword ptr [rsp + 8], eax
	mov	dword ptr [rsp + 12], ebp
	cmp	qword ptr [rsp + 16], 0
	mov	edx, 2002810468
	mov	ecx, -746923477
	cmove	edx, ecx
	jmp	.LBB8_2
.LBB8_12:                               
	mov	edx, dword ptr [rip + x.33]
	mov	esi, dword ptr [rip + y.34]
	lea	edi, [rdx - 1]
	imul	edi, edx
	not	edi
	or	edi, -2
	mov	r9d, -1
	cmp	edi, r9d
	sete	dl
	cmp	esi, 10
	setl	bl
	xor	bl, dl
	mov	ebx, -790769747
	mov	ecx, -680199196
	cmovne	ebx, ecx
	cmp	edi, r9d
	mov	edx, ebx
	cmove	edx, ecx
	cmp	esi, 10
	cmovge	edx, ebx
	jmp	.LBB8_2
.LBB8_13:                               
	mov	edx, dword ptr [rsp + 12]
	mov	dword ptr [r15], edx
	mov	edx, dword ptr [rsp + 8]
	mov	dword ptr [r14], edx
	mov	edx, dword ptr [rip + x.33]
	lea	esi, [rdx - 1]
	imul	esi, edx
	mov	edx, esi
	xor	edx, -2
	and	edx, esi
	sete	bl
	test	edx, edx
	mov	edx, -790769747
	mov	edi, -988711380
	cmove	edx, edi
	cmp	dword ptr [rip + y.34], 10
	setl	cl
	mov	esi, -790769747
	cmovge	edx, esi
	xor	cl, bl
	cmovne	edx, edi
.LBB8_2:                                

	cmp	edx, -746923478
	jg	.LBB8_7

	cmp	edx, -988711380
	je	.LBB8_14

	cmp	edx, -828772923
	je	.LBB8_11

	cmp	edx, -790769747
	jne	.LBB8_2

	mov	ecx, dword ptr [rsp + 12]
	mov	dword ptr [r15], ecx
	mov	ecx, dword ptr [rsp + 8]
	mov	dword ptr [r14], ecx
	mov	edx, -680199196
	jmp	.LBB8_2
.LBB8_7:                                
	cmp	edx, -746923477
	je	.LBB8_12

	cmp	edx, -680199196
	je	.LBB8_13

	cmp	edx, 2002810468
	jne	.LBB8_2

	mov	eax, dword ptr [rsp + 8]
	mov	ecx, eax
	shr	ecx, 4
	shl	eax, 28
	mov	edx, ecx
	not	edx
	mov	esi, eax
	not	esi
	and	edx, -1315651405
	and	ecx, 241909580
	or	ecx, edx
	and	esi, -1315651405
	and	eax, 1073741824
	or	eax, esi
	xor	eax, ecx
	mov	r12, qword ptr [rsp + 16]
	lea	rcx, [r12 + r12]
	movabs	rdx, 26851201194234256
	mov	rsi, rdx
	lea	rdx, [rsi + 2*r12 - 2]
	sub	rdx, rsi
	mov	edi, dword ptr [r13 + 4*rdx]
	mov	edx, eax
	not	edx
	and	edx, -667575435
	and	eax, 667575434
	or	eax, edx
	mov	edx, edi
	not	edx
	and	edx, -667575435
	and	edi, 667575434
	or	edi, edx
	xor	edi, eax
	movabs	rax, 4275743537888675039
	sub	rcx, rax
	lea	rax, [rcx + rax - 1]
	mov	esi, dword ptr [r13 + 4*rax]
	mov	eax, dword ptr [rsp + 8]
	mov	ecx, eax
	not	ecx
	and	ecx, 369459582
	and	eax, -369459583
	or	eax, ecx
	mov	ecx, esi
	not	ecx
	and	ecx, 369459582
	and	esi, -369459583
	or	esi, ecx
	xor	esi, eax
	call	_ZN5Botan12_GLOBAL__N_15spboxEjj
	mov	ebp, eax
	mov	eax, dword ptr [rsp + 12]
	mov	ecx, eax
	not	ecx
	and	ecx, ebp
	not	ebp
	and	ebp, eax
	or	ebp, ecx
	mov	eax, ebp
	rol	eax, 28
	lea	rcx, [8*r12]
	mov	edx, 16
	sub	rdx, rcx
	neg	rdx
	mov	edi, dword ptr [r13 + rdx]
	mov	ecx, eax
	not	ecx
	and	ecx, 1787346251
	and	eax, -1787346252
	lea	eax, [rax + rcx]
	mov	ecx, edi
	not	ecx
	and	ecx, 1787346251
	and	edi, -1787346252
	or	edi, ecx
	xor	edi, eax
	mov	esi, dword ptr [r13 + 8*r12 - 12]
	mov	eax, ebp
	not	eax
	and	eax, esi
	not	esi
	and	esi, ebp
	or	esi, eax
	call	_ZN5Botan12_GLOBAL__N_15spboxEjj
	mov	ecx, dword ptr [rsp + 8]
	mov	edx, ecx
	not	edx
	and	edx, eax
	not	eax
	and	eax, ecx
	or	eax, edx
	xor	ecx, ecx
	sub	rcx, qword ptr [rsp + 16]
	mov	r8, -2
	sub	r8, rcx
	jmp	.LBB8_1
.LBB8_14:
	add	rsp, 24
	pop	rbx
	pop	r12
	pop	r13
	pop	r14
	pop	r15
	pop	rbp
	ret
.Lfunc_end8:
	.size	_ZN5Botan12_GLOBAL__N_111des_decryptERjS1_PKj, .Lfunc_end8-_ZN5Botan12_GLOBAL__N_111des_decryptERjS1_PKj

	.globl	_ZN5Botan3DES12key_scheduleEPKhm 
	.p2align	1, 0x90
	.type	_ZN5Botan3DES12key_scheduleEPKhm,@function
_ZN5Botan3DES12key_scheduleEPKhm:       
	.cfi_startproc

	push	r15
.Lcfi35:
	.cfi_def_cfa_offset 16
	push	r14
.Lcfi36:
	.cfi_def_cfa_offset 24
	push	rbx
.Lcfi37:
	.cfi_def_cfa_offset 32
.Lcfi38:
	.cfi_offset rbx, -32
.Lcfi39:
	.cfi_offset r14, -24
.Lcfi40:
	.cfi_offset r15, -16
	mov	r14, rsi
	mov	rbx, rdi
	lea	r15, [rbx + 8]
	mov	esi, 32
	mov	rdi, r15
	call	_ZNSt6vectorIjN5Botan16secure_allocatorIjEEE6resizeEm
	mov	rsi, qword ptr [rbx + 8]
	mov	rdi, r15
	call	_ZNKSt6vectorIjN5Botan16secure_allocatorIjEEE11_M_data_ptrIjEEPT_S6_
	mov	rdi, rax
	mov	rsi, r14
	pop	rbx
	pop	r14
	pop	r15
	jmp	_ZN5Botan12_GLOBAL__N_116des_key_scheduleEPjPKh 
.Lfunc_end9:
	.size	_ZN5Botan3DES12key_scheduleEPKhm, .Lfunc_end9-_ZN5Botan3DES12key_scheduleEPKhm
	.cfi_endproc

	.section	.text._ZNSt6vectorIjN5Botan16secure_allocatorIjEEE6resizeEm,"axG",@progbits,_ZNSt6vectorIjN5Botan16secure_allocatorIjEEE6resizeEm,comdat
	.weak	_ZNSt6vectorIjN5Botan16secure_allocatorIjEEE6resizeEm 
	.p2align	1, 0x90
	.type	_ZNSt6vectorIjN5Botan16secure_allocatorIjEEE6resizeEm,@function
_ZNSt6vectorIjN5Botan16secure_allocatorIjEEE6resizeEm: 
	.cfi_startproc

	push	rbp
.Lcfi41:
	.cfi_def_cfa_offset 16
	push	r15
.Lcfi42:
	.cfi_def_cfa_offset 24
	push	r14
.Lcfi43:
	.cfi_def_cfa_offset 32
	push	r13
.Lcfi44:
	.cfi_def_cfa_offset 40
	push	r12
.Lcfi45:
	.cfi_def_cfa_offset 48
	push	rbx
.Lcfi46:
	.cfi_def_cfa_offset 56
	sub	rsp, 24
.Lcfi47:
	.cfi_def_cfa_offset 80
.Lcfi48:
	.cfi_offset rbx, -56
.Lcfi49:
	.cfi_offset r12, -48
.Lcfi50:
	.cfi_offset r13, -40
.Lcfi51:
	.cfi_offset r14, -32
.Lcfi52:
	.cfi_offset r15, -24
.Lcfi53:
	.cfi_offset rbp, -16
	mov	r14, rsi
	mov	rbp, rdi
	movabs	r15, -1417757035662636714
	movabs	r12, -2141529821823306303
	mov	eax, dword ptr [rip + x.37]
	mov	ecx, dword ptr [rip + y.38]
	lea	edx, [rax - 1]
	imul	edx, eax
	mov	eax, edx
	xor	eax, -2
	test	eax, edx
	sete	byte ptr [rsp + 21]
	cmp	ecx, 10
	setl	byte ptr [rsp + 22]
	mov	ecx, -1055298726
	mov	r13d, -1
	jmp	.LBB10_1
.LBB10_3:                               
	cmp	ecx, -2119945792
	je	.LBB10_31

	cmp	ecx, -2078282955
	jne	.LBB10_1

	mov	rax, qword ptr [rsp + 8]
	mov	rsi, r14
	sub	rsi, r12
	sub	rsi, rax
	add	rsi, r12
	mov	rdi, rbp
	call	_ZNSt6vectorIjN5Botan16secure_allocatorIjEEE17_M_default_appendEm
	mov	ecx, dword ptr [rip + x.37]
	mov	eax, dword ptr [rip + y.38]
	mov	edx, ecx
	neg	edx
	not	edx
	imul	edx, ecx
	mov	ecx, edx
	xor	ecx, -2
	and	ecx, edx
	sete	bl
	test	ecx, ecx
	mov	ecx, -1918139828
	mov	edx, -1037973719
	mov	esi, -1918139828
	je	.LBB10_7

	mov	esi, -1037973719
.LBB10_7:                               
	cmp	eax, 10
	setl	al
	cmovl	edx, esi
	xor	al, bl
	jne	.LBB10_1

	mov	ecx, edx
	jmp	.LBB10_1
.LBB10_37:                              
	mov	rax, qword ptr [rbp]
	lea	rsi, [rax + 4*r14]
	mov	rdi, rbp
	call	_ZNSt6vectorIjN5Botan16secure_allocatorIjEEE15_M_erase_at_endEPj
	jmp	.LBB10_38
.LBB10_36:                              
	mov	rax, qword ptr [rsp + 8]
	cmp	rax, r14
	mov	ecx, -418721497
	ja	.LBB10_1
.LBB10_38:                              
	mov	ecx, -758584280
	jmp	.LBB10_1
.LBB10_26:                              
	mov	rdi, rbp
	call	_ZNKSt6vectorIjN5Botan16secure_allocatorIjEEE4sizeEv
	cmp	rax, r14
	setb	byte ptr [rsp + 23]
	mov	rdi, rbp
	call	_ZNKSt6vectorIjN5Botan16secure_allocatorIjEEE4sizeEv
	mov	ecx, dword ptr [rip + x.37]
	mov	edx, dword ptr [rip + y.38]
	mov	esi, ecx
	neg	esi
	not	esi
	imul	esi, ecx
	not	esi
	or	esi, -2
	cmp	esi, r13d
	sete	cl
	cmp	edx, 10
	setl	bl
	xor	bl, cl
	mov	edi, -1461444747
	mov	ecx, -1461444747
	jne	.LBB10_28

	mov	ecx, 1913825688
.LBB10_28:                              
	cmp	esi, r13d
	je	.LBB10_30

	mov	edi, ecx
.LBB10_30:                              
	cmp	edx, 10
	mov	qword ptr [rsp + 8], rax
	cmovl	ecx, edi
	jmp	.LBB10_1
.LBB10_23:                              
	mov	dl, byte ptr [rsp + 21]
	mov	cl, byte ptr [rsp + 22]
	mov	eax, edx
	xor	al, cl
	test	cl, cl
	mov	esi, -1580210583
	mov	ecx, 1913825688
	mov	edi, -1580210583
	jne	.LBB10_25

	mov	edi, 1913825688
.LBB10_25:                              
	test	dl, dl
	cmovne	ecx, edi
	test	al, al
	cmovne	ecx, esi
	jmp	.LBB10_1
.LBB10_39:                              
	mov	rax, qword ptr [rsp + 8]
	mov	rax, qword ptr [rsp + 8]
	mov	rax, qword ptr [rsp + 8]
	mov	rax, qword ptr [rsp + 8]
	mov	rax, qword ptr [rsp + 8]
	mov	rax, qword ptr [rsp + 8]
	mov	rax, qword ptr [rsp + 8]
	mov	rax, qword ptr [rsp + 8]
	mov	rax, qword ptr [rsp + 8]
	mov	rax, qword ptr [rsp + 8]
	mov	rax, qword ptr [rsp + 8]
	mov	rax, qword ptr [rsp + 8]
	mov	rax, qword ptr [rsp + 8]
	mov	rsi, r14
	sub	rsi, r15
	sub	rsi, rax
	add	rsi, r15
	mov	rdi, rbp
	call	_ZNSt6vectorIjN5Botan16secure_allocatorIjEEE17_M_default_appendEm
	mov	ecx, -2078282955
	jmp	.LBB10_1
.LBB10_31:                              
	mov	ecx, dword ptr [rip + x.37]
	mov	eax, dword ptr [rip + y.38]
	lea	esi, [rcx - 1]
	imul	esi, ecx
	mov	edx, esi
	xor	edx, -2
	and	edx, esi
	sete	cl
	cmp	eax, 10
	setl	bl
	xor	bl, cl
	mov	esi, -2078282955
	mov	ecx, -2078282955
	jne	.LBB10_33

	mov	ecx, -1037973719
.LBB10_33:                              
	test	edx, edx
	je	.LBB10_35

	mov	esi, ecx
.LBB10_35:                              
	cmp	eax, 10
	cmovl	ecx, esi
.LBB10_1:                               
	cmp	ecx, -1055298727
	jle	.LBB10_2

	cmp	ecx, -418721498
	jle	.LBB10_15

	cmp	ecx, -418721497
	je	.LBB10_37

	cmp	ecx, 1596773767
	je	.LBB10_36

	cmp	ecx, 1913825688
	jne	.LBB10_1

	mov	rdi, rbp
	call	_ZNKSt6vectorIjN5Botan16secure_allocatorIjEEE4sizeEv
	mov	rdi, rbp
	call	_ZNKSt6vectorIjN5Botan16secure_allocatorIjEEE4sizeEv
	mov	ecx, -1580210583
	jmp	.LBB10_1
.LBB10_2:                               
	cmp	ecx, -1918139829
	jle	.LBB10_3

	cmp	ecx, -1918139828
	je	.LBB10_38

	cmp	ecx, -1580210583
	je	.LBB10_26

	cmp	ecx, -1461444747
	jne	.LBB10_1

	mov	al, byte ptr [rsp + 23]
	test	al, al
	mov	ecx, -2119945792
	jne	.LBB10_1

	mov	ecx, 1596773767
	jmp	.LBB10_1
.LBB10_15:                              
	cmp	ecx, -1055298726
	je	.LBB10_23

	cmp	ecx, -1037973719
	je	.LBB10_39

	cmp	ecx, -758584280
	jne	.LBB10_1

	add	rsp, 24
	pop	rbx
	pop	r12
	pop	r13
	pop	r14
	pop	r15
	pop	rbp
	ret
.Lfunc_end10:
	.size	_ZNSt6vectorIjN5Botan16secure_allocatorIjEEE6resizeEm, .Lfunc_end10-_ZNSt6vectorIjN5Botan16secure_allocatorIjEEE6resizeEm
	.cfi_endproc

	.text
	.type	_ZN5Botan12_GLOBAL__N_116des_key_scheduleEPjPKh,@function 
_ZN5Botan12_GLOBAL__N_116des_key_scheduleEPjPKh: 

	push	rbp
	push	r15
	push	r14
	push	r13
	push	r12
	push	rbx
	mov	qword ptr [rsp - 24], rdi 
	movzx	r11d, byte ptr [rsi + 7]
	movzx	r12d, byte ptr [rsi + 5]
	movzx	r9d, byte ptr [rsi + 3]
	movzx	ebx, byte ptr [rsi + 2]
	mov	qword ptr [rsp - 32], rbx 
	movzx	ecx, byte ptr [rsi + 1]
	mov	eax, ecx
	mov	rbp, rcx
	mov	qword ptr [rsp - 80], rbp 
	shl	eax, 14
	mov	ecx, eax
	xor	ecx, 2080768
	and	ecx, eax
	mov	dword ptr [rsp - 84], ecx 
	movzx	ecx, byte ptr [rsi]
	mov	eax, ecx
	mov	rdi, rcx
	shl	eax, 13
	mov	ecx, eax
	xor	ecx, 1040384
	and	ecx, eax
	mov	dword ptr [rsp - 108], ecx 
	mov	ecx, r11d
	shl	ecx, 13
	mov	eax, ecx
	xor	eax, 1564672
	and	eax, ecx
	mov	ecx, r12d
	mov	dword ptr [rsp - 68], r12d 
	shl	ecx, 11
	mov	r13d, ecx
	xor	r13d, 391168
	and	r13d, ecx
	mov	ecx, r9d
	mov	r8, r9
	mov	qword ptr [rsp - 16], r8 
	shl	ecx, 9
	mov	edx, ecx
	xor	edx, 97792
	and	edx, ecx
	mov	dword ptr [rsp - 96], edx 
	mov	edx, ebx
	shl	edx, 8
	mov	r9d, edx
	xor	r9d, 48896
	and	r9d, edx
	mov	edx, ebp
	shl	edx, 7
	mov	r10d, edx
	xor	r10d, 24448
	and	r10d, edx
	mov	edx, edi
	mov	rbp, rdi
	mov	qword ptr [rsp - 56], rbp 
	shl	edx, 6
	mov	r15d, edx
	xor	r15d, 12224
	and	r15d, edx
	movzx	edi, byte ptr [rsi + 6]
	mov	edx, edi
	mov	r14d, edi
	mov	dword ptr [rsp - 104], r14d 
	shl	edx, 5
	mov	edi, edx
	xor	edi, 7136
	and	edi, edx
	movzx	ecx, byte ptr [rsi + 4]
	lea	esi, [8*rcx]
	mov	edx, esi
	xor	edx, 1784
	and	edx, esi
	lea	ebx, [4*r8]
	mov	esi, ebx
	xor	esi, 892
	and	esi, ebx
	mov	dword ptr [rsp - 100], esi 

	shr	ebp
	mov	esi, ebp
	xor	esi, 111
	and	esi, ebp
	mov	dword ptr [rsp - 88], esi 
	mov	esi, r11d
	shr	esi
	mov	ebx, esi
	xor	ebx, 119
	and	ebx, esi
	mov	esi, r14d
	shr	esi, 2
	mov	ebp, esi
	xor	ebp, 59
	and	ebp, esi
	shr	r12d, 3
	mov	esi, r12d
	xor	esi, 29
	and	esi, r12d
	mov	r14d, ecx
	shr	r14d, 4
	mov	r8d, r14d
	xor	r8d, 14
	and	r8d, r14d
	mov	r14d, eax
	not	r14d
	and	r14d, -195484626
	and	eax, 442368
	or	eax, r14d
	mov	dword ptr [rsp - 92], r11d 
	mov	r14d, r11d
	shl	r14d, 20
	or	r14d, -195484626
	and	r14d, -61266898
	xor	r14d, eax
	mov	eax, r14d
	not	eax
	and	eax, 1497139391
	and	r14d, -1539088384
	or	r14d, eax
	shl	r11d, 6
	not	r11d
	or	r11d, 1497137343
	and	r11d, 1497139391
	xor	r11d, r14d
	mov	r14d, r11d
	and	r14d, ebx
	xor	r11d, ebx
	or	r11d, r14d
	mov	r12d, dword ptr [rsp - 104] 
	mov	ebx, r12d
	shl	ebx, 19
	and	ebx, 67108864
	mov	r14d, r11d
	and	r14d, ebx
	xor	r11d, ebx
	or	r11d, r14d
	mov	ebx, r11d
	not	ebx
	mov	r14d, ebx
	and	r14d, -1883782165
	and	r11d, 1883782164
	or	r11d, r14d
	mov	r14d, r12d
	shl	r14d, 12
	not	r14d
	or	r14d, -262145
	or	ebx, r14d
	and	r14d, -1883782165
	xor	r14d, r11d
	not	ebx
	or	ebx, r14d
	mov	eax, ebx
	not	eax
	mov	r14d, eax
	and	r14d, 1849574971
	and	ebx, -1849574972
	or	ebx, r14d
	mov	r14d, edi
	not	r14d
	or	eax, r14d
	and	r14d, 1849574971
	and	edi, 6592
	or	edi, r14d
	xor	edi, ebx
	not	eax
	or	eax, edi
	mov	edi, eax
	and	edi, ebp
	xor	eax, ebp
	or	eax, edi
	mov	ebp, dword ptr [rsp - 68] 
	mov	edi, ebp
	shl	edi, 18
	and	edi, 33554432
	mov	ebx, eax
	and	ebx, edi
	xor	eax, edi
	or	eax, ebx
	mov	edi, eax
	and	edi, r13d
	xor	eax, r13d
	or	eax, edi
	mov	ebx, ebp
	mov	r14d, ebp
	shl	ebx, 4
	mov	edi, ebx
	not	edi
	mov	ebp, eax
	not	ebp
	or	edi, ebp
	and	ebp, 939807776
	and	eax, -939807777
	or	eax, ebp
	and	ebx, 512
	or	ebx, 939807776
	xor	ebx, eax
	not	edi
	and	edi, 512
	or	edi, ebx
	mov	eax, edi
	and	eax, esi
	xor	edi, esi
	or	edi, eax
	mov	eax, ecx
	shl	eax, 17
	and	eax, 16777216
	mov	esi, edi
	and	esi, eax
	xor	edi, eax
	or	edi, esi
	mov	eax, ecx
	mov	rbp, rcx
	mov	qword ptr [rsp - 8], rbp 
	and	eax, 64
	shl	eax, 10
	mov	esi, edi
	and	esi, eax
	xor	edi, eax
	or	edi, esi
	mov	eax, edi
	not	eax
	mov	esi, eax
	and	esi, -232728806
	and	edi, 232728805
	or	edi, esi
	mov	esi, edx
	not	esi
	or	eax, esi
	and	esi, -232728806
	and	edx, 224
	or	edx, esi
	xor	edx, edi
	not	eax
	or	eax, edx
	mov	edx, eax
	and	edx, r8d
	xor	eax, r8d
	or	eax, edx
	mov	edx, eax
	not	edx
	mov	esi, edx
	and	esi, 251620614
	and	eax, -251620615
	or	eax, esi
	mov	rbx, qword ptr [rsp - 16] 
	mov	esi, ebx
	shl	esi, 16
	not	esi
	or	esi, -8388609
	or	edx, esi
	and	esi, 251620614
	xor	esi, eax
	not	edx
	or	edx, esi
	mov	eax, edx
	mov	esi, dword ptr [rsp - 96] 
	and	eax, esi
	xor	edx, esi
	or	edx, eax
	mov	eax, edx
	mov	ecx, dword ptr [rsp - 100] 
	and	eax, ecx
	xor	edx, ecx
	or	edx, eax
	mov	rdi, qword ptr [rsp - 32] 
	mov	eax, edi
	shl	eax, 15
	and	eax, 4194304
	mov	esi, edx
	and	esi, eax
	xor	edx, eax
	or	edx, esi
	mov	eax, edx
	not	eax
	mov	esi, eax
	and	esi, 1202484108
	and	edx, -1202484109
	or	edx, esi
	mov	esi, r9d
	not	esi
	or	eax, esi
	and	esi, 1202484108
	and	r9d, 35840
	or	r9d, esi
	xor	r9d, edx
	not	eax
	or	eax, r9d
	lea	ecx, [rdi + rdi]
	and	ecx, 64
	mov	edx, eax
	and	edx, ecx
	xor	eax, ecx
	or	eax, edx
	mov	rdx, qword ptr [rsp - 80] 
	mov	ecx, edx
	xor	ecx, 223
	and	ecx, edx
	mov	edx, eax
	and	edx, ecx
	xor	eax, ecx
	or	eax, edx
	mov	ecx, eax
	mov	edx, dword ptr [rsp - 84] 
	and	ecx, edx
	xor	eax, edx
	or	eax, ecx
	mov	ecx, eax
	not	ecx
	mov	edx, ecx
	and	edx, 334226599
	and	eax, -334226600
	or	eax, edx
	mov	edx, r10d
	not	edx
	or	ecx, edx
	and	edx, 334226599
	and	r10d, 6912
	or	r10d, edx
	xor	r10d, eax
	not	ecx
	or	ecx, r10d
	mov	eax, ecx
	mov	edx, dword ptr [rsp - 108] 
	and	eax, edx
	xor	ecx, edx
	or	ecx, eax
	mov	esi, ecx
	not	esi
	mov	eax, r15d
	not	eax
	mov	edx, esi
	and	edx, 1400659064
	and	ecx, -1400659065
	or	ecx, edx
	or	esi, eax
	and	eax, 1400659064
	and	r15d, 9088
	or	r15d, eax
	xor	r15d, ecx
	not	esi
	or	esi, r15d
	mov	eax, esi
	mov	ecx, dword ptr [rsp - 88] 
	and	eax, ecx
	xor	esi, ecx
	or	esi, eax
	mov	dword ptr [rsp - 108], esi 
	mov	eax, r12d
	shl	eax, 25
	mov	r8d, eax
	xor	r8d, -100663296
	and	r8d, eax
	mov	eax, r14d
	shl	eax, 24
	mov	r11d, eax
	xor	r11d, -50331648
	and	r11d, eax
	mov	rcx, rbx
	mov	eax, ecx
	shl	eax, 22
	mov	r13d, eax
	xor	r13d, 1061158912
	and	r13d, eax
	mov	rsi, rdi
	mov	ebx, esi
	shl	ebx, 21
	mov	eax, ebx
	xor	eax, 530579456
	and	eax, ebx
	mov	dword ptr [rsp - 88], eax 
	mov	rax, qword ptr [rsp - 56] 
	mov	ebx, eax
	shl	ebx, 19
	mov	eax, ebx
	xor	eax, 132644864
	and	eax, ebx
	mov	dword ptr [rsp - 84], eax 
	mov	eax, r14d
	shl	eax, 15
	mov	r10d, eax
	xor	r10d, 8224768
	and	r10d, eax
	mov	eax, ebp
	shl	eax, 14
	mov	edx, eax
	xor	edx, 4112384
	and	edx, eax
	mov	dword ptr [rsp - 36], edx 
	mov	eax, ecx
	mov	rbx, rcx
	shl	eax, 13
	mov	ecx, eax
	xor	ecx, 2056192
	and	ecx, eax
	mov	dword ptr [rsp - 100], ecx 
	mov	eax, esi
	mov	rbp, rsi
	shl	eax, 12
	mov	ecx, eax
	xor	ecx, 1028096
	and	ecx, eax
	mov	dword ptr [rsp - 96], ecx 
	mov	eax, dword ptr [rsp - 92] 
	mov	edx, eax
	mov	esi, eax
	shl	eax, 8
	mov	edi, eax
	xor	edi, 63232
	and	edi, eax
	mov	eax, r12d
	mov	r9d, eax
	shl	eax, 7
	mov	r12d, eax
	xor	r12d, 31616
	and	r12d, eax
	mov	rax, rbx
	shl	ebx, 4
	mov	ecx, ebx
	xor	ecx, 3952
	and	ecx, ebx
	mov	dword ptr [rsp - 104], ecx 
	lea	ebx, [8*rbp]
	mov	ebp, ebx
	xor	ebp, 1976
	and	ebp, ebx
	mov	rbx, rax
	shr	ebx
	mov	r15d, ebx
	xor	r15d, 119
	and	r15d, ebx
	mov	rax, qword ptr [rsp - 80] 
	mov	ebx, eax
	mov	r14d, eax
	lea	ecx, [4*rax]
	mov	dword ptr [rsp - 92], ecx 
	shr	eax, 3
	mov	ecx, eax
	xor	ecx, 29
	and	ecx, eax
	mov	dword ptr [rsp - 80], ecx 
	shl	edx, 26
	not	edx
	or	edx, -1023360624
	shl	esi, 17
	or	esi, -889142896
	and	edx, -889142896
	and	esi, -888618608
	xor	esi, edx
	or	esi, edi
	mov	ecx, esi
	not	ecx
	mov	edx, ecx
	and	edx, -177220444
	and	esi, 134228736
	or	esi, edx
	mov	edx, r8d
	not	edx
	or	ecx, edx
	and	edx, -177220444
	and	r8d, 167772160
	or	r8d, edx
	xor	r8d, esi
	not	ecx
	or	ecx, r8d
	and	r9d, 4
	shl	r9d, 16
	mov	eax, ecx
	and	eax, r9d
	xor	ecx, r9d
	or	ecx, eax
	mov	eax, ecx
	not	eax
	mov	edx, eax
	and	edx, 1636724079
	and	ecx, -1636724080
	or	ecx, edx
	mov	edx, r12d
	not	edx
	or	eax, edx
	and	edx, 1636724079
	and	r12d, 4736
	or	r12d, edx
	xor	r12d, ecx
	not	eax
	or	eax, r12d
	mov	ecx, eax
	not	ecx
	mov	edx, ecx
	and	edx, 1714758041
	and	eax, -1714758042
	or	eax, edx
	mov	edx, r11d
	not	edx
	or	ecx, edx
	and	edx, 1714758041
	and	r11d, -1728053248
	or	r11d, edx
	xor	r11d, eax
	not	ecx
	or	ecx, r11d
	mov	eax, ecx
	not	eax
	mov	edx, eax
	and	edx, -642501959
	and	ecx, 642501958
	or	ecx, edx
	mov	edx, r10d
	not	edx
	or	eax, edx
	and	edx, -642501959
	and	r10d, 4947968
	or	r10d, edx
	xor	r10d, ecx
	not	eax
	or	eax, r10d
	mov	edx, eax
	not	edx
	mov	ecx, edx
	and	ecx, 1471292979
	and	eax, -1471292980
	or	eax, ecx
	mov	ecx, dword ptr [rsp - 68] 
	shl	ecx, 6
	not	ecx
	or	ecx, -513
	or	edx, ecx
	and	ecx, 1471292979
	xor	ecx, eax
	not	edx
	or	edx, ecx
	mov	rdi, qword ptr [rsp - 8] 
	mov	eax, edi
	shl	eax, 23
	mov	ecx, eax
	not	ecx
	mov	esi, edx
	not	esi
	or	ecx, esi
	and	esi, 2016592617
	and	edx, -2016592618
	or	edx, esi
	and	eax, 16777216
	or	eax, 2016592617
	xor	eax, edx
	not	ecx
	and	ecx, 16777216
	or	ecx, eax
	mov	eax, ecx
	mov	edx, dword ptr [rsp - 36] 
	and	eax, edx
	xor	ecx, edx
	or	ecx, eax
	mov	rdx, rdi
	and	edx, 8
	shl	edx, 5
	mov	eax, ecx
	and	eax, edx
	xor	ecx, edx
	or	ecx, eax
	mov	eax, ecx
	not	eax
	mov	edx, eax
	and	edx, -913566627
	and	ecx, 913566626
	or	ecx, edx
	mov	edx, r13d
	not	edx
	or	eax, edx
	and	edx, -913566627
	and	r13d, 910163968
	or	r13d, edx
	xor	r13d, ecx
	not	eax
	or	eax, r13d
	mov	ecx, eax
	mov	edx, dword ptr [rsp - 100] 
	and	ecx, edx
	xor	eax, edx
	or	eax, ecx
	mov	ecx, eax
	mov	edx, dword ptr [rsp - 104] 
	and	ecx, edx
	xor	eax, edx
	or	eax, ecx
	mov	ecx, eax
	and	ecx, r15d
	xor	eax, r15d
	or	eax, ecx
	mov	ecx, eax
	mov	edx, dword ptr [rsp - 88] 
	and	ecx, edx
	xor	eax, edx
	or	eax, ecx
	mov	ecx, eax
	mov	edx, dword ptr [rsp - 96] 
	and	ecx, edx
	xor	eax, edx
	or	eax, ecx
	mov	ecx, eax
	not	ecx
	mov	edx, ecx
	and	edx, -1183293356
	and	eax, 1183293355
	or	eax, edx
	mov	edx, ebp
	not	edx
	or	ecx, edx
	and	edx, -1183293356
	and	ebp, 1960
	or	ebp, edx
	xor	ebp, eax
	mov	rdx, qword ptr [rsp - 32] 
	shr	edx, 2
	and	edx, 4
	not	ecx
	or	ecx, ebp
	mov	eax, ecx
	and	eax, edx
	xor	ecx, edx
	or	ecx, eax
	mov	edx, ecx
	not	edx
	mov	eax, edx
	and	eax, 1554855014
	and	ecx, -1554855015
	or	ecx, eax
	shl	ebx, 20
	not	ebx
	or	ebx, -2097153
	or	edx, ebx
	and	ebx, 1554855014
	xor	ebx, ecx
	not	edx
	or	edx, ebx
	mov	eax, edx
	not	eax
	mov	ecx, eax
	and	ecx, 674358342
	and	edx, -674358343
	or	edx, ecx
	shl	r14d, 11
	not	r14d
	or	r14d, -8193
	or	eax, r14d
	and	r14d, 674358342
	xor	r14d, edx
	mov	edx, dword ptr [rsp - 92] 
	and	edx, 32
	not	eax
	or	eax, r14d
	mov	ecx, eax
	and	ecx, edx
	xor	eax, edx
	mov	rdi, qword ptr [rsp - 56] 
	mov	edx, edi
	shl	edx, 10
	not	edx
	or	edx, -4097
	or	eax, ecx
	mov	ecx, eax
	mov	esi, dword ptr [rsp - 80] 
	and	ecx, esi
	xor	eax, esi
	lea	esi, [rdi + rdi]
	and	esi, 16
	shr	edi, 4
	and	edi, 1
	mov	rbp, rdi
	or	eax, ecx
	mov	ecx, eax
	mov	edi, dword ptr [rsp - 84] 
	and	ecx, edi
	xor	eax, edi
	or	eax, ecx
	mov	edi, eax
	not	edi
	mov	ecx, edi
	and	ecx, 264730227
	and	eax, -264730228
	or	eax, ecx
	or	edi, edx
	and	edx, 264730227
	xor	edx, eax
	not	edi
	or	edi, edx
	mov	eax, edi
	and	eax, esi
	xor	edi, esi
	or	edi, eax
	mov	eax, edi
	and	eax, ebp
	xor	edi, ebp
	or	edi, eax
	xor	eax, eax
	movabs	rcx, -4990249546081522241
	not	rcx
	mov	qword ptr [rsp - 56], rcx 
.LBB11_1:                               

	mov	ecx, -1700677750
	jmp	.LBB11_2
.LBB11_4:                               
	cmp	ecx, -1700677750
	jne	.LBB11_2

	mov	qword ptr [rsp - 48], rax
	mov	dword ptr [rsp - 64], edi
	mov	ecx, dword ptr [rsp - 108] 
	mov	dword ptr [rsp - 60], ecx
	mov	rcx, qword ptr [rsp - 48]
	cmp	rcx, 16
	mov	ecx, 158555816
	mov	edx, 1733450375
	cmove	ecx, edx
.LBB11_2:                               

	cmp	ecx, 1733450375
	je	.LBB11_6

	cmp	ecx, 158555816
	jne	.LBB11_4

	mov	rax, qword ptr [rsp - 48]
	movzx	eax, byte ptr [rax + _ZZN5Botan12_GLOBAL__N_116des_key_scheduleEPjPKhE3ROT]
	mov	esi, dword ptr [rsp - 60]
	mov	ecx, eax
	shl	esi, cl
	mov	edx, 28
	sub	edx, eax
	mov	ebx, dword ptr [rsp - 60]
	mov	ecx, edx
	shr	ebx, cl
	mov	ecx, ebx
	and	ecx, esi
	xor	ebx, esi
	or	ebx, ecx
	mov	ecx, ebx
	mov	dword ptr [rsp - 108], ecx 
	mov	esi, dword ptr [rsp - 64]
	mov	ecx, eax
	shl	esi, cl
	mov	eax, dword ptr [rsp - 64]
	mov	ecx, edx
	shr	eax, cl
	mov	ecx, eax
	not	ecx
	mov	edx, esi
	not	edx
	mov	edi, ecx
	and	edi, 2136199823
	and	eax, -2136199824
	or	eax, edi
	or	ecx, edx
	and	edx, 2136199823
	and	esi, -2136199824
	or	esi, edx
	xor	esi, eax
	not	ecx
	or	ecx, esi
	mov	eax, ecx
	xor	eax, -268435456
	and	eax, ecx
	mov	dword ptr [rsp - 80], eax 
	mov	eax, ebx
	shl	eax, 22
	mov	edx, eax
	xor	edx, -71303168
	and	edx, eax
	mov	esi, ebx
	shl	esi, 17
	mov	eax, esi
	not	eax
	and	esi, 268435456
	mov	edi, edx
	not	edi
	or	eax, edi
	not	eax
	and	edi, 1843353695
	and	edx, -1845493760
	or	edx, edi
	or	esi, 1843353695
	xor	esi, edx
	and	eax, 268435456
	or	eax, esi
	mov	edx, ebx
	shl	edx, 16
	mov	esi, edx
	xor	esi, -2162688
	and	esi, edx
	mov	edx, eax
	and	edx, esi
	xor	esi, eax
	or	esi, edx
	mov	eax, ebx
	shl	eax, 15
	mov	edx, eax
	xor	edx, -537034752
	and	edx, eax
	mov	eax, esi
	and	eax, edx
	xor	edx, esi
	or	edx, eax
	mov	eax, ebx
	shl	eax, 11
	mov	esi, eax
	xor	esi, -1050624
	and	esi, eax
	mov	eax, edx
	not	eax
	mov	edi, esi
	not	edi
	mov	ebp, eax
	and	ebp, 1180936302
	and	edx, -1180936303
	or	edx, ebp
	or	eax, edi
	and	edi, 1180936302
	and	esi, -1180938240
	or	esi, edi
	xor	esi, edx
	not	eax
	or	eax, esi
	mov	r15d, ebx
	shl	r15d, 10
	mov	esi, r15d
	xor	esi, -134218752
	and	esi, r15d
	mov	edx, eax
	not	edx
	mov	edi, esi
	not	edi
	mov	ebp, edx
	and	ebp, 642289568
	and	eax, -642289569
	or	eax, ebp
	or	edx, edi
	and	edi, 642289568
	and	esi, -642289664
	or	esi, edi
	xor	esi, eax
	not	edx
	or	edx, esi
	mov	eax, ebx
	shr	eax, 6
	mov	esi, eax
	xor	esi, 66846719
	and	esi, eax
	mov	eax, edx
	not	eax
	mov	edi, esi
	not	edi
	mov	ebp, eax
	and	ebp, -794390796
	and	edx, 794390795
	or	edx, ebp
	or	eax, edi
	and	edi, -794390796
	and	esi, 56193291
	or	esi, edi
	xor	esi, edx
	not	eax
	or	eax, esi
	mov	edx, ebx
	shr	edx, 4
	mov	esi, edx
	xor	esi, 268369919
	and	esi, edx
	mov	edx, eax
	and	edx, esi
	xor	esi, eax
	or	esi, edx
	lea	edx, [8*rbx]
	and	edx, 524288
	mov	eax, esi
	and	eax, edx
	xor	edx, esi
	or	edx, eax
	mov	esi, ebx
	shr	esi, 2
	not	esi
	or	esi, -33554433
	mov	eax, edx
	not	eax
	mov	edi, eax
	and	edi, -1285377658
	and	edx, 1285377657
	or	edx, edi
	or	eax, esi
	and	esi, -1285377658
	xor	esi, edx
	not	eax
	or	eax, esi
	lea	esi, [rbx + rbx]
	not	esi
	or	esi, -16777217
	mov	edx, eax
	not	edx
	mov	edi, edx
	and	edi, -1653478304
	and	eax, 1653478303
	or	eax, edi
	or	edx, esi
	and	esi, -1653478304
	xor	esi, eax
	not	edx
	or	edx, esi
	mov	r11d, ecx
	and	r11d, 16
	shl	r11d, 8
	mov	eax, ecx
	shl	eax, 7
	mov	r12d, eax
	xor	r12d, -384
	and	r12d, eax
	lea	eax, [4*rcx]
	mov	ebp, eax
	xor	ebp, -8
	and	ebp, eax
	mov	edi, ecx
	not	edi
	or	edi, -513
	mov	r10d, ecx
	shr	r10d, 2
	and	r10d, 8192
	mov	eax, ecx
	shr	eax, 7
	mov	r9d, eax
	xor	r9d, 33554399
	and	r9d, eax
	mov	eax, ecx
	shr	eax, 9
	mov	r13d, eax
	xor	r13d, 8387583
	and	r13d, eax
	mov	eax, edx
	not	eax
	mov	esi, eax
	and	esi, 1720066667
	and	edx, -1720066668
	or	edx, esi
	mov	r8d, ecx
	shr	r8d, 3
	or	eax, edi
	and	edi, 1720066667
	xor	edi, edx
	mov	edx, r8d
	xor	edx, 536870894
	and	edx, r8d
	not	eax
	or	eax, edi
	mov	esi, eax
	and	esi, r11d
	xor	eax, r11d
	mov	r14d, ecx
	shr	r14d, 14
	or	eax, esi
	mov	esi, eax
	and	esi, r12d
	xor	eax, r12d
	or	eax, esi
	mov	edi, eax
	not	edi
	mov	esi, edi
	and	esi, -2144743744
	and	eax, 2144743743
	or	eax, esi
	mov	esi, ebp
	not	esi
	or	edi, esi
	and	esi, -2144743744
	and	ebp, 2144743740
	or	ebp, esi
	mov	esi, r14d
	xor	esi, 260087
	and	esi, r14d
	xor	ebp, eax
	mov	r11d, ecx
	shr	r11d, 21
	not	r11d
	or	r11d, -3
	not	edi
	or	edi, ebp
	mov	ebp, edi
	and	ebp, r10d
	xor	edi, r10d
	or	edi, ebp
	mov	ebp, edi
	not	ebp
	mov	eax, ebp
	and	eax, -751695721
	and	edi, 751695720
	or	edi, eax
	mov	eax, edx
	not	eax
	or	ebp, eax
	and	eax, -751695721
	and	edx, 214824808
	or	edx, eax
	xor	edx, edi
	not	ebp
	or	ebp, edx
	mov	eax, ebp
	and	eax, r9d
	xor	ebp, r9d
	or	ebp, eax
	mov	edx, ebp
	not	edx
	mov	eax, r13d
	not	eax
	mov	edi, edx
	and	edi, -492240501
	and	ebp, 492240500
	or	ebp, edi
	or	edx, eax
	and	eax, -492240501
	and	r13d, 5701236
	or	r13d, eax
	xor	r13d, ebp
	not	edx
	or	edx, r13d
	mov	edi, edx
	not	edi
	mov	eax, esi
	not	eax
	mov	ebp, edi
	and	ebp, -349172773
	and	edx, 349172772
	or	edx, ebp
	or	edi, eax
	and	eax, -349172773
	and	esi, 259108
	or	esi, eax
	xor	esi, edx
	not	edi
	or	edi, esi
	mov	eax, edi
	not	eax
	mov	edx, eax
	and	edx, -598608798
	and	edi, 598608797
	or	edi, edx
	or	eax, r11d
	and	r11d, -598608798
	xor	r11d, edi
	not	eax
	or	eax, r11d
	mov	r13, qword ptr [rsp - 48]
	mov	rdx, qword ptr [rsp - 24] 
	mov	dword ptr [rdx + 8*r13], eax
	mov	edx, ebx
	shl	edx, 28
	mov	eax, edx
	not	eax
	mov	esi, ebx
	shl	esi, 18
	mov	edi, esi
	xor	edi, -34340864
	and	edi, esi
	mov	esi, edi
	not	esi
	or	eax, esi
	not	eax
	and	edx, 268435456
	and	esi, -1931483765
	and	edi, 1931476992
	or	edi, esi
	or	edx, -1931483765
	xor	edx, edi
	and	eax, 268435456
	or	eax, edx
	mov	edx, ebx
	shl	edx, 14
	mov	esi, edx
	xor	esi, -134234112
	and	esi, edx
	mov	edx, eax
	not	edx
	mov	edi, esi
	not	edi
	mov	ebp, edx
	and	ebp, 581532536
	and	eax, -581532541
	or	eax, ebp
	or	edx, edi
	and	edi, 581532536
	and	esi, -581533696
	or	esi, edi
	xor	esi, eax
	not	edx
	or	edx, esi
	mov	esi, r15d
	xor	esi, -263168
	and	esi, r15d
	mov	eax, edx
	not	eax
	mov	edi, esi
	not	edi
	mov	ebp, eax
	and	ebp, 1568329808
	and	edx, -1568329809
	or	edx, ebp
	or	eax, edi
	and	edi, 1568329808
	and	esi, -1568330752
	or	esi, edi
	xor	esi, edx
	not	eax
	or	eax, esi
	mov	edx, ebx
	shl	edx, 9
	mov	esi, edx
	xor	esi, -2097664
	and	esi, edx
	mov	edx, eax
	and	edx, esi
	xor	esi, eax
	or	esi, edx
	mov	edx, ebx
	shl	edx, 6
	and	edx, 16777216
	mov	eax, esi
	and	eax, edx
	xor	edx, esi
	or	edx, eax
	mov	eax, ebx
	shl	eax, 4
	mov	esi, eax
	xor	esi, -603979792
	and	esi, eax
	mov	eax, edx
	not	eax
	mov	edi, esi
	not	edi
	mov	ebp, eax
	and	ebp, 1267942637
	and	edx, -1267942638
	or	edx, ebp
	or	eax, edi
	and	edi, 1267942637
	and	esi, -1267942640
	or	esi, edi
	xor	esi, edx
	not	eax
	or	eax, esi
	lea	edx, [4*rbx]
	mov	esi, edx
	xor	esi, -131076
	and	esi, edx
	mov	edx, eax
	not	edx
	mov	edi, esi
	not	edi
	mov	ebp, edx
	and	ebp, 1963208600
	and	eax, -1963208601
	or	eax, ebp
	or	edx, edi
	and	edi, 1963208600
	and	esi, -1963208604
	or	esi, edi
	xor	esi, eax
	not	edx
	or	edx, esi
	mov	eax, ebx
	shr	eax
	and	eax, 1048576
	mov	esi, edx
	and	esi, eax
	xor	eax, edx
	or	eax, esi
	shr	ebx, 10
	and	ebx, 65536
	mov	edx, eax
	and	edx, ebx
	xor	ebx, eax
	or	ebx, edx
	mov	eax, ecx
	shl	eax, 6
	mov	r11d, eax
	xor	r11d, -2112
	and	r11d, eax
	mov	r12d, ecx
	xor	r12d, -257
	and	r12d, ecx
	mov	r9d, ecx
	mov	r10d, r8d
	xor	r10d, 536870903
	and	r10d, r8d
	mov	ebp, ecx
	mov	eax, ecx
	shr	eax, 10
	mov	esi, eax
	xor	esi, 4194287
	and	esi, eax
	mov	edx, ecx
	shr	edx, 13
	mov	eax, edx
	xor	eax, 516095
	and	eax, edx
	mov	r15d, r14d
	xor	r15d, 261631
	and	r15d, r14d
	mov	edx, ecx
	shr	edx, 24
	mov	r14d, edx
	xor	r14d, 254
	and	r14d, edx
	mov	r8d, ecx
	mov	edi, ecx
	shr	ecx, 26
	mov	edx, ecx
	xor	edx, 61
	and	edx, ecx
	mov	ecx, ebx
	and	ecx, r12d
	xor	r12d, ebx
	or	r12d, ecx
	mov	ecx, r12d
	not	ecx
	mov	ebx, ecx
	and	ebx, -357218541
	and	r12d, 357218540
	or	r12d, ebx
	mov	ebx, r11d
	not	ebx
	or	ecx, ebx
	and	ebx, -357218541
	and	r11d, 357218496
	or	r11d, ebx
	xor	r11d, r12d
	not	ecx
	or	ecx, r11d
	mov	ebx, ecx
	not	ebx
	mov	r11d, ebx
	and	r11d, -1237195515
	and	ecx, 1237195514
	or	ecx, r11d
	shr	r9d
	not	r9d
	or	r9d, -1025
	or	ebx, r9d
	and	r9d, -1237195515
	xor	r9d, ecx
	not	ebx
	or	ebx, r9d
	mov	ecx, ebx
	and	ecx, r10d
	xor	ebx, r10d
	or	ebx, ecx
	mov	ecx, ebx
	not	ecx
	mov	r9d, ecx
	and	r9d, -1528391237
	and	ebx, 1528391236
	or	ebx, r9d
	shr	ebp, 4
	not	ebp
	or	ebp, -4097
	or	ecx, ebp
	and	ebp, -1528391237
	xor	ebp, ebx
	shr	r8d, 5
	and	r8d, 32
	not	ecx
	or	ecx, ebp
	mov	ebp, ecx
	and	ebp, r8d
	xor	ecx, r8d
	or	ecx, ebp
	mov	ebp, ecx
	and	ebp, esi
	xor	ecx, esi
	or	ecx, ebp
	mov	esi, ecx
	and	esi, eax
	xor	ecx, eax
	or	ecx, esi
	mov	eax, ecx
	and	eax, r15d
	xor	ecx, r15d
	shr	edi, 18
	and	edi, 4
	or	ecx, eax
	mov	eax, ecx
	and	eax, edi
	xor	ecx, edi
	mov	edi, dword ptr [rsp - 80] 
	or	ecx, eax
	mov	eax, ecx
	and	eax, r14d
	xor	ecx, r14d
	or	ecx, eax
	mov	eax, ecx
	not	eax
	mov	esi, eax
	and	esi, -561592698
	and	ecx, 561592697
	or	ecx, esi
	mov	esi, edx
	not	esi
	or	eax, esi
	and	esi, -561592698
	and	edx, 57
	or	edx, esi
	xor	edx, ecx
	add	r13, r13
	not	eax
	or	eax, edx
	mov	rcx, r13
	not	rcx
	movabs	rdx, 4233122490773253567
	and	rcx, rdx
	and	r13, qword ptr [rsp - 56] 
	or	r13, rcx
	movabs	rcx, 4233122490773253566
	xor	r13, rcx
	mov	rcx, qword ptr [rsp - 24] 
	mov	dword ptr [rcx + 4*r13], eax
	mov	rax, qword ptr [rsp - 48]
	xor	ecx, ecx
	sub	rcx, rax
	mov	eax, 1
	sub	rax, rcx
	and	dword ptr [rsp - 108], 268435455 
	jmp	.LBB11_1
.LBB11_6:
	pop	rbx
	pop	r12
	pop	r13
	pop	r14
	pop	r15
	pop	rbp
	ret
.Lfunc_end11:
	.size	_ZN5Botan12_GLOBAL__N_116des_key_scheduleEPjPKh, .Lfunc_end11-_ZN5Botan12_GLOBAL__N_116des_key_scheduleEPjPKh

	.globl	_ZN5Botan3DES5clearEv   
	.p2align	1, 0x90
	.type	_ZN5Botan3DES5clearEv,@function
_ZN5Botan3DES5clearEv:                  
	.cfi_startproc

	add	rdi, 8
	jmp	_ZN5Botan3zapIjNS_16secure_allocatorIjEEEEvRSt6vectorIT_T0_E 
.Lfunc_end12:
	.size	_ZN5Botan3DES5clearEv, .Lfunc_end12-_ZN5Botan3DES5clearEv
	.cfi_endproc

	.section	.text._ZN5Botan3zapIjNS_16secure_allocatorIjEEEEvRSt6vectorIT_T0_E,"axG",@progbits,_ZN5Botan3zapIjNS_16secure_allocatorIjEEEEvRSt6vectorIT_T0_E,comdat
	.weak	_ZN5Botan3zapIjNS_16secure_allocatorIjEEEEvRSt6vectorIT_T0_E 
	.type	_ZN5Botan3zapIjNS_16secure_allocatorIjEEEEvRSt6vectorIT_T0_E,@function
_ZN5Botan3zapIjNS_16secure_allocatorIjEEEEvRSt6vectorIT_T0_E: 
	.cfi_startproc

	push	rbx
.Lcfi54:
	.cfi_def_cfa_offset 16
.Lcfi55:
	.cfi_offset rbx, -16
	mov	rbx, rdi
	call	_ZN5Botan7zeroiseIjNS_16secure_allocatorIjEEEEvRSt6vectorIT_T0_E
	mov	rsi, qword ptr [rbx]
	mov	rdi, rbx
	call	_ZNSt6vectorIjN5Botan16secure_allocatorIjEEE15_M_erase_at_endEPj
	mov	rdi, rbx
	pop	rbx
	jmp	_ZNSt6vectorIjN5Botan16secure_allocatorIjEEE13shrink_to_fitEv 
.Lfunc_end13:
	.size	_ZN5Botan3zapIjNS_16secure_allocatorIjEEEEvRSt6vectorIT_T0_E, .Lfunc_end13-_ZN5Botan3zapIjNS_16secure_allocatorIjEEEEvRSt6vectorIT_T0_E
	.cfi_endproc

	.text
	.globl	_ZNK5Botan9TripleDES9encrypt_nEPKhPhm 
	.p2align	1, 0x90
	.type	_ZNK5Botan9TripleDES9encrypt_nEPKhPhm,@function
_ZNK5Botan9TripleDES9encrypt_nEPKhPhm:  
	.cfi_startproc

	push	rbp
.Lcfi56:
	.cfi_def_cfa_offset 16
	push	r15
.Lcfi57:
	.cfi_def_cfa_offset 24
	push	r14
.Lcfi58:
	.cfi_def_cfa_offset 32
	push	r13
.Lcfi59:
	.cfi_def_cfa_offset 40
	push	r12
.Lcfi60:
	.cfi_def_cfa_offset 48
	push	rbx
.Lcfi61:
	.cfi_def_cfa_offset 56
	sub	rsp, 152
.Lcfi62:
	.cfi_def_cfa_offset 208
.Lcfi63:
	.cfi_offset rbx, -56
.Lcfi64:
	.cfi_offset r12, -48
.Lcfi65:
	.cfi_offset r13, -40
.Lcfi66:
	.cfi_offset r14, -32
.Lcfi67:
	.cfi_offset r15, -24
.Lcfi68:
	.cfi_offset rbp, -16
	mov	r15, rcx
	mov	r14, rdx
	mov	qword ptr [rsp + 88], rsi 
	mov	rbx, rdi
	movabs	rbp, -412453977752129342
	lea	rax, [rbx + 8]
	mov	qword ptr [rsp + 32], rax
	mov	rdi, qword ptr [rsp + 32]
	call	_ZNKSt6vectorIjN5Botan16secure_allocatorIjEEE5emptyEv
	xor	al, 1
	movzx	esi, al
	mov	rdi, rbx
	call	_ZNK5Botan18SymmetricAlgorithm14verify_key_setEb
	mov	eax, -869180954
	mov	r13d, -1
	movabs	rcx, 4611686018427387902
	and	rbp, rcx
	mov	qword ptr [rsp + 120], rbp 






	jmp	.LBB14_1
.LBB14_96:                              
	mov	rax, qword ptr [rsp + 128]
	mov	qword ptr [rsp + 112], rax 
	mov	rax, qword ptr [rsp + 136]
	mov	qword ptr [rsp + 104], rax 
	mov	eax, 1849163759
	mov	rcx, qword ptr [rsp + 144]
	mov	qword ptr [rsp + 96], rcx 
	jmp	.LBB14_1
.LBB14_52:                              
	mov	al, byte ptr [rsp + 31]
	test	al, al
	mov	eax, 897103454
	mov	ecx, 1736191086
	cmovne	eax, ecx
	jmp	.LBB14_1
.LBB14_103:                             
	mov	eax, dword ptr [rsp + 4]
	mov	dword ptr [rsp + 12], eax
	mov	eax, dword ptr [rsp]
	mov	dword ptr [rsp + 8], eax
	mov	rax, qword ptr [rsp + 32]
	mov	rdx, qword ptr [rax]
	sub	rdx, -128
	lea	rdi, [rsp + 8]
	lea	rsi, [rsp + 12]
	call	_ZN5Botan12_GLOBAL__N_111des_decryptERjS1_PKj
	mov	rax, qword ptr [rsp + 32]
	mov	r12, qword ptr [rax]
	mov	ebx, dword ptr [rsp + 12]
	mov	eax, dword ptr [rsp + 8]
	xor	ecx, ecx
.LBB14_104:                             


	mov	edx, 377414099
	jmp	.LBB14_105
.LBB14_107:                             
	cmp	edx, 377414099
	jne	.LBB14_105

	mov	qword ptr [rsp + 16], rcx
	mov	dword ptr [rsp], eax
	mov	dword ptr [rsp + 4], ebx
	mov	rdx, qword ptr [rsp + 16]
	cmp	rdx, 16
	mov	edx, -1108240195
	mov	esi, -2055170464
	cmove	edx, esi
.LBB14_105:                             


	cmp	edx, -2055170464
	je	.LBB14_110

	cmp	edx, -1108240195
	jne	.LBB14_107

	mov	eax, dword ptr [rsp]
	mov	ecx, eax
	shr	ecx, 4
	shl	eax, 28
	mov	edx, ecx
	not	edx
	mov	esi, eax
	not	esi
	and	edx, 1050782140
	and	ecx, 22959683
	or	ecx, edx
	and	esi, 1050782140
	and	eax, -1073741824
	or	eax, esi
	xor	eax, ecx
	mov	rbp, qword ptr [rsp + 16]
	lea	rcx, [rbp + rbp]
	mov	edi, dword ptr [r12 + 8*rbp + 256]
	mov	edx, eax
	not	edx
	and	edx, edi
	not	edi
	and	edi, eax
	or	edi, edx
	mov	rax, rcx
	not	rax
	movabs	rdx, -412453977752129342
	mov	rsi, rdx
	not	rdx
	and	rax, rsi
	and	rcx, rdx
	or	rcx, rax
	and	edx, 1
	add	rdx, qword ptr [rsp + 120] 
	xor	rdx, rcx
	mov	esi, dword ptr [r12 + 4*rdx + 256]
	mov	eax, dword ptr [rsp]
	mov	ecx, eax
	not	ecx
	and	ecx, esi
	not	esi
	and	esi, eax
	or	esi, ecx
	call	_ZN5Botan12_GLOBAL__N_15spboxEjj
	mov	ebx, eax
	mov	eax, dword ptr [rsp + 4]
	mov	ecx, eax
	not	ecx
	and	ecx, ebx
	not	ebx
	and	ebx, eax
	or	ebx, ecx
	mov	eax, ebx
	rol	eax, 28
	mov	ecx, eax
	not	ecx
	and	ecx, -1488923881
	and	eax, 1488923880
	lea	eax, [rax + rcx]
	mov	edi, dword ptr [r12 + 8*rbp + 264]
	mov	esi, dword ptr [r12 + 8*rbp + 268]
	mov	ecx, edi
	not	ecx
	and	ecx, -1488923881
	and	edi, 1488923880
	or	edi, ecx
	xor	edi, eax
	mov	eax, ebx
	not	eax
	and	eax, esi
	not	esi
	and	esi, ebx
	or	esi, eax
	call	_ZN5Botan12_GLOBAL__N_15spboxEjj
	mov	ecx, dword ptr [rsp]
	mov	edx, ecx
	not	edx
	and	edx, 124242603
	and	ecx, -124242604
	or	ecx, edx
	mov	edx, eax
	not	edx
	and	edx, 124242603
	and	eax, -124242604
	or	eax, edx
	xor	eax, ecx
	mov	rcx, qword ptr [rsp + 16]
	add	rcx, 2
	jmp	.LBB14_104
.LBB14_53:                              
	mov	eax, dword ptr [rip + x.47]
	mov	ecx, dword ptr [rip + y.48]
	lea	edx, [rax - 1]
	imul	edx, eax
	not	edx
	or	edx, -2
	mov	edi, -1
	cmp	edx, edi
	sete	al
	cmp	ecx, 10
	setl	bl
	xor	bl, al
	mov	esi, -1380521401
	mov	ebp, 1087231820
	cmovne	esi, ebp
	mov	r13d, -1
	cmp	edx, edi
	mov	eax, esi
	cmove	eax, ebp
	cmp	ecx, 10
	cmovge	eax, esi
	jmp	.LBB14_1
.LBB14_49:                              
	mov	eax, dword ptr [rip + x.47]
	mov	ecx, dword ptr [rip + y.48]
	mov	edx, eax
	neg	edx
	not	edx
	imul	edx, eax
	mov	eax, edx
	xor	eax, -2
	and	eax, edx
	sete	dl
	cmp	ecx, 10
	setl	bl
	xor	bl, dl
	mov	edx, -200274651
	mov	esi, 181479690
	cmovne	edx, esi
	test	eax, eax
	mov	eax, edx
	cmove	eax, esi
	cmp	ecx, 10
	mov	rcx, qword ptr [rsp + 96] 
	mov	qword ptr [rsp + 40], rcx
	mov	rcx, qword ptr [rsp + 104] 
	mov	qword ptr [rsp + 64], rcx
	mov	rcx, qword ptr [rsp + 112] 
	mov	qword ptr [rsp + 56], rcx
	cmovge	eax, edx
	jmp	.LBB14_1
.LBB14_30:                              
	mov	rax, qword ptr [rsp + 48]
	mov	r15d, dword ptr [rax]
	bswap	r15d
	mov	rcx, qword ptr [rsp + 48]
	mov	esi, dword ptr [rcx + 4]
	bswap	esi
	mov	rcx, qword ptr [rsp + 48]
	mov	r11d, dword ptr [rcx + 8]
	bswap	r11d
	mov	dword ptr [rsp + 12], r11d
	mov	rcx, qword ptr [rsp + 48]
	mov	r14d, dword ptr [rcx + 12]
	bswap	r14d
	mov	dword ptr [rsp + 8], r14d
	mov	ebp, esi
	shl	ebp, 4
	shr	esi, 28
	mov	edi, ebp
	not	edi
	mov	ebx, esi
	not	ebx
	mov	edx, r15d
	and	edx, edi
	and	edi, 123197038
	mov	ecx, ebp
	and	ecx, -123197040
	or	ecx, edi
	and	ebx, 123197038
	and	esi, 1
	or	esi, ebx
	xor	esi, ecx
	mov	ecx, r15d
	not	ecx
	and	ebp, ecx
	or	ebp, edx
	mov	edi, ebp
	xor	edi, 252645135
	and	edi, ebp
	mov	edx, edi
	not	edx
	mov	ebp, edx
	and	ebp, 2118872537
	mov	ebx, edi
	and	ebx, -2118872538
	or	ebx, ebp
	and	ecx, 2118872537
	and	r15d, -2118872538
	or	r15d, ecx
	xor	r15d, ebx
	and	edx, -840277886
	and	edi, 840277885
	or	edi, edx
	mov	ecx, esi
	not	ecx
	and	ecx, -840277886
	and	esi, 840277885
	or	esi, ecx
	xor	esi, edi
	mov	ecx, esi
	shr	ecx, 20
	shl	esi, 12
	mov	edx, ecx
	not	edx
	mov	ebp, esi
	not	ebp
	and	edx, -2102528642
	and	ecx, 2689
	or	ecx, edx
	mov	edx, r15d
	and	edx, ebp
	and	ebp, -2102528642
	mov	edi, esi
	and	edi, 2102525952
	or	edi, ebp
	xor	edi, ecx
	mov	ecx, r15d
	not	ecx
	and	esi, ecx
	or	esi, edx
	mov	edx, esi
	not	edx
	or	edx, 65535
	mov	ebp, edi
	not	ebp
	and	ebp, esi
	and	edi, edx
	and	edx, -1323187789
	and	esi, 1323171840
	or	esi, edx
	and	ecx, -1323187789
	and	r15d, 1323187788
	or	r15d, ecx
	xor	r15d, esi
	and	ebp, -65536
	or	ebp, edi
	mov	ecx, ebp
	shr	ecx, 18
	shl	ebp, 14
	mov	edx, ecx
	not	edx
	mov	esi, ebp
	not	esi
	and	edx, 1109239767
	and	ecx, 6184
	or	ecx, edx
	and	esi, 1109239767
	and	ebp, -1109245952
	or	ebp, esi
	xor	ebp, ecx
	mov	esi, ebp
	not	esi
	mov	ecx, r15d
	and	ecx, esi
	mov	edx, r15d
	not	edx
	mov	ebx, ebp
	and	ebx, edx
	or	ebx, ecx
	mov	edi, ebx
	xor	edi, -858993460
	and	edi, ebx
	mov	ecx, edi
	not	ecx
	mov	ebx, ecx
	and	ebx, -530206199
	mov	eax, edi
	and	eax, 530206198
	or	eax, ebx
	and	edx, -530206199
	and	r15d, 530206198
	or	r15d, edx
	xor	r15d, eax
	and	ecx, -207810318
	and	edi, 207810317
	or	edi, ecx
	and	esi, -207810318
	and	ebp, 207810317
	or	ebp, esi
	xor	ebp, edi
	mov	eax, ebp
	shr	eax, 6
	rol	ebp, 26
	mov	dword ptr [rsp], ebp
	mov	ecx, eax
	not	ecx
	and	ecx, -682820230
	and	eax, 11731589
	or	eax, ecx
	mov	ecx, r15d
	not	ecx
	mov	edx, ecx
	and	edx, -682820230
	mov	edi, r15d
	and	edi, 682820229
	or	edi, edx
	xor	edi, eax
	mov	esi, edi
	xor	esi, -16711936
	and	esi, edi
	mov	eax, esi
	not	eax
	mov	edx, eax
	and	edx, 124707054
	mov	edi, esi
	and	edi, -124707055
	or	edi, edx
	and	ecx, 124707054
	and	r15d, -124707055
	or	r15d, ecx
	xor	r15d, edi
	mov	dword ptr [rsp + 4], r15d
	and	eax, 128482449
	and	esi, -128482450
	or	esi, eax
	mov	eax, ebp
	not	eax
	and	eax, 128482449
	and	ebp, -128482450
	or	ebp, eax
	xor	ebp, esi
	mov	eax, dword ptr [rip + x.105]
	mov	r8d, dword ptr [rip + y.106]
	mov	r10d, eax
	neg	r10d
	not	r10d
	imul	r10d, eax
	mov	eax, r10d
	not	eax
	or	eax, -2
	and	r10d, 1
	mov	ecx, ebp
	shl	ecx, 9
	shr	ebp, 23
	mov	edx, ecx
	not	edx
	mov	esi, ebp
	not	esi
	and	edx, 140736436
	and	ecx, -140736512
	or	ecx, edx
	and	esi, 140736436
	and	ebp, 75
	or	ebp, esi
	xor	ebp, ecx
	cmp	eax, r13d
	sete	al
	sete	byte ptr [rsp + 29]
	mov	r9d, 127678515
	mov	edx, -1181345563
	cmove	r9d, edx
	cmp	r8d, 10
	setl	cl
	setl	byte ptr [rsp + 30]
	mov	esi, 127678515
	cmovge	r9d, esi
	xor	cl, al
	cmovne	r9d, edx
	mov	esi, 127001814
	jmp	.LBB14_31
.LBB14_39:                              
	cmp	esi, 127678515
	je	.LBB14_43

	cmp	esi, 127001814
	jne	.LBB14_31

	mov	al, byte ptr [rsp + 29]
	mov	cl, byte ptr [rsp + 30]
	mov	edx, eax
	xor	dl, cl
	mov	edx, 127678515
	mov	edi, -1275833750
	cmovne	edx, edi
	test	cl, cl
	mov	esi, edx
	cmovne	esi, edi
	test	al, al
	cmove	esi, edx
	jmp	.LBB14_31
.LBB14_42:                              
	mov	dword ptr [rsp + 16], ebp
	mov	esi, r9d
	jmp	.LBB14_31
.LBB14_43:                              
	mov	esi, -1275833750
.LBB14_31:                              

	cmp	esi, 127001813
	jg	.LBB14_39

	cmp	esi, -1275833750
	je	.LBB14_42

	cmp	esi, -1181345563
	jne	.LBB14_31

	mov	r12d, dword ptr [rsp + 16]
	mov	esi, r12d
	not	esi
	mov	eax, esi
	and	eax, -399721422
	mov	ecx, r12d
	and	ecx, 399721421
	or	ecx, eax
	mov	eax, r15d
	not	eax
	mov	edx, eax
	and	edx, -399721422
	mov	edi, r15d
	and	edi, 399721421
	or	edi, edx
	xor	edi, ecx
	mov	ebp, edi
	not	ebp
	or	ebp, 1431655765
	mov	ecx, ebp
	and	ecx, 1076404147
	mov	edx, edi
	and	edx, -1434312696
	or	edx, ecx
	and	eax, 1076404147
	and	r15d, -1076404148
	or	r15d, eax
	xor	r15d, edx
	lea	eax, [r15 + r15]
	shr	r15d, 31
	mov	ecx, eax
	not	ecx
	and	ecx, -436229030
	and	eax, 436229028
	or	eax, ecx
	or	r15d, -436229030
	xor	r15d, eax
	and	ebp, -582417998
	and	edi, 581085704
	or	edi, ebp
	and	esi, -582417998
	and	r12d, 582417997
	or	r12d, esi
	xor	r12d, edi
	mov	eax, r14d
	shl	eax, 4
	rol	r14d, 4
	mov	ecx, eax
	not	ecx
	and	ecx, -649138628
	and	eax, 649138624
	or	eax, ecx
	mov	ecx, r11d
	not	ecx
	mov	edx, ecx
	and	edx, -649138628
	mov	esi, r11d
	and	esi, 649138627
	or	esi, edx
	xor	esi, eax
	mov	eax, esi
	not	eax
	or	eax, 252645135
	mov	edx, eax
	and	edx, 814115709
	mov	edi, esi
	and	edi, -1066364800
	or	edi, edx
	and	ecx, 814115709
	and	r11d, -814115710
	or	r11d, ecx
	xor	r11d, edi
	and	eax, -1225560792
	and	esi, 1073778896
	or	esi, eax
	mov	eax, r14d
	not	eax
	and	eax, -1225560792
	and	r14d, 1225560791
	or	r14d, eax
	xor	r14d, esi
	mov	eax, r14d
	shr	eax, 20
	shl	r14d, 12
	mov	ecx, eax
	not	ecx
	mov	edx, r14d
	not	edx
	and	ecx, 401008775
	and	eax, 1912
	or	eax, ecx
	mov	ecx, r11d
	and	ecx, edx
	and	edx, 401008775
	mov	edi, r14d
	and	edi, -401010688
	or	edi, edx
	xor	edi, eax
	mov	esi, r11d
	not	esi
	and	r14d, esi
	or	r14d, ecx
	mov	eax, r14d
	not	eax
	or	eax, 65535
	and	esi, r14d
	and	r11d, eax
	and	esi, -65536
	or	esi, r11d
	and	eax, -699435127
	and	r14d, 699400192
	or	r14d, eax
	mov	eax, edi
	not	eax
	and	eax, -699435127
	and	edi, 699435126
	or	edi, eax
	xor	edi, r14d
	rol	edi, 14
	mov	ebp, edi
	not	ebp
	mov	eax, ebp
	and	eax, -1560786319
	mov	ebx, edi
	and	ebx, 1560786318
	or	ebx, eax
	mov	ecx, esi
	not	ecx
	mov	eax, ecx
	and	eax, -1560786319
	mov	edx, esi
	and	edx, 1560786318
	or	edx, eax
	xor	edx, ebx
	mov	eax, edx
	not	eax
	or	eax, -858993460
	and	edx, 858993459
	and	esi, eax
	and	ecx, edx
	or	ecx, esi
	and	eax, edi
	and	edx, ebp
	or	edx, eax
	mov	ebx, edx
	shr	ebx, 6
	shl	edx, 26
	mov	eax, ebx
	not	eax
	mov	esi, edx
	not	esi
	mov	ebp, eax
	and	ebp, 1593157100
	mov	edi, ebx
	and	edi, 17455635
	or	edi, ebp
	and	esi, 1593157100
	and	edx, -1610612736
	or	edx, esi
	xor	edx, edi
	and	eax, -1631809649
	and	ebx, 21196912
	or	ebx, eax
	mov	eax, ecx
	not	eax
	mov	edi, eax
	and	edi, -1631809649
	mov	esi, ecx
	and	esi, 1631809648
	or	esi, edi
	xor	esi, ebx
	mov	edi, esi
	not	edi
	or	edi, -16711936
	mov	ebp, edi
	and	ebp, 1959595492
	mov	ebx, esi
	and	ebx, 3276827
	or	ebx, ebp
	and	eax, 1959595492
	and	ecx, -1959595493
	or	ecx, eax
	xor	ecx, ebx
	and	edi, 1495763988
	and	esi, 14156011
	or	esi, edi
	mov	edi, edx
	mov	dword ptr [rsp + 8], edx
	not	edx
	and	edx, 1495763988
	and	edi, -1495763989
	or	edi, edx
	xor	edi, esi
	test	r10d, r10d
	mov	dword ptr [rsp + 4], r15d
	mov	dword ptr [rsp], r12d
	sete	byte ptr [rsp + 29]
	mov	dword ptr [rsp + 12], ecx
	cmp	r8d, 10
	setl	byte ptr [rsp + 30]
	mov	eax, edi
	shl	eax, 9
	shr	edi, 23
	mov	edx, eax
	not	edx
	mov	esi, edi
	not	esi
	and	edx, 776795559
	and	eax, -776795648
	or	eax, edx
	and	esi, 776795559
	and	edi, 88
	or	edi, esi
	xor	edi, eax
	mov	eax, 127001814
	jmp	.LBB14_35
.LBB14_44:                              
	cmp	eax, 127678515
	je	.LBB14_48

	cmp	eax, 127001814
	jne	.LBB14_35

	mov	bl, byte ptr [rsp + 29]
	mov	al, byte ptr [rsp + 30]
	mov	edx, ebx
	xor	dl, al
	test	al, al
	mov	eax, 127678515
	mov	ebp, -1275833750
	cmovne	eax, ebp
	test	bl, bl
	mov	esi, 127678515
	cmove	eax, esi
	test	dl, dl
	cmovne	eax, ebp
	jmp	.LBB14_35
.LBB14_47:                              
	mov	dword ptr [rsp + 16], edi
	mov	eax, r9d
	jmp	.LBB14_35
.LBB14_48:                              
	mov	eax, -1275833750
.LBB14_35:                              

	cmp	eax, 127001813
	jg	.LBB14_44

	cmp	eax, -1275833750
	je	.LBB14_47

	cmp	eax, -1181345563
	jne	.LBB14_35

	mov	edx, dword ptr [rsp + 16]
	mov	r8d, edx
	not	r8d
	mov	edi, ecx
	and	edi, r8d
	mov	ebp, ecx
	not	ebp
	mov	eax, edx
	and	eax, ebp
	or	eax, edi
	mov	edi, eax
	not	edi
	or	edi, 1431655765
	mov	ebx, edi
	and	ebx, -231847383
	mov	esi, eax
	and	esi, 142647426
	or	esi, ebx
	and	ebp, -231847383
	and	ecx, 231847382
	or	ecx, ebp
	xor	ecx, esi
	lea	ebp, [rcx + rcx]
	shr	ecx, 31
	mov	esi, ebp
	not	esi
	and	esi, 658792288
	and	ebp, -658792290
	or	ebp, esi
	or	ecx, 658792288
	xor	ecx, ebp
	mov	dword ptr [rsp + 12], ecx
	and	edi, -356177211
	and	eax, 2785322
	or	eax, edi
	and	r8d, -356177211
	and	edx, 356177210
	or	edx, r8d
	xor	edx, eax
	mov	dword ptr [rsp + 8], edx
	mov	rax, qword ptr [rsp + 32]
	mov	r8, qword ptr [rax]
	lea	r14, [rsp + 4]
	mov	rdi, r14
	mov	r15, rsp
	mov	rsi, r15
	lea	rbp, [rsp + 12]
	mov	rdx, rbp
	lea	rbx, [rsp + 8]
	mov	rcx, rbx
	call	_ZN5Botan12_GLOBAL__N_114des_encrypt_x2ERjS1_S1_S1_PKj
	mov	rax, qword ptr [rsp + 32]
	mov	r8, qword ptr [rax]
	sub	r8, -128
	mov	rdi, r15
	mov	rsi, r14
	mov	rdx, rbx
	mov	rcx, rbp
	call	_ZN5Botan12_GLOBAL__N_114des_decrypt_x2ERjS1_S1_S1_PKj
	mov	rax, qword ptr [rsp + 32]
	mov	r8, qword ptr [rax]
	add	r8, 256
	mov	rdi, r14
	mov	rsi, r15
	mov	rdx, rbp
	mov	rcx, rbx
	call	_ZN5Botan12_GLOBAL__N_114des_encrypt_x2ERjS1_S1_S1_PKj
	mov	rdi, r14
	mov	rsi, r15
	call	_ZN5Botan12_GLOBAL__N_16des_FPERjS1_
	mov	rdi, rbp
	mov	rsi, rbx
	call	_ZN5Botan12_GLOBAL__N_16des_FPERjS1_
	mov	esi, dword ptr [rsp]
	mov	edx, dword ptr [rsp + 4]
	mov	ecx, dword ptr [rsp + 8]
	mov	r8d, dword ptr [rsp + 12]
	mov	rdi, qword ptr [rsp + 80]
	call	_ZN5Botan8store_beIjEEvPhT_S2_S2_S2_
	mov	rax, qword ptr [rsp + 48]
	add	rax, 16
	mov	qword ptr [rsp + 88], rax 
	mov	r14, qword ptr [rsp + 80]
	add	r14, 16
	mov	r15, qword ptr [rsp + 72]
	add	r15, -2
	mov	eax, -869180954
	jmp	.LBB14_1
.LBB14_29:                              
	mov	qword ptr [rsp + 72], r15
	mov	qword ptr [rsp + 80], r14
	mov	rax, qword ptr [rsp + 88] 
	mov	qword ptr [rsp + 48], rax
	mov	rax, qword ptr [rsp + 72]
	cmp	rax, 1
	mov	eax, 1879023036
	mov	ecx, -1177328178
	cmova	eax, ecx
	jmp	.LBB14_1
.LBB14_50:                              
	cmp	qword ptr [rsp + 40], 0
	setne	byte ptr [rsp + 31]
	mov	eax, dword ptr [rip + x.47]
	mov	ecx, eax
	neg	ecx
	not	ecx
	imul	ecx, eax
	mov	eax, ecx
	xor	eax, -2
	and	eax, ecx
	sete	cl
	test	eax, eax
	mov	eax, -200274651
	mov	esi, -1455800113
	cmove	eax, esi
	cmp	dword ptr [rip + y.48], 10
	setl	dl
	mov	edi, -200274651
	jmp	.LBB14_51
.LBB14_54:                              
	mov	rax, qword ptr [rsp + 56]
	mov	edx, dword ptr [rax]
	bswap	edx
	mov	rax, qword ptr [rsp + 56]
	mov	eax, dword ptr [rax + 4]
	bswap	eax
	mov	esi, eax
	shl	esi, 4
	rol	eax, 4
	mov	edi, esi
	not	edi
	and	edi, edx
	mov	ebx, edx
	not	ebx
	and	esi, ebx
	or	esi, edi
	mov	edi, esi
	xor	edi, 252645135
	and	edi, esi
	mov	esi, edi
	not	esi
	and	edx, esi
	and	ebx, edi
	or	ebx, edx
	and	esi, eax
	not	eax
	and	eax, edi
	or	eax, esi
	mov	edx, eax
	shr	edx, 20
	shl	eax, 12
	mov	esi, edx
	not	esi
	mov	edi, eax
	not	edi
	and	esi, 552585976
	and	edx, 1287
	or	edx, esi
	mov	ebp, edi
	and	ebp, 552585976
	mov	esi, eax
	and	esi, -552587264
	or	esi, ebp
	xor	esi, edx
	and	edi, -432577835
	and	eax, 432574464
	or	eax, edi
	mov	edi, ebx
	not	edi
	mov	edx, edi
	and	edx, -432577835
	mov	ecx, ebx
	and	ecx, 432577834
	or	ecx, edx
	xor	ecx, eax
	mov	eax, ecx
	not	eax
	or	eax, 65535
	mov	edx, esi
	not	edx
	and	edx, ecx
	and	esi, eax
	and	eax, -1588089282
	and	ecx, 1588068352
	or	ecx, eax
	and	edi, -1588089282
	and	ebx, 1588089281
	or	ebx, edi
	xor	ebx, ecx
	and	edx, -65536
	or	edx, esi
	mov	eax, edx
	shr	eax, 18
	shl	edx, 14
	mov	ecx, eax
	not	ecx
	mov	esi, edx
	not	esi
	and	ecx, -1854192025
	and	eax, 14744
	or	eax, ecx
	and	esi, -1854192025
	and	edx, 1854177280
	or	edx, esi
	xor	edx, eax
	mov	ecx, edx
	not	ecx
	mov	edi, ebx
	and	edi, ecx
	mov	esi, ebx
	not	esi
	mov	eax, edx
	and	eax, esi
	or	eax, edi
	mov	edi, eax
	not	edi
	or	edi, -858993460
	and	eax, 858993459
	and	ebx, edi
	and	esi, eax
	or	esi, ebx
	and	edi, edx
	and	eax, ecx
	or	eax, edi
	mov	ecx, eax
	shr	ecx, 6
	shl	eax, 26
	mov	edx, ecx
	not	edx
	mov	edi, eax
	not	edi
	mov	ebp, esi
	and	ebp, edx
	and	edx, 1205946804
	mov	ebx, ecx
	and	ebx, 2012747
	or	ebx, edx
	and	edi, 1205946804
	and	eax, -1207959552
	or	eax, edi
	xor	eax, ebx
	mov	dword ptr [rsp + 8], eax
	mov	r12d, esi
	not	r12d
	and	ecx, r12d
	or	ecx, ebp
	mov	edx, ecx
	xor	edx, -16711936
	and	edx, ecx
	mov	ecx, edx
	not	ecx
	and	esi, ecx
	and	r12d, edx
	or	r12d, esi
	mov	dword ptr [rsp + 12], r12d
	and	ecx, -1223847972
	and	edx, 1223847971
	or	edx, ecx
	mov	ecx, eax
	not	ecx
	and	ecx, -1223847972
	and	eax, 1223847971
	or	eax, ecx
	xor	eax, edx
	mov	ecx, dword ptr [rip + x.105]
	mov	edx, dword ptr [rip + y.106]
	mov	esi, ecx
	neg	esi
	not	esi
	imul	esi, ecx
	mov	ecx, esi
	xor	ecx, -2
	and	ecx, esi
	sete	bl
	sete	byte ptr [rsp]
	rol	eax, 9
	test	ecx, ecx
	mov	ecx, 127678515
	mov	esi, -1181345563
	cmove	ecx, esi
	cmp	edx, 10
	setl	dl
	setl	byte ptr [rsp + 4]
	mov	edi, 127678515
	cmovge	ecx, edi
	xor	dl, bl
	cmovne	ecx, esi
	mov	edx, 127001814
	jmp	.LBB14_55
.LBB14_64:                              
	cmp	edx, 127678515
	je	.LBB14_68

	cmp	edx, 127001814
	jne	.LBB14_55

	mov	sil, byte ptr [rsp]
	mov	dl, byte ptr [rsp + 4]
	mov	ebx, esi
	xor	bl, dl
	test	dl, dl
	mov	edx, 127678515
	mov	edi, -1275833750
	cmovne	edx, edi
	test	sil, sil
	mov	esi, 127678515
	cmove	edx, esi
	test	bl, bl
	cmovne	edx, edi
	jmp	.LBB14_55
.LBB14_67:                              
	mov	dword ptr [rsp + 16], eax
	mov	edx, ecx
	jmp	.LBB14_55
.LBB14_68:                              
	mov	edx, -1275833750
.LBB14_55:                              

	cmp	edx, 127001813
	jg	.LBB14_64

	cmp	edx, -1275833750
	je	.LBB14_67

	cmp	edx, -1181345563
	jne	.LBB14_55

	mov	eax, dword ptr [rsp + 16]
	mov	ecx, eax
	not	ecx
	mov	esi, r12d
	and	esi, ecx
	mov	edi, r12d
	not	edi
	mov	ebx, eax
	and	ebx, edi
	or	ebx, esi
	mov	ebp, ebx
	not	ebp
	or	ebp, 1431655765
	mov	esi, ebp
	and	esi, -543031597
	mov	edx, ebx
	and	edx, 537526312
	or	edx, esi
	and	edi, -543031597
	and	r12d, 543031596
	or	r12d, edi
	xor	r12d, edx
	lea	edx, [r12 + r12]
	shr	r12d, 31
	mov	esi, edx
	not	esi
	not	r12d
	and	esi, -1017925803
	and	edx, 1017925802
	or	edx, esi
	and	r12d, -1017925803
	xor	r12d, edx
	mov	dword ptr [rsp + 12], r12d
	and	ebp, -2146052682
	and	ebx, 715794952
	or	ebx, ebp
	and	ecx, -2146052682
	and	eax, 2146052681
	or	eax, ecx
	xor	eax, ebx
	mov	dword ptr [rsp + 8], eax
	mov	rcx, qword ptr [rsp + 32]
	mov	rbx, qword ptr [rcx]
	xor	ecx, ecx
.LBB14_59:                              


	mov	edx, 377414099
	jmp	.LBB14_60
.LBB14_62:                              
	cmp	edx, 377414099
	jne	.LBB14_60

	mov	qword ptr [rsp + 16], rcx
	mov	dword ptr [rsp], eax
	mov	dword ptr [rsp + 4], r12d
	mov	rdx, qword ptr [rsp + 16]
	cmp	rdx, 16
	mov	edx, -1108240195
	mov	esi, -2055170464
	cmove	edx, esi
.LBB14_60:                              


	cmp	edx, -2055170464
	je	.LBB14_70

	cmp	edx, -1108240195
	jne	.LBB14_62

	mov	eax, dword ptr [rsp]
	rol	eax, 28
	mov	rbp, qword ptr [rsp + 16]
	mov	ecx, eax
	not	ecx
	mov	edi, dword ptr [rbx + 8*rbp]
	mov	esi, dword ptr [rbx + 8*rbp + 4]
	and	ecx, edi
	not	edi
	and	edi, eax
	or	edi, ecx
	mov	eax, dword ptr [rsp]
	mov	ecx, eax
	not	ecx
	and	ecx, esi
	not	esi
	and	esi, eax
	or	esi, ecx
	call	_ZN5Botan12_GLOBAL__N_15spboxEjj
	mov	r12d, eax
	mov	eax, dword ptr [rsp + 4]
	mov	ecx, eax
	not	ecx
	and	ecx, 1780838366
	and	eax, -1780838367
	or	eax, ecx
	mov	ecx, r12d
	not	ecx
	and	ecx, 1780838366
	and	r12d, -1780838367
	or	r12d, ecx
	xor	r12d, eax
	mov	eax, r12d
	rol	eax, 28
	mov	ecx, eax
	not	ecx
	and	ecx, 1720167142
	and	eax, -1720167143
	lea	eax, [rax + rcx]
	mov	edi, dword ptr [rbx + 8*rbp + 8]
	mov	esi, dword ptr [rbx + 8*rbp + 12]
	mov	ecx, edi
	not	ecx
	and	ecx, 1720167142
	and	edi, -1720167143
	or	edi, ecx
	xor	edi, eax
	mov	eax, esi
	not	eax
	and	eax, -737756006
	and	esi, 737756005
	or	esi, eax
	mov	eax, r12d
	not	eax
	and	eax, -737756006
	mov	ecx, r12d
	and	ecx, 737756005
	or	ecx, eax
	xor	esi, ecx
	call	_ZN5Botan12_GLOBAL__N_15spboxEjj
	mov	ecx, dword ptr [rsp]
	mov	edx, ecx
	not	edx
	and	edx, eax
	not	eax
	and	eax, ecx
	or	eax, edx
	mov	rcx, qword ptr [rsp + 16]
	movabs	rdx, -2742174421051232165
	lea	rcx, [rcx + rdx + 2]
	sub	rcx, rdx
	jmp	.LBB14_59
.LBB14_110:                             
	mov	eax, dword ptr [rsp + 4]
	mov	dword ptr [rsp + 12], eax
	mov	eax, dword ptr [rsp]
	mov	dword ptr [rsp + 8], eax
	lea	rdi, [rsp + 12]
	lea	rsi, [rsp + 8]
	call	_ZN5Botan12_GLOBAL__N_16des_FPERjS1_
	mov	edx, dword ptr [rsp + 8]
	mov	r8d, dword ptr [rsp + 12]
	mov	r9, qword ptr [rsp + 64]
	mov	esi, dword ptr [rip + x.123]
	mov	edi, dword ptr [rip + y.124]
	lea	ebp, [rsi - 1]
	imul	ebp, esi
	mov	esi, ebp
	xor	esi, -2
	test	esi, ebp
	sete	byte ptr [rsp + 4]
	cmp	edi, 10
	setl	byte ptr [rsp + 16]
	bswap	edx
	mov	esi, -1594289886
	jmp	.LBB14_111
.LBB14_70:                              
	mov	eax, dword ptr [rsp + 4]
	mov	dword ptr [rsp + 12], eax
	mov	eax, dword ptr [rsp]
	mov	dword ptr [rsp + 8], eax
	mov	rax, qword ptr [rsp + 32]
	mov	rdx, qword ptr [rax]
	sub	rdx, -128
	lea	rdi, [rsp + 8]
	lea	rsi, [rsp + 12]
	call	_ZN5Botan12_GLOBAL__N_111des_decryptERjS1_PKj
	mov	rax, qword ptr [rsp + 32]
	mov	r12, qword ptr [rax]
	mov	ebx, dword ptr [rsp + 12]
	mov	eax, dword ptr [rsp + 8]
	xor	ecx, ecx
.LBB14_71:                              


	mov	edx, 377414099
	jmp	.LBB14_72
.LBB14_74:                              
	cmp	edx, 377414099
	jne	.LBB14_72

	mov	qword ptr [rsp + 16], rcx
	mov	dword ptr [rsp], eax
	mov	dword ptr [rsp + 4], ebx
	mov	rdx, qword ptr [rsp + 16]
	cmp	rdx, 16
	mov	edx, -1108240195
	mov	esi, -2055170464
	cmove	edx, esi
.LBB14_72:                              


	cmp	edx, -2055170464
	je	.LBB14_77

	cmp	edx, -1108240195
	jne	.LBB14_74

	mov	ecx, dword ptr [rsp]
	rol	ecx, 28
	mov	rbp, qword ptr [rsp + 16]
	lea	rax, [rbp + rbp]
	mov	edi, dword ptr [r12 + 8*rbp + 256]
	mov	edx, ecx
	not	edx
	and	edx, -1959599654
	and	ecx, 1959599653
	or	ecx, edx
	mov	edx, edi
	not	edx
	and	edx, -1959599654
	and	edi, 1959599653
	or	edi, edx
	xor	edi, ecx
	mov	rcx, rax
	not	rcx
	movabs	rdx, -1774515365743688260
	mov	rsi, rdx
	not	rdx
	and	rcx, rsi
	and	rax, rdx
	or	rax, rcx
	mov	rcx, rsi
	movabs	rsi, 4611686018427387902
	and	rcx, rsi
	and	edx, 1
	or	rdx, rcx
	xor	rdx, rax
	mov	esi, dword ptr [r12 + 4*rdx + 256]
	mov	eax, dword ptr [rsp]
	mov	ecx, eax
	not	ecx
	and	ecx, esi
	not	esi
	and	esi, eax
	or	esi, ecx
	call	_ZN5Botan12_GLOBAL__N_15spboxEjj
	mov	ebx, eax
	mov	eax, dword ptr [rsp + 4]
	mov	ecx, eax
	not	ecx
	and	ecx, -1992652089
	and	eax, 1992652088
	or	eax, ecx
	mov	ecx, ebx
	not	ecx
	and	ecx, -1992652089
	and	ebx, 1992652088
	or	ebx, ecx
	xor	ebx, eax
	mov	eax, ebx
	rol	eax, 28
	movabs	rcx, 7573991777590596350
	mov	rdx, rcx
	lea	rcx, [rdx + 2*rbp + 2]
	sub	rcx, rdx
	mov	edi, dword ptr [r12 + 4*rcx + 256]
	mov	ecx, eax
	not	ecx
	and	ecx, -892763133
	and	eax, 892763132
	lea	eax, [rax + rcx]
	mov	ecx, edi
	not	ecx
	and	ecx, -892763133
	and	edi, 892763132
	or	edi, ecx
	xor	edi, eax
	shl	rbp, 3
	mov	rax, -12
	sub	rax, rbp
	neg	rax
	mov	esi, dword ptr [r12 + rax + 256]
	mov	eax, esi
	not	eax
	and	eax, 1396271005
	and	esi, -1396271006
	or	esi, eax
	mov	eax, ebx
	not	eax
	and	eax, 1396271005
	mov	ecx, ebx
	and	ecx, -1396271006
	or	ecx, eax
	xor	esi, ecx
	call	_ZN5Botan12_GLOBAL__N_15spboxEjj
	mov	ecx, dword ptr [rsp]
	mov	edx, ecx
	not	edx
	and	edx, -1636172276
	and	ecx, 1636172275
	or	ecx, edx
	mov	edx, eax
	not	edx
	and	edx, -1636172276
	and	eax, 1636172275
	or	eax, edx
	xor	eax, ecx
	mov	rcx, qword ptr [rsp + 16]
	movabs	rdx, 5357696969698494305
	lea	rcx, [rcx + rdx + 2]
	sub	rcx, rdx
	jmp	.LBB14_71
.LBB14_123:                             
	mov	dword ptr [r9], edx
	mov	esi, -616711071
	jmp	.LBB14_111
.LBB14_122:                             
	mov	dword ptr [r9], edx
	mov	eax, dword ptr [rip + x.123]
	mov	ecx, dword ptr [rip + y.124]
	mov	esi, eax
	neg	esi
	not	esi
	imul	esi, eax
	not	esi
	or	esi, -2
	mov	edi, -1
	cmp	esi, edi
	sete	al
	cmp	ecx, 10
	setl	bl
	xor	bl, al
	mov	eax, -1703216472
	mov	ebp, 1506076261
	cmovne	eax, ebp
	mov	r13d, -1
	cmp	esi, edi
	mov	esi, eax
	cmove	esi, ebp
	cmp	ecx, 10
	cmovge	esi, eax
.LBB14_111:                             

	cmp	esi, -616711072
	jg	.LBB14_115

	cmp	esi, -1703216472
	je	.LBB14_123

	cmp	esi, -1594289886
	jne	.LBB14_111

	mov	cl, byte ptr [rsp + 4]
	mov	al, byte ptr [rsp + 16]
	mov	ebx, ecx
	xor	bl, al
	mov	edi, -1703216472
	mov	ebp, -616711071
	cmovne	edi, ebp
	test	al, al
	mov	esi, edi
	cmovne	esi, ebp
	test	cl, cl
	cmove	esi, edi
	jmp	.LBB14_111
.LBB14_115:                             
	cmp	esi, -616711071
	je	.LBB14_122

	cmp	esi, 1506076261
	jne	.LBB14_111

	mov	eax, dword ptr [rip + x.123]
	mov	ecx, dword ptr [rip + y.124]
	lea	edx, [rax - 1]
	imul	edx, eax
	not	edx
	or	edx, -2
	cmp	edx, r13d
	sete	byte ptr [rsp + 4]
	sete	al
	mov	edx, -1703216472
	mov	edi, 1506076261
	cmove	edx, edi
	cmp	ecx, 10
	setl	cl
	setl	byte ptr [rsp + 16]
	bswap	r8d
	mov	esi, -1703216472
	cmovge	edx, esi
	xor	cl, al
	cmovne	edx, edi
	mov	esi, -1594289886
	jmp	.LBB14_118
.LBB14_77:                              
	mov	eax, dword ptr [rsp + 4]
	mov	dword ptr [rsp + 12], eax
	mov	eax, dword ptr [rsp]
	mov	dword ptr [rsp + 8], eax
	lea	rdi, [rsp + 12]
	lea	rsi, [rsp + 8]
	call	_ZN5Botan12_GLOBAL__N_16des_FPERjS1_
	mov	edx, dword ptr [rsp + 8]
	mov	r8d, dword ptr [rsp + 12]
	mov	r9, qword ptr [rsp + 64]
	mov	esi, dword ptr [rip + x.123]
	mov	edi, dword ptr [rip + y.124]
	lea	ebp, [rsi - 1]
	imul	ebp, esi
	not	ebp
	or	ebp, -2
	cmp	ebp, r13d
	sete	byte ptr [rsp + 4]
	cmp	edi, 10
	setl	byte ptr [rsp + 16]
	bswap	edx
	mov	esi, -1594289886
	jmp	.LBB14_78
.LBB14_128:                             
	mov	dword ptr [r9 + 4], r8d
	mov	esi, -616711071
	jmp	.LBB14_118
.LBB14_127:                             
	mov	dword ptr [r9 + 4], r8d
	mov	esi, edx
.LBB14_118:                             

	cmp	esi, -616711072
	jg	.LBB14_124

	cmp	esi, -1703216472
	je	.LBB14_128

	cmp	esi, -1594289886
	jne	.LBB14_118

	mov	bl, byte ptr [rsp + 4]
	mov	cl, byte ptr [rsp + 16]
	mov	eax, ebx
	xor	al, cl
	test	cl, cl
	mov	esi, -1703216472
	mov	ecx, -616711071
	cmovne	esi, ecx
	test	bl, bl
	mov	edi, -1703216472
	cmove	esi, edi
	test	al, al
	cmovne	esi, ecx
	jmp	.LBB14_118
.LBB14_124:                             
	cmp	esi, -616711071
	je	.LBB14_127

	cmp	esi, 1506076261
	jne	.LBB14_118

	mov	rax, qword ptr [rsp + 56]
	mov	rax, qword ptr [rsp + 64]
	mov	rax, qword ptr [rsp + 40]
	mov	rax, qword ptr [rsp + 40]
	mov	rax, qword ptr [rsp + 40]
	mov	rax, qword ptr [rsp + 40]
	mov	rax, qword ptr [rsp + 40]
	mov	rax, qword ptr [rsp + 40]
	mov	rax, qword ptr [rsp + 40]
	mov	eax, 1087231820
	jmp	.LBB14_1
.LBB14_90:                              
	mov	dword ptr [r9], edx
	mov	esi, -616711071
	jmp	.LBB14_78
.LBB14_89:                              
	mov	dword ptr [r9], edx
	mov	eax, dword ptr [rip + x.123]
	mov	ecx, eax
	neg	ecx
	not	ecx
	imul	ecx, eax
	mov	eax, ecx
	xor	eax, -2
	and	eax, ecx
	sete	cl
	test	eax, eax
	mov	esi, -1703216472
	mov	ebp, 1506076261
	cmove	esi, ebp
	cmp	dword ptr [rip + y.124], 10
	setl	al
	mov	edi, -1703216472
	cmovge	esi, edi
	xor	al, cl
	cmovne	esi, ebp
.LBB14_78:                              

	cmp	esi, -616711072
	jg	.LBB14_82

	cmp	esi, -1703216472
	je	.LBB14_90

	cmp	esi, -1594289886
	jne	.LBB14_78

	mov	cl, byte ptr [rsp + 4]
	mov	al, byte ptr [rsp + 16]
	mov	ebx, ecx
	xor	bl, al
	mov	edi, -1703216472
	mov	ebp, -616711071
	cmovne	edi, ebp
	test	al, al
	mov	esi, edi
	cmovne	esi, ebp
	test	cl, cl
	cmove	esi, edi
	jmp	.LBB14_78
.LBB14_82:                              
	cmp	esi, -616711071
	je	.LBB14_89

	cmp	esi, 1506076261
	jne	.LBB14_78

	mov	eax, dword ptr [rip + x.123]
	mov	ecx, dword ptr [rip + y.124]
	lea	edx, [rax - 1]
	imul	edx, eax
	not	edx
	or	edx, -2
	cmp	edx, r13d
	sete	byte ptr [rsp + 4]
	sete	al
	mov	edx, -1703216472
	mov	edi, 1506076261
	cmove	edx, edi
	cmp	ecx, 10
	setl	cl
	setl	byte ptr [rsp + 16]
	bswap	r8d
	mov	esi, -1703216472
	cmovge	edx, esi
	xor	cl, al
	cmovne	edx, edi
	mov	esi, -1594289886
	jmp	.LBB14_85
.LBB14_95:                              
	mov	dword ptr [r9 + 4], r8d
	mov	esi, -616711071
	jmp	.LBB14_85
.LBB14_94:                              
	mov	dword ptr [r9 + 4], r8d
	mov	esi, edx
.LBB14_85:                              

	cmp	esi, -616711072
	jg	.LBB14_91

	cmp	esi, -1703216472
	je	.LBB14_95

	cmp	esi, -1594289886
	jne	.LBB14_85

	mov	bl, byte ptr [rsp + 4]
	mov	cl, byte ptr [rsp + 16]
	mov	eax, ebx
	xor	al, cl
	test	cl, cl
	mov	esi, -1703216472
	mov	ecx, -616711071
	cmovne	esi, ecx
	test	bl, bl
	mov	edi, -1703216472
	cmove	esi, edi
	test	al, al
	cmovne	esi, ecx
	jmp	.LBB14_85
.LBB14_91:                              
	cmp	esi, -616711071
	je	.LBB14_94

	cmp	esi, 1506076261
	jne	.LBB14_85

	mov	rax, qword ptr [rsp + 56]
	add	rax, 8
	mov	qword ptr [rsp + 128], rax
	mov	rax, qword ptr [rsp + 64]
	add	rax, 8
	mov	qword ptr [rsp + 136], rax
	mov	rax, qword ptr [rsp + 40]
	xor	ecx, ecx
	sub	rcx, rax
	not	rcx
	mov	qword ptr [rsp + 144], rcx
	mov	eax, dword ptr [rip + x.47]
	lea	ecx, [rax - 1]
	imul	ecx, eax
	mov	eax, ecx
	xor	eax, -2
	and	eax, ecx
	sete	cl
	test	eax, eax
	mov	eax, -1380521401
	mov	esi, -1510770762
	cmove	eax, esi
	cmp	dword ptr [rip + y.48], 10
	setl	dl
	mov	edi, -1380521401
.LBB14_51:                              
	cmovge	eax, edi
	xor	dl, cl
	cmovne	eax, esi
.LBB14_1:                               
















	cmp	eax, 181479689
	jg	.LBB14_20

	cmp	eax, -1177328179
	jg	.LBB14_16

	cmp	eax, -1510770762
	je	.LBB14_96

	cmp	eax, -1455800113
	je	.LBB14_52

	cmp	eax, -1380521401
	jne	.LBB14_1

	mov	rax, qword ptr [rsp + 56]
	mov	r8d, dword ptr [rax]
	bswap	r8d
	mov	rax, qword ptr [rsp + 56]
	mov	eax, dword ptr [rax + 4]
	bswap	eax
	mov	ebx, eax
	shl	ebx, 4
	shr	eax, 28
	mov	edx, ebx
	not	edx
	mov	edi, eax
	not	edi
	mov	ebp, edx
	and	ebp, 1754600344
	mov	esi, ebx
	and	esi, -1754600352
	or	esi, ebp
	and	edi, 1754600344
	and	eax, 7
	or	eax, edi
	xor	eax, esi
	and	edx, 603743771
	and	ebx, -603743776
	or	ebx, edx
	mov	edx, r8d
	not	edx
	mov	esi, edx
	and	esi, 603743771
	mov	edi, r8d
	and	edi, -603743772
	or	edi, esi
	xor	edi, ebx
	mov	esi, edi
	xor	esi, 252645135
	and	esi, edi
	mov	edi, eax
	mov	ebp, esi
	not	eax
	and	eax, esi
	not	esi
	and	edi, esi
	and	esi, 1676394072
	and	ebp, -1676394073
	or	ebp, esi
	and	edx, 1676394072
	and	r8d, -1676394073
	or	r8d, edx
	xor	r8d, ebp
	or	eax, edi
	mov	edx, eax
	shl	edx, 12
	rol	eax, 12
	mov	esi, edx
	not	esi
	and	esi, 1645402742
	and	edx, -1645404160
	or	edx, esi
	mov	esi, r8d
	not	esi
	mov	edi, esi
	and	edi, 1645402742
	mov	ecx, r8d
	and	ecx, -1645402743
	or	ecx, edi
	xor	ecx, edx
	mov	edx, ecx
	xor	edx, 65535
	and	edx, ecx
	mov	ecx, edx
	not	ecx
	mov	edi, ecx
	and	edi, 1809629999
	mov	ebp, edx
	and	ebp, -1809630000
	or	ebp, edi
	and	esi, 1809629999
	and	r8d, -1809630000
	or	r8d, esi
	xor	r8d, ebp
	and	ecx, -1220013916
	and	edx, 1220013915
	or	edx, ecx
	mov	ecx, eax
	not	ecx
	and	ecx, -1220013916
	and	eax, 1220013915
	or	eax, ecx
	xor	eax, edx
	mov	ecx, eax
	shr	ecx, 18
	shl	eax, 14
	mov	edx, ecx
	not	edx
	mov	esi, eax
	not	esi
	and	edx, -1258805366
	and	ecx, 6261
	or	ecx, edx
	and	esi, -1258805366
	and	eax, 1258799104
	or	eax, esi
	xor	eax, ecx
	mov	edx, eax
	not	edx
	mov	ecx, edx
	and	ecx, -389255828
	mov	esi, eax
	and	esi, 389255827
	or	esi, ecx
	mov	ecx, r8d
	not	ecx
	mov	edi, ecx
	and	edi, -389255828
	mov	ebp, r8d
	and	ebp, 389255827
	or	ebp, edi
	xor	ebp, esi
	mov	esi, ebp
	xor	esi, -858993460
	and	esi, ebp
	mov	edi, esi
	not	edi
	mov	ebp, edi
	and	ebp, -284934027
	mov	ebx, esi
	and	ebx, 284934026
	or	ebx, ebp
	and	ecx, -284934027
	and	r8d, 284934026
	or	r8d, ecx
	xor	r8d, ebx
	and	edi, 649695346
	and	esi, -649695347
	or	esi, edi
	and	edx, 649695346
	and	eax, -649695347
	or	eax, edx
	xor	eax, esi
	mov	ebp, eax
	shr	ebp, 6
	shl	eax, 26
	mov	ecx, ebp
	not	ecx
	mov	esi, eax
	not	esi
	mov	edi, ecx
	and	edi, 1973451166
	mov	edx, ebp
	and	edx, 39814753
	or	edx, edi
	and	esi, 1973451166
	and	eax, -2013265920
	or	eax, esi
	xor	eax, edx
	mov	dword ptr [rsp + 8], eax
	and	ecx, -36488530
	and	ebp, 36488529
	or	ebp, ecx
	mov	ecx, r8d
	not	ecx
	mov	edx, ecx
	and	edx, -36488530
	mov	edi, r8d
	and	edi, 36488529
	or	edi, edx
	xor	edi, ebp
	mov	ebp, edi
	xor	ebp, -16711936
	and	ebp, edi
	mov	edi, ebp
	not	edi
	mov	edx, edi
	and	edx, 2991161
	mov	esi, ebp
	and	esi, -2991162
	or	esi, edx
	and	ecx, 2991161
	and	r8d, -2991162
	or	r8d, ecx
	xor	r8d, esi
	mov	dword ptr [rsp + 12], r8d
	mov	ecx, dword ptr [rip + x.105]
	mov	esi, dword ptr [rip + y.106]
	lea	edx, [rcx - 1]
	imul	edx, ecx
	mov	ecx, edx
	xor	ecx, -2
	and	ecx, edx
	sete	dl
	sete	byte ptr [rsp]
	cmp	esi, 10
	setl	bl
	xor	bl, dl
	mov	edx, 127678515
	mov	ebx, -1181345563
	cmovne	edx, ebx
	test	ecx, ecx
	mov	r9d, edx
	cmove	r9d, ebx
	cmp	esi, 10
	mov	esi, eax
	not	esi
	setl	byte ptr [rsp + 4]
	cmovge	r9d, edx
	and	edi, 1878631255
	and	ebp, -1878631256
	or	ebp, edi
	and	esi, 1878631255
	and	eax, -1878631256
	or	eax, esi
	xor	eax, ebp
	rol	eax, 9
	mov	esi, 127001814
	jmp	.LBB14_7
.LBB14_97:                              
	cmp	esi, 127678515
	je	.LBB14_101

	cmp	esi, 127001814
	jne	.LBB14_7

	mov	cl, byte ptr [rsp]
	mov	bl, byte ptr [rsp + 4]
	mov	edx, ecx
	xor	dl, bl
	mov	edx, 127678515
	mov	edi, -1275833750
	cmovne	edx, edi
	test	bl, bl
	mov	esi, edx
	cmovne	esi, edi
	test	cl, cl
	cmove	esi, edx
	jmp	.LBB14_7
.LBB14_100:                             
	mov	dword ptr [rsp + 16], eax
	mov	esi, r9d
	jmp	.LBB14_7
.LBB14_101:                             
	mov	esi, -1275833750
.LBB14_7:                               

	cmp	esi, 127001813
	jg	.LBB14_97

	cmp	esi, -1275833750
	je	.LBB14_100

	cmp	esi, -1181345563
	jne	.LBB14_7

	mov	eax, dword ptr [rsp + 16]
	mov	edx, eax
	not	edx
	mov	ecx, r8d
	and	ecx, edx
	mov	ebx, r8d
	not	ebx
	mov	esi, eax
	and	esi, ebx
	or	esi, ecx
	mov	ecx, esi
	not	ecx
	or	ecx, 1431655765
	and	ebx, esi
	and	r8d, ecx
	and	ebx, -1431655766
	or	ebx, r8d
	rol	ebx
	mov	dword ptr [rsp + 12], ebx
	and	ecx, 1076795071
	and	esi, -1434441728
	or	esi, ecx
	and	edx, 1076795071
	and	eax, -1076795072
	or	eax, edx
	xor	eax, esi
	mov	dword ptr [rsp + 8], eax
	mov	rcx, qword ptr [rsp + 32]
	mov	rbp, qword ptr [rcx]
	xor	ecx, ecx
.LBB14_11:                              


	mov	edx, 377414099
	jmp	.LBB14_12
.LBB14_14:                              
	cmp	edx, 377414099
	jne	.LBB14_12

	mov	qword ptr [rsp + 16], rcx
	mov	dword ptr [rsp], eax
	mov	dword ptr [rsp + 4], ebx
	mov	rdx, qword ptr [rsp + 16]
	cmp	rdx, 16
	mov	edx, -1108240195
	mov	esi, -2055170464
	cmove	edx, esi
.LBB14_12:                              


	cmp	edx, -2055170464
	je	.LBB14_103

	cmp	edx, -1108240195
	jne	.LBB14_14

	mov	eax, dword ptr [rsp]
	rol	eax, 28
	mov	rcx, qword ptr [rsp + 16]
	mov	edi, dword ptr [rbp + 8*rcx]
	lea	rdx, [rcx + rcx]
	lea	r12, [8*rcx]
	mov	ecx, eax
	not	ecx
	and	ecx, edi
	not	edi
	and	edi, eax
	or	edi, ecx
	mov	rax, rdx
	not	rax
	movabs	rcx, 7087800168030114108
	mov	rsi, rcx
	not	rcx
	and	rax, rsi
	and	rdx, rcx
	or	rdx, rax
	mov	rax, rsi
	movabs	rsi, 4611686018427387902
	and	rax, rsi
	and	ecx, 1
	or	rcx, rax
	xor	rcx, rdx
	mov	esi, dword ptr [rbp + 4*rcx]
	mov	eax, dword ptr [rsp]
	mov	ecx, eax
	not	ecx
	and	ecx, -889026051
	and	eax, 889026050
	or	eax, ecx
	mov	ecx, esi
	not	ecx
	and	ecx, -889026051
	and	esi, 889026050
	or	esi, ecx
	xor	esi, eax
	call	_ZN5Botan12_GLOBAL__N_15spboxEjj
	mov	ebx, eax
	mov	eax, dword ptr [rsp + 4]
	mov	ecx, eax
	not	ecx
	and	ecx, -673077893
	and	eax, 673077892
	or	eax, ecx
	mov	ecx, ebx
	not	ecx
	and	ecx, -673077893
	and	ebx, 673077892
	or	ebx, ecx
	xor	ebx, eax
	mov	ecx, ebx
	shr	ecx, 4
	mov	eax, ebx
	shl	eax, 28
	mov	edx, ecx
	not	edx
	mov	esi, eax
	not	esi
	and	edx, 1969691820
	and	ecx, 177791827
	or	ecx, edx
	and	esi, 1969691820
	and	eax, -2147483648
	or	eax, esi
	xor	eax, ecx
	mov	rcx, -8
	sub	rcx, r12
	neg	rcx
	mov	edi, dword ptr [rbp + rcx]
	mov	ecx, eax
	not	ecx
	and	ecx, 2008532744
	and	eax, -2008532745
	lea	eax, [rax + rcx]
	mov	ecx, edi
	not	ecx
	and	ecx, 2008532744
	and	edi, -2008532745
	or	edi, ecx
	xor	edi, eax
	mov	rax, -12
	sub	rax, r12
	neg	rax
	mov	esi, dword ptr [rbp + rax]
	mov	eax, esi
	not	eax
	and	eax, 1541781229
	and	esi, -1541781230
	or	esi, eax
	mov	eax, ebx
	not	eax
	and	eax, 1541781229
	mov	ecx, ebx
	and	ecx, -1541781230
	or	ecx, eax
	xor	esi, ecx
	call	_ZN5Botan12_GLOBAL__N_15spboxEjj
	mov	ecx, dword ptr [rsp]
	mov	edx, ecx
	not	edx
	and	edx, 643816374
	and	ecx, -643816375
	or	ecx, edx
	mov	edx, eax
	not	edx
	and	edx, 643816374
	and	eax, -643816375
	or	eax, edx
	xor	eax, ecx
	mov	rcx, qword ptr [rsp + 16]
	add	rcx, 2
	jmp	.LBB14_11
.LBB14_20:                              
	cmp	eax, 1736191085
	jle	.LBB14_21

	cmp	eax, 1736191086
	je	.LBB14_53

	cmp	eax, 1849163759
	je	.LBB14_49

	cmp	eax, 1879023036
	jne	.LBB14_1

	mov	rax, qword ptr [rsp + 48]
	mov	qword ptr [rsp + 112], rax 
	mov	rax, qword ptr [rsp + 80]
	mov	qword ptr [rsp + 104], rax 
	mov	eax, 1849163759
	mov	rcx, qword ptr [rsp + 72]
	mov	qword ptr [rsp + 96], rcx 
	jmp	.LBB14_1
.LBB14_16:                              
	cmp	eax, -1177328178
	je	.LBB14_30

	cmp	eax, -869180954
	je	.LBB14_29

	cmp	eax, -200274651
	jne	.LBB14_1

	mov	rax, qword ptr [rsp + 40]
	mov	eax, 181479690
	jmp	.LBB14_1
.LBB14_21:                              
	cmp	eax, 181479690
	je	.LBB14_50

	cmp	eax, 1087231820
	je	.LBB14_54

	cmp	eax, 897103454
	jne	.LBB14_1

	add	rsp, 152
	pop	rbx
	pop	r12
	pop	r13
	pop	r14
	pop	r15
	pop	rbp
	ret
.Lfunc_end14:
	.size	_ZNK5Botan9TripleDES9encrypt_nEPKhPhm, .Lfunc_end14-_ZNK5Botan9TripleDES9encrypt_nEPKhPhm
	.cfi_endproc

	.globl	_ZNK5Botan9TripleDES9decrypt_nEPKhPhm 
	.p2align	1, 0x90
	.type	_ZNK5Botan9TripleDES9decrypt_nEPKhPhm,@function
_ZNK5Botan9TripleDES9decrypt_nEPKhPhm:  
	.cfi_startproc

	push	rbp
.Lcfi69:
	.cfi_def_cfa_offset 16
	push	r15
.Lcfi70:
	.cfi_def_cfa_offset 24
	push	r14
.Lcfi71:
	.cfi_def_cfa_offset 32
	push	r13
.Lcfi72:
	.cfi_def_cfa_offset 40
	push	r12
.Lcfi73:
	.cfi_def_cfa_offset 48
	push	rbx
.Lcfi74:
	.cfi_def_cfa_offset 56
	sub	rsp, 152
.Lcfi75:
	.cfi_def_cfa_offset 208
.Lcfi76:
	.cfi_offset rbx, -56
.Lcfi77:
	.cfi_offset r12, -48
.Lcfi78:
	.cfi_offset r13, -40
.Lcfi79:
	.cfi_offset r14, -32
.Lcfi80:
	.cfi_offset r15, -24
.Lcfi81:
	.cfi_offset rbp, -16
	mov	r12, rcx
	mov	r13, rdx
	mov	qword ptr [rsp + 72], rsi 
	mov	rbx, rdi
	lea	rax, [rbx + 8]
	mov	qword ptr [rsp + 40], rax
	mov	rdi, qword ptr [rsp + 40]
	call	_ZNKSt6vectorIjN5Botan16secure_allocatorIjEEE5emptyEv
	xor	al, 1
	movzx	esi, al
	mov	rdi, rbx
	call	_ZNK5Botan18SymmetricAlgorithm14verify_key_setEb
	mov	eax, -758791295
	lea	r14, [rsp + 16]






	jmp	.LBB15_1
.LBB15_29:                              
	mov	eax, dword ptr [rip + x.51]
	mov	ecx, dword ptr [rip + y.52]
	lea	edx, [rax - 1]
	imul	edx, eax
	not	edx
	or	edx, -2
	mov	edi, -1
	cmp	edx, edi
	sete	al
	cmp	ecx, 10
	setl	bl
	xor	bl, al
	mov	esi, -1278124215
	mov	ebp, -169872377
	cmovne	esi, ebp
	cmp	edx, edi
	mov	eax, esi
	cmove	eax, ebp
	cmp	ecx, 10
	cmovge	eax, esi
	jmp	.LBB15_1
.LBB15_50:                              
	mov	rax, qword ptr [rsp + 80] 
	mov	qword ptr [rsp + 104], rax
	mov	rax, qword ptr [rsp + 88] 
	mov	qword ptr [rsp + 112], rax
	mov	rax, qword ptr [rsp + 96] 
	mov	qword ptr [rsp + 64], rax
	cmp	qword ptr [rsp + 104], 0
	mov	eax, -861665070
	mov	ecx, -578659027
	cmove	eax, ecx
	jmp	.LBB15_1
.LBB15_30:                              
	mov	qword ptr [rsp + 120], r13 
	mov	rax, qword ptr [rsp + 32]
	mov	ebp, dword ptr [rax]
	bswap	ebp
	mov	rax, qword ptr [rsp + 32]
	mov	eax, dword ptr [rax + 4]
	bswap	eax
	mov	rcx, qword ptr [rsp + 32]
	mov	r11d, dword ptr [rcx + 8]
	bswap	r11d
	mov	dword ptr [rsp + 16], r11d
	mov	rcx, qword ptr [rsp + 32]
	mov	r15d, dword ptr [rcx + 12]
	bswap	r15d
	mov	dword ptr [rsp + 8], r15d
	mov	esi, eax
	shl	esi, 4
	rol	eax, 4
	mov	edx, esi
	not	edx
	and	edx, ebp
	mov	edi, ebp
	not	edi
	and	esi, edi
	or	esi, edx
	mov	edx, esi
	xor	edx, 252645135
	and	edx, esi
	mov	esi, edx
	not	esi
	mov	ebx, esi
	and	ebx, -1822843706
	mov	ecx, edx
	and	ecx, 1822843705
	or	ecx, ebx
	and	edi, -1822843706
	and	ebp, 1822843705
	or	ebp, edi
	xor	ebp, ecx
	and	esi, -1643070578
	and	edx, 1643070577
	or	edx, esi
	mov	ecx, eax
	not	ecx
	and	ecx, -1643070578
	and	eax, 1643070577
	or	eax, ecx
	xor	eax, edx
	mov	ecx, eax
	shr	ecx, 20
	shl	eax, 12
	mov	edx, ecx
	not	edx
	mov	esi, eax
	not	esi
	and	edx, 999500284
	and	ecx, 1539
	or	ecx, edx
	mov	edx, ebp
	and	edx, esi
	and	esi, 999500284
	mov	edi, eax
	and	edi, -999501824
	or	edi, esi
	xor	edi, ecx
	mov	ebx, ebp
	not	ebx
	and	eax, ebx
	or	eax, edx
	mov	ecx, eax
	not	ecx
	or	ecx, 65535
	and	eax, -65536
	and	ebp, ecx
	and	ebx, eax
	or	ebx, ebp
	and	ecx, edi
	not	edi
	and	edi, eax
	or	edi, ecx
	mov	eax, edi
	shr	eax, 18
	shl	edi, 14
	mov	ecx, eax
	not	ecx
	mov	edx, edi
	not	edx
	and	ecx, 26169501
	and	eax, 12130
	or	eax, ecx
	and	edx, 26169501
	and	edi, -26181632
	or	edi, edx
	xor	edi, eax
	mov	edx, edi
	not	edx
	mov	eax, edx
	and	eax, 531595889
	mov	ecx, edi
	and	ecx, -531595890
	or	ecx, eax
	mov	r13d, ebx
	not	r13d
	mov	ebp, r13d
	and	ebp, 531595889
	mov	esi, ebx
	and	esi, -531595890
	or	esi, ebp
	xor	esi, ecx
	mov	ecx, esi
	xor	ecx, -858993460
	and	ecx, esi
	mov	esi, ecx
	not	esi
	and	ebx, esi
	and	r13d, ecx
	or	r13d, ebx
	and	esi, -1367286715
	and	ecx, 1367286714
	or	ecx, esi
	and	edx, -1367286715
	and	edi, 1367286714
	or	edi, edx
	xor	edi, ecx
	mov	edx, edi
	shr	edx, 6
	shl	edi, 26
	mov	ecx, edx
	not	ecx
	mov	esi, edi
	not	esi
	mov	ebp, r13d
	and	ebp, ecx
	and	ecx, -1799189239
	mov	ebx, edx
	and	ebx, 54358774
	or	ebx, ecx
	and	esi, -1799189239
	and	edi, 1744830464
	or	edi, esi
	xor	edi, ebx
	mov	dword ptr [rsp + 20], edi
	mov	ecx, r13d
	not	ecx
	and	edx, ecx
	or	edx, ebp
	mov	ebp, edx
	xor	ebp, -16711936
	and	ebp, edx
	mov	ebx, ebp
	not	ebx
	mov	edx, ebx
	and	edx, -1718524487
	mov	esi, ebp
	and	esi, 1718524486
	or	esi, edx
	and	ecx, -1718524487
	and	r13d, 1718524486
	or	r13d, ecx
	xor	r13d, esi
	mov	dword ptr [rsp + 12], r13d
	mov	ecx, dword ptr [rip + x.105]
	mov	r8d, dword ptr [rip + y.106]
	mov	r14d, ecx
	neg	r14d
	not	r14d
	imul	r14d, ecx
	mov	r9d, r14d
	xor	r9d, -2
	mov	ecx, r9d
	and	ecx, r14d
	sete	sil
	sete	byte ptr [rsp + 6]
	cmp	r8d, 10
	setl	dl
	xor	dl, sil
	mov	edx, 127678515
	mov	eax, -1181345563
	cmovne	edx, eax
	test	ecx, ecx
	mov	r10d, edx
	cmove	r10d, eax
	cmp	r8d, 10
	mov	ecx, edi
	not	ecx
	setl	byte ptr [rsp + 7]
	cmovge	r10d, edx
	and	ebx, 1889988980
	and	ebp, -1889988981
	or	ebp, ebx
	and	ecx, 1889988980
	and	edi, -1889988981
	or	edi, ecx
	xor	edi, ebp
	rol	edi, 9
	mov	edx, 127001814
	jmp	.LBB15_31
.LBB15_39:                              
	cmp	edx, 127678515
	je	.LBB15_43

	cmp	edx, 127001814
	jne	.LBB15_31

	mov	bl, byte ptr [rsp + 6]
	mov	dl, byte ptr [rsp + 7]
	mov	ecx, ebx
	xor	cl, dl
	mov	ecx, 127678515
	mov	eax, -1275833750
	cmovne	ecx, eax
	test	dl, dl
	mov	edx, ecx
	cmovne	edx, eax
	test	bl, bl
	cmove	edx, ecx
	jmp	.LBB15_31
.LBB15_42:                              
	mov	dword ptr [rsp + 24], edi
	mov	edx, r10d
	jmp	.LBB15_31
.LBB15_43:                              
	mov	edx, -1275833750
.LBB15_31:                              

	cmp	edx, 127001813
	jg	.LBB15_39

	cmp	edx, -1275833750
	je	.LBB15_42

	cmp	edx, -1181345563
	jne	.LBB15_31

	mov	esi, dword ptr [rsp + 24]
	mov	edi, esi
	not	edi
	mov	ecx, edi
	and	ecx, -912726178
	mov	edx, esi
	and	edx, 912726177
	or	edx, ecx
	mov	ecx, r13d
	not	ecx
	mov	ebp, ecx
	and	ebp, -912726178
	mov	ebx, r13d
	and	ebx, 912726177
	or	ebx, ebp
	xor	ebx, edx
	mov	edx, ebx
	not	edx
	or	edx, 1431655765
	mov	ebp, edx
	and	ebp, -1437868339
	mov	rax, r12
	mov	r12d, ebx
	and	r12d, 10493986
	or	r12d, ebp
	and	ecx, -1437868339
	and	r13d, 1437868338
	or	r13d, ecx
	xor	r13d, r12d
	mov	r12, rax
	lea	ecx, [r13 + r13]
	shr	r13d, 31
	mov	ebp, ecx
	not	ebp
	not	r13d
	and	ebp, 118614765
	and	ecx, -118614766
	or	ecx, ebp
	and	r13d, 118614765
	xor	r13d, ecx
	and	edx, 918612120
	and	ebx, -2010512862
	or	ebx, edx
	and	edi, 918612120
	and	esi, -918612121
	or	esi, edi
	xor	esi, ebx
	mov	edx, r15d
	shl	edx, 4
	shr	r15d, 28
	mov	ecx, edx
	not	ecx
	mov	edi, r15d
	not	edi
	mov	ebx, ecx
	and	ebx, 892558346
	mov	ebp, edx
	and	ebp, -892558352
	or	ebp, ebx
	and	edi, 892558346
	and	r15d, 5
	or	r15d, edi
	xor	r15d, ebp
	and	ecx, -2087788136
	and	edx, 2087788128
	or	edx, ecx
	mov	eax, r11d
	not	eax
	mov	ecx, eax
	and	ecx, -2087788136
	mov	edi, r11d
	and	edi, 2087788135
	or	edi, ecx
	xor	edi, edx
	mov	ecx, edi
	xor	ecx, 252645135
	and	ecx, edi
	mov	edx, ecx
	not	edx
	and	r11d, edx
	and	eax, ecx
	or	eax, r11d
	and	edx, -1607770370
	and	ecx, 1607770369
	or	ecx, edx
	mov	edx, r15d
	not	edx
	and	edx, -1607770370
	and	r15d, 1607770369
	or	r15d, edx
	xor	r15d, ecx
	mov	ecx, r15d
	shr	ecx, 20
	shl	r15d, 12
	mov	edx, ecx
	not	edx
	mov	ebx, r15d
	not	ebx
	and	edx, -1285026350
	and	ecx, 557
	or	ecx, edx
	mov	ebp, ebx
	and	ebp, -1285026350
	mov	edi, r15d
	and	edi, 1285025792
	or	edi, ebp
	xor	edi, ecx
	and	ebx, 917820031
	and	r15d, -917823488
	or	r15d, ebx
	mov	r11d, eax
	not	r11d
	mov	ecx, r11d
	and	ecx, 917820031
	mov	ebx, eax
	and	ebx, -917820032
	or	ebx, ecx
	xor	ebx, r15d
	mov	ecx, ebx
	xor	ecx, 65535
	and	ecx, ebx
	mov	ebp, ecx
	not	ebp
	and	eax, ebp
	and	r11d, ecx
	or	r11d, eax
	and	ebp, -1264147962
	and	ecx, 1264147961
	or	ecx, ebp
	mov	eax, edi
	not	eax
	and	eax, -1264147962
	and	edi, 1264147961
	or	edi, eax
	xor	edi, ecx
	rol	edi, 14
	mov	ecx, edi
	not	ecx
	mov	eax, r11d
	and	eax, ecx
	mov	r15d, r11d
	not	r15d
	mov	edx, edi
	and	edx, r15d
	or	edx, eax
	mov	eax, edx
	xor	eax, -858993460
	and	eax, edx
	mov	edx, eax
	not	edx
	and	r11d, edx
	and	r15d, eax
	or	r15d, r11d
	and	edx, 542519125
	and	eax, -542519126
	or	eax, edx
	and	ecx, 542519125
	and	edi, -542519126
	or	edi, ecx
	xor	edi, eax
	mov	ebx, edi
	shr	ebx, 6
	shl	edi, 26
	mov	eax, ebx
	not	eax
	mov	ecx, edi
	not	ecx
	mov	edx, eax
	and	edx, -1281302231
	mov	ebp, ebx
	and	ebp, 6233814
	or	ebp, edx
	and	ecx, -1281302231
	and	edi, 1275068416
	or	edi, ecx
	xor	edi, ebp
	and	eax, 470093735
	and	ebx, 66777176
	or	ebx, eax
	mov	eax, r15d
	not	eax
	mov	edx, eax
	and	edx, 470093735
	mov	ecx, r15d
	and	ecx, -470093736
	or	ecx, edx
	xor	ecx, ebx
	mov	ebp, ecx
	not	ebp
	or	ebp, -16711936
	mov	ebx, edi
	mov	dword ptr [rsp + 8], edi
	mov	edx, edi
	not	edx
	and	edx, ecx
	and	ebx, ebp
	and	ebp, 519856238
	and	ecx, 196753
	or	ecx, ebp
	and	eax, 519856238
	and	r15d, -519856239
	or	r15d, eax
	xor	r15d, ecx
	and	edx, 16711935
	or	edx, ebx
	test	r9d, r14d
	mov	dword ptr [rsp + 12], r13d
	mov	dword ptr [rsp + 20], esi
	mov	dword ptr [rsp + 16], r15d
	sete	byte ptr [rsp + 6]
	cmp	r8d, 10
	setl	byte ptr [rsp + 7]
	rol	edx, 9
	mov	eax, 127001814
	mov	r13, qword ptr [rsp + 120] 
	lea	r14, [rsp + 16]
	jmp	.LBB15_35
.LBB15_44:                              
	cmp	eax, 127678515
	je	.LBB15_48

	cmp	eax, 127001814
	jne	.LBB15_35

	mov	bl, byte ptr [rsp + 6]
	mov	al, byte ptr [rsp + 7]
	mov	ecx, ebx
	xor	cl, al
	mov	ecx, 127678515
	mov	esi, -1275833750
	cmovne	ecx, esi
	test	al, al
	mov	eax, ecx
	cmovne	eax, esi
	test	bl, bl
	cmove	eax, ecx
	jmp	.LBB15_35
.LBB15_47:                              
	mov	dword ptr [rsp + 24], edx
	mov	eax, r10d
	jmp	.LBB15_35
.LBB15_48:                              
	mov	eax, -1275833750
.LBB15_35:                              

	cmp	eax, 127001813
	jg	.LBB15_44

	cmp	eax, -1275833750
	je	.LBB15_47

	cmp	eax, -1181345563
	jne	.LBB15_35

	mov	ecx, dword ptr [rsp + 24]
	mov	eax, ecx
	not	eax
	mov	edx, r15d
	and	edx, eax
	mov	esi, r15d
	not	esi
	mov	edi, ecx
	and	edi, esi
	or	edi, edx
	mov	edx, edi
	xor	edx, 1431655765
	and	edx, edi
	mov	edi, edx
	not	edi
	and	r15d, edi
	and	esi, edx
	or	esi, r15d
	lea	ebx, [rsi + rsi]
	shr	esi, 31
	mov	ebp, ebx
	not	ebp
	and	ebp, -961144048
	and	ebx, 961144046
	or	ebx, ebp
	or	esi, -961144048
	xor	esi, ebx
	mov	dword ptr [rsp + 16], esi
	and	edi, ecx
	and	edx, eax
	or	edx, edi
	mov	dword ptr [rsp + 8], edx
	mov	rax, qword ptr [rsp + 40]
	mov	r8, qword ptr [rax]
	add	r8, 256
	lea	rbx, [rsp + 12]
	mov	rdi, rbx
	lea	rbp, [rsp + 20]
	mov	rsi, rbp
	mov	rdx, r14
	lea	r15, [rsp + 8]
	mov	rcx, r15
	call	_ZN5Botan12_GLOBAL__N_114des_decrypt_x2ERjS1_S1_S1_PKj
	mov	rax, qword ptr [rsp + 40]
	mov	r8, qword ptr [rax]
	sub	r8, -128
	mov	rdi, rbp
	mov	rsi, rbx
	mov	rdx, r15
	mov	rcx, r14
	call	_ZN5Botan12_GLOBAL__N_114des_encrypt_x2ERjS1_S1_S1_PKj
	mov	rax, qword ptr [rsp + 40]
	mov	r8, qword ptr [rax]
	mov	rdi, rbx
	mov	rsi, rbp
	mov	rdx, r14
	mov	rcx, r15
	call	_ZN5Botan12_GLOBAL__N_114des_decrypt_x2ERjS1_S1_S1_PKj
	mov	rdi, rbx
	mov	rsi, rbp
	call	_ZN5Botan12_GLOBAL__N_16des_FPERjS1_
	mov	rdi, r14
	mov	rsi, r15
	call	_ZN5Botan12_GLOBAL__N_16des_FPERjS1_
	mov	esi, dword ptr [rsp + 20]
	mov	edx, dword ptr [rsp + 12]
	mov	ecx, dword ptr [rsp + 8]
	mov	r8d, dword ptr [rsp + 16]
	mov	rdi, qword ptr [rsp + 56]
	call	_ZN5Botan8store_beIjEEvPhT_S2_S2_S2_
	mov	rax, qword ptr [rsp + 32]
	add	rax, 16
	mov	qword ptr [rsp + 128], rax
	mov	rax, qword ptr [rsp + 56]
	add	rax, 16
	mov	qword ptr [rsp + 136], rax
	mov	rax, qword ptr [rsp + 48]
	xor	ecx, ecx
	sub	rcx, rax
	mov	rax, -2
	sub	rax, rcx
	mov	qword ptr [rsp + 144], rax
	mov	eax, dword ptr [rip + x.51]
	mov	ecx, eax
	neg	ecx
	not	ecx
	imul	ecx, eax
	not	ecx
	or	ecx, -2
	mov	eax, -1
	cmp	ecx, eax
	sete	cl
	mov	eax, -1278124215
	mov	edi, -859961021
	cmove	eax, edi
	cmp	dword ptr [rip + y.52], 10
	setl	dl
	mov	esi, -1278124215
	jmp	.LBB15_88
.LBB15_87:                              
	mov	eax, dword ptr [rip + x.51]
	lea	ecx, [rax - 1]
	imul	ecx, eax
	not	ecx
	or	ecx, -2
	mov	eax, -1
	cmp	ecx, eax
	sete	cl
	mov	eax, 1037427603
	mov	edi, -355021794
	cmove	eax, edi
	cmp	dword ptr [rip + y.52], 10
	setl	dl
	mov	esi, 1037427603
.LBB15_88:                              
	cmovge	eax, esi
	xor	dl, cl
	cmovne	eax, edi
	jmp	.LBB15_1
.LBB15_49:                              
	mov	rax, qword ptr [rsp + 32]
	mov	qword ptr [rsp + 96], rax 
	mov	rax, qword ptr [rsp + 56]
	mov	qword ptr [rsp + 88], rax 
	mov	eax, -1293234449
	mov	rcx, qword ptr [rsp + 48]
	mov	qword ptr [rsp + 80], rcx 
	jmp	.LBB15_1
.LBB15_51:                              
	mov	rax, qword ptr [rsp + 64]
	mov	ecx, dword ptr [rax]
	bswap	ecx
	mov	rax, qword ptr [rsp + 64]
	mov	ebp, dword ptr [rax + 4]
	bswap	ebp
	mov	esi, ebp
	shl	esi, 4
	rol	ebp, 4
	mov	edi, esi
	not	edi
	and	edi, ecx
	mov	edx, ecx
	not	edx
	and	esi, edx
	or	esi, edi
	mov	edi, esi
	not	edi
	or	edi, 252645135
	and	esi, -252645136
	and	ecx, edi
	and	edx, esi
	or	edx, ecx
	and	edi, ebp
	not	ebp
	and	ebp, esi
	or	ebp, edi
	mov	esi, ebp
	shl	esi, 12
	rol	ebp, 12
	mov	edi, esi
	not	edi
	and	edi, edx
	mov	ecx, edx
	not	ecx
	and	esi, ecx
	or	esi, edi
	mov	edi, esi
	xor	edi, 65535
	and	edi, esi
	mov	esi, edi
	not	esi
	and	edx, esi
	and	ecx, edi
	or	ecx, edx
	and	esi, -925089204
	and	edi, 925089203
	or	edi, esi
	mov	edx, ebp
	not	edx
	and	edx, -925089204
	and	ebp, 925089203
	or	ebp, edx
	xor	ebp, edi
	mov	edx, ebp
	shr	edx, 18
	shl	ebp, 14
	mov	esi, edx
	not	esi
	mov	edi, ebp
	not	edi
	and	esi, 268538203
	and	edx, 11940
	or	edx, esi
	and	edi, 268538203
	and	ebp, -268550144
	or	ebp, edi
	xor	ebp, edx
	mov	esi, ebp
	not	esi
	mov	edi, ecx
	and	edi, esi
	mov	edx, ecx
	not	edx
	mov	eax, ebp
	and	eax, edx
	or	eax, edi
	mov	edi, eax
	xor	edi, -858993460
	and	edi, eax
	mov	eax, edi
	not	eax
	and	ecx, eax
	and	edx, edi
	or	edx, ecx
	and	eax, -1155881990
	and	edi, 1155881989
	or	edi, eax
	and	esi, -1155881990
	and	ebp, 1155881989
	or	ebp, esi
	xor	ebp, edi
	mov	eax, ebp
	shr	eax, 6
	rol	ebp, 26
	mov	dword ptr [rsp + 8], ebp
	mov	ecx, eax
	not	ecx
	and	ecx, -1313063263
	and	eax, 37994846
	or	eax, ecx
	mov	r10d, edx
	not	r10d
	mov	esi, r10d
	and	esi, -1313063263
	mov	edi, edx
	and	edi, 1313063262
	or	edi, esi
	xor	edi, eax
	mov	esi, edi
	xor	esi, -16711936
	and	esi, edi
	mov	edi, esi
	not	edi
	and	edx, edi
	and	r10d, esi
	or	r10d, edx
	mov	dword ptr [rsp + 16], r10d
	mov	eax, dword ptr [rip + x.105]
	mov	r8d, dword ptr [rip + y.106]
	mov	edx, eax
	neg	edx
	not	edx
	imul	edx, eax
	mov	eax, edx
	xor	eax, -2
	and	eax, edx
	sete	byte ptr [rsp + 20]
	sete	dl
	cmp	r8d, 10
	setl	bl
	xor	bl, dl
	mov	edx, 127678515
	mov	ecx, -1181345563
	cmovne	edx, ecx
	test	eax, eax
	mov	r9d, edx
	cmove	r9d, ecx
	cmp	r8d, 10
	setl	byte ptr [rsp + 12]
	cmovge	r9d, edx
	and	edi, ebp
	mov	eax, ebp
	not	eax
	and	eax, esi
	or	eax, edi
	mov	edx, eax
	shl	edx, 9
	shr	eax, 23
	mov	esi, edx
	not	esi
	mov	edi, eax
	not	edi
	and	esi, 1055761139
	and	edx, -1055761408
	or	edx, esi
	and	edi, 1055761139
	and	eax, 268
	or	eax, edi
	xor	eax, edx
	mov	esi, 127001814
	jmp	.LBB15_52
.LBB15_61:                              
	cmp	esi, 127678515
	je	.LBB15_65

	cmp	esi, 127001814
	jne	.LBB15_52

	mov	cl, byte ptr [rsp + 20]
	mov	bl, byte ptr [rsp + 12]
	mov	edx, ecx
	xor	dl, bl
	mov	edx, 127678515
	mov	edi, -1275833750
	cmovne	edx, edi
	test	bl, bl
	mov	esi, edx
	cmovne	esi, edi
	test	cl, cl
	cmove	esi, edx
	jmp	.LBB15_52
.LBB15_64:                              
	mov	dword ptr [rsp + 24], eax
	mov	esi, r9d
	jmp	.LBB15_52
.LBB15_65:                              
	mov	esi, -1275833750
.LBB15_52:                              

	cmp	esi, 127001813
	jg	.LBB15_61

	cmp	esi, -1275833750
	je	.LBB15_64

	cmp	esi, -1181345563
	jne	.LBB15_52

	mov	eax, dword ptr [rsp + 24]
	mov	edx, eax
	not	edx
	mov	ecx, edx
	and	ecx, 1150456642
	mov	esi, eax
	and	esi, -1150456643
	or	esi, ecx
	mov	edi, r10d
	not	edi
	mov	ecx, edi
	and	ecx, 1150456642
	mov	ebp, r10d
	and	ebp, -1150456643
	or	ebp, ecx
	xor	ebp, esi
	mov	esi, ebp
	xor	esi, 1431655765
	and	esi, ebp
	mov	ecx, esi
	not	ecx
	and	r10d, ecx
	and	edi, esi
	or	edi, r10d
	lea	ebx, [rdi + rdi]
	shr	edi, 31
	mov	ebp, ebx
	not	ebp
	and	ebp, 1680204528
	and	ebx, -1680204530
	or	ebx, ebp
	or	edi, 1680204528
	xor	edi, ebx
	mov	dword ptr [rsp + 16], edi
	and	ecx, -815677212
	and	esi, 815677211
	or	esi, ecx
	and	edx, -815677212
	and	eax, 815677211
	or	eax, edx
	xor	eax, esi
	mov	dword ptr [rsp + 8], eax
	mov	rax, qword ptr [rsp + 40]
	mov	rdx, qword ptr [rax]
	add	rdx, 256
	mov	rdi, r14
	lea	rsi, [rsp + 8]
	call	_ZN5Botan12_GLOBAL__N_111des_decryptERjS1_PKj
	mov	rax, qword ptr [rsp + 40]
	mov	rbx, qword ptr [rax]
	mov	r15d, dword ptr [rsp + 8]
	mov	eax, dword ptr [rsp + 16]
	xor	ecx, ecx
.LBB15_56:                              


	mov	edx, 377414099
	jmp	.LBB15_57
.LBB15_59:                              
	cmp	edx, 377414099
	jne	.LBB15_57

	mov	qword ptr [rsp + 24], rcx
	mov	dword ptr [rsp + 20], eax
	mov	dword ptr [rsp + 12], r15d
	mov	rdx, qword ptr [rsp + 24]
	cmp	rdx, 16
	mov	edx, -1108240195
	mov	esi, -2055170464
	cmove	edx, esi
.LBB15_57:                              


	cmp	edx, -2055170464
	je	.LBB15_67

	cmp	edx, -1108240195
	jne	.LBB15_59

	mov	eax, dword ptr [rsp + 20]
	rol	eax, 28
	mov	rbp, qword ptr [rsp + 24]
	mov	ecx, eax
	not	ecx
	and	ecx, 1863302985
	and	eax, -1863302986
	or	eax, ecx
	mov	edi, dword ptr [rbx + 8*rbp + 128]
	mov	esi, dword ptr [rbx + 8*rbp + 132]
	mov	ecx, edi
	not	ecx
	and	ecx, 1863302985
	and	edi, -1863302986
	or	edi, ecx
	xor	edi, eax
	mov	eax, dword ptr [rsp + 20]
	mov	ecx, eax
	not	ecx
	and	ecx, esi
	not	esi
	and	esi, eax
	or	esi, ecx
	call	_ZN5Botan12_GLOBAL__N_15spboxEjj
	mov	r15d, eax
	mov	eax, dword ptr [rsp + 12]
	mov	ecx, eax
	not	ecx
	and	ecx, 706996616
	and	eax, -706996617
	or	eax, ecx
	mov	ecx, r15d
	not	ecx
	and	ecx, 706996616
	and	r15d, -706996617
	or	r15d, ecx
	xor	r15d, eax
	mov	eax, r15d
	shr	eax, 4
	mov	ecx, r15d
	shl	ecx, 28
	mov	edx, eax
	not	edx
	not	ecx
	and	edx, -201111372
	and	eax, 201111371
	or	eax, edx
	and	ecx, -201111372
	xor	ecx, eax
	shl	rbp, 3
	mov	rax, -8
	sub	rax, rbp
	neg	rax
	mov	edi, dword ptr [rbx + rax + 128]
	mov	eax, ecx
	not	eax
	and	eax, edi
	not	edi
	and	edi, ecx
	or	edi, eax
	mov	rax, -12
	sub	rax, rbp
	neg	rax
	mov	esi, dword ptr [rbx + rax + 128]
	mov	eax, r15d
	not	eax
	and	eax, esi
	not	esi
	and	esi, r15d
	or	esi, eax
	call	_ZN5Botan12_GLOBAL__N_15spboxEjj
	mov	ecx, dword ptr [rsp + 20]
	mov	edx, ecx
	not	edx
	and	edx, -1490259874
	and	ecx, 1490259873
	or	ecx, edx
	mov	edx, eax
	not	edx
	and	edx, -1490259874
	and	eax, 1490259873
	or	eax, edx
	xor	eax, ecx
	mov	rcx, qword ptr [rsp + 24]
	add	rcx, 2
	jmp	.LBB15_56
.LBB15_28:                              
	mov	qword ptr [rsp + 48], r12
	mov	qword ptr [rsp + 56], r13
	mov	rax, qword ptr [rsp + 72] 
	mov	qword ptr [rsp + 32], rax
	mov	rax, qword ptr [rsp + 48]
	cmp	rax, 1
	mov	eax, -1057340060
	mov	ecx, -1383167077
	cmova	eax, ecx
	jmp	.LBB15_1
.LBB15_86:                              
	mov	eax, dword ptr [rip + x.51]
	mov	ecx, eax
	neg	ecx
	not	ecx
	imul	ecx, eax
	mov	eax, ecx
	xor	eax, -2
	and	eax, ecx
	sete	cl
	test	eax, eax
	mov	eax, 1037427603
	mov	esi, -141678922
	cmove	eax, esi
	cmp	dword ptr [rip + y.52], 10
	setl	dl
	mov	edi, 1037427603
	cmovge	eax, edi
	xor	dl, cl
	cmovne	eax, esi
	jmp	.LBB15_1
.LBB15_67:                              
	mov	eax, dword ptr [rsp + 12]
	mov	dword ptr [rsp + 8], eax
	mov	eax, dword ptr [rsp + 20]
	mov	dword ptr [rsp + 16], eax
	mov	rax, qword ptr [rsp + 40]
	mov	rdx, qword ptr [rax]
	mov	rdi, r14
	lea	rbx, [rsp + 8]
	mov	rsi, rbx
	call	_ZN5Botan12_GLOBAL__N_111des_decryptERjS1_PKj
	mov	rdi, r14
	mov	rsi, rbx
	call	_ZN5Botan12_GLOBAL__N_16des_FPERjS1_
	mov	edx, dword ptr [rsp + 8]
	mov	r8d, dword ptr [rsp + 16]
	mov	r9, qword ptr [rsp + 112]
	mov	esi, dword ptr [rip + x.123]
	mov	edi, dword ptr [rip + y.124]
	lea	ebp, [rsi - 1]
	imul	ebp, esi
	not	ebp
	or	ebp, -2
	mov	eax, -1
	cmp	ebp, eax
	sete	byte ptr [rsp + 12]
	cmp	edi, 10
	setl	byte ptr [rsp + 24]
	bswap	edx
	mov	esi, -1594289886
	jmp	.LBB15_68
.LBB15_80:                              
	mov	dword ptr [r9], edx
	mov	esi, -616711071
	jmp	.LBB15_68
.LBB15_79:                              
	mov	dword ptr [r9], edx
	mov	eax, dword ptr [rip + x.123]
	lea	ecx, [rax - 1]
	imul	ecx, eax
	mov	eax, ecx
	xor	eax, -2
	and	eax, ecx
	sete	cl
	test	eax, eax
	mov	esi, -1703216472
	mov	ebp, 1506076261
	cmove	esi, ebp
	cmp	dword ptr [rip + y.124], 10
	setl	al
	mov	edi, -1703216472
	cmovge	esi, edi
	xor	al, cl
	cmovne	esi, ebp
.LBB15_68:                              

	cmp	esi, -616711072
	jg	.LBB15_72

	cmp	esi, -1703216472
	je	.LBB15_80

	cmp	esi, -1594289886
	jne	.LBB15_68

	mov	cl, byte ptr [rsp + 12]
	mov	al, byte ptr [rsp + 24]
	mov	ebx, ecx
	xor	bl, al
	mov	edi, -1703216472
	mov	ebp, -616711071
	cmovne	edi, ebp
	test	al, al
	mov	esi, edi
	cmovne	esi, ebp
	test	cl, cl
	cmove	esi, edi
	jmp	.LBB15_68
.LBB15_72:                              
	cmp	esi, -616711071
	je	.LBB15_79

	cmp	esi, 1506076261
	jne	.LBB15_68

	mov	eax, dword ptr [rip + x.123]
	mov	ecx, dword ptr [rip + y.124]
	lea	edx, [rax - 1]
	imul	edx, eax
	mov	eax, edx
	xor	eax, -2
	and	eax, edx
	sete	dl
	sete	byte ptr [rsp + 12]
	cmp	ecx, 10
	setl	bl
	xor	bl, dl
	mov	esi, -1703216472
	mov	edi, 1506076261
	cmovne	esi, edi
	test	eax, eax
	mov	edx, esi
	cmove	edx, edi
	cmp	ecx, 10
	setl	byte ptr [rsp + 24]
	bswap	r8d
	cmovge	edx, esi
	mov	esi, -1594289886
	jmp	.LBB15_75
.LBB15_85:                              
	mov	dword ptr [r9 + 4], r8d
	mov	esi, -616711071
	jmp	.LBB15_75
.LBB15_84:                              
	mov	dword ptr [r9 + 4], r8d
	mov	esi, edx
.LBB15_75:                              

	cmp	esi, -616711072
	jg	.LBB15_81

	cmp	esi, -1703216472
	je	.LBB15_85

	cmp	esi, -1594289886
	jne	.LBB15_75

	mov	bl, byte ptr [rsp + 12]
	mov	cl, byte ptr [rsp + 24]
	mov	eax, ebx
	xor	al, cl
	mov	eax, -1703216472
	mov	edi, -616711071
	cmovne	eax, edi
	test	cl, cl
	mov	esi, eax
	cmovne	esi, edi
	test	bl, bl
	cmove	esi, eax
	jmp	.LBB15_75
.LBB15_81:                              
	cmp	esi, -616711071
	je	.LBB15_84

	cmp	esi, 1506076261
	jne	.LBB15_75

	mov	rax, qword ptr [rsp + 64]
	add	rax, 8
	mov	qword ptr [rsp + 96], rax 
	mov	rax, qword ptr [rsp + 112]
	add	rax, 8
	mov	qword ptr [rsp + 88], rax 
	mov	rax, qword ptr [rsp + 104]
	movabs	rcx, -8160983420034795969
	lea	rax, [rax + rcx - 1]
	sub	rax, rcx
	mov	qword ptr [rsp + 80], rax 
	mov	eax, -1293234449
.LBB15_1:                               









	cmp	eax, -758791296
	jg	.LBB15_19

	cmp	eax, -1057340061
	jg	.LBB15_15

	cmp	eax, -1383167077
	je	.LBB15_29

	cmp	eax, -1293234449
	je	.LBB15_50

	cmp	eax, -1278124215
	jne	.LBB15_1

	mov	rax, qword ptr [rsp + 32]
	mov	edx, dword ptr [rax]
	bswap	edx
	mov	rax, qword ptr [rsp + 32]
	mov	ebx, dword ptr [rax + 4]
	bswap	ebx
	mov	rax, qword ptr [rsp + 32]
	mov	r9d, dword ptr [rax + 8]
	bswap	r9d
	mov	dword ptr [rsp + 16], r9d
	mov	rax, qword ptr [rsp + 32]
	mov	r11d, dword ptr [rax + 12]
	bswap	r11d
	mov	dword ptr [rsp + 8], r11d
	mov	ebp, ebx
	shl	ebp, 4
	shr	ebx, 28
	mov	eax, ebp
	not	eax
	mov	esi, ebx
	not	esi
	mov	edi, eax
	and	edi, 1862064376
	mov	ecx, ebp
	and	ecx, -1862064384
	or	ecx, edi
	and	esi, 1862064376
	and	ebx, 7
	or	ebx, esi
	xor	ebx, ecx
	and	eax, -391377486
	and	ebp, 391377472
	or	ebp, eax
	mov	ecx, edx
	not	ecx
	mov	esi, ecx
	and	esi, -391377486
	mov	eax, edx
	and	eax, 391377485
	or	eax, esi
	xor	eax, ebp
	mov	esi, eax
	not	esi
	or	esi, 252645135
	mov	edi, esi
	and	edi, -353125502
	mov	ebp, eax
	and	ebp, 268451952
	or	ebp, edi
	and	ecx, -353125502
	and	edx, 353125501
	or	edx, ecx
	xor	edx, ebp
	and	esi, -1500398146
	and	eax, 1348485184
	or	eax, esi
	mov	ecx, ebx
	not	ecx
	and	ecx, -1500398146
	and	ebx, 1500398145
	or	ebx, ecx
	xor	ebx, eax
	mov	eax, ebx
	shl	eax, 12
	rol	ebx, 12
	mov	ecx, eax
	not	ecx
	and	ecx, edx
	mov	ebp, edx
	not	ebp
	and	eax, ebp
	or	eax, ecx
	mov	ecx, eax
	xor	ecx, 65535
	and	ecx, eax
	mov	eax, ecx
	not	eax
	and	edx, eax
	and	ebp, ecx
	or	ebp, edx
	and	eax, 64828753
	and	ecx, -64828754
	or	ecx, eax
	mov	eax, ebx
	not	eax
	and	eax, 64828753
	and	ebx, -64828754
	or	ebx, eax
	xor	ebx, ecx
	rol	ebx, 14
	mov	ecx, ebx
	not	ecx
	mov	eax, ecx
	and	eax, 1489064299
	mov	edx, ebx
	and	edx, -1489064300
	or	edx, eax
	mov	eax, ebp
	not	eax
	mov	edi, eax
	and	edi, 1489064299
	mov	esi, ebp
	and	esi, -1489064300
	or	esi, edi
	xor	esi, edx
	mov	edx, esi
	not	edx
	or	edx, -858993460
	and	eax, esi
	and	ebp, edx
	and	eax, 858993459
	or	eax, ebp
	and	edx, -726734387
	and	esi, 588321330
	or	esi, edx
	and	ecx, -726734387
	and	ebx, 726734386
	or	ebx, ecx
	xor	ebx, esi
	mov	ecx, ebx
	shr	ecx, 6
	rol	ebx, 26
	mov	dword ptr [rsp + 20], ebx
	mov	edx, ecx
	not	edx
	and	edx, 1832581141
	and	ecx, 46467050
	or	ecx, edx
	mov	esi, eax
	not	esi
	mov	edx, esi
	and	edx, 1832581141
	mov	edi, eax
	and	edi, -1832581142
	or	edi, edx
	xor	edi, ecx
	mov	ecx, edi
	xor	ecx, -16711936
	and	ecx, edi
	mov	edi, ecx
	not	edi
	and	eax, edi
	and	esi, ecx
	or	esi, eax
	mov	dword ptr [rsp + 12], esi
	mov	eax, dword ptr [rip + x.105]
	mov	r8d, dword ptr [rip + y.106]
	mov	r14d, eax
	neg	r14d
	not	r14d
	imul	r14d, eax
	mov	eax, r14d
	not	eax
	or	eax, -2
	mov	r15d, -1
	cmp	eax, r15d
	sete	r10b
	cmp	r8d, 10
	setl	dl
	setl	byte ptr [rsp + 7]
	xor	dl, r10b
	mov	edx, 127678515
	mov	ebp, -1181345563
	cmovne	edx, ebp
	cmp	eax, r15d
	sete	byte ptr [rsp + 6]
	mov	r10d, edx
	cmove	r10d, ebp
	cmp	r8d, 10
	cmovge	r10d, edx
	and	edi, ebx
	not	ebx
	and	ebx, ecx
	or	ebx, edi
	and	r14d, 1
	rol	ebx, 9
	mov	eax, 127001814
	jmp	.LBB15_7
.LBB15_89:                              
	cmp	eax, 127678515
	je	.LBB15_93

	cmp	eax, 127001814
	jne	.LBB15_7

	mov	cl, byte ptr [rsp + 6]
	mov	al, byte ptr [rsp + 7]
	mov	edx, ecx
	xor	dl, al
	mov	edx, 127678515
	mov	edi, -1275833750
	cmovne	edx, edi
	test	al, al
	mov	eax, edx
	cmovne	eax, edi
	test	cl, cl
	cmove	eax, edx
	jmp	.LBB15_7
.LBB15_92:                              
	mov	dword ptr [rsp + 24], ebx
	mov	eax, r10d
	jmp	.LBB15_7
.LBB15_93:                              
	mov	eax, -1275833750
.LBB15_7:                               

	cmp	eax, 127001813
	jg	.LBB15_89

	cmp	eax, -1275833750
	je	.LBB15_92

	cmp	eax, -1181345563
	jne	.LBB15_7

	mov	r15d, dword ptr [rsp + 24]
	mov	eax, r15d
	not	eax
	mov	ecx, eax
	and	ecx, 1307096472
	mov	edx, r15d
	and	edx, -1307096473
	or	edx, ecx
	mov	ebp, esi
	not	ebp
	mov	ecx, ebp
	and	ecx, 1307096472
	mov	edi, esi
	and	edi, -1307096473
	or	edi, ecx
	xor	edi, edx
	mov	ebx, edi
	xor	ebx, 1431655765
	and	ebx, edi
	mov	edi, ebx
	not	edi
	mov	edx, edi
	and	edx, -1178055813
	mov	ecx, ebx
	and	ecx, 1178055812
	or	ecx, edx
	and	ebp, -1178055813
	and	esi, 1178055812
	or	esi, ebp
	xor	esi, ecx
	lea	ecx, [rsi + rsi]
	shr	esi, 31
	mov	edx, ecx
	not	edx
	and	edx, 567221908
	and	ecx, -567221910
	or	ecx, edx
	or	esi, 567221908
	xor	esi, ecx
	and	edi, -853380562
	and	ebx, 853380561
	or	ebx, edi
	and	eax, -853380562
	and	r15d, 853380561
	or	r15d, eax
	xor	r15d, ebx
	mov	eax, r11d
	shl	eax, 4
	shr	r11d, 28
	mov	ecx, eax
	not	ecx
	mov	edx, r11d
	not	edx
	mov	edi, r9d
	and	edi, ecx
	and	ecx, -1137174840
	mov	ebx, eax
	and	ebx, 1137174832
	or	ebx, ecx
	and	edx, -1137174840
	and	r11d, 7
	or	r11d, edx
	xor	r11d, ebx
	mov	ebx, r9d
	not	ebx
	and	eax, ebx
	or	eax, edi
	mov	edx, eax
	xor	edx, 252645135
	and	edx, eax
	mov	eax, edx
	not	eax
	and	r9d, eax
	and	ebx, edx
	or	ebx, r9d
	and	eax, r11d
	not	r11d
	and	r11d, edx
	or	r11d, eax
	mov	edx, r11d
	shl	edx, 12
	rol	r11d, 12
	mov	eax, edx
	not	eax
	and	eax, -1321293806
	and	edx, 1321291776
	or	edx, eax
	mov	eax, ebx
	not	eax
	mov	edi, eax
	and	edi, -1321293806
	mov	ecx, ebx
	and	ecx, 1321293805
	or	ecx, edi
	xor	ecx, edx
	mov	edx, ecx
	xor	edx, 65535
	and	edx, ecx
	mov	ecx, edx
	not	ecx
	and	ebx, ecx
	and	eax, edx
	or	eax, ebx
	and	ecx, 1742091290
	and	edx, -1742091291
	or	edx, ecx
	mov	ecx, r11d
	not	ecx
	and	ecx, 1742091290
	and	r11d, -1742091291
	or	r11d, ecx
	xor	r11d, edx
	rol	r11d, 14
	mov	edi, r11d
	not	edi
	mov	edx, eax
	and	edx, edi
	mov	r9d, eax
	not	r9d
	mov	ebp, r11d
	and	ebp, r9d
	or	ebp, edx
	mov	edx, ebp
	xor	edx, -858993460
	and	edx, ebp
	mov	ebp, edx
	not	ebp
	and	eax, ebp
	and	r9d, edx
	or	r9d, eax
	and	ebp, 1363986120
	and	edx, -1363986121
	or	edx, ebp
	and	edi, 1363986120
	and	r11d, -1363986121
	or	r11d, edi
	xor	r11d, edx
	mov	edi, r11d
	shr	edi, 6
	rol	r11d, 26
	mov	eax, edi
	not	eax
	and	eax, r9d
	mov	edx, r9d
	not	edx
	and	edi, edx
	or	edi, eax
	mov	eax, edi
	not	eax
	or	eax, -16711936
	mov	ebp, eax
	and	ebp, 816481504
	mov	ebx, edi
	and	ebx, 5570591
	or	ebx, ebp
	and	edx, 816481504
	and	r9d, -816481505
	or	r9d, edx
	xor	r9d, ebx
	and	eax, -1888726396
	and	edi, 9633915
	or	edi, eax
	mov	edx, r11d
	not	edx
	and	edx, -1888726396
	mov	eax, r11d
	and	eax, 1888726395
	or	eax, edx
	xor	eax, edi
	test	r14d, r14d
	mov	dword ptr [rsp + 12], esi
	mov	dword ptr [rsp + 20], r15d
	mov	dword ptr [rsp + 8], r11d
	sete	byte ptr [rsp + 6]
	mov	dword ptr [rsp + 16], r9d
	cmp	r8d, 10
	setl	byte ptr [rsp + 7]
	mov	edx, eax
	shl	edx, 9
	shr	eax, 23
	mov	esi, edx
	not	esi
	mov	edi, eax
	not	edi
	and	esi, 1744136729
	and	edx, -1744137216
	or	edx, esi
	and	edi, 1744136729
	and	eax, 486
	or	eax, edi
	xor	eax, edx
	mov	edx, 127001814
	lea	r14, [rsp + 16]
	jmp	.LBB15_11
.LBB15_94:                              
	cmp	edx, 127678515
	je	.LBB15_98

	cmp	edx, 127001814
	jne	.LBB15_11

	mov	sil, byte ptr [rsp + 6]
	mov	dl, byte ptr [rsp + 7]
	mov	ebx, esi
	xor	bl, dl
	test	dl, dl
	mov	edx, 127678515
	mov	edi, -1275833750
	cmovne	edx, edi
	test	sil, sil
	mov	ecx, 127678515
	cmove	edx, ecx
	test	bl, bl
	cmovne	edx, edi
	jmp	.LBB15_11
.LBB15_97:                              
	mov	dword ptr [rsp + 24], eax
	mov	edx, r10d
	jmp	.LBB15_11
.LBB15_98:                              
	mov	edx, -1275833750
.LBB15_11:                              

	cmp	edx, 127001813
	jg	.LBB15_94

	cmp	edx, -1275833750
	je	.LBB15_97

	cmp	edx, -1181345563
	jne	.LBB15_11

	mov	eax, dword ptr [rsp + 24]
	mov	edx, eax
	not	edx
	mov	esi, edx
	and	esi, 671174499
	mov	edi, eax
	and	edi, -671174500
	or	edi, esi
	mov	ecx, r9d
	not	ecx
	mov	esi, ecx
	and	esi, 671174499
	mov	ebp, r9d
	and	ebp, -671174500
	or	ebp, esi
	xor	ebp, edi
	mov	esi, ebp
	xor	esi, 1431655765
	and	esi, ebp
	mov	edi, esi
	not	edi
	and	eax, edi
	and	edi, -1369780129
	mov	ebp, esi
	and	ebp, 1369780128
	or	ebp, edi
	and	ecx, -1369780129
	and	r9d, 1369780128
	or	r9d, ecx
	xor	r9d, ebp
	rol	r9d
	mov	dword ptr [rsp + 16], r9d
	and	esi, edx
	or	esi, eax
	mov	dword ptr [rsp + 8], esi
	mov	rax, qword ptr [rsp + 40]
	mov	r8, qword ptr [rax]
	add	r8, 256
	lea	rbx, [rsp + 12]
	mov	rdi, rbx
	lea	rbp, [rsp + 20]
	mov	rsi, rbp
	mov	rdx, r14
	lea	r15, [rsp + 8]
	mov	rcx, r15
	call	_ZN5Botan12_GLOBAL__N_114des_decrypt_x2ERjS1_S1_S1_PKj
	mov	rax, qword ptr [rsp + 40]
	mov	r8, qword ptr [rax]
	sub	r8, -128
	mov	rdi, rbp
	mov	rsi, rbx
	mov	rdx, r15
	mov	rcx, r14
	call	_ZN5Botan12_GLOBAL__N_114des_encrypt_x2ERjS1_S1_S1_PKj
	mov	rax, qword ptr [rsp + 40]
	mov	r8, qword ptr [rax]
	mov	rdi, rbx
	mov	rsi, rbp
	mov	rdx, r14
	mov	rcx, r15
	call	_ZN5Botan12_GLOBAL__N_114des_decrypt_x2ERjS1_S1_S1_PKj
	mov	rdi, rbx
	mov	rsi, rbp
	call	_ZN5Botan12_GLOBAL__N_16des_FPERjS1_
	mov	rdi, r14
	mov	rsi, r15
	call	_ZN5Botan12_GLOBAL__N_16des_FPERjS1_
	mov	esi, dword ptr [rsp + 20]
	mov	edx, dword ptr [rsp + 12]
	mov	ecx, dword ptr [rsp + 8]
	mov	r8d, dword ptr [rsp + 16]
	mov	rdi, qword ptr [rsp + 56]
	call	_ZN5Botan8store_beIjEEvPhT_S2_S2_S2_
	mov	rax, qword ptr [rsp + 32]
	mov	rax, qword ptr [rsp + 56]
	mov	rax, qword ptr [rsp + 48]
	mov	rax, qword ptr [rsp + 48]
	mov	rax, qword ptr [rsp + 48]
	mov	rax, qword ptr [rsp + 48]
	mov	rax, qword ptr [rsp + 48]
	mov	eax, -169872377
	jmp	.LBB15_1
.LBB15_19:                              
	cmp	eax, -169872378
	jle	.LBB15_20

	cmp	eax, -169872377
	je	.LBB15_30

	cmp	eax, -141678922
	je	.LBB15_87

	cmp	eax, 1037427603
	jne	.LBB15_1

	mov	eax, -141678922
	jmp	.LBB15_1
.LBB15_15:                              
	cmp	eax, -1057340060
	je	.LBB15_49

	cmp	eax, -861665070
	je	.LBB15_51

	cmp	eax, -859961021
	jne	.LBB15_1

	mov	rax, qword ptr [rsp + 128]
	mov	qword ptr [rsp + 72], rax 
	mov	r13, qword ptr [rsp + 136]
	mov	r12, qword ptr [rsp + 144]
	mov	eax, -758791295
	jmp	.LBB15_1
.LBB15_20:                              
	cmp	eax, -758791295
	je	.LBB15_28

	cmp	eax, -578659027
	je	.LBB15_86

	cmp	eax, -355021794
	jne	.LBB15_1

	add	rsp, 152
	pop	rbx
	pop	r12
	pop	r13
	pop	r14
	pop	r15
	pop	rbp
	ret
.Lfunc_end15:
	.size	_ZNK5Botan9TripleDES9decrypt_nEPKhPhm, .Lfunc_end15-_ZNK5Botan9TripleDES9decrypt_nEPKhPhm
	.cfi_endproc

	.globl	_ZN5Botan9TripleDES12key_scheduleEPKhm 
	.p2align	1, 0x90
	.type	_ZN5Botan9TripleDES12key_scheduleEPKhm,@function
_ZN5Botan9TripleDES12key_scheduleEPKhm: 
	.cfi_startproc

	push	rbp
.Lcfi82:
	.cfi_def_cfa_offset 16
	push	r14
.Lcfi83:
	.cfi_def_cfa_offset 24
	push	rbx
.Lcfi84:
	.cfi_def_cfa_offset 32
	sub	rsp, 32
.Lcfi85:
	.cfi_def_cfa_offset 64
.Lcfi86:
	.cfi_offset rbx, -32
.Lcfi87:
	.cfi_offset r14, -24
.Lcfi88:
	.cfi_offset rbp, -16
	mov	r14, rdx
	mov	rbx, rsi
	add	rdi, 8
	mov	qword ptr [rsp + 16], rdi
	mov	rdi, qword ptr [rsp + 16]
	mov	esi, 96
	call	_ZNSt6vectorIjN5Botan16secure_allocatorIjEEE6resizeEm
	mov	rdi, qword ptr [rsp + 16]
	xor	esi, esi
	call	_ZNSt6vectorIjN5Botan16secure_allocatorIjEEEixEm
	mov	rdi, rax
	mov	rsi, rbx
	call	_ZN5Botan12_GLOBAL__N_116des_key_scheduleEPjPKh
	mov	rdi, qword ptr [rsp + 16]
	mov	esi, 32
	call	_ZNSt6vectorIjN5Botan16secure_allocatorIjEEEixEm
	lea	rsi, [rbx + 8]
	mov	rdi, rax
	call	_ZN5Botan12_GLOBAL__N_116des_key_scheduleEPjPKh
	cmp	r14, 24
	sete	byte ptr [rsp + 15]
	add	rbx, 16
	mov	eax, -2037629324
	mov	ebp, 307581001
	jmp	.LBB16_1
.LBB16_5:                               
	cmp	eax, -614858745
	je	.LBB16_8

	cmp	eax, 307581001
	jne	.LBB16_1

	mov	rdi, qword ptr [rsp + 24]
	mov	rsi, rbx
	call	_ZN5Botan12_GLOBAL__N_116des_key_scheduleEPjPKh
	mov	eax, -860493888
	jmp	.LBB16_1
.LBB16_9:                               
	mov	rdi, qword ptr [rsp + 16]
	mov	esi, 64
	call	_ZNSt6vectorIjN5Botan16secure_allocatorIjEEEixEm
	mov	qword ptr [rsp + 24], rax
	mov	al, byte ptr [rsp + 15]
	test	al, al
	mov	eax, -614858745
	cmovne	eax, ebp
	jmp	.LBB16_1
.LBB16_8:                               
	mov	rdi, qword ptr [rsp + 16]
	xor	esi, esi
	call	_ZNSt6vectorIjN5Botan16secure_allocatorIjEEEixEm
	mov	rdi, qword ptr [rsp + 24]
	mov	edx, 32
	mov	rsi, rax
	call	_ZN5Botan8copy_memIjEEvPT_PKS1_m
	mov	eax, -860493888
.LBB16_1:                               
	cmp	eax, -614858746
	jg	.LBB16_5

	cmp	eax, -2037629324
	je	.LBB16_9

	cmp	eax, -860493888
	jne	.LBB16_1

	add	rsp, 32
	pop	rbx
	pop	r14
	pop	rbp
	ret
.Lfunc_end16:
	.size	_ZN5Botan9TripleDES12key_scheduleEPKhm, .Lfunc_end16-_ZN5Botan9TripleDES12key_scheduleEPKhm
	.cfi_endproc

	.section	.text._ZNSt6vectorIjN5Botan16secure_allocatorIjEEEixEm,"axG",@progbits,_ZNSt6vectorIjN5Botan16secure_allocatorIjEEEixEm,comdat
	.weak	_ZNSt6vectorIjN5Botan16secure_allocatorIjEEEixEm 
	.p2align	1, 0x90
	.type	_ZNSt6vectorIjN5Botan16secure_allocatorIjEEEixEm,@function
_ZNSt6vectorIjN5Botan16secure_allocatorIjEEEixEm: 

	mov	eax, dword ptr [rip + x.55]
	mov	ecx, dword ptr [rip + y.56]
	lea	edx, [rax - 1]
	imul	edx, eax
	not	edx
	or	edx, -2
	mov	eax, -1
	cmp	edx, eax
	sete	dl
	sete	byte ptr [rsp - 10]
	mov	r8d, -1358217549
	mov	r9d, -1541257940
	mov	eax, -1541257940
	cmove	eax, r8d
	cmp	ecx, 10
	setl	cl
	setl	byte ptr [rsp - 9]
	cmovge	eax, r9d
	xor	cl, dl
	cmovne	eax, r8d
	mov	edx, 105724963
	shl	rsi, 2
	mov	r8d, 733260725
	jmp	.LBB17_1
.LBB17_5:                               
	cmp	edx, 733260725
	je	.LBB17_8

	cmp	edx, 105724963
	jne	.LBB17_1

	mov	r9b, byte ptr [rsp - 10]
	mov	dl, byte ptr [rsp - 9]
	mov	ecx, r9d
	xor	cl, dl
	mov	ecx, -1541257940
	cmovne	ecx, r8d
	test	dl, dl
	mov	edx, ecx
	cmovne	edx, r8d
	test	r9b, r9b
	cmove	edx, ecx
	jmp	.LBB17_1
.LBB17_9:                               
	mov	edx, 733260725
	jmp	.LBB17_1
.LBB17_8:                               
	mov	rcx, qword ptr [rdi]
	add	rcx, rsi
	mov	qword ptr [rsp - 8], rcx
	mov	edx, eax
.LBB17_1:                               
	cmp	edx, 105724962
	jg	.LBB17_5

	cmp	edx, -1541257940
	je	.LBB17_9

	cmp	edx, -1358217549
	jne	.LBB17_1

	mov	rax, qword ptr [rsp - 8]
	ret
.Lfunc_end17:
	.size	_ZNSt6vectorIjN5Botan16secure_allocatorIjEEEixEm, .Lfunc_end17-_ZNSt6vectorIjN5Botan16secure_allocatorIjEEEixEm

	.section	.text._ZN5Botan8copy_memIjEEvPT_PKS1_m,"axG",@progbits,_ZN5Botan8copy_memIjEEvPT_PKS1_m,comdat
	.weak	_ZN5Botan8copy_memIjEEvPT_PKS1_m 
	.type	_ZN5Botan8copy_memIjEEvPT_PKS1_m,@function
_ZN5Botan8copy_memIjEEvPT_PKS1_m:       
	.cfi_startproc

	push	rbp
.Lcfi89:
	.cfi_def_cfa_offset 16
	push	r15
.Lcfi90:
	.cfi_def_cfa_offset 24
	push	r14
.Lcfi91:
	.cfi_def_cfa_offset 32
	push	r13
.Lcfi92:
	.cfi_def_cfa_offset 40
	push	r12
.Lcfi93:
	.cfi_def_cfa_offset 48
	push	rbx
.Lcfi94:
	.cfi_def_cfa_offset 56
	push	rax
.Lcfi95:
	.cfi_def_cfa_offset 64
.Lcfi96:
	.cfi_offset rbx, -56
.Lcfi97:
	.cfi_offset r12, -48
.Lcfi98:
	.cfi_offset r13, -40
.Lcfi99:
	.cfi_offset r14, -32
.Lcfi100:
	.cfi_offset r15, -24
.Lcfi101:
	.cfi_offset rbp, -16
	mov	r14, rdx
	mov	r15, rsi
	mov	r13, rdi
	mov	eax, dword ptr [rip + x.57]
	lea	ecx, [rax - 1]
	imul	ecx, eax
	not	ecx
	or	ecx, -2
	mov	ebp, -1
	cmp	ecx, ebp
	sete	byte ptr [rsp + 4]
	mov	eax, dword ptr [rip + y.58]
	cmp	eax, 10
	setl	byte ptr [rsp + 5]
	test	r15, r15
	sete	al
	test	r13, r13
	sete	r12b
	or	r12b, al
	xor	r12b, 1
	lea	r8, [4*r14]
	mov	eax, -2040253173
.LBB18_1:                               
	cmp	eax, -289320786
	jg	.LBB18_23

	cmp	eax, -1633897782
	jle	.LBB18_3

	cmp	eax, -1088714579
	jle	.LBB18_13

	cmp	eax, -1088714578
	je	.LBB18_47

	cmp	eax, -887416106
	je	.LBB18_60

	cmp	eax, -533468435
	jne	.LBB18_1

	mov	eax, -1209728197
	jmp	.LBB18_1
.LBB18_23:                              
	cmp	eax, 1289620454
	jg	.LBB18_32

	cmp	eax, 41738399
	jle	.LBB18_25

	cmp	eax, 41738400
	je	.LBB18_54

	cmp	eax, 1030674029
	jne	.LBB18_30

	mov	rdi, r13
	mov	rsi, r15
	mov	rdx, r8
	mov	rbx, r8
	call	memmove
	mov	r8, rbx
	jmp	.LBB18_57
.LBB18_3:                               
	cmp	eax, -1792866232
	jg	.LBB18_9

	cmp	eax, -2040253173
	je	.LBB18_41

	cmp	eax, -1870842336
	jne	.LBB18_1

	mov	eax, dword ptr [rip + x.57]
	mov	ecx, dword ptr [rip + y.58]
	lea	edx, [rax - 1]
	imul	edx, eax
	not	edx
	or	edx, -2
	cmp	edx, ebp
	sete	al
	cmp	ecx, 10
	setl	bl
	xor	bl, al
	mov	eax, -1088714578
	mov	esi, -1088714578
	jne	.LBB18_8

	mov	esi, -887416106
.LBB18_8:                               
	cmp	edx, ebp
	cmovne	eax, esi
	cmp	ecx, 10
	mov	byte ptr [rsp + 6], r12b
	cmovge	eax, esi
	jmp	.LBB18_1
.LBB18_32:                              
	cmp	eax, 1726943623
	jg	.LBB18_37

	cmp	eax, 1289620455
	je	.LBB18_44

	cmp	eax, 1549357027
	jne	.LBB18_1

	mov	al, byte ptr [rsp + 3]
	test	al, al
	mov	eax, 1289620455
	jne	.LBB18_1

	mov	eax, -289320785
	jmp	.LBB18_1
.LBB18_25:                              
	cmp	eax, -289320785
	je	.LBB18_49

	cmp	eax, -70619348
	je	.LBB18_27
	jmp	.LBB18_1
.LBB18_9:                               
	cmp	eax, -1792866231
	je	.LBB18_59

	cmp	eax, -1678288873
	jne	.LBB18_1

	mov	eax, 1995719865
	jmp	.LBB18_1
.LBB18_37:                              
	cmp	eax, 1726943624
	je	.LBB18_61

	cmp	eax, 1995719865
	jne	.LBB18_1

	mov	eax, dword ptr [rip + x.57]
	mov	ecx, dword ptr [rip + y.58]
	lea	edx, [rax - 1]
	imul	edx, eax
	mov	eax, edx
	xor	eax, -2
	and	eax, edx
	sete	bl
	test	eax, eax
	mov	eax, -70619348
	mov	edx, -1678288873
	mov	esi, -70619348
	jne	.LBB18_40
	jmp	.LBB18_17
.LBB18_13:                              
	cmp	eax, -1633897781
	je	.LBB18_56

	cmp	eax, -1209728197
	jne	.LBB18_1

	test	r14, r14
	setne	byte ptr [rsp + 3]
	mov	eax, dword ptr [rip + x.57]
	mov	ecx, dword ptr [rip + y.58]
	lea	edx, [rax - 1]
	imul	edx, eax
	mov	eax, edx
	xor	eax, -2
	and	eax, edx
	sete	bl
	test	eax, eax
	mov	eax, 1549357027
	mov	edx, -533468435
	mov	esi, 1549357027
	je	.LBB18_17

	mov	esi, -533468435
	jmp	.LBB18_17
.LBB18_54:                              
	mov	al, byte ptr [rsp + 3]
	xor	al, r12b
	not	al
	and	al, r12b
	mov	byte ptr [rsp + 7], al
	mov	eax, dword ptr [rip + x.57]
	mov	ecx, dword ptr [rip + y.58]
	lea	edx, [rax - 1]
	imul	edx, eax
	not	edx
	or	edx, -2
	cmp	edx, ebp
	sete	bl
	mov	eax, -1633897781
	mov	edx, 1726943624
	mov	esi, -1633897781
	je	.LBB18_17

	mov	esi, 1726943624
	jmp	.LBB18_17
.LBB18_41:                              
	mov	dl, byte ptr [rsp + 4]
	mov	al, byte ptr [rsp + 5]
	mov	ecx, edx
	xor	cl, al
	test	al, al
	mov	esi, -1209728197
	mov	eax, -533468435
	mov	edi, -1209728197
	jne	.LBB18_43

	mov	edi, -533468435
.LBB18_43:                              
	test	dl, dl
	cmovne	eax, edi
	test	cl, cl
	cmovne	eax, esi
	jmp	.LBB18_1
.LBB18_44:                              
	mov	eax, dword ptr [rip + x.57]
	mov	ecx, dword ptr [rip + y.58]
	lea	edx, [rax - 1]
	imul	edx, eax
	not	edx
	or	edx, -2
	cmp	edx, ebp
	sete	al
	cmp	ecx, 10
	setl	bl
	xor	bl, al
	mov	eax, -1870842336
	mov	esi, -1870842336
	jne	.LBB18_46

	mov	esi, -887416106
.LBB18_46:                              
	cmp	edx, ebp
	cmovne	eax, esi
	cmp	ecx, 10
	cmovge	eax, esi
	jmp	.LBB18_1
.LBB18_49:                              
	mov	eax, dword ptr [rip + x.57]
	mov	ecx, dword ptr [rip + y.58]
	mov	edx, eax
	neg	edx
	not	edx
	imul	edx, eax
	not	edx
	or	edx, -2
	cmp	edx, ebp
	sete	al
	cmp	ecx, 10
	setl	bl
	xor	bl, al
	mov	esi, 41738400
	mov	eax, 41738400
	jne	.LBB18_51

	mov	eax, 1726943624
.LBB18_51:                              
	cmp	edx, ebp
	je	.LBB18_53

	mov	esi, eax
.LBB18_53:                              
	cmp	ecx, 10
	cmovl	eax, esi
	jmp	.LBB18_1
.LBB18_59:                              
	mov	eax, dword ptr [rip + x.57]
	mov	ecx, dword ptr [rip + y.58]
	lea	edx, [rax - 1]
	imul	edx, eax
	mov	eax, edx
	xor	eax, -2
	and	eax, edx
	sete	bl
	test	eax, eax
	mov	eax, 1995719865
	mov	edx, -1678288873
	mov	esi, 1995719865
	je	.LBB18_17
.LBB18_40:                              
	mov	esi, -1678288873
.LBB18_17:                              
	cmp	ecx, 10
	setl	cl
	cmovl	edx, esi
	xor	cl, bl
	jne	.LBB18_1

	mov	eax, edx
	jmp	.LBB18_1
.LBB18_61:                              
	mov	al, byte ptr [rsp + 3]
	mov	al, byte ptr [rsp + 3]
	mov	al, byte ptr [rsp + 3]
	mov	al, byte ptr [rsp + 3]
	mov	al, byte ptr [rsp + 3]
	mov	eax, 41738400
	jmp	.LBB18_1
.LBB18_47:                              
	mov	al, byte ptr [rsp + 6]
	test	al, al
	mov	eax, -289320785
	jne	.LBB18_1

	mov	eax, 339613760
	jmp	.LBB18_1
.LBB18_60:                              
	mov	eax, -1870842336
	jmp	.LBB18_1
.LBB18_56:                              
	mov	al, byte ptr [rsp + 7]
	test	al, al
	mov	eax, 1030674029
	jne	.LBB18_1
.LBB18_57:                              
	mov	eax, -1792866231
	jmp	.LBB18_1
.LBB18_30:                              
	cmp	eax, 339613760
	jne	.LBB18_1

	mov	edi, .L.str
	mov	esi, .L.str.1
	mov	edx, .L__func__._ZN5Botan8copy_memIjEEvPT_PKS1_m
	mov	ecx, .L.str.2
	mov	r8d, 130
	call	_ZN5Botan17assertion_failureEPKcS1_S1_S1_i
.LBB18_27:
	add	rsp, 8
	pop	rbx
	pop	r12
	pop	r13
	pop	r14
	pop	r15
	pop	rbp
	ret
.Lfunc_end18:
	.size	_ZN5Botan8copy_memIjEEvPT_PKS1_m, .Lfunc_end18-_ZN5Botan8copy_memIjEEvPT_PKS1_m
	.cfi_endproc

	.text
	.globl	_ZN5Botan9TripleDES5clearEv 
	.p2align	1, 0x90
	.type	_ZN5Botan9TripleDES5clearEv,@function
_ZN5Botan9TripleDES5clearEv:            
	.cfi_startproc

	add	rdi, 8
	jmp	_ZN5Botan3zapIjNS_16secure_allocatorIjEEEEvRSt6vectorIT_T0_E 
.Lfunc_end19:
	.size	_ZN5Botan9TripleDES5clearEv, .Lfunc_end19-_ZN5Botan9TripleDES5clearEv
	.cfi_endproc

	.section	.text._ZN5Botan3DESD2Ev,"axG",@progbits,_ZN5Botan3DESD2Ev,comdat
	.weak	_ZN5Botan3DESD2Ev       
	.p2align	1, 0x90
	.type	_ZN5Botan3DESD2Ev,@function
_ZN5Botan3DESD2Ev:                      

	mov	qword ptr [rdi], _ZTVN5Botan3DESE+16
	add	rdi, 8
	jmp	_ZNSt6vectorIjN5Botan16secure_allocatorIjEEED2Ev 
.Lfunc_end20:
	.size	_ZN5Botan3DESD2Ev, .Lfunc_end20-_ZN5Botan3DESD2Ev

	.section	.text._ZN5Botan3DESD0Ev,"axG",@progbits,_ZN5Botan3DESD0Ev,comdat
	.weak	_ZN5Botan3DESD0Ev       
	.p2align	1, 0x90
	.type	_ZN5Botan3DESD0Ev,@function
_ZN5Botan3DESD0Ev:                      

	push	rbx
	mov	rbx, rdi
	mov	qword ptr [rbx], _ZTVN5Botan3DESE+16
	lea	rdi, [rbx + 8]
	call	_ZNSt6vectorIjN5Botan16secure_allocatorIjEEED2Ev
	mov	rdi, rbx
	pop	rbx
	jmp	_ZdlPv                  
.Lfunc_end21:
	.size	_ZN5Botan3DESD0Ev, .Lfunc_end21-_ZN5Botan3DESD0Ev

	.section	.text._ZNK5Botan25Block_Cipher_Fixed_ParamsILm8ELm8ELm0ELm1ENS_11BlockCipherEE8key_specEv,"axG",@progbits,_ZNK5Botan25Block_Cipher_Fixed_ParamsILm8ELm8ELm0ELm1ENS_11BlockCipherEE8key_specEv,comdat
	.weak	_ZNK5Botan25Block_Cipher_Fixed_ParamsILm8ELm8ELm0ELm1ENS_11BlockCipherEE8key_specEv 
	.p2align	1, 0x90
	.type	_ZNK5Botan25Block_Cipher_Fixed_ParamsILm8ELm8ELm0ELm1ENS_11BlockCipherEE8key_specEv,@function
_ZNK5Botan25Block_Cipher_Fixed_ParamsILm8ELm8ELm0ELm1ENS_11BlockCipherEE8key_specEv: 
	.cfi_startproc

	push	rbx
.Lcfi102:
	.cfi_def_cfa_offset 16
.Lcfi103:
	.cfi_offset rbx, -16
	mov	rbx, rdi
	mov	esi, 8
	xor	edx, edx
	mov	ecx, 1
	call	_ZN5Botan24Key_Length_SpecificationC2Emmm
	mov	rax, rbx
	pop	rbx
	ret
.Lfunc_end22:
	.size	_ZNK5Botan25Block_Cipher_Fixed_ParamsILm8ELm8ELm0ELm1ENS_11BlockCipherEE8key_specEv, .Lfunc_end22-_ZNK5Botan25Block_Cipher_Fixed_ParamsILm8ELm8ELm0ELm1ENS_11BlockCipherEE8key_specEv
	.cfi_endproc

	.section	.text._ZNK5Botan3DES4nameB5cxx11Ev,"axG",@progbits,_ZNK5Botan3DES4nameB5cxx11Ev,comdat
	.weak	_ZNK5Botan3DES4nameB5cxx11Ev 
	.p2align	1, 0x90
	.type	_ZNK5Botan3DES4nameB5cxx11Ev,@function
_ZNK5Botan3DES4nameB5cxx11Ev:           
.Lfunc_begin0:
	.cfi_startproc
	.cfi_personality 3, __gxx_personality_v0
	.cfi_lsda 3, .Lexception0

	push	rbx
.Lcfi104:
	.cfi_def_cfa_offset 16
	sub	rsp, 16
.Lcfi105:
	.cfi_def_cfa_offset 32
.Lcfi106:
	.cfi_offset rbx, -16
	mov	rbx, rdi
.Ltmp0:
	lea	rdx, [rsp + 8]
	mov	esi, .L.str.3
	call	_ZNSt7__cxx1112basic_stringIcSt11char_traitsIcESaIcEEC2EPKcRKS3_
.Ltmp1:

	mov	rax, rbx
	add	rsp, 16
	pop	rbx
	ret
.LBB23_2:
.Ltmp2:
	mov	rdi, rax
	call	_Unwind_Resume
.Lfunc_end23:
	.size	_ZNK5Botan3DES4nameB5cxx11Ev, .Lfunc_end23-_ZNK5Botan3DES4nameB5cxx11Ev
	.cfi_endproc
	.section	.gcc_except_table,"a",@progbits
	.p2align	2
GCC_except_table23:
.Lexception0:
	.byte	255                     
	.byte	3                       
	.asciz	"\234"                  
	.byte	3                       
	.byte	26                      
	.long	.Ltmp0-.Lfunc_begin0    
	.long	.Ltmp1-.Ltmp0           
	.long	.Ltmp2-.Lfunc_begin0    
	.byte	0                       
	.long	.Ltmp1-.Lfunc_begin0    
	.long	.Lfunc_end23-.Ltmp1     
	.long	0                       
	.byte	0                       
	.p2align	2

	.section	.text._ZNK5Botan25Block_Cipher_Fixed_ParamsILm8ELm8ELm0ELm1ENS_11BlockCipherEE10block_sizeEv,"axG",@progbits,_ZNK5Botan25Block_Cipher_Fixed_ParamsILm8ELm8ELm0ELm1ENS_11BlockCipherEE10block_sizeEv,comdat
	.weak	_ZNK5Botan25Block_Cipher_Fixed_ParamsILm8ELm8ELm0ELm1ENS_11BlockCipherEE10block_sizeEv 
	.p2align	1, 0x90
	.type	_ZNK5Botan25Block_Cipher_Fixed_ParamsILm8ELm8ELm0ELm1ENS_11BlockCipherEE10block_sizeEv,@function
_ZNK5Botan25Block_Cipher_Fixed_ParamsILm8ELm8ELm0ELm1ENS_11BlockCipherEE10block_sizeEv: 

	mov	eax, 8
	ret
.Lfunc_end24:
	.size	_ZNK5Botan25Block_Cipher_Fixed_ParamsILm8ELm8ELm0ELm1ENS_11BlockCipherEE10block_sizeEv, .Lfunc_end24-_ZNK5Botan25Block_Cipher_Fixed_ParamsILm8ELm8ELm0ELm1ENS_11BlockCipherEE10block_sizeEv

	.section	.text._ZNK5Botan11BlockCipher11parallelismEv,"axG",@progbits,_ZNK5Botan11BlockCipher11parallelismEv,comdat
	.weak	_ZNK5Botan11BlockCipher11parallelismEv 
	.p2align	1, 0x90
	.type	_ZNK5Botan11BlockCipher11parallelismEv,@function
_ZNK5Botan11BlockCipher11parallelismEv: 

	mov	eax, dword ptr [rip + x.69]
	mov	ecx, dword ptr [rip + y.70]
	lea	edx, [rax - 1]
	imul	edx, eax
	mov	esi, edx
	xor	esi, -2
	and	esi, edx
	sete	byte ptr [rsp - 2]
	sete	al
	cmp	ecx, 10
	setl	dl
	xor	dl, al
	mov	r10d, -1947173477
	mov	edx, -968866347
	cmovne	edx, r10d
	test	esi, esi
	cmovne	r10d, edx
	cmp	ecx, 10
	setl	byte ptr [rsp - 1]
	mov	r8d, -968866347
	cmovge	r10d, edx
	mov	esi, -1081841819
	mov	r9d, -440077632
	jmp	.LBB25_1
.LBB25_3:                               
	cmp	edi, 1065641829
	jne	.LBB25_1

	mov	al, byte ptr [rsp - 2]
	mov	dl, byte ptr [rsp - 1]
	mov	ecx, eax
	xor	cl, dl
	test	dl, dl
	mov	esi, -968866347
	cmovne	esi, r9d
	test	al, al
	cmove	esi, r8d
	test	cl, cl
	cmovne	esi, r9d
	jmp	.LBB25_1
.LBB25_5:                               
	cmp	edi, 1178617301
	je	.LBB25_9

	cmp	edi, 1707406016
	jne	.LBB25_1

	mov	esi, r10d
	jmp	.LBB25_1
.LBB25_9:                               
	mov	esi, -440077632
.LBB25_1:                               
	mov	edi, esi
	and	edi, 2147483647
	cmp	edi, 1178617300
	jg	.LBB25_5

	cmp	edi, 200310171
	jne	.LBB25_3

	mov	eax, 1
	ret
.Lfunc_end25:
	.size	_ZNK5Botan11BlockCipher11parallelismEv, .Lfunc_end25-_ZNK5Botan11BlockCipher11parallelismEv

	.section	.text._ZNK5Botan11BlockCipher8providerB5cxx11Ev,"axG",@progbits,_ZNK5Botan11BlockCipher8providerB5cxx11Ev,comdat
	.weak	_ZNK5Botan11BlockCipher8providerB5cxx11Ev 
	.p2align	1, 0x90
	.type	_ZNK5Botan11BlockCipher8providerB5cxx11Ev,@function
_ZNK5Botan11BlockCipher8providerB5cxx11Ev: 
.Lfunc_begin1:
	.cfi_startproc
	.cfi_personality 3, __gxx_personality_v0
	.cfi_lsda 3, .Lexception1

	push	rbx
.Lcfi107:
	.cfi_def_cfa_offset 16
	sub	rsp, 16
.Lcfi108:
	.cfi_def_cfa_offset 32
.Lcfi109:
	.cfi_offset rbx, -16
	mov	rbx, rdi
.Ltmp3:
	lea	rdx, [rsp + 8]
	mov	esi, .L.str.6
	call	_ZNSt7__cxx1112basic_stringIcSt11char_traitsIcESaIcEEC2EPKcRKS3_
.Ltmp4:

	mov	rax, rbx
	add	rsp, 16
	pop	rbx
	ret
.LBB26_2:
.Ltmp5:
	mov	rdi, rax
	call	_Unwind_Resume
.Lfunc_end26:
	.size	_ZNK5Botan11BlockCipher8providerB5cxx11Ev, .Lfunc_end26-_ZNK5Botan11BlockCipher8providerB5cxx11Ev
	.cfi_endproc
	.section	.gcc_except_table,"a",@progbits
	.p2align	2
GCC_except_table26:
.Lexception1:
	.byte	255                     
	.byte	3                       
	.asciz	"\234"                  
	.byte	3                       
	.byte	26                      
	.long	.Ltmp3-.Lfunc_begin1    
	.long	.Ltmp4-.Ltmp3           
	.long	.Ltmp5-.Lfunc_begin1    
	.byte	0                       
	.long	.Ltmp4-.Lfunc_begin1    
	.long	.Lfunc_end26-.Ltmp4     
	.long	0                       
	.byte	0                       
	.p2align	2

	.section	.text._ZNK5Botan25Block_Cipher_Fixed_ParamsILm8ELm8ELm0ELm1ENS_11BlockCipherEE13encrypt_n_xexEPhPKhm,"axG",@progbits,_ZNK5Botan25Block_Cipher_Fixed_ParamsILm8ELm8ELm0ELm1ENS_11BlockCipherEE13encrypt_n_xexEPhPKhm,comdat
	.weak	_ZNK5Botan25Block_Cipher_Fixed_ParamsILm8ELm8ELm0ELm1ENS_11BlockCipherEE13encrypt_n_xexEPhPKhm 
	.p2align	1, 0x90
	.type	_ZNK5Botan25Block_Cipher_Fixed_ParamsILm8ELm8ELm0ELm1ENS_11BlockCipherEE13encrypt_n_xexEPhPKhm,@function
_ZNK5Botan25Block_Cipher_Fixed_ParamsILm8ELm8ELm0ELm1ENS_11BlockCipherEE13encrypt_n_xexEPhPKhm: 
	.cfi_startproc

	push	rbp
.Lcfi110:
	.cfi_def_cfa_offset 16
	push	r15
.Lcfi111:
	.cfi_def_cfa_offset 24
	push	r14
.Lcfi112:
	.cfi_def_cfa_offset 32
	push	r13
.Lcfi113:
	.cfi_def_cfa_offset 40
	push	r12
.Lcfi114:
	.cfi_def_cfa_offset 48
	push	rbx
.Lcfi115:
	.cfi_def_cfa_offset 56
	push	rax
.Lcfi116:
	.cfi_def_cfa_offset 64
.Lcfi117:
	.cfi_offset rbx, -56
.Lcfi118:
	.cfi_offset r12, -48
.Lcfi119:
	.cfi_offset r13, -40
.Lcfi120:
	.cfi_offset r14, -32
.Lcfi121:
	.cfi_offset r15, -24
.Lcfi122:
	.cfi_offset rbp, -16
	mov	r14, rcx
	mov	r15, rdx
	mov	rbp, rsi
	mov	r12, rdi
	mov	eax, dword ptr [rip + x.71]
	lea	ecx, [rax - 1]
	imul	ecx, eax
	mov	eax, ecx
	xor	eax, -2
	test	eax, ecx
	sete	byte ptr [rsp + 6]
	mov	eax, dword ptr [rip + y.72]
	cmp	eax, 10
	setl	byte ptr [rsp + 7]
	lea	r13, [8*r14]
	mov	eax, -1107813806
	jmp	.LBB27_1
.LBB27_8:                               
	mov	cl, byte ptr [rsp + 6]
	mov	al, byte ptr [rsp + 7]
	mov	edx, ecx
	xor	dl, al
	mov	edx, -166541471
	mov	esi, 435275412
	cmovne	edx, esi
	test	al, al
	mov	eax, edx
	cmovne	eax, esi
	test	cl, cl
	cmove	eax, edx
	jmp	.LBB27_1
.LBB27_9:                               
	mov	rdi, rbp
	mov	rsi, r15
	mov	rdx, r13
	call	_ZN5Botan7xor_bufEPhPKhm
	mov	rax, qword ptr [r12]
	mov	rdi, r12
	mov	rsi, rbp
	mov	rdx, rbp
	mov	rcx, r14
	call	qword ptr [rax + 72]
	mov	rdi, rbp
	mov	rsi, r15
	mov	rdx, r13
	call	_ZN5Botan7xor_bufEPhPKhm
	mov	eax, dword ptr [rip + x.71]
	mov	ecx, dword ptr [rip + y.72]
	lea	edx, [rax - 1]
	imul	edx, eax
	mov	eax, edx
	xor	eax, -2
	and	eax, edx
	sete	dl
	cmp	ecx, 10
	setl	bl
	xor	bl, dl
	mov	edx, -166541471
	mov	esi, 2072420981
	cmovne	edx, esi
	test	eax, eax
	mov	eax, edx
	cmove	eax, esi
	cmp	ecx, 10
	cmovge	eax, edx
.LBB27_1:                               
	cmp	eax, 435275411
	jg	.LBB27_5

	cmp	eax, -1107813806
	je	.LBB27_8

	cmp	eax, -166541471
	jne	.LBB27_1

	mov	rdi, rbp
	mov	rsi, r15
	mov	rdx, r13
	call	_ZN5Botan7xor_bufEPhPKhm
	mov	rax, qword ptr [r12]
	mov	rdi, r12
	mov	rsi, rbp
	mov	rdx, rbp
	mov	rcx, r14
	call	qword ptr [rax + 72]
	mov	rdi, rbp
	mov	rsi, r15
	mov	rdx, r13
	call	_ZN5Botan7xor_bufEPhPKhm
	mov	eax, 435275412
	jmp	.LBB27_1
.LBB27_5:                               
	cmp	eax, 435275412
	je	.LBB27_9

	cmp	eax, 2072420981
	jne	.LBB27_1

	add	rsp, 8
	pop	rbx
	pop	r12
	pop	r13
	pop	r14
	pop	r15
	pop	rbp
	ret
.Lfunc_end27:
	.size	_ZNK5Botan25Block_Cipher_Fixed_ParamsILm8ELm8ELm0ELm1ENS_11BlockCipherEE13encrypt_n_xexEPhPKhm, .Lfunc_end27-_ZNK5Botan25Block_Cipher_Fixed_ParamsILm8ELm8ELm0ELm1ENS_11BlockCipherEE13encrypt_n_xexEPhPKhm
	.cfi_endproc

	.section	.text._ZNK5Botan25Block_Cipher_Fixed_ParamsILm8ELm8ELm0ELm1ENS_11BlockCipherEE13decrypt_n_xexEPhPKhm,"axG",@progbits,_ZNK5Botan25Block_Cipher_Fixed_ParamsILm8ELm8ELm0ELm1ENS_11BlockCipherEE13decrypt_n_xexEPhPKhm,comdat
	.weak	_ZNK5Botan25Block_Cipher_Fixed_ParamsILm8ELm8ELm0ELm1ENS_11BlockCipherEE13decrypt_n_xexEPhPKhm 
	.p2align	1, 0x90
	.type	_ZNK5Botan25Block_Cipher_Fixed_ParamsILm8ELm8ELm0ELm1ENS_11BlockCipherEE13decrypt_n_xexEPhPKhm,@function
_ZNK5Botan25Block_Cipher_Fixed_ParamsILm8ELm8ELm0ELm1ENS_11BlockCipherEE13decrypt_n_xexEPhPKhm: 
	.cfi_startproc

	push	rbp
.Lcfi123:
	.cfi_def_cfa_offset 16
	push	r15
.Lcfi124:
	.cfi_def_cfa_offset 24
	push	r14
.Lcfi125:
	.cfi_def_cfa_offset 32
	push	r13
.Lcfi126:
	.cfi_def_cfa_offset 40
	push	r12
.Lcfi127:
	.cfi_def_cfa_offset 48
	push	rbx
.Lcfi128:
	.cfi_def_cfa_offset 56
	push	rax
.Lcfi129:
	.cfi_def_cfa_offset 64
.Lcfi130:
	.cfi_offset rbx, -56
.Lcfi131:
	.cfi_offset r12, -48
.Lcfi132:
	.cfi_offset r13, -40
.Lcfi133:
	.cfi_offset r14, -32
.Lcfi134:
	.cfi_offset r15, -24
.Lcfi135:
	.cfi_offset rbp, -16
	mov	r14, rcx
	mov	r15, rdx
	mov	rbp, rsi
	mov	r12, rdi
	mov	eax, dword ptr [rip + x.73]
	mov	ecx, eax
	neg	ecx
	not	ecx
	imul	ecx, eax
	not	ecx
	or	ecx, -2
	mov	ebx, -1
	cmp	ecx, ebx
	sete	byte ptr [rsp + 6]
	mov	eax, dword ptr [rip + y.74]
	cmp	eax, 10
	setl	byte ptr [rsp + 7]
	lea	r13, [8*r14]
	mov	eax, 1597679736
	jmp	.LBB28_1
.LBB28_6:                               
	cmp	eax, 1597679736
	jne	.LBB28_1

	mov	cl, byte ptr [rsp + 6]
	mov	al, byte ptr [rsp + 7]
	mov	edx, ecx
	xor	dl, al
	mov	edx, -2070920633
	mov	esi, -342350381
	cmovne	edx, esi
	test	al, al
	mov	eax, edx
	cmovne	eax, esi
	test	cl, cl
	cmove	eax, edx
	jmp	.LBB28_1
.LBB28_9:                               
	mov	rdi, rbp
	mov	rsi, r15
	mov	rdx, r13
	call	_ZN5Botan7xor_bufEPhPKhm
	mov	rax, qword ptr [r12]
	mov	rdi, r12
	mov	rsi, rbp
	mov	rdx, rbp
	mov	rcx, r14
	call	qword ptr [rax + 80]
	mov	rdi, rbp
	mov	rsi, r15
	mov	rdx, r13
	call	_ZN5Botan7xor_bufEPhPKhm
	mov	eax, -342350381
.LBB28_1:                               
	cmp	eax, 730571898
	jg	.LBB28_5

	cmp	eax, -2070920633
	je	.LBB28_9

	cmp	eax, -342350381
	jne	.LBB28_1

	mov	rdi, rbp
	mov	rsi, r15
	mov	rdx, r13
	call	_ZN5Botan7xor_bufEPhPKhm
	mov	rax, qword ptr [r12]
	mov	rdi, r12
	mov	rsi, rbp
	mov	rdx, rbp
	mov	rcx, r14
	call	qword ptr [rax + 80]
	mov	rdi, rbp
	mov	rsi, r15
	mov	rdx, r13
	call	_ZN5Botan7xor_bufEPhPKhm
	mov	eax, dword ptr [rip + x.73]
	mov	ecx, dword ptr [rip + y.74]
	lea	edx, [rax - 1]
	imul	edx, eax
	not	edx
	or	edx, -2
	cmp	edx, ebx
	sete	al
	cmp	ecx, 10
	setl	bl
	xor	bl, al
	mov	ebx, -1
	mov	esi, -2070920633
	mov	edi, 730571899
	cmovne	esi, edi
	cmp	edx, ebx
	mov	eax, esi
	cmove	eax, edi
	cmp	ecx, 10
	cmovge	eax, esi
	jmp	.LBB28_1
.LBB28_5:                               
	cmp	eax, 730571899
	jne	.LBB28_6

	add	rsp, 8
	pop	rbx
	pop	r12
	pop	r13
	pop	r14
	pop	r15
	pop	rbp
	ret
.Lfunc_end28:
	.size	_ZNK5Botan25Block_Cipher_Fixed_ParamsILm8ELm8ELm0ELm1ENS_11BlockCipherEE13decrypt_n_xexEPhPKhm, .Lfunc_end28-_ZNK5Botan25Block_Cipher_Fixed_ParamsILm8ELm8ELm0ELm1ENS_11BlockCipherEE13decrypt_n_xexEPhPKhm
	.cfi_endproc

	.section	.text._ZNK5Botan3DES10new_objectEv,"axG",@progbits,_ZNK5Botan3DES10new_objectEv,comdat
	.weak	_ZNK5Botan3DES10new_objectEv 
	.p2align	1, 0x90
	.type	_ZNK5Botan3DES10new_objectEv,@function
_ZNK5Botan3DES10new_objectEv:           
.Lfunc_begin2:
	.cfi_startproc
	.cfi_personality 3, __gxx_personality_v0
	.cfi_lsda 3, .Lexception2

	push	r15
.Lcfi136:
	.cfi_def_cfa_offset 16
	push	r14
.Lcfi137:
	.cfi_def_cfa_offset 24
	push	rbx
.Lcfi138:
	.cfi_def_cfa_offset 32
	sub	rsp, 16
.Lcfi139:
	.cfi_def_cfa_offset 48
.Lcfi140:
	.cfi_offset rbx, -32
.Lcfi141:
	.cfi_offset r14, -24
.Lcfi142:
	.cfi_offset r15, -16
	mov	r14, rdi
	mov	edi, 32
	call	_Znwm
	mov	rbx, rax
	xorps	xmm0, xmm0
	movaps	xmmword ptr [rbx], xmm0
	movaps	xmmword ptr [rbx + 16], xmm0
	mov	qword ptr [rbx], _ZTVN5Botan3DESE+16
	lea	rdi, [rbx + 8]
.Ltmp6:
	call	_ZNSt12_Vector_baseIjN5Botan16secure_allocatorIjEEEC2Ev
.Ltmp7:

	lea	r15, [rsp + 8]
	mov	rdi, r15
	mov	rsi, rbx
	call	_ZNSt10unique_ptrIN5Botan3DESESt14default_deleteIS1_EEC2IS3_vEEPS1_
	mov	rdi, r14
	mov	rsi, r15
	call	_ZNSt10unique_ptrIN5Botan11BlockCipherESt14default_deleteIS1_EEC2INS0_3DESES2_IS6_EvEEOS_IT_T0_E
	mov	rdi, r15
	call	_ZNSt10unique_ptrIN5Botan3DESESt14default_deleteIS1_EED2Ev
	mov	rax, r14
	add	rsp, 16
	pop	rbx
	pop	r14
	pop	r15
	ret
.LBB29_2:
.Ltmp8:
	mov	rdi, rax
	call	__clang_call_terminate
.Lfunc_end29:
	.size	_ZNK5Botan3DES10new_objectEv, .Lfunc_end29-_ZNK5Botan3DES10new_objectEv
	.cfi_endproc
	.section	.gcc_except_table,"a",@progbits
	.p2align	2
GCC_except_table29:
.Lexception2:
	.byte	255                     
	.byte	3                       
	.asciz	"\242\200\200"          
	.byte	3                       
	.byte	26                      
	.long	.Lfunc_begin2-.Lfunc_begin2 
	.long	.Ltmp6-.Lfunc_begin2    
	.long	0                       
	.byte	0                       
	.long	.Ltmp6-.Lfunc_begin2    
	.long	.Ltmp7-.Ltmp6           
	.long	.Ltmp8-.Lfunc_begin2    
	.byte	1                       
	.byte	1                       

	.byte	0                       

	.long	0                       
	.p2align	2

	.section	.text._ZN5Botan9TripleDESD2Ev,"axG",@progbits,_ZN5Botan9TripleDESD2Ev,comdat
	.weak	_ZN5Botan9TripleDESD2Ev 
	.p2align	1, 0x90
	.type	_ZN5Botan9TripleDESD2Ev,@function
_ZN5Botan9TripleDESD2Ev:                

	mov	qword ptr [rdi], _ZTVN5Botan9TripleDESE+16
	add	rdi, 8
	jmp	_ZNSt6vectorIjN5Botan16secure_allocatorIjEEED2Ev 
.Lfunc_end30:
	.size	_ZN5Botan9TripleDESD2Ev, .Lfunc_end30-_ZN5Botan9TripleDESD2Ev

	.section	.text._ZN5Botan9TripleDESD0Ev,"axG",@progbits,_ZN5Botan9TripleDESD0Ev,comdat
	.weak	_ZN5Botan9TripleDESD0Ev 
	.p2align	1, 0x90
	.type	_ZN5Botan9TripleDESD0Ev,@function
_ZN5Botan9TripleDESD0Ev:                

	push	rbx
	mov	rbx, rdi
	mov	qword ptr [rbx], _ZTVN5Botan9TripleDESE+16
	lea	rdi, [rbx + 8]
	call	_ZNSt6vectorIjN5Botan16secure_allocatorIjEEED2Ev
	mov	rdi, rbx
	pop	rbx
	jmp	_ZdlPv                  
.Lfunc_end31:
	.size	_ZN5Botan9TripleDESD0Ev, .Lfunc_end31-_ZN5Botan9TripleDESD0Ev

	.section	.text._ZNK5Botan25Block_Cipher_Fixed_ParamsILm8ELm16ELm24ELm8ENS_11BlockCipherEE8key_specEv,"axG",@progbits,_ZNK5Botan25Block_Cipher_Fixed_ParamsILm8ELm16ELm24ELm8ENS_11BlockCipherEE8key_specEv,comdat
	.weak	_ZNK5Botan25Block_Cipher_Fixed_ParamsILm8ELm16ELm24ELm8ENS_11BlockCipherEE8key_specEv 
	.p2align	1, 0x90
	.type	_ZNK5Botan25Block_Cipher_Fixed_ParamsILm8ELm16ELm24ELm8ENS_11BlockCipherEE8key_specEv,@function
_ZNK5Botan25Block_Cipher_Fixed_ParamsILm8ELm16ELm24ELm8ENS_11BlockCipherEE8key_specEv: 
	.cfi_startproc

	push	rbp
.Lcfi143:
	.cfi_def_cfa_offset 16
	push	r15
.Lcfi144:
	.cfi_def_cfa_offset 24
	push	r14
.Lcfi145:
	.cfi_def_cfa_offset 32
	push	r12
.Lcfi146:
	.cfi_def_cfa_offset 40
	push	rbx
.Lcfi147:
	.cfi_def_cfa_offset 48
	sub	rsp, 16
.Lcfi148:
	.cfi_def_cfa_offset 64
.Lcfi149:
	.cfi_offset rbx, -48
.Lcfi150:
	.cfi_offset r12, -40
.Lcfi151:
	.cfi_offset r14, -32
.Lcfi152:
	.cfi_offset r15, -24
.Lcfi153:
	.cfi_offset rbp, -16
	mov	eax, dword ptr [rip + x.81]
	mov	ecx, eax
	neg	ecx
	not	ecx
	imul	ecx, eax
	not	ecx
	or	ecx, -2
	mov	r12d, -1
	cmp	ecx, r12d
	sete	byte ptr [rsp + 14]
	mov	eax, dword ptr [rip + y.82]
	cmp	eax, 10
	setl	byte ptr [rsp + 15]
	mov	rbp, rdi
	mov	eax, 1488263717
	mov	r14d, -1942018493
	mov	r15d, -645743105
	jmp	.LBB32_1
.LBB32_3:                               
	cmp	eax, -645743105
	jne	.LBB32_1

	mov	esi, 16
	mov	edx, 24
	mov	ecx, 8
	mov	rdi, rbp
	call	_ZN5Botan24Key_Length_SpecificationC2Emmm
	mov	eax, dword ptr [rip + x.81]
	mov	ecx, dword ptr [rip + y.82]
	lea	edx, [rax - 1]
	imul	edx, eax
	not	edx
	or	edx, -2
	cmp	edx, r12d
	sete	al
	cmp	ecx, 10
	setl	bl
	xor	bl, al
	mov	esi, 761130726
	cmovne	esi, r14d
	cmp	edx, r12d
	mov	eax, esi
	cmove	eax, r14d
	cmp	ecx, 10
	cmovge	eax, esi
	jmp	.LBB32_1
.LBB32_5:                               
	cmp	eax, 761130726
	je	.LBB32_9

	cmp	eax, 1488263717
	jne	.LBB32_1

	mov	cl, byte ptr [rsp + 14]
	mov	al, byte ptr [rsp + 15]
	mov	edx, ecx
	xor	dl, al
	mov	edx, 761130726
	cmovne	edx, r15d
	test	al, al
	mov	eax, edx
	cmovne	eax, r15d
	test	cl, cl
	cmove	eax, edx
	jmp	.LBB32_1
.LBB32_9:                               
	mov	esi, 16
	mov	edx, 24
	mov	ecx, 8
	mov	rdi, rbp
	call	_ZN5Botan24Key_Length_SpecificationC2Emmm
	mov	eax, -645743105
.LBB32_1:                               
	cmp	eax, 761130725
	jg	.LBB32_5

	cmp	eax, -1942018493
	jne	.LBB32_3

	mov	rax, rbp
	add	rsp, 16
	pop	rbx
	pop	r12
	pop	r14
	pop	r15
	pop	rbp
	ret
.Lfunc_end32:
	.size	_ZNK5Botan25Block_Cipher_Fixed_ParamsILm8ELm16ELm24ELm8ENS_11BlockCipherEE8key_specEv, .Lfunc_end32-_ZNK5Botan25Block_Cipher_Fixed_ParamsILm8ELm16ELm24ELm8ENS_11BlockCipherEE8key_specEv
	.cfi_endproc

	.section	.text._ZNK5Botan9TripleDES4nameB5cxx11Ev,"axG",@progbits,_ZNK5Botan9TripleDES4nameB5cxx11Ev,comdat
	.weak	_ZNK5Botan9TripleDES4nameB5cxx11Ev 
	.p2align	1, 0x90
	.type	_ZNK5Botan9TripleDES4nameB5cxx11Ev,@function
_ZNK5Botan9TripleDES4nameB5cxx11Ev:     
.Lfunc_begin3:
	.cfi_startproc
	.cfi_personality 3, __gxx_personality_v0
	.cfi_lsda 3, .Lexception3

	push	rbx
.Lcfi154:
	.cfi_def_cfa_offset 16
	sub	rsp, 16
.Lcfi155:
	.cfi_def_cfa_offset 32
.Lcfi156:
	.cfi_offset rbx, -16
	mov	rbx, rdi
.Ltmp9:
	lea	rdx, [rsp + 8]
	mov	esi, .L.str.7
	call	_ZNSt7__cxx1112basic_stringIcSt11char_traitsIcESaIcEEC2EPKcRKS3_
.Ltmp10:

	mov	rax, rbx
	add	rsp, 16
	pop	rbx
	ret
.LBB33_2:
.Ltmp11:
	mov	rdi, rax
	call	_Unwind_Resume
.Lfunc_end33:
	.size	_ZNK5Botan9TripleDES4nameB5cxx11Ev, .Lfunc_end33-_ZNK5Botan9TripleDES4nameB5cxx11Ev
	.cfi_endproc
	.section	.gcc_except_table,"a",@progbits
	.p2align	2
GCC_except_table33:
.Lexception3:
	.byte	255                     
	.byte	3                       
	.asciz	"\234"                  
	.byte	3                       
	.byte	26                      
	.long	.Ltmp9-.Lfunc_begin3    
	.long	.Ltmp10-.Ltmp9          
	.long	.Ltmp11-.Lfunc_begin3   
	.byte	0                       
	.long	.Ltmp10-.Lfunc_begin3   
	.long	.Lfunc_end33-.Ltmp10    
	.long	0                       
	.byte	0                       
	.p2align	2

	.section	.text._ZNK5Botan25Block_Cipher_Fixed_ParamsILm8ELm16ELm24ELm8ENS_11BlockCipherEE10block_sizeEv,"axG",@progbits,_ZNK5Botan25Block_Cipher_Fixed_ParamsILm8ELm16ELm24ELm8ENS_11BlockCipherEE10block_sizeEv,comdat
	.weak	_ZNK5Botan25Block_Cipher_Fixed_ParamsILm8ELm16ELm24ELm8ENS_11BlockCipherEE10block_sizeEv 
	.p2align	1, 0x90
	.type	_ZNK5Botan25Block_Cipher_Fixed_ParamsILm8ELm16ELm24ELm8ENS_11BlockCipherEE10block_sizeEv,@function
_ZNK5Botan25Block_Cipher_Fixed_ParamsILm8ELm16ELm24ELm8ENS_11BlockCipherEE10block_sizeEv: 

	mov	eax, dword ptr [rip + x.83]
	mov	ecx, dword ptr [rip + y.84]
	mov	edx, eax
	neg	edx
	not	edx
	imul	edx, eax
	mov	eax, edx
	xor	eax, -2
	and	eax, edx
	sete	dl
	sete	byte ptr [rsp - 2]
	test	eax, eax
	mov	esi, 450289872
	mov	edi, 326720825
	mov	eax, 326720825
	cmove	eax, esi
	cmp	ecx, 10
	setl	cl
	setl	byte ptr [rsp - 1]
	cmovge	eax, edi
	xor	cl, dl
	cmovne	eax, esi
	mov	edx, 646179429
	mov	esi, -937337225
	jmp	.LBB34_1
.LBB34_5:                               
	cmp	edx, 646179429
	jne	.LBB34_1

	mov	dil, byte ptr [rsp - 2]
	mov	dl, byte ptr [rsp - 1]
	mov	ecx, edi
	xor	cl, dl
	mov	ecx, 326720825
	cmovne	ecx, esi
	test	dl, dl
	mov	edx, ecx
	cmovne	edx, esi
	test	dil, dil
	cmove	edx, ecx
	jmp	.LBB34_1
.LBB34_3:                               
	mov	edx, eax
.LBB34_1:                               
	cmp	edx, 450289871
	jg	.LBB34_4

	cmp	edx, -937337225
	je	.LBB34_3

	cmp	edx, 326720825
	jne	.LBB34_1

	mov	edx, -937337225
	jmp	.LBB34_1
.LBB34_4:                               
	cmp	edx, 450289872
	jne	.LBB34_5

	mov	eax, 8
	ret
.Lfunc_end34:
	.size	_ZNK5Botan25Block_Cipher_Fixed_ParamsILm8ELm16ELm24ELm8ENS_11BlockCipherEE10block_sizeEv, .Lfunc_end34-_ZNK5Botan25Block_Cipher_Fixed_ParamsILm8ELm16ELm24ELm8ENS_11BlockCipherEE10block_sizeEv

	.section	.text._ZNK5Botan25Block_Cipher_Fixed_ParamsILm8ELm16ELm24ELm8ENS_11BlockCipherEE13encrypt_n_xexEPhPKhm,"axG",@progbits,_ZNK5Botan25Block_Cipher_Fixed_ParamsILm8ELm16ELm24ELm8ENS_11BlockCipherEE13encrypt_n_xexEPhPKhm,comdat
	.weak	_ZNK5Botan25Block_Cipher_Fixed_ParamsILm8ELm16ELm24ELm8ENS_11BlockCipherEE13encrypt_n_xexEPhPKhm 
	.p2align	1, 0x90
	.type	_ZNK5Botan25Block_Cipher_Fixed_ParamsILm8ELm16ELm24ELm8ENS_11BlockCipherEE13encrypt_n_xexEPhPKhm,@function
_ZNK5Botan25Block_Cipher_Fixed_ParamsILm8ELm16ELm24ELm8ENS_11BlockCipherEE13encrypt_n_xexEPhPKhm: 
	.cfi_startproc

	push	rbp
.Lcfi157:
	.cfi_def_cfa_offset 16
	push	r15
.Lcfi158:
	.cfi_def_cfa_offset 24
	push	r14
.Lcfi159:
	.cfi_def_cfa_offset 32
	push	r13
.Lcfi160:
	.cfi_def_cfa_offset 40
	push	r12
.Lcfi161:
	.cfi_def_cfa_offset 48
	push	rbx
.Lcfi162:
	.cfi_def_cfa_offset 56
	push	rax
.Lcfi163:
	.cfi_def_cfa_offset 64
.Lcfi164:
	.cfi_offset rbx, -56
.Lcfi165:
	.cfi_offset r12, -48
.Lcfi166:
	.cfi_offset r13, -40
.Lcfi167:
	.cfi_offset r14, -32
.Lcfi168:
	.cfi_offset r15, -24
.Lcfi169:
	.cfi_offset rbp, -16
	mov	r14, rcx
	mov	r15, rdx
	mov	rbp, rsi
	mov	r12, rdi
	mov	eax, dword ptr [rip + x.85]
	lea	ecx, [rax - 1]
	imul	ecx, eax
	mov	eax, ecx
	xor	eax, -2
	test	eax, ecx
	sete	byte ptr [rsp + 6]
	mov	eax, dword ptr [rip + y.86]
	cmp	eax, 10
	setl	byte ptr [rsp + 7]
	lea	r13, [8*r14]
	mov	eax, 869619969
	jmp	.LBB35_1
.LBB35_5:                               
	cmp	eax, 1825063950
	je	.LBB35_9

	cmp	eax, 869619969
	jne	.LBB35_1

	mov	cl, byte ptr [rsp + 6]
	mov	al, byte ptr [rsp + 7]
	mov	edx, ecx
	xor	dl, al
	mov	edx, 1825063950
	mov	esi, -1043769814
	cmovne	edx, esi
	test	al, al
	mov	eax, edx
	cmovne	eax, esi
	test	cl, cl
	cmove	eax, edx
	jmp	.LBB35_1
.LBB35_8:                               
	mov	rdi, rbp
	mov	rsi, r15
	mov	rdx, r13
	call	_ZN5Botan7xor_bufEPhPKhm
	mov	rax, qword ptr [r12]
	mov	rdi, r12
	mov	rsi, rbp
	mov	rdx, rbp
	mov	rcx, r14
	call	qword ptr [rax + 72]
	mov	rdi, rbp
	mov	rsi, r15
	mov	rdx, r13
	call	_ZN5Botan7xor_bufEPhPKhm
	mov	eax, dword ptr [rip + x.85]
	mov	ecx, dword ptr [rip + y.86]
	lea	edx, [rax - 1]
	imul	edx, eax
	mov	eax, edx
	xor	eax, -2
	and	eax, edx
	sete	dl
	cmp	ecx, 10
	setl	bl
	xor	bl, dl
	mov	edx, 1825063950
	mov	esi, 510185526
	cmovne	edx, esi
	test	eax, eax
	mov	eax, edx
	cmove	eax, esi
	cmp	ecx, 10
	cmovge	eax, edx
	jmp	.LBB35_1
.LBB35_9:                               
	mov	rdi, rbp
	mov	rsi, r15
	mov	rdx, r13
	call	_ZN5Botan7xor_bufEPhPKhm
	mov	rax, qword ptr [r12]
	mov	rdi, r12
	mov	rsi, rbp
	mov	rdx, rbp
	mov	rcx, r14
	call	qword ptr [rax + 72]
	mov	rdi, rbp
	mov	rsi, r15
	mov	rdx, r13
	call	_ZN5Botan7xor_bufEPhPKhm
	mov	eax, -1043769814
.LBB35_1:                               
	cmp	eax, 869619968
	jg	.LBB35_5

	cmp	eax, -1043769814
	je	.LBB35_8

	cmp	eax, 510185526
	jne	.LBB35_1

	add	rsp, 8
	pop	rbx
	pop	r12
	pop	r13
	pop	r14
	pop	r15
	pop	rbp
	ret
.Lfunc_end35:
	.size	_ZNK5Botan25Block_Cipher_Fixed_ParamsILm8ELm16ELm24ELm8ENS_11BlockCipherEE13encrypt_n_xexEPhPKhm, .Lfunc_end35-_ZNK5Botan25Block_Cipher_Fixed_ParamsILm8ELm16ELm24ELm8ENS_11BlockCipherEE13encrypt_n_xexEPhPKhm
	.cfi_endproc

	.section	.text._ZNK5Botan25Block_Cipher_Fixed_ParamsILm8ELm16ELm24ELm8ENS_11BlockCipherEE13decrypt_n_xexEPhPKhm,"axG",@progbits,_ZNK5Botan25Block_Cipher_Fixed_ParamsILm8ELm16ELm24ELm8ENS_11BlockCipherEE13decrypt_n_xexEPhPKhm,comdat
	.weak	_ZNK5Botan25Block_Cipher_Fixed_ParamsILm8ELm16ELm24ELm8ENS_11BlockCipherEE13decrypt_n_xexEPhPKhm 
	.p2align	1, 0x90
	.type	_ZNK5Botan25Block_Cipher_Fixed_ParamsILm8ELm16ELm24ELm8ENS_11BlockCipherEE13decrypt_n_xexEPhPKhm,@function
_ZNK5Botan25Block_Cipher_Fixed_ParamsILm8ELm16ELm24ELm8ENS_11BlockCipherEE13decrypt_n_xexEPhPKhm: 
	.cfi_startproc

	push	r15
.Lcfi170:
	.cfi_def_cfa_offset 16
	push	r14
.Lcfi171:
	.cfi_def_cfa_offset 24
	push	r13
.Lcfi172:
	.cfi_def_cfa_offset 32
	push	r12
.Lcfi173:
	.cfi_def_cfa_offset 40
	push	rbx
.Lcfi174:
	.cfi_def_cfa_offset 48
.Lcfi175:
	.cfi_offset rbx, -48
.Lcfi176:
	.cfi_offset r12, -40
.Lcfi177:
	.cfi_offset r13, -32
.Lcfi178:
	.cfi_offset r14, -24
.Lcfi179:
	.cfi_offset r15, -16
	mov	r15, rcx
	mov	r14, rdx
	mov	rbx, rsi
	mov	r12, rdi
	lea	r13, [8*r15]
	mov	rdi, rbx
	mov	rsi, r14
	mov	rdx, r13
	call	_ZN5Botan7xor_bufEPhPKhm
	mov	rax, qword ptr [r12]
	mov	rdi, r12
	mov	rsi, rbx
	mov	rdx, rbx
	mov	rcx, r15
	call	qword ptr [rax + 80]
	mov	rdi, rbx
	mov	rsi, r14
	mov	rdx, r13
	pop	rbx
	pop	r12
	pop	r13
	pop	r14
	pop	r15
	jmp	_ZN5Botan7xor_bufEPhPKhm 
.Lfunc_end36:
	.size	_ZNK5Botan25Block_Cipher_Fixed_ParamsILm8ELm16ELm24ELm8ENS_11BlockCipherEE13decrypt_n_xexEPhPKhm, .Lfunc_end36-_ZNK5Botan25Block_Cipher_Fixed_ParamsILm8ELm16ELm24ELm8ENS_11BlockCipherEE13decrypt_n_xexEPhPKhm
	.cfi_endproc

	.section	.text._ZNK5Botan9TripleDES10new_objectEv,"axG",@progbits,_ZNK5Botan9TripleDES10new_objectEv,comdat
	.weak	_ZNK5Botan9TripleDES10new_objectEv 
	.p2align	1, 0x90
	.type	_ZNK5Botan9TripleDES10new_objectEv,@function
_ZNK5Botan9TripleDES10new_objectEv:     
.Lfunc_begin4:
	.cfi_startproc
	.cfi_personality 3, __gxx_personality_v0
	.cfi_lsda 3, .Lexception4

	push	rbp
.Lcfi180:
	.cfi_def_cfa_offset 16
.Lcfi181:
	.cfi_offset rbp, -16
	mov	rbp, rsp
.Lcfi182:
	.cfi_def_cfa_register rbp
	push	r15
	push	r14
	push	r13
	push	r12
	push	rbx
	push	rax
.Lcfi183:
	.cfi_offset rbx, -56
.Lcfi184:
	.cfi_offset r12, -48
.Lcfi185:
	.cfi_offset r13, -40
.Lcfi186:
	.cfi_offset r14, -32
.Lcfi187:
	.cfi_offset r15, -24
	mov	r14, rdi
	mov	eax, dword ptr [rip + x.89]
	mov	ecx, dword ptr [rip + y.90]
	lea	edx, [rax - 1]
	imul	edx, eax
	not	edx
	or	edx, -2
	mov	eax, -1
	cmp	edx, eax
	sete	byte ptr [rbp - 41]
	cmp	ecx, 10
	setl	byte ptr [rbp - 42]
	mov	eax, -446150497
	mov	r12d, -1698286100
	mov	r13d, 801598224
	jmp	.LBB37_1
.LBB37_3:                               
	cmp	eax, -1665747188
	jne	.LBB37_1

	mov	rbx, rsp
	add	rbx, -16
	mov	rsp, rbx
	mov	edi, 32
	call	_Znwm
	mov	r15, rax
	xorps	xmm0, xmm0
	movaps	xmmword ptr [r15 + 16], xmm0
	movaps	xmmword ptr [r15], xmm0
	mov	rdi, r15
	call	_ZN5Botan9TripleDESC2Ev
.Ltmp12:
	mov	rdi, rbx
	mov	rsi, r15
	call	_ZNSt15__uniq_ptr_implIN5Botan9TripleDESESt14default_deleteIS1_EEC2EPS1_
.Ltmp13:

	mov	rdi, r14
	mov	rsi, rbx
	call	_ZNSt10unique_ptrIN5Botan11BlockCipherESt14default_deleteIS1_EEC2INS0_9TripleDESES2_IS6_EvEEOS_IT_T0_E
	mov	rdi, rbx
	call	_ZNSt10unique_ptrIN5Botan9TripleDESESt14default_deleteIS1_EED2Ev
	mov	eax, 801598224
	jmp	.LBB37_1
.LBB37_6:                               
	cmp	eax, 801598224
	je	.LBB37_10

	cmp	eax, -446150497
	jne	.LBB37_1

	mov	cl, byte ptr [rbp - 41]
	mov	al, byte ptr [rbp - 42]
	mov	edx, ecx
	xor	dl, al
	test	al, al
	mov	eax, -1665747188
	cmovne	eax, r13d
	test	cl, cl
	mov	ecx, -1665747188
	cmove	eax, ecx
	test	dl, dl
	cmovne	eax, r13d
	jmp	.LBB37_1
.LBB37_10:                              
	mov	rbx, rsp
	add	rbx, -16
	mov	rsp, rbx
	mov	edi, 32
	call	_Znwm
	mov	r15, rax
	xorps	xmm0, xmm0
	movaps	xmmword ptr [r15 + 16], xmm0
	movaps	xmmword ptr [r15], xmm0
	mov	rdi, r15
	call	_ZN5Botan9TripleDESC2Ev
.Ltmp15:
	mov	rdi, rbx
	mov	rsi, r15
	call	_ZNSt15__uniq_ptr_implIN5Botan9TripleDESESt14default_deleteIS1_EEC2EPS1_
.Ltmp16:

	mov	rdi, r14
	mov	rsi, rbx
	call	_ZNSt10unique_ptrIN5Botan11BlockCipherESt14default_deleteIS1_EEC2INS0_9TripleDESES2_IS6_EvEEOS_IT_T0_E
	mov	rdi, rbx
	call	_ZNSt10unique_ptrIN5Botan9TripleDESESt14default_deleteIS1_EED2Ev
	mov	eax, dword ptr [rip + x.89]
	mov	ecx, dword ptr [rip + y.90]
	lea	edx, [rax - 1]
	imul	edx, eax
	mov	eax, edx
	xor	eax, -2
	and	eax, edx
	sete	dl
	cmp	ecx, 10
	setl	bl
	xor	bl, dl
	mov	edx, -1665747188
	cmovne	edx, r12d
	test	eax, eax
	mov	eax, edx
	cmove	eax, r12d
	cmp	ecx, 10
	cmovge	eax, edx
.LBB37_1:                               
	cmp	eax, -446150498
	jg	.LBB37_6

	cmp	eax, -1698286100
	jne	.LBB37_3

	mov	rax, r14
	lea	rsp, [rbp - 40]
	pop	rbx
	pop	r12
	pop	r13
	pop	r14
	pop	r15
	pop	rbp
	ret
.LBB37_9:
.Ltmp17:
	mov	rdi, rax
	call	__clang_call_terminate
.LBB37_13:
.Ltmp14:
	mov	rdi, rax
	call	__clang_call_terminate
.Lfunc_end37:
	.size	_ZNK5Botan9TripleDES10new_objectEv, .Lfunc_end37-_ZNK5Botan9TripleDES10new_objectEv
	.cfi_endproc
	.section	.gcc_except_table,"a",@progbits
	.p2align	2
GCC_except_table37:
.Lexception4:
	.byte	255                     
	.byte	3                       
	.asciz	"\274"                  
	.byte	3                       
	.byte	52                      
	.long	.Lfunc_begin4-.Lfunc_begin4 
	.long	.Ltmp12-.Lfunc_begin4   
	.long	0                       
	.byte	0                       
	.long	.Ltmp12-.Lfunc_begin4   
	.long	.Ltmp13-.Ltmp12         
	.long	.Ltmp14-.Lfunc_begin4   
	.byte	1                       
	.long	.Ltmp13-.Lfunc_begin4   
	.long	.Ltmp15-.Ltmp13         
	.long	0                       
	.byte	0                       
	.long	.Ltmp15-.Lfunc_begin4   
	.long	.Ltmp16-.Ltmp15         
	.long	.Ltmp17-.Lfunc_begin4   
	.byte	1                       
	.byte	1                       

	.byte	0                       

	.long	0                       
	.p2align	2

	.text
	.type	_ZN5Botan12_GLOBAL__N_15spboxEjj,@function 
_ZN5Botan12_GLOBAL__N_15spboxEjj:       

	push	rbp
	push	r15
	push	r14
	push	r13
	push	r12
	push	rbx

	mov	eax, dword ptr [rip + x.109]
	mov	ecx, dword ptr [rip + y.110]
	lea	edx, [rax - 1]
	imul	edx, eax
	not	edx
	or	edx, -2
	mov	ebp, -1
	cmp	edx, ebp
	sete	bl
	cmp	ecx, 10
	setl	al
	xor	al, bl
	mov	r8d, -964419737
	mov	eax, 1998611211
	cmovne	eax, r8d
	cmp	edx, ebp
	sete	byte ptr [rsp - 6]
	cmovne	r8d, eax
	cmp	ecx, 10
	setl	byte ptr [rsp - 5]
	cmovge	r8d, eax
	mov	r11d, edi
	mov	ecx, edi
	mov	r12d, edi
	xor	r12d, -64
	and	r12d, edi
	shr	edi, 24
	mov	r10d, edi
	xor	r10d, 192
	and	r10d, edi
	mov	eax, esi
	shr	eax, 24
	not	eax
	or	eax, 1862352832
	and	eax, 1862352895
	xor	eax, 1862352831
	shr	r11d, 16
	mov	edi, r11d
	not	edi
	or	edi, -953932544
	and	edi, -953932518
	and	r11d, 37
	or	r11d, edi
	xor	r11d, -953932390
	mov	edi, esi
	shr	edi, 16
	or	edi, 192
	movzx	r9d, dil
	shr	ecx, 8
	mov	r15d, ecx
	xor	r15d, 16777152
	and	r15d, ecx
	mov	ecx, r15d
	and	ecx, 256
	xor	r15d, 256
	or	r15d, ecx
	mov	r13d, esi
	shr	r13d, 8
	mov	ebx, r13d
	not	ebx
	or	ebx, 1823262912
	and	ebx, 1823262964
	and	r13d, 11
	or	r13d, ebx
	xor	r13d, 1823263156
	mov	ebx, r12d
	not	ebx
	and	ebx, 614455235
	mov	ebp, r12d
	and	ebp, -614455236
	or	ebp, ebx
	xor	ebp, 614454851
	and	r12d, 384
	or	r12d, ebp
	mov	ebx, esi
	not	ebx
	or	ebx, -982619008
	and	ebx, -982618986
	and	esi, 41
	or	esi, ebx
	xor	esi, -982618794
	mov	ebx, 1547022634
	mov	r14d, 1671968285
	jmp	.LBB38_1
.LBB38_3:                               
	cmp	ebx, 1547022634
	jne	.LBB38_1

	mov	dl, byte ptr [rsp - 6]
	mov	bl, byte ptr [rsp - 5]
	mov	ecx, edx
	xor	cl, bl
	mov	ecx, 1998611211
	cmovne	ecx, r14d
	test	bl, bl
	mov	ebx, ecx
	cmovne	ebx, r14d
	test	dl, dl
	cmove	ebx, ecx
	jmp	.LBB38_1
.LBB38_5:                               
	cmp	ebx, 1671968285
	je	.LBB38_8

	cmp	ebx, 1998611211
	jne	.LBB38_1

	mov	ebx, 1671968285
	jmp	.LBB38_1
.LBB38_8:                               
	movzx	ecx, byte ptr [r10 + _ZN5Botan12_GLOBAL__N_1L10SPBOX_CATSE]
	imul	ecx, ecx, 1879314694
	mov	ebx, ecx
	xor	ebx, -16843782
	and	ebx, ecx
	movzx	ecx, byte ptr [rax + _ZN5Botan12_GLOBAL__N_1L10SPBOX_CATSE]
	imul	ecx, ecx, 33628192
	mov	edx, ecx
	xor	edx, 2146402240
	and	edx, ecx
	mov	ebp, edx
	not	ebp
	mov	ecx, ebx
	not	ecx
	mov	edi, ebp
	and	edi, 141192934
	and	edx, -141192960
	or	edx, edi
	or	ebp, ecx
	and	ecx, 141192934
	and	ebx, -141192936
	or	ebx, ecx
	xor	ebx, edx
	not	ebp
	or	ebp, ebx
	movzx	ecx, byte ptr [r11 + _ZN5Botan12_GLOBAL__N_1L10SPBOX_CATSE]
	imul	ecx, ecx, 9441352
	mov	edx, ecx
	xor	edx, -134349328
	and	edx, ecx
	mov	ebx, ebp
	not	ebx
	mov	ecx, edx
	not	ecx
	mov	edi, ebx
	and	edi, -930068317
	and	ebp, 930068316
	or	ebp, edi
	or	ebx, ecx
	and	ecx, -930068317
	and	edx, 930068312
	or	edx, ecx
	xor	edx, ebp
	not	ebx
	or	ebx, edx
	movzx	ecx, byte ptr [r9 + _ZN5Botan12_GLOBAL__N_1L10SPBOX_CATSE]
	imul	ecx, ecx, -1912208863
	mov	edx, ecx
	xor	edx, -8396930
	and	edx, ecx
	mov	ecx, ebx
	not	ecx
	mov	edi, edx
	not	edi
	mov	ebp, ecx
	and	ebp, -1570622203
	and	ebx, 1570622202
	or	ebx, ebp
	or	ecx, edi
	and	edi, -1570622203
	and	edx, 1570622202
	or	edx, edi
	xor	edx, ebx
	not	ecx
	or	ecx, edx
	movzx	edx, byte ptr [r15 + _ZN5Botan12_GLOBAL__N_1L10SPBOX_CATSE]
	imul	edx, edx, 9511232
	and	edx, 1107820800
	mov	edi, ecx
	and	edi, edx
	xor	edx, ecx
	or	edx, edi
	movzx	ecx, byte ptr [r13 + _ZN5Botan12_GLOBAL__N_1L10SPBOX_CATSE]
	imul	ecx, ecx, -2138828776
	and	ecx, 541081616
	mov	edi, edx
	and	edi, ecx
	xor	ecx, edx
	or	ecx, edi
	movzx	edx, byte ptr [r12 + _ZN5Botan12_GLOBAL__N_1L10SPBOX_CATSE]
	imul	edx, edx, -535690750
	mov	ebx, edx
	xor	ebx, -69208068
	and	ebx, edx
	mov	edx, ecx
	not	edx
	and	edx, 660736804
	and	ecx, -660736805
	or	ecx, edx
	mov	edx, ebx
	not	edx
	and	edx, 660736804
	and	ebx, -660736806
	or	ebx, edx
	xor	ebx, ecx
	movzx	ecx, byte ptr [rsi + _ZN5Botan12_GLOBAL__N_1L10SPBOX_CATSE]
	imul	ecx, ecx, 2171456
	mov	edx, ebx
	not	edx
	and	edx, ecx
	not	ecx
	or	ecx, -268701761
	and	edx, 268701760
	and	ecx, ebx
	or	ecx, edx
	mov	dword ptr [rsp - 4], ecx
	mov	ebx, r8d
.LBB38_1:                               
	cmp	ebx, 1671968284
	jg	.LBB38_5

	cmp	ebx, -964419737
	jne	.LBB38_3

	mov	eax, dword ptr [rsp - 4]
	pop	rbx
	pop	r12
	pop	r13
	pop	r14
	pop	r15
	pop	rbp
	ret
.Lfunc_end38:
	.size	_ZN5Botan12_GLOBAL__N_15spboxEjj, .Lfunc_end38-_ZN5Botan12_GLOBAL__N_15spboxEjj

	.section	.text._ZNSt6vectorIjN5Botan16secure_allocatorIjEEED2Ev,"axG",@progbits,_ZNSt6vectorIjN5Botan16secure_allocatorIjEEED2Ev,comdat
	.weak	_ZNSt6vectorIjN5Botan16secure_allocatorIjEEED2Ev 
	.p2align	1, 0x90
	.type	_ZNSt6vectorIjN5Botan16secure_allocatorIjEEED2Ev,@function
_ZNSt6vectorIjN5Botan16secure_allocatorIjEEED2Ev: 
.Lfunc_begin5:
	.cfi_startproc
	.cfi_personality 3, __gxx_personality_v0
	.cfi_lsda 3, .Lexception5

	push	r14
	push	rbx
	push	rax
	mov	rbx, rdi
	mov	rdi, qword ptr [rbx]
	mov	rsi, qword ptr [rbx + 8]
.Ltmp18:
	mov	rdx, rbx
	call	_ZSt8_DestroyIPjN5Botan16secure_allocatorIjEEEvT_S4_RT0_
.Ltmp19:

	mov	rdi, rbx
	add	rsp, 8
	pop	rbx
	pop	r14
	jmp	_ZNSt12_Vector_baseIjN5Botan16secure_allocatorIjEEED2Ev 
.LBB39_2:
.Ltmp20:
	mov	r14, rax
	mov	rdi, rbx
	call	_ZNSt12_Vector_baseIjN5Botan16secure_allocatorIjEEED2Ev
	mov	rdi, r14
	call	__clang_call_terminate
.Lfunc_end39:
	.size	_ZNSt6vectorIjN5Botan16secure_allocatorIjEEED2Ev, .Lfunc_end39-_ZNSt6vectorIjN5Botan16secure_allocatorIjEEED2Ev
	.cfi_endproc
	.section	.gcc_except_table,"a",@progbits
	.p2align	2
GCC_except_table39:
.Lexception5:
	.byte	255                     
	.byte	3                       
	.byte	21                      
	.byte	3                       
	.byte	13                      
	.long	.Ltmp18-.Lfunc_begin5   
	.long	.Ltmp19-.Ltmp18         
	.long	.Ltmp20-.Lfunc_begin5   
	.byte	1                       
	.byte	1                       

	.byte	0                       

	.long	0                       
	.p2align	2

	.section	.text._ZSt8_DestroyIPjN5Botan16secure_allocatorIjEEEvT_S4_RT0_,"axG",@progbits,_ZSt8_DestroyIPjN5Botan16secure_allocatorIjEEEvT_S4_RT0_,comdat
	.weak	_ZSt8_DestroyIPjN5Botan16secure_allocatorIjEEEvT_S4_RT0_ 
	.type	_ZSt8_DestroyIPjN5Botan16secure_allocatorIjEEEvT_S4_RT0_,@function
_ZSt8_DestroyIPjN5Botan16secure_allocatorIjEEEvT_S4_RT0_: 
	.cfi_startproc

	push	rbp
.Lcfi188:
	.cfi_def_cfa_offset 16
	push	r15
.Lcfi189:
	.cfi_def_cfa_offset 24
	push	r14
.Lcfi190:
	.cfi_def_cfa_offset 32
	push	r13
.Lcfi191:
	.cfi_def_cfa_offset 40
	push	r12
.Lcfi192:
	.cfi_def_cfa_offset 48
	push	rbx
.Lcfi193:
	.cfi_def_cfa_offset 56
	sub	rsp, 24
.Lcfi194:
	.cfi_def_cfa_offset 80
.Lcfi195:
	.cfi_offset rbx, -56
.Lcfi196:
	.cfi_offset r12, -48
.Lcfi197:
	.cfi_offset r13, -40
.Lcfi198:
	.cfi_offset r14, -32
.Lcfi199:
	.cfi_offset r15, -24
.Lcfi200:
	.cfi_offset rbp, -16
	mov	r14, rdx
	mov	r15, rsi
	mov	r12, rdi
	mov	eax, dword ptr [rip + x.129]
	mov	ecx, dword ptr [rip + y.130]
	lea	edx, [rax - 1]
	imul	edx, eax
	mov	eax, edx
	xor	eax, -2
	test	eax, edx
	sete	byte ptr [rsp + 14]
	cmp	ecx, 10
	setl	byte ptr [rsp + 15]
	mov	ecx, -1349823915
	mov	ebp, -1
	mov	r13d, -1094962036

.LBB40_1:                               

	mov	edx, dword ptr [rip + x.129]
	mov	esi, dword ptr [rip + y.130]
	lea	edi, [rdx - 1]
	imul	edi, edx
	not	edi
	or	edi, -2
	cmp	edi, ebp
	sete	dl
	cmp	esi, 10
	setl	bl
	xor	bl, dl
	mov	edx, -1830883186
	cmovne	edx, r13d
	cmp	edi, ebp
	mov	edi, edx
	cmove	edi, r13d
	cmp	esi, 10
	cmovge	edi, edx
	jmp	.LBB40_2
.LBB40_3:                               
	cmp	ecx, -1890986686
	je	.LBB40_15

	cmp	ecx, -1830883186
	je	.LBB40_17

	cmp	ecx, -1477348225
	jne	.LBB40_2

	mov	ecx, edi
	jmp	.LBB40_2
.LBB40_11:                              
	cmp	ecx, -453897950
	je	.LBB40_16

	cmp	ecx, 1566220883
	jne	.LBB40_2
	jmp	.LBB40_13
.LBB40_14:                              
	mov	bl, byte ptr [rsp + 14]
	mov	cl, byte ptr [rsp + 15]
	mov	edx, ebx
	xor	dl, cl
	mov	edx, -1830883186
	mov	esi, -1477348225
	cmovne	edx, esi
	test	cl, cl
	mov	ecx, edx
	cmovne	ecx, esi
	test	bl, bl
	cmove	ecx, edx
	jmp	.LBB40_2
.LBB40_15:                              
	mov	qword ptr [rsp + 16], rax
	mov	rcx, qword ptr [rsp + 16]
	cmp	rcx, r15
	mov	ecx, -453897950
	mov	edx, 1566220883
	cmove	ecx, edx
	jmp	.LBB40_2
.LBB40_17:                              
	mov	ecx, -1477348225
.LBB40_2:                               

	cmp	ecx, -1349823916
	jle	.LBB40_3

	cmp	ecx, -453897951
	jg	.LBB40_11

	cmp	ecx, -1349823915
	je	.LBB40_14

	cmp	ecx, -1094962036
	jne	.LBB40_2

	mov	ecx, -1890986686
	mov	rax, r12
	jmp	.LBB40_1
.LBB40_16:                              
	mov	rsi, qword ptr [rsp + 16]
	mov	rdi, r14
	call	_ZNSt16allocator_traitsIN5Botan16secure_allocatorIjEEE7destroyIjEEvRS2_PT_
	mov	rax, qword ptr [rsp + 16]
	add	rax, 4
	mov	ecx, -1890986686
	jmp	.LBB40_1
.LBB40_13:
	add	rsp, 24
	pop	rbx
	pop	r12
	pop	r13
	pop	r14
	pop	r15
	pop	rbp
	ret
.Lfunc_end40:
	.size	_ZSt8_DestroyIPjN5Botan16secure_allocatorIjEEEvT_S4_RT0_, .Lfunc_end40-_ZSt8_DestroyIPjN5Botan16secure_allocatorIjEEEvT_S4_RT0_
	.cfi_endproc

	.section	.text._ZNSt12_Vector_baseIjN5Botan16secure_allocatorIjEEED2Ev,"axG",@progbits,_ZNSt12_Vector_baseIjN5Botan16secure_allocatorIjEEED2Ev,comdat
	.weak	_ZNSt12_Vector_baseIjN5Botan16secure_allocatorIjEEED2Ev 
	.p2align	1, 0x90
	.type	_ZNSt12_Vector_baseIjN5Botan16secure_allocatorIjEEED2Ev,@function
_ZNSt12_Vector_baseIjN5Botan16secure_allocatorIjEEED2Ev: 
.Lfunc_begin6:
	.cfi_startproc
	.cfi_personality 3, __gxx_personality_v0
	.cfi_lsda 3, .Lexception6

	push	rax
	mov	rsi, qword ptr [rdi]
	mov	rdx, qword ptr [rdi + 16]
	sub	rdx, rsi
	sar	rdx, 2
.Ltmp21:
	call	_ZNSt12_Vector_baseIjN5Botan16secure_allocatorIjEEE13_M_deallocateEPjm
.Ltmp22:

	pop	rax
	ret
.LBB41_2:
.Ltmp23:
	mov	rdi, rax
	call	__clang_call_terminate
.Lfunc_end41:
	.size	_ZNSt12_Vector_baseIjN5Botan16secure_allocatorIjEEED2Ev, .Lfunc_end41-_ZNSt12_Vector_baseIjN5Botan16secure_allocatorIjEEED2Ev
	.cfi_endproc
	.section	.gcc_except_table,"a",@progbits
	.p2align	2
GCC_except_table41:
.Lexception6:
	.byte	255                     
	.byte	3                       
	.byte	21                      
	.byte	3                       
	.byte	13                      
	.long	.Ltmp21-.Lfunc_begin6   
	.long	.Ltmp22-.Ltmp21         
	.long	.Ltmp23-.Lfunc_begin6   
	.byte	1                       
	.byte	1                       

	.byte	0                       

	.long	0                       
	.p2align	2

	.section	.text.__clang_call_terminate,"axG",@progbits,__clang_call_terminate,comdat
	.hidden	__clang_call_terminate  
	.weak	__clang_call_terminate
	.p2align	4, 0x90
	.type	__clang_call_terminate,@function
__clang_call_terminate:                 

	push	rax
	mov	eax, dword ptr [rip + x.133]
	mov	ecx, dword ptr [rip + y.134]
	mov	edx, eax
	neg	edx
	not	edx
	imul	edx, eax
	mov	eax, edx
	xor	eax, -2
	test	eax, edx
	sete	byte ptr [rsp + 6]
	cmp	ecx, 10
	setl	byte ptr [rsp + 7]
	mov	ecx, 900689345
	mov	esi, -2127012156
	jmp	.LBB42_1
	.p2align	4, 0x90
.LBB42_5:                               
	movzx	eax, byte ptr [rsp + 6]
	movzx	ecx, byte ptr [rsp + 7]
	mov	edx, eax
	xor	dl, cl
	mov	edx, -767207507
	cmovne	edx, esi
	test	cl, cl
	mov	ecx, edx
	cmovne	ecx, esi
	test	al, al
	cmove	ecx, edx
.LBB42_1:                               
	cmp	ecx, 900689345
	je	.LBB42_5

	cmp	ecx, -2127012156
	je	.LBB42_4

	cmp	ecx, -767207507
	jne	.LBB42_1
.LBB42_4:
	call	__cxa_begin_catch
	call	_ZSt9terminatev
.Lfunc_end42:
	.size	__clang_call_terminate, .Lfunc_end42-__clang_call_terminate

	.section	.text._ZNSt16allocator_traitsIN5Botan16secure_allocatorIjEEE7destroyIjEEvRS2_PT_,"axG",@progbits,_ZNSt16allocator_traitsIN5Botan16secure_allocatorIjEEE7destroyIjEEvRS2_PT_,comdat
	.weak	_ZNSt16allocator_traitsIN5Botan16secure_allocatorIjEEE7destroyIjEEvRS2_PT_ 
	.p2align	1, 0x90
	.type	_ZNSt16allocator_traitsIN5Botan16secure_allocatorIjEEE7destroyIjEEvRS2_PT_,@function
_ZNSt16allocator_traitsIN5Botan16secure_allocatorIjEEE7destroyIjEEvRS2_PT_: 
	.cfi_startproc

	push	rbp
.Lcfi201:
	.cfi_def_cfa_offset 16
	push	r15
.Lcfi202:
	.cfi_def_cfa_offset 24
	push	r14
.Lcfi203:
	.cfi_def_cfa_offset 32
	push	r12
.Lcfi204:
	.cfi_def_cfa_offset 40
	push	rbx
.Lcfi205:
	.cfi_def_cfa_offset 48
	sub	rsp, 16
.Lcfi206:
	.cfi_def_cfa_offset 64
.Lcfi207:
	.cfi_offset rbx, -48
.Lcfi208:
	.cfi_offset r12, -40
.Lcfi209:
	.cfi_offset r14, -32
.Lcfi210:
	.cfi_offset r15, -24
.Lcfi211:
	.cfi_offset rbp, -16
	mov	eax, dword ptr [rip + x.135]
	mov	ecx, eax
	neg	ecx
	not	ecx
	imul	ecx, eax
	mov	eax, ecx
	xor	eax, -2
	test	eax, ecx
	sete	byte ptr [rsp + 14]
	mov	eax, dword ptr [rip + y.136]
	cmp	eax, 10
	setl	byte ptr [rsp + 15]
	mov	r14, rsi
	mov	rbp, rdi
	mov	eax, 715722961
	mov	r15d, 979702121
	mov	r12d, -917127782
	jmp	.LBB43_1
.LBB43_6:                               
	cmp	eax, 1885388303
	jne	.LBB43_1

	xor	edx, edx
	xor	eax, eax
	mov	rdi, rbp
	mov	rsi, r14
	call	_ZNSt16allocator_traitsIN5Botan16secure_allocatorIjEEE10_S_destroyIS2_jEEvRT_PT0_z
	mov	eax, -917127782
	jmp	.LBB43_1
.LBB43_8:                               
	xor	edx, edx
	xor	eax, eax
	mov	rdi, rbp
	mov	rsi, r14
	call	_ZNSt16allocator_traitsIN5Botan16secure_allocatorIjEEE10_S_destroyIS2_jEEvRT_PT0_z
	mov	eax, dword ptr [rip + x.135]
	mov	ecx, dword ptr [rip + y.136]
	mov	edx, eax
	neg	edx
	not	edx
	imul	edx, eax
	mov	eax, edx
	xor	eax, -2
	and	eax, edx
	sete	dl
	cmp	ecx, 10
	setl	bl
	xor	bl, dl
	mov	edx, 1885388303
	cmovne	edx, r15d
	test	eax, eax
	mov	eax, edx
	cmove	eax, r15d
	cmp	ecx, 10
	cmovge	eax, edx
.LBB43_1:                               
	cmp	eax, 979702120
	jg	.LBB43_5

	cmp	eax, -917127782
	je	.LBB43_8

	cmp	eax, 715722961
	jne	.LBB43_1

	mov	cl, byte ptr [rsp + 14]
	mov	al, byte ptr [rsp + 15]
	mov	edx, ecx
	xor	dl, al
	mov	edx, 1885388303
	cmovne	edx, r12d
	test	al, al
	mov	eax, edx
	cmovne	eax, r12d
	test	cl, cl
	cmove	eax, edx
	jmp	.LBB43_1
.LBB43_5:                               
	cmp	eax, 979702121
	jne	.LBB43_6

	add	rsp, 16
	pop	rbx
	pop	r12
	pop	r14
	pop	r15
	pop	rbp
	ret
.Lfunc_end43:
