	.text
	.intel_syntax noprefix
	.file	"/mnt/c/Users/Adam/Developer/CryptoFunctionDetection/crypto_implementations/DES-Cryptography/DES.cpp"
	.globl	_ZN3DESC2ENSt7__cxx1112basic_stringIcSt11char_traitsIcESaIcEEES5_ 
	.p2align	1, 0x90
	.type	_ZN3DESC2ENSt7__cxx1112basic_stringIcSt11char_traitsIcESaIcEEES5_,@function
_ZN3DESC2ENSt7__cxx1112basic_stringIcSt11char_traitsIcESaIcEEES5_: 
.Lfunc_begin0:
	.cfi_startproc
	.cfi_personality 3, __gxx_personality_v0
	.cfi_lsda 3, .Lexception0

	push	rbp
.Lcfi0:
	.cfi_def_cfa_offset 16
	push	r15
.Lcfi1:
	.cfi_def_cfa_offset 24
	push	r14
.Lcfi2:
	.cfi_def_cfa_offset 32
	push	r13
.Lcfi3:
	.cfi_def_cfa_offset 40
	push	r12
.Lcfi4:
	.cfi_def_cfa_offset 48
	push	rbx
.Lcfi5:
	.cfi_def_cfa_offset 56
	sub	rsp, 120
.Lcfi6:
	.cfi_def_cfa_offset 176
.Lcfi7:
	.cfi_offset rbx, -56
.Lcfi8:
	.cfi_offset r12, -48
.Lcfi9:
	.cfi_offset r13, -40
.Lcfi10:
	.cfi_offset r14, -32
.Lcfi11:
	.cfi_offset r15, -24
.Lcfi12:
	.cfi_offset rbp, -16
	mov	rbp, rdx
	mov	r15, rsi
	mov	r12, rdi
	mov	qword ptr [r12], _ZTV3DES+16
	lea	rbx, [r12 + 8]
	mov	rdi, rbx
	call	_ZNSt7__cxx1112basic_stringIcSt11char_traitsIcESaIcEEC2Ev
	lea	rdi, [r12 + 40]
	mov	qword ptr [rsp + 80], rdi 
	call	_ZNSt7__cxx1112basic_stringIcSt11char_traitsIcESaIcEEC2Ev
	lea	rdi, [r12 + 72]
	mov	qword ptr [rsp + 72], rdi 
	call	_ZNSt7__cxx1112basic_stringIcSt11char_traitsIcESaIcEEC2Ev
	lea	rdi, [r12 + 104]
	mov	qword ptr [rsp + 64], rdi 
	call	_ZNSt7__cxx1112basic_stringIcSt11char_traitsIcESaIcEEC2Ev
	lea	rdi, [r12 + 136]
	mov	qword ptr [rsp + 56], rdi 
	call	_ZNSt7__cxx1112basic_stringIcSt11char_traitsIcESaIcEEC2Ev
	lea	rdi, [r12 + 168]
	mov	qword ptr [rsp + 48], rdi 
	call	_ZNSt7__cxx1112basic_stringIcSt11char_traitsIcESaIcEEC2Ev
	lea	r14, [r12 + 200]
	mov	rdi, r14
	call	_ZNSt7__cxx1112basic_stringIcSt11char_traitsIcESaIcEEC2Ev
	lea	rdi, [r12 + 232]
	mov	qword ptr [rsp + 40], rdi 
	call	_ZNSt7__cxx1112basic_stringIcSt11char_traitsIcESaIcEEC2Ev
	lea	rdi, [r12 + 264]
	mov	qword ptr [rsp + 32], rdi 
	call	_ZNSt7__cxx1112basic_stringIcSt11char_traitsIcESaIcEEC2Ev
	lea	rdi, [r12 + 296]
	mov	qword ptr [rsp + 24], rdi 
	call	_ZNSt7__cxx1112basic_stringIcSt11char_traitsIcESaIcEEC2Ev
	lea	rdi, [r12 + 328]
	mov	qword ptr [rsp + 16], rdi 
	call	_ZNSt7__cxx1112basic_stringIcSt11char_traitsIcESaIcEEC2Ev
	lea	rdi, [r12 + 360]
	mov	qword ptr [rsp + 8], rdi 
	call	_ZNSt7__cxx1112basic_stringIcSt11char_traitsIcESaIcEEC2Ev
	lea	r13, [r12 + 392]
	mov	rdi, r13
	call	_ZNSt7__cxx1112basic_stringIcSt11char_traitsIcESaIcEEC2Ev
	add	r12, 424
	mov	rdi, r12
	call	_ZNSt7__cxx1112basic_stringIcSt11char_traitsIcESaIcEEC2Ev
.Ltmp0:
	lea	rdi, [rsp + 88]
	mov	rsi, r15
	call	_ZN3DES7hex2binERKNSt7__cxx1112basic_stringIcSt11char_traitsIcESaIcEEE
.Ltmp1:

.Ltmp3:
	lea	rsi, [rsp + 88]
	mov	rdi, rbx
	call	_ZNSt7__cxx1112basic_stringIcSt11char_traitsIcESaIcEE6assignERKS4_
.Ltmp4:

.Ltmp9:
	lea	rdi, [rsp + 88]
	call	_ZNSt7__cxx1112basic_stringIcSt11char_traitsIcESaIcEE10_M_disposeEv
.Ltmp10:

.Ltmp12:
	lea	rdi, [rsp + 88]
	mov	rsi, rbp
	call	_ZN3DES7hex2binERKNSt7__cxx1112basic_stringIcSt11char_traitsIcESaIcEEE
.Ltmp13:

.Ltmp15:
	lea	rsi, [rsp + 88]
	mov	rdi, r14
	call	_ZNSt7__cxx1112basic_stringIcSt11char_traitsIcESaIcEE6assignERKS4_
.Ltmp16:

.Ltmp63:
	lea	rdi, [rsp + 88]
	call	_ZNSt7__cxx1112basic_stringIcSt11char_traitsIcESaIcEE10_M_disposeEv
.Ltmp64:

	add	rsp, 120
	pop	rbx
	pop	r12
	pop	r13
	pop	r14
	pop	r15
	pop	rbp
	ret
.LBB0_30:
.Ltmp65:
	mov	rdi, rax
	call	__cxa_call_unexpected
.LBB0_10:
.Ltmp17:
	mov	rbp, rbx
	mov	rbx, rax
.Ltmp18:
	lea	rdi, [rsp + 88]
	call	_ZNSt7__cxx1112basic_stringIcSt11char_traitsIcESaIcEE10_M_disposeEv
.Ltmp19:
	jmp	.LBB0_14
.LBB0_11:
.Ltmp20:
	mov	rdi, rax
	call	__cxa_call_unexpected
.LBB0_12:
.Ltmp14:
	jmp	.LBB0_13
.LBB0_29:
.Ltmp11:
	mov	rdi, rax
	call	__cxa_call_unexpected
.LBB0_7:
.Ltmp5:
	mov	rbp, rbx
	mov	rbx, rax
.Ltmp6:
	lea	rdi, [rsp + 88]
	call	_ZNSt7__cxx1112basic_stringIcSt11char_traitsIcESaIcEE10_M_disposeEv
.Ltmp7:
	jmp	.LBB0_14
.LBB0_8:
.Ltmp8:
	mov	rdi, rax
	call	__cxa_call_unexpected
.LBB0_9:
.Ltmp2:
.LBB0_13:
	mov	rbp, rbx
	mov	rbx, rax
.LBB0_14:
.Ltmp21:
	mov	rdi, r12
	call	_ZNSt7__cxx1112basic_stringIcSt11char_traitsIcESaIcEE10_M_disposeEv
.Ltmp22:

.Ltmp24:
	mov	rdi, r13
	call	_ZNSt7__cxx1112basic_stringIcSt11char_traitsIcESaIcEE10_M_disposeEv
.Ltmp25:

.Ltmp27:
	mov	rdi, qword ptr [rsp + 8] 
	call	_ZNSt7__cxx1112basic_stringIcSt11char_traitsIcESaIcEE10_M_disposeEv
.Ltmp28:

.Ltmp30:
	mov	rdi, qword ptr [rsp + 16] 
	call	_ZNSt7__cxx1112basic_stringIcSt11char_traitsIcESaIcEE10_M_disposeEv
.Ltmp31:

.Ltmp33:
	mov	rdi, qword ptr [rsp + 24] 
	call	_ZNSt7__cxx1112basic_stringIcSt11char_traitsIcESaIcEE10_M_disposeEv
.Ltmp34:

.Ltmp36:
	mov	rdi, qword ptr [rsp + 32] 
	call	_ZNSt7__cxx1112basic_stringIcSt11char_traitsIcESaIcEE10_M_disposeEv
.Ltmp37:

.Ltmp39:
	mov	rdi, qword ptr [rsp + 40] 
	call	_ZNSt7__cxx1112basic_stringIcSt11char_traitsIcESaIcEE10_M_disposeEv
.Ltmp40:

.Ltmp42:
	mov	rdi, r14
	call	_ZNSt7__cxx1112basic_stringIcSt11char_traitsIcESaIcEE10_M_disposeEv
.Ltmp43:

.Ltmp45:
	mov	rdi, qword ptr [rsp + 48] 
	call	_ZNSt7__cxx1112basic_stringIcSt11char_traitsIcESaIcEE10_M_disposeEv
.Ltmp46:

.Ltmp48:
	mov	rdi, qword ptr [rsp + 56] 
	call	_ZNSt7__cxx1112basic_stringIcSt11char_traitsIcESaIcEE10_M_disposeEv
.Ltmp49:

.Ltmp51:
	mov	rdi, qword ptr [rsp + 64] 
	call	_ZNSt7__cxx1112basic_stringIcSt11char_traitsIcESaIcEE10_M_disposeEv
.Ltmp52:

.Ltmp54:
	mov	rdi, qword ptr [rsp + 72] 
	call	_ZNSt7__cxx1112basic_stringIcSt11char_traitsIcESaIcEE10_M_disposeEv
.Ltmp55:

.Ltmp57:
	mov	rdi, qword ptr [rsp + 80] 
	call	_ZNSt7__cxx1112basic_stringIcSt11char_traitsIcESaIcEE10_M_disposeEv
.Ltmp58:

.Ltmp60:
	mov	rdi, rbp
	call	_ZNSt7__cxx1112basic_stringIcSt11char_traitsIcESaIcEE10_M_disposeEv
.Ltmp61:

	mov	rdi, rbx
	call	_Unwind_Resume
.LBB0_44:
.Ltmp62:
	mov	rdi, rax
	call	__cxa_call_unexpected
.LBB0_43:
.Ltmp59:
	mov	rdi, rax
	call	__cxa_call_unexpected
.LBB0_42:
.Ltmp56:
	mov	rdi, rax
	call	__cxa_call_unexpected
.LBB0_41:
.Ltmp53:
	mov	rdi, rax
	call	__cxa_call_unexpected
.LBB0_40:
.Ltmp50:
	mov	rdi, rax
	call	__cxa_call_unexpected
.LBB0_39:
.Ltmp47:
	mov	rdi, rax
	call	__cxa_call_unexpected
.LBB0_38:
.Ltmp44:
	mov	rdi, rax
	call	__cxa_call_unexpected
.LBB0_37:
.Ltmp41:
	mov	rdi, rax
	call	__cxa_call_unexpected
.LBB0_36:
.Ltmp38:
	mov	rdi, rax
	call	__cxa_call_unexpected
.LBB0_35:
.Ltmp35:
	mov	rdi, rax
	call	__cxa_call_unexpected
.LBB0_34:
.Ltmp32:
	mov	rdi, rax
	call	__cxa_call_unexpected
.LBB0_33:
.Ltmp29:
	mov	rdi, rax
	call	__cxa_call_unexpected
.LBB0_32:
.Ltmp26:
	mov	rdi, rax
	call	__cxa_call_unexpected
.LBB0_31:
.Ltmp23:
	mov	rdi, rax
	call	__cxa_call_unexpected
.Lfunc_end0:
	.size	_ZN3DESC2ENSt7__cxx1112basic_stringIcSt11char_traitsIcESaIcEEES5_, .Lfunc_end0-_ZN3DESC2ENSt7__cxx1112basic_stringIcSt11char_traitsIcESaIcEEES5_
	.cfi_endproc
	.section	.gcc_except_table,"a",@progbits
	.p2align	2
GCC_except_table0:
.Lexception0:
	.byte	255                     
	.byte	3                       
	.asciz	"\327\202"              
	.byte	3                       
	.ascii	"\322\002"              
	.long	.Ltmp0-.Lfunc_begin0    
	.long	.Ltmp1-.Ltmp0           
	.long	.Ltmp2-.Lfunc_begin0    
	.byte	0                       
	.long	.Ltmp3-.Lfunc_begin0    
	.long	.Ltmp4-.Ltmp3           
	.long	.Ltmp5-.Lfunc_begin0    
	.byte	0                       
	.long	.Ltmp9-.Lfunc_begin0    
	.long	.Ltmp10-.Ltmp9          
	.long	.Ltmp11-.Lfunc_begin0   
	.byte	1                       
	.long	.Ltmp12-.Lfunc_begin0   
	.long	.Ltmp13-.Ltmp12         
	.long	.Ltmp14-.Lfunc_begin0   
	.byte	0                       
	.long	.Ltmp15-.Lfunc_begin0   
	.long	.Ltmp16-.Ltmp15         
	.long	.Ltmp17-.Lfunc_begin0   
	.byte	0                       
	.long	.Ltmp63-.Lfunc_begin0   
	.long	.Ltmp64-.Ltmp63         
	.long	.Ltmp65-.Lfunc_begin0   
	.byte	1                       
	.long	.Ltmp64-.Lfunc_begin0   
	.long	.Ltmp18-.Ltmp64         
	.long	0                       
	.byte	0                       
	.long	.Ltmp18-.Lfunc_begin0   
	.long	.Ltmp19-.Ltmp18         
	.long	.Ltmp20-.Lfunc_begin0   
	.byte	1                       
	.long	.Ltmp19-.Lfunc_begin0   
	.long	.Ltmp6-.Ltmp19          
	.long	0                       
	.byte	0                       
	.long	.Ltmp6-.Lfunc_begin0    
	.long	.Ltmp7-.Ltmp6           
	.long	.Ltmp8-.Lfunc_begin0    
	.byte	1                       
	.long	.Ltmp7-.Lfunc_begin0    
	.long	.Ltmp21-.Ltmp7          
	.long	0                       
	.byte	0                       
	.long	.Ltmp21-.Lfunc_begin0   
	.long	.Ltmp22-.Ltmp21         
	.long	.Ltmp23-.Lfunc_begin0   
	.byte	1                       
	.long	.Ltmp24-.Lfunc_begin0   
	.long	.Ltmp25-.Ltmp24         
	.long	.Ltmp26-.Lfunc_begin0   
	.byte	1                       
	.long	.Ltmp27-.Lfunc_begin0   
	.long	.Ltmp28-.Ltmp27         
	.long	.Ltmp29-.Lfunc_begin0   
	.byte	1                       
	.long	.Ltmp30-.Lfunc_begin0   
	.long	.Ltmp31-.Ltmp30         
	.long	.Ltmp32-.Lfunc_begin0   
	.byte	1                       
	.long	.Ltmp33-.Lfunc_begin0   
	.long	.Ltmp34-.Ltmp33         
	.long	.Ltmp35-.Lfunc_begin0   
	.byte	1                       
	.long	.Ltmp36-.Lfunc_begin0   
	.long	.Ltmp37-.Ltmp36         
	.long	.Ltmp38-.Lfunc_begin0   
	.byte	1                       
	.long	.Ltmp39-.Lfunc_begin0   
	.long	.Ltmp40-.Ltmp39         
	.long	.Ltmp41-.Lfunc_begin0   
	.byte	1                       
	.long	.Ltmp42-.Lfunc_begin0   
	.long	.Ltmp43-.Ltmp42         
	.long	.Ltmp44-.Lfunc_begin0   
	.byte	1                       
	.long	.Ltmp45-.Lfunc_begin0   
	.long	.Ltmp46-.Ltmp45         
	.long	.Ltmp47-.Lfunc_begin0   
	.byte	1                       
	.long	.Ltmp48-.Lfunc_begin0   
	.long	.Ltmp49-.Ltmp48         
	.long	.Ltmp50-.Lfunc_begin0   
	.byte	1                       
	.long	.Ltmp51-.Lfunc_begin0   
	.long	.Ltmp52-.Ltmp51         
	.long	.Ltmp53-.Lfunc_begin0   
	.byte	1                       
	.long	.Ltmp54-.Lfunc_begin0   
	.long	.Ltmp55-.Ltmp54         
	.long	.Ltmp56-.Lfunc_begin0   
	.byte	1                       
	.long	.Ltmp57-.Lfunc_begin0   
	.long	.Ltmp58-.Ltmp57         
	.long	.Ltmp59-.Lfunc_begin0   
	.byte	1                       
	.long	.Ltmp60-.Lfunc_begin0   
	.long	.Ltmp61-.Ltmp60         
	.long	.Ltmp62-.Lfunc_begin0   
	.byte	1                       
	.long	.Ltmp61-.Lfunc_begin0   
	.long	.Lfunc_end0-.Ltmp61     
	.long	0                       
	.byte	0                       
	.byte	127                     

	.byte	0                       

	.byte	0
	.p2align	2

	.section	.text._ZNSt7__cxx1112basic_stringIcSt11char_traitsIcESaIcEEC2Ev,"axG",@progbits,_ZNSt7__cxx1112basic_stringIcSt11char_traitsIcESaIcEEC2Ev,comdat
	.weak	_ZNSt7__cxx1112basic_stringIcSt11char_traitsIcESaIcEEC2Ev 
	.p2align	1, 0x90
	.type	_ZNSt7__cxx1112basic_stringIcSt11char_traitsIcESaIcEEC2Ev,@function
_ZNSt7__cxx1112basic_stringIcSt11char_traitsIcESaIcEEC2Ev: 
.Lfunc_begin1:
	.cfi_startproc
	.cfi_personality 3, __gxx_personality_v0
	.cfi_lsda 3, .Lexception1

	push	r14
	push	rbx
	sub	rsp, 24
	mov	r14, rdi
	lea	rsi, [r14 + 16]
	mov	eax, dword ptr [rip + x.342]
	mov	ecx, dword ptr [rip + y.343]
	lea	edx, [rax - 1]
	imul	edx, eax
	mov	eax, edx
	xor	eax, -2
	and	eax, edx
	sete	dl
	sete	byte ptr [rsp + 14]
	test	eax, eax
	mov	edi, 1668723644
	mov	r8d, -1434449276
	mov	eax, -1434449276
	cmove	eax, edi
	cmp	ecx, 10
	setl	cl
	setl	byte ptr [rsp + 15]
	cmovge	eax, r8d
	xor	cl, dl
	cmovne	eax, edi
	mov	edx, 56014225
	mov	edi, -190904379
	jmp	.LBB1_1
.LBB1_6:                                
	cmp	edx, 56014225
	jne	.LBB1_1

	mov	bl, byte ptr [rsp + 14]
	mov	dl, byte ptr [rsp + 15]
	mov	ecx, ebx
	xor	cl, dl
	mov	ecx, -1434449276
	cmovne	ecx, edi
	test	dl, dl
	mov	edx, ecx
	cmovne	edx, edi
	test	bl, bl
	cmove	edx, ecx
	jmp	.LBB1_1
.LBB1_8:                                
	mov	edx, -190904379
.LBB1_1:                                
	cmp	edx, 56014224
	jg	.LBB1_5

	cmp	edx, -1434449276
	je	.LBB1_8

	cmp	edx, -190904379
	jne	.LBB1_1

	mov	edx, eax
	jmp	.LBB1_1
.LBB1_5:                                
	cmp	edx, 1668723644
	jne	.LBB1_6

	lea	rdx, [rsp + 16]
	mov	rdi, r14
	call	_ZNSt7__cxx1112basic_stringIcSt11char_traitsIcESaIcEE12_Alloc_hiderC2EPcOS3_
.Ltmp66:
	xor	esi, esi
	mov	rdi, r14
	call	_ZNSt7__cxx1112basic_stringIcSt11char_traitsIcESaIcEE13_M_set_lengthEm
.Ltmp67:

	add	rsp, 24
	pop	rbx
	pop	r14
	ret
.LBB1_11:
.Ltmp68:
	mov	rdi, rax
	call	__clang_call_terminate
.Lfunc_end1:
	.size	_ZNSt7__cxx1112basic_stringIcSt11char_traitsIcESaIcEEC2Ev, .Lfunc_end1-_ZNSt7__cxx1112basic_stringIcSt11char_traitsIcESaIcEEC2Ev
	.cfi_endproc
	.section	.gcc_except_table,"a",@progbits
	.p2align	2
GCC_except_table1:
.Lexception1:
	.byte	255                     
	.byte	3                       
	.byte	21                      
	.byte	3                       
	.byte	13                      
	.long	.Ltmp66-.Lfunc_begin1   
	.long	.Ltmp67-.Ltmp66         
	.long	.Ltmp68-.Lfunc_begin1   
	.byte	1                       
	.byte	1                       

	.byte	0                       

	.long	0                       
	.p2align	2

	.text
	.globl	_ZN3DES7hex2binERKNSt7__cxx1112basic_stringIcSt11char_traitsIcESaIcEEE 
	.p2align	1, 0x90
	.type	_ZN3DES7hex2binERKNSt7__cxx1112basic_stringIcSt11char_traitsIcESaIcEEE,@function
_ZN3DES7hex2binERKNSt7__cxx1112basic_stringIcSt11char_traitsIcESaIcEEE: 
.Lfunc_begin2:
	.cfi_startproc
	.cfi_personality 3, __gxx_personality_v0
	.cfi_lsda 3, .Lexception2

	push	rbp
.Lcfi13:
	.cfi_def_cfa_offset 16
	push	r15
.Lcfi14:
	.cfi_def_cfa_offset 24
	push	r14
.Lcfi15:
	.cfi_def_cfa_offset 32
	push	r13
.Lcfi16:
	.cfi_def_cfa_offset 40
	push	r12
.Lcfi17:
	.cfi_def_cfa_offset 48
	push	rbx
.Lcfi18:
	.cfi_def_cfa_offset 56
	sub	rsp, 40
.Lcfi19:
	.cfi_def_cfa_offset 96
.Lcfi20:
	.cfi_offset rbx, -56
.Lcfi21:
	.cfi_offset r12, -48
.Lcfi22:
	.cfi_offset r13, -40
.Lcfi23:
	.cfi_offset r14, -32
.Lcfi24:
	.cfi_offset r15, -24
.Lcfi25:
	.cfi_offset rbp, -16
	mov	r13, rsi
	mov	rbx, rdi
	call	_ZNSt7__cxx1112basic_stringIcSt11char_traitsIcESaIcEEC2Ev
	mov	rax, qword ptr [r13]
	lea	r15, [rsp + 32]
	mov	qword ptr [r15], rax
	lea	r12, [rsp + 24]
	mov	ebp, -1801168299
	mov	qword ptr [rsp + 16], rbx 
	jmp	.LBB2_1
.LBB2_12:                               
	mov	rax, qword ptr [rsp + 32]
	mov	al, byte ptr [rax]
	cmp	al, 56
	jge	.LBB2_13

	cmp	al, 52
	jge	.LBB2_25

	cmp	al, 50
	jge	.LBB2_29

	cmp	al, 49
	je	.LBB2_38

	cmp	al, 48
	jne	.LBB2_50

.Ltmp97:
	mov	esi, .L.str.21
	mov	rdi, rbx
	call	_ZNSt7__cxx1112basic_stringIcSt11char_traitsIcESaIcEE6appendEPKc
.Ltmp98:
	jmp	.LBB2_68
.LBB2_13:                               
	cmp	al, 67
	jge	.LBB2_14

	cmp	al, 65
	jge	.LBB2_19

	cmp	al, 57
	jge	.LBB2_22

.Ltmp83:
	mov	esi, .L.str.29
	mov	rdi, rbx
	call	_ZNSt7__cxx1112basic_stringIcSt11char_traitsIcESaIcEE6appendEPKc
.Ltmp84:
	jmp	.LBB2_68
.LBB2_25:                               
	cmp	al, 54
	jge	.LBB2_26

	cmp	al, 53
	jne	.LBB2_40

.Ltmp91:
	mov	esi, .L.str.26
	mov	rdi, rbx
	call	_ZNSt7__cxx1112basic_stringIcSt11char_traitsIcESaIcEE6appendEPKc
.Ltmp92:
	jmp	.LBB2_68
.LBB2_14:                               
	cmp	al, 69
	jge	.LBB2_15

	cmp	al, 68
	jne	.LBB2_46

.Ltmp75:
	mov	esi, .L.str.34
	mov	rdi, rbx
	call	_ZNSt7__cxx1112basic_stringIcSt11char_traitsIcESaIcEE6appendEPKc
.Ltmp76:
	jmp	.LBB2_68
.LBB2_29:                               
	jne	.LBB2_39

.Ltmp95:
	mov	esi, .L.str.23
	mov	rdi, rbx
	call	_ZNSt7__cxx1112basic_stringIcSt11char_traitsIcESaIcEE6appendEPKc
.Ltmp96:
	jmp	.LBB2_68
.LBB2_19:                               
	jne	.LBB2_45

.Ltmp79:
	mov	esi, .L.str.31
	mov	rdi, rbx
	call	_ZNSt7__cxx1112basic_stringIcSt11char_traitsIcESaIcEE6appendEPKc
.Ltmp80:
	jmp	.LBB2_68
.LBB2_26:                               
	jne	.LBB2_43

.Ltmp87:
	mov	esi, .L.str.27
	mov	rdi, rbx
	call	_ZNSt7__cxx1112basic_stringIcSt11char_traitsIcESaIcEE6appendEPKc
.Ltmp88:
	jmp	.LBB2_68
.LBB2_15:                               
	je	.LBB2_49

	cmp	al, 70
	jne	.LBB2_50

.Ltmp69:
	mov	esi, .L.str.36
	mov	rdi, rbx
	call	_ZNSt7__cxx1112basic_stringIcSt11char_traitsIcESaIcEE6appendEPKc
.Ltmp70:
	jmp	.LBB2_68
.LBB2_22:                               
	jne	.LBB2_50

.Ltmp81:
	mov	esi, .L.str.30
	mov	rdi, rbx
	call	_ZNSt7__cxx1112basic_stringIcSt11char_traitsIcESaIcEE6appendEPKc
.Ltmp82:
	jmp	.LBB2_68
.LBB2_50:                               
.Ltmp101:
	mov	edi, .L.str.37
	call	_ZNSt11char_traitsIcE6lengthEPKc
.Ltmp102:

.Ltmp103:
	mov	edi, _ZSt4cout
	mov	esi, .L.str.37
	mov	rdx, rax
	call	_ZSt16__ostream_insertIcSt11char_traitsIcEERSt13basic_ostreamIT_T0_ES6_PKS3_l
.Ltmp104:

	mov	rax, qword ptr [rip + _ZSt4cout]
	mov	rax, qword ptr [rax - 24]
	mov	rdi, qword ptr [rax + _ZSt4cout+240]
	test	rdi, rdi
	mov	eax, 657200287
	mov	ecx, -1407481897
	cmove	eax, ecx
	mov	ecx, dword ptr [rip + x.452]
	lea	edx, [rcx - 1]
	imul	edx, ecx
	not	edx
	or	edx, -2
	mov	ecx, -1
	cmp	edx, ecx
	sete	dl
	mov	ecx, -1980990788
	mov	esi, 1590742783
	cmove	ecx, esi
	cmp	dword ptr [rip + y.453], 10
	setl	bl
	mov	ebp, -1980990788
	cmovge	ecx, ebp
	mov	ebp, -1801168299
	xor	bl, dl
	mov	rbx, qword ptr [rsp + 16] 
	cmovne	ecx, esi
	mov	edx, -1689647379
.LBB2_53:                               

	cmp	edx, -1407481898
	jle	.LBB2_54

	cmp	edx, -1407481897
	je	.LBB2_57

	cmp	edx, 657200287
	je	.LBB2_65

	cmp	edx, 1590742783
	jne	.LBB2_53
	jmp	.LBB2_60
.LBB2_54:                               
	cmp	edx, -1689647379
	jne	.LBB2_62

	mov	edx, eax
	jmp	.LBB2_53
.LBB2_57:                               
	mov	edx, ecx
	jmp	.LBB2_53
.LBB2_62:                               
	cmp	edx, -1980990788
	jne	.LBB2_53
	jmp	.LBB2_63
.LBB2_65:                               
.Ltmp105:
	mov	esi, 10
	call	_ZNKSt5ctypeIcE5widenEc
.Ltmp106:

.Ltmp107:
	movsx	esi, al
	mov	edi, _ZSt4cout
	call	_ZNSo3putEc
.Ltmp108:

.Ltmp109:
	mov	rdi, rax
	call	_ZNSo5flushEv
.Ltmp110:
	jmp	.LBB2_68
.LBB2_40:                               
.Ltmp89:
	mov	esi, .L.str.25
	mov	rdi, rbx
	call	_ZNSt7__cxx1112basic_stringIcSt11char_traitsIcESaIcEE6appendEPKc
.Ltmp90:
	jmp	.LBB2_68
.LBB2_46:                               
.Ltmp73:
	mov	esi, .L.str.33
	mov	rdi, rbx
	call	_ZNSt7__cxx1112basic_stringIcSt11char_traitsIcESaIcEE6appendEPKc
.Ltmp74:
	jmp	.LBB2_68
.LBB2_39:                               
.Ltmp93:
	mov	esi, .L.str.24
	mov	rdi, rbx
	call	_ZNSt7__cxx1112basic_stringIcSt11char_traitsIcESaIcEE6appendEPKc
.Ltmp94:
	jmp	.LBB2_68
.LBB2_45:                               
.Ltmp77:
	mov	esi, .L.str.32
	mov	rdi, rbx
	call	_ZNSt7__cxx1112basic_stringIcSt11char_traitsIcESaIcEE6appendEPKc
.Ltmp78:
	jmp	.LBB2_68
.LBB2_43:                               
.Ltmp85:
	mov	esi, .L.str.28
	mov	rdi, rbx
	call	_ZNSt7__cxx1112basic_stringIcSt11char_traitsIcESaIcEE6appendEPKc
.Ltmp86:
	jmp	.LBB2_68
.LBB2_38:                               
.Ltmp99:
	mov	esi, .L.str.22
	mov	rdi, rbx
	call	_ZNSt7__cxx1112basic_stringIcSt11char_traitsIcESaIcEE6appendEPKc
.Ltmp100:
	jmp	.LBB2_68
.LBB2_49:                               
.Ltmp71:
	mov	esi, .L.str.35
	mov	rdi, rbx
	call	_ZNSt7__cxx1112basic_stringIcSt11char_traitsIcESaIcEE6appendEPKc
.Ltmp72:
.LBB2_68:                               
	mov	rdi, r15
	call	_ZN9__gnu_cxx17__normal_iteratorIPKcNSt7__cxx1112basic_stringIcSt11char_traitsIcESaIcEEEEppEv
	mov	rax, qword ptr [r13]
.LBB2_1:                                


	add	rax, qword ptr [r13 + 8]
	mov	qword ptr [rsp + 24], rax
	mov	eax, dword ptr [rip + x.86]
	mov	ecx, dword ptr [rip + y.87]
	lea	edx, [rax - 1]
	imul	edx, eax
	not	edx
	or	edx, -2
	mov	eax, -1
	cmp	edx, eax
	sete	byte ptr [rsp + 13]
	cmp	ecx, 10
	setl	byte ptr [rsp + 14]
	mov	eax, -1477871261
	jmp	.LBB2_2
.LBB2_10:                               
	mov	rdi, r15
	call	_ZNK9__gnu_cxx17__normal_iteratorIPKcNSt7__cxx1112basic_stringIcSt11char_traitsIcESaIcEEEE4baseEv
	mov	r14, qword ptr [rax]
	mov	rdi, r12
	call	_ZNK9__gnu_cxx17__normal_iteratorIPKcNSt7__cxx1112basic_stringIcSt11char_traitsIcESaIcEEEE4baseEv
	cmp	r14, qword ptr [rax]
	setb	byte ptr [rsp + 15]
	mov	eax, dword ptr [rip + x.86]
	mov	ecx, eax
	neg	ecx
	not	ecx
	imul	ecx, eax
	mov	eax, ecx
	xor	eax, -2
	and	eax, ecx
	sete	cl
	test	eax, eax
	mov	eax, 691070385
	mov	esi, 2045576252
	cmove	eax, esi
	cmp	dword ptr [rip + y.87], 10
	setl	dl
	mov	edi, 691070385
	cmovge	eax, edi
	xor	dl, cl
	cmovne	eax, esi
	jmp	.LBB2_2
.LBB2_11:                               
	mov	rdi, r15
	call	_ZNK9__gnu_cxx17__normal_iteratorIPKcNSt7__cxx1112basic_stringIcSt11char_traitsIcESaIcEEEE4baseEv
	mov	rdi, r12
	call	_ZNK9__gnu_cxx17__normal_iteratorIPKcNSt7__cxx1112basic_stringIcSt11char_traitsIcESaIcEEEE4baseEv
	mov	eax, -1801168299
.LBB2_2:                                

	cmp	eax, 691070384
	jg	.LBB2_6

	cmp	eax, -1801168299
	je	.LBB2_10

	cmp	eax, -1477871261
	jne	.LBB2_2

	mov	cl, byte ptr [rsp + 13]
	mov	al, byte ptr [rsp + 14]
	mov	edx, ecx
	xor	dl, al
	mov	edx, 691070385
	cmovne	edx, ebp
	test	al, al
	mov	eax, edx
	cmovne	eax, ebp
	test	cl, cl
	cmove	eax, edx
	jmp	.LBB2_2
.LBB2_6:                                
	cmp	eax, 691070385
	je	.LBB2_11

	cmp	eax, 2045576252
	jne	.LBB2_2

	mov	al, byte ptr [rsp + 15]
	test	al, al
	jne	.LBB2_12

	mov	rax, rbx
	add	rsp, 40
	pop	rbx
	pop	r12
	pop	r13
	pop	r14
	pop	r15
	pop	rbp
	ret
.LBB2_60:
.Ltmp114:
	call	_ZSt16__throw_bad_castv
.Ltmp115:

.LBB2_63:
.Ltmp112:
	call	_ZSt16__throw_bad_castv
.Ltmp113:

.LBB2_35:
.Ltmp116:
	jmp	.LBB2_36
.LBB2_34:
.Ltmp111:
.LBB2_36:
	mov	rbx, rax
.Ltmp117:
	mov	rdi, qword ptr [rsp + 16] 
	call	_ZNSt7__cxx1112basic_stringIcSt11char_traitsIcESaIcEE10_M_disposeEv
.Ltmp118:

	mov	rdi, rbx
	call	_Unwind_Resume
.LBB2_69:
.Ltmp119:
	mov	rdi, rax
	call	__cxa_call_unexpected
.Lfunc_end2:
	.size	_ZN3DES7hex2binERKNSt7__cxx1112basic_stringIcSt11char_traitsIcESaIcEEE, .Lfunc_end2-_ZN3DES7hex2binERKNSt7__cxx1112basic_stringIcSt11char_traitsIcESaIcEEE
	.cfi_endproc
	.section	.gcc_except_table,"a",@progbits
	.p2align	2
GCC_except_table2:
.Lexception2:
	.byte	255                     
	.byte	3                       
	.asciz	"\270"                  
	.byte	3                       
	.byte	52                      
	.long	.Ltmp97-.Lfunc_begin2   
	.long	.Ltmp72-.Ltmp97         
	.long	.Ltmp111-.Lfunc_begin2  
	.byte	0                       
	.long	.Ltmp114-.Lfunc_begin2  
	.long	.Ltmp113-.Ltmp114       
	.long	.Ltmp116-.Lfunc_begin2  
	.byte	0                       
	.long	.Ltmp117-.Lfunc_begin2  
	.long	.Ltmp118-.Ltmp117       
	.long	.Ltmp119-.Lfunc_begin2  
	.byte	1                       
	.long	.Ltmp118-.Lfunc_begin2  
	.long	.Lfunc_end2-.Ltmp118    
	.long	0                       
	.byte	0                       
	.byte	127                     

	.byte	0                       

	.byte	0
	.p2align	2

	.text
	.globl	_ZN3DESD2Ev             
	.p2align	1, 0x90
	.type	_ZN3DESD2Ev,@function
_ZN3DESD2Ev:                            
.Lfunc_begin3:
	.cfi_startproc
	.cfi_personality 3, __gxx_personality_v0
	.cfi_lsda 3, .Lexception3

	push	rbx
	mov	rbx, rdi
	mov	qword ptr [rbx], _ZTV3DES+16
	lea	rdi, [rbx + 424]
.Ltmp120:
	call	_ZNSt7__cxx1112basic_stringIcSt11char_traitsIcESaIcEE10_M_disposeEv
.Ltmp121:

	lea	rdi, [rbx + 392]
.Ltmp123:
	call	_ZNSt7__cxx1112basic_stringIcSt11char_traitsIcESaIcEE10_M_disposeEv
.Ltmp124:

	lea	rdi, [rbx + 360]
.Ltmp126:
	call	_ZNSt7__cxx1112basic_stringIcSt11char_traitsIcESaIcEE10_M_disposeEv
.Ltmp127:

	lea	rdi, [rbx + 328]
.Ltmp129:
	call	_ZNSt7__cxx1112basic_stringIcSt11char_traitsIcESaIcEE10_M_disposeEv
.Ltmp130:

	lea	rdi, [rbx + 296]
.Ltmp132:
	call	_ZNSt7__cxx1112basic_stringIcSt11char_traitsIcESaIcEE10_M_disposeEv
.Ltmp133:

	lea	rdi, [rbx + 264]
.Ltmp135:
	call	_ZNSt7__cxx1112basic_stringIcSt11char_traitsIcESaIcEE10_M_disposeEv
.Ltmp136:

	lea	rdi, [rbx + 232]
.Ltmp138:
	call	_ZNSt7__cxx1112basic_stringIcSt11char_traitsIcESaIcEE10_M_disposeEv
.Ltmp139:

	lea	rdi, [rbx + 200]
.Ltmp141:
	call	_ZNSt7__cxx1112basic_stringIcSt11char_traitsIcESaIcEE10_M_disposeEv
.Ltmp142:

	lea	rdi, [rbx + 168]
.Ltmp144:
	call	_ZNSt7__cxx1112basic_stringIcSt11char_traitsIcESaIcEE10_M_disposeEv
.Ltmp145:

	lea	rdi, [rbx + 136]
.Ltmp147:
	call	_ZNSt7__cxx1112basic_stringIcSt11char_traitsIcESaIcEE10_M_disposeEv
.Ltmp148:

	lea	rdi, [rbx + 104]
.Ltmp150:
	call	_ZNSt7__cxx1112basic_stringIcSt11char_traitsIcESaIcEE10_M_disposeEv
.Ltmp151:

	lea	rdi, [rbx + 72]
.Ltmp153:
	call	_ZNSt7__cxx1112basic_stringIcSt11char_traitsIcESaIcEE10_M_disposeEv
.Ltmp154:

	lea	rdi, [rbx + 40]
.Ltmp156:
	call	_ZNSt7__cxx1112basic_stringIcSt11char_traitsIcESaIcEE10_M_disposeEv
.Ltmp157:

	add	rbx, 8
.Ltmp159:
	mov	rdi, rbx
	call	_ZNSt7__cxx1112basic_stringIcSt11char_traitsIcESaIcEE10_M_disposeEv
.Ltmp160:

	pop	rbx
	ret
.LBB3_28:
.Ltmp161:
	mov	rdi, rax
	call	__cxa_call_unexpected
.LBB3_27:
.Ltmp158:
	mov	rdi, rax
	call	__cxa_call_unexpected
.LBB3_26:
.Ltmp155:
	mov	rdi, rax
	call	__cxa_call_unexpected
.LBB3_25:
.Ltmp152:
	mov	rdi, rax
	call	__cxa_call_unexpected
.LBB3_24:
.Ltmp149:
	mov	rdi, rax
	call	__cxa_call_unexpected
.LBB3_23:
.Ltmp146:
	mov	rdi, rax
	call	__cxa_call_unexpected
.LBB3_22:
.Ltmp143:
	mov	rdi, rax
	call	__cxa_call_unexpected
.LBB3_21:
.Ltmp140:
	mov	rdi, rax
	call	__cxa_call_unexpected
.LBB3_20:
.Ltmp137:
	mov	rdi, rax
	call	__cxa_call_unexpected
.LBB3_19:
.Ltmp134:
	mov	rdi, rax
	call	__cxa_call_unexpected
.LBB3_18:
.Ltmp131:
	mov	rdi, rax
	call	__cxa_call_unexpected
.LBB3_17:
.Ltmp128:
	mov	rdi, rax
	call	__cxa_call_unexpected
.LBB3_16:
.Ltmp125:
	mov	rdi, rax
	call	__cxa_call_unexpected
.LBB3_15:
.Ltmp122:
	mov	rdi, rax
	call	__cxa_call_unexpected
.Lfunc_end3:
	.size	_ZN3DESD2Ev, .Lfunc_end3-_ZN3DESD2Ev
	.cfi_endproc
	.section	.gcc_except_table,"a",@progbits
	.p2align	2
GCC_except_table3:
.Lexception3:
	.byte	255                     
	.byte	3                       
	.ascii	"\310\001"              
	.byte	3                       
	.ascii	"\303\001"              
	.long	.Ltmp120-.Lfunc_begin3  
	.long	.Ltmp121-.Ltmp120       
	.long	.Ltmp122-.Lfunc_begin3  
	.byte	1                       
	.long	.Ltmp123-.Lfunc_begin3  
	.long	.Ltmp124-.Ltmp123       
	.long	.Ltmp125-.Lfunc_begin3  
	.byte	1                       
	.long	.Ltmp126-.Lfunc_begin3  
	.long	.Ltmp127-.Ltmp126       
	.long	.Ltmp128-.Lfunc_begin3  
	.byte	1                       
	.long	.Ltmp129-.Lfunc_begin3  
	.long	.Ltmp130-.Ltmp129       
	.long	.Ltmp131-.Lfunc_begin3  
	.byte	1                       
	.long	.Ltmp132-.Lfunc_begin3  
	.long	.Ltmp133-.Ltmp132       
	.long	.Ltmp134-.Lfunc_begin3  
	.byte	1                       
	.long	.Ltmp135-.Lfunc_begin3  
	.long	.Ltmp136-.Ltmp135       
	.long	.Ltmp137-.Lfunc_begin3  
	.byte	1                       
	.long	.Ltmp138-.Lfunc_begin3  
	.long	.Ltmp139-.Ltmp138       
	.long	.Ltmp140-.Lfunc_begin3  
	.byte	1                       
	.long	.Ltmp141-.Lfunc_begin3  
	.long	.Ltmp142-.Ltmp141       
	.long	.Ltmp143-.Lfunc_begin3  
	.byte	1                       
	.long	.Ltmp144-.Lfunc_begin3  
	.long	.Ltmp145-.Ltmp144       
	.long	.Ltmp146-.Lfunc_begin3  
	.byte	1                       
	.long	.Ltmp147-.Lfunc_begin3  
	.long	.Ltmp148-.Ltmp147       
	.long	.Ltmp149-.Lfunc_begin3  
	.byte	1                       
	.long	.Ltmp150-.Lfunc_begin3  
	.long	.Ltmp151-.Ltmp150       
	.long	.Ltmp152-.Lfunc_begin3  
	.byte	1                       
	.long	.Ltmp153-.Lfunc_begin3  
	.long	.Ltmp154-.Ltmp153       
	.long	.Ltmp155-.Lfunc_begin3  
	.byte	1                       
	.long	.Ltmp156-.Lfunc_begin3  
	.long	.Ltmp157-.Ltmp156       
	.long	.Ltmp158-.Lfunc_begin3  
	.byte	1                       
	.long	.Ltmp159-.Lfunc_begin3  
	.long	.Ltmp160-.Ltmp159       
	.long	.Ltmp161-.Lfunc_begin3  
	.byte	1                       
	.long	.Ltmp160-.Lfunc_begin3  
	.long	.Lfunc_end3-.Ltmp160    
	.long	0                       
	.byte	0                       
	.byte	127                     

	.byte	0                       

	.byte	0
	.p2align	2

	.text
	.globl	_ZN3DESD0Ev             
	.p2align	1, 0x90
	.type	_ZN3DESD0Ev,@function
_ZN3DESD0Ev:                            

	push	rbx
	mov	rbx, rdi
	call	_ZN3DESD2Ev
	mov	rdi, rbx
	pop	rbx
	jmp	_ZdlPv                  
.Lfunc_end4:
	.size	_ZN3DESD0Ev, .Lfunc_end4-_ZN3DESD0Ev

	.globl	_ZN3DES5xor48ERKNSt7__cxx1112basic_stringIcSt11char_traitsIcESaIcEEES7_ 
	.p2align	1, 0x90
	.type	_ZN3DES5xor48ERKNSt7__cxx1112basic_stringIcSt11char_traitsIcESaIcEEES7_,@function
_ZN3DES5xor48ERKNSt7__cxx1112basic_stringIcSt11char_traitsIcESaIcEEES7_: 
.Lfunc_begin4:
	.cfi_startproc
	.cfi_personality 3, __gxx_personality_v0
	.cfi_lsda 3, .Lexception4

	push	r15
.Lcfi26:
	.cfi_def_cfa_offset 16
	push	r14
.Lcfi27:
	.cfi_def_cfa_offset 24
	push	r13
.Lcfi28:
	.cfi_def_cfa_offset 32
	push	r12
.Lcfi29:
	.cfi_def_cfa_offset 40
	push	rbx
.Lcfi30:
	.cfi_def_cfa_offset 48
	sub	rsp, 64
.Lcfi31:
	.cfi_def_cfa_offset 112
.Lcfi32:
	.cfi_offset rbx, -48
.Lcfi33:
	.cfi_offset r12, -40
.Lcfi34:
	.cfi_offset r13, -32
.Lcfi35:
	.cfi_offset r14, -24
.Lcfi36:
	.cfi_offset r15, -16
	mov	r12, rdx
	mov	rbx, rsi
	mov	r14, rdi
	xor	r13d, r13d
	mov	qword ptr [rsp + 8], r13
	lea	r15, [rsp + 24]
	mov	qword ptr [r15], r13
	xor	edx, edx
	mov	rdi, r15
	call	_ZNKSt6bitsetILm48EE25_M_check_initial_positionIcSt11char_traitsIcESaIcEEEvRKNSt7__cxx1112basic_stringIT_T0_T1_EEm
	xor	edx, edx
	mov	rcx, -1
	mov	r8d, 48
	mov	r9d, 49
	mov	rdi, r15
	mov	rsi, rbx
	call	_ZNSt6bitsetILm48EE19_M_copy_from_stringIcSt11char_traitsIcESaIcEEEvRKNSt7__cxx1112basic_stringIT_T0_T1_EEmmS7_S7_
	lea	rbx, [rsp + 16]
	mov	qword ptr [rbx], r13
	xor	edx, edx
	mov	rdi, rbx
	mov	rsi, r12
	call	_ZNKSt6bitsetILm48EE25_M_check_initial_positionIcSt11char_traitsIcESaIcEEEvRKNSt7__cxx1112basic_stringIT_T0_T1_EEm
	xor	edx, edx
	mov	rcx, -1
	mov	r8d, 48
	mov	r9d, 49
	mov	rdi, rbx
	mov	rsi, r12
	call	_ZNSt6bitsetILm48EE19_M_copy_from_stringIcSt11char_traitsIcESaIcEEEvRKNSt7__cxx1112basic_stringIT_T0_T1_EEmmS7_S7_
	mov	eax, dword ptr [rip + x.66]
	mov	r8d, dword ptr [rip + y.67]
	mov	ecx, eax
	neg	ecx
	not	ecx
	imul	ecx, eax
	not	ecx
	or	ecx, -2
	mov	rdx, qword ptr [r15]
	mov	rdi, qword ptr [rbx]
	mov	rbx, rdi
	not	rbx
	movabs	rax, 3876844033442059284
	and	rbx, rax
	mov	rsi, rdx
	not	rsi
	and	rsi, rax
	not	rax
	and	rdi, rax
	or	rdi, rbx
	and	rax, rdx
	or	rax, rsi
	xor	rax, rdi
	mov	edx, -1
	cmp	ecx, edx
	sete	dl
	sete	byte ptr [rsp + 6]
	mov	esi, -108107066
	mov	edi, 1673206196
	mov	ecx, 1673206196
	cmove	ecx, esi
	cmp	r8d, 10
	setl	bl
	setl	byte ptr [rsp + 7]
	cmovge	ecx, edi
	xor	bl, dl
	cmovne	ecx, esi
	mov	esi, 1237815173
	mov	edi, -1263047742
	jmp	.LBB5_1
.LBB5_6:                                
	cmp	esi, 1673206196
	je	.LBB5_10

	cmp	esi, 1237815173
	jne	.LBB5_1

	mov	r8b, byte ptr [rsp + 6]
	mov	dl, byte ptr [rsp + 7]
	mov	ebx, r8d
	xor	bl, dl
	mov	ebx, 1673206196
	cmovne	ebx, edi
	test	dl, dl
	mov	esi, ebx
	cmovne	esi, edi
	test	r8b, r8b
	cmove	esi, ebx
	jmp	.LBB5_1
.LBB5_9:                                
	mov	qword ptr [rsp + 32], rax
	mov	esi, ecx
	jmp	.LBB5_1
.LBB5_10:                               
	mov	esi, -1263047742
.LBB5_1:                                
	cmp	esi, 1237815172
	jg	.LBB5_6

	cmp	esi, -1263047742
	je	.LBB5_9

	cmp	esi, -108107066
	jne	.LBB5_1

	lea	rbx, [rsp + 32]
	mov	rax, qword ptr [rbx]
	lea	rsi, [rsp + 8]
	mov	qword ptr [rsi], rax
	mov	rdi, rbx
	call	_ZNKSt6bitsetILm48EE9to_stringB5cxx11Ev
	add	r14, 296
	mov	rdi, r14
	mov	rsi, rbx
	call	_ZNSt7__cxx1112basic_stringIcSt11char_traitsIcESaIcEEaSEOS4_
.Ltmp162:
	mov	rdi, rbx
	call	_ZNSt7__cxx1112basic_stringIcSt11char_traitsIcESaIcEE10_M_disposeEv
.Ltmp163:

	add	rsp, 64
	pop	rbx
	pop	r12
	pop	r13
	pop	r14
	pop	r15
	ret
.LBB5_11:
.Ltmp164:
	mov	rdi, rax
	call	__cxa_call_unexpected
.Lfunc_end5:
	.size	_ZN3DES5xor48ERKNSt7__cxx1112basic_stringIcSt11char_traitsIcESaIcEEES7_, .Lfunc_end5-_ZN3DES5xor48ERKNSt7__cxx1112basic_stringIcSt11char_traitsIcESaIcEEES7_
	.cfi_endproc
	.section	.gcc_except_table,"a",@progbits
	.p2align	2
GCC_except_table5:
.Lexception4:
	.byte	255                     
	.byte	3                       
	.asciz	"\253\200"              
	.byte	3                       
	.byte	39                      
	.long	.Lfunc_begin4-.Lfunc_begin4 
	.long	.Ltmp162-.Lfunc_begin4  
	.long	0                       
	.byte	0                       
	.long	.Ltmp162-.Lfunc_begin4  
	.long	.Ltmp163-.Ltmp162       
	.long	.Ltmp164-.Lfunc_begin4  
	.byte	1                       
	.long	.Ltmp163-.Lfunc_begin4  
	.long	.Lfunc_end5-.Ltmp163    
	.long	0                       
	.byte	0                       
	.byte	127                     

	.byte	0                       

	.byte	0
	.p2align	2

	.section	.text._ZNKSt6bitsetILm48EE9to_stringB5cxx11Ev,"axG",@progbits,_ZNKSt6bitsetILm48EE9to_stringB5cxx11Ev,comdat
	.weak	_ZNKSt6bitsetILm48EE9to_stringB5cxx11Ev 
	.p2align	1, 0x90
	.type	_ZNKSt6bitsetILm48EE9to_stringB5cxx11Ev,@function
_ZNKSt6bitsetILm48EE9to_stringB5cxx11Ev: 
	.cfi_startproc

	push	rbp
.Lcfi37:
	.cfi_def_cfa_offset 16
	push	r15
.Lcfi38:
	.cfi_def_cfa_offset 24
	push	r14
.Lcfi39:
	.cfi_def_cfa_offset 32
	push	r13
.Lcfi40:
	.cfi_def_cfa_offset 40
	push	r12
.Lcfi41:
	.cfi_def_cfa_offset 48
	push	rbx
.Lcfi42:
	.cfi_def_cfa_offset 56
	push	rax
.Lcfi43:
	.cfi_def_cfa_offset 64
.Lcfi44:
	.cfi_offset rbx, -56
.Lcfi45:
	.cfi_offset r12, -48
.Lcfi46:
	.cfi_offset r13, -40
.Lcfi47:
	.cfi_offset r14, -32
.Lcfi48:
	.cfi_offset r15, -24
.Lcfi49:
	.cfi_offset rbp, -16
	mov	r14, rsi
	mov	rbp, rdi
	mov	eax, dword ptr [rip + x.68]
	lea	ecx, [rax - 1]
	imul	ecx, eax
	not	ecx
	or	ecx, -2
	mov	eax, -1
	cmp	ecx, eax
	sete	byte ptr [rsp + 6]
	mov	eax, dword ptr [rip + y.69]
	cmp	eax, 10
	setl	byte ptr [rsp + 7]
	mov	eax, -990728350
	mov	r12d, -506574419
	mov	r15d, -1794105748
	mov	r13d, 337122084
	jmp	.LBB6_1
.LBB6_8:                                
	mov	rdi, rbp
	mov	rsi, r14
	call	_ZNKSt6bitsetILm48EE9to_stringIcSt11char_traitsIcESaIcEEENSt7__cxx1112basic_stringIT_T0_T1_EEv
	mov	eax, -506574419
	jmp	.LBB6_1
.LBB6_9:                                
	mov	rdi, rbp
	mov	rsi, r14
	call	_ZNKSt6bitsetILm48EE9to_stringIcSt11char_traitsIcESaIcEEENSt7__cxx1112basic_stringIT_T0_T1_EEv
	mov	eax, dword ptr [rip + x.68]
	mov	ecx, dword ptr [rip + y.69]
	mov	edx, eax
	neg	edx
	not	edx
	imul	edx, eax
	mov	eax, edx
	xor	eax, -2
	and	eax, edx
	sete	dl
	cmp	ecx, 10
	setl	bl
	xor	bl, dl
	mov	edx, -1794105748
	cmovne	edx, r13d
	test	eax, eax
	mov	eax, edx
	cmove	eax, r13d
	cmp	ecx, 10
	cmovge	eax, edx
.LBB6_1:                                
	cmp	eax, -506574420
	jg	.LBB6_5

	cmp	eax, -1794105748
	je	.LBB6_8

	cmp	eax, -990728350
	jne	.LBB6_1

	mov	cl, byte ptr [rsp + 6]
	mov	al, byte ptr [rsp + 7]
	mov	edx, ecx
	xor	dl, al
	test	al, al
	mov	eax, -1794105748
	cmovne	eax, r12d
	test	cl, cl
	cmove	eax, r15d
	test	dl, dl
	cmovne	eax, r12d
	jmp	.LBB6_1
.LBB6_5:                                
	cmp	eax, -506574419
	je	.LBB6_9

	cmp	eax, 337122084
	jne	.LBB6_1

	mov	rax, rbp
	add	rsp, 8
	pop	rbx
	pop	r12
	pop	r13
	pop	r14
	pop	r15
	pop	rbp
	ret
.Lfunc_end6:
	.size	_ZNKSt6bitsetILm48EE9to_stringB5cxx11Ev, .Lfunc_end6-_ZNKSt6bitsetILm48EE9to_stringB5cxx11Ev
	.cfi_endproc

	.section	.text._ZNSt7__cxx1112basic_stringIcSt11char_traitsIcESaIcEEaSEOS4_,"axG",@progbits,_ZNSt7__cxx1112basic_stringIcSt11char_traitsIcESaIcEEaSEOS4_,comdat
	.weak	_ZNSt7__cxx1112basic_stringIcSt11char_traitsIcESaIcEEaSEOS4_ 
	.p2align	1, 0x90
	.type	_ZNSt7__cxx1112basic_stringIcSt11char_traitsIcESaIcEEaSEOS4_,@function
_ZNSt7__cxx1112basic_stringIcSt11char_traitsIcESaIcEEaSEOS4_: 
.Lfunc_begin5:
	.cfi_startproc
	.cfi_personality 3, __gxx_personality_v0
	.cfi_lsda 3, .Lexception5

	push	r15
	push	r14
	push	r12
	push	rbx
	push	rax
	mov	rbx, rsi
	mov	r14, rdi
.Ltmp165:
	call	_ZNKSt7__cxx1112basic_stringIcSt11char_traitsIcESaIcEE11_M_is_localEv
.Ltmp166:

	mov	rdi, rbx
	call	_ZSt4moveIRSaIcEEONSt16remove_referenceIT_E4typeEOS3_
.Ltmp167:
	mov	rdi, rbx
	call	_ZNKSt7__cxx1112basic_stringIcSt11char_traitsIcESaIcEE11_M_is_localEv
.Ltmp168:

	test	al, al
	je	.LBB7_8

	mov	rdx, qword ptr [rbx + 8]
	test	rdx, rdx
	je	.LBB7_4

	mov	rdi, qword ptr [r14]
	mov	rsi, qword ptr [rbx]
.Ltmp172:
	call	_ZNSt7__cxx1112basic_stringIcSt11char_traitsIcESaIcEE7_S_copyEPcPKcm
.Ltmp173:

	mov	rsi, qword ptr [rbx + 8]
	jmp	.LBB7_7
.LBB7_8:
.Ltmp169:
	mov	rdi, r14
	call	_ZNKSt7__cxx1112basic_stringIcSt11char_traitsIcESaIcEE11_M_is_localEv
.Ltmp170:

	test	al, al
	je	.LBB7_12

	xor	r12d, r12d

	jmp	.LBB7_13
.LBB7_12:
	mov	r12, qword ptr [r14]
	mov	r15, qword ptr [r14 + 16]
.LBB7_13:
	mov	rsi, qword ptr [rbx]
	mov	rdi, r14
	call	_ZNSt7__cxx1112basic_stringIcSt11char_traitsIcESaIcEE7_M_dataEPc
	mov	rdi, rbx
	call	_ZNKSt7__cxx1112basic_stringIcSt11char_traitsIcESaIcEE6lengthEv
	mov	qword ptr [r14 + 8], rax
	mov	rsi, qword ptr [rbx + 16]
	mov	rdi, r14
	call	_ZNSt7__cxx1112basic_stringIcSt11char_traitsIcESaIcEE11_M_capacityEm
	test	r12, r12
	je	.LBB7_15

	mov	rdi, rbx
	mov	rsi, r12
	call	_ZNSt7__cxx1112basic_stringIcSt11char_traitsIcESaIcEE7_M_dataEPc
	mov	rdi, rbx
	mov	rsi, r15
	call	_ZNSt7__cxx1112basic_stringIcSt11char_traitsIcESaIcEE11_M_capacityEm
	jmp	.LBB7_16
.LBB7_4:
	xor	esi, esi
.LBB7_7:
.Ltmp174:
	mov	rdi, r14
	call	_ZNSt7__cxx1112basic_stringIcSt11char_traitsIcESaIcEE13_M_set_lengthEm
.Ltmp175:
	jmp	.LBB7_16
.LBB7_15:
	lea	rsi, [rbx + 16]
	mov	rdi, rbx
	call	_ZNSt7__cxx1112basic_stringIcSt11char_traitsIcESaIcEE7_M_dataEPc
.LBB7_16:
	mov	rdi, rbx
	call	_ZNSt7__cxx1112basic_stringIcSt11char_traitsIcESaIcEE5clearEv
	mov	rax, r14
	add	rsp, 8
	pop	rbx
	pop	r12
	pop	r14
	pop	r15
	ret
.LBB7_11:
.Ltmp171:
	mov	rdi, rax
	call	__clang_call_terminate
.LBB7_17:
.Ltmp176:
	mov	rdi, rax
	call	__clang_call_terminate
.Lfunc_end7:
	.size	_ZNSt7__cxx1112basic_stringIcSt11char_traitsIcESaIcEEaSEOS4_, .Lfunc_end7-_ZNSt7__cxx1112basic_stringIcSt11char_traitsIcESaIcEEaSEOS4_
	.cfi_endproc
	.section	.gcc_except_table,"a",@progbits
	.p2align	2
GCC_except_table7:
.Lexception5:
	.byte	255                     
	.byte	3                       
	.asciz	"\257\200"              
	.byte	3                       
	.byte	39                      
	.long	.Ltmp165-.Lfunc_begin5  
	.long	.Ltmp173-.Ltmp165       
	.long	.Ltmp176-.Lfunc_begin5  
	.byte	1                       
	.long	.Ltmp169-.Lfunc_begin5  
	.long	.Ltmp170-.Ltmp169       
	.long	.Ltmp171-.Lfunc_begin5  
	.byte	1                       
	.long	.Ltmp174-.Lfunc_begin5  
	.long	.Ltmp175-.Ltmp174       
	.long	.Ltmp176-.Lfunc_begin5  
	.byte	1                       
	.byte	1                       

	.byte	0                       

	.long	0                       
	.p2align	2

	.text
	.globl	_ZN3DES5xor32ERKNSt7__cxx1112basic_stringIcSt11char_traitsIcESaIcEEES7_ 
	.p2align	1, 0x90
	.type	_ZN3DES5xor32ERKNSt7__cxx1112basic_stringIcSt11char_traitsIcESaIcEEES7_,@function
_ZN3DES5xor32ERKNSt7__cxx1112basic_stringIcSt11char_traitsIcESaIcEEES7_: 
.Lfunc_begin6:
	.cfi_startproc
	.cfi_personality 3, __gxx_personality_v0
	.cfi_lsda 3, .Lexception6

	push	r15
.Lcfi50:
	.cfi_def_cfa_offset 16
	push	r14
.Lcfi51:
	.cfi_def_cfa_offset 24
	push	r13
.Lcfi52:
	.cfi_def_cfa_offset 32
	push	r12
.Lcfi53:
	.cfi_def_cfa_offset 40
	push	rbx
.Lcfi54:
	.cfi_def_cfa_offset 48
	sub	rsp, 64
.Lcfi55:
	.cfi_def_cfa_offset 112
.Lcfi56:
	.cfi_offset rbx, -48
.Lcfi57:
	.cfi_offset r12, -40
.Lcfi58:
	.cfi_offset r13, -32
.Lcfi59:
	.cfi_offset r14, -24
.Lcfi60:
	.cfi_offset r15, -16
	mov	r14, rdx
	mov	r13, rdi
	lea	r15, [rsp + 16]
	xor	edx, edx
	mov	rdi, r15
	call	_ZNSt6bitsetILm32EEC2IcSt11char_traitsIcESaIcEEERKNSt7__cxx1112basic_stringIT_T0_T1_EEm
	lea	r12, [rsp + 8]
	xor	edx, edx
	mov	rdi, r12
	mov	rsi, r14
	call	_ZNSt6bitsetILm32EEC2IcSt11char_traitsIcESaIcEEERKNSt7__cxx1112basic_stringIT_T0_T1_EEm
	mov	rax, qword ptr [r15]
	mov	rcx, qword ptr [r12]
	mov	rdx, rcx
	not	rdx
	movabs	rsi, -6679927688322366726
	and	rdx, rsi
	mov	rdi, rax
	not	rdi
	and	rdi, rsi
	mov	rbx, rsi
	not	rbx
	and	rcx, rbx
	or	rcx, rdx
	and	rbx, rax
	or	rbx, rdi
	xor	rbx, rcx
	lea	rsi, [rsp + 24]
	mov	qword ptr [rsi], rbx
	lea	r14, [rsp + 32]
	mov	rdi, r14
	call	_ZNKSt6bitsetILm32EE9to_stringB5cxx11Ev
	add	r13, 72
	mov	rdi, r13
	mov	rsi, r14
	call	_ZNSt7__cxx1112basic_stringIcSt11char_traitsIcESaIcEEaSEOS4_
.Ltmp177:
	mov	rdi, r14
	call	_ZNSt7__cxx1112basic_stringIcSt11char_traitsIcESaIcEE10_M_disposeEv
.Ltmp178:

	add	rsp, 64
	pop	rbx
	pop	r12
	pop	r13
	pop	r14
	pop	r15
	ret
.LBB8_2:
.Ltmp179:
	mov	rdi, rax
	call	__cxa_call_unexpected
.Lfunc_end8:
	.size	_ZN3DES5xor32ERKNSt7__cxx1112basic_stringIcSt11char_traitsIcESaIcEEES7_, .Lfunc_end8-_ZN3DES5xor32ERKNSt7__cxx1112basic_stringIcSt11char_traitsIcESaIcEEES7_
	.cfi_endproc
	.section	.gcc_except_table,"a",@progbits
	.p2align	2
GCC_except_table8:
.Lexception6:
	.byte	255                     
	.byte	3                       
	.asciz	"\253\200"              
	.byte	3                       
	.byte	39                      
	.long	.Lfunc_begin6-.Lfunc_begin6 
	.long	.Ltmp177-.Lfunc_begin6  
	.long	0                       
	.byte	0                       
	.long	.Ltmp177-.Lfunc_begin6  
	.long	.Ltmp178-.Ltmp177       
	.long	.Ltmp179-.Lfunc_begin6  
	.byte	1                       
	.long	.Ltmp178-.Lfunc_begin6  
	.long	.Lfunc_end8-.Ltmp178    
	.long	0                       
	.byte	0                       
	.byte	127                     

	.byte	0                       

	.byte	0
	.p2align	2

	.section	.text._ZNSt6bitsetILm32EEC2IcSt11char_traitsIcESaIcEEERKNSt7__cxx1112basic_stringIT_T0_T1_EEm,"axG",@progbits,_ZNSt6bitsetILm32EEC2IcSt11char_traitsIcESaIcEEERKNSt7__cxx1112basic_stringIT_T0_T1_EEm,comdat
	.weak	_ZNSt6bitsetILm32EEC2IcSt11char_traitsIcESaIcEEERKNSt7__cxx1112basic_stringIT_T0_T1_EEm 
	.p2align	1, 0x90
	.type	_ZNSt6bitsetILm32EEC2IcSt11char_traitsIcESaIcEEERKNSt7__cxx1112basic_stringIT_T0_T1_EEm,@function
_ZNSt6bitsetILm32EEC2IcSt11char_traitsIcESaIcEEERKNSt7__cxx1112basic_stringIT_T0_T1_EEm: 
	.cfi_startproc

	push	r15
.Lcfi61:
	.cfi_def_cfa_offset 16
	push	r14
.Lcfi62:
	.cfi_def_cfa_offset 24
	push	rbx
.Lcfi63:
	.cfi_def_cfa_offset 32
	sub	rsp, 16
.Lcfi64:
	.cfi_def_cfa_offset 48
.Lcfi65:
	.cfi_offset rbx, -32
.Lcfi66:
	.cfi_offset r14, -24
.Lcfi67:
	.cfi_offset r15, -16
	mov	r14, rdx
	mov	rbx, rsi
	mov	r15, rdi
	mov	qword ptr [r15], 0
	call	_ZNKSt6bitsetILm32EE25_M_check_initial_positionIcSt11char_traitsIcESaIcEEEvRKNSt7__cxx1112basic_stringIT_T0_T1_EEm
	mov	rsi, qword ptr [rbx]
	mov	rdx, qword ptr [rbx + 8]
	mov	dword ptr [rsp], 49
	mov	r8, -1
	mov	r9d, 48
	mov	rdi, r15
	mov	rcx, r14
	call	_ZNSt6bitsetILm32EE16_M_copy_from_ptrIcSt11char_traitsIcEEEvPKT_mmmS4_S4_
	add	rsp, 16
	pop	rbx
	pop	r14
	pop	r15
	ret
.Lfunc_end9:
	.size	_ZNSt6bitsetILm32EEC2IcSt11char_traitsIcESaIcEEERKNSt7__cxx1112basic_stringIT_T0_T1_EEm, .Lfunc_end9-_ZNSt6bitsetILm32EEC2IcSt11char_traitsIcESaIcEEERKNSt7__cxx1112basic_stringIT_T0_T1_EEm
	.cfi_endproc

	.section	.text._ZNKSt6bitsetILm32EE9to_stringB5cxx11Ev,"axG",@progbits,_ZNKSt6bitsetILm32EE9to_stringB5cxx11Ev,comdat
	.weak	_ZNKSt6bitsetILm32EE9to_stringB5cxx11Ev 
	.p2align	1, 0x90
	.type	_ZNKSt6bitsetILm32EE9to_stringB5cxx11Ev,@function
_ZNKSt6bitsetILm32EE9to_stringB5cxx11Ev: 
	.cfi_startproc

	push	rbp
.Lcfi68:
	.cfi_def_cfa_offset 16
	push	r15
.Lcfi69:
	.cfi_def_cfa_offset 24
	push	r14
.Lcfi70:
	.cfi_def_cfa_offset 32
	push	r13
.Lcfi71:
	.cfi_def_cfa_offset 40
	push	r12
.Lcfi72:
	.cfi_def_cfa_offset 48
	push	rbx
.Lcfi73:
	.cfi_def_cfa_offset 56
	push	rax
.Lcfi74:
	.cfi_def_cfa_offset 64
.Lcfi75:
	.cfi_offset rbx, -56
.Lcfi76:
	.cfi_offset r12, -48
.Lcfi77:
	.cfi_offset r13, -40
.Lcfi78:
	.cfi_offset r14, -32
.Lcfi79:
	.cfi_offset r15, -24
.Lcfi80:
	.cfi_offset rbp, -16
	mov	r14, rsi
	mov	rbx, rdi
	mov	eax, dword ptr [rip + x.78]
	lea	ecx, [rax - 1]
	imul	ecx, eax
	not	ecx
	or	ecx, -2
	mov	r12d, -1
	cmp	ecx, r12d
	sete	byte ptr [rsp + 6]
	mov	eax, dword ptr [rip + y.79]
	cmp	eax, 10
	setl	byte ptr [rsp + 7]
	mov	eax, -491776485
	mov	r15d, -40477544
	mov	r13d, -1345411803
	mov	ebp, 1005571838
	jmp	.LBB10_1
.LBB10_8:                               
	mov	rdi, rbx
	mov	rsi, r14
	call	_ZNKSt6bitsetILm32EE9to_stringIcSt11char_traitsIcESaIcEEENSt7__cxx1112basic_stringIT_T0_T1_EEv
	mov	eax, -40477544
	jmp	.LBB10_1
.LBB10_9:                               
	mov	rdi, rbx
	mov	rsi, r14
	call	_ZNKSt6bitsetILm32EE9to_stringIcSt11char_traitsIcESaIcEEENSt7__cxx1112basic_stringIT_T0_T1_EEv
	mov	eax, dword ptr [rip + x.78]
	lea	ecx, [rax - 1]
	imul	ecx, eax
	not	ecx
	or	ecx, -2
	cmp	ecx, r12d
	sete	cl
	mov	eax, -1345411803
	cmove	eax, ebp
	cmp	dword ptr [rip + y.79], 10
	setl	dl
	cmovge	eax, r13d
	xor	dl, cl
	cmovne	eax, ebp
.LBB10_1:                               
	cmp	eax, -40477545
	jg	.LBB10_5

	cmp	eax, -1345411803
	je	.LBB10_8

	cmp	eax, -491776485
	jne	.LBB10_1

	mov	cl, byte ptr [rsp + 6]
	mov	al, byte ptr [rsp + 7]
	mov	edx, ecx
	xor	dl, al
	test	al, al
	mov	eax, -1345411803
	cmovne	eax, r15d
	test	cl, cl
	cmove	eax, r13d
	test	dl, dl
	cmovne	eax, r15d
	jmp	.LBB10_1
.LBB10_5:                               
	cmp	eax, -40477544
	je	.LBB10_9

	cmp	eax, 1005571838
	jne	.LBB10_1

	mov	rax, rbx
	add	rsp, 8
	pop	rbx
	pop	r12
	pop	r13
	pop	r14
	pop	r15
	pop	rbp
	ret
.Lfunc_end10:
	.size	_ZNKSt6bitsetILm32EE9to_stringB5cxx11Ev, .Lfunc_end10-_ZNKSt6bitsetILm32EE9to_stringB5cxx11Ev
	.cfi_endproc

	.text
	.globl	_ZN3DES12initialPermuERKNSt7__cxx1112basic_stringIcSt11char_traitsIcESaIcEEE 
	.p2align	1, 0x90
	.type	_ZN3DES12initialPermuERKNSt7__cxx1112basic_stringIcSt11char_traitsIcESaIcEEE,@function
_ZN3DES12initialPermuERKNSt7__cxx1112basic_stringIcSt11char_traitsIcESaIcEEE: 
.Lfunc_begin7:
	.cfi_startproc
	.cfi_personality 3, __gxx_personality_v0
	.cfi_lsda 3, .Lexception7

	push	rbp
.Lcfi81:
	.cfi_def_cfa_offset 16
	push	r15
.Lcfi82:
	.cfi_def_cfa_offset 24
	push	r14
.Lcfi83:
	.cfi_def_cfa_offset 32
	push	r13
.Lcfi84:
	.cfi_def_cfa_offset 40
	push	r12
.Lcfi85:
	.cfi_def_cfa_offset 48
	push	rbx
.Lcfi86:
	.cfi_def_cfa_offset 56
	sub	rsp, 136
.Lcfi87:
	.cfi_def_cfa_offset 192
.Lcfi88:
	.cfi_offset rbx, -56
.Lcfi89:
	.cfi_offset r12, -48
.Lcfi90:
	.cfi_offset r13, -40
.Lcfi91:
	.cfi_offset r14, -32
.Lcfi92:
	.cfi_offset r15, -24
.Lcfi93:
	.cfi_offset rbp, -16
	mov	r15, rdi
	lea	rax, [rsp + 120]
	mov	qword ptr [rsp + 104], rax
	lea	r12, [rsp + 128]
	mov	qword ptr [rsp + 24], r12
	mov	rax, qword ptr [rsp + 24]
	mov	qword ptr [r12], 0
	lea	r14, [rsp + 16]
	mov	qword ptr [rsp + 48], r14
	mov	rax, qword ptr [rsp + 48]
	mov	qword ptr [rsp + 40], rsi 
	mov	r13, qword ptr [rsi]
	add	r15, 360
	mov	eax, -285085806
	mov	qword ptr [rsp + 32], r14 
	mov	qword ptr [rsp + 88], r15 
	jmp	.LBB11_1
.LBB11_3:                               
	cmp	eax, -2113640139
	je	.LBB11_43

	cmp	eax, -1249334020
	jne	.LBB11_1

	lea	rbx, [rsp + 56]
	mov	rdi, rbx
	mov	rsi, r12
	call	_ZNKSt6bitsetILm64EE9to_stringIcSt11char_traitsIcESaIcEEENSt7__cxx1112basic_stringIT_T0_T1_EEv
	mov	rdi, r15
	mov	rsi, rbx
	call	_ZNSt7__cxx1112basic_stringIcSt11char_traitsIcESaIcEEaSEOS4_
.Ltmp180:
	mov	rdi, rbx
	call	_ZNSt7__cxx1112basic_stringIcSt11char_traitsIcESaIcEE10_M_disposeEv
.Ltmp181:

	mov	rax, qword ptr [rsp + 24]
	mov	eax, 1026395820
	jmp	.LBB11_1
.LBB11_45:                              
	mov	rax, qword ptr [rsp + 104]
	mov	qword ptr [rsp + 32], rax 
	mov	r13, qword ptr [rsp + 112]
	mov	eax, -285085806
	jmp	.LBB11_1
.LBB11_37:                              
	mov	rax, qword ptr [rsp + 16]
	cmp	byte ptr [rax], 49
	mov	eax, -2113640139
	mov	ecx, -202689546
	cmove	eax, ecx
	jmp	.LBB11_1
.LBB11_24:                              
	mov	rax, qword ptr [rsp + 32] 
	mov	qword ptr [rax], r13
	mov	rcx, qword ptr [rsp + 40] 
	mov	rax, qword ptr [rcx]
	add	rax, qword ptr [rcx + 8]
	mov	qword ptr [rsp + 56], rax
	mov	eax, dword ptr [rip + x.86]
	mov	ecx, dword ptr [rip + y.87]
	lea	edx, [rax - 1]
	imul	edx, eax
	mov	eax, edx
	xor	eax, -2
	test	eax, edx
	sete	byte ptr [rsp + 14]
	cmp	ecx, 10
	setl	byte ptr [rsp + 15]
	mov	ecx, -1477871261
	jmp	.LBB11_25
.LBB11_44:                              
	xor	esi, esi
	mov	rdi, r14
	call	_ZN9__gnu_cxx17__normal_iteratorIPKcNSt7__cxx1112basic_stringIcSt11char_traitsIcESaIcEEEEppEi
	mov	qword ptr [rsp + 112], rax
	mov	eax, dword ptr [rip + x.80]
	lea	ecx, [rax - 1]
	imul	ecx, eax
	not	ecx
	or	ecx, -2
	mov	eax, -1
	cmp	ecx, eax
	sete	cl
	mov	eax, 965631791
	mov	edi, 18179582
	cmove	eax, edi
	cmp	dword ptr [rip + y.81], 10
	setl	dl
	mov	esi, 965631791
	cmovge	eax, esi
	xor	dl, cl
	cmovne	eax, edi
	jmp	.LBB11_1
.LBB11_47:                              
	xor	esi, esi
	mov	rdi, r14
	call	_ZN9__gnu_cxx17__normal_iteratorIPKcNSt7__cxx1112basic_stringIcSt11char_traitsIcESaIcEEEEppEi
	mov	eax, -208564928
	jmp	.LBB11_1
.LBB11_35:                              
	lea	rbx, [rsp + 56]
	mov	rdi, rbx
	mov	rsi, r12
	call	_ZNKSt6bitsetILm64EE9to_stringIcSt11char_traitsIcESaIcEEENSt7__cxx1112basic_stringIT_T0_T1_EEv
	mov	rdi, r15
	mov	rsi, rbx
	call	_ZNSt7__cxx1112basic_stringIcSt11char_traitsIcESaIcEEaSEOS4_
.Ltmp183:
	mov	rdi, rbx
	call	_ZNSt7__cxx1112basic_stringIcSt11char_traitsIcESaIcEE10_M_disposeEv
.Ltmp184:

	mov	eax, dword ptr [rip + x.80]
	mov	ecx, dword ptr [rip + y.81]
	mov	edx, eax
	neg	edx
	not	edx
	imul	edx, eax
	not	edx
	or	edx, -2
	mov	edi, -1
	cmp	edx, edi
	sete	al
	cmp	ecx, 10
	setl	bl
	xor	bl, al
	mov	esi, -1249334020
	mov	ebp, 1623334291
	cmovne	esi, ebp
	cmp	edx, edi
	mov	eax, esi
	cmove	eax, ebp
	cmp	ecx, 10
	mov	rcx, qword ptr [rsp + 24]
	cmovge	eax, esi
	jmp	.LBB11_1
.LBB11_43:                              
	mov	eax, dword ptr [rip + x.80]
	lea	ecx, [rax - 1]
	imul	ecx, eax
	not	ecx
	or	ecx, -2
	mov	eax, -1
	cmp	ecx, eax
	sete	cl
	mov	eax, 965631791
	mov	esi, -208564928
	cmove	eax, esi
	cmp	dword ptr [rip + y.81], 10
	setl	dl
	mov	edi, 965631791
	cmovge	eax, edi
	xor	dl, cl
	cmovne	eax, esi
	jmp	.LBB11_1
.LBB11_32:                              
	mov	rdi, r14
	call	_ZNK9__gnu_cxx17__normal_iteratorIPKcNSt7__cxx1112basic_stringIcSt11char_traitsIcESaIcEEEE4baseEv
	mov	rbp, qword ptr [rax]
	lea	rdi, [rsp + 56]
	call	_ZNK9__gnu_cxx17__normal_iteratorIPKcNSt7__cxx1112basic_stringIcSt11char_traitsIcESaIcEEEE4baseEv
	mov	ecx, dword ptr [rip + x.86]
	mov	edi, dword ptr [rip + y.87]
	lea	esi, [rcx - 1]
	imul	esi, ecx
	mov	ecx, esi
	xor	ecx, -2
	and	ecx, esi
	sete	bl
	cmp	edi, 10
	setl	dl
	xor	dl, bl
	mov	edx, 691070385
	mov	esi, 2045576252
	cmovne	edx, esi
	test	ecx, ecx
	mov	ecx, edx
	cmove	ecx, esi
	cmp	edi, 10
	cmovge	ecx, edx
	cmp	rbp, qword ptr [rax]
	setb	byte ptr [rsp + 13]
	jmp	.LBB11_25
.LBB11_33:                              
	mov	rdi, r14
	call	_ZNK9__gnu_cxx17__normal_iteratorIPKcNSt7__cxx1112basic_stringIcSt11char_traitsIcESaIcEEEE4baseEv
	lea	rdi, [rsp + 56]
	call	_ZNK9__gnu_cxx17__normal_iteratorIPKcNSt7__cxx1112basic_stringIcSt11char_traitsIcESaIcEEEE4baseEv
	mov	ecx, -1801168299
.LBB11_25:                              

	cmp	ecx, 691070384
	jg	.LBB11_29

	cmp	ecx, -1801168299
	je	.LBB11_32

	cmp	ecx, -1477871261
	jne	.LBB11_25

	mov	al, byte ptr [rsp + 14]
	mov	cl, byte ptr [rsp + 15]
	mov	edx, eax
	xor	dl, cl
	test	cl, cl
	mov	ecx, 691070385
	mov	esi, -1801168299
	cmovne	ecx, esi
	test	al, al
	mov	eax, 691070385
	cmove	ecx, eax
	test	dl, dl
	cmovne	ecx, esi
	jmp	.LBB11_25
.LBB11_29:                              
	cmp	ecx, 691070385
	je	.LBB11_33

	cmp	ecx, 2045576252
	jne	.LBB11_25

	mov	al, byte ptr [rsp + 13]
	test	al, al
	mov	eax, 664889965
	mov	ecx, 641457555
	cmovne	eax, ecx
.LBB11_1:                               


	cmp	eax, 18179581
	jle	.LBB11_2

	cmp	eax, 965631790
	jg	.LBB11_20

	cmp	eax, 18179582
	je	.LBB11_45

	cmp	eax, 641457555
	je	.LBB11_37

	cmp	eax, 664889965
	jne	.LBB11_1

	mov	eax, dword ptr [rip + x.80]
	mov	ecx, dword ptr [rip + y.81]
	mov	edx, eax
	neg	edx
	not	edx
	imul	edx, eax
	mov	eax, edx
	xor	eax, -2
	and	eax, edx
	sete	dl
	cmp	ecx, 10
	setl	bl
	xor	bl, dl
	mov	edx, -1249334020
	mov	esi, 1026395820
	cmovne	edx, esi
	test	eax, eax
	mov	eax, edx
	cmove	eax, esi
	cmp	ecx, 10
	mov	rcx, qword ptr [rsp + 48]
	cmovge	eax, edx
	jmp	.LBB11_1
.LBB11_2:                               
	cmp	eax, -285085807
	jle	.LBB11_3

	cmp	eax, -285085806
	je	.LBB11_24

	cmp	eax, -208564928
	je	.LBB11_44

	cmp	eax, -202689546
	jne	.LBB11_1

	mov	qword ptr [rsp + 96], r13 
	mov	r14, r12
	mov	edi, _ZN3DES23initialPermutationTableE
	call	_ZNKSt5arrayIiLm64EE4dataEv
	mov	r13, rax
	mov	edi, _ZN3DES23initialPermutationTableE
	call	_ZNKSt5arrayIiLm64EE4dataEv
	mov	r15, rax
	mov	edi, _ZN3DES23initialPermutationTableE
	call	_ZNKSt5arrayIiLm64EE4dataEv
	mov	r12, rax
	mov	rax, qword ptr [rsp + 40] 
	mov	rdi, qword ptr [rax]
	mov	rsi, qword ptr [rsp + 16]
	mov	eax, dword ptr [rip + x.214]
	mov	ecx, dword ptr [rip + y.215]
	lea	edx, [rax - 1]
	imul	edx, eax
	not	edx
	or	edx, -2
	mov	ebp, -1
	cmp	edx, ebp
	sete	al
	cmp	ecx, 10
	setl	bl
	xor	bl, al
	mov	eax, -1280075056
	mov	ebx, 1080909681
	cmovne	eax, ebx
	cmp	edx, ebp
	sete	byte ptr [rsp + 13]
	mov	edx, eax
	cmove	edx, ebx
	cmp	ecx, 10
	setl	byte ptr [rsp + 56]
	cmovge	edx, eax
	mov	ecx, -1745699835
	jmp	.LBB11_11
.LBB11_39:                              
	cmp	ecx, 1637778273
	jne	.LBB11_11

	mov	ecx, edx
	jmp	.LBB11_11
.LBB11_41:                              
	mov	bl, byte ptr [rsp + 13]
	mov	cl, byte ptr [rsp + 56]
	mov	eax, ebx
	xor	al, cl
	test	cl, cl
	mov	ecx, -1280075056
	mov	r8d, 1637778273
	cmovne	ecx, r8d
	test	bl, bl
	mov	ebp, -1280075056
	cmove	ecx, ebp
	test	al, al
	cmovne	ecx, r8d
.LBB11_11:                              

	cmp	ecx, 1080909680
	jg	.LBB11_38

	cmp	ecx, -1745699835
	je	.LBB11_41

	cmp	ecx, -1280075056
	jne	.LBB11_11

	mov	ecx, 1637778273
	jmp	.LBB11_11
.LBB11_38:                              
	cmp	ecx, 1080909681
	jne	.LBB11_39

	add	r12, 256
	call	_ZSt10__distanceIN9__gnu_cxx17__normal_iteratorIPKcNSt7__cxx1112basic_stringIcSt11char_traitsIcESaIcEEEEEENSt15iterator_traitsIT_E15difference_typeESC_SC_St26random_access_iterator_tag
	inc	rax
	mov	qword ptr [rsp + 56], rax
	mov	rdi, r15
	mov	rsi, r12
	lea	rdx, [rsp + 56]
	call	_ZSt4findIPKilET_S2_S2_RKT0_
	movabs	rcx, -2659825323930849610
	add	rax, rcx
	sub	rax, r13
	sub	rax, rcx
	shr	rax, 2
	mov	ecx, 63
	sub	ecx, eax
	movsxd	rbp, ecx
	mov	edx, .L.str.48
	mov	r12, r14
	mov	rdi, r12
	mov	rsi, rbp
	call	_ZNKSt6bitsetILm64EE8_M_checkEmPKc
	mov	edx, 1
	mov	rdi, r12
	mov	rsi, rbp
	call	_ZNSt6bitsetILm64EE14_Unchecked_setEmi
	mov	eax, -2113640139
	mov	r15, qword ptr [rsp + 88] 
	lea	r14, [rsp + 16]
	mov	r13, qword ptr [rsp + 96] 
	jmp	.LBB11_1
.LBB11_20:                              
	cmp	eax, 965631791
	je	.LBB11_47

	cmp	eax, 1026395820
	je	.LBB11_35

	cmp	eax, 1623334291
	jne	.LBB11_1

	add	rsp, 136
	pop	rbx
	pop	r12
	pop	r13
	pop	r14
	pop	r15
	pop	rbp
	ret
.LBB11_34:
.Ltmp185:
	mov	rdi, rax
	call	__cxa_call_unexpected
.LBB11_46:
.Ltmp182:
	mov	rdi, rax
	call	__cxa_call_unexpected
.Lfunc_end11:
	.size	_ZN3DES12initialPermuERKNSt7__cxx1112basic_stringIcSt11char_traitsIcESaIcEEE, .Lfunc_end11-_ZN3DES12initialPermuERKNSt7__cxx1112basic_stringIcSt11char_traitsIcESaIcEEE
	.cfi_endproc
	.section	.gcc_except_table,"a",@progbits
	.p2align	2
GCC_except_table11:
.Lexception7:
	.byte	255                     
	.byte	3                       
	.byte	69                      
	.byte	3                       
	.byte	65                      
	.long	.Lfunc_begin7-.Lfunc_begin7 
	.long	.Ltmp180-.Lfunc_begin7  
	.long	0                       
	.byte	0                       
	.long	.Ltmp180-.Lfunc_begin7  
	.long	.Ltmp181-.Ltmp180       
	.long	.Ltmp182-.Lfunc_begin7  
	.byte	1                       
	.long	.Ltmp181-.Lfunc_begin7  
	.long	.Ltmp183-.Ltmp181       
	.long	0                       
	.byte	0                       
	.long	.Ltmp183-.Lfunc_begin7  
	.long	.Ltmp184-.Ltmp183       
	.long	.Ltmp185-.Lfunc_begin7  
	.byte	1                       
	.long	.Ltmp184-.Lfunc_begin7  
	.long	.Lfunc_end11-.Ltmp184   
	.long	0                       
	.byte	0                       
	.byte	127                     

	.byte	0                       

	.byte	0
	.p2align	2

	.section	.text._ZSt4findIPKilET_S2_S2_RKT0_,"axG",@progbits,_ZSt4findIPKilET_S2_S2_RKT0_,comdat
	.weak	_ZSt4findIPKilET_S2_S2_RKT0_ 
	.type	_ZSt4findIPKilET_S2_S2_RKT0_,@function
_ZSt4findIPKilET_S2_S2_RKT0_:           
	.cfi_startproc

	push	rbp
.Lcfi94:
	.cfi_def_cfa_offset 16
	push	r15
.Lcfi95:
	.cfi_def_cfa_offset 24
	push	r14
.Lcfi96:
	.cfi_def_cfa_offset 32
	push	r13
.Lcfi97:
	.cfi_def_cfa_offset 40
	push	r12
.Lcfi98:
	.cfi_def_cfa_offset 48
	push	rbx
.Lcfi99:
	.cfi_def_cfa_offset 56
	sub	rsp, 40
.Lcfi100:
	.cfi_def_cfa_offset 96
.Lcfi101:
	.cfi_offset rbx, -56
.Lcfi102:
	.cfi_offset r12, -48
.Lcfi103:
	.cfi_offset r13, -40
.Lcfi104:
	.cfi_offset r14, -32
.Lcfi105:
	.cfi_offset r15, -24
.Lcfi106:
	.cfi_offset rbp, -16
	mov	r13, rdx
	mov	qword ptr [rsp + 24], rsi 
	mov	r12, rdi
	mov	eax, dword ptr [rip + x.96]
	mov	ecx, dword ptr [rip + y.97]
	mov	edx, eax
	neg	edx
	not	edx
	imul	edx, eax
	not	edx
	or	edx, -2
	mov	ebp, -1
	cmp	edx, ebp
	sete	byte ptr [rsp + 14]
	cmp	ecx, 10
	setl	byte ptr [rsp + 15]
	mov	eax, 92544233
	mov	r15d, 1874699023
.LBB12_1:                               





	mov	r14d, 646895024
	jmp	.LBB12_2
.LBB12_11:                              
	cmp	eax, 92544233
	jne	.LBB12_2

	mov	cl, byte ptr [rsp + 14]
	mov	al, byte ptr [rsp + 15]
	mov	edx, ecx
	xor	dl, al
	test	al, al
	mov	eax, -88942926
	mov	esi, -206834433
	cmovne	eax, esi
	test	cl, cl
	mov	ecx, -88942926
	cmove	eax, ecx
	test	dl, dl
	cmovne	eax, esi
	jmp	.LBB12_2
.LBB12_20:                              
	mov	bl, byte ptr [rsp + 12]
	mov	cl, byte ptr [rsp + 13]
	mov	edx, ebx
	xor	dl, cl
	mov	edx, 745889465
	cmovne	edx, r14d
	test	cl, cl
	mov	ecx, edx
	cmovne	ecx, r14d
	test	bl, bl
	cmove	ecx, edx
	jmp	.LBB12_6
.LBB12_21:                              
	mov	ecx, 646895024
.LBB12_6:                               


	mov	edx, ecx
	and	edx, 2147483647
	cmp	edx, 745889464
	jg	.LBB12_13

	cmp	edx, 486063685
	je	.LBB12_20

	cmp	edx, 646895024
	jne	.LBB12_6

	mov	qword ptr [rsp + 16], r13
	mov	ecx, eax
	jmp	.LBB12_6
.LBB12_13:                              
	cmp	edx, 745889465
	je	.LBB12_21

	cmp	edx, 1874699023
	jne	.LBB12_6

	mov	rbx, qword ptr [rsp + 16]
	mov	eax, dword ptr [rip + x.422]
	mov	ecx, dword ptr [rip + y.423]
	lea	edx, [rax - 1]
	imul	edx, eax
	not	edx
	or	edx, -2
	cmp	edx, ebp
	sete	byte ptr [rsp + 12]
	cmp	ecx, 10
	setl	byte ptr [rsp + 13]
	mov	eax, -250402860
	jmp	.LBB12_16
.LBB12_22:                              
	cmp	eax, 338783892
	je	.LBB12_25

	cmp	eax, 377139152
	jne	.LBB12_16

	mov	rdi, r12
	mov	rsi, qword ptr [rsp + 24] 
	mov	rdx, rbx
	call	_ZSt9__find_ifIPKiN9__gnu_cxx5__ops16_Iter_equals_valIKlEEET_S7_S7_T0_St26random_access_iterator_tag
	mov	qword ptr [rsp + 16], rax
	mov	eax, dword ptr [rip + x.422]
	lea	ecx, [rax - 1]
	imul	ecx, eax
	mov	eax, ecx
	xor	eax, -2
	and	eax, ecx
	sete	cl
	test	eax, eax
	mov	eax, 338783892
	mov	edi, -9582224
	cmove	eax, edi
	cmp	dword ptr [rip + y.423], 10
	setl	dl
	mov	esi, 338783892
	cmovge	eax, esi
	xor	dl, cl
	cmovne	eax, edi
	jmp	.LBB12_16
.LBB12_45:                              
	mov	cl, byte ptr [rsp + 12]
	mov	al, byte ptr [rsp + 13]
	mov	edx, ecx
	xor	dl, al
	mov	edx, 338783892
	mov	esi, 377139152
	cmovne	edx, esi
	test	al, al
	mov	eax, edx
	cmovne	eax, esi
	test	cl, cl
	cmove	eax, edx
	jmp	.LBB12_16
.LBB12_25:                              
	mov	rdi, r12
	mov	rsi, qword ptr [rsp + 24] 
	mov	rdx, rbx
	call	_ZSt9__find_ifIPKiN9__gnu_cxx5__ops16_Iter_equals_valIKlEEET_S7_S7_T0_St26random_access_iterator_tag
	mov	eax, 377139152
.LBB12_16:                              


	cmp	eax, 338783891
	jg	.LBB12_22

	cmp	eax, -250402860
	je	.LBB12_45

	cmp	eax, -9582224
	jne	.LBB12_16

	mov	rax, qword ptr [rsp + 16]
	mov	qword ptr [rsp + 32], rax
	mov	eax, dword ptr [rip + x.96]
	lea	ecx, [rax - 1]
	imul	ecx, eax
	not	ecx
	or	ecx, -2
	cmp	ecx, ebp
	sete	cl
	mov	eax, -88942926
	mov	esi, -1619732186
	cmove	eax, esi
	cmp	dword ptr [rip + y.97], 10
	setl	dl
	mov	edi, -88942926
	cmovge	eax, edi
	xor	dl, cl
	cmovne	eax, esi
.LBB12_2:                               



	cmp	eax, -88942927
	jg	.LBB12_10

	cmp	eax, -1619732186
	je	.LBB12_26

	cmp	eax, -206834433
	jne	.LBB12_2

	mov	eax, dword ptr [rip + x.424]
	mov	ecx, dword ptr [rip + y.425]
	lea	edx, [rax - 1]
	imul	edx, eax
	not	edx
	or	edx, -2
	cmp	edx, ebp
	sete	al
	cmp	ecx, 10
	setl	bl
	xor	bl, al
	mov	esi, 745889465
	cmovne	esi, r15d
	cmp	edx, ebp
	sete	byte ptr [rsp + 12]
	mov	eax, esi
	cmove	eax, r15d
	cmp	ecx, 10
	setl	byte ptr [rsp + 13]
	cmovge	eax, esi
	mov	ecx, 486063685
	jmp	.LBB12_6
.LBB12_10:                              
	cmp	eax, -88942926
	jne	.LBB12_11

	mov	eax, dword ptr [rip + x.424]
	mov	ecx, dword ptr [rip + y.425]
	lea	edx, [rax - 1]
	imul	edx, eax
	not	edx
	or	edx, -2
	cmp	edx, ebp
	sete	al
	cmp	ecx, 10
	setl	bl
	xor	bl, al
	mov	esi, 745889465
	cmovne	esi, r15d
	cmp	edx, ebp
	sete	byte ptr [rsp + 12]
	mov	eax, esi
	cmove	eax, r15d
	cmp	ecx, 10
	setl	byte ptr [rsp + 13]
	cmovge	eax, esi
	mov	ecx, 486063685
	jmp	.LBB12_28
.LBB12_39:                              
	mov	bl, byte ptr [rsp + 12]
	mov	cl, byte ptr [rsp + 13]
	mov	edx, ebx
	xor	dl, cl
	test	cl, cl
	mov	ecx, 745889465
	cmovne	ecx, r14d
	test	bl, bl
	mov	esi, 745889465
	cmove	ecx, esi
	test	dl, dl
	cmovne	ecx, r14d
	jmp	.LBB12_28
.LBB12_40:                              
	mov	ecx, 646895024
.LBB12_28:                              

	mov	edx, ecx
	and	edx, 2147483647
	cmp	edx, 745889464
	jg	.LBB12_32

	cmp	edx, 486063685
	je	.LBB12_39

	cmp	edx, 646895024
	jne	.LBB12_28

	mov	qword ptr [rsp + 16], r13
	mov	ecx, eax
	jmp	.LBB12_28
.LBB12_32:                              
	cmp	edx, 745889465
	je	.LBB12_40

	cmp	edx, 1874699023
	jne	.LBB12_28

	mov	esi, -1
	mov	r14, r13
	mov	r13, qword ptr [rsp + 16]
	mov	eax, dword ptr [rip + x.422]
	mov	ecx, dword ptr [rip + y.423]
	lea	edx, [rax - 1]
	imul	edx, eax
	not	edx
	or	edx, -2
	cmp	edx, esi
	sete	byte ptr [rsp + 12]
	cmp	ecx, 10
	setl	byte ptr [rsp + 13]
	mov	ecx, -250402860
	jmp	.LBB12_35
.LBB12_41:                              
	cmp	ecx, 338783892
	je	.LBB12_44

	cmp	ecx, 377139152
	jne	.LBB12_35

	mov	rdi, r12
	mov	rsi, qword ptr [rsp + 24] 
	mov	rdx, r13
	call	_ZSt9__find_ifIPKiN9__gnu_cxx5__ops16_Iter_equals_valIKlEEET_S7_S7_T0_St26random_access_iterator_tag
	mov	ecx, dword ptr [rip + x.422]
	mov	edi, dword ptr [rip + y.423]
	lea	esi, [rcx - 1]
	imul	esi, ecx
	mov	ecx, esi
	xor	ecx, -2
	and	ecx, esi
	sete	bl
	cmp	edi, 10
	setl	dl
	xor	dl, bl
	mov	edx, 338783892
	mov	esi, -9582224
	cmovne	edx, esi
	test	ecx, ecx
	mov	ecx, edx
	cmove	ecx, esi
	cmp	edi, 10
	mov	qword ptr [rsp + 16], rax
	cmovge	ecx, edx
	jmp	.LBB12_35
.LBB12_46:                              
	mov	al, byte ptr [rsp + 12]
	mov	cl, byte ptr [rsp + 13]
	mov	edx, eax
	xor	dl, cl
	test	cl, cl
	mov	ecx, 338783892
	mov	esi, 377139152
	cmovne	ecx, esi
	test	al, al
	mov	eax, 338783892
	cmove	ecx, eax
	test	dl, dl
	cmovne	ecx, esi
	jmp	.LBB12_35
.LBB12_44:                              
	mov	rdi, r12
	mov	rsi, qword ptr [rsp + 24] 
	mov	rdx, r13
	call	_ZSt9__find_ifIPKiN9__gnu_cxx5__ops16_Iter_equals_valIKlEEET_S7_S7_T0_St26random_access_iterator_tag
	mov	ecx, 377139152
.LBB12_35:                              

	cmp	ecx, 338783891
	jg	.LBB12_41

	cmp	ecx, -250402860
	je	.LBB12_46

	cmp	ecx, -9582224
	jne	.LBB12_35

	mov	rax, qword ptr [rsp + 16]
	mov	eax, -206834433
	mov	r15d, 1874699023
	mov	r13, r14
	mov	ebp, -1
	jmp	.LBB12_1
.LBB12_26:
	mov	rax, qword ptr [rsp + 32]
	add	rsp, 40
	pop	rbx
	pop	r12
	pop	r13
	pop	r14
	pop	r15
	pop	rbp
	ret
.Lfunc_end12:
	.size	_ZSt4findIPKilET_S2_S2_RKT0_, .Lfunc_end12-_ZSt4findIPKilET_S2_S2_RKT0_
	.cfi_endproc

	.section	.text._ZN9__gnu_cxx17__normal_iteratorIPKcNSt7__cxx1112basic_stringIcSt11char_traitsIcESaIcEEEEppEi,"axG",@progbits,_ZN9__gnu_cxx17__normal_iteratorIPKcNSt7__cxx1112basic_stringIcSt11char_traitsIcESaIcEEEEppEi,comdat
	.weak	_ZN9__gnu_cxx17__normal_iteratorIPKcNSt7__cxx1112basic_stringIcSt11char_traitsIcESaIcEEEEppEi 
	.p2align	1, 0x90
	.type	_ZN9__gnu_cxx17__normal_iteratorIPKcNSt7__cxx1112basic_stringIcSt11char_traitsIcESaIcEEEEppEi,@function
_ZN9__gnu_cxx17__normal_iteratorIPKcNSt7__cxx1112basic_stringIcSt11char_traitsIcESaIcEEEEppEi: 

	mov	eax, dword ptr [rip + x.104]
	lea	ecx, [rax - 1]
	imul	ecx, eax
	mov	eax, ecx
	xor	eax, -2
	test	eax, ecx
	sete	byte ptr [rsp - 10]
	mov	eax, dword ptr [rip + y.105]
	cmp	eax, 10
	setl	byte ptr [rsp - 9]
	mov	esi, -112960498
	mov	r9d, 930083377
	mov	r8d, -557350567
	mov	r10d, -51751919
	jmp	.LBB13_1
.LBB13_6:                               
	cmp	esi, 930083377
	jne	.LBB13_1

	mov	rax, qword ptr [rdi]
	lea	rcx, [rax + 1]
	mov	qword ptr [rdi], rcx
	mov	qword ptr [rsp - 8], rax
	mov	eax, dword ptr [rip + x.104]
	lea	ecx, [rax - 1]
	imul	ecx, eax
	mov	eax, ecx
	xor	eax, -2
	and	eax, ecx
	sete	cl
	test	eax, eax
	mov	esi, -557350567
	cmove	esi, r10d
	cmp	dword ptr [rip + y.105], 10
	setl	al
	cmovge	esi, r8d
	xor	al, cl
	cmovne	esi, r10d
	jmp	.LBB13_1
.LBB13_9:                               
	inc	qword ptr [rdi]
	mov	esi, 930083377
.LBB13_1:                               
	cmp	esi, -51751920
	jg	.LBB13_5

	cmp	esi, -557350567
	je	.LBB13_9

	cmp	esi, -112960498
	jne	.LBB13_1

	mov	dl, byte ptr [rsp - 10]
	mov	al, byte ptr [rsp - 9]
	mov	ecx, edx
	xor	cl, al
	mov	ecx, -557350567
	cmovne	ecx, r9d
	test	al, al
	mov	esi, ecx
	cmovne	esi, r9d
	test	dl, dl
	cmove	esi, ecx
	jmp	.LBB13_1
.LBB13_5:                               
	cmp	esi, -51751919
	jne	.LBB13_6

	mov	rax, qword ptr [rsp - 8]
	ret
.Lfunc_end13:
	.size	_ZN9__gnu_cxx17__normal_iteratorIPKcNSt7__cxx1112basic_stringIcSt11char_traitsIcESaIcEEEEppEi, .Lfunc_end13-_ZN9__gnu_cxx17__normal_iteratorIPKcNSt7__cxx1112basic_stringIcSt11char_traitsIcESaIcEEEEppEi

	.text
	.globl	_ZN3DES10finalPermuERKNSt7__cxx1112basic_stringIcSt11char_traitsIcESaIcEEE 
	.p2align	1, 0x90
	.type	_ZN3DES10finalPermuERKNSt7__cxx1112basic_stringIcSt11char_traitsIcESaIcEEE,@function
_ZN3DES10finalPermuERKNSt7__cxx1112basic_stringIcSt11char_traitsIcESaIcEEE: 
.Lfunc_begin8:
	.cfi_startproc
	.cfi_personality 3, __gxx_personality_v0
	.cfi_lsda 3, .Lexception8

	push	rbp
.Lcfi107:
	.cfi_def_cfa_offset 16
	push	r15
.Lcfi108:
	.cfi_def_cfa_offset 24
	push	r14
.Lcfi109:
	.cfi_def_cfa_offset 32
	push	r13
.Lcfi110:
	.cfi_def_cfa_offset 40
	push	r12
.Lcfi111:
	.cfi_def_cfa_offset 48
	push	rbx
.Lcfi112:
	.cfi_def_cfa_offset 56
	sub	rsp, 120
.Lcfi113:
	.cfi_def_cfa_offset 176
.Lcfi114:
	.cfi_offset rbx, -56
.Lcfi115:
	.cfi_offset r12, -48
.Lcfi116:
	.cfi_offset r13, -40
.Lcfi117:
	.cfi_offset r14, -32
.Lcfi118:
	.cfi_offset r15, -24
.Lcfi119:
	.cfi_offset rbp, -16
	mov	r14, rsi
	mov	qword ptr [rsp + 64], rdi 
	lea	rax, [rsp + 112]
	mov	qword ptr [rsp + 104], rax
	lea	rcx, [rsp + 32]
	mov	qword ptr [rsp + 40], rcx
	mov	rax, qword ptr [rsp + 40]
	mov	qword ptr [rcx], 0
	lea	r15, [rsp + 8]
	mov	qword ptr [rsp + 48], r15
	mov	rax, qword ptr [rsp + 48]
	mov	r13, qword ptr [r14]
	mov	eax, 63
	add	eax, -734511086
	mov	dword ptr [rsp + 20], eax 
	mov	qword ptr [rsp + 24], r15 
.LBB14_1:                               



	mov	eax, 599987955
	jmp	.LBB14_2
.LBB14_11:                              
	cmp	eax, 1146421145
	je	.LBB14_24

	cmp	eax, 599987955
	jne	.LBB14_2

	mov	rax, qword ptr [rsp + 24] 
	mov	qword ptr [rax], r13
	mov	rax, qword ptr [r14]
	add	rax, qword ptr [r14 + 8]
	mov	qword ptr [rsp + 72], rax
	mov	eax, dword ptr [rip + x.86]
	mov	ecx, dword ptr [rip + y.87]
	lea	edx, [rax - 1]
	imul	edx, eax
	not	edx
	or	edx, -2
	mov	eax, -1
	cmp	edx, eax
	sete	byte ptr [rsp + 6]
	cmp	ecx, 10
	setl	byte ptr [rsp + 7]
	mov	ecx, -1477871261
	jmp	.LBB14_14
.LBB14_3:                               
	cmp	eax, -1250059533
	je	.LBB14_26

	cmp	eax, -1039055618
	jne	.LBB14_2

	mov	qword ptr [rsp + 56], r13 
	mov	edi, _ZN3DES21finalPermutationTableE
	call	_ZNKSt5arrayIiLm64EE4dataEv
	mov	r13, rax
	mov	edi, _ZN3DES21finalPermutationTableE
	call	_ZNKSt5arrayIiLm64EE4dataEv
	mov	r15, rax
	mov	edi, _ZN3DES21finalPermutationTableE
	call	_ZNKSt5arrayIiLm64EE4dataEv
	mov	r12, rax
	mov	rdi, qword ptr [r14]
	mov	rsi, qword ptr [rsp + 8]
	mov	eax, dword ptr [rip + x.214]
	mov	ecx, dword ptr [rip + y.215]
	lea	edx, [rax - 1]
	imul	edx, eax
	not	edx
	or	edx, -2
	mov	eax, -1
	cmp	edx, eax
	sete	dl
	sete	byte ptr [rsp + 5]
	mov	eax, -1280075056
	mov	ebx, 1080909681
	cmove	eax, ebx
	cmp	ecx, 10
	setl	cl
	setl	byte ptr [rsp + 72]
	mov	ebp, -1280075056
	cmovge	eax, ebp
	xor	cl, dl
	cmovne	eax, ebx
	mov	ecx, -1745699835
	jmp	.LBB14_6
.LBB14_28:                              
	cmp	ecx, 1637778273
	jne	.LBB14_6

	mov	ecx, eax
	jmp	.LBB14_6
.LBB14_30:                              
	mov	bl, byte ptr [rsp + 5]
	mov	cl, byte ptr [rsp + 72]
	mov	edx, ebx
	xor	dl, cl
	mov	edx, -1280075056
	mov	ebp, 1637778273
	cmovne	edx, ebp
	test	cl, cl
	mov	ecx, edx
	cmovne	ecx, ebp
	test	bl, bl
	cmove	ecx, edx
.LBB14_6:                               


	cmp	ecx, 1080909680
	jg	.LBB14_27

	cmp	ecx, -1745699835
	je	.LBB14_30

	cmp	ecx, -1280075056
	jne	.LBB14_6

	mov	ecx, 1637778273
	jmp	.LBB14_6
.LBB14_27:                              
	cmp	ecx, 1080909681
	jne	.LBB14_28

	add	r12, 256
	call	_ZSt10__distanceIN9__gnu_cxx17__normal_iteratorIPKcNSt7__cxx1112basic_stringIcSt11char_traitsIcESaIcEEEEEENSt15iterator_traitsIT_E15difference_typeESC_SC_St26random_access_iterator_tag
	inc	rax
	mov	qword ptr [rsp + 72], rax
	mov	rdi, r15
	mov	rsi, r12
	lea	rdx, [rsp + 72]
	call	_ZSt4findIPKilET_S2_S2_RKT0_
	movabs	rcx, -6093759269474791584
	add	rax, rcx
	sub	rax, r13
	sub	rax, rcx
	shr	rax, 2
	mov	ecx, dword ptr [rsp + 20] 
	sub	ecx, eax
	sub	ecx, -734511086
	movsxd	rbp, ecx
	mov	edx, .L.str.48
	lea	rbx, [rsp + 32]
	mov	rdi, rbx
	mov	rsi, rbp
	call	_ZNKSt6bitsetILm64EE8_M_checkEmPKc
	mov	edx, 1
	mov	rdi, rbx
	mov	rsi, rbp
	call	_ZNSt6bitsetILm64EE14_Unchecked_setEmi
	mov	eax, 250777214
	lea	r15, [rsp + 8]
	mov	r13, qword ptr [rsp + 56] 
	jmp	.LBB14_2
.LBB14_21:                              
	mov	rdi, r15
	call	_ZNK9__gnu_cxx17__normal_iteratorIPKcNSt7__cxx1112basic_stringIcSt11char_traitsIcESaIcEEEE4baseEv
	mov	r12, qword ptr [rax]
	lea	rdi, [rsp + 72]
	call	_ZNK9__gnu_cxx17__normal_iteratorIPKcNSt7__cxx1112basic_stringIcSt11char_traitsIcESaIcEEEE4baseEv
	mov	ecx, dword ptr [rip + x.86]
	mov	edx, dword ptr [rip + y.87]
	lea	esi, [rcx - 1]
	imul	esi, ecx
	not	esi
	or	esi, -2
	mov	ebp, -1
	cmp	esi, ebp
	sete	cl
	cmp	edx, 10
	setl	bl
	xor	bl, cl
	mov	edi, 691070385
	mov	ebx, 2045576252
	cmovne	edi, ebx
	cmp	esi, ebp
	mov	ecx, edi
	cmove	ecx, ebx
	cmp	edx, 10
	cmovge	ecx, edi
	cmp	r12, qword ptr [rax]
	setb	byte ptr [rsp + 5]
	jmp	.LBB14_14
.LBB14_22:                              
	mov	rdi, r15
	call	_ZNK9__gnu_cxx17__normal_iteratorIPKcNSt7__cxx1112basic_stringIcSt11char_traitsIcESaIcEEEE4baseEv
	lea	rdi, [rsp + 72]
	call	_ZNK9__gnu_cxx17__normal_iteratorIPKcNSt7__cxx1112basic_stringIcSt11char_traitsIcESaIcEEEE4baseEv
	mov	ecx, -1801168299
.LBB14_14:                              


	cmp	ecx, 691070384
	jg	.LBB14_18

	cmp	ecx, -1801168299
	je	.LBB14_21

	cmp	ecx, -1477871261
	jne	.LBB14_14

	mov	al, byte ptr [rsp + 6]
	mov	cl, byte ptr [rsp + 7]
	mov	edx, eax
	xor	dl, cl
	mov	edx, 691070385
	mov	esi, -1801168299
	cmovne	edx, esi
	test	cl, cl
	mov	ecx, edx
	cmovne	ecx, esi
	test	al, al
	cmove	ecx, edx
	jmp	.LBB14_14
.LBB14_18:                              
	cmp	ecx, 691070385
	je	.LBB14_22

	cmp	ecx, 2045576252
	jne	.LBB14_14

	mov	al, byte ptr [rsp + 5]
	test	al, al
	mov	eax, 1146421145
	mov	ecx, -1250059533
	cmovne	eax, ecx
	jmp	.LBB14_2
.LBB14_26:                              
	mov	rax, qword ptr [rsp + 8]
	cmp	byte ptr [rax], 49
	mov	eax, 250777214
	mov	ecx, -1039055618
	cmove	eax, ecx
.LBB14_2:                               



	cmp	eax, 250777213
	jle	.LBB14_3

	cmp	eax, 250777214
	jne	.LBB14_11

	xor	esi, esi
	mov	rdi, r15
	call	_ZN9__gnu_cxx17__normal_iteratorIPKcNSt7__cxx1112basic_stringIcSt11char_traitsIcESaIcEEEEppEi
	mov	r13, rax
	mov	rax, qword ptr [rsp + 104]
	mov	qword ptr [rsp + 24], rax 
	jmp	.LBB14_1
.LBB14_24:
	mov	rax, qword ptr [rsp + 48]
	lea	rbx, [rsp + 72]
	lea	rsi, [rsp + 32]
	mov	rdi, rbx
	call	_ZNKSt6bitsetILm64EE9to_stringIcSt11char_traitsIcESaIcEEENSt7__cxx1112basic_stringIT_T0_T1_EEv
	mov	rdi, qword ptr [rsp + 64] 
	add	rdi, 40
	mov	rsi, rbx
	call	_ZNSt7__cxx1112basic_stringIcSt11char_traitsIcESaIcEEaSEOS4_
.Ltmp186:
	mov	rdi, rbx
	call	_ZNSt7__cxx1112basic_stringIcSt11char_traitsIcESaIcEE10_M_disposeEv
.Ltmp187:

	mov	rax, qword ptr [rsp + 40]
	add	rsp, 120
	pop	rbx
	pop	r12
	pop	r13
	pop	r14
	pop	r15
	pop	rbp
	ret
.LBB14_23:
.Ltmp188:
	mov	rdi, rax
	call	__cxa_call_unexpected
.Lfunc_end14:
	.size	_ZN3DES10finalPermuERKNSt7__cxx1112basic_stringIcSt11char_traitsIcESaIcEEE, .Lfunc_end14-_ZN3DES10finalPermuERKNSt7__cxx1112basic_stringIcSt11char_traitsIcESaIcEEE
	.cfi_endproc
	.section	.gcc_except_table,"a",@progbits
	.p2align	2
GCC_except_table14:
.Lexception8:
	.byte	255                     
	.byte	3                       
	.asciz	"\253\200"              
	.byte	3                       
	.byte	39                      
	.long	.Lfunc_begin8-.Lfunc_begin8 
	.long	.Ltmp186-.Lfunc_begin8  
	.long	0                       
	.byte	0                       
	.long	.Ltmp186-.Lfunc_begin8  
	.long	.Ltmp187-.Ltmp186       
	.long	.Ltmp188-.Lfunc_begin8  
	.byte	1                       
	.long	.Ltmp187-.Lfunc_begin8  
	.long	.Lfunc_end14-.Ltmp187   
	.long	0                       
	.byte	0                       
	.byte	127                     

	.byte	0                       

	.byte	0
	.p2align	2

	.text
	.globl	_ZN3DES14expansionPermuERKNSt7__cxx1112basic_stringIcSt11char_traitsIcESaIcEEE 
	.p2align	1, 0x90
	.type	_ZN3DES14expansionPermuERKNSt7__cxx1112basic_stringIcSt11char_traitsIcESaIcEEE,@function
_ZN3DES14expansionPermuERKNSt7__cxx1112basic_stringIcSt11char_traitsIcESaIcEEE: 
.Lfunc_begin9:
	.cfi_startproc
	.cfi_personality 3, __gxx_personality_v0
	.cfi_lsda 3, .Lexception9

	push	r15
.Lcfi120:
	.cfi_def_cfa_offset 16
	push	r14
.Lcfi121:
	.cfi_def_cfa_offset 24
	push	r13
.Lcfi122:
	.cfi_def_cfa_offset 32
	push	r12
.Lcfi123:
	.cfi_def_cfa_offset 40
	push	rbx
.Lcfi124:
	.cfi_def_cfa_offset 48
	sub	rsp, 32
.Lcfi125:
	.cfi_def_cfa_offset 80
.Lcfi126:
	.cfi_offset rbx, -48
.Lcfi127:
	.cfi_offset r12, -40
.Lcfi128:
	.cfi_offset r13, -32
.Lcfi129:
	.cfi_offset r14, -24
.Lcfi130:
	.cfi_offset r15, -16
	mov	r12, rsi
	mov	r14, rdi
	mov	rdi, r12
	call	_ZNKSt7__cxx1112basic_stringIcSt11char_traitsIcESaIcEE6lengthEv
	cmp	rax, 32
	jne	.LBB15_11

	mov	r15, rsp
	mov	rdi, r15
	call	_ZNSt7__cxx1112basic_stringIcSt11char_traitsIcESaIcEEC2Ev
	mov	rbx, -1
	xor	r13d, r13d
.LBB15_2:                               
	inc	rbx
.Ltmp189:
	mov	edi, _ZN3DES25expansionPermutationTalbeE
	mov	rsi, rbx
	call	_ZNKSt5arrayIiLm48EE2atEm
.Ltmp190:

	mov	eax, dword ptr [rax]
	dec	eax
	movsxd	rsi, eax
	mov	rdi, r12
	call	_ZNKSt7__cxx1112basic_stringIcSt11char_traitsIcESaIcEEixEm
	movsx	esi, byte ptr [rax]
.Ltmp191:
	mov	rdi, r15
	call	_ZNSt7__cxx1112basic_stringIcSt11char_traitsIcESaIcEE9push_backEc
.Ltmp192:

	inc	r13
	cmp	rbx, 47
	jb	.LBB15_2

	add	r14, 392
.Ltmp194:
	mov	rsi, rsp
	mov	rdi, r14
	call	_ZNSt7__cxx1112basic_stringIcSt11char_traitsIcESaIcEE6assignERKS4_
.Ltmp195:

.Ltmp200:
	mov	rdi, rsp
	call	_ZNSt7__cxx1112basic_stringIcSt11char_traitsIcESaIcEE10_M_disposeEv
.Ltmp201:

	add	rsp, 32
	pop	rbx
	pop	r12
	pop	r13
	pop	r14
	pop	r15
	ret
.LBB15_11:
	mov	edi, _ZSt4cout
	mov	esi, .L.str
	call	_ZStlsISt11char_traitsIcEERSt13basic_ostreamIcT_ES5_PKc
	xor	edi, edi
	call	exit
.LBB15_13:
.Ltmp202:
	mov	rdi, rax
	call	__cxa_call_unexpected
.LBB15_8:
.Ltmp196:
	jmp	.LBB15_9
.LBB15_12:
.Ltmp193:
.LBB15_9:
	mov	rbx, rax
.Ltmp197:
	mov	rdi, rsp
	call	_ZNSt7__cxx1112basic_stringIcSt11char_traitsIcESaIcEE10_M_disposeEv
.Ltmp198:

	mov	rdi, rbx
	call	_Unwind_Resume
.LBB15_14:
.Ltmp199:
	mov	rdi, rax
	call	__cxa_call_unexpected
.Lfunc_end15:
	.size	_ZN3DES14expansionPermuERKNSt7__cxx1112basic_stringIcSt11char_traitsIcESaIcEEE, .Lfunc_end15-_ZN3DES14expansionPermuERKNSt7__cxx1112basic_stringIcSt11char_traitsIcESaIcEEE
	.cfi_endproc
	.section	.gcc_except_table,"a",@progbits
	.p2align	2
GCC_except_table15:
.Lexception9:
	.byte	255                     
	.byte	3                       
	.asciz	"\322\200\200"          
	.byte	3                       
	.byte	78                      
	.long	.Ltmp189-.Lfunc_begin9  
	.long	.Ltmp192-.Ltmp189       
	.long	.Ltmp193-.Lfunc_begin9  
	.byte	0                       
	.long	.Ltmp194-.Lfunc_begin9  
	.long	.Ltmp195-.Ltmp194       
	.long	.Ltmp196-.Lfunc_begin9  
	.byte	0                       
	.long	.Ltmp200-.Lfunc_begin9  
	.long	.Ltmp201-.Ltmp200       
	.long	.Ltmp202-.Lfunc_begin9  
	.byte	1                       
	.long	.Ltmp201-.Lfunc_begin9  
	.long	.Ltmp197-.Ltmp201       
	.long	0                       
	.byte	0                       
	.long	.Ltmp197-.Lfunc_begin9  
	.long	.Ltmp198-.Ltmp197       
	.long	.Ltmp199-.Lfunc_begin9  
	.byte	1                       
	.long	.Ltmp198-.Lfunc_begin9  
	.long	.Lfunc_end15-.Ltmp198   
	.long	0                       
	.byte	0                       
	.byte	127                     

	.byte	0                       

	.byte	0
	.p2align	2

	.section	.text._ZNKSt7__cxx1112basic_stringIcSt11char_traitsIcESaIcEE6lengthEv,"axG",@progbits,_ZNKSt7__cxx1112basic_stringIcSt11char_traitsIcESaIcEE6lengthEv,comdat
	.weak	_ZNKSt7__cxx1112basic_stringIcSt11char_traitsIcESaIcEE6lengthEv 
	.p2align	1, 0x90
	.type	_ZNKSt7__cxx1112basic_stringIcSt11char_traitsIcESaIcEE6lengthEv,@function
_ZNKSt7__cxx1112basic_stringIcSt11char_traitsIcESaIcEE6lengthEv: 

	mov	eax, dword ptr [rip + x.110]
	mov	ecx, dword ptr [rip + y.111]
	lea	edx, [rax - 1]
	imul	edx, eax
	not	edx
	or	edx, -2
	mov	eax, -1
	cmp	edx, eax
	sete	dl
	sete	byte ptr [rsp - 10]
	mov	esi, 1893825464
	mov	r8d, -1450512978
	mov	eax, -1450512978
	cmove	eax, esi
	cmp	ecx, 10
	setl	cl
	setl	byte ptr [rsp - 9]
	cmovge	eax, r8d
	xor	cl, dl
	cmovne	eax, esi
	mov	edx, -1537707117
	mov	esi, -131962629
	jmp	.LBB16_1
.LBB16_8:                               
	mov	r8b, byte ptr [rsp - 10]
	mov	dl, byte ptr [rsp - 9]
	mov	ecx, r8d
	xor	cl, dl
	mov	ecx, -1450512978
	cmovne	ecx, esi
	test	dl, dl
	mov	edx, ecx
	cmovne	edx, esi
	test	r8b, r8b
	cmove	edx, ecx
	jmp	.LBB16_1
.LBB16_9:                               
	mov	rcx, qword ptr [rdi + 8]
	mov	qword ptr [rsp - 8], rcx
	mov	edx, eax
.LBB16_1:                               
	cmp	edx, -131962630
	jg	.LBB16_5

	cmp	edx, -1537707117
	je	.LBB16_8

	cmp	edx, -1450512978
	jne	.LBB16_1

	mov	edx, -131962629
	jmp	.LBB16_1
.LBB16_5:                               
	cmp	edx, -131962629
	je	.LBB16_9

	cmp	edx, 1893825464
	jne	.LBB16_1

	mov	rax, qword ptr [rsp - 8]
	ret
.Lfunc_end16:
	.size	_ZNKSt7__cxx1112basic_stringIcSt11char_traitsIcESaIcEE6lengthEv, .Lfunc_end16-_ZNKSt7__cxx1112basic_stringIcSt11char_traitsIcESaIcEE6lengthEv

	.section	.text._ZNKSt7__cxx1112basic_stringIcSt11char_traitsIcESaIcEEixEm,"axG",@progbits,_ZNKSt7__cxx1112basic_stringIcSt11char_traitsIcESaIcEEixEm,comdat
	.weak	_ZNKSt7__cxx1112basic_stringIcSt11char_traitsIcESaIcEEixEm 
	.p2align	1, 0x90
	.type	_ZNKSt7__cxx1112basic_stringIcSt11char_traitsIcESaIcEEixEm,@function
_ZNKSt7__cxx1112basic_stringIcSt11char_traitsIcESaIcEEixEm: 

	mov	eax, dword ptr [rip + x.112]
	mov	ecx, dword ptr [rip + y.113]
	lea	edx, [rax - 1]
	imul	edx, eax
	mov	eax, edx
	xor	eax, -2
	and	eax, edx
	sete	dl
	sete	byte ptr [rsp - 10]
	test	eax, eax
	mov	r8d, 1702649515
	mov	r9d, -918428614
	mov	eax, -918428614
	cmove	eax, r8d
	cmp	ecx, 10
	setl	cl
	setl	byte ptr [rsp - 9]
	cmovge	eax, r9d
	xor	cl, dl
	cmovne	eax, r8d
	mov	edx, -318883608
	mov	r8d, 238463451
	jmp	.LBB17_1
.LBB17_8:                               
	mov	edx, 238463451
	jmp	.LBB17_1
.LBB17_9:                               
	mov	rcx, qword ptr [rdi]
	add	rcx, rsi
	mov	qword ptr [rsp - 8], rcx
	mov	edx, eax
.LBB17_1:                               
	cmp	edx, 238463450
	jg	.LBB17_5

	cmp	edx, -918428614
	je	.LBB17_8

	cmp	edx, -318883608
	jne	.LBB17_1

	mov	r9b, byte ptr [rsp - 10]
	mov	dl, byte ptr [rsp - 9]
	mov	ecx, r9d
	xor	cl, dl
	mov	ecx, -918428614
	cmovne	ecx, r8d
	test	dl, dl
	mov	edx, ecx
	cmovne	edx, r8d
	test	r9b, r9b
	cmove	edx, ecx
	jmp	.LBB17_1
.LBB17_5:                               
	cmp	edx, 238463451
	je	.LBB17_9

	cmp	edx, 1702649515
	jne	.LBB17_1

	mov	rax, qword ptr [rsp - 8]
	ret
.Lfunc_end17:
	.size	_ZNKSt7__cxx1112basic_stringIcSt11char_traitsIcESaIcEEixEm, .Lfunc_end17-_ZNKSt7__cxx1112basic_stringIcSt11char_traitsIcESaIcEEixEm

	.section	.text._ZNKSt5arrayIiLm48EE2atEm,"axG",@progbits,_ZNKSt5arrayIiLm48EE2atEm,comdat
	.weak	_ZNKSt5arrayIiLm48EE2atEm 
	.p2align	1, 0x90
	.type	_ZNKSt5arrayIiLm48EE2atEm,@function
_ZNKSt5arrayIiLm48EE2atEm:              
	.cfi_startproc

	push	rax
.Lcfi131:
	.cfi_def_cfa_offset 16
	cmp	rsi, 48
	mov	ecx, -1483748303
	mov	eax, 1833667479
	cmovb	eax, ecx
	mov	ecx, 1800979420
	jmp	.LBB18_1
.LBB18_2:                               
	cmp	ecx, 1800979420
	je	.LBB18_3

	cmp	ecx, 1833667479
	jne	.LBB18_1
	jmp	.LBB18_6
.LBB18_3:                               
	mov	ecx, eax
.LBB18_1:                               
	cmp	ecx, -1483748303
	jne	.LBB18_2

	lea	rax, [rdi + 4*rsi]
	pop	rcx
	ret
.LBB18_6:
	mov	edi, .L.str.40
	mov	edx, 48
	xor	eax, eax
	call	_ZSt24__throw_out_of_range_fmtPKcz
.Lfunc_end18:
	.size	_ZNKSt5arrayIiLm48EE2atEm, .Lfunc_end18-_ZNKSt5arrayIiLm48EE2atEm
	.cfi_endproc

	.text
	.globl	_ZN3DES9shiftLeftERNSt7__cxx1112basic_stringIcSt11char_traitsIcESaIcEEEi 
	.p2align	1, 0x90
	.type	_ZN3DES9shiftLeftERNSt7__cxx1112basic_stringIcSt11char_traitsIcESaIcEEEi,@function
_ZN3DES9shiftLeftERNSt7__cxx1112basic_stringIcSt11char_traitsIcESaIcEEEi: 
	.cfi_startproc

	push	rbp
.Lcfi132:
	.cfi_def_cfa_offset 16
.Lcfi133:
	.cfi_offset rbp, -16
	mov	rbp, rsp
.Lcfi134:
	.cfi_def_cfa_register rbp
	push	r15
	push	r14
	push	r13
	push	r12
	push	rbx
	sub	rsp, 24
.Lcfi135:
	.cfi_offset rbx, -56
.Lcfi136:
	.cfi_offset r12, -48
.Lcfi137:
	.cfi_offset r13, -40
.Lcfi138:
	.cfi_offset r14, -32
.Lcfi139:
	.cfi_offset r15, -24
	mov	r14d, edx
	mov	r15, rsi
	mov	eax, dword ptr [rip + x.118]
	mov	ecx, dword ptr [rip + y.119]
	lea	edx, [rax - 1]
	imul	edx, eax
	mov	eax, edx
	xor	eax, -2
	test	eax, edx
	sete	byte ptr [rbp - 41]
	cmp	ecx, 10
	setl	byte ptr [rbp - 42]
	movsxd	r13, r14d
	mov	eax, -436555366
.LBB19_1:                               
	cmp	eax, -288721229
	jle	.LBB19_2

	cmp	eax, -72135834
	jle	.LBB19_12

	cmp	eax, 127077278
	je	.LBB19_24

	cmp	eax, 2025367889
	jne	.LBB19_20

	mov	r12, qword ptr [r15]
	mov	rax, qword ptr [rbp - 56]
	mov	qword ptr [rax], r12
	mov	rax, qword ptr [rbp - 56]
	mov	rbx, qword ptr [rax]
	add	rbx, r13
	mov	rdi, r15
	call	_ZNSt7__cxx1112basic_stringIcSt11char_traitsIcESaIcEE3endEv
	mov	rdi, r12
	mov	rsi, rbx
	mov	rdx, rax
	call	_ZNSt3_V28__rotateIN9__gnu_cxx17__normal_iteratorIPcNSt7__cxx1112basic_stringIcSt11char_traitsIcESaIcEEEEEEET_SB_SB_SB_St26random_access_iterator_tag
	mov	eax, dword ptr [rip + x.118]
	mov	ecx, dword ptr [rip + y.119]
	lea	esi, [rax - 1]
	imul	esi, eax
	mov	edx, esi
	xor	edx, -2
	and	edx, esi
	sete	al
	cmp	ecx, 10
	setl	bl
	xor	bl, al
	mov	esi, -288721228
	mov	eax, -288721228
	jne	.LBB19_28

	mov	eax, -744749146
.LBB19_28:                              
	test	edx, edx
	je	.LBB19_30

	mov	esi, eax
.LBB19_30:                              
	cmp	ecx, 10
	cmovl	eax, esi
	jmp	.LBB19_1
.LBB19_2:                               
	cmp	eax, -744749147
	jg	.LBB19_6

	cmp	eax, -1994080068
	je	.LBB19_22

	cmp	eax, -1032225999
	jne	.LBB19_1

	mov	rdi, r15
	call	_ZNKSt7__cxx1112basic_stringIcSt11char_traitsIcESaIcEE6lengthEv
	mov	eax, -123591081
	jmp	.LBB19_1
.LBB19_12:                              
	cmp	eax, -288721228
	je	.LBB19_31

	cmp	eax, -123591081
	jne	.LBB19_1

	mov	rax, rsp
	add	rax, -16
	mov	rsp, rax
	mov	qword ptr [rbp - 56], rax
	mov	rdi, r15
	call	_ZNKSt7__cxx1112basic_stringIcSt11char_traitsIcESaIcEE6lengthEv
	cmp	eax, r14d
	setl	byte ptr [rbp - 43]
	mov	eax, dword ptr [rip + x.118]
	mov	ecx, dword ptr [rip + y.119]
	lea	edx, [rax - 1]
	imul	edx, eax
	mov	eax, edx
	xor	eax, -2
	and	eax, edx
	sete	bl
	test	eax, eax
	mov	eax, -1994080068
	mov	edx, -1032225999
	mov	esi, -1994080068
	je	.LBB19_16

	mov	esi, -1032225999
	jmp	.LBB19_16
.LBB19_6:                               
	cmp	eax, -744749146
	je	.LBB19_32

	cmp	eax, -436555366
	jne	.LBB19_1

	mov	cl, byte ptr [rbp - 41]
	mov	dl, byte ptr [rbp - 42]
	mov	eax, ecx
	xor	al, dl
	mov	eax, -123591081
	mov	esi, -123591081
	jne	.LBB19_10

	mov	esi, -1032225999
.LBB19_10:                              
	test	dl, dl
	cmove	eax, esi
	test	cl, cl
	cmove	eax, esi
	jmp	.LBB19_1
.LBB19_24:                              
	mov	eax, dword ptr [rip + x.118]
	mov	ecx, dword ptr [rip + y.119]
	mov	edx, eax
	neg	edx
	not	edx
	imul	edx, eax
	mov	eax, edx
	xor	eax, -2
	and	eax, edx
	sete	bl
	test	eax, eax
	mov	eax, 2025367889
	mov	edx, -744749146
	mov	esi, 2025367889
	je	.LBB19_16

	mov	esi, -744749146
.LBB19_16:                              
	cmp	ecx, 10
	setl	cl
	cmovl	edx, esi
	xor	cl, bl
	jne	.LBB19_1

	mov	eax, edx
	jmp	.LBB19_1
.LBB19_22:                              
	mov	al, byte ptr [rbp - 43]
	test	al, al
	mov	eax, -72135833
	jne	.LBB19_1

	mov	eax, 127077278
	jmp	.LBB19_1
.LBB19_32:                              
	mov	r12, qword ptr [r15]
	mov	rax, qword ptr [rbp - 56]
	mov	qword ptr [rax], r12
	mov	rax, qword ptr [rbp - 56]
	mov	rbx, qword ptr [rax]
	add	rbx, r13
	mov	rdi, r15
	call	_ZNSt7__cxx1112basic_stringIcSt11char_traitsIcESaIcEE3endEv
	mov	rdi, r12
	mov	rsi, rbx
	mov	rdx, rax
	call	_ZNSt3_V28__rotateIN9__gnu_cxx17__normal_iteratorIPcNSt7__cxx1112basic_stringIcSt11char_traitsIcESaIcEEEEEEET_SB_SB_SB_St26random_access_iterator_tag
	mov	eax, 2025367889
	jmp	.LBB19_1
.LBB19_20:                              
	cmp	eax, -72135833
	jne	.LBB19_1

	mov	edi, _ZSt4cout
	mov	esi, .L.str.1
	call	_ZStlsISt11char_traitsIcEERSt13basic_ostreamIcT_ES5_PKc
	mov	rdi, rax
	call	_ZSt4endlIcSt11char_traitsIcEERSt13basic_ostreamIT_T0_ES6_
	xor	edi, edi
	call	exit
.LBB19_31:
	lea	rsp, [rbp - 40]
	pop	rbx
	pop	r12
	pop	r13
	pop	r14
	pop	r15
	pop	rbp
	ret
.Lfunc_end19:
	.size	_ZN3DES9shiftLeftERNSt7__cxx1112basic_stringIcSt11char_traitsIcESaIcEEEi, .Lfunc_end19-_ZN3DES9shiftLeftERNSt7__cxx1112basic_stringIcSt11char_traitsIcESaIcEEEi
	.cfi_endproc

	.section	.text._ZNSt7__cxx1112basic_stringIcSt11char_traitsIcESaIcEE3endEv,"axG",@progbits,_ZNSt7__cxx1112basic_stringIcSt11char_traitsIcESaIcEE3endEv,comdat
	.weak	_ZNSt7__cxx1112basic_stringIcSt11char_traitsIcESaIcEE3endEv 
	.p2align	1, 0x90
	.type	_ZNSt7__cxx1112basic_stringIcSt11char_traitsIcESaIcEE3endEv,@function
_ZNSt7__cxx1112basic_stringIcSt11char_traitsIcESaIcEE3endEv: 

	mov	eax, dword ptr [rip + x.126]
	mov	ecx, dword ptr [rip + y.127]
	lea	edx, [rax - 1]
	imul	edx, eax
	not	edx
	or	edx, -2
	mov	eax, -1
	cmp	edx, eax
	sete	dl
	sete	byte ptr [rsp - 10]
	mov	esi, 918795773
	mov	r8d, -1447679352
	mov	eax, -1447679352
	cmove	eax, esi
	cmp	ecx, 10
	setl	cl
	setl	byte ptr [rsp - 9]
	cmovge	eax, r8d
	xor	cl, dl
	cmovne	eax, esi
	mov	edx, -1256053205
	mov	esi, -1084026737
	jmp	.LBB20_1
.LBB20_8:                               
	mov	edx, -1084026737
	jmp	.LBB20_1
.LBB20_9:                               
	mov	rcx, qword ptr [rdi]
	add	rcx, qword ptr [rdi + 8]
	mov	qword ptr [rsp - 8], rcx
	mov	edx, eax
.LBB20_1:                               
	cmp	edx, -1084026738
	jg	.LBB20_5

	cmp	edx, -1447679352
	je	.LBB20_8

	cmp	edx, -1256053205
	jne	.LBB20_1

	mov	r8b, byte ptr [rsp - 10]
	mov	dl, byte ptr [rsp - 9]
	mov	ecx, r8d
	xor	cl, dl
	mov	ecx, -1447679352
	cmovne	ecx, esi
	test	dl, dl
	mov	edx, ecx
	cmovne	edx, esi
	test	r8b, r8b
	cmove	edx, ecx
	jmp	.LBB20_1
.LBB20_5:                               
	cmp	edx, -1084026737
	je	.LBB20_9

	cmp	edx, 918795773
	jne	.LBB20_1

	mov	rax, qword ptr [rsp - 8]
	ret
.Lfunc_end20:
	.size	_ZNSt7__cxx1112basic_stringIcSt11char_traitsIcESaIcEE3endEv, .Lfunc_end20-_ZNSt7__cxx1112basic_stringIcSt11char_traitsIcESaIcEE3endEv

	.text
	.globl	_ZN3DES6keygenERKNSt7__cxx1112basic_stringIcSt11char_traitsIcESaIcEEEi 
	.p2align	1, 0x90
	.type	_ZN3DES6keygenERKNSt7__cxx1112basic_stringIcSt11char_traitsIcESaIcEEEi,@function
_ZN3DES6keygenERKNSt7__cxx1112basic_stringIcSt11char_traitsIcESaIcEEEi: 
.Lfunc_begin10:
	.cfi_startproc
	.cfi_personality 3, __gxx_personality_v0
	.cfi_lsda 3, .Lexception10

	push	rbp
.Lcfi140:
	.cfi_def_cfa_offset 16
	push	r15
.Lcfi141:
	.cfi_def_cfa_offset 24
	push	r14
.Lcfi142:
	.cfi_def_cfa_offset 32
	push	r13
.Lcfi143:
	.cfi_def_cfa_offset 40
	push	r12
.Lcfi144:
	.cfi_def_cfa_offset 48
	push	rbx
.Lcfi145:
	.cfi_def_cfa_offset 56
	sub	rsp, 72
.Lcfi146:
	.cfi_def_cfa_offset 128
.Lcfi147:
	.cfi_offset rbx, -56
.Lcfi148:
	.cfi_offset r12, -48
.Lcfi149:
	.cfi_offset r13, -40
.Lcfi150:
	.cfi_offset r14, -32
.Lcfi151:
	.cfi_offset r15, -24
.Lcfi152:
	.cfi_offset rbp, -16
	mov	ebp, edx
	mov	qword ptr [rsp + 32], rsi 
	mov	r14, rdi
	lea	r13, [r14 + 232]
	lea	rax, [r14 + 136]
	mov	qword ptr [rsp + 16], rax 
	lea	r15, [r14 + 168]
	mov	eax, -691392906
	lea	r12, [rsp + 40]
	jmp	.LBB21_1
.LBB21_37:                              
	mov	al, byte ptr [rsp + 15]
	test	al, al
	mov	eax, 1585751676
	jne	.LBB21_1

	mov	eax, 2077365344
	jmp	.LBB21_1
.LBB21_43:                              
	mov	rdi, r14
	mov	rsi, qword ptr [rsp + 32] 
	call	_ZN3DES15parityDropPermuERKNSt7__cxx1112basic_stringIcSt11char_traitsIcESaIcEEE
	xor	esi, esi
	mov	edx, .L.str.50
	mov	rdi, r13
	call	_ZNKSt7__cxx1112basic_stringIcSt11char_traitsIcESaIcEE8_M_checkEmPKc
	mov	ecx, 28
	mov	rdi, r12
	mov	rsi, r13
	mov	rdx, rax
	call	_ZNSt7__cxx1112basic_stringIcSt11char_traitsIcESaIcEEC2ERKS4_mm
	mov	rdi, qword ptr [rsp + 16] 
	mov	rsi, r12
	call	_ZNSt7__cxx1112basic_stringIcSt11char_traitsIcESaIcEEaSEOS4_
.Ltmp203:
	mov	rdi, r12
	call	_ZNSt7__cxx1112basic_stringIcSt11char_traitsIcESaIcEE10_M_disposeEv
.Ltmp204:

	mov	esi, 28
	mov	edx, .L.str.50
	mov	rdi, r13
	call	_ZNKSt7__cxx1112basic_stringIcSt11char_traitsIcESaIcEE8_M_checkEmPKc
	mov	ecx, 28
	mov	rdi, r12
	mov	rsi, r13
	mov	rdx, rax
	call	_ZNSt7__cxx1112basic_stringIcSt11char_traitsIcESaIcEEC2ERKS4_mm
	mov	rdi, r15
	mov	rsi, r12
	call	_ZNSt7__cxx1112basic_stringIcSt11char_traitsIcESaIcEEaSEOS4_
.Ltmp206:
	mov	rdi, r12
	call	_ZNSt7__cxx1112basic_stringIcSt11char_traitsIcESaIcEE10_M_disposeEv
.Ltmp207:

	mov	eax, -1183825630
	jmp	.LBB21_1
.LBB21_39:                              
	mov	rsi, qword ptr [rsp + 24]
	mov	edx, 1
	call	_ZN3DES9shiftLeftERNSt7__cxx1112basic_stringIcSt11char_traitsIcESaIcEEEi
	mov	edx, 1
.LBB21_40:                              
	mov	rsi, r15
	call	_ZN3DES9shiftLeftERNSt7__cxx1112basic_stringIcSt11char_traitsIcESaIcEEEi
	mov	eax, -90012472
	jmp	.LBB21_1
.LBB21_27:                              
	mov	eax, dword ptr [rip + x.128]
	mov	ecx, dword ptr [rip + y.129]
	lea	edx, [rax - 1]
	imul	edx, eax
	mov	eax, edx
	xor	eax, -2
	and	eax, edx
	sete	bl
	test	eax, eax
	mov	eax, -1183825630
	mov	edx, -1221517426
	mov	esi, -1183825630
	je	.LBB21_10
.LBB21_9:                               
	mov	esi, -1221517426
	jmp	.LBB21_10
.LBB21_32:                              
	mov	eax, dword ptr [rip + x.128]
	mov	ecx, dword ptr [rip + y.129]
	mov	esi, eax
	neg	esi
	not	esi
	imul	esi, eax
	mov	edx, esi
	xor	edx, -2
	and	edx, esi
	sete	al
	cmp	ecx, 10
	setl	bl
	xor	bl, al
	mov	esi, -1300265804
	mov	eax, -1300265804
	jne	.LBB21_34

	mov	eax, 1291297898
.LBB21_34:                              
	test	edx, edx
	je	.LBB21_36

	mov	esi, eax
.LBB21_36:                              
	cmp	ecx, 10
	cmovl	eax, esi
	cmp	ebp, 16
	setne	sil
	sete	dil
	cmp	ebp, 9
	sete	r8b
	cmp	ebp, 2
	mov	cl, byte ptr [rsp + 14]
	sete	dl
	mov	ebx, edx
	and	bl, cl
	xor	dl, cl
	or	dl, bl
	mov	ecx, r8d
	and	cl, dl
	xor	dl, r8b
	or	dl, cl
	xor	dil, dl
	not	dl
	or	dl, sil
	not	dl
	or	dl, dil
	and	dl, 1
	mov	byte ptr [rsp + 15], dl
	mov	rcx, qword ptr [rsp + 16] 
	mov	qword ptr [rsp + 24], rcx
	jmp	.LBB21_1
.LBB21_25:                              
	cmp	ebp, 1
	sete	byte ptr [rsp + 14]
	mov	al, byte ptr [rsp + 14]
	test	al, al
	mov	eax, 1614496595
	jne	.LBB21_1
.LBB21_26:                              
	mov	eax, 1278701507
	jmp	.LBB21_1
.LBB21_30:                              
	mov	eax, dword ptr [rip + x.128]
	mov	ecx, dword ptr [rip + y.129]
	lea	edx, [rax - 1]
	imul	edx, eax
	not	edx
	or	edx, -2
	mov	eax, -1
	cmp	edx, eax
	sete	bl
	mov	eax, -757302585
	mov	edx, 1291297898
	mov	esi, -757302585
	je	.LBB21_10

	mov	esi, 1291297898
.LBB21_10:                              
	cmp	ecx, 10
	setl	cl
	cmovl	edx, esi
	xor	cl, bl
	jne	.LBB21_1

	mov	eax, edx
	jmp	.LBB21_1
.LBB21_46:                              
	mov	al, byte ptr [rsp + 14]
	mov	al, byte ptr [rsp + 14]
	mov	al, byte ptr [rsp + 14]
	mov	al, byte ptr [rsp + 14]
	mov	al, byte ptr [rsp + 14]
	mov	eax, -757302585
.LBB21_1:                               
	cmp	eax, -90012473
	jg	.LBB21_15

	cmp	eax, -757302586
	jg	.LBB21_12

	cmp	eax, -1300265804
	je	.LBB21_37

	cmp	eax, -1221517426
	je	.LBB21_43

	cmp	eax, -1183825630
	jne	.LBB21_1

	mov	rdi, r14
	mov	rsi, qword ptr [rsp + 32] 
	call	_ZN3DES15parityDropPermuERKNSt7__cxx1112basic_stringIcSt11char_traitsIcESaIcEEE
	xor	esi, esi
	mov	edx, .L.str.50
	mov	rdi, r13
	call	_ZNKSt7__cxx1112basic_stringIcSt11char_traitsIcESaIcEE8_M_checkEmPKc
	mov	ecx, 28
	mov	rdi, r12
	mov	rsi, r13
	mov	rdx, rax
	call	_ZNSt7__cxx1112basic_stringIcSt11char_traitsIcESaIcEEC2ERKS4_mm
	mov	rdi, qword ptr [rsp + 16] 
	mov	rsi, r12
	call	_ZNSt7__cxx1112basic_stringIcSt11char_traitsIcESaIcEEaSEOS4_
.Ltmp212:
	mov	rdi, r12
	call	_ZNSt7__cxx1112basic_stringIcSt11char_traitsIcESaIcEE10_M_disposeEv
.Ltmp213:

	mov	esi, 28
	mov	edx, .L.str.50
	mov	rdi, r13
	call	_ZNKSt7__cxx1112basic_stringIcSt11char_traitsIcESaIcEE8_M_checkEmPKc
	mov	ecx, 28
	mov	rdi, r12
	mov	rsi, r13
	mov	rdx, rax
	call	_ZNSt7__cxx1112basic_stringIcSt11char_traitsIcESaIcEEC2ERKS4_mm
	mov	rdi, r15
	mov	rsi, r12
	call	_ZNSt7__cxx1112basic_stringIcSt11char_traitsIcESaIcEEaSEOS4_
.Ltmp215:
	mov	rdi, r12
	call	_ZNSt7__cxx1112basic_stringIcSt11char_traitsIcESaIcEE10_M_disposeEv
.Ltmp216:

	mov	eax, dword ptr [rip + x.128]
	mov	ecx, dword ptr [rip + y.129]
	mov	edx, eax
	neg	edx
	not	edx
	imul	edx, eax
	mov	eax, edx
	xor	eax, -2
	and	eax, edx
	sete	bl
	test	eax, eax
	mov	eax, -90185429
	mov	edx, -1221517426
	mov	esi, -90185429
	jne	.LBB21_9
	jmp	.LBB21_10
.LBB21_15:                              
	cmp	eax, 1585751675
	jle	.LBB21_16

	cmp	eax, 1585751676
	je	.LBB21_39

	cmp	eax, 1614496595
	je	.LBB21_27

	cmp	eax, 2077365344
	jne	.LBB21_1

	mov	rsi, qword ptr [rsp + 24]
	mov	edx, 2
	call	_ZN3DES9shiftLeftERNSt7__cxx1112basic_stringIcSt11char_traitsIcESaIcEEEi
	mov	edx, 2
	jmp	.LBB21_40
.LBB21_12:                              
	cmp	eax, -757302585
	je	.LBB21_32

	cmp	eax, -691392906
	je	.LBB21_25

	cmp	eax, -90185429
	jne	.LBB21_1
	jmp	.LBB21_26
.LBB21_16:                              
	cmp	eax, 1278701507
	je	.LBB21_30

	cmp	eax, 1291297898
	je	.LBB21_46

	cmp	eax, -90012472
	jne	.LBB21_1

	mov	rsi, qword ptr [rsp + 24]
	lea	rbp, [rsp + 40]
	mov	rdi, rbp
	mov	rdx, r15
	call	_ZStplIcSt11char_traitsIcESaIcEENSt7__cxx1112basic_stringIT_T0_T1_EERKS8_SA_
	mov	rdi, r13
	mov	rsi, rbp
	call	_ZNSt7__cxx1112basic_stringIcSt11char_traitsIcESaIcEEaSEOS4_
.Ltmp209:
	mov	rdi, rbp
	call	_ZNSt7__cxx1112basic_stringIcSt11char_traitsIcESaIcEE10_M_disposeEv
.Ltmp210:

	mov	rdi, r14
	mov	rsi, r13
	call	_ZN3DES16compressionPermuERKNSt7__cxx1112basic_stringIcSt11char_traitsIcESaIcEEE
	add	rsp, 72
	pop	rbx
	pop	r12
	pop	r13
	pop	r14
	pop	r15
	pop	rbp
	ret
.LBB21_41:
.Ltmp211:
	mov	rdi, rax
	call	__cxa_call_unexpected
.LBB21_29:
.Ltmp217:
	mov	rdi, rax
	call	__cxa_call_unexpected
.LBB21_47:
.Ltmp208:
	mov	rdi, rax
	call	__cxa_call_unexpected
.LBB21_28:
.Ltmp214:
	mov	rdi, rax
	call	__cxa_call_unexpected
.LBB21_42:
.Ltmp205:
	mov	rdi, rax
	call	__cxa_call_unexpected
.Lfunc_end21:
	.size	_ZN3DES6keygenERKNSt7__cxx1112basic_stringIcSt11char_traitsIcESaIcEEEi, .Lfunc_end21-_ZN3DES6keygenERKNSt7__cxx1112basic_stringIcSt11char_traitsIcESaIcEEEi
	.cfi_endproc
	.section	.gcc_except_table,"a",@progbits
	.p2align	2
GCC_except_table21:
.Lexception10:
	.byte	255                     
	.byte	3                       
	.ascii	"\224\001"              
	.byte	3                       
	.ascii	"\217\001"              
	.long	.Lfunc_begin10-.Lfunc_begin10 
	.long	.Ltmp203-.Lfunc_begin10 
	.long	0                       
	.byte	0                       
	.long	.Ltmp203-.Lfunc_begin10 
	.long	.Ltmp204-.Ltmp203       
	.long	.Ltmp205-.Lfunc_begin10 
	.byte	1                       
	.long	.Ltmp204-.Lfunc_begin10 
	.long	.Ltmp206-.Ltmp204       
	.long	0                       
	.byte	0                       
	.long	.Ltmp206-.Lfunc_begin10 
	.long	.Ltmp207-.Ltmp206       
	.long	.Ltmp208-.Lfunc_begin10 
	.byte	1                       
	.long	.Ltmp207-.Lfunc_begin10 
	.long	.Ltmp212-.Ltmp207       
	.long	0                       
	.byte	0                       
	.long	.Ltmp212-.Lfunc_begin10 
	.long	.Ltmp213-.Ltmp212       
	.long	.Ltmp214-.Lfunc_begin10 
	.byte	1                       
	.long	.Ltmp213-.Lfunc_begin10 
	.long	.Ltmp215-.Ltmp213       
	.long	0                       
	.byte	0                       
	.long	.Ltmp215-.Lfunc_begin10 
	.long	.Ltmp216-.Ltmp215       
	.long	.Ltmp217-.Lfunc_begin10 
	.byte	1                       
	.long	.Ltmp216-.Lfunc_begin10 
	.long	.Ltmp209-.Ltmp216       
	.long	0                       
	.byte	0                       
	.long	.Ltmp209-.Lfunc_begin10 
	.long	.Ltmp210-.Ltmp209       
	.long	.Ltmp211-.Lfunc_begin10 
	.byte	1                       
	.long	.Ltmp210-.Lfunc_begin10 
	.long	.Lfunc_end21-.Ltmp210   
	.long	0                       
	.byte	0                       
	.byte	127                     

	.byte	0                       

	.byte	0
	.p2align	2

	.text
	.globl	_ZN3DES15parityDropPermuERKNSt7__cxx1112basic_stringIcSt11char_traitsIcESaIcEEE 
	.p2align	1, 0x90
	.type	_ZN3DES15parityDropPermuERKNSt7__cxx1112basic_stringIcSt11char_traitsIcESaIcEEE,@function
_ZN3DES15parityDropPermuERKNSt7__cxx1112basic_stringIcSt11char_traitsIcESaIcEEE: 
.Lfunc_begin11:
	.cfi_startproc
	.cfi_personality 3, __gxx_personality_v0
	.cfi_lsda 3, .Lexception11

	push	rbp
.Lcfi153:
	.cfi_def_cfa_offset 16
	push	r15
.Lcfi154:
	.cfi_def_cfa_offset 24
	push	r14
.Lcfi155:
	.cfi_def_cfa_offset 32
	push	r13
.Lcfi156:
	.cfi_def_cfa_offset 40
	push	r12
.Lcfi157:
	.cfi_def_cfa_offset 48
	push	rbx
.Lcfi158:
	.cfi_def_cfa_offset 56
	sub	rsp, 120
.Lcfi159:
	.cfi_def_cfa_offset 176
.Lcfi160:
	.cfi_offset rbx, -56
.Lcfi161:
	.cfi_offset r12, -48
.Lcfi162:
	.cfi_offset r13, -40
.Lcfi163:
	.cfi_offset r14, -32
.Lcfi164:
	.cfi_offset r15, -24
.Lcfi165:
	.cfi_offset rbp, -16
	mov	r13, rsi
	mov	qword ptr [rsp + 64], rdi 
	lea	rax, [rsp + 112]
	mov	qword ptr [rsp + 72], rax
	lea	rcx, [rsp + 32]
	mov	qword ptr [rsp + 40], rcx
	mov	rax, qword ptr [rsp + 40]
	mov	qword ptr [rcx], 0
	lea	rax, [rsp + 8]
	mov	qword ptr [rsp + 48], rax
	mov	rax, qword ptr [rsp + 48]
	lea	r12, [rsp + 24]
	mov	qword ptr [rsp + 56], r12
	mov	rax, qword ptr [rsp + 56]
	mov	r15, qword ptr [r13]
	mov	eax, 55
	add	eax, -1717820349
	mov	dword ptr [rsp + 12], eax 
	mov	r14d, -1
	mov	qword ptr [rsp + 16], r12 
	mov	ebp, 1637778273
.LBB22_1:                               



	mov	ecx, 2113808742
	jmp	.LBB22_2
.LBB22_22:                              
	mov	rdi, qword ptr [r13]
	mov	rsi, qword ptr [rsp + 24]
	mov	eax, dword ptr [rip + x.214]
	mov	ecx, dword ptr [rip + y.215]
	lea	edx, [rax - 1]
	imul	edx, eax
	not	edx
	or	edx, -2
	cmp	edx, r14d
	sete	al
	cmp	ecx, 10
	setl	bl
	xor	bl, al
	mov	eax, -1280075056
	mov	ebx, 1080909681
	cmovne	eax, ebx
	cmp	edx, r14d
	sete	byte ptr [rsp + 5]
	mov	edx, eax
	cmove	edx, ebx
	cmp	ecx, 10
	setl	byte ptr [rsp + 80]
	cmovge	edx, eax
	mov	ecx, -1745699835
	jmp	.LBB22_23
.LBB22_28:                              
	cmp	ecx, 1637778273
	jne	.LBB22_23

	mov	ecx, edx
	jmp	.LBB22_23
.LBB22_30:                              
	mov	bl, byte ptr [rsp + 5]
	mov	cl, byte ptr [rsp + 80]
	mov	eax, ebx
	xor	al, cl
	test	cl, cl
	mov	ecx, -1280075056
	cmovne	ecx, ebp
	test	bl, bl
	mov	ebx, -1280075056
	cmove	ecx, ebx
	test	al, al
	cmovne	ecx, ebp
.LBB22_23:                              


	cmp	ecx, 1080909680
	jg	.LBB22_27

	cmp	ecx, -1745699835
	je	.LBB22_30

	cmp	ecx, -1280075056
	jne	.LBB22_23

	mov	ecx, 1637778273
	jmp	.LBB22_23
.LBB22_27:                              
	cmp	ecx, 1080909681
	jne	.LBB22_28

	call	_ZSt10__distanceIN9__gnu_cxx17__normal_iteratorIPKcNSt7__cxx1112basic_stringIcSt11char_traitsIcESaIcEEEEEENSt15iterator_traitsIT_E15difference_typeESC_SC_St26random_access_iterator_tag
	add	eax, -1949651023
	inc	eax
	sub	eax, -1949651023
	mov	dword ptr [rsp + 8], eax
	mov	rcx, qword ptr [rsp + 24]
	cmp	byte ptr [rcx], 49
	sete	dl
	cmp	eax, 8
	setne	cl
	xor	dl, cl
	not	dl
	and	dl, cl
	mov	ecx, eax
	and	ecx, 8
	mov	esi, eax
	xor	esi, 8
	or	esi, ecx
	mov	ecx, 24
	cmp	esi, ecx
	sete	cl
	xor	dl, 1
	or	dl, cl
	mov	ecx, eax
	not	ecx
	and	ecx, 2072846622
	mov	esi, eax
	and	esi, -2072846623
	or	esi, ecx
	xor	esi, 2072846598
	mov	ecx, eax
	and	ecx, 24
	or	ecx, esi
	cmp	ecx, 56
	setne	bl
	mov	ecx, -15521190
	mov	esi, -1359049751
	cmovne	ecx, esi
	xor	bl, dl
	mov	edx, -15521190
	cmove	ecx, edx
	cmp	eax, 64
	cmove	ecx, edx
	jmp	.LBB22_2
.LBB22_17:                              
	mov	rdi, r12
	call	_ZNK9__gnu_cxx17__normal_iteratorIPKcNSt7__cxx1112basic_stringIcSt11char_traitsIcESaIcEEEE4baseEv
	mov	r14, qword ptr [rax]
	lea	rdi, [rsp + 80]
	call	_ZNK9__gnu_cxx17__normal_iteratorIPKcNSt7__cxx1112basic_stringIcSt11char_traitsIcESaIcEEEE4baseEv
	mov	ecx, dword ptr [rip + x.86]
	mov	edi, dword ptr [rip + y.87]
	lea	esi, [rcx - 1]
	imul	esi, ecx
	mov	ecx, esi
	xor	ecx, -2
	and	ecx, esi
	sete	bl
	cmp	edi, 10
	setl	dl
	xor	dl, bl
	mov	edx, 691070385
	mov	esi, 2045576252
	cmovne	edx, esi
	test	ecx, ecx
	mov	ecx, edx
	cmove	ecx, esi
	cmp	edi, 10
	cmovge	ecx, edx
	cmp	r14, qword ptr [rax]
	mov	r14d, -1
	setb	byte ptr [rsp + 5]
	jmp	.LBB22_10
.LBB22_18:                              
	mov	rdi, r12
	call	_ZNK9__gnu_cxx17__normal_iteratorIPKcNSt7__cxx1112basic_stringIcSt11char_traitsIcESaIcEEEE4baseEv
	lea	rdi, [rsp + 80]
	call	_ZNK9__gnu_cxx17__normal_iteratorIPKcNSt7__cxx1112basic_stringIcSt11char_traitsIcESaIcEEEE4baseEv
	mov	ecx, -1801168299
.LBB22_10:                              


	cmp	ecx, 691070384
	jg	.LBB22_14

	cmp	ecx, -1801168299
	je	.LBB22_17

	cmp	ecx, -1477871261
	jne	.LBB22_10

	mov	al, byte ptr [rsp + 6]
	mov	cl, byte ptr [rsp + 7]
	mov	edx, eax
	xor	dl, cl
	test	cl, cl
	mov	ecx, 691070385
	mov	esi, -1801168299
	cmovne	ecx, esi
	test	al, al
	mov	eax, 691070385
	cmove	ecx, eax
	test	dl, dl
	cmovne	ecx, esi
	jmp	.LBB22_10
.LBB22_14:                              
	cmp	ecx, 691070385
	je	.LBB22_18

	cmp	ecx, 2045576252
	jne	.LBB22_10

	mov	al, byte ptr [rsp + 5]
	test	al, al
	mov	ecx, 1351184021
	mov	eax, 917765127
	cmovne	ecx, eax
	jmp	.LBB22_2
.LBB22_32:                              
	mov	edi, _ZN3DES18parityBitDropTableE
	call	_ZNKSt5arrayIiLm56EE3endEv
	mov	edi, _ZN3DES18parityBitDropTableE
	mov	rsi, rax
	lea	rdx, [rsp + 8]
	call	_ZSt9__find_ifIPKiN9__gnu_cxx5__ops16_Iter_equals_valIS0_EEET_S6_S6_T0_St26random_access_iterator_tag
	movabs	rcx, 3345220917042481237
	mov	rdx, rcx
	sub	rax, rdx
	mov	ecx, _ZN3DES18parityBitDropTableE
	sub	rax, rcx
	add	rax, rdx
	shr	rax, 2
	mov	ecx, dword ptr [rsp + 12] 
	sub	ecx, eax
	sub	ecx, -1717820349
	movsxd	rsi, ecx
	mov	edx, 1
	lea	rdi, [rsp + 32]
	call	_ZNSt6bitsetILm56EE3setEmb
	mov	ecx, -15521190
.LBB22_2:                               



	cmp	ecx, 917765126
	jle	.LBB22_3

	cmp	ecx, 917765127
	je	.LBB22_22

	cmp	ecx, 1351184021
	je	.LBB22_20

	cmp	ecx, 2113808742
	jne	.LBB22_2

	mov	rax, qword ptr [rsp + 16] 
	mov	qword ptr [rax], r15
	mov	rax, qword ptr [r13]
	add	rax, qword ptr [r13 + 8]
	mov	qword ptr [rsp + 80], rax
	mov	eax, dword ptr [rip + x.86]
	mov	ecx, dword ptr [rip + y.87]
	mov	edx, eax
	neg	edx
	not	edx
	imul	edx, eax
	not	edx
	or	edx, -2
	cmp	edx, r14d
	sete	byte ptr [rsp + 6]
	cmp	ecx, 10
	setl	byte ptr [rsp + 7]
	mov	ecx, -1477871261
	jmp	.LBB22_10
.LBB22_3:                               
	cmp	ecx, -1359049751
	je	.LBB22_32

	cmp	ecx, -15521190
	jne	.LBB22_2

	xor	esi, esi
	mov	rdi, r12
	call	_ZN9__gnu_cxx17__normal_iteratorIPKcNSt7__cxx1112basic_stringIcSt11char_traitsIcESaIcEEEEppEi
	mov	r15, rax
	mov	rax, qword ptr [rsp + 72]
	mov	qword ptr [rsp + 16], rax 
	jmp	.LBB22_1
.LBB22_20:
	mov	rax, qword ptr [rsp + 56]
	lea	rbx, [rsp + 80]
	lea	rsi, [rsp + 32]
	mov	rdi, rbx
	call	_ZNKSt6bitsetILm56EE9to_stringIcSt11char_traitsIcESaIcEEENSt7__cxx1112basic_stringIT_T0_T1_EEv
	mov	rdi, qword ptr [rsp + 64] 
	add	rdi, 232
	mov	rsi, rbx
	call	_ZNSt7__cxx1112basic_stringIcSt11char_traitsIcESaIcEEaSEOS4_
.Ltmp218:
	mov	rdi, rbx
	call	_ZNSt7__cxx1112basic_stringIcSt11char_traitsIcESaIcEE10_M_disposeEv
.Ltmp219:

	mov	rax, qword ptr [rsp + 48]
	mov	rax, qword ptr [rsp + 40]
	add	rsp, 120
	pop	rbx
	pop	r12
	pop	r13
	pop	r14
	pop	r15
	pop	rbp
	ret
.LBB22_19:
.Ltmp220:
	mov	rdi, rax
	call	__cxa_call_unexpected
.Lfunc_end22:
	.size	_ZN3DES15parityDropPermuERKNSt7__cxx1112basic_stringIcSt11char_traitsIcESaIcEEE, .Lfunc_end22-_ZN3DES15parityDropPermuERKNSt7__cxx1112basic_stringIcSt11char_traitsIcESaIcEEE
	.cfi_endproc
	.section	.gcc_except_table,"a",@progbits
	.p2align	2
GCC_except_table22:
.Lexception11:
	.byte	255                     
	.byte	3                       
	.asciz	"\253\200"              
	.byte	3                       
	.byte	39                      
	.long	.Lfunc_begin11-.Lfunc_begin11 
	.long	.Ltmp218-.Lfunc_begin11 
	.long	0                       
	.byte	0                       
	.long	.Ltmp218-.Lfunc_begin11 
	.long	.Ltmp219-.Ltmp218       
	.long	.Ltmp220-.Lfunc_begin11 
	.byte	1                       
	.long	.Ltmp219-.Lfunc_begin11 
	.long	.Lfunc_end22-.Ltmp219   
	.long	0                       
	.byte	0                       
	.byte	127                     

	.byte	0                       

	.byte	0
	.p2align	2

	.section	.text._ZStplIcSt11char_traitsIcESaIcEENSt7__cxx1112basic_stringIT_T0_T1_EERKS8_SA_,"axG",@progbits,_ZStplIcSt11char_traitsIcESaIcEENSt7__cxx1112basic_stringIT_T0_T1_EERKS8_SA_,comdat
	.weak	_ZStplIcSt11char_traitsIcESaIcEENSt7__cxx1112basic_stringIT_T0_T1_EERKS8_SA_ 
	.type	_ZStplIcSt11char_traitsIcESaIcEENSt7__cxx1112basic_stringIT_T0_T1_EERKS8_SA_,@function
_ZStplIcSt11char_traitsIcESaIcEENSt7__cxx1112basic_stringIT_T0_T1_EERKS8_SA_: 
.Lfunc_begin12:
	.cfi_startproc
	.cfi_personality 3, __gxx_personality_v0
	.cfi_lsda 3, .Lexception12

	push	r14
.Lcfi166:
	.cfi_def_cfa_offset 16
	push	rbx
.Lcfi167:
	.cfi_def_cfa_offset 24
	push	rax
.Lcfi168:
	.cfi_def_cfa_offset 32
.Lcfi169:
	.cfi_offset rbx, -24
.Lcfi170:
	.cfi_offset r14, -16
	mov	r14, rdx
	mov	rbx, rdi
	call	_ZNSt7__cxx1112basic_stringIcSt11char_traitsIcESaIcEEC2ERKS4_
.Ltmp221:
	mov	rdi, rbx
	mov	rsi, r14
	call	_ZNSt7__cxx1112basic_stringIcSt11char_traitsIcESaIcEE6appendERKS4_
.Ltmp222:

	mov	rax, rbx
	add	rsp, 8
	pop	rbx
	pop	r14
	ret
.LBB23_3:
.Ltmp223:
	mov	r14, rax
.Ltmp224:
	mov	rdi, rbx
	call	_ZNSt7__cxx1112basic_stringIcSt11char_traitsIcESaIcEE10_M_disposeEv
.Ltmp225:

	mov	rdi, r14
	call	_Unwind_Resume
.LBB23_2:
.Ltmp226:
	mov	rdi, rax
	call	__cxa_call_unexpected
.Lfunc_end23:
	.size	_ZStplIcSt11char_traitsIcESaIcEENSt7__cxx1112basic_stringIT_T0_T1_EERKS8_SA_, .Lfunc_end23-_ZStplIcSt11char_traitsIcESaIcEENSt7__cxx1112basic_stringIT_T0_T1_EERKS8_SA_
	.cfi_endproc
	.section	.gcc_except_table,"a",@progbits
	.p2align	2
GCC_except_table23:
.Lexception12:
	.byte	255                     
	.byte	3                       
	.asciz	"\270"                  
	.byte	3                       
	.byte	52                      
	.long	.Lfunc_begin12-.Lfunc_begin12 
	.long	.Ltmp221-.Lfunc_begin12 
	.long	0                       
	.byte	0                       
	.long	.Ltmp221-.Lfunc_begin12 
	.long	.Ltmp222-.Ltmp221       
	.long	.Ltmp223-.Lfunc_begin12 
	.byte	0                       
	.long	.Ltmp224-.Lfunc_begin12 
	.long	.Ltmp225-.Ltmp224       
	.long	.Ltmp226-.Lfunc_begin12 
	.byte	1                       
	.long	.Ltmp225-.Lfunc_begin12 
	.long	.Lfunc_end23-.Ltmp225   
	.long	0                       
	.byte	0                       
	.byte	127                     

	.byte	0                       

	.byte	0
	.p2align	2

	.text
	.globl	_ZN3DES16compressionPermuERKNSt7__cxx1112basic_stringIcSt11char_traitsIcESaIcEEE 
	.p2align	1, 0x90
	.type	_ZN3DES16compressionPermuERKNSt7__cxx1112basic_stringIcSt11char_traitsIcESaIcEEE,@function
_ZN3DES16compressionPermuERKNSt7__cxx1112basic_stringIcSt11char_traitsIcESaIcEEE: 
.Lfunc_begin13:
	.cfi_startproc
	.cfi_personality 3, __gxx_personality_v0
	.cfi_lsda 3, .Lexception13

	push	rbp
.Lcfi171:
	.cfi_def_cfa_offset 16
.Lcfi172:
	.cfi_offset rbp, -16
	mov	rbp, rsp
.Lcfi173:
	.cfi_def_cfa_register rbp
	push	r15
	push	r14
	push	r13
	push	r12
	push	rbx
	sub	rsp, 104
.Lcfi174:
	.cfi_offset rbx, -56
.Lcfi175:
	.cfi_offset r12, -48
.Lcfi176:
	.cfi_offset r13, -40
.Lcfi177:
	.cfi_offset r14, -32
.Lcfi178:
	.cfi_offset r15, -24
	mov	r12, rsi
	mov	r14, rdi
	mov	eax, dword ptr [rip + x.134]
	mov	ecx, dword ptr [rip + y.135]
	lea	edx, [rax - 1]
	imul	edx, eax
	mov	eax, edx
	xor	eax, -2
	test	eax, edx
	sete	byte ptr [rbp - 43]
	cmp	ecx, 10
	setl	byte ptr [rbp - 44]
	add	r14, 264
	mov	eax, 661260039
	mov	r15d, -1




	jmp	.LBB24_1
.LBB24_23:                              
	cmp	eax, 400478132
	jg	.LBB24_28

	cmp	eax, 186357760
	je	.LBB24_47

	cmp	eax, 347721481
	jne	.LBB24_1

	mov	rax, qword ptr [rbp - 64]
	mov	rsi, qword ptr [rbp - 80]
	mov	rdi, qword ptr [rbp - 64]
	call	_ZNKSt6bitsetILm48EE9to_stringB5cxx11Ev
	mov	rsi, qword ptr [rbp - 64]
	mov	rdi, r14
	call	_ZNSt7__cxx1112basic_stringIcSt11char_traitsIcESaIcEEaSEOS4_
	mov	rdi, qword ptr [rbp - 64]
.Ltmp230:
	call	_ZNSt7__cxx1112basic_stringIcSt11char_traitsIcESaIcEE10_M_disposeEv
.Ltmp231:

	mov	eax, dword ptr [rip + x.134]
	mov	ecx, dword ptr [rip + y.135]
	lea	edx, [rax - 1]
	imul	edx, eax
	mov	eax, edx
	xor	eax, -2
	and	eax, edx
	sete	dl
	cmp	ecx, 10
	setl	bl
	xor	bl, dl
	mov	edx, -1984207917
	mov	esi, -1394446573
	cmovne	edx, esi
	test	eax, eax
	mov	eax, edx
	cmove	eax, esi
	cmp	ecx, 10
	mov	rcx, qword ptr [rbp - 104]
	mov	rcx, qword ptr [rbp - 96]
	cmovge	eax, edx
	jmp	.LBB24_1
.LBB24_3:                               
	cmp	eax, -1606787166
	jg	.LBB24_11

	cmp	eax, -1984207917
	je	.LBB24_63

	cmp	eax, -1810805810
	jne	.LBB24_1

	mov	rax, qword ptr [rbp - 120] 
	mov	rcx, qword ptr [rbp - 112] 
	mov	qword ptr [rcx], rax
	mov	rax, qword ptr [rbp - 88]
	mov	rax, qword ptr [r12]
	add	rax, qword ptr [r12 + 8]
	mov	rcx, qword ptr [rbp - 88]
	mov	qword ptr [rcx], rax
	mov	r13, qword ptr [rbp - 56]
	mov	rbx, qword ptr [rbp - 88]
	mov	eax, dword ptr [rip + x.86]
	mov	ecx, dword ptr [rip + y.87]
	lea	edx, [rax - 1]
	imul	edx, eax
	mov	eax, edx
	xor	eax, -2
	test	eax, edx
	sete	byte ptr [rbp - 46]
	cmp	ecx, 10
	setl	byte ptr [rbp - 41]
	mov	eax, -1477871261
	jmp	.LBB24_7
.LBB24_32:                              
	cmp	eax, 822962156
	je	.LBB24_41

	cmp	eax, 941276513
	jne	.LBB24_1

	mov	eax, -824556039
	jmp	.LBB24_1
.LBB24_19:                              
	cmp	eax, -325616134
	je	.LBB24_65

	cmp	eax, 10233444
	jne	.LBB24_1

	mov	eax, -1606787165
	jmp	.LBB24_1
.LBB24_28:                              
	cmp	eax, 400478133
	je	.LBB24_49

	cmp	eax, 661260039
	jne	.LBB24_1

	mov	cl, byte ptr [rbp - 43]
	mov	al, byte ptr [rbp - 44]
	mov	edx, ecx
	xor	dl, al
	mov	edx, 941276513
	mov	esi, -824556039
	cmovne	edx, esi
	test	al, al
	mov	eax, edx
	cmovne	eax, esi
	test	cl, cl
	cmove	eax, edx
	jmp	.LBB24_1
.LBB24_11:                              
	cmp	eax, -1606787165
	je	.LBB24_61

	cmp	eax, -1566094263
	jne	.LBB24_1

	mov	eax, dword ptr [rip + x.134]
	mov	ecx, dword ptr [rip + y.135]
	lea	edx, [rax - 1]
	imul	edx, eax
	not	edx
	or	edx, -2
	cmp	edx, r15d
	sete	al
	cmp	ecx, 10
	setl	bl
	xor	bl, al
	mov	esi, -952578922
	mov	edi, 1477466812
.LBB24_39:                              
	cmovne	esi, edi
	cmp	edx, r15d
	mov	eax, esi
	cmove	eax, edi
	cmp	ecx, 10
	cmovge	eax, esi
	jmp	.LBB24_1
.LBB24_59:                              
	mov	al, byte ptr [rbp - 45]
	test	al, al
	mov	eax, -1606787165
	mov	ecx, -1566094263
	cmovne	eax, ecx
	jmp	.LBB24_1
.LBB24_60:                              
	mov	rdx, qword ptr [rbp - 72]
	mov	edi, _ZN3DES19keyCompressionTableE
	mov	esi, _ZN3DES19keyCompressionTableE+192
	call	_ZSt9__find_ifIPKiN9__gnu_cxx5__ops16_Iter_equals_valIS0_EEET_S6_S6_T0_St26random_access_iterator_tag
	movabs	rcx, -2235071724421674820
	add	rax, rcx
	mov	edx, _ZN3DES19keyCompressionTableE
	sub	rax, rdx
	sub	rax, rcx
	shr	rax, 2
	movabs	rcx, -9175233550216381388
	mov	rdx, rcx
	lea	ecx, [rdx + 47]
	sub	ecx, eax
	sub	ecx, edx
	movsxd	r13, ecx
	mov	rbx, qword ptr [rbp - 80]
	mov	edx, .L.str.48
	mov	rdi, rbx
	mov	rsi, r13
	call	_ZNKSt6bitsetILm48EE8_M_checkEmPKc
	mov	edx, 1
	mov	rdi, rbx
	mov	rsi, r13
	call	_ZNSt6bitsetILm48EE14_Unchecked_setEmi
	mov	eax, dword ptr [rip + x.134]
	lea	ecx, [rax - 1]
	imul	ecx, eax
	not	ecx
	or	ecx, -2
	cmp	ecx, r15d
	sete	cl
	mov	eax, -952578922
	mov	edi, 10233444
	cmove	eax, edi
	cmp	dword ptr [rip + y.135], 10
	setl	dl
	mov	esi, -952578922
	cmovge	eax, esi
	xor	dl, cl
	cmovne	eax, edi
	jmp	.LBB24_1
.LBB24_75:                              
	mov	rdx, qword ptr [rbp - 72]
	mov	edi, _ZN3DES19keyCompressionTableE
	mov	esi, _ZN3DES19keyCompressionTableE+192
	call	_ZSt9__find_ifIPKiN9__gnu_cxx5__ops16_Iter_equals_valIS0_EEET_S6_S6_T0_St26random_access_iterator_tag
	mov	ecx, _ZN3DES19keyCompressionTableE
	sub	rax, rcx
	shr	rax, 2
	movabs	rcx, -3655585818110956813
	mov	rdx, rcx
	lea	ecx, [rdx + 47]
	sub	ecx, eax
	sub	ecx, edx
	movsxd	r13, ecx
	mov	rbx, qword ptr [rbp - 80]
	mov	edx, .L.str.48
	mov	rdi, rbx
	mov	rsi, r13
	call	_ZNKSt6bitsetILm48EE8_M_checkEmPKc
	mov	edx, 1
	mov	rdi, rbx
	mov	rsi, r13
	call	_ZNSt6bitsetILm48EE14_Unchecked_setEmi
	mov	eax, 1477466812
	jmp	.LBB24_1
.LBB24_40:                              
	mov	rax, rsp
	add	rax, -16
	mov	rsp, rax
	mov	qword ptr [rbp - 80], rax
	mov	rax, rsp
	add	rax, -16
	mov	rsp, rax
	mov	qword ptr [rbp - 72], rax
	mov	rax, rsp
	add	rax, -16
	mov	rsp, rax
	mov	qword ptr [rbp - 56], rax
	mov	rax, rsp
	add	rax, -16
	mov	rsp, rax
	mov	qword ptr [rbp - 88], rax
	mov	rax, rsp
	add	rax, -16
	mov	rsp, rax
	mov	qword ptr [rbp - 136], rax
	mov	rax, rsp
	add	rax, -32
	mov	rsp, rax
	mov	qword ptr [rbp - 64], rax
	mov	rax, qword ptr [rbp - 80]
	mov	qword ptr [rbp - 96], rax
	mov	rax, qword ptr [rbp - 96]
	mov	rax, qword ptr [rbp - 80]
	mov	qword ptr [rax], 0
	mov	eax, dword ptr [rip + x.134]
	mov	ecx, dword ptr [rip + y.135]
	mov	edx, eax
	neg	edx
	not	edx
	imul	edx, eax
	not	edx
	or	edx, -2
	cmp	edx, r15d
	sete	al
	cmp	ecx, 10
	setl	bl
	xor	bl, al
	mov	esi, 941276513
	mov	edi, 822962156
	cmovne	esi, edi
	cmp	edx, r15d
	mov	eax, esi
	cmove	eax, edi
	cmp	ecx, 10
	mov	rcx, qword ptr [rbp - 72]
	mov	qword ptr [rbp - 104], rcx
	mov	rcx, qword ptr [rbp - 104]
	mov	rcx, qword ptr [rbp - 56]
	mov	qword ptr [rbp - 128], rcx
	mov	rcx, qword ptr [rbp - 128]
	mov	rcx, qword ptr [r12]
	mov	qword ptr [rbp - 144], rcx
	cmovge	eax, esi
	jmp	.LBB24_1
.LBB24_47:                              
	mov	eax, dword ptr [rip + x.134]
	mov	ecx, dword ptr [rip + y.135]
	mov	edx, eax
	neg	edx
	not	edx
	imul	edx, eax
	not	edx
	or	edx, -2
	cmp	edx, r15d
	sete	al
	cmp	ecx, 10
	setl	bl
	xor	bl, al
	mov	esi, -1984207917
	mov	edi, 347721481
	cmovne	esi, edi
	cmp	edx, r15d
	mov	eax, esi
	cmove	eax, edi
	cmp	ecx, 10
	mov	rcx, qword ptr [rbp - 128]
	cmovge	eax, esi
	jmp	.LBB24_1
.LBB24_63:                              
	mov	rax, qword ptr [rbp - 64]
	mov	rsi, qword ptr [rbp - 80]
	mov	rdi, qword ptr [rbp - 64]
	call	_ZNKSt6bitsetILm48EE9to_stringB5cxx11Ev
	mov	rsi, qword ptr [rbp - 64]
	mov	rdi, r14
	call	_ZNSt7__cxx1112basic_stringIcSt11char_traitsIcESaIcEEaSEOS4_
	mov	rdi, qword ptr [rbp - 64]
.Ltmp227:
	call	_ZNSt7__cxx1112basic_stringIcSt11char_traitsIcESaIcEE10_M_disposeEv
.Ltmp228:

	mov	rax, qword ptr [rbp - 104]
	mov	rax, qword ptr [rbp - 96]
	mov	eax, 347721481
	jmp	.LBB24_1
.LBB24_45:                              
	mov	rdi, r13
	call	_ZNK9__gnu_cxx17__normal_iteratorIPKcNSt7__cxx1112basic_stringIcSt11char_traitsIcESaIcEEEE4baseEv
	mov	r15, r12
	mov	r12, r14
	mov	r14, qword ptr [rax]
	mov	rdi, rbx
	call	_ZNK9__gnu_cxx17__normal_iteratorIPKcNSt7__cxx1112basic_stringIcSt11char_traitsIcESaIcEEEE4baseEv
	cmp	r14, qword ptr [rax]
	mov	r14, r12
	mov	r12, r15
	mov	r15d, -1
	setb	byte ptr [rbp - 42]
	mov	eax, dword ptr [rip + x.86]
	lea	ecx, [rax - 1]
	imul	ecx, eax
	not	ecx
	or	ecx, -2
	cmp	ecx, r15d
	sete	cl
	mov	eax, 691070385
	mov	esi, 2045576252
	cmove	eax, esi
	cmp	dword ptr [rip + y.87], 10
	setl	dl
	mov	edi, 691070385
	cmovge	eax, edi
	xor	dl, cl
	cmovne	eax, esi
	jmp	.LBB24_7
.LBB24_46:                              
	mov	rdi, r13
	call	_ZNK9__gnu_cxx17__normal_iteratorIPKcNSt7__cxx1112basic_stringIcSt11char_traitsIcESaIcEEEE4baseEv
	mov	rdi, rbx
	call	_ZNK9__gnu_cxx17__normal_iteratorIPKcNSt7__cxx1112basic_stringIcSt11char_traitsIcESaIcEEEE4baseEv
	mov	eax, -1801168299
.LBB24_7:                               

	cmp	eax, 691070384
	jg	.LBB24_42

	cmp	eax, -1801168299
	je	.LBB24_45

	cmp	eax, -1477871261
	jne	.LBB24_7

	mov	cl, byte ptr [rbp - 46]
	mov	al, byte ptr [rbp - 41]
	mov	edx, ecx
	xor	dl, al
	test	al, al
	mov	eax, 691070385
	mov	esi, -1801168299
	cmovne	eax, esi
	test	cl, cl
	mov	ecx, 691070385
	cmove	eax, ecx
	test	dl, dl
	cmovne	eax, esi
	jmp	.LBB24_7
.LBB24_42:                              
	cmp	eax, 691070385
	je	.LBB24_46

	cmp	eax, 2045576252
	jne	.LBB24_7

	mov	al, byte ptr [rbp - 42]
	test	al, al
	mov	eax, 186357760
	mov	ecx, 1551233548
	cmovne	eax, ecx
	jmp	.LBB24_1
.LBB24_41:                              
	mov	rax, qword ptr [rbp - 56]
	mov	qword ptr [rbp - 112], rax 
	mov	eax, -1810805810
	mov	rcx, qword ptr [rbp - 144]
	mov	qword ptr [rbp - 120], rcx 
	jmp	.LBB24_1
.LBB24_65:                              
	mov	rdi, qword ptr [r12]
	mov	rax, qword ptr [rbp - 56]
	mov	rsi, qword ptr [rax]
	mov	eax, dword ptr [rip + x.214]
	mov	ecx, dword ptr [rip + y.215]
	mov	edx, eax
	neg	edx
	not	edx
	imul	edx, eax
	not	edx
	or	edx, -2
	cmp	edx, r15d
	sete	al
	cmp	ecx, 10
	setl	bl
	xor	bl, al
	mov	eax, -1280075056
	mov	ebx, 1080909681
	cmovne	eax, ebx
	cmp	edx, r15d
	sete	byte ptr [rbp - 41]
	mov	edx, eax
	cmove	edx, ebx
	cmp	ecx, 10
	setl	byte ptr [rbp - 42]
	cmovge	edx, eax
	mov	ecx, -1745699835
	jmp	.LBB24_66
.LBB24_71:                              
	cmp	ecx, 1637778273
	jne	.LBB24_66

	mov	ecx, edx
	jmp	.LBB24_66
.LBB24_73:                              
	mov	bl, byte ptr [rbp - 41]
	mov	cl, byte ptr [rbp - 42]
	mov	eax, ebx
	xor	al, cl
	test	cl, cl
	mov	ecx, -1280075056
	mov	r8d, 1637778273
	cmovne	ecx, r8d
	test	bl, bl
	mov	ebx, -1280075056
	cmove	ecx, ebx
	test	al, al
	cmovne	ecx, r8d
.LBB24_66:                              

	cmp	ecx, 1080909680
	jg	.LBB24_70

	cmp	ecx, -1745699835
	je	.LBB24_73

	cmp	ecx, -1280075056
	jne	.LBB24_66

	mov	ecx, 1637778273
	jmp	.LBB24_66
.LBB24_70:                              
	cmp	ecx, 1080909681
	jne	.LBB24_71

	call	_ZSt10__distanceIN9__gnu_cxx17__normal_iteratorIPKcNSt7__cxx1112basic_stringIcSt11char_traitsIcESaIcEEEEEENSt15iterator_traitsIT_E15difference_typeESC_SC_St26random_access_iterator_tag
	inc	eax
	mov	rcx, qword ptr [rbp - 72]
	mov	dword ptr [rcx], eax
	mov	rax, qword ptr [rbp - 56]
	mov	rax, qword ptr [rbp - 72]
	mov	eax, 400478133
	jmp	.LBB24_1
.LBB24_49:                              
	mov	rdi, qword ptr [r12]
	mov	rax, qword ptr [rbp - 56]
	mov	rsi, qword ptr [rax]
	mov	eax, dword ptr [rip + x.214]
	mov	ecx, dword ptr [rip + y.215]
	mov	edx, eax
	neg	edx
	not	edx
	imul	edx, eax
	mov	eax, edx
	xor	eax, -2
	and	eax, edx
	sete	byte ptr [rbp - 41]
	sete	dl
	test	eax, eax
	mov	eax, -1280075056
	mov	r8d, 1080909681
	cmove	eax, r8d
	cmp	ecx, 10
	setl	cl
	setl	byte ptr [rbp - 42]
	mov	ebx, -1280075056
	cmovge	eax, ebx
	xor	cl, dl
	cmovne	eax, r8d
	mov	ecx, -1745699835
	jmp	.LBB24_50
.LBB24_55:                              
	cmp	ecx, 1637778273
	jne	.LBB24_50

	mov	ecx, eax
	jmp	.LBB24_50
.LBB24_57:                              
	mov	bl, byte ptr [rbp - 41]
	mov	cl, byte ptr [rbp - 42]
	mov	edx, ebx
	xor	dl, cl
	test	cl, cl
	mov	ecx, -1280075056
	mov	r8d, 1637778273
	cmovne	ecx, r8d
	test	bl, bl
	mov	ebx, -1280075056
	cmove	ecx, ebx
	test	dl, dl
	cmovne	ecx, r8d
.LBB24_50:                              

	cmp	ecx, 1080909680
	jg	.LBB24_54

	cmp	ecx, -1745699835
	je	.LBB24_57

	cmp	ecx, -1280075056
	jne	.LBB24_50

	mov	ecx, 1637778273
	jmp	.LBB24_50
.LBB24_54:                              
	cmp	ecx, 1080909681
	jne	.LBB24_55

	call	_ZSt10__distanceIN9__gnu_cxx17__normal_iteratorIPKcNSt7__cxx1112basic_stringIcSt11char_traitsIcESaIcEEEEEENSt15iterator_traitsIT_E15difference_typeESC_SC_St26random_access_iterator_tag
	movabs	rcx, -1687335182731063806
	lea	eax, [rax + rcx + 1]
	sub	eax, ecx
	mov	rcx, qword ptr [rbp - 72]
	mov	dword ptr [rcx], eax
	mov	eax, dword ptr [rip + x.134]
	mov	ecx, dword ptr [rip + y.135]
	lea	edx, [rax - 1]
	imul	edx, eax
	mov	eax, edx
	xor	eax, -2
	and	eax, edx
	sete	dl
	cmp	ecx, 10
	setl	bl
	xor	bl, dl
	mov	edx, -325616134
	mov	esi, 1206091912
	cmovne	edx, esi
	test	eax, eax
	mov	eax, edx
	cmove	eax, esi
	cmp	ecx, 10
	mov	rcx, qword ptr [rbp - 56]
	mov	rcx, qword ptr [rcx]
	cmovge	eax, edx
	cmp	byte ptr [rcx], 49
	mov	rcx, qword ptr [rbp - 72]
	mov	ecx, dword ptr [rcx]
	sete	dl
	cmp	ecx, 9
	setne	bl
	xor	bl, dl
	not	bl
	mov	esi, ecx
	not	esi
	and	bl, dl
	and	esi, -377351164
	mov	edx, ecx
	and	edx, 377351163
	or	edx, esi
	xor	edx, -377351168
	mov	esi, ecx
	and	esi, 4
	or	esi, edx
	cmp	esi, 22
	not	bl
	sete	dl
	or	dl, bl
	cmp	ecx, 25
	setne	bl
	xor	dl, bl
	and	dl, bl
	cmp	ecx, 35
	setne	bl
	xor	dl, bl
	not	dl
	and	dl, bl
	cmp	ecx, 38
	setne	bl
	xor	dl, bl
	not	dl
	and	dl, bl
	cmp	ecx, 43
	setne	bl
	xor	dl, bl
	not	dl
	and	dl, bl
	cmp	ecx, 54
	setne	cl
	xor	dl, cl
	not	dl
	and	dl, cl
	mov	byte ptr [rbp - 45], dl
	jmp	.LBB24_1
.LBB24_61:                              
	mov	rdi, qword ptr [rbp - 56]
	xor	esi, esi
	call	_ZN9__gnu_cxx17__normal_iteratorIPKcNSt7__cxx1112basic_stringIcSt11char_traitsIcESaIcEEEEppEi
	mov	qword ptr [rbp - 120], rax 
	mov	eax, -1810805810
	mov	rcx, qword ptr [rbp - 136]
	mov	qword ptr [rbp - 112], rcx 
.LBB24_1:                               



	cmp	eax, 186357759
	jle	.LBB24_2

	cmp	eax, 822962155
	jle	.LBB24_23

	cmp	eax, 1206091911
	jle	.LBB24_32

	cmp	eax, 1206091912
	je	.LBB24_59

	cmp	eax, 1477466812
	je	.LBB24_60

	cmp	eax, 1551233548
	jne	.LBB24_1

	mov	eax, dword ptr [rip + x.134]
	mov	ecx, dword ptr [rip + y.135]
	lea	edx, [rax - 1]
	imul	edx, eax
	not	edx
	or	edx, -2
	cmp	edx, r15d
	sete	al
	cmp	ecx, 10
	setl	bl
	xor	bl, al
	mov	esi, -325616134
	mov	edi, 400478133
	jmp	.LBB24_39
.LBB24_2:                               
	cmp	eax, -1394446574
	jle	.LBB24_3

	cmp	eax, -325616135
	jg	.LBB24_19

	cmp	eax, -952578922
	je	.LBB24_75

	cmp	eax, -824556039
	je	.LBB24_40

	cmp	eax, -1394446573
	jne	.LBB24_1

	lea	rsp, [rbp - 40]
	pop	rbx
	pop	r12
	pop	r13
	pop	r14
	pop	r15
	pop	rbp
	ret
.LBB24_62:
.Ltmp229:
	mov	rdi, rax
	call	__cxa_call_unexpected
.LBB24_48:
.Ltmp232:
	mov	rdi, rax
	call	__cxa_call_unexpected
.Lfunc_end24:
	.size	_ZN3DES16compressionPermuERKNSt7__cxx1112basic_stringIcSt11char_traitsIcESaIcEEE, .Lfunc_end24-_ZN3DES16compressionPermuERKNSt7__cxx1112basic_stringIcSt11char_traitsIcESaIcEEE
	.cfi_endproc
	.section	.gcc_except_table,"a",@progbits
	.p2align	2
GCC_except_table24:
.Lexception13:
	.byte	255                     
	.byte	3                       
	.byte	69                      
	.byte	3                       
	.byte	65                      
	.long	.Lfunc_begin13-.Lfunc_begin13 
	.long	.Ltmp230-.Lfunc_begin13 
	.long	0                       
	.byte	0                       
	.long	.Ltmp230-.Lfunc_begin13 
	.long	.Ltmp231-.Ltmp230       
	.long	.Ltmp232-.Lfunc_begin13 
	.byte	1                       
	.long	.Ltmp231-.Lfunc_begin13 
	.long	.Ltmp227-.Ltmp231       
	.long	0                       
	.byte	0                       
	.long	.Ltmp227-.Lfunc_begin13 
	.long	.Ltmp228-.Ltmp227       
	.long	.Ltmp229-.Lfunc_begin13 
	.byte	1                       
	.long	.Ltmp228-.Lfunc_begin13 
	.long	.Lfunc_end24-.Ltmp228   
	.long	0                       
	.byte	0                       
	.byte	127                     

	.byte	0                       

	.byte	0
	.p2align	2

	.text
	.globl	_ZN3DES4sBoxERKNSt7__cxx1112basic_stringIcSt11char_traitsIcESaIcEEE 
	.p2align	1, 0x90
	.type	_ZN3DES4sBoxERKNSt7__cxx1112basic_stringIcSt11char_traitsIcESaIcEEE,@function
_ZN3DES4sBoxERKNSt7__cxx1112basic_stringIcSt11char_traitsIcESaIcEEE: 
.Lfunc_begin14:
	.cfi_startproc
	.cfi_personality 3, __gxx_personality_v0
	.cfi_lsda 3, .Lexception14

	push	rbp
.Lcfi179:
	.cfi_def_cfa_offset 16
	push	r15
.Lcfi180:
	.cfi_def_cfa_offset 24
	push	r14
.Lcfi181:
	.cfi_def_cfa_offset 32
	push	r13
.Lcfi182:
	.cfi_def_cfa_offset 40
	push	r12
.Lcfi183:
	.cfi_def_cfa_offset 48
	push	rbx
.Lcfi184:
	.cfi_def_cfa_offset 56
	sub	rsp, 136
.Lcfi185:
	.cfi_def_cfa_offset 192
.Lcfi186:
	.cfi_offset rbx, -56
.Lcfi187:
	.cfi_offset r12, -48
.Lcfi188:
	.cfi_offset r13, -40
.Lcfi189:
	.cfi_offset r14, -32
.Lcfi190:
	.cfi_offset r15, -24
.Lcfi191:
	.cfi_offset rbp, -16
	mov	qword ptr [rsp], rsi    
	mov	rbp, rdi
	movabs	r13, -7743165414549514017
	mov	r14, qword ptr [rbp + 336]
	add	rbp, 328
	mov	edi, .L.str.2
	call	_ZNSt11char_traitsIcE6lengthEPKc
	xor	r12d, r12d
	xor	esi, esi
	mov	ecx, .L.str.2
	mov	qword ptr [rsp + 16], rbp 
	mov	rdi, rbp
	mov	rdx, r14
	mov	r8, rax
	call	_ZNSt7__cxx1112basic_stringIcSt11char_traitsIcESaIcEE10_M_replaceEmmPKcm
	lea	rax, [rsp + 8]
	mov	qword ptr [rax], 0
	mov	r14, -1
	lea	r15, [rsp + 104]
	lea	rbx, [rsp + 72]
	mov	rax, r13
	not	rax
	mov	qword ptr [rsp + 32], rax 
	and	r13, -2
	mov	qword ptr [rsp + 24], r13 
.LBB25_1:                               
	mov	edx, .L.str.50
	mov	rbp, qword ptr [rsp]    
	mov	rdi, rbp
	mov	rsi, r12
	call	_ZNKSt7__cxx1112basic_stringIcSt11char_traitsIcESaIcEE8_M_checkEmPKc
	mov	ecx, 1
	mov	rdi, r15
	mov	rsi, rbp
	mov	rdx, rax
	call	_ZNSt7__cxx1112basic_stringIcSt11char_traitsIcESaIcEEC2ERKS4_mm
	lea	rsi, [r12 + 5]
.Ltmp233:
	mov	edx, .L.str.50
	mov	rdi, rbp
	call	_ZNKSt7__cxx1112basic_stringIcSt11char_traitsIcESaIcEE8_M_checkEmPKc
.Ltmp234:

.Ltmp235:
	mov	ecx, 1
	mov	rdi, rbx
	mov	rsi, rbp
	mov	rdx, rax
	call	_ZNSt7__cxx1112basic_stringIcSt11char_traitsIcESaIcEEC2ERKS4_mm
.Ltmp236:

.Ltmp238:
	lea	rbp, [rsp + 40]
	mov	rdi, rbp
	mov	rsi, r15
	mov	rdx, rbx
	call	_ZStplIcSt11char_traitsIcESaIcEENSt7__cxx1112basic_stringIT_T0_T1_EEOS8_S9_
.Ltmp239:

.Ltmp241:
	mov	rdi, rbp
	call	_ZN3DES7bin2decERKNSt7__cxx1112basic_stringIcSt11char_traitsIcESaIcEEE
	mov	r13d, eax
.Ltmp242:

.Ltmp253:
	mov	rdi, rbp
	call	_ZNSt7__cxx1112basic_stringIcSt11char_traitsIcESaIcEE10_M_disposeEv
.Ltmp254:

.Ltmp256:
	mov	rdi, rbx
	call	_ZNSt7__cxx1112basic_stringIcSt11char_traitsIcESaIcEE10_M_disposeEv
.Ltmp257:

.Ltmp259:
	mov	rdi, r15
	call	_ZNSt7__cxx1112basic_stringIcSt11char_traitsIcESaIcEE10_M_disposeEv
.Ltmp260:

	mov	rax, r14
	movabs	rcx, -7743165414549514017
	mov	rsi, rcx
	and	rax, rsi
	mov	ecx, r14d
	not	ecx
	mov	rdx, r12
	mov	rdi, qword ptr [rsp + 32] 
	and	rdx, rdi
	or	rdx, rax
	mov	eax, edi
	and	eax, 1
	add	rax, qword ptr [rsp + 24] 
	xor	rax, rdx

	or	esi, edi
	and	esi, ecx
	and	esi, 1
	or	rsi, rax
	mov	edx, .L.str.50
	mov	rbp, qword ptr [rsp]    
	mov	rdi, rbp
	call	_ZNKSt7__cxx1112basic_stringIcSt11char_traitsIcESaIcEE8_M_checkEmPKc
	mov	ecx, 4
	lea	rbx, [rsp + 40]
	mov	rdi, rbx
	mov	rsi, rbp
	mov	rdx, rax
	call	_ZNSt7__cxx1112basic_stringIcSt11char_traitsIcESaIcEEC2ERKS4_mm
.Ltmp262:
	mov	rdi, rbx
	call	_ZN3DES7bin2decERKNSt7__cxx1112basic_stringIcSt11char_traitsIcESaIcEEE
	mov	ebp, eax
.Ltmp263:

.Ltmp268:
	mov	rdi, rbx
	call	_ZNSt7__cxx1112basic_stringIcSt11char_traitsIcESaIcEE10_M_disposeEv
.Ltmp269:

	cmp	r12, 24
	jae	.LBB25_11

	cmp	r12, 12
	jae	.LBB25_27

	cmp	r12, 6
	jae	.LBB25_33

	test	r12, r12
	jne	.LBB25_46

	mov	ecx, _ZN3DES2s1E
	jmp	.LBB25_15
.LBB25_11:                              
	cmp	r12, 36
	jae	.LBB25_12

	cmp	r12, 30
	jae	.LBB25_22

	cmp	r12, 24
	jne	.LBB25_46

	mov	ecx, _ZN3DES2s5E
	jmp	.LBB25_15
.LBB25_27:                              
	cmp	r12, 18
	jae	.LBB25_28

	cmp	r12, 12
	jne	.LBB25_46

	mov	ecx, _ZN3DES2s3E
	jmp	.LBB25_15
.LBB25_12:                              
	cmp	r12, 42
	jae	.LBB25_13

	cmp	r12, 36
	jne	.LBB25_46

	mov	ecx, _ZN3DES2s7E
	jmp	.LBB25_15
.LBB25_33:                              
	jne	.LBB25_46

	mov	ecx, _ZN3DES2s2E
	jmp	.LBB25_15
.LBB25_22:                              
	jne	.LBB25_46

	mov	ecx, _ZN3DES2s6E
	jmp	.LBB25_15
.LBB25_28:                              
	jne	.LBB25_46

	mov	ecx, _ZN3DES2s4E
	jmp	.LBB25_15
.LBB25_13:                              
	jne	.LBB25_46

	mov	ecx, _ZN3DES2s8E
.LBB25_15:                              
	movsxd	rax, r13d
	movsxd	rdx, ebp
	shl	rax, 6
	add	rax, rcx
	mov	eax, dword ptr [rax + 4*rdx]
	mov	ecx, eax
	xor	ecx, -16
	and	ecx, eax
	mov	qword ptr [rsp + 8], rcx
	lea	rbp, [rsp + 40]
	mov	rdi, rbp
	lea	rsi, [rsp + 8]
	call	_ZNKSt6bitsetILm4EE9to_stringB5cxx11Ev
.Ltmp271:
	mov	rdi, qword ptr [rsp + 16] 
	mov	rsi, rbp
	call	_ZNSt7__cxx1112basic_stringIcSt11char_traitsIcESaIcEE6appendERKS4_
.Ltmp272:

.Ltmp277:
	mov	rdi, rbp
	call	_ZNSt7__cxx1112basic_stringIcSt11char_traitsIcESaIcEE10_M_disposeEv
.Ltmp278:

	movabs	rax, -372074489431959153
	lea	r12, [r12 + rax + 6]
	sub	r12, rax
	add	r14, -6
	lea	rax, [r12 - 6]
	cmp	rax, 42
	lea	r15, [rsp + 104]
	lea	rbx, [rsp + 72]
	jb	.LBB25_1

	add	rsp, 136
	pop	rbx
	pop	r12
	pop	r13
	pop	r14
	pop	r15
	pop	rbp
	ret
.LBB25_46:
	mov	edi, _ZSt4cout
	mov	esi, .L.str.3
	call	_ZStlsISt11char_traitsIcEERSt13basic_ostreamIcT_ES5_PKc
	mov	rdi, rax
	call	_ZSt4endlIcSt11char_traitsIcEERSt13basic_ostreamIT_T0_ES6_
	xor	edi, edi
	call	exit
.LBB25_47:
.Ltmp279:
	mov	rdi, rax
	call	__cxa_call_unexpected
.LBB25_49:
.Ltmp273:
	mov	rbx, rax
.Ltmp274:
	lea	rdi, [rsp + 40]
	call	_ZNSt7__cxx1112basic_stringIcSt11char_traitsIcESaIcEE10_M_disposeEv
.Ltmp275:
	jmp	.LBB25_50
.LBB25_48:
.Ltmp276:
	mov	rdi, rax
	call	__cxa_call_unexpected
.LBB25_54:
.Ltmp270:
	mov	rdi, rax
	call	__cxa_call_unexpected
.LBB25_45:
.Ltmp264:
	mov	rbx, rax
.Ltmp265:
	lea	rdi, [rsp + 40]
	call	_ZNSt7__cxx1112basic_stringIcSt11char_traitsIcESaIcEE10_M_disposeEv
.Ltmp266:
	jmp	.LBB25_50
.LBB25_44:
.Ltmp267:
	mov	rdi, rax
	call	__cxa_call_unexpected
.LBB25_53:
.Ltmp261:
	mov	rdi, rax
	call	__cxa_call_unexpected
.LBB25_52:
.Ltmp258:
	mov	rdi, rax
	call	__cxa_call_unexpected
.LBB25_51:
.Ltmp255:
	mov	rdi, rax
	call	__cxa_call_unexpected
.LBB25_37:
.Ltmp243:
	mov	rbx, rax
.Ltmp244:
	lea	rdi, [rsp + 40]
	call	_ZNSt7__cxx1112basic_stringIcSt11char_traitsIcESaIcEE10_M_disposeEv
.Ltmp245:
	jmp	.LBB25_40
.LBB25_38:
.Ltmp246:
	mov	rdi, rax
	call	__cxa_call_unexpected
.LBB25_39:
.Ltmp240:
	mov	rbx, rax
.LBB25_40:
.Ltmp247:
	lea	rdi, [rsp + 72]
	call	_ZNSt7__cxx1112basic_stringIcSt11char_traitsIcESaIcEE10_M_disposeEv
.Ltmp248:
	jmp	.LBB25_43
.LBB25_41:
.Ltmp249:
	mov	rdi, rax
	call	__cxa_call_unexpected
.LBB25_42:
.Ltmp237:
	mov	rbx, rax
.LBB25_43:
.Ltmp250:
	lea	rdi, [rsp + 104]
	call	_ZNSt7__cxx1112basic_stringIcSt11char_traitsIcESaIcEE10_M_disposeEv
.Ltmp251:
.LBB25_50:
	mov	rdi, rbx
	call	_Unwind_Resume
.LBB25_55:
.Ltmp252:
	mov	rdi, rax
	call	__cxa_call_unexpected
.Lfunc_end25:
	.size	_ZN3DES4sBoxERKNSt7__cxx1112basic_stringIcSt11char_traitsIcESaIcEEE, .Lfunc_end25-_ZN3DES4sBoxERKNSt7__cxx1112basic_stringIcSt11char_traitsIcESaIcEEE
	.cfi_endproc
	.section	.gcc_except_table,"a",@progbits
	.p2align	2
GCC_except_table25:
.Lexception14:
	.byte	255                     
	.byte	3                       
	.asciz	"\275\202\200\200"      
	.byte	3                       
	.ascii	"\270\002"              
	.long	.Lfunc_begin14-.Lfunc_begin14 
	.long	.Ltmp233-.Lfunc_begin14 
	.long	0                       
	.byte	0                       
	.long	.Ltmp233-.Lfunc_begin14 
	.long	.Ltmp236-.Ltmp233       
	.long	.Ltmp237-.Lfunc_begin14 
	.byte	0                       
	.long	.Ltmp238-.Lfunc_begin14 
	.long	.Ltmp239-.Ltmp238       
	.long	.Ltmp240-.Lfunc_begin14 
	.byte	0                       
	.long	.Ltmp241-.Lfunc_begin14 
	.long	.Ltmp242-.Ltmp241       
	.long	.Ltmp243-.Lfunc_begin14 
	.byte	0                       
	.long	.Ltmp253-.Lfunc_begin14 
	.long	.Ltmp254-.Ltmp253       
	.long	.Ltmp255-.Lfunc_begin14 
	.byte	1                       
	.long	.Ltmp256-.Lfunc_begin14 
	.long	.Ltmp257-.Ltmp256       
	.long	.Ltmp258-.Lfunc_begin14 
	.byte	1                       
	.long	.Ltmp259-.Lfunc_begin14 
	.long	.Ltmp260-.Ltmp259       
	.long	.Ltmp261-.Lfunc_begin14 
	.byte	1                       
	.long	.Ltmp260-.Lfunc_begin14 
	.long	.Ltmp262-.Ltmp260       
	.long	0                       
	.byte	0                       
	.long	.Ltmp262-.Lfunc_begin14 
	.long	.Ltmp263-.Ltmp262       
	.long	.Ltmp264-.Lfunc_begin14 
	.byte	0                       
	.long	.Ltmp268-.Lfunc_begin14 
	.long	.Ltmp269-.Ltmp268       
	.long	.Ltmp270-.Lfunc_begin14 
	.byte	1                       
	.long	.Ltmp269-.Lfunc_begin14 
	.long	.Ltmp271-.Ltmp269       
	.long	0                       
	.byte	0                       
	.long	.Ltmp271-.Lfunc_begin14 
	.long	.Ltmp272-.Ltmp271       
	.long	.Ltmp273-.Lfunc_begin14 
	.byte	0                       
	.long	.Ltmp277-.Lfunc_begin14 
	.long	.Ltmp278-.Ltmp277       
	.long	.Ltmp279-.Lfunc_begin14 
	.byte	1                       
	.long	.Ltmp278-.Lfunc_begin14 
	.long	.Ltmp274-.Ltmp278       
	.long	0                       
	.byte	0                       
	.long	.Ltmp274-.Lfunc_begin14 
	.long	.Ltmp275-.Ltmp274       
	.long	.Ltmp276-.Lfunc_begin14 
	.byte	1                       
	.long	.Ltmp275-.Lfunc_begin14 
	.long	.Ltmp265-.Ltmp275       
	.long	0                       
	.byte	0                       
	.long	.Ltmp265-.Lfunc_begin14 
	.long	.Ltmp266-.Ltmp265       
	.long	.Ltmp267-.Lfunc_begin14 
	.byte	1                       
	.long	.Ltmp266-.Lfunc_begin14 
	.long	.Ltmp244-.Ltmp266       
	.long	0                       
	.byte	0                       
	.long	.Ltmp244-.Lfunc_begin14 
	.long	.Ltmp245-.Ltmp244       
	.long	.Ltmp246-.Lfunc_begin14 
	.byte	1                       
	.long	.Ltmp245-.Lfunc_begin14 
	.long	.Ltmp247-.Ltmp245       
	.long	0                       
	.byte	0                       
	.long	.Ltmp247-.Lfunc_begin14 
	.long	.Ltmp248-.Ltmp247       
	.long	.Ltmp249-.Lfunc_begin14 
	.byte	1                       
	.long	.Ltmp248-.Lfunc_begin14 
	.long	.Ltmp250-.Ltmp248       
	.long	0                       
	.byte	0                       
	.long	.Ltmp250-.Lfunc_begin14 
	.long	.Ltmp251-.Ltmp250       
	.long	.Ltmp252-.Lfunc_begin14 
	.byte	1                       
	.long	.Ltmp251-.Lfunc_begin14 
	.long	.Lfunc_end25-.Ltmp251   
	.long	0                       
	.byte	0                       
	.byte	127                     

	.byte	0                       

	.byte	0
	.p2align	2

	.text
	.globl	_ZN3DES7bin2decERKNSt7__cxx1112basic_stringIcSt11char_traitsIcESaIcEEE 
	.p2align	1, 0x90
	.type	_ZN3DES7bin2decERKNSt7__cxx1112basic_stringIcSt11char_traitsIcESaIcEEE,@function
_ZN3DES7bin2decERKNSt7__cxx1112basic_stringIcSt11char_traitsIcESaIcEEE: 
	.cfi_startproc

	push	rbp
.Lcfi192:
	.cfi_def_cfa_offset 16
	push	r15
.Lcfi193:
	.cfi_def_cfa_offset 24
	push	r14
.Lcfi194:
	.cfi_def_cfa_offset 32
	push	r13
.Lcfi195:
	.cfi_def_cfa_offset 40
	push	r12
.Lcfi196:
	.cfi_def_cfa_offset 48
	push	rbx
.Lcfi197:
	.cfi_def_cfa_offset 56
	sub	rsp, 72
.Lcfi198:
	.cfi_def_cfa_offset 128
.Lcfi199:
	.cfi_offset rbx, -56
.Lcfi200:
	.cfi_offset r12, -48
.Lcfi201:
	.cfi_offset r13, -40
.Lcfi202:
	.cfi_offset r14, -32
.Lcfi203:
	.cfi_offset r15, -24
.Lcfi204:
	.cfi_offset rbp, -16
	mov	r12, rdi
	lea	rcx, [rsp + 8]
	mov	qword ptr [rsp + 32], rcx
	mov	rax, qword ptr [rsp + 32]
	mov	rax, qword ptr [r12]
	add	rax, qword ptr [r12 + 8]
	mov	qword ptr [rcx], rax
	mov	eax, -929122606
	mov	dword ptr [rsp + 20], 0 
	mov	r14d, -1
	lea	r15, [rsp + 24]

	jmp	.LBB26_1
.LBB26_17:                              
	mov	rax, qword ptr [rsp + 8]
	mov	qword ptr [rsp + 24], rax
	mov	rdi, r15
	call	_ZN9__gnu_cxx17__normal_iteratorIPKcNSt7__cxx1112basic_stringIcSt11char_traitsIcESaIcEEEEmmEv
	mov	rax, qword ptr [rax]
	cmp	byte ptr [rax], 49
	mov	eax, 1991716732
	mov	ecx, 1869734751
	cmove	eax, ecx
	mov	r13d, dword ptr [rsp + 4]
	jmp	.LBB26_1
.LBB26_16:                              
	mov	eax, dword ptr [rip + x.140]
	mov	ecx, dword ptr [rip + y.141]
	lea	edx, [rax - 1]
	imul	edx, eax
	not	edx
	or	edx, -2
	mov	ebp, -1
	cmp	edx, ebp
	sete	al
	cmp	ecx, 10
	setl	bl
	xor	bl, al
	mov	esi, 888242929
	mov	edi, 1811306656
	cmovne	esi, edi
	mov	r14d, -1
	cmp	edx, ebp
	mov	eax, esi
	cmove	eax, edi
	cmp	ecx, 10
	mov	ecx, dword ptr [rsp + 20] 
	mov	dword ptr [rsp + 4], ecx
	cmovge	eax, esi
	jmp	.LBB26_1
.LBB26_18:                              
	mov	rax, qword ptr [r12]
	add	rax, qword ptr [r12 + 8]
	mov	qword ptr [rsp + 40], rax
	lea	rbx, [rsp + 48]
	mov	rdi, rbx
	lea	rsi, [rsp + 8]
	call	_ZNSt16reverse_iteratorIN9__gnu_cxx17__normal_iteratorIPKcNSt7__cxx1112basic_stringIcSt11char_traitsIcESaIcEEEEEEC2ERKSB_
	lea	r13, [rsp + 64]
	mov	rdi, r13
	lea	rsi, [rsp + 40]
	call	_ZNSt16reverse_iteratorIN9__gnu_cxx17__normal_iteratorIPKcNSt7__cxx1112basic_stringIcSt11char_traitsIcESaIcEEEEEEC2ERKSB_
	lea	rbp, [rsp + 56]
	mov	rdi, rbp
	mov	rsi, rbx
	call	_ZNSt16reverse_iteratorIN9__gnu_cxx17__normal_iteratorIPKcNSt7__cxx1112basic_stringIcSt11char_traitsIcESaIcEEEEEEC2ERKSB_
	mov	eax, dword ptr [rip + x.244]
	mov	ecx, dword ptr [rip + y.245]
	mov	edx, eax
	neg	edx
	not	edx
	imul	edx, eax
	mov	eax, edx
	xor	eax, -2
	test	eax, edx
	sete	byte ptr [rsp + 2]
	cmp	ecx, 10
	setl	byte ptr [rsp + 3]
	mov	eax, -1822614888
	jmp	.LBB26_19
.LBB26_24:                              
	cmp	eax, 1570122097
	jne	.LBB26_19

	mov	rdi, rbp
	mov	rsi, r13
	call	_ZStmiIN9__gnu_cxx17__normal_iteratorIPKcNSt7__cxx1112basic_stringIcSt11char_traitsIcESaIcEEEEESA_EDTmicldtfp0_4baseEcldtfp_4baseEERKSt16reverse_iteratorIT_ERKSC_IT0_E
	mov	qword ptr [rsp + 24], rax
	mov	eax, dword ptr [rip + x.244]
	mov	ecx, eax
	neg	ecx
	not	ecx
	imul	ecx, eax
	not	ecx
	or	ecx, -2
	cmp	ecx, r14d
	sete	cl
	mov	eax, -488764570
	mov	edi, 889833333
	cmove	eax, edi
	cmp	dword ptr [rip + y.245], 10
	setl	dl
	mov	esi, -488764570
	cmovge	eax, esi
	xor	dl, cl
	cmovne	eax, edi
	jmp	.LBB26_19
.LBB26_28:                              
	mov	cl, byte ptr [rsp + 2]
	mov	al, byte ptr [rsp + 3]
	mov	edx, ecx
	xor	dl, al
	test	al, al
	mov	eax, -488764570
	mov	esi, 1570122097
	cmovne	eax, esi
	test	cl, cl
	mov	ecx, -488764570
	cmove	eax, ecx
	test	dl, dl
	cmovne	eax, esi
.LBB26_19:                              

	cmp	eax, 889833332
	jg	.LBB26_23

	cmp	eax, -1822614888
	je	.LBB26_28

	cmp	eax, -488764570
	jne	.LBB26_19

	mov	rdi, rbp
	mov	rsi, r13
	call	_ZStmiIN9__gnu_cxx17__normal_iteratorIPKcNSt7__cxx1112basic_stringIcSt11char_traitsIcESaIcEEEEESA_EDTmicldtfp0_4baseEcldtfp_4baseEERKSt16reverse_iteratorIT_ERKSC_IT0_E
	mov	eax, 1570122097
	jmp	.LBB26_19
.LBB26_23:                              
	cmp	eax, 889833333
	jne	.LBB26_24

	xorps	xmm0, xmm0
	cvtsi2sd	xmm0, qword ptr [rsp + 24]
	call	exp2
	xorps	xmm1, xmm1
	cvtsi2sd	xmm1, dword ptr [rsp + 4]
	addsd	xmm1, xmm0
	cvttsd2si	r13d, xmm1
	mov	eax, 1991716732
	jmp	.LBB26_1
.LBB26_27:                              
	mov	rdi, r15
	mov	rsi, r12
	call	_ZNKSt7__cxx1112basic_stringIcSt11char_traitsIcESaIcEE4rendEv
	lea	rdi, [rsp + 8]
	mov	rsi, r15
	call	_ZStltIN9__gnu_cxx17__normal_iteratorIPKcNSt7__cxx1112basic_stringIcSt11char_traitsIcESaIcEEEEEEbRKSt16reverse_iteratorIT_ESF_
	mov	eax, 1811306656
.LBB26_1:                               

	cmp	eax, 1764159448
	jle	.LBB26_2

	cmp	eax, 1869734750
	jg	.LBB26_13

	cmp	eax, 1764159449
	je	.LBB26_17

	cmp	eax, 1811306656
	jne	.LBB26_1

	mov	rdi, r15
	mov	rsi, r12
	call	_ZNKSt7__cxx1112basic_stringIcSt11char_traitsIcESaIcEE4rendEv
	lea	rdi, [rsp + 8]
	mov	rsi, r15
	call	_ZStltIN9__gnu_cxx17__normal_iteratorIPKcNSt7__cxx1112basic_stringIcSt11char_traitsIcESaIcEEEEEEbRKSt16reverse_iteratorIT_ESF_
	mov	byte ptr [rsp + 1], al
	mov	eax, dword ptr [rip + x.140]
	mov	ecx, dword ptr [rip + y.141]
	lea	edx, [rax - 1]
	imul	edx, eax
	not	edx
	or	edx, -2
	mov	ebp, -1
	cmp	edx, ebp
	sete	al
	cmp	ecx, 10
	setl	bl
	xor	bl, al
	mov	esi, 888242929
	mov	edi, -820775091
	cmovne	esi, edi
	mov	r14d, -1
	cmp	edx, ebp
	mov	eax, esi
	cmove	eax, edi
	cmp	ecx, 10
	cmovge	eax, esi
	jmp	.LBB26_1
.LBB26_2:                               
	cmp	eax, -244833706
	jg	.LBB26_6

	cmp	eax, -929122606
	je	.LBB26_16

	cmp	eax, -820775091
	jne	.LBB26_1

	mov	al, byte ptr [rsp + 1]
	test	al, al
	mov	eax, -244833705
	mov	ecx, 1764159449
	cmovne	eax, ecx
	jmp	.LBB26_1
.LBB26_13:                              
	cmp	eax, 1869734751
	je	.LBB26_18

	cmp	eax, 1991716732
	jne	.LBB26_1

	mov	rdi, r15
	lea	rbx, [rsp + 8]
	mov	rsi, rbx
	call	_ZNSt16reverse_iteratorIN9__gnu_cxx17__normal_iteratorIPKcNSt7__cxx1112basic_stringIcSt11char_traitsIcESaIcEEEEEEC2ERKSB_
	mov	rdi, rbx
	call	_ZN9__gnu_cxx17__normal_iteratorIPKcNSt7__cxx1112basic_stringIcSt11char_traitsIcESaIcEEEEmmEv
	mov	dword ptr [rsp + 20], r13d 
	mov	eax, -929122606
	jmp	.LBB26_1
.LBB26_6:                               
	cmp	eax, 888242929
	je	.LBB26_27

	cmp	eax, -244833705
	jne	.LBB26_1

	mov	rax, qword ptr [rsp + 32]
	mov	eax, dword ptr [rsp + 4]
	add	rsp, 72
	pop	rbx
	pop	r12
	pop	r13
	pop	r14
	pop	r15
	pop	rbp
	ret
.Lfunc_end26:
	.size	_ZN3DES7bin2decERKNSt7__cxx1112basic_stringIcSt11char_traitsIcESaIcEEE, .Lfunc_end26-_ZN3DES7bin2decERKNSt7__cxx1112basic_stringIcSt11char_traitsIcESaIcEEE
	.cfi_endproc

	.section	.text._ZStplIcSt11char_traitsIcESaIcEENSt7__cxx1112basic_stringIT_T0_T1_EEOS8_S9_,"axG",@progbits,_ZStplIcSt11char_traitsIcESaIcEENSt7__cxx1112basic_stringIT_T0_T1_EEOS8_S9_,comdat
	.weak	_ZStplIcSt11char_traitsIcESaIcEENSt7__cxx1112basic_stringIT_T0_T1_EEOS8_S9_ 
	.type	_ZStplIcSt11char_traitsIcESaIcEENSt7__cxx1112basic_stringIT_T0_T1_EEOS8_S9_,@function
_ZStplIcSt11char_traitsIcESaIcEENSt7__cxx1112basic_stringIT_T0_T1_EEOS8_S9_: 
	.cfi_startproc

	push	rbp
.Lcfi205:
	.cfi_def_cfa_offset 16
	push	r15
.Lcfi206:
	.cfi_def_cfa_offset 24
	push	r14
.Lcfi207:
	.cfi_def_cfa_offset 32
	push	r13
.Lcfi208:
	.cfi_def_cfa_offset 40
	push	r12
.Lcfi209:
	.cfi_def_cfa_offset 48
	push	rbx
.Lcfi210:
	.cfi_def_cfa_offset 56
	sub	rsp, 24
.Lcfi211:
	.cfi_def_cfa_offset 80
.Lcfi212:
	.cfi_offset rbx, -56
.Lcfi213:
	.cfi_offset r12, -48
.Lcfi214:
	.cfi_offset r13, -40
.Lcfi215:
	.cfi_offset r14, -32
.Lcfi216:
	.cfi_offset r15, -24
.Lcfi217:
	.cfi_offset rbp, -16
	mov	r15, rdx
	mov	r14, rsi
	mov	qword ptr [rsp + 16], rdi 
	movabs	r13, -963812160038278503
	mov	eax, dword ptr [rip + x.142]
	mov	ecx, dword ptr [rip + y.143]
	lea	edx, [rax - 1]
	imul	edx, eax
	not	edx
	or	edx, -2
	mov	eax, -1
	cmp	edx, eax
	sete	byte ptr [rsp + 5]
	cmp	ecx, 10
	setl	byte ptr [rsp + 6]
	mov	eax, -1375420137


	jmp	.LBB27_1
.LBB27_36:                              
	mov	rdi, r14
	call	_ZNKSt7__cxx1112basic_stringIcSt11char_traitsIcESaIcEE8capacityEv
	mov	eax, -1180242303
	jmp	.LBB27_1
.LBB27_34:                              
	mov	rdi, r14
	mov	rsi, r15
	call	_ZNSt7__cxx1112basic_stringIcSt11char_traitsIcESaIcEE6appendERKS4_
.LBB27_35:                              
	mov	r12, rax
	mov	eax, -941887974
	jmp	.LBB27_1
.LBB27_37:                              
	mov	al, byte ptr [rsp + 4]
	mov	eax, 1930096045
	jmp	.LBB27_1
.LBB27_31:                              
	mov	eax, ebp
	and	al, 1
	mov	byte ptr [rsp + 4], al
	mov	eax, dword ptr [rip + x.142]
	mov	ecx, dword ptr [rip + y.143]
	lea	edx, [rax - 1]
	imul	edx, eax
	not	edx
	or	edx, -2
	mov	eax, -1
	cmp	edx, eax
	sete	bl
	mov	eax, 1930096045
	mov	edx, -2092674695
	mov	esi, 1930096045
	je	.LBB27_23
.LBB27_22:                              
	mov	esi, -2092674695
	jmp	.LBB27_23
.LBB27_30:                              
	mov	rdi, r15
	call	_ZNKSt7__cxx1112basic_stringIcSt11char_traitsIcESaIcEE8capacityEv
	mov	rcx, qword ptr [rsp + 8]
	cmp	rcx, rax
	setbe	bpl
	mov	eax, -2048547620
	jmp	.LBB27_1
.LBB27_32:                              
	mov	al, byte ptr [rsp + 4]
	test	al, al
	mov	eax, 1376993385
	jne	.LBB27_1

	mov	eax, 1227342857
	jmp	.LBB27_1
.LBB27_25:                              
	mov	rax, qword ptr [r15 + 8]
	sub	rax, r13
	add	rax, qword ptr [r14 + 8]
	add	rax, r13
	mov	qword ptr [rsp + 8], rax
	mov	rdi, r14
	call	_ZNKSt7__cxx1112basic_stringIcSt11char_traitsIcESaIcEE8capacityEv
	mov	rcx, qword ptr [rsp + 8]
	cmp	rcx, rax
	seta	byte ptr [rsp + 7]
	mov	eax, dword ptr [rip + x.142]
	mov	ecx, dword ptr [rip + y.143]
	lea	edx, [rax - 1]
	imul	edx, eax
	mov	eax, edx
	xor	eax, -2
	and	eax, edx
	sete	bl
	test	eax, eax
	mov	eax, -517453722
	mov	edx, 17529550
	mov	esi, -517453722
	je	.LBB27_23

	mov	esi, 17529550
.LBB27_23:                              
	cmp	ecx, 10
	setl	cl
	cmovl	edx, esi
	xor	cl, bl
	jne	.LBB27_1

	mov	eax, edx
	jmp	.LBB27_1
.LBB27_27:                              
	mov	al, byte ptr [rsp + 7]
	test	al, al
	mov	eax, 1392540748
	jne	.LBB27_29

	mov	eax, -2048547620
.LBB27_29:                              
	xor	ebp, ebp
.LBB27_1:                               
	cmp	eax, 17529549
	jle	.LBB27_2

	cmp	eax, 1392540747
	jg	.LBB27_18

	cmp	eax, 17529550
	je	.LBB27_36

	cmp	eax, 1227342857
	je	.LBB27_34

	cmp	eax, 1376993385
	jne	.LBB27_1

	mov	rcx, qword ptr [r14]
	mov	r8, qword ptr [r14 + 8]
	xor	esi, esi
	xor	edx, edx
	mov	rdi, r15
	call	_ZNSt7__cxx1112basic_stringIcSt11char_traitsIcESaIcEE7replaceEmmPKcm
	jmp	.LBB27_35
.LBB27_2:                               
	cmp	eax, -1180242304
	jg	.LBB27_9

	cmp	eax, -2092674695
	je	.LBB27_37

	cmp	eax, -2048547620
	je	.LBB27_31

	cmp	eax, -1375420137
	jne	.LBB27_1

	mov	dl, byte ptr [rsp + 5]
	mov	al, byte ptr [rsp + 6]
	mov	ecx, edx
	xor	cl, al
	test	al, al
	mov	esi, -1180242303
	mov	eax, 17529550
	mov	edi, -1180242303
	jne	.LBB27_8

	mov	edi, 17529550
.LBB27_8:                               
	test	dl, dl
	cmovne	eax, edi
	test	cl, cl
	cmovne	eax, esi
	jmp	.LBB27_1
.LBB27_18:                              
	cmp	eax, 1392540748
	je	.LBB27_30

	cmp	eax, 1927535393
	je	.LBB27_32

	cmp	eax, 1930096045
	jne	.LBB27_1

	mov	al, byte ptr [rsp + 4]
	mov	eax, dword ptr [rip + x.142]
	mov	ecx, dword ptr [rip + y.143]
	mov	edx, eax
	neg	edx
	not	edx
	imul	edx, eax
	mov	eax, edx
	xor	eax, -2
	and	eax, edx
	sete	bl
	test	eax, eax
	mov	eax, 1927535393
	mov	edx, -2092674695
	mov	esi, 1927535393
	jne	.LBB27_22
	jmp	.LBB27_23
.LBB27_9:                               
	cmp	eax, -1180242303
	je	.LBB27_25

	cmp	eax, -517453722
	je	.LBB27_27

	cmp	eax, -941887974
	jne	.LBB27_1

	mov	rbx, qword ptr [rsp + 16] 
	mov	rdi, rbx
	mov	rsi, r12
	call	_ZNSt7__cxx1112basic_stringIcSt11char_traitsIcESaIcEEC2EOS4_
	mov	rax, rbx
	add	rsp, 24
	pop	rbx
	pop	r12
	pop	r13
	pop	r14
	pop	r15
	pop	rbp
	ret
.Lfunc_end27:
	.size	_ZStplIcSt11char_traitsIcESaIcEENSt7__cxx1112basic_stringIT_T0_T1_EEOS8_S9_, .Lfunc_end27-_ZStplIcSt11char_traitsIcESaIcEENSt7__cxx1112basic_stringIT_T0_T1_EEOS8_S9_
	.cfi_endproc

	.section	.text._ZNKSt6bitsetILm4EE9to_stringB5cxx11Ev,"axG",@progbits,_ZNKSt6bitsetILm4EE9to_stringB5cxx11Ev,comdat
	.weak	_ZNKSt6bitsetILm4EE9to_stringB5cxx11Ev 
	.p2align	1, 0x90
	.type	_ZNKSt6bitsetILm4EE9to_stringB5cxx11Ev,@function
_ZNKSt6bitsetILm4EE9to_stringB5cxx11Ev: 
	.cfi_startproc

	push	rbp
.Lcfi218:
	.cfi_def_cfa_offset 16
	push	r15
.Lcfi219:
	.cfi_def_cfa_offset 24
	push	r14
.Lcfi220:
	.cfi_def_cfa_offset 32
	push	r13
.Lcfi221:
	.cfi_def_cfa_offset 40
	push	r12
.Lcfi222:
	.cfi_def_cfa_offset 48
	push	rbx
.Lcfi223:
	.cfi_def_cfa_offset 56
	push	rax
.Lcfi224:
	.cfi_def_cfa_offset 64
.Lcfi225:
	.cfi_offset rbx, -56
.Lcfi226:
	.cfi_offset r12, -48
.Lcfi227:
	.cfi_offset r13, -40
.Lcfi228:
	.cfi_offset r14, -32
.Lcfi229:
	.cfi_offset r15, -24
.Lcfi230:
	.cfi_offset rbp, -16
	mov	r14, rsi
	mov	rbp, rdi
	mov	eax, dword ptr [rip + x.146]
	lea	ecx, [rax - 1]
	imul	ecx, eax
	mov	eax, ecx
	xor	eax, -2
	test	eax, ecx
	sete	byte ptr [rsp + 6]
	mov	eax, dword ptr [rip + y.147]
	cmp	eax, 10
	setl	byte ptr [rsp + 7]
	mov	eax, 1149335917
	mov	r15d, -1
	mov	r12d, -1897378432
	mov	r13d, 1662399771
	jmp	.LBB28_1
.LBB28_3:                               
	cmp	eax, -1455782719
	jne	.LBB28_1

	mov	rdi, rbp
	mov	rsi, r14
	call	_ZNKSt6bitsetILm4EE9to_stringIcSt11char_traitsIcESaIcEEENSt7__cxx1112basic_stringIT_T0_T1_EEv
	mov	eax, 1662399771
	jmp	.LBB28_1
.LBB28_5:                               
	cmp	eax, 1662399771
	je	.LBB28_8

	cmp	eax, 1149335917
	jne	.LBB28_1

	mov	cl, byte ptr [rsp + 6]
	mov	al, byte ptr [rsp + 7]
	mov	edx, ecx
	xor	dl, al
	mov	edx, -1455782719
	cmovne	edx, r13d
	test	al, al
	mov	eax, edx
	cmovne	eax, r13d
	test	cl, cl
	cmove	eax, edx
	jmp	.LBB28_1
.LBB28_8:                               
	mov	rdi, rbp
	mov	rsi, r14
	call	_ZNKSt6bitsetILm4EE9to_stringIcSt11char_traitsIcESaIcEEENSt7__cxx1112basic_stringIT_T0_T1_EEv
	mov	eax, dword ptr [rip + x.146]
	mov	ecx, dword ptr [rip + y.147]
	lea	edx, [rax - 1]
	imul	edx, eax
	not	edx
	or	edx, -2
	cmp	edx, r15d
	sete	al
	cmp	ecx, 10
	setl	bl
	xor	bl, al
	mov	esi, -1455782719
	cmovne	esi, r12d
	cmp	edx, r15d
	mov	eax, esi
	cmove	eax, r12d
	cmp	ecx, 10
	cmovge	eax, esi
.LBB28_1:                               
	cmp	eax, 1149335916
	jg	.LBB28_5

	cmp	eax, -1897378432
	jne	.LBB28_3

	mov	rax, rbp
	add	rsp, 8
	pop	rbx
	pop	r12
	pop	r13
	pop	r14
	pop	r15
	pop	rbp
	ret
.Lfunc_end28:
	.size	_ZNKSt6bitsetILm4EE9to_stringB5cxx11Ev, .Lfunc_end28-_ZNKSt6bitsetILm4EE9to_stringB5cxx11Ev
	.cfi_endproc

	.text
	.globl	_ZN3DES13straightPermuERKNSt7__cxx1112basic_stringIcSt11char_traitsIcESaIcEEE 
	.p2align	1, 0x90
	.type	_ZN3DES13straightPermuERKNSt7__cxx1112basic_stringIcSt11char_traitsIcESaIcEEE,@function
_ZN3DES13straightPermuERKNSt7__cxx1112basic_stringIcSt11char_traitsIcESaIcEEE: 
.Lfunc_begin15:
	.cfi_startproc
	.cfi_personality 3, __gxx_personality_v0
	.cfi_lsda 3, .Lexception15

	push	rbp
.Lcfi231:
	.cfi_def_cfa_offset 16
	push	r15
.Lcfi232:
	.cfi_def_cfa_offset 24
	push	r14
.Lcfi233:
	.cfi_def_cfa_offset 32
	push	r13
.Lcfi234:
	.cfi_def_cfa_offset 40
	push	r12
.Lcfi235:
	.cfi_def_cfa_offset 48
	push	rbx
.Lcfi236:
	.cfi_def_cfa_offset 56
	sub	rsp, 136
.Lcfi237:
	.cfi_def_cfa_offset 192
.Lcfi238:
	.cfi_offset rbx, -56
.Lcfi239:
	.cfi_offset r12, -48
.Lcfi240:
	.cfi_offset r13, -40
.Lcfi241:
	.cfi_offset r14, -32
.Lcfi242:
	.cfi_offset r15, -24
.Lcfi243:
	.cfi_offset rbp, -16
	mov	r15, rdi
	movabs	rcx, -3628138539935182433
	lea	rax, [rsp + 128]
	mov	qword ptr [rsp + 88], rax
	lea	r12, [rsp + 80]
	mov	qword ptr [rsp + 24], r12
	mov	rax, qword ptr [rsp + 24]
	mov	qword ptr [r12], 0
	lea	r14, [rsp + 16]
	mov	qword ptr [rsp + 64], r14
	mov	rax, qword ptr [rsp + 64]
	mov	qword ptr [rsp + 56], rsi 
	mov	rax, qword ptr [rsi]
	mov	qword ptr [rsp + 48], rax 
	add	r15, 424
	mov	eax, 1029784154
	lea	r13, [rsp + 96]
	mov	edx, 31
	sub	edx, ecx
	mov	dword ptr [rsp + 36], edx 
	mov	qword ptr [rsp + 40], r14 
	mov	qword ptr [rsp + 72], r15 
	jmp	.LBB29_1
.LBB29_40:                              
	xor	esi, esi
	mov	rdi, r14
	call	_ZN9__gnu_cxx17__normal_iteratorIPKcNSt7__cxx1112basic_stringIcSt11char_traitsIcESaIcEEEEppEi
	mov	qword ptr [rsp + 48], rax 
	mov	rax, qword ptr [rsp + 88]
	mov	qword ptr [rsp + 40], rax 
	mov	eax, 1029784154
	jmp	.LBB29_1
.LBB29_18:                              
	mov	rax, qword ptr [rsp + 48] 
	mov	rcx, qword ptr [rsp + 40] 
	mov	qword ptr [rcx], rax
	mov	rcx, qword ptr [rsp + 56] 
	mov	rax, qword ptr [rcx]
	add	rax, qword ptr [rcx + 8]
	mov	qword ptr [rsp + 96], rax
	mov	eax, dword ptr [rip + x.86]
	mov	ecx, dword ptr [rip + y.87]
	mov	edx, eax
	neg	edx
	not	edx
	imul	edx, eax
	mov	eax, edx
	xor	eax, -2
	test	eax, edx
	sete	byte ptr [rsp + 14]
	cmp	ecx, 10
	setl	byte ptr [rsp + 15]
	mov	ecx, -1477871261
	jmp	.LBB29_19
.LBB29_29:                              
	mov	rax, qword ptr [rsp + 16]
	cmp	byte ptr [rax], 49
	mov	eax, -1774587406
	mov	ecx, 2000600182
	cmove	eax, ecx
	jmp	.LBB29_1
.LBB29_30:                              
	mov	edi, _ZN3DES24straightPermutationTableE
	call	_ZNKSt5arrayIiLm32EE4dataEv
	mov	r12, rax
	mov	edi, _ZN3DES24straightPermutationTableE
	call	_ZNKSt5arrayIiLm32EE4dataEv
	mov	r14, rax
	mov	edi, _ZN3DES24straightPermutationTableE
	call	_ZNKSt5arrayIiLm32EE3endEv
	mov	r15, rax
	mov	rax, qword ptr [rsp + 56] 
	mov	rdi, qword ptr [rax]
	mov	rsi, qword ptr [rsp + 16]
	mov	eax, dword ptr [rip + x.214]
	mov	ecx, dword ptr [rip + y.215]
	mov	edx, eax
	neg	edx
	not	edx
	imul	edx, eax
	mov	eax, edx
	xor	eax, -2
	and	eax, edx
	sete	byte ptr [rsp + 13]
	sete	dl
	test	eax, eax
	mov	eax, -1280075056
	mov	ebx, 1080909681
	cmove	eax, ebx
	cmp	ecx, 10
	setl	cl
	setl	byte ptr [rsp + 96]
	mov	ebp, -1280075056
	cmovge	eax, ebp
	xor	cl, dl
	cmovne	eax, ebx
	mov	ecx, -1745699835
	jmp	.LBB29_31
.LBB29_36:                              
	cmp	ecx, 1637778273
	jne	.LBB29_31

	mov	ecx, eax
	jmp	.LBB29_31
.LBB29_38:                              
	mov	bl, byte ptr [rsp + 13]
	mov	cl, byte ptr [rsp + 96]
	mov	edx, ebx
	xor	dl, cl
	mov	edx, -1280075056
	mov	ebp, 1637778273
	cmovne	edx, ebp
	test	cl, cl
	mov	ecx, edx
	cmovne	ecx, ebp
	test	bl, bl
	cmove	ecx, edx
.LBB29_31:                              

	cmp	ecx, 1080909680
	jg	.LBB29_35

	cmp	ecx, -1745699835
	je	.LBB29_38

	cmp	ecx, -1280075056
	jne	.LBB29_31

	mov	ecx, 1637778273
	jmp	.LBB29_31
.LBB29_35:                              
	cmp	ecx, 1080909681
	jne	.LBB29_36

	call	_ZSt10__distanceIN9__gnu_cxx17__normal_iteratorIPKcNSt7__cxx1112basic_stringIcSt11char_traitsIcESaIcEEEEEENSt15iterator_traitsIT_E15difference_typeESC_SC_St26random_access_iterator_tag
	inc	rax
	mov	qword ptr [rsp + 96], rax
	mov	rdi, r14
	mov	rsi, r15
	mov	rdx, r13
	call	_ZSt4findIPKilET_S2_S2_RKT0_
	movabs	rcx, 7267492389604292416
	sub	rax, rcx
	sub	rax, r12
	add	rax, rcx
	shr	rax, 2
	mov	ecx, dword ptr [rsp + 36] 
	sub	ecx, eax
	movabs	rax, -3628138539935182433
	add	ecx, eax
	movsxd	rbp, ecx
	mov	edx, .L.str.48
	lea	r12, [rsp + 80]
	mov	rdi, r12
	mov	rsi, rbp
	call	_ZNKSt6bitsetILm32EE8_M_checkEmPKc
	mov	edx, 1
	mov	rdi, r12
	mov	rsi, rbp
	call	_ZNSt6bitsetILm32EE14_Unchecked_setEmi
	mov	eax, -1774587406
	mov	r15, qword ptr [rsp + 72] 
	lea	r14, [rsp + 16]
	jmp	.LBB29_1
.LBB29_26:                              
	mov	rdi, r14
	call	_ZNK9__gnu_cxx17__normal_iteratorIPKcNSt7__cxx1112basic_stringIcSt11char_traitsIcESaIcEEEE4baseEv
	mov	rbp, qword ptr [rax]
	mov	rdi, r13
	call	_ZNK9__gnu_cxx17__normal_iteratorIPKcNSt7__cxx1112basic_stringIcSt11char_traitsIcESaIcEEEE4baseEv
	mov	ecx, dword ptr [rip + x.86]
	mov	edi, dword ptr [rip + y.87]
	lea	esi, [rcx - 1]
	imul	esi, ecx
	mov	ecx, esi
	xor	ecx, -2
	and	ecx, esi
	sete	bl
	cmp	edi, 10
	setl	dl
	xor	dl, bl
	mov	edx, 691070385
	mov	esi, 2045576252
	cmovne	edx, esi
	test	ecx, ecx
	mov	ecx, edx
	cmove	ecx, esi
	cmp	edi, 10
	cmovge	ecx, edx
	cmp	rbp, qword ptr [rax]
	setb	byte ptr [rsp + 13]
	jmp	.LBB29_19
.LBB29_27:                              
	mov	rdi, r14
	call	_ZNK9__gnu_cxx17__normal_iteratorIPKcNSt7__cxx1112basic_stringIcSt11char_traitsIcESaIcEEEE4baseEv
	mov	rdi, r13
	call	_ZNK9__gnu_cxx17__normal_iteratorIPKcNSt7__cxx1112basic_stringIcSt11char_traitsIcESaIcEEEE4baseEv
	mov	ecx, -1801168299
.LBB29_19:                              

	cmp	ecx, 691070384
	jg	.LBB29_23

	cmp	ecx, -1801168299
	je	.LBB29_26

	cmp	ecx, -1477871261
	jne	.LBB29_19

	mov	al, byte ptr [rsp + 14]
	mov	cl, byte ptr [rsp + 15]
	mov	edx, eax
	xor	dl, cl
	mov	edx, 691070385
	mov	esi, -1801168299
	cmovne	edx, esi
	test	cl, cl
	mov	ecx, edx
	cmovne	ecx, esi
	test	al, al
	cmove	ecx, edx
	jmp	.LBB29_19
.LBB29_23:                              
	cmp	ecx, 691070385
	je	.LBB29_27

	cmp	ecx, 2045576252
	jne	.LBB29_19

	mov	al, byte ptr [rsp + 13]
	test	al, al
	mov	eax, 1648470340
	mov	ecx, 389896955
	cmovne	eax, ecx
.LBB29_1:                               


	cmp	eax, 1029784153
	jg	.LBB29_11

	cmp	eax, 389896954
	jg	.LBB29_7

	cmp	eax, -1774587406
	je	.LBB29_40

	cmp	eax, -1566219971
	jne	.LBB29_1

	mov	rdi, r13
	mov	rsi, r12
	call	_ZNKSt6bitsetILm32EE9to_stringB5cxx11Ev
	mov	rdi, r15
	mov	rsi, r13
	call	_ZNSt7__cxx1112basic_stringIcSt11char_traitsIcESaIcEEaSEOS4_
.Ltmp283:
	mov	rdi, r13
	call	_ZNSt7__cxx1112basic_stringIcSt11char_traitsIcESaIcEE10_M_disposeEv
.Ltmp284:

	mov	rax, qword ptr [rsp + 24]
	mov	eax, dword ptr [rip + x.150]
	lea	ecx, [rax - 1]
	imul	ecx, eax
	not	ecx
	or	ecx, -2
	mov	eax, -1
	cmp	ecx, eax
	sete	cl
	mov	eax, 541563825
	mov	esi, 2043784001
	cmove	eax, esi
	cmp	dword ptr [rip + y.151], 10
	setl	dl
	mov	edi, 541563825
	cmovge	eax, edi
	xor	dl, cl
	cmovne	eax, esi
	jmp	.LBB29_1
.LBB29_11:                              
	cmp	eax, 2000600181
	jg	.LBB29_15

	cmp	eax, 1029784154
	je	.LBB29_18

	cmp	eax, 1648470340
	jne	.LBB29_1

	mov	eax, dword ptr [rip + x.150]
	mov	ecx, dword ptr [rip + y.151]
	lea	edx, [rax - 1]
	imul	edx, eax
	mov	eax, edx
	xor	eax, -2
	and	eax, edx
	sete	dl
	cmp	ecx, 10
	setl	bl
	xor	bl, dl
	mov	edx, 541563825
	mov	esi, -1566219971
	cmovne	edx, esi
	test	eax, eax
	mov	eax, edx
	cmove	eax, esi
	cmp	ecx, 10
	mov	rcx, qword ptr [rsp + 64]
	cmovge	eax, edx
	jmp	.LBB29_1
.LBB29_7:                               
	cmp	eax, 389896955
	je	.LBB29_29

	cmp	eax, 541563825
	jne	.LBB29_1

	mov	rdi, r13
	mov	rsi, r12
	call	_ZNKSt6bitsetILm32EE9to_stringB5cxx11Ev
	mov	rdi, r15
	mov	rsi, r13
	call	_ZNSt7__cxx1112basic_stringIcSt11char_traitsIcESaIcEEaSEOS4_
.Ltmp280:
	mov	rdi, r13
	call	_ZNSt7__cxx1112basic_stringIcSt11char_traitsIcESaIcEE10_M_disposeEv
.Ltmp281:

	mov	rax, qword ptr [rsp + 24]
	mov	eax, -1566219971
	jmp	.LBB29_1
.LBB29_15:                              
	cmp	eax, 2000600182
	je	.LBB29_30

	cmp	eax, 2043784001
	jne	.LBB29_1

	add	rsp, 136
	pop	rbx
	pop	r12
	pop	r13
	pop	r14
	pop	r15
	pop	rbp
	ret
.LBB29_41:
.Ltmp282:
	mov	rdi, rax
	call	__cxa_call_unexpected
.LBB29_28:
.Ltmp285:
	mov	rdi, rax
	call	__cxa_call_unexpected
.Lfunc_end29:
	.size	_ZN3DES13straightPermuERKNSt7__cxx1112basic_stringIcSt11char_traitsIcESaIcEEE, .Lfunc_end29-_ZN3DES13straightPermuERKNSt7__cxx1112basic_stringIcSt11char_traitsIcESaIcEEE
	.cfi_endproc
	.section	.gcc_except_table,"a",@progbits
	.p2align	2
GCC_except_table29:
.Lexception15:
	.byte	255                     
	.byte	3                       
	.byte	69                      
	.byte	3                       
	.byte	65                      
	.long	.Lfunc_begin15-.Lfunc_begin15 
	.long	.Ltmp283-.Lfunc_begin15 
	.long	0                       
	.byte	0                       
	.long	.Ltmp283-.Lfunc_begin15 
	.long	.Ltmp284-.Ltmp283       
	.long	.Ltmp285-.Lfunc_begin15 
	.byte	1                       
	.long	.Ltmp284-.Lfunc_begin15 
	.long	.Ltmp280-.Ltmp284       
	.long	0                       
	.byte	0                       
	.long	.Ltmp280-.Lfunc_begin15 
	.long	.Ltmp281-.Ltmp280       
	.long	.Ltmp282-.Lfunc_begin15 
	.byte	1                       
	.long	.Ltmp281-.Lfunc_begin15 
	.long	.Lfunc_end29-.Ltmp281   
	.long	0                       
	.byte	0                       
	.byte	127                     

	.byte	0                       

	.byte	0
	.p2align	2

	.section	.text._ZNKSt5arrayIiLm32EE3endEv,"axG",@progbits,_ZNKSt5arrayIiLm32EE3endEv,comdat
	.weak	_ZNKSt5arrayIiLm32EE3endEv 
	.p2align	1, 0x90
	.type	_ZNKSt5arrayIiLm32EE3endEv,@function
_ZNKSt5arrayIiLm32EE3endEv:             

	push	rbp
	push	r15
	push	r14
	push	rbx
	sub	rsp, 24
	mov	eax, dword ptr [rip + x.154]
	mov	ecx, eax
	neg	ecx
	not	ecx
	imul	ecx, eax
	mov	eax, ecx
	xor	eax, -2
	test	eax, ecx
	sete	byte ptr [rsp + 14]
	mov	eax, dword ptr [rip + y.155]
	cmp	eax, 10
	setl	byte ptr [rsp + 15]
	mov	rbp, rdi
	mov	ecx, 2017619986
	mov	r14d, -1693040244
	mov	r15d, -567000851
	jmp	.LBB30_1
.LBB30_3:                               
	cmp	ecx, -829597294
	jne	.LBB30_1

	mov	rdi, rbp
	call	_ZNKSt5arrayIiLm32EE4dataEv
	mov	ecx, -567000851
	jmp	.LBB30_1
.LBB30_5:                               
	cmp	ecx, -567000851
	je	.LBB30_8

	cmp	ecx, 2017619986
	jne	.LBB30_1

	mov	al, byte ptr [rsp + 14]
	mov	cl, byte ptr [rsp + 15]
	mov	edx, eax
	xor	dl, cl
	mov	edx, -829597294
	cmovne	edx, r15d
	test	cl, cl
	mov	ecx, edx
	cmovne	ecx, r15d
	test	al, al
	cmove	ecx, edx
	jmp	.LBB30_1
.LBB30_8:                               
	mov	rdi, rbp
	call	_ZNKSt5arrayIiLm32EE4dataEv
	mov	ecx, dword ptr [rip + x.154]
	mov	edi, dword ptr [rip + y.155]
	lea	esi, [rcx - 1]
	imul	esi, ecx
	mov	ecx, esi
	xor	ecx, -2
	and	ecx, esi
	sete	bl
	cmp	edi, 10
	setl	dl
	xor	dl, bl
	mov	edx, -829597294
	cmovne	edx, r14d
	test	ecx, ecx
	mov	ecx, edx
	cmove	ecx, r14d
	cmp	edi, 10
	cmovge	ecx, edx
	sub	rax, -128
	mov	qword ptr [rsp + 16], rax
.LBB30_1:                               
	cmp	ecx, -567000852
	jg	.LBB30_5

	cmp	ecx, -1693040244
	jne	.LBB30_3

	mov	rax, qword ptr [rsp + 16]
	add	rsp, 24
	pop	rbx
	pop	r14
	pop	r15
	pop	rbp
	ret
.Lfunc_end30:
	.size	_ZNKSt5arrayIiLm32EE3endEv, .Lfunc_end30-_ZNKSt5arrayIiLm32EE3endEv

	.section	.text._ZNKSt5arrayIiLm56EE3endEv,"axG",@progbits,_ZNKSt5arrayIiLm56EE3endEv,comdat
	.weak	_ZNKSt5arrayIiLm56EE3endEv 
	.p2align	1, 0x90
	.type	_ZNKSt5arrayIiLm56EE3endEv,@function
_ZNKSt5arrayIiLm56EE3endEv:             

	mov	eax, dword ptr [rip + x.164]
	mov	esi, dword ptr [rip + y.165]
	mov	ecx, eax
	neg	ecx
	not	ecx
	imul	ecx, eax
	mov	eax, ecx
	xor	eax, -2
	and	eax, ecx
	sete	byte ptr [rsp - 10]
	sete	dl
	add	rdi, 224
	test	eax, eax
	mov	r9d, 1255091258
	mov	r8d, 1520012286
	mov	r10d, 1520012286
	cmove	r10d, r9d
	cmp	esi, 10
	setl	al
	setl	byte ptr [rsp - 9]
	cmovge	r10d, r8d
	xor	al, dl
	cmovne	r10d, r9d
	mov	eax, 53398691
	mov	r9d, 1893097409
	jmp	.LBB31_1
.LBB31_5:                               
	cmp	esi, 1520012286
	je	.LBB31_8

	cmp	esi, 1893097409
	jne	.LBB31_1

	mov	qword ptr [rsp - 8], rdi
	mov	eax, r10d
	jmp	.LBB31_1
.LBB31_9:                               
	mov	cl, byte ptr [rsp - 10]
	mov	al, byte ptr [rsp - 9]
	mov	edx, ecx
	xor	dl, al
	test	al, al
	mov	eax, 1520012286
	cmovne	eax, r9d
	test	cl, cl
	cmove	eax, r8d
	test	dl, dl
	cmovne	eax, r9d
	jmp	.LBB31_1
.LBB31_8:                               
	mov	eax, 1893097409
.LBB31_1:                               
	mov	esi, eax
	and	esi, 2147483647
	cmp	esi, 1520012285
	jg	.LBB31_5

	cmp	esi, 53398691
	je	.LBB31_9

	cmp	esi, 1255091258
	jne	.LBB31_1

	mov	rax, qword ptr [rsp - 8]
	ret
.Lfunc_end31:
	.size	_ZNKSt5arrayIiLm56EE3endEv, .Lfunc_end31-_ZNKSt5arrayIiLm56EE3endEv

	.section	.text._ZNSt6bitsetILm56EE3setEmb,"axG",@progbits,_ZNSt6bitsetILm56EE3setEmb,comdat
	.weak	_ZNSt6bitsetILm56EE3setEmb 
	.p2align	1, 0x90
	.type	_ZNSt6bitsetILm56EE3setEmb,@function
_ZNSt6bitsetILm56EE3setEmb:             
	.cfi_startproc

	push	rbp
.Lcfi244:
	.cfi_def_cfa_offset 16
	push	r15
.Lcfi245:
	.cfi_def_cfa_offset 24
	push	r14
.Lcfi246:
	.cfi_def_cfa_offset 32
	push	r13
.Lcfi247:
	.cfi_def_cfa_offset 40
	push	r12
.Lcfi248:
	.cfi_def_cfa_offset 48
	push	rbx
.Lcfi249:
	.cfi_def_cfa_offset 56
	sub	rsp, 24
.Lcfi250:
	.cfi_def_cfa_offset 80
.Lcfi251:
	.cfi_offset rbx, -56
.Lcfi252:
	.cfi_offset r12, -48
.Lcfi253:
	.cfi_offset r13, -40
.Lcfi254:
	.cfi_offset r14, -32
.Lcfi255:
	.cfi_offset r15, -24
.Lcfi256:
	.cfi_offset rbp, -16
	mov	r14, rsi
	mov	rbx, rdi
	mov	eax, dword ptr [rip + x.166]
	mov	ecx, dword ptr [rip + y.167]
	lea	esi, [rax - 1]
	imul	esi, eax
	not	esi
	or	esi, -2
	mov	eax, -1
	cmp	esi, eax
	sete	byte ptr [rsp + 14]
	cmp	ecx, 10
	setl	byte ptr [rsp + 15]
	movzx	ebp, dl
	mov	eax, 594611693
	mov	r12d, -1454555086
	mov	r13d, -1576993003
	mov	r15d, -1206500552
	jmp	.LBB32_1
.LBB32_5:                               
	cmp	eax, -1206500552
	je	.LBB32_8

	cmp	eax, 594611693
	jne	.LBB32_1

	mov	cl, byte ptr [rsp + 14]
	mov	al, byte ptr [rsp + 15]
	mov	edx, ecx
	xor	dl, al
	test	al, al
	mov	eax, -1576993003
	cmovne	eax, r15d
	test	cl, cl
	cmove	eax, r13d
	test	dl, dl
	cmovne	eax, r15d
	jmp	.LBB32_1
.LBB32_9:                               
	mov	edx, .L.str.48
	mov	rdi, rbx
	mov	rsi, r14
	call	_ZNKSt6bitsetILm56EE8_M_checkEmPKc
	mov	rdi, rbx
	mov	rsi, r14
	mov	edx, ebp
	call	_ZNSt6bitsetILm56EE14_Unchecked_setEmi
	mov	eax, -1206500552
	jmp	.LBB32_1
.LBB32_8:                               
	mov	edx, .L.str.48
	mov	rdi, rbx
	mov	rsi, r14
	call	_ZNKSt6bitsetILm56EE8_M_checkEmPKc
	mov	rdi, rbx
	mov	rsi, r14
	mov	edx, ebp
	call	_ZNSt6bitsetILm56EE14_Unchecked_setEmi
	mov	qword ptr [rsp + 16], rax
	mov	eax, dword ptr [rip + x.166]
	mov	ecx, eax
	neg	ecx
	not	ecx
	imul	ecx, eax
	not	ecx
	or	ecx, -2
	mov	eax, -1
	cmp	ecx, eax
	sete	cl
	mov	eax, -1576993003
	cmove	eax, r12d
	cmp	dword ptr [rip + y.167], 10
	setl	dl
	cmovge	eax, r13d
	xor	dl, cl
	cmovne	eax, r12d
.LBB32_1:                               
	cmp	eax, -1206500553
	jg	.LBB32_5

	cmp	eax, -1576993003
	je	.LBB32_9

	cmp	eax, -1454555086
	jne	.LBB32_1

	mov	rax, qword ptr [rsp + 16]
	add	rsp, 24
	pop	rbx
	pop	r12
	pop	r13
	pop	r14
	pop	r15
	pop	rbp
	ret
.Lfunc_end32:
	.size	_ZNSt6bitsetILm56EE3setEmb, .Lfunc_end32-_ZNSt6bitsetILm56EE3setEmb
	.cfi_endproc

	.text
	.globl	_ZN3DES6desFunERKNSt7__cxx1112basic_stringIcSt11char_traitsIcESaIcEEES7_ 
	.p2align	1, 0x90
	.type	_ZN3DES6desFunERKNSt7__cxx1112basic_stringIcSt11char_traitsIcESaIcEEES7_,@function
_ZN3DES6desFunERKNSt7__cxx1112basic_stringIcSt11char_traitsIcESaIcEEES7_: 
	.cfi_startproc

	push	r14
.Lcfi257:
	.cfi_def_cfa_offset 16
	push	rbx
.Lcfi258:
	.cfi_def_cfa_offset 24
	push	rax
.Lcfi259:
	.cfi_def_cfa_offset 32
.Lcfi260:
	.cfi_offset rbx, -24
.Lcfi261:
	.cfi_offset r14, -16
	mov	r14, rdx
	mov	rbx, rdi
	call	_ZN3DES14expansionPermuERKNSt7__cxx1112basic_stringIcSt11char_traitsIcESaIcEEE
	lea	rsi, [rbx + 392]
	mov	rdi, rbx
	mov	rdx, r14
	call	_ZN3DES5xor48ERKNSt7__cxx1112basic_stringIcSt11char_traitsIcESaIcEEES7_
	lea	rsi, [rbx + 296]
	mov	rdi, rbx
	call	_ZN3DES4sBoxERKNSt7__cxx1112basic_stringIcSt11char_traitsIcESaIcEEE
	lea	rsi, [rbx + 328]
	mov	rdi, rbx
	add	rsp, 8
	pop	rbx
	pop	r14
	jmp	_ZN3DES13straightPermuERKNSt7__cxx1112basic_stringIcSt11char_traitsIcESaIcEEE 
.Lfunc_end33:
	.size	_ZN3DES6desFunERKNSt7__cxx1112basic_stringIcSt11char_traitsIcESaIcEEES7_, .Lfunc_end33-_ZN3DES6desFunERKNSt7__cxx1112basic_stringIcSt11char_traitsIcESaIcEEES7_
	.cfi_endproc

	.globl	_ZN3DES5splitERKNSt7__cxx1112basic_stringIcSt11char_traitsIcESaIcEEE 
	.p2align	1, 0x90
	.type	_ZN3DES5splitERKNSt7__cxx1112basic_stringIcSt11char_traitsIcESaIcEEE,@function
_ZN3DES5splitERKNSt7__cxx1112basic_stringIcSt11char_traitsIcESaIcEEE: 
.Lfunc_begin16:
	.cfi_startproc
	.cfi_personality 3, __gxx_personality_v0
	.cfi_lsda 3, .Lexception16

	push	rbp
.Lcfi262:
	.cfi_def_cfa_offset 16
.Lcfi263:
	.cfi_offset rbp, -16
	mov	rbp, rsp
.Lcfi264:
	.cfi_def_cfa_register rbp
	push	r15
	push	r14
	push	r13
	push	r12
	push	rbx
	push	rax
.Lcfi265:
	.cfi_offset rbx, -56
.Lcfi266:
	.cfi_offset r12, -48
.Lcfi267:
	.cfi_offset r13, -40
.Lcfi268:
	.cfi_offset r14, -32
.Lcfi269:
	.cfi_offset r15, -24
	mov	r12, rsi
	mov	r14, rdi
	mov	eax, dword ptr [rip + x.178]
	mov	ecx, dword ptr [rip + y.179]
	lea	edx, [rax - 1]
	imul	edx, eax
	mov	eax, edx
	xor	eax, -2
	test	eax, edx
	sete	byte ptr [rbp - 41]
	cmp	ecx, 10
	setl	byte ptr [rbp - 42]
	lea	r15, [r14 + 72]
	add	r14, 104
	mov	eax, 285361720
	jmp	.LBB34_1
.LBB34_5:                               
	cmp	eax, 2102991178
	je	.LBB34_9

	cmp	eax, 285361720
	jne	.LBB34_1

	mov	cl, byte ptr [rbp - 41]
	mov	al, byte ptr [rbp - 42]
	mov	edx, ecx
	xor	dl, al
	mov	edx, -2018764127
	mov	esi, 2102991178
	cmovne	edx, esi
	test	al, al
	mov	eax, edx
	cmovne	eax, esi
	test	cl, cl
	cmove	eax, edx
	jmp	.LBB34_1
.LBB34_13:                              
	mov	r13, rsp
	add	r13, -32
	mov	rsp, r13
	mov	rbx, rsp
	add	rbx, -32
	mov	rsp, rbx
	xor	esi, esi
	mov	edx, .L.str.50
	mov	rdi, r12
	call	_ZNKSt7__cxx1112basic_stringIcSt11char_traitsIcESaIcEE8_M_checkEmPKc
	mov	ecx, 32
	mov	rdi, r13
	mov	rsi, r12
	mov	rdx, rax
	call	_ZNSt7__cxx1112basic_stringIcSt11char_traitsIcESaIcEEC2ERKS4_mm
	mov	rdi, r15
	mov	rsi, r13
	call	_ZNSt7__cxx1112basic_stringIcSt11char_traitsIcESaIcEEaSEOS4_
.Ltmp286:
	mov	rdi, r13
	call	_ZNSt7__cxx1112basic_stringIcSt11char_traitsIcESaIcEE10_M_disposeEv
.Ltmp287:

	mov	esi, 32
	mov	edx, .L.str.50
	mov	rdi, r12
	call	_ZNKSt7__cxx1112basic_stringIcSt11char_traitsIcESaIcEE8_M_checkEmPKc
	mov	ecx, 32
	mov	rdi, rbx
	mov	rsi, r12
	mov	rdx, rax
	call	_ZNSt7__cxx1112basic_stringIcSt11char_traitsIcESaIcEEC2ERKS4_mm
	mov	rdi, r14
	mov	rsi, rbx
	call	_ZNSt7__cxx1112basic_stringIcSt11char_traitsIcESaIcEEaSEOS4_
.Ltmp289:
	mov	rdi, rbx
	call	_ZNSt7__cxx1112basic_stringIcSt11char_traitsIcESaIcEE10_M_disposeEv
.Ltmp290:

	mov	eax, 2102991178
	jmp	.LBB34_1
.LBB34_9:                               
	mov	r13, rsp
	add	r13, -32
	mov	rsp, r13
	mov	rbx, rsp
	add	rbx, -32
	mov	rsp, rbx
	xor	esi, esi
	mov	edx, .L.str.50
	mov	rdi, r12
	call	_ZNKSt7__cxx1112basic_stringIcSt11char_traitsIcESaIcEE8_M_checkEmPKc
	mov	ecx, 32
	mov	rdi, r13
	mov	rsi, r12
	mov	rdx, rax
	call	_ZNSt7__cxx1112basic_stringIcSt11char_traitsIcESaIcEEC2ERKS4_mm
	mov	rdi, r15
	mov	rsi, r13
	call	_ZNSt7__cxx1112basic_stringIcSt11char_traitsIcESaIcEEaSEOS4_
.Ltmp292:
	mov	rdi, r13
	call	_ZNSt7__cxx1112basic_stringIcSt11char_traitsIcESaIcEE10_M_disposeEv
.Ltmp293:

	mov	esi, 32
	mov	edx, .L.str.50
	mov	rdi, r12
	call	_ZNKSt7__cxx1112basic_stringIcSt11char_traitsIcESaIcEE8_M_checkEmPKc
	mov	ecx, 32
	mov	rdi, rbx
	mov	rsi, r12
	mov	rdx, rax
	call	_ZNSt7__cxx1112basic_stringIcSt11char_traitsIcESaIcEEC2ERKS4_mm
	mov	rdi, r14
	mov	rsi, rbx
	call	_ZNSt7__cxx1112basic_stringIcSt11char_traitsIcESaIcEEaSEOS4_
.Ltmp295:
	mov	rdi, rbx
	call	_ZNSt7__cxx1112basic_stringIcSt11char_traitsIcESaIcEE10_M_disposeEv
.Ltmp296:

	mov	eax, dword ptr [rip + x.178]
	lea	ecx, [rax - 1]
	imul	ecx, eax
	mov	eax, ecx
	xor	eax, -2
	and	eax, ecx
	sete	cl
	test	eax, eax
	mov	eax, -2018764127
	mov	esi, -1724396390
	cmove	eax, esi
	cmp	dword ptr [rip + y.179], 10
	setl	dl
	mov	edi, -2018764127
	cmovge	eax, edi
	xor	dl, cl
	cmovne	eax, esi
.LBB34_1:                               
	cmp	eax, 285361719
	jg	.LBB34_5

	cmp	eax, -2018764127
	je	.LBB34_13

	cmp	eax, -1724396390
	jne	.LBB34_1

	lea	rsp, [rbp - 40]
	pop	rbx
	pop	r12
	pop	r13
	pop	r14
	pop	r15
	pop	rbp
	ret
.LBB34_16:
.Ltmp297:
	mov	rdi, rax
	call	__cxa_call_unexpected
.LBB34_8:
.Ltmp294:
	mov	rdi, rax
	call	__cxa_call_unexpected
.LBB34_17:
.Ltmp291:
	mov	rdi, rax
	call	__cxa_call_unexpected
.LBB34_12:
.Ltmp288:
	mov	rdi, rax
	call	__cxa_call_unexpected
.Lfunc_end34:
	.size	_ZN3DES5splitERKNSt7__cxx1112basic_stringIcSt11char_traitsIcESaIcEEE, .Lfunc_end34-_ZN3DES5splitERKNSt7__cxx1112basic_stringIcSt11char_traitsIcESaIcEEE
	.cfi_endproc
	.section	.gcc_except_table,"a",@progbits
	.p2align	2
GCC_except_table34:
.Lexception16:
	.byte	255                     
	.byte	3                       
	.byte	121                     
	.byte	3                       
	.byte	117                     
	.long	.Lfunc_begin16-.Lfunc_begin16 
	.long	.Ltmp286-.Lfunc_begin16 
	.long	0                       
	.byte	0                       
	.long	.Ltmp286-.Lfunc_begin16 
	.long	.Ltmp287-.Ltmp286       
	.long	.Ltmp288-.Lfunc_begin16 
	.byte	1                       
	.long	.Ltmp287-.Lfunc_begin16 
	.long	.Ltmp289-.Ltmp287       
	.long	0                       
	.byte	0                       
	.long	.Ltmp289-.Lfunc_begin16 
	.long	.Ltmp290-.Ltmp289       
	.long	.Ltmp291-.Lfunc_begin16 
	.byte	1                       
	.long	.Ltmp290-.Lfunc_begin16 
	.long	.Ltmp292-.Ltmp290       
	.long	0                       
	.byte	0                       
	.long	.Ltmp292-.Lfunc_begin16 
	.long	.Ltmp293-.Ltmp292       
	.long	.Ltmp294-.Lfunc_begin16 
	.byte	1                       
	.long	.Ltmp293-.Lfunc_begin16 
	.long	.Ltmp295-.Ltmp293       
	.long	0                       
	.byte	0                       
	.long	.Ltmp295-.Lfunc_begin16 
	.long	.Ltmp296-.Ltmp295       
	.long	.Ltmp297-.Lfunc_begin16 
	.byte	1                       
	.long	.Ltmp296-.Lfunc_begin16 
	.long	.Lfunc_end34-.Ltmp296   
	.long	0                       
	.byte	0                       
	.byte	127                     

	.byte	0                       

	.byte	0
	.p2align	2

	.text
	.globl	_ZN3DES7bin2hexERKNSt7__cxx1112basic_stringIcSt11char_traitsIcESaIcEEE 
	.p2align	1, 0x90
	.type	_ZN3DES7bin2hexERKNSt7__cxx1112basic_stringIcSt11char_traitsIcESaIcEEE,@function
_ZN3DES7bin2hexERKNSt7__cxx1112basic_stringIcSt11char_traitsIcESaIcEEE: 
.Lfunc_begin17:
	.cfi_startproc
	.cfi_personality 3, __gxx_personality_v0
	.cfi_lsda 3, .Lexception17

	push	r15
.Lcfi270:
	.cfi_def_cfa_offset 16
	push	r14
.Lcfi271:
	.cfi_def_cfa_offset 24
	push	r13
.Lcfi272:
	.cfi_def_cfa_offset 32
	push	r12
.Lcfi273:
	.cfi_def_cfa_offset 40
	push	rbx
.Lcfi274:
	.cfi_def_cfa_offset 48
	sub	rsp, 64
.Lcfi275:
	.cfi_def_cfa_offset 112
.Lcfi276:
	.cfi_offset rbx, -48
.Lcfi277:
	.cfi_offset r12, -40
.Lcfi278:
	.cfi_offset r13, -32
.Lcfi279:
	.cfi_offset r14, -24
.Lcfi280:
	.cfi_offset r15, -16
	mov	r15, rsi
	mov	r14, rdi
	call	_ZNSt7__cxx1112basic_stringIcSt11char_traitsIcESaIcEEC2Ev
	mov	rdi, rsp
	call	_ZNSt7__cxx1112basic_stringIcSt11char_traitsIcESaIcEEC2Ev
	mov	rdi, r15
	call	_ZNKSt7__cxx1112basic_stringIcSt11char_traitsIcESaIcEE6lengthEv
	test	eax, eax
	jle	.LBB35_46

	xor	ebx, ebx
	lea	r12, [rsp + 32]
	mov	r13, rsp
.LBB35_2:                               
.Ltmp298:
	mov	edx, .L.str.50
	mov	rdi, r15
	mov	rsi, rbx
	call	_ZNKSt7__cxx1112basic_stringIcSt11char_traitsIcESaIcEE8_M_checkEmPKc
.Ltmp299:

.Ltmp300:
	mov	ecx, 4
	mov	rdi, r12
	mov	rsi, r15
	mov	rdx, rax
	call	_ZNSt7__cxx1112basic_stringIcSt11char_traitsIcESaIcEEC2ERKS4_mm
.Ltmp301:

	mov	rdi, r13
	mov	rsi, r12
	call	_ZNSt7__cxx1112basic_stringIcSt11char_traitsIcESaIcEEaSEOS4_
.Ltmp303:
	mov	rdi, r12
	call	_ZNSt7__cxx1112basic_stringIcSt11char_traitsIcESaIcEE10_M_disposeEv
.Ltmp304:

.Ltmp306:
	mov	rdi, r13
	call	_ZN3DES7bin2decERKNSt7__cxx1112basic_stringIcSt11char_traitsIcESaIcEEE
.Ltmp307:

	cmp	eax, 8
	jge	.LBB35_7

	cmp	eax, 4
	jge	.LBB35_18

	cmp	eax, 2
	jge	.LBB35_22

	test	eax, eax
	je	.LBB35_44

	cmp	eax, 1
	jne	.LBB35_42

.Ltmp338:
	mov	esi, .L.str.5
	mov	rdi, r14
	call	_ZNSt7__cxx1112basic_stringIcSt11char_traitsIcESaIcEE6appendEPKc
.Ltmp339:
	jmp	.LBB35_45
.LBB35_7:                               
	cmp	eax, 12
	jge	.LBB35_8

	cmp	eax, 10
	jge	.LBB35_15

	cmp	eax, 9
	jne	.LBB35_34

.Ltmp322:
	mov	esi, .L.str.13
	mov	rdi, r14
	call	_ZNSt7__cxx1112basic_stringIcSt11char_traitsIcESaIcEE6appendEPKc
.Ltmp323:
	jmp	.LBB35_45
.LBB35_18:                              
	cmp	eax, 6
	jge	.LBB35_19

	cmp	eax, 5
	jne	.LBB35_30

.Ltmp330:
	mov	esi, .L.str.9
	mov	rdi, r14
	call	_ZNSt7__cxx1112basic_stringIcSt11char_traitsIcESaIcEE6appendEPKc
.Ltmp331:
	jmp	.LBB35_45
.LBB35_8:                               
	cmp	eax, 14
	jge	.LBB35_9

	cmp	eax, 13
	jne	.LBB35_38

.Ltmp314:
	mov	esi, .L.str.17
	mov	rdi, r14
	call	_ZNSt7__cxx1112basic_stringIcSt11char_traitsIcESaIcEE6appendEPKc
.Ltmp315:
	jmp	.LBB35_45
.LBB35_22:                              
	jne	.LBB35_29

.Ltmp334:
	mov	esi, .L.str.6
	mov	rdi, r14
	call	_ZNSt7__cxx1112basic_stringIcSt11char_traitsIcESaIcEE6appendEPKc
.Ltmp335:
	jmp	.LBB35_45
.LBB35_15:                              
	jne	.LBB35_37

.Ltmp318:
	mov	esi, .L.str.14
	mov	rdi, r14
	call	_ZNSt7__cxx1112basic_stringIcSt11char_traitsIcESaIcEE6appendEPKc
.Ltmp319:
	jmp	.LBB35_45
.LBB35_19:                              
	jne	.LBB35_33

.Ltmp326:
	mov	esi, .L.str.10
	mov	rdi, r14
	call	_ZNSt7__cxx1112basic_stringIcSt11char_traitsIcESaIcEE6appendEPKc
.Ltmp327:
	jmp	.LBB35_45
.LBB35_9:                               
	je	.LBB35_41

	cmp	eax, 15
	jne	.LBB35_42

.Ltmp308:
	mov	esi, .L.str.19
	mov	rdi, r14
	call	_ZNSt7__cxx1112basic_stringIcSt11char_traitsIcESaIcEE6appendEPKc
.Ltmp309:
	jmp	.LBB35_45
.LBB35_34:                              
.Ltmp320:
	mov	esi, .L.str.12
	mov	rdi, r14
	call	_ZNSt7__cxx1112basic_stringIcSt11char_traitsIcESaIcEE6appendEPKc
.Ltmp321:
	jmp	.LBB35_45
.LBB35_30:                              
.Ltmp328:
	mov	esi, .L.str.8
	mov	rdi, r14
	call	_ZNSt7__cxx1112basic_stringIcSt11char_traitsIcESaIcEE6appendEPKc
.Ltmp329:
	jmp	.LBB35_45
.LBB35_38:                              
.Ltmp312:
	mov	esi, .L.str.16
	mov	rdi, r14
	call	_ZNSt7__cxx1112basic_stringIcSt11char_traitsIcESaIcEE6appendEPKc
.Ltmp313:
	jmp	.LBB35_45
.LBB35_29:                              
.Ltmp332:
	mov	esi, .L.str.7
	mov	rdi, r14
	call	_ZNSt7__cxx1112basic_stringIcSt11char_traitsIcESaIcEE6appendEPKc
.Ltmp333:
	jmp	.LBB35_45
.LBB35_37:                              
.Ltmp316:
	mov	esi, .L.str.15
	mov	rdi, r14
	call	_ZNSt7__cxx1112basic_stringIcSt11char_traitsIcESaIcEE6appendEPKc
.Ltmp317:
	jmp	.LBB35_45
.LBB35_33:                              
.Ltmp324:
	mov	esi, .L.str.11
	mov	rdi, r14
	call	_ZNSt7__cxx1112basic_stringIcSt11char_traitsIcESaIcEE6appendEPKc
.Ltmp325:
	jmp	.LBB35_45
.LBB35_44:                              
.Ltmp336:
	mov	esi, .L.str.4
	mov	rdi, r14
	call	_ZNSt7__cxx1112basic_stringIcSt11char_traitsIcESaIcEE6appendEPKc
.Ltmp337:
	jmp	.LBB35_45
.LBB35_41:                              
.Ltmp310:
	mov	esi, .L.str.18
	mov	rdi, r14
	call	_ZNSt7__cxx1112basic_stringIcSt11char_traitsIcESaIcEE6appendEPKc
.Ltmp311:
.LBB35_45:                              
	add	rbx, 4
	mov	rdi, r15
	call	_ZNKSt7__cxx1112basic_stringIcSt11char_traitsIcESaIcEE6lengthEv
	cdqe
	cmp	rbx, rax
	jl	.LBB35_2
.LBB35_46:
.Ltmp341:
	mov	rdi, rsp
	call	_ZNSt7__cxx1112basic_stringIcSt11char_traitsIcESaIcEE10_M_disposeEv
.Ltmp342:

	mov	rax, r14
	add	rsp, 64
	pop	rbx
	pop	r12
	pop	r13
	pop	r14
	pop	r15
	ret
.LBB35_42:
.Ltmp344:
	mov	edi, _ZSt4cout
	mov	esi, .L.str.20
	call	_ZStlsISt11char_traitsIcEERSt13basic_ostreamIcT_ES5_PKc
.Ltmp345:

	xor	edi, edi
	call	exit
.LBB35_28:
.Ltmp346:
	jmp	.LBB35_49
.LBB35_12:
.Ltmp343:
	mov	rdi, rax
	call	__cxa_call_unexpected
.LBB35_13:
.Ltmp305:
	mov	rdi, rax
	call	__cxa_call_unexpected
.LBB35_27:
.Ltmp340:
	jmp	.LBB35_49
.LBB35_48:
.Ltmp302:
.LBB35_49:
	mov	rbx, rax
.Ltmp347:
	mov	rdi, rsp
	call	_ZNSt7__cxx1112basic_stringIcSt11char_traitsIcESaIcEE10_M_disposeEv
.Ltmp348:

.Ltmp350:
	mov	rdi, r14
	call	_ZNSt7__cxx1112basic_stringIcSt11char_traitsIcESaIcEE10_M_disposeEv
.Ltmp351:

	mov	rdi, rbx
	call	_Unwind_Resume
.LBB35_53:
.Ltmp352:
	mov	rdi, rax
	call	__cxa_call_unexpected
.LBB35_52:
.Ltmp349:
	mov	rdi, rax
	call	__cxa_call_unexpected
.Lfunc_end35:
	.size	_ZN3DES7bin2hexERKNSt7__cxx1112basic_stringIcSt11char_traitsIcESaIcEEE, .Lfunc_end35-_ZN3DES7bin2hexERKNSt7__cxx1112basic_stringIcSt11char_traitsIcESaIcEEE
	.cfi_endproc
	.section	.gcc_except_table,"a",@progbits
	.p2align	2
GCC_except_table35:
.Lexception17:
	.byte	255                     
	.byte	3                       
	.byte	121                     
	.byte	3                       
	.byte	117                     
	.long	.Ltmp298-.Lfunc_begin17 
	.long	.Ltmp301-.Ltmp298       
	.long	.Ltmp302-.Lfunc_begin17 
	.byte	0                       
	.long	.Ltmp303-.Lfunc_begin17 
	.long	.Ltmp304-.Ltmp303       
	.long	.Ltmp305-.Lfunc_begin17 
	.byte	1                       
	.long	.Ltmp306-.Lfunc_begin17 
	.long	.Ltmp311-.Ltmp306       
	.long	.Ltmp340-.Lfunc_begin17 
	.byte	0                       
	.long	.Ltmp341-.Lfunc_begin17 
	.long	.Ltmp342-.Ltmp341       
	.long	.Ltmp343-.Lfunc_begin17 
	.byte	1                       
	.long	.Ltmp344-.Lfunc_begin17 
	.long	.Ltmp345-.Ltmp344       
	.long	.Ltmp346-.Lfunc_begin17 
	.byte	0                       
	.long	.Ltmp345-.Lfunc_begin17 
	.long	.Ltmp347-.Ltmp345       
	.long	0                       
	.byte	0                       
	.long	.Ltmp347-.Lfunc_begin17 
	.long	.Ltmp348-.Ltmp347       
	.long	.Ltmp349-.Lfunc_begin17 
	.byte	1                       
	.long	.Ltmp350-.Lfunc_begin17 
	.long	.Ltmp351-.Ltmp350       
	.long	.Ltmp352-.Lfunc_begin17 
	.byte	1                       
	.long	.Ltmp351-.Lfunc_begin17 
	.long	.Lfunc_end35-.Ltmp351   
	.long	0                       
	.byte	0                       
	.byte	127                     

	.byte	0                       

	.byte	0
	.p2align	2

	.section	.text._ZNSt7__cxx1112basic_stringIcSt11char_traitsIcESaIcEE6appendEPKc,"axG",@progbits,_ZNSt7__cxx1112basic_stringIcSt11char_traitsIcESaIcEE6appendEPKc,comdat
	.weak	_ZNSt7__cxx1112basic_stringIcSt11char_traitsIcESaIcEE6appendEPKc 
	.p2align	1, 0x90
	.type	_ZNSt7__cxx1112basic_stringIcSt11char_traitsIcESaIcEE6appendEPKc,@function
_ZNSt7__cxx1112basic_stringIcSt11char_traitsIcESaIcEE6appendEPKc: 
	.cfi_startproc

	push	r15
.Lcfi281:
	.cfi_def_cfa_offset 16
	push	r14
.Lcfi282:
	.cfi_def_cfa_offset 24
	push	rbx
.Lcfi283:
	.cfi_def_cfa_offset 32
.Lcfi284:
	.cfi_offset rbx, -32
.Lcfi285:
	.cfi_offset r14, -24
.Lcfi286:
	.cfi_offset r15, -16
	mov	r14, rsi
	mov	r15, rdi
	mov	rdi, r14
	call	_ZNSt11char_traitsIcE6lengthEPKc
	mov	rbx, rax
	xor	esi, esi
	mov	ecx, .L.str.53
	mov	rdi, r15
	mov	rdx, rbx
	call	_ZNKSt7__cxx1112basic_stringIcSt11char_traitsIcESaIcEE15_M_check_lengthEmmPKc
	mov	rdi, r15
	mov	rsi, r14
	mov	rdx, rbx
	pop	rbx
	pop	r14
	pop	r15
	jmp	_ZNSt7__cxx1112basic_stringIcSt11char_traitsIcESaIcEE9_M_appendEPKcm 
.Lfunc_end36:
	.size	_ZNSt7__cxx1112basic_stringIcSt11char_traitsIcESaIcEE6appendEPKc, .Lfunc_end36-_ZNSt7__cxx1112basic_stringIcSt11char_traitsIcESaIcEE6appendEPKc
	.cfi_endproc

	.section	.text._ZN9__gnu_cxx17__normal_iteratorIPKcNSt7__cxx1112basic_stringIcSt11char_traitsIcESaIcEEEEppEv,"axG",@progbits,_ZN9__gnu_cxx17__normal_iteratorIPKcNSt7__cxx1112basic_stringIcSt11char_traitsIcESaIcEEEEppEv,comdat
	.weak	_ZN9__gnu_cxx17__normal_iteratorIPKcNSt7__cxx1112basic_stringIcSt11char_traitsIcESaIcEEEEppEv 
	.p2align	1, 0x90
	.type	_ZN9__gnu_cxx17__normal_iteratorIPKcNSt7__cxx1112basic_stringIcSt11char_traitsIcESaIcEEEEppEv,@function
_ZN9__gnu_cxx17__normal_iteratorIPKcNSt7__cxx1112basic_stringIcSt11char_traitsIcESaIcEEEEppEv: 

	mov	eax, dword ptr [rip + x.182]
	lea	ecx, [rax - 1]
	imul	ecx, eax
	mov	eax, ecx
	xor	eax, -2
	test	eax, ecx
	sete	byte ptr [rsp - 2]
	mov	eax, dword ptr [rip + y.183]
	cmp	eax, 10
	setl	byte ptr [rsp - 1]
	mov	esi, 970650653
	mov	r8d, -1
	mov	r9d, -934256455
	mov	r10d, 380059271
	jmp	.LBB37_1
.LBB37_5:                               
	cmp	esi, 380059271
	je	.LBB37_8

	cmp	esi, 970650653
	jne	.LBB37_1

	mov	dl, byte ptr [rsp - 2]
	mov	cl, byte ptr [rsp - 1]
	mov	eax, edx
	xor	al, cl
	mov	eax, -1237864032
	cmovne	eax, r10d
	test	cl, cl
	mov	esi, eax
	cmovne	esi, r10d
	test	dl, dl
	cmove	esi, eax
	jmp	.LBB37_1
.LBB37_9:                               
	inc	qword ptr [rdi]
	mov	esi, 380059271
	jmp	.LBB37_1
.LBB37_8:                               
	inc	qword ptr [rdi]
	mov	eax, dword ptr [rip + x.182]
	mov	r11d, dword ptr [rip + y.183]
	lea	edx, [rax - 1]
	imul	edx, eax
	not	edx
	or	edx, -2
	cmp	edx, r8d
	sete	al
	cmp	r11d, 10
	setl	cl
	xor	cl, al
	mov	eax, -1237864032
	cmovne	eax, r9d
	cmp	edx, r8d
	mov	esi, eax
	cmove	esi, r9d
	cmp	r11d, 10
	cmovge	esi, eax
.LBB37_1:                               
	cmp	esi, 380059270
	jg	.LBB37_5

	cmp	esi, -1237864032
	je	.LBB37_9

	cmp	esi, -934256455
	jne	.LBB37_1

	mov	rax, rdi
	ret
.Lfunc_end37:
	.size	_ZN9__gnu_cxx17__normal_iteratorIPKcNSt7__cxx1112basic_stringIcSt11char_traitsIcESaIcEEEEppEv, .Lfunc_end37-_ZN9__gnu_cxx17__normal_iteratorIPKcNSt7__cxx1112basic_stringIcSt11char_traitsIcESaIcEEEEppEv

	.section	.text._ZStltIN9__gnu_cxx17__normal_iteratorIPKcNSt7__cxx1112basic_stringIcSt11char_traitsIcESaIcEEEEEEbRKSt16reverse_iteratorIT_ESF_,"axG",@progbits,_ZStltIN9__gnu_cxx17__normal_iteratorIPKcNSt7__cxx1112basic_stringIcSt11char_traitsIcESaIcEEEEEEbRKSt16reverse_iteratorIT_ESF_,comdat
	.weak	_ZStltIN9__gnu_cxx17__normal_iteratorIPKcNSt7__cxx1112basic_stringIcSt11char_traitsIcESaIcEEEEEEbRKSt16reverse_iteratorIT_ESF_ 
	.type	_ZStltIN9__gnu_cxx17__normal_iteratorIPKcNSt7__cxx1112basic_stringIcSt11char_traitsIcESaIcEEEEEEbRKSt16reverse_iteratorIT_ESF_,@function
_ZStltIN9__gnu_cxx17__normal_iteratorIPKcNSt7__cxx1112basic_stringIcSt11char_traitsIcESaIcEEEEEEbRKSt16reverse_iteratorIT_ESF_: 
	.cfi_startproc

	push	rbp
.Lcfi287:
	.cfi_def_cfa_offset 16
	push	r15
.Lcfi288:
	.cfi_def_cfa_offset 24
	push	r14
.Lcfi289:
	.cfi_def_cfa_offset 32
	push	r13
.Lcfi290:
	.cfi_def_cfa_offset 40
	push	r12
.Lcfi291:
	.cfi_def_cfa_offset 48
	push	rbx
.Lcfi292:
	.cfi_def_cfa_offset 56
	sub	rsp, 24
.Lcfi293:
	.cfi_def_cfa_offset 80
.Lcfi294:
	.cfi_offset rbx, -56
.Lcfi295:
	.cfi_offset r12, -48
.Lcfi296:
	.cfi_offset r13, -40
.Lcfi297:
	.cfi_offset r14, -32
.Lcfi298:
	.cfi_offset r15, -24
.Lcfi299:
	.cfi_offset rbp, -16
	mov	rax, qword ptr [rsi]
	lea	r14, [rsp + 16]
	mov	qword ptr [r14], rax
	mov	rax, qword ptr [rdi]
	lea	r13, [rsp + 8]
	mov	ecx, dword ptr [rip + x.86]
	mov	edx, ecx
	neg	edx
	not	edx
	imul	edx, ecx
	not	edx
	or	edx, -2
	mov	ebp, -1
	cmp	edx, ebp
	sete	byte ptr [rsp + 5]
	mov	ecx, dword ptr [rip + y.87]
	cmp	ecx, 10
	setl	byte ptr [rsp + 6]
	mov	qword ptr [r13], rax
	mov	ecx, -1477871261
	mov	r12d, -1801168299
	jmp	.LBB38_1
.LBB38_8:                               
	mov	rdi, r14
	call	_ZNK9__gnu_cxx17__normal_iteratorIPKcNSt7__cxx1112basic_stringIcSt11char_traitsIcESaIcEEEE4baseEv
	mov	r15, qword ptr [rax]
	mov	rdi, r13
	call	_ZNK9__gnu_cxx17__normal_iteratorIPKcNSt7__cxx1112basic_stringIcSt11char_traitsIcESaIcEEEE4baseEv
	mov	ecx, dword ptr [rip + x.86]
	mov	edx, dword ptr [rip + y.87]
	lea	esi, [rcx - 1]
	imul	esi, ecx
	not	esi
	or	esi, -2
	cmp	esi, ebp
	sete	cl
	cmp	edx, 10
	setl	bl
	xor	bl, cl
	mov	ebx, 2045576252
	mov	edi, 691070385
	cmovne	edi, ebx
	cmp	esi, ebp
	mov	ecx, edi
	cmove	ecx, ebx
	cmp	edx, 10
	cmovge	ecx, edi
	cmp	r15, qword ptr [rax]
	setb	byte ptr [rsp + 7]
	jmp	.LBB38_1
.LBB38_9:                               
	mov	rdi, r14
	call	_ZNK9__gnu_cxx17__normal_iteratorIPKcNSt7__cxx1112basic_stringIcSt11char_traitsIcESaIcEEEE4baseEv
	mov	rdi, r13
	call	_ZNK9__gnu_cxx17__normal_iteratorIPKcNSt7__cxx1112basic_stringIcSt11char_traitsIcESaIcEEEE4baseEv
	mov	ecx, -1801168299
.LBB38_1:                               
	cmp	ecx, 691070384
	jg	.LBB38_5

	cmp	ecx, -1801168299
	je	.LBB38_8

	cmp	ecx, -1477871261
	jne	.LBB38_1

	mov	al, byte ptr [rsp + 5]
	mov	cl, byte ptr [rsp + 6]
	mov	edx, eax
	xor	dl, cl
	mov	edx, 691070385
	cmovne	edx, r12d
	test	cl, cl
	mov	ecx, edx
	cmovne	ecx, r12d
	test	al, al
	cmove	ecx, edx
	jmp	.LBB38_1
.LBB38_5:                               
	cmp	ecx, 691070385
	je	.LBB38_9

	cmp	ecx, 2045576252
	jne	.LBB38_1

	mov	al, byte ptr [rsp + 7]
	add	rsp, 24
	pop	rbx
	pop	r12
	pop	r13
	pop	r14
	pop	r15
	pop	rbp
	ret
.Lfunc_end38:
	.size	_ZStltIN9__gnu_cxx17__normal_iteratorIPKcNSt7__cxx1112basic_stringIcSt11char_traitsIcESaIcEEEEEEbRKSt16reverse_iteratorIT_ESF_, .Lfunc_end38-_ZStltIN9__gnu_cxx17__normal_iteratorIPKcNSt7__cxx1112basic_stringIcSt11char_traitsIcESaIcEEEEEEbRKSt16reverse_iteratorIT_ESF_
	.cfi_endproc

	.section	.text._ZNKSt7__cxx1112basic_stringIcSt11char_traitsIcESaIcEE4rendEv,"axG",@progbits,_ZNKSt7__cxx1112basic_stringIcSt11char_traitsIcESaIcEE4rendEv,comdat
	.weak	_ZNKSt7__cxx1112basic_stringIcSt11char_traitsIcESaIcEE4rendEv 
	.p2align	1, 0x90
	.type	_ZNKSt7__cxx1112basic_stringIcSt11char_traitsIcESaIcEE4rendEv,@function
_ZNKSt7__cxx1112basic_stringIcSt11char_traitsIcESaIcEE4rendEv: 

	mov	eax, dword ptr [rip + x.188]
	mov	ecx, dword ptr [rip + y.189]
	mov	edx, eax
	neg	edx
	not	edx
	imul	edx, eax
	not	edx
	or	edx, -2
	mov	eax, -1
	cmp	edx, eax
	sete	dl
	sete	byte ptr [rsp - 2]
	mov	r9d, 174835797
	mov	r8d, 1978312702
	mov	r10d, 1978312702
	cmove	r10d, r9d
	cmp	ecx, 10
	setl	cl
	setl	byte ptr [rsp - 1]
	cmovge	r10d, r8d
	xor	cl, dl
	cmovne	r10d, r9d
	mov	ecx, -1346553561
	mov	r9d, 1447311463
	jmp	.LBB39_1
.LBB39_5:                               
	cmp	ecx, 1447311463
	je	.LBB39_9

	cmp	ecx, 1978312702
	jne	.LBB39_1

	mov	rax, qword ptr [rsi]
	mov	qword ptr [rdi], rax
	mov	ecx, 1447311463
	jmp	.LBB39_1
.LBB39_8:                               
	mov	al, byte ptr [rsp - 2]
	mov	cl, byte ptr [rsp - 1]
	mov	edx, eax
	xor	dl, cl
	test	cl, cl
	mov	ecx, 1978312702
	cmovne	ecx, r9d
	test	al, al
	cmove	ecx, r8d
	test	dl, dl
	cmovne	ecx, r9d
	jmp	.LBB39_1
.LBB39_9:                               
	mov	rax, qword ptr [rsi]
	mov	qword ptr [rdi], rax
	mov	ecx, r10d
.LBB39_1:                               
	cmp	ecx, 1447311462
	jg	.LBB39_5

	cmp	ecx, -1346553561
	je	.LBB39_8

	cmp	ecx, 174835797
	jne	.LBB39_1

	mov	rax, rdi
	ret
.Lfunc_end39:
	.size	_ZNKSt7__cxx1112basic_stringIcSt11char_traitsIcESaIcEE4rendEv, .Lfunc_end39-_ZNKSt7__cxx1112basic_stringIcSt11char_traitsIcESaIcEE4rendEv

	.section	.text._ZNSt16reverse_iteratorIN9__gnu_cxx17__normal_iteratorIPKcNSt7__cxx1112basic_stringIcSt11char_traitsIcESaIcEEEEEEC2ERKSB_,"axG",@progbits,_ZNSt16reverse_iteratorIN9__gnu_cxx17__normal_iteratorIPKcNSt7__cxx1112basic_stringIcSt11char_traitsIcESaIcEEEEEEC2ERKSB_,comdat
	.weak	_ZNSt16reverse_iteratorIN9__gnu_cxx17__normal_iteratorIPKcNSt7__cxx1112basic_stringIcSt11char_traitsIcESaIcEEEEEEC2ERKSB_ 
	.p2align	1, 0x90
	.type	_ZNSt16reverse_iteratorIN9__gnu_cxx17__normal_iteratorIPKcNSt7__cxx1112basic_stringIcSt11char_traitsIcESaIcEEEEEEC2ERKSB_,@function
_ZNSt16reverse_iteratorIN9__gnu_cxx17__normal_iteratorIPKcNSt7__cxx1112basic_stringIcSt11char_traitsIcESaIcEEEEEEC2ERKSB_: 

	mov	eax, dword ptr [rip + x.194]
	lea	ecx, [rax - 1]
	imul	ecx, eax
	mov	eax, ecx
	xor	eax, -2
	test	eax, ecx
	sete	byte ptr [rsp - 2]
	mov	eax, dword ptr [rip + y.195]
	cmp	eax, 10
	setl	byte ptr [rsp - 1]
	mov	eax, 1970113374
	mov	r8d, 1665155547
	mov	r9d, -617745165
	mov	r10d, 1353869660
	jmp	.LBB40_1
.LBB40_6:                               
	cmp	eax, 1970113374
	jne	.LBB40_1

	mov	dl, byte ptr [rsp - 2]
	mov	al, byte ptr [rsp - 1]
	mov	ecx, edx
	xor	cl, al
	test	al, al
	mov	eax, -617745165
	cmovne	eax, r10d
	test	dl, dl
	cmove	eax, r9d
	test	cl, cl
	cmovne	eax, r10d
	jmp	.LBB40_1
.LBB40_9:                               
	mov	rax, qword ptr [rsi]
	mov	qword ptr [rdi], rax
	mov	eax, 1353869660
.LBB40_1:                               
	cmp	eax, 1665155546
	jg	.LBB40_5

	cmp	eax, -617745165
	je	.LBB40_9

	cmp	eax, 1353869660
	jne	.LBB40_1

	mov	rax, qword ptr [rsi]
	mov	qword ptr [rdi], rax
	mov	eax, dword ptr [rip + x.194]
	mov	ecx, eax
	neg	ecx
	not	ecx
	imul	ecx, eax
	mov	eax, ecx
	xor	eax, -2
	and	eax, ecx
	sete	cl
	test	eax, eax
	mov	eax, -617745165
	cmove	eax, r8d
	cmp	dword ptr [rip + y.195], 10
	setl	dl
	cmovge	eax, r9d
	xor	dl, cl
	cmovne	eax, r8d
	jmp	.LBB40_1
.LBB40_5:                               
	cmp	eax, 1665155547
	jne	.LBB40_6

	ret
.Lfunc_end40:
	.size	_ZNSt16reverse_iteratorIN9__gnu_cxx17__normal_iteratorIPKcNSt7__cxx1112basic_stringIcSt11char_traitsIcESaIcEEEEEEC2ERKSB_, .Lfunc_end40-_ZNSt16reverse_iteratorIN9__gnu_cxx17__normal_iteratorIPKcNSt7__cxx1112basic_stringIcSt11char_traitsIcESaIcEEEEEEC2ERKSB_

	.text
	.globl	_ZN3DES6cipherERKNSt7__cxx1112basic_stringIcSt11char_traitsIcESaIcEEES7_ 
	.p2align	1, 0x90
	.type	_ZN3DES6cipherERKNSt7__cxx1112basic_stringIcSt11char_traitsIcESaIcEEES7_,@function
_ZN3DES6cipherERKNSt7__cxx1112basic_stringIcSt11char_traitsIcESaIcEEES7_: 
.Lfunc_begin18:
	.cfi_startproc
	.cfi_personality 3, __gxx_personality_v0
	.cfi_lsda 3, .Lexception18

	push	rbp
.Lcfi300:
	.cfi_def_cfa_offset 16
	push	r15
.Lcfi301:
	.cfi_def_cfa_offset 24
	push	r14
.Lcfi302:
	.cfi_def_cfa_offset 32
	push	r13
.Lcfi303:
	.cfi_def_cfa_offset 40
	push	r12
.Lcfi304:
	.cfi_def_cfa_offset 48
	push	rbx
.Lcfi305:
	.cfi_def_cfa_offset 56
	sub	rsp, 56
.Lcfi306:
	.cfi_def_cfa_offset 112
.Lcfi307:
	.cfi_offset rbx, -56
.Lcfi308:
	.cfi_offset r12, -48
.Lcfi309:
	.cfi_offset r13, -40
.Lcfi310:
	.cfi_offset r14, -32
.Lcfi311:
	.cfi_offset r15, -24
.Lcfi312:
	.cfi_offset rbp, -16
	mov	qword ptr [rsp + 16], rdx 
	mov	rbx, rdi
	call	_ZN3DES12initialPermuERKNSt7__cxx1112basic_stringIcSt11char_traitsIcESaIcEEE
	lea	rsi, [rbx + 360]
	mov	rdi, rbx
	call	_ZN3DES5splitERKNSt7__cxx1112basic_stringIcSt11char_traitsIcESaIcEEE
	lea	r15, [rbx + 104]
	lea	rax, [rbx + 264]
	mov	qword ptr [rsp + 8], rax 
	lea	rbp, [rbx + 424]
	lea	r12, [rbx + 72]
	xor	r13d, r13d
	mov	r14d, 1
.LBB41_1:                               
	mov	rdi, rbx
	mov	rsi, qword ptr [rsp + 16] 
	mov	edx, r14d
	call	_ZN3DES6keygenERKNSt7__cxx1112basic_stringIcSt11char_traitsIcESaIcEEEi
	mov	rdi, rbx
	mov	rsi, r15
	mov	rdx, qword ptr [rsp + 8] 
	call	_ZN3DES6desFunERKNSt7__cxx1112basic_stringIcSt11char_traitsIcESaIcEEES7_
	mov	rdi, rbx
	mov	rsi, rbp
	mov	rdx, r12
	call	_ZN3DES5xor32ERKNSt7__cxx1112basic_stringIcSt11char_traitsIcESaIcEEES7_
	cmp	r14d, 16
	je	.LBB41_3

	mov	rdi, r12
	mov	rsi, r15
	call	_ZNSt7__cxx1112basic_stringIcSt11char_traitsIcESaIcEE4swapERS4_
.LBB41_3:                               
	inc	r13d
	mov	rdi, rbx
	call	_ZN3DES10showCipherEv
	inc	r14d
	cmp	r14d, 17
	jne	.LBB41_1

	lea	rbp, [rsp + 24]
	mov	rdi, rbp
	mov	rsi, r12
	mov	rdx, r15
	call	_ZStplIcSt11char_traitsIcESaIcEENSt7__cxx1112basic_stringIT_T0_T1_EERKS8_SA_
.Ltmp353:
	mov	rdi, rbx
	mov	rsi, rbp
	call	_ZN3DES10finalPermuERKNSt7__cxx1112basic_stringIcSt11char_traitsIcESaIcEEE
.Ltmp354:

.Ltmp359:
	lea	rdi, [rsp + 24]
	call	_ZNSt7__cxx1112basic_stringIcSt11char_traitsIcESaIcEE10_M_disposeEv
.Ltmp360:

	add	rsp, 56
	pop	rbx
	pop	r12
	pop	r13
	pop	r14
	pop	r15
	pop	rbp
	ret
.LBB41_10:
.Ltmp361:
	mov	rdi, rax
	call	__cxa_call_unexpected
.LBB41_8:
.Ltmp355:
	mov	rbx, rax
.Ltmp356:
	lea	rdi, [rsp + 24]
	call	_ZNSt7__cxx1112basic_stringIcSt11char_traitsIcESaIcEE10_M_disposeEv
.Ltmp357:

	mov	rdi, rbx
	call	_Unwind_Resume
.LBB41_7:
.Ltmp358:
	mov	rdi, rax
	call	__cxa_call_unexpected
.Lfunc_end41:
	.size	_ZN3DES6cipherERKNSt7__cxx1112basic_stringIcSt11char_traitsIcESaIcEEES7_, .Lfunc_end41-_ZN3DES6cipherERKNSt7__cxx1112basic_stringIcSt11char_traitsIcESaIcEEES7_
	.cfi_endproc
	.section	.gcc_except_table,"a",@progbits
	.p2align	2
GCC_except_table41:
.Lexception18:
	.byte	255                     
	.byte	3                       
	.asciz	"\322\200\200"          
	.byte	3                       
	.byte	78                      
	.long	.Lfunc_begin18-.Lfunc_begin18 
	.long	.Ltmp353-.Lfunc_begin18 
	.long	0                       
	.byte	0                       
	.long	.Ltmp353-.Lfunc_begin18 
	.long	.Ltmp354-.Ltmp353       
	.long	.Ltmp355-.Lfunc_begin18 
	.byte	0                       
	.long	.Ltmp359-.Lfunc_begin18 
	.long	.Ltmp360-.Ltmp359       
	.long	.Ltmp361-.Lfunc_begin18 
	.byte	1                       
	.long	.Ltmp360-.Lfunc_begin18 
	.long	.Ltmp356-.Ltmp360       
	.long	0                       
	.byte	0                       
	.long	.Ltmp356-.Lfunc_begin18 
	.long	.Ltmp357-.Ltmp356       
	.long	.Ltmp358-.Lfunc_begin18 
	.byte	1                       
	.long	.Ltmp357-.Lfunc_begin18 
	.long	.Lfunc_end41-.Ltmp357   
	.long	0                       
	.byte	0                       
	.byte	127                     

	.byte	0                       

	.byte	0
	.p2align	2

	.section	.text._ZNSt7__cxx1112basic_stringIcSt11char_traitsIcESaIcEE4swapERS4_,"axG",@progbits,_ZNSt7__cxx1112basic_stringIcSt11char_traitsIcESaIcEE4swapERS4_,comdat
	.weak	_ZNSt7__cxx1112basic_stringIcSt11char_traitsIcESaIcEE4swapERS4_ 
	.p2align	1, 0x90
	.type	_ZNSt7__cxx1112basic_stringIcSt11char_traitsIcESaIcEE4swapERS4_,@function
_ZNSt7__cxx1112basic_stringIcSt11char_traitsIcESaIcEE4swapERS4_: 
.Lfunc_begin19:
	.cfi_startproc
	.cfi_personality 3, __gxx_personality_v0
	.cfi_lsda 3, .Lexception19

	push	rbp
	push	r15
	push	r14
	push	r13
	push	r12
	push	rbx
	sub	rsp, 24
	mov	r14, rsi
	mov	rbp, rdi
	cmp	rbp, r14
	je	.LBB42_22

.Ltmp362:
	mov	rdi, rbp
	mov	rsi, r14
	call	_ZN9__gnu_cxx14__alloc_traitsISaIcEE10_S_on_swapERS1_S3_
.Ltmp363:

.Ltmp364:
	mov	rdi, rbp
	call	_ZNKSt7__cxx1112basic_stringIcSt11char_traitsIcESaIcEE11_M_is_localEv
.Ltmp365:

	test	al, al
	je	.LBB42_14

.Ltmp369:
	mov	rdi, r14
	call	_ZNKSt7__cxx1112basic_stringIcSt11char_traitsIcESaIcEE11_M_is_localEv
.Ltmp370:

	test	al, al
	je	.LBB42_13

	mov	rdi, rbp
	call	_ZNKSt7__cxx1112basic_stringIcSt11char_traitsIcESaIcEE6lengthEv
	test	rax, rax
	je	.LBB42_9

	mov	rdi, r14
	call	_ZNKSt7__cxx1112basic_stringIcSt11char_traitsIcESaIcEE6lengthEv
	test	rax, rax
	je	.LBB42_9

	lea	r15, [r14 + 16]
	mov	r12, rsp
	mov	edx, 16
	mov	rdi, r12
	mov	rsi, r15
	call	_ZNSt11char_traitsIcE4copyEPcPKcm
	lea	r13, [rbp + 16]
	mov	edx, 16
	mov	rdi, r15
	mov	rsi, r13
	call	_ZNSt11char_traitsIcE4copyEPcPKcm
	mov	edx, 16
	mov	rdi, r13
	mov	rsi, r12
	call	_ZNSt11char_traitsIcE4copyEPcPKcm
	jmp	.LBB42_21
.LBB42_14:
	mov	r15, qword ptr [rbp + 16]
.Ltmp366:
	mov	rdi, r14
	call	_ZNKSt7__cxx1112basic_stringIcSt11char_traitsIcESaIcEE11_M_is_localEv
.Ltmp367:

	test	al, al
	je	.LBB42_18

	lea	r12, [rbp + 16]
	lea	rsi, [r14 + 16]
	mov	edx, 16
	mov	rdi, r12
	call	_ZNSt11char_traitsIcE4copyEPcPKcm
	mov	rsi, qword ptr [rbp]
	mov	rdi, r14
	call	_ZNSt7__cxx1112basic_stringIcSt11char_traitsIcESaIcEE7_M_dataEPc
	mov	rdi, rbp
	mov	rsi, r12
	call	_ZNSt7__cxx1112basic_stringIcSt11char_traitsIcESaIcEE7_M_dataEPc
	jmp	.LBB42_19
.LBB42_13:
	lea	r15, [r14 + 16]
	mov	r12, qword ptr [r14 + 16]
	lea	rsi, [rbp + 16]
	mov	edx, 16
	mov	rdi, r15
	call	_ZNSt11char_traitsIcE4copyEPcPKcm
	mov	rsi, qword ptr [r14]
	mov	rdi, rbp
	call	_ZNSt7__cxx1112basic_stringIcSt11char_traitsIcESaIcEE7_M_dataEPc
	mov	rdi, r14
	mov	rsi, r15
	call	_ZNSt7__cxx1112basic_stringIcSt11char_traitsIcESaIcEE7_M_dataEPc
	mov	rdi, rbp
	mov	rsi, r12
	jmp	.LBB42_20
.LBB42_18:
	mov	r12, qword ptr [rbp]
	mov	rsi, qword ptr [r14]
	mov	rdi, rbp
	call	_ZNSt7__cxx1112basic_stringIcSt11char_traitsIcESaIcEE7_M_dataEPc
	mov	rdi, r14
	mov	rsi, r12
	call	_ZNSt7__cxx1112basic_stringIcSt11char_traitsIcESaIcEE7_M_dataEPc
	mov	rsi, qword ptr [r14 + 16]
	mov	rdi, rbp
	call	_ZNSt7__cxx1112basic_stringIcSt11char_traitsIcESaIcEE11_M_capacityEm
.LBB42_19:
	mov	rdi, r14
	mov	rsi, r15
.LBB42_20:
	call	_ZNSt7__cxx1112basic_stringIcSt11char_traitsIcESaIcEE11_M_capacityEm
.LBB42_21:
	mov	rdi, rbp
	call	_ZNKSt7__cxx1112basic_stringIcSt11char_traitsIcESaIcEE6lengthEv
	mov	rbx, rax
	mov	rdi, r14
	call	_ZNKSt7__cxx1112basic_stringIcSt11char_traitsIcESaIcEE6lengthEv
	mov	qword ptr [rbp + 8], rax
	mov	qword ptr [r14 + 8], rbx
.LBB42_22:
	add	rsp, 24
	pop	rbx
	pop	r12
	pop	r13
	pop	r14
	pop	r15
	pop	rbp
	ret
.LBB42_9:
	mov	rdi, r14
	call	_ZNKSt7__cxx1112basic_stringIcSt11char_traitsIcESaIcEE6lengthEv
	test	rax, rax
	je	.LBB42_11

	lea	rdi, [rbp + 16]
	lea	rsi, [r14 + 16]
	mov	edx, 16
	call	_ZNSt11char_traitsIcE4copyEPcPKcm
	mov	rdi, r14
	call	_ZNKSt7__cxx1112basic_stringIcSt11char_traitsIcESaIcEE6lengthEv
	mov	qword ptr [rbp + 8], rax
.Ltmp371:
	xor	esi, esi
	mov	rdi, r14
	call	_ZNSt7__cxx1112basic_stringIcSt11char_traitsIcESaIcEE13_M_set_lengthEm
.Ltmp372:
	jmp	.LBB42_22
.LBB42_11:
	mov	rdi, rbp
	call	_ZNKSt7__cxx1112basic_stringIcSt11char_traitsIcESaIcEE6lengthEv
	test	rax, rax
	je	.LBB42_21

	lea	rdi, [r14 + 16]
	lea	rsi, [rbp + 16]
	mov	edx, 16
	call	_ZNSt11char_traitsIcE4copyEPcPKcm
	mov	rdi, rbp
	call	_ZNKSt7__cxx1112basic_stringIcSt11char_traitsIcESaIcEE6lengthEv
	mov	qword ptr [r14 + 8], rax
.Ltmp373:
	xor	esi, esi
	mov	rdi, rbp
	call	_ZNSt7__cxx1112basic_stringIcSt11char_traitsIcESaIcEE13_M_set_lengthEm
.Ltmp374:
	jmp	.LBB42_22
.LBB42_17:
.Ltmp368:
	mov	rdi, rax
	call	__clang_call_terminate
.LBB42_23:
.Ltmp375:
	mov	rdi, rax
	call	__clang_call_terminate
.Lfunc_end42:
	.size	_ZNSt7__cxx1112basic_stringIcSt11char_traitsIcESaIcEE4swapERS4_, .Lfunc_end42-_ZNSt7__cxx1112basic_stringIcSt11char_traitsIcESaIcEE4swapERS4_
	.cfi_endproc
	.section	.gcc_except_table,"a",@progbits
	.p2align	2
GCC_except_table42:
.Lexception19:
	.byte	255                     
	.byte	3                       
	.asciz	"\257\200"              
	.byte	3                       
	.byte	39                      
	.long	.Ltmp362-.Lfunc_begin19 
	.long	.Ltmp370-.Ltmp362       
	.long	.Ltmp375-.Lfunc_begin19 
	.byte	1                       
	.long	.Ltmp366-.Lfunc_begin19 
	.long	.Ltmp367-.Ltmp366       
	.long	.Ltmp368-.Lfunc_begin19 
	.byte	1                       
	.long	.Ltmp371-.Lfunc_begin19 
	.long	.Ltmp374-.Ltmp371       
	.long	.Ltmp375-.Lfunc_begin19 
	.byte	1                       
	.byte	1                       

	.byte	0                       

	.long	0                       
	.p2align	2

	.text
	.globl	_ZN3DES10showCipherEv   
	.p2align	1, 0x90
	.type	_ZN3DES10showCipherEv,@function
_ZN3DES10showCipherEv:                  
.Lfunc_begin20:
	.cfi_startproc
	.cfi_personality 3, __gxx_personality_v0
	.cfi_lsda 3, .Lexception20

	push	r15
.Lcfi313:
	.cfi_def_cfa_offset 16
	push	r14
.Lcfi314:
	.cfi_def_cfa_offset 24
	push	rbx
.Lcfi315:
	.cfi_def_cfa_offset 32
	sub	rsp, 96
.Lcfi316:
	.cfi_def_cfa_offset 128
.Lcfi317:
	.cfi_offset rbx, -32
.Lcfi318:
	.cfi_offset r14, -24
.Lcfi319:
	.cfi_offset r15, -16
	mov	r14, rdi
	mov	edi, .L.str.38
	call	_ZNSt11char_traitsIcE6lengthEPKc
	mov	edi, _ZSt4cout
	mov	esi, .L.str.38
	mov	rdx, rax
	call	_ZSt16__ostream_insertIcSt11char_traitsIcEERSt13basic_ostreamIT_T0_ES6_PKS3_l
	mov	rax, qword ptr [rip + _ZSt4cout]
	mov	rax, qword ptr [rax - 24]
	mov	qword ptr [rax + _ZSt4cout+16], 4
	xor	eax, eax
	sub	eax, dword ptr [rip + _ZZN3DES10showCipherEvE5round]
	mov	esi, 1
	sub	esi, eax
	mov	dword ptr [rip + _ZZN3DES10showCipherEvE5round], esi
	mov	edi, _ZSt4cout
	call	_ZNSolsEi
	mov	rbx, rax
	mov	edi, .L.str.39
	call	_ZNSt11char_traitsIcE6lengthEPKc
	mov	esi, .L.str.39
	mov	rdi, rbx
	mov	rdx, rax
	call	_ZSt16__ostream_insertIcSt11char_traitsIcEERSt13basic_ostreamIT_T0_ES6_PKS3_l
	mov	rax, qword ptr [rbx]
	mov	rax, qword ptr [rax - 24]
	mov	qword ptr [rbx + rax + 16], 12
	lea	rsi, [r14 + 72]
	lea	r15, [rsp + 64]
	mov	rdi, r15
	call	_ZN3DES7bin2hexERKNSt7__cxx1112basic_stringIcSt11char_traitsIcESaIcEEE
	mov	rsi, qword ptr [r15]
	mov	rdx, qword ptr [r15 + 8]
.Ltmp376:
	mov	rdi, rbx
	call	_ZSt16__ostream_insertIcSt11char_traitsIcEERSt13basic_ostreamIT_T0_ES6_PKS3_l
	mov	rbx, rax
.Ltmp377:

	mov	rax, qword ptr [rbx]
	mov	rax, qword ptr [rax - 24]
	mov	qword ptr [rbx + rax + 16], 12
	lea	rsi, [r14 + 104]
.Ltmp379:
	lea	rdi, [rsp + 32]
	call	_ZN3DES7bin2hexERKNSt7__cxx1112basic_stringIcSt11char_traitsIcESaIcEEE
.Ltmp380:

	mov	rsi, qword ptr [rsp + 32]
	mov	rdx, qword ptr [rsp + 40]
.Ltmp382:
	mov	rdi, rbx
	call	_ZSt16__ostream_insertIcSt11char_traitsIcEERSt13basic_ostreamIT_T0_ES6_PKS3_l
	mov	rbx, rax
.Ltmp383:

	mov	rax, qword ptr [rbx]
	mov	rax, qword ptr [rax - 24]
	mov	qword ptr [rbx + rax + 16], 14
	add	r14, 264
.Ltmp385:
	mov	rdi, rsp
	mov	rsi, r14
	call	_ZN3DES7bin2hexERKNSt7__cxx1112basic_stringIcSt11char_traitsIcESaIcEEE
.Ltmp386:

	mov	rsi, qword ptr [rsp]
	mov	rdx, qword ptr [rsp + 8]
.Ltmp388:
	mov	rdi, rbx
	call	_ZSt16__ostream_insertIcSt11char_traitsIcEERSt13basic_ostreamIT_T0_ES6_PKS3_l
	mov	rbx, rax
.Ltmp389:

	mov	rax, qword ptr [rbx]
	mov	rdi, qword ptr [rax - 24]
	add	rdi, rbx
.Ltmp390:
	mov	esi, 10
	call	_ZNKSt9basic_iosIcSt11char_traitsIcEE5widenEc
.Ltmp391:

.Ltmp392:
	movsx	esi, al
	mov	rdi, rbx
	call	_ZNSo3putEc
.Ltmp393:

.Ltmp394:
	mov	rdi, rax
	call	_ZNSo5flushEv
.Ltmp395:

.Ltmp406:
	mov	rdi, rsp
	call	_ZNSt7__cxx1112basic_stringIcSt11char_traitsIcESaIcEE10_M_disposeEv
.Ltmp407:

.Ltmp409:
	lea	rdi, [rsp + 32]
	call	_ZNSt7__cxx1112basic_stringIcSt11char_traitsIcESaIcEE10_M_disposeEv
.Ltmp410:

.Ltmp412:
	lea	rdi, [rsp + 64]
	call	_ZNSt7__cxx1112basic_stringIcSt11char_traitsIcESaIcEE10_M_disposeEv
.Ltmp413:

	add	rsp, 96
	pop	rbx
	pop	r14
	pop	r15
	ret
.LBB43_26:
.Ltmp414:
	mov	rdi, rax
	call	__cxa_call_unexpected
.LBB43_25:
.Ltmp411:
	mov	rdi, rax
	call	__cxa_call_unexpected
.LBB43_24:
.Ltmp408:
	mov	rdi, rax
	call	__cxa_call_unexpected
.LBB43_16:
.Ltmp387:
	jmp	.LBB43_17
.LBB43_13:
.Ltmp384:
.LBB43_17:
	mov	rbx, rax
	jmp	.LBB43_18
.LBB43_20:
.Ltmp381:
	jmp	.LBB43_21
.LBB43_12:
.Ltmp378:
.LBB43_21:
	mov	rbx, rax
	jmp	.LBB43_22
.LBB43_14:
.Ltmp396:
	mov	rbx, rax
.Ltmp397:
	mov	rdi, rsp
	call	_ZNSt7__cxx1112basic_stringIcSt11char_traitsIcESaIcEE10_M_disposeEv
.Ltmp398:
.LBB43_18:
.Ltmp400:
	lea	rdi, [rsp + 32]
	call	_ZNSt7__cxx1112basic_stringIcSt11char_traitsIcESaIcEE10_M_disposeEv
.Ltmp401:
.LBB43_22:
.Ltmp403:
	lea	rdi, [rsp + 64]
	call	_ZNSt7__cxx1112basic_stringIcSt11char_traitsIcESaIcEE10_M_disposeEv
.Ltmp404:

	mov	rdi, rbx
	call	_Unwind_Resume
.LBB43_15:
.Ltmp399:
	mov	rdi, rax
	call	__cxa_call_unexpected
.LBB43_19:
.Ltmp402:
	mov	rdi, rax
	call	__cxa_call_unexpected
.LBB43_27:
.Ltmp405:
	mov	rdi, rax
	call	__cxa_call_unexpected
.Lfunc_end43:
	.size	_ZN3DES10showCipherEv, .Lfunc_end43-_ZN3DES10showCipherEv
	.cfi_endproc
	.section	.gcc_except_table,"a",@progbits
	.p2align	2
GCC_except_table43:
.Lexception20:
	.byte	255                     
	.byte	3                       
	.asciz	"\273\201"              
	.byte	3                       
	.ascii	"\266\001"              
	.long	.Lfunc_begin20-.Lfunc_begin20 
	.long	.Ltmp376-.Lfunc_begin20 
	.long	0                       
	.byte	0                       
	.long	.Ltmp376-.Lfunc_begin20 
	.long	.Ltmp377-.Ltmp376       
	.long	.Ltmp378-.Lfunc_begin20 
	.byte	0                       
	.long	.Ltmp379-.Lfunc_begin20 
	.long	.Ltmp380-.Ltmp379       
	.long	.Ltmp381-.Lfunc_begin20 
	.byte	0                       
	.long	.Ltmp382-.Lfunc_begin20 
	.long	.Ltmp383-.Ltmp382       
	.long	.Ltmp384-.Lfunc_begin20 
	.byte	0                       
	.long	.Ltmp385-.Lfunc_begin20 
	.long	.Ltmp386-.Ltmp385       
	.long	.Ltmp387-.Lfunc_begin20 
	.byte	0                       
	.long	.Ltmp388-.Lfunc_begin20 
	.long	.Ltmp395-.Ltmp388       
	.long	.Ltmp396-.Lfunc_begin20 
	.byte	0                       
	.long	.Ltmp406-.Lfunc_begin20 
	.long	.Ltmp407-.Ltmp406       
	.long	.Ltmp408-.Lfunc_begin20 
	.byte	1                       
	.long	.Ltmp409-.Lfunc_begin20 
	.long	.Ltmp410-.Ltmp409       
	.long	.Ltmp411-.Lfunc_begin20 
	.byte	1                       
	.long	.Ltmp412-.Lfunc_begin20 
	.long	.Ltmp413-.Ltmp412       
	.long	.Ltmp414-.Lfunc_begin20 
	.byte	1                       
	.long	.Ltmp413-.Lfunc_begin20 
	.long	.Ltmp397-.Ltmp413       
	.long	0                       
	.byte	0                       
	.long	.Ltmp397-.Lfunc_begin20 
	.long	.Ltmp398-.Ltmp397       
	.long	.Ltmp399-.Lfunc_begin20 
	.byte	1                       
	.long	.Ltmp400-.Lfunc_begin20 
	.long	.Ltmp401-.Ltmp400       
	.long	.Ltmp402-.Lfunc_begin20 
	.byte	1                       
	.long	.Ltmp403-.Lfunc_begin20 
	.long	.Ltmp404-.Ltmp403       
	.long	.Ltmp405-.Lfunc_begin20 
	.byte	1                       
	.long	.Ltmp404-.Lfunc_begin20 
	.long	.Lfunc_end43-.Ltmp404   
	.long	0                       
	.byte	0                       
	.byte	127                     

	.byte	0                       

	.byte	0
	.p2align	2

	.text
	.globl	_ZN3DES8decipherERKNSt7__cxx1112basic_stringIcSt11char_traitsIcESaIcEEES7_ 
	.p2align	1, 0x90
	.type	_ZN3DES8decipherERKNSt7__cxx1112basic_stringIcSt11char_traitsIcESaIcEEES7_,@function
_ZN3DES8decipherERKNSt7__cxx1112basic_stringIcSt11char_traitsIcESaIcEEES7_: 

	ret
.Lfunc_end44:
	.size	_ZN3DES8decipherERKNSt7__cxx1112basic_stringIcSt11char_traitsIcESaIcEEES7_, .Lfunc_end44-_ZN3DES8decipherERKNSt7__cxx1112basic_stringIcSt11char_traitsIcESaIcEEES7_

	.section	.text._ZNKSt5arrayIiLm64EE4dataEv,"axG",@progbits,_ZNKSt5arrayIiLm64EE4dataEv,comdat
	.weak	_ZNKSt5arrayIiLm64EE4dataEv 
	.p2align	1, 0x90
	.type	_ZNKSt5arrayIiLm64EE4dataEv,@function
_ZNKSt5arrayIiLm64EE4dataEv:            

	mov	eax, dword ptr [rip + x.208]
	mov	esi, dword ptr [rip + y.209]
	mov	ecx, eax
	neg	ecx
	not	ecx
	imul	ecx, eax
	mov	eax, ecx
	xor	eax, -2
	and	eax, ecx
	sete	dl
	sete	byte ptr [rsp - 10]
	test	eax, eax
	mov	r9d, 2076674351
	mov	r8d, -747326521
	mov	ecx, -747326521
	cmove	ecx, r9d
	cmp	esi, 10
	setl	al
	setl	byte ptr [rsp - 9]
	cmovge	ecx, r8d
	xor	al, dl
	cmovne	ecx, r9d
	mov	esi, 50687530
	mov	r9d, 475320560
	jmp	.LBB45_1
.LBB45_8:                               
	mov	esi, 475320560
	jmp	.LBB45_1
.LBB45_9:                               
	mov	qword ptr [rsp - 8], rdi
	mov	esi, ecx
.LBB45_1:                               
	cmp	esi, 475320559
	jg	.LBB45_5

	cmp	esi, -747326521
	je	.LBB45_8

	cmp	esi, 50687530
	jne	.LBB45_1

	mov	r10b, byte ptr [rsp - 10]
	mov	dl, byte ptr [rsp - 9]
	mov	eax, r10d
	xor	al, dl
	test	dl, dl
	mov	esi, -747326521
	cmovne	esi, r9d
	test	r10b, r10b
	cmove	esi, r8d
	test	al, al
	cmovne	esi, r9d
	jmp	.LBB45_1
.LBB45_5:                               
	cmp	esi, 475320560
	je	.LBB45_9

	cmp	esi, 2076674351
	jne	.LBB45_1

	mov	rax, qword ptr [rsp - 8]
	ret
.Lfunc_end45:
	.size	_ZNKSt5arrayIiLm64EE4dataEv, .Lfunc_end45-_ZNKSt5arrayIiLm64EE4dataEv

	.section	.text._ZSt10__distanceIN9__gnu_cxx17__normal_iteratorIPKcNSt7__cxx1112basic_stringIcSt11char_traitsIcESaIcEEEEEENSt15iterator_traitsIT_E15difference_typeESC_SC_St26random_access_iterator_tag,"axG",@progbits,_ZSt10__distanceIN9__gnu_cxx17__normal_iteratorIPKcNSt7__cxx1112basic_stringIcSt11char_traitsIcESaIcEEEEEENSt15iterator_traitsIT_E15difference_typeESC_SC_St26random_access_iterator_tag,comdat
	.weak	_ZSt10__distanceIN9__gnu_cxx17__normal_iteratorIPKcNSt7__cxx1112basic_stringIcSt11char_traitsIcESaIcEEEEEENSt15iterator_traitsIT_E15difference_typeESC_SC_St26random_access_iterator_tag 
	.type	_ZSt10__distanceIN9__gnu_cxx17__normal_iteratorIPKcNSt7__cxx1112basic_stringIcSt11char_traitsIcESaIcEEEEEENSt15iterator_traitsIT_E15difference_typeESC_SC_St26random_access_iterator_tag,@function
_ZSt10__distanceIN9__gnu_cxx17__normal_iteratorIPKcNSt7__cxx1112basic_stringIcSt11char_traitsIcESaIcEEEEEENSt15iterator_traitsIT_E15difference_typeESC_SC_St26random_access_iterator_tag: 

	push	rbp
	mov	rbp, rsp
	push	r15
	push	r14
	push	r13
	push	r12
	push	rbx
	sub	rsp, 24
	mov	r13, rsi
	mov	r15, rdi
	mov	eax, dword ptr [rip + x.212]
	mov	ecx, eax
	neg	ecx
	not	ecx
	imul	ecx, eax
	not	ecx
	or	ecx, -2
	mov	eax, -1
	cmp	ecx, eax
	sete	byte ptr [rbp - 43]
	mov	eax, dword ptr [rip + y.213]
	cmp	eax, 10
	setl	byte ptr [rbp - 44]
	mov	eax, -669451847
	jmp	.LBB46_1
.LBB46_6:                               
	cmp	eax, 1917364563
	jne	.LBB46_1

	mov	rax, rsp
	lea	rbx, [rax - 16]
	mov	rsp, rbx
	mov	rcx, rsp
	lea	r14, [rcx - 16]
	mov	rsp, r14
	mov	qword ptr [rax - 16], r15
	mov	qword ptr [rcx - 16], r13
	mov	eax, dword ptr [rip + x.216]
	mov	ecx, dword ptr [rip + y.217]
	lea	edx, [rax - 1]
	imul	edx, eax
	mov	eax, edx
	xor	eax, -2
	test	eax, edx
	sete	byte ptr [rbp - 41]
	cmp	ecx, 10
	setl	byte ptr [rbp - 42]
	mov	ecx, -1449134958
	jmp	.LBB46_8
.LBB46_10:                              
	cmp	ecx, -1578638305
	jne	.LBB46_8

	mov	rdi, r14
	call	_ZNK9__gnu_cxx17__normal_iteratorIPKcNSt7__cxx1112basic_stringIcSt11char_traitsIcESaIcEEEE4baseEv
	mov	rdi, rbx
	call	_ZNK9__gnu_cxx17__normal_iteratorIPKcNSt7__cxx1112basic_stringIcSt11char_traitsIcESaIcEEEE4baseEv
	mov	ecx, 1053226048
	jmp	.LBB46_8
.LBB46_12:                              
	cmp	ecx, 1053226048
	je	.LBB46_15

	cmp	ecx, -1449134958
	jne	.LBB46_8

	mov	al, byte ptr [rbp - 41]
	mov	cl, byte ptr [rbp - 42]
	mov	edx, eax
	xor	dl, cl
	test	cl, cl
	mov	ecx, -1578638305
	mov	esi, 1053226048
	cmovne	ecx, esi
	test	al, al
	mov	eax, -1578638305
	cmove	ecx, eax
	test	dl, dl
	cmovne	ecx, esi
	jmp	.LBB46_8
.LBB46_15:                              
	mov	rdi, r14
	call	_ZNK9__gnu_cxx17__normal_iteratorIPKcNSt7__cxx1112basic_stringIcSt11char_traitsIcESaIcEEEE4baseEv
	mov	r12, r15
	mov	r15, r13
	mov	r13, qword ptr [rax]
	mov	rdi, rbx
	call	_ZNK9__gnu_cxx17__normal_iteratorIPKcNSt7__cxx1112basic_stringIcSt11char_traitsIcESaIcEEEE4baseEv
	mov	ecx, dword ptr [rip + x.216]
	mov	edi, dword ptr [rip + y.217]
	lea	esi, [rcx - 1]
	imul	esi, ecx
	mov	ecx, esi
	xor	ecx, -2
	and	ecx, esi
	mov	rsi, rbx
	sete	bl
	cmp	edi, 10
	setl	dl
	xor	dl, bl
	mov	rbx, rsi
	mov	edx, -1578638305
	mov	esi, -2005323446
	cmovne	edx, esi
	test	ecx, ecx
	mov	ecx, edx
	cmove	ecx, esi
	cmp	edi, 10
	cmovge	ecx, edx
	movabs	rdx, 4820754197131949250
	sub	r13, rdx
	sub	r13, qword ptr [rax]
	add	r13, rdx
	mov	qword ptr [rbp - 56], r13
	mov	r13, r15
	mov	r15, r12
.LBB46_8:                               

	cmp	ecx, -1449134959
	jg	.LBB46_12

	cmp	ecx, -2005323446
	jne	.LBB46_10

	mov	rax, qword ptr [rbp - 56]
	mov	qword ptr [rbp - 64], rax
	mov	eax, dword ptr [rip + x.212]
	lea	ecx, [rax - 1]
	imul	ecx, eax
	not	ecx
	or	ecx, -2
	mov	eax, -1
	cmp	ecx, eax
	sete	cl
	mov	eax, -1814289631
	mov	edi, 1458791572
	cmove	eax, edi
	cmp	dword ptr [rip + y.213], 10
	setl	dl
	mov	esi, -1814289631
	cmovge	eax, esi
	xor	dl, cl
	cmovne	eax, edi
	jmp	.LBB46_1
.LBB46_18:                              
	mov	rax, rsp
	lea	r12, [rax - 16]
	mov	rsp, r12
	mov	rcx, rsp
	lea	r14, [rcx - 16]
	mov	rsp, r14
	mov	qword ptr [rax - 16], r15
	mov	qword ptr [rcx - 16], r13
	mov	eax, dword ptr [rip + x.216]
	mov	ecx, dword ptr [rip + y.217]
	lea	edx, [rax - 1]
	imul	edx, eax
	mov	eax, edx
	xor	eax, -2
	test	eax, edx
	sete	byte ptr [rbp - 41]
	cmp	ecx, 10
	setl	byte ptr [rbp - 42]
	mov	ecx, -1449134958
	jmp	.LBB46_19
.LBB46_21:                              
	cmp	ecx, -1578638305
	jne	.LBB46_19

	mov	rdi, r14
	call	_ZNK9__gnu_cxx17__normal_iteratorIPKcNSt7__cxx1112basic_stringIcSt11char_traitsIcESaIcEEEE4baseEv
	mov	rdi, r12
	call	_ZNK9__gnu_cxx17__normal_iteratorIPKcNSt7__cxx1112basic_stringIcSt11char_traitsIcESaIcEEEE4baseEv
	mov	ecx, 1053226048
	jmp	.LBB46_19
.LBB46_23:                              
	cmp	ecx, 1053226048
	je	.LBB46_26

	cmp	ecx, -1449134958
	jne	.LBB46_19

	mov	al, byte ptr [rbp - 41]
	mov	cl, byte ptr [rbp - 42]
	mov	edx, eax
	xor	dl, cl
	mov	edx, -1578638305
	mov	esi, 1053226048
	cmovne	edx, esi
	test	cl, cl
	mov	ecx, edx
	cmovne	ecx, esi
	test	al, al
	cmove	ecx, edx
	jmp	.LBB46_19
.LBB46_26:                              
	mov	rdi, r14
	call	_ZNK9__gnu_cxx17__normal_iteratorIPKcNSt7__cxx1112basic_stringIcSt11char_traitsIcESaIcEEEE4baseEv
	mov	rbx, qword ptr [rax]
	mov	rdi, r12
	call	_ZNK9__gnu_cxx17__normal_iteratorIPKcNSt7__cxx1112basic_stringIcSt11char_traitsIcESaIcEEEE4baseEv
	mov	ecx, dword ptr [rip + x.216]
	mov	edi, dword ptr [rip + y.217]
	mov	esi, ecx
	neg	esi
	not	esi
	imul	esi, ecx
	mov	ecx, esi
	xor	ecx, -2
	and	ecx, esi
	sete	sil
	cmp	edi, 10
	setl	dl
	xor	dl, sil
	mov	edx, -1578638305
	mov	esi, -2005323446
	cmovne	edx, esi
	test	ecx, ecx
	mov	ecx, edx
	cmove	ecx, esi
	cmp	edi, 10
	cmovge	ecx, edx
	sub	rbx, qword ptr [rax]
	mov	qword ptr [rbp - 56], rbx
.LBB46_19:                              

	cmp	ecx, -1449134959
	jg	.LBB46_23

	cmp	ecx, -2005323446
	jne	.LBB46_21

	mov	rax, qword ptr [rbp - 56]
	mov	eax, 1917364563
.LBB46_1:                               


	cmp	eax, 1458791571
	jg	.LBB46_5

	cmp	eax, -1814289631
	je	.LBB46_18

	cmp	eax, -669451847
	jne	.LBB46_1

	mov	cl, byte ptr [rbp - 43]
	mov	al, byte ptr [rbp - 44]
	mov	edx, ecx
	xor	dl, al
	mov	edx, -1814289631
	mov	esi, 1917364563
	cmovne	edx, esi
	test	al, al
	mov	eax, edx
	cmovne	eax, esi
	test	cl, cl
	cmove	eax, edx
	jmp	.LBB46_1
.LBB46_5:                               
	cmp	eax, 1458791572
	jne	.LBB46_6

	mov	rax, qword ptr [rbp - 64]
	lea	rsp, [rbp - 40]
	pop	rbx
	pop	r12
	pop	r13
	pop	r14
	pop	r15
	pop	rbp
	ret
.Lfunc_end46:
	.size	_ZSt10__distanceIN9__gnu_cxx17__normal_iteratorIPKcNSt7__cxx1112basic_stringIcSt11char_traitsIcESaIcEEEEEENSt15iterator_traitsIT_E15difference_typeESC_SC_St26random_access_iterator_tag, .Lfunc_end46-_ZSt10__distanceIN9__gnu_cxx17__normal_iteratorIPKcNSt7__cxx1112basic_stringIcSt11char_traitsIcESaIcEEEEEENSt15iterator_traitsIT_E15difference_typeESC_SC_St26random_access_iterator_tag

	.section	.text._ZNK9__gnu_cxx17__normal_iteratorIPKcNSt7__cxx1112basic_stringIcSt11char_traitsIcESaIcEEEE4baseEv,"axG",@progbits,_ZNK9__gnu_cxx17__normal_iteratorIPKcNSt7__cxx1112basic_stringIcSt11char_traitsIcESaIcEEEE4baseEv,comdat
	.weak	_ZNK9__gnu_cxx17__normal_iteratorIPKcNSt7__cxx1112basic_stringIcSt11char_traitsIcESaIcEEEE4baseEv 
	.p2align	1, 0x90
	.type	_ZNK9__gnu_cxx17__normal_iteratorIPKcNSt7__cxx1112basic_stringIcSt11char_traitsIcESaIcEEEE4baseEv,@function
_ZNK9__gnu_cxx17__normal_iteratorIPKcNSt7__cxx1112basic_stringIcSt11char_traitsIcESaIcEEEE4baseEv: 

	mov	eax, dword ptr [rip + x.218]
	mov	ecx, dword ptr [rip + y.219]
	lea	edx, [rax - 1]
	imul	edx, eax
	mov	eax, edx
	xor	eax, -2
	and	eax, edx
	sete	dl
	sete	byte ptr [rsp - 10]
	test	eax, eax
	mov	esi, 1759717146
	mov	r8d, -1756576181
	mov	eax, -1756576181
	cmove	eax, esi
	cmp	ecx, 10
	setl	cl
	setl	byte ptr [rsp - 9]
	cmovge	eax, r8d
	xor	cl, dl
	cmovne	eax, esi
	mov	edx, 265746163
	mov	esi, 1306299966
	jmp	.LBB47_1
.LBB47_8:                               
	mov	edx, 1306299966
	jmp	.LBB47_1
.LBB47_9:                               
	mov	qword ptr [rsp - 8], rdi
	mov	edx, eax
.LBB47_1:                               
	cmp	edx, 1306299965
	jg	.LBB47_5

	cmp	edx, -1756576181
	je	.LBB47_8

	cmp	edx, 265746163
	jne	.LBB47_1

	mov	r8b, byte ptr [rsp - 10]
	mov	dl, byte ptr [rsp - 9]
	mov	ecx, r8d
	xor	cl, dl
	mov	ecx, -1756576181
	cmovne	ecx, esi
	test	dl, dl
	mov	edx, ecx
	cmovne	edx, esi
	test	r8b, r8b
	cmove	edx, ecx
	jmp	.LBB47_1
.LBB47_5:                               
	cmp	edx, 1306299966
	je	.LBB47_9

	cmp	edx, 1759717146
	jne	.LBB47_1

	mov	rax, qword ptr [rsp - 8]
	ret
.Lfunc_end47:
	.size	_ZNK9__gnu_cxx17__normal_iteratorIPKcNSt7__cxx1112basic_stringIcSt11char_traitsIcESaIcEEEE4baseEv, .Lfunc_end47-_ZNK9__gnu_cxx17__normal_iteratorIPKcNSt7__cxx1112basic_stringIcSt11char_traitsIcESaIcEEEE4baseEv

	.section	.text.__clang_call_terminate,"axG",@progbits,__clang_call_terminate,comdat
	.hidden	__clang_call_terminate  
	.weak	__clang_call_terminate
	.p2align	4, 0x90
	.type	__clang_call_terminate,@function
__clang_call_terminate:                 

	push	rax
	call	__cxa_begin_catch
	call	_ZSt9terminatev
.Lfunc_end48:
	.size	__clang_call_terminate, .Lfunc_end48-__clang_call_terminate

	.section	.text._ZNKSt5arrayIiLm32EE4dataEv,"axG",@progbits,_ZNKSt5arrayIiLm32EE4dataEv,comdat
	.weak	_ZNKSt5arrayIiLm32EE4dataEv 
	.p2align	1, 0x90
	.type	_ZNKSt5arrayIiLm32EE4dataEv,@function
_ZNKSt5arrayIiLm32EE4dataEv:            

	mov	eax, dword ptr [rip + x.228]
	mov	ecx, dword ptr [rip + y.229]
	lea	edx, [rax - 1]
	imul	edx, eax
	not	edx
	or	edx, -2
	mov	eax, -1
	cmp	edx, eax
	sete	dl
	sete	byte ptr [rsp - 10]
	mov	esi, 1190269211
	mov	r8d, 503708007
	mov	eax, 503708007
	cmove	eax, esi
	cmp	ecx, 10
	setl	cl
	setl	byte ptr [rsp - 9]
	cmovge	eax, r8d
	xor	cl, dl
	cmovne	eax, esi
	mov	edx, 1727653487
	mov	esi, -650455608
	jmp	.LBB49_1
.LBB49_6:                               
	cmp	edx, 1727653487
	jne	.LBB49_1

	mov	r8b, byte ptr [rsp - 10]
	mov	dl, byte ptr [rsp - 9]
	mov	ecx, r8d
	xor	cl, dl
	mov	ecx, 503708007
	cmovne	ecx, esi
	test	dl, dl
	mov	edx, ecx
	cmovne	edx, esi
	test	r8b, r8b
	cmove	edx, ecx
	jmp	.LBB49_1
.LBB49_8:                               
	mov	qword ptr [rsp - 8], rdi
	mov	edx, eax
.LBB49_1:                               
	cmp	edx, 1190269210
	jg	.LBB49_5

	cmp	edx, -650455608
	je	.LBB49_8

	cmp	edx, 503708007
	jne	.LBB49_1

	mov	edx, -650455608
	jmp	.LBB49_1
.LBB49_5:                               
	cmp	edx, 1190269211
	jne	.LBB49_6

	mov	rax, qword ptr [rsp - 8]
	ret
.Lfunc_end49:
	.size	_ZNKSt5arrayIiLm32EE4dataEv, .Lfunc_end49-_ZNKSt5arrayIiLm32EE4dataEv

	.section	.text._ZN9__gnu_cxx17__normal_iteratorIPKcNSt7__cxx1112basic_stringIcSt11char_traitsIcESaIcEEEEmmEv,"axG",@progbits,_ZN9__gnu_cxx17__normal_iteratorIPKcNSt7__cxx1112basic_stringIcSt11char_traitsIcESaIcEEEEmmEv,comdat
	.weak	_ZN9__gnu_cxx17__normal_iteratorIPKcNSt7__cxx1112basic_stringIcSt11char_traitsIcESaIcEEEEmmEv 
	.p2align	1, 0x90
	.type	_ZN9__gnu_cxx17__normal_iteratorIPKcNSt7__cxx1112basic_stringIcSt11char_traitsIcESaIcEEEEmmEv,@function
_ZN9__gnu_cxx17__normal_iteratorIPKcNSt7__cxx1112basic_stringIcSt11char_traitsIcESaIcEEEEmmEv: 

	mov	eax, dword ptr [rip + x.242]
	lea	ecx, [rax - 1]
	imul	ecx, eax
	not	ecx
	or	ecx, -2
	mov	eax, -1
	cmp	ecx, eax
	sete	byte ptr [rsp - 2]
	mov	eax, dword ptr [rip + y.243]
	cmp	eax, 10
	setl	byte ptr [rsp - 1]
	mov	esi, -10575465
	mov	r8d, 563068351
	mov	r9d, 1324312713
	mov	r10d, 1869499684
	jmp	.LBB50_1
.LBB50_8:                               
	mov	dl, byte ptr [rsp - 2]
	mov	cl, byte ptr [rsp - 1]
	mov	eax, edx
	xor	al, cl
	test	cl, cl
	mov	esi, 1324312713
	cmovne	esi, r8d
	test	dl, dl
	cmove	esi, r9d
	test	al, al
	cmovne	esi, r8d
	jmp	.LBB50_1
.LBB50_9:                               
	dec	qword ptr [rdi]
	mov	esi, 563068351
.LBB50_1:                               
	cmp	esi, 1324312712
	jg	.LBB50_5

	cmp	esi, -10575465
	je	.LBB50_8

	cmp	esi, 563068351
	jne	.LBB50_1

	dec	qword ptr [rdi]
	mov	eax, dword ptr [rip + x.242]
	lea	ecx, [rax - 1]
	imul	ecx, eax
	mov	eax, ecx
	xor	eax, -2
	and	eax, ecx
	sete	cl
	test	eax, eax
	mov	esi, 1324312713
	cmove	esi, r10d
	cmp	dword ptr [rip + y.243], 10
	setl	al
	cmovge	esi, r9d
	xor	al, cl
	cmovne	esi, r10d
	jmp	.LBB50_1
.LBB50_5:                               
	cmp	esi, 1324312713
	je	.LBB50_9

	cmp	esi, 1869499684
	jne	.LBB50_1

	mov	rax, rdi
	ret
.Lfunc_end50:
	.size	_ZN9__gnu_cxx17__normal_iteratorIPKcNSt7__cxx1112basic_stringIcSt11char_traitsIcESaIcEEEEmmEv, .Lfunc_end50-_ZN9__gnu_cxx17__normal_iteratorIPKcNSt7__cxx1112basic_stringIcSt11char_traitsIcESaIcEEEEmmEv

	.section	.text._ZStmiIN9__gnu_cxx17__normal_iteratorIPKcNSt7__cxx1112basic_stringIcSt11char_traitsIcESaIcEEEEESA_EDTmicldtfp0_4baseEcldtfp_4baseEERKSt16reverse_iteratorIT_ERKSC_IT0_E,"axG",@progbits,_ZStmiIN9__gnu_cxx17__normal_iteratorIPKcNSt7__cxx1112basic_stringIcSt11char_traitsIcESaIcEEEEESA_EDTmicldtfp0_4baseEcldtfp_4baseEERKSt16reverse_iteratorIT_ERKSC_IT0_E,comdat
	.weak	_ZStmiIN9__gnu_cxx17__normal_iteratorIPKcNSt7__cxx1112basic_stringIcSt11char_traitsIcESaIcEEEEESA_EDTmicldtfp0_4baseEcldtfp_4baseEERKSt16reverse_iteratorIT_ERKSC_IT0_E 
	.type	_ZStmiIN9__gnu_cxx17__normal_iteratorIPKcNSt7__cxx1112basic_stringIcSt11char_traitsIcESaIcEEEEESA_EDTmicldtfp0_4baseEcldtfp_4baseEERKSt16reverse_iteratorIT_ERKSC_IT0_E,@function
_ZStmiIN9__gnu_cxx17__normal_iteratorIPKcNSt7__cxx1112basic_stringIcSt11char_traitsIcESaIcEEEEESA_EDTmicldtfp0_4baseEcldtfp_4baseEERKSt16reverse_iteratorIT_ERKSC_IT0_E: 

	push	rbp
	push	r15
	push	r14
	push	r13
	push	r12
	push	rbx
	sub	rsp, 40
	mov	rax, qword ptr [rsi]
	lea	r14, [rsp + 32]
	mov	qword ptr [r14], rax
	mov	rax, qword ptr [rdi]
	lea	r13, [rsp + 24]
	mov	ecx, dword ptr [rip + x.216]
	lea	edx, [rcx - 1]
	imul	edx, ecx
	not	edx
	or	edx, -2
	mov	ebp, -1
	cmp	edx, ebp
	sete	byte ptr [rsp + 14]
	mov	ecx, dword ptr [rip + y.217]
	cmp	ecx, 10
	setl	byte ptr [rsp + 15]
	mov	qword ptr [r13], rax
	mov	ecx, -1449134958
	mov	r15d, -2005323446
	mov	r12d, 1053226048
	jmp	.LBB51_1
.LBB51_3:                               
	cmp	ecx, -1578638305
	jne	.LBB51_1

	mov	rdi, r14
	call	_ZNK9__gnu_cxx17__normal_iteratorIPKcNSt7__cxx1112basic_stringIcSt11char_traitsIcESaIcEEEE4baseEv
	mov	rdi, r13
	call	_ZNK9__gnu_cxx17__normal_iteratorIPKcNSt7__cxx1112basic_stringIcSt11char_traitsIcESaIcEEEE4baseEv
	mov	ecx, 1053226048
	jmp	.LBB51_1
.LBB51_5:                               
	cmp	ecx, 1053226048
	je	.LBB51_8

	cmp	ecx, -1449134958
	jne	.LBB51_1

	mov	al, byte ptr [rsp + 14]
	mov	cl, byte ptr [rsp + 15]
	mov	edx, eax
	xor	dl, cl
	mov	edx, -1578638305
	cmovne	edx, r12d
	test	cl, cl
	mov	ecx, edx
	cmovne	ecx, r12d
	test	al, al
	cmove	ecx, edx
	jmp	.LBB51_1
.LBB51_8:                               
	mov	rdi, r14
	call	_ZNK9__gnu_cxx17__normal_iteratorIPKcNSt7__cxx1112basic_stringIcSt11char_traitsIcESaIcEEEE4baseEv
	mov	rbx, qword ptr [rax]
	mov	rdi, r13
	call	_ZNK9__gnu_cxx17__normal_iteratorIPKcNSt7__cxx1112basic_stringIcSt11char_traitsIcESaIcEEEE4baseEv
	mov	ecx, dword ptr [rip + x.216]
	mov	edi, dword ptr [rip + y.217]
	lea	esi, [rcx - 1]
	imul	esi, ecx
	not	esi
	or	esi, -2
	cmp	esi, ebp
	sete	cl
	cmp	edi, 10
	setl	dl
	xor	dl, cl
	mov	edx, -1578638305
	cmovne	edx, r15d
	cmp	esi, ebp
	mov	ecx, edx
	cmove	ecx, r15d
	cmp	edi, 10
	cmovge	ecx, edx
	sub	rbx, qword ptr [rax]
	mov	qword ptr [rsp + 16], rbx
.LBB51_1:                               
	cmp	ecx, -1449134959
	jg	.LBB51_5

	cmp	ecx, -2005323446
	jne	.LBB51_3

	mov	rax, qword ptr [rsp + 16]
	add	rsp, 40
	pop	rbx
	pop	r12
	pop	r13
	pop	r14
	pop	r15
	pop	rbp
	ret
.Lfunc_end51:
	.size	_ZStmiIN9__gnu_cxx17__normal_iteratorIPKcNSt7__cxx1112basic_stringIcSt11char_traitsIcESaIcEEEEESA_EDTmicldtfp0_4baseEcldtfp_4baseEERKSt16reverse_iteratorIT_ERKSC_IT0_E, .Lfunc_end51-_ZStmiIN9__gnu_cxx17__normal_iteratorIPKcNSt7__cxx1112basic_stringIcSt11char_traitsIcESaIcEEEEESA_EDTmicldtfp0_4baseEcldtfp_4baseEERKSt16reverse_iteratorIT_ERKSC_IT0_E

	.section	.text._ZNSt7__cxx1112basic_stringIcSt11char_traitsIcESaIcEE10_M_disposeEv,"axG",@progbits,_ZNSt7__cxx1112basic_stringIcSt11char_traitsIcESaIcEE10_M_disposeEv,comdat
	.weak	_ZNSt7__cxx1112basic_stringIcSt11char_traitsIcESaIcEE10_M_disposeEv 
	.p2align	1, 0x90
	.type	_ZNSt7__cxx1112basic_stringIcSt11char_traitsIcESaIcEE10_M_disposeEv,@function
_ZNSt7__cxx1112basic_stringIcSt11char_traitsIcESaIcEE10_M_disposeEv: 
	.cfi_startproc

	push	rbp
.Lcfi320:
	.cfi_def_cfa_offset 16
	push	r15
.Lcfi321:
	.cfi_def_cfa_offset 24
	push	r14
.Lcfi322:
	.cfi_def_cfa_offset 32
	push	r13
.Lcfi323:
	.cfi_def_cfa_offset 40
	push	r12
.Lcfi324:
	.cfi_def_cfa_offset 48
	push	rbx
.Lcfi325:
	.cfi_def_cfa_offset 56
	push	rax
.Lcfi326:
	.cfi_def_cfa_offset 64
.Lcfi327:
	.cfi_offset rbx, -56
.Lcfi328:
	.cfi_offset r12, -48
.Lcfi329:
	.cfi_offset r13, -40
.Lcfi330:
	.cfi_offset r14, -32
.Lcfi331:
	.cfi_offset r15, -24
.Lcfi332:
	.cfi_offset rbp, -16
	mov	rbx, rdi
	mov	eax, dword ptr [rip + x.250]
	mov	ecx, dword ptr [rip + y.251]
	mov	edx, eax
	neg	edx
	not	edx
	imul	edx, eax
	mov	eax, edx
	xor	eax, -2
	test	eax, edx
	sete	byte ptr [rsp + 5]
	cmp	ecx, 10
	setl	byte ptr [rsp + 6]
	mov	eax, 1814417999
	mov	r14d, -626837532
	mov	r15d, -1
	mov	r13d, -1991959528
	mov	r12d, 480043498
	mov	ebp, 1113757834
	jmp	.LBB52_1
.LBB52_4:                               
	cmp	eax, -603610049
	jne	.LBB52_1

	mov	rdi, qword ptr [rbx]
	call	_ZdlPv
	mov	eax, -626837532
	jmp	.LBB52_1
.LBB52_6:                               
	cmp	eax, 480043498
	je	.LBB52_13

	cmp	eax, 1113757834
	je	.LBB52_10

	cmp	eax, 1814417999
	jne	.LBB52_1

	mov	cl, byte ptr [rsp + 5]
	mov	al, byte ptr [rsp + 6]
	mov	edx, ecx
	xor	dl, al
	mov	edx, 480043498
	cmovne	edx, ebp
	test	al, al
	mov	eax, edx
	cmovne	eax, ebp
	test	cl, cl
	cmove	eax, edx
	jmp	.LBB52_1
.LBB52_11:                              
	mov	al, byte ptr [rsp + 7]
	test	al, al
	mov	eax, -603610049
	cmovne	eax, r14d
	jmp	.LBB52_1
.LBB52_13:                              
	mov	rdi, rbx
	call	_ZNKSt7__cxx1112basic_stringIcSt11char_traitsIcESaIcEE11_M_is_localEv
	mov	eax, 1113757834
	jmp	.LBB52_1
.LBB52_10:                              
	mov	rdi, rbx
	call	_ZNKSt7__cxx1112basic_stringIcSt11char_traitsIcESaIcEE11_M_is_localEv
	mov	byte ptr [rsp + 7], al
	mov	eax, dword ptr [rip + x.250]
	mov	ecx, eax
	neg	ecx
	not	ecx
	imul	ecx, eax
	not	ecx
	or	ecx, -2
	cmp	ecx, r15d
	sete	cl
	mov	eax, 480043498
	cmove	eax, r13d
	cmp	dword ptr [rip + y.251], 10
	setl	dl
	cmovge	eax, r12d
	xor	dl, cl
	cmovne	eax, r13d
.LBB52_1:                               
	cmp	eax, 480043497
	jg	.LBB52_6

	cmp	eax, -1991959528
	je	.LBB52_11

	cmp	eax, -626837532
	jne	.LBB52_4

	add	rsp, 8
	pop	rbx
	pop	r12
	pop	r13
	pop	r14
	pop	r15
	pop	rbp
	ret
.Lfunc_end52:
	.size	_ZNSt7__cxx1112basic_stringIcSt11char_traitsIcESaIcEE10_M_disposeEv, .Lfunc_end52-_ZNSt7__cxx1112basic_stringIcSt11char_traitsIcESaIcEE10_M_disposeEv
	.cfi_endproc

	.section	.text._ZNKSt7__cxx1112basic_stringIcSt11char_traitsIcESaIcEE11_M_is_localEv,"axG",@progbits,_ZNKSt7__cxx1112basic_stringIcSt11char_traitsIcESaIcEE11_M_is_localEv,comdat
	.weak	_ZNKSt7__cxx1112basic_stringIcSt11char_traitsIcESaIcEE11_M_is_localEv 
	.p2align	1, 0x90
	.type	_ZNKSt7__cxx1112basic_stringIcSt11char_traitsIcESaIcEE11_M_is_localEv,@function
_ZNKSt7__cxx1112basic_stringIcSt11char_traitsIcESaIcEE11_M_is_localEv: 
	.cfi_startproc

	push	rbp
.Lcfi333:
	.cfi_def_cfa_offset 16
	push	r15
.Lcfi334:
	.cfi_def_cfa_offset 24
	push	r14
.Lcfi335:
	.cfi_def_cfa_offset 32
	push	r12
.Lcfi336:
	.cfi_def_cfa_offset 40
	push	rbx
.Lcfi337:
	.cfi_def_cfa_offset 48
	sub	rsp, 16
.Lcfi338:
	.cfi_def_cfa_offset 64
.Lcfi339:
	.cfi_offset rbx, -48
.Lcfi340:
	.cfi_offset r12, -40
.Lcfi341:
	.cfi_offset r14, -32
.Lcfi342:
	.cfi_offset r15, -24
.Lcfi343:
	.cfi_offset rbp, -16
	mov	eax, dword ptr [rip + x.254]
	lea	ecx, [rax - 1]
	imul	ecx, eax
	mov	eax, ecx
	xor	eax, -2
	test	eax, ecx
	sete	byte ptr [rsp + 13]
	mov	eax, dword ptr [rip + y.255]
	cmp	eax, 10
	setl	byte ptr [rsp + 14]
	mov	r12, rdi
	mov	ecx, 1030420191
	mov	r14d, 562042782
	mov	r15d, -788867883
	jmp	.LBB53_1
.LBB53_5:                               
	cmp	ecx, 1919892465
	je	.LBB53_9

	cmp	ecx, 1030420191
	jne	.LBB53_1

	mov	al, byte ptr [rsp + 13]
	mov	cl, byte ptr [rsp + 14]
	mov	edx, eax
	xor	dl, cl
	mov	edx, 1919892465
	cmovne	edx, r15d
	test	cl, cl
	mov	ecx, edx
	cmovne	ecx, r15d
	test	al, al
	cmove	ecx, edx
	jmp	.LBB53_1
.LBB53_8:                               
	mov	rbp, qword ptr [r12]
	mov	rdi, r12
	call	_ZNKSt7__cxx1112basic_stringIcSt11char_traitsIcESaIcEE13_M_local_dataEv
	mov	ecx, dword ptr [rip + x.254]
	mov	edi, dword ptr [rip + y.255]
	lea	esi, [rcx - 1]
	imul	esi, ecx
	mov	ecx, esi
	xor	ecx, -2
	and	ecx, esi
	sete	bl
	cmp	edi, 10
	setl	dl
	xor	dl, bl
	mov	edx, 1919892465
	cmovne	edx, r14d
	test	ecx, ecx
	mov	ecx, edx
	cmove	ecx, r14d
	cmp	edi, 10
	cmovge	ecx, edx
	cmp	rbp, rax
	sete	byte ptr [rsp + 15]
	jmp	.LBB53_1
.LBB53_9:                               
	mov	rdi, r12
	call	_ZNKSt7__cxx1112basic_stringIcSt11char_traitsIcESaIcEE13_M_local_dataEv
	mov	ecx, -788867883
.LBB53_1:                               
	cmp	ecx, 1030420190
	jg	.LBB53_5

	cmp	ecx, -788867883
	je	.LBB53_8

	cmp	ecx, 562042782
	jne	.LBB53_1

	mov	al, byte ptr [rsp + 15]
	add	rsp, 16
	pop	rbx
	pop	r12
	pop	r14
	pop	r15
	pop	rbp
	ret
.Lfunc_end53:
	.size	_ZNKSt7__cxx1112basic_stringIcSt11char_traitsIcESaIcEE11_M_is_localEv, .Lfunc_end53-_ZNKSt7__cxx1112basic_stringIcSt11char_traitsIcESaIcEE11_M_is_localEv
	.cfi_endproc

	.section	.text._ZNKSt7__cxx1112basic_stringIcSt11char_traitsIcESaIcEE13_M_local_dataEv,"axG",@progbits,_ZNKSt7__cxx1112basic_stringIcSt11char_traitsIcESaIcEE13_M_local_dataEv,comdat
	.weak	_ZNKSt7__cxx1112basic_stringIcSt11char_traitsIcESaIcEE13_M_local_dataEv 
	.p2align	1, 0x90
	.type	_ZNKSt7__cxx1112basic_stringIcSt11char_traitsIcESaIcEE13_M_local_dataEv,@function
_ZNKSt7__cxx1112basic_stringIcSt11char_traitsIcESaIcEE13_M_local_dataEv: 

	mov	eax, dword ptr [rip + x.258]
	mov	ecx, dword ptr [rip + y.259]
	lea	edx, [rax - 1]
	imul	edx, eax
	mov	esi, edx
	xor	esi, -2
	and	esi, edx
	sete	al
	sete	byte ptr [rsp - 10]
	cmp	ecx, 10
	setl	dl
	xor	dl, al
	mov	r10d, 624254056
	mov	r8d, 437857542
	mov	edx, 437857542
	cmovne	edx, r10d
	test	esi, esi
	cmovne	r10d, edx
	cmp	ecx, 10
	setl	byte ptr [rsp - 9]
	cmovge	r10d, edx
	add	rdi, 16
	mov	ecx, 1292572269
	mov	r9d, 366110379
	jmp	.LBB54_1
.LBB54_6:                               
	cmp	esi, 1292572269
	jne	.LBB54_1

	mov	al, byte ptr [rsp - 10]
	mov	cl, byte ptr [rsp - 9]
	mov	edx, eax
	xor	dl, cl
	test	cl, cl
	mov	ecx, 437857542
	cmovne	ecx, r9d
	test	al, al
	cmove	ecx, r8d
	test	dl, dl
	cmovne	ecx, r9d
	jmp	.LBB54_1
.LBB54_8:                               
	mov	qword ptr [rsp - 8], rdi
	mov	ecx, r10d
.LBB54_1:                               
	mov	esi, ecx
	and	esi, 2147483647
	cmp	esi, 624254055
	jg	.LBB54_5

	cmp	esi, 366110379
	je	.LBB54_8

	cmp	esi, 437857542
	jne	.LBB54_1

	mov	ecx, 366110379
	jmp	.LBB54_1
.LBB54_5:                               
	cmp	esi, 624254056
	jne	.LBB54_6

	mov	rax, qword ptr [rsp - 8]
	ret
.Lfunc_end54:
	.size	_ZNKSt7__cxx1112basic_stringIcSt11char_traitsIcESaIcEE13_M_local_dataEv, .Lfunc_end54-_ZNKSt7__cxx1112basic_stringIcSt11char_traitsIcESaIcEE13_M_local_dataEv

	.section	.text._ZNKSt7__cxx1112basic_stringIcSt11char_traitsIcESaIcEE8capacityEv,"axG",@progbits,_ZNKSt7__cxx1112basic_stringIcSt11char_traitsIcESaIcEE8capacityEv,comdat
	.weak	_ZNKSt7__cxx1112basic_stringIcSt11char_traitsIcESaIcEE8capacityEv 
	.p2align	1, 0x90
	.type	_ZNKSt7__cxx1112basic_stringIcSt11char_traitsIcESaIcEE8capacityEv,@function
_ZNKSt7__cxx1112basic_stringIcSt11char_traitsIcESaIcEE8capacityEv: 
.Lfunc_begin21:
	.cfi_startproc
	.cfi_personality 3, __gxx_personality_v0
	.cfi_lsda 3, .Lexception21

	push	rbx
	mov	rbx, rdi
.Ltmp415:
	call	_ZNKSt7__cxx1112basic_stringIcSt11char_traitsIcESaIcEE11_M_is_localEv
.Ltmp416:

	test	al, al
	je	.LBB55_3

	mov	eax, 15
	jmp	.LBB55_4
.LBB55_3:
	mov	rax, qword ptr [rbx + 16]
.LBB55_4:
	pop	rbx
	ret
.LBB55_5:
.Ltmp417:
	mov	rdi, rax
	call	__clang_call_terminate
.Lfunc_end55:
	.size	_ZNKSt7__cxx1112basic_stringIcSt11char_traitsIcESaIcEE8capacityEv, .Lfunc_end55-_ZNKSt7__cxx1112basic_stringIcSt11char_traitsIcESaIcEE8capacityEv
	.cfi_endproc
	.section	.gcc_except_table,"a",@progbits
	.p2align	2
GCC_except_table55:
.Lexception21:
	.byte	255                     
	.byte	3                       
	.byte	21                      
	.byte	3                       
	.byte	13                      
	.long	.Ltmp415-.Lfunc_begin21 
	.long	.Ltmp416-.Ltmp415       
	.long	.Ltmp417-.Lfunc_begin21 
	.byte	1                       
	.byte	1                       

	.byte	0                       

	.long	0                       
	.p2align	2

	.section	.text._ZNSt7__cxx1112basic_stringIcSt11char_traitsIcESaIcEE6appendERKS4_,"axG",@progbits,_ZNSt7__cxx1112basic_stringIcSt11char_traitsIcESaIcEE6appendERKS4_,comdat
	.weak	_ZNSt7__cxx1112basic_stringIcSt11char_traitsIcESaIcEE6appendERKS4_ 
	.p2align	1, 0x90
	.type	_ZNSt7__cxx1112basic_stringIcSt11char_traitsIcESaIcEE6appendERKS4_,@function
_ZNSt7__cxx1112basic_stringIcSt11char_traitsIcESaIcEE6appendERKS4_: 
	.cfi_startproc

	push	rbp
.Lcfi344:
	.cfi_def_cfa_offset 16
	push	r15
.Lcfi345:
	.cfi_def_cfa_offset 24
	push	r14
.Lcfi346:
	.cfi_def_cfa_offset 32
	push	r13
.Lcfi347:
	.cfi_def_cfa_offset 40
	push	r12
.Lcfi348:
	.cfi_def_cfa_offset 48
	push	rbx
.Lcfi349:
	.cfi_def_cfa_offset 56
	sub	rsp, 24
.Lcfi350:
	.cfi_def_cfa_offset 80
.Lcfi351:
	.cfi_offset rbx, -56
.Lcfi352:
	.cfi_offset r12, -48
.Lcfi353:
	.cfi_offset r13, -40
.Lcfi354:
	.cfi_offset r14, -32
.Lcfi355:
	.cfi_offset r15, -24
.Lcfi356:
	.cfi_offset rbp, -16
	mov	rbx, rsi
	mov	r14, rdi
	mov	eax, dword ptr [rip + x.280]
	mov	ecx, eax
	neg	ecx
	not	ecx
	imul	ecx, eax
	not	ecx
	or	ecx, -2
	mov	r15d, -1
	cmp	ecx, r15d
	sete	byte ptr [rsp + 14]
	mov	eax, dword ptr [rip + y.281]
	cmp	eax, 10
	setl	byte ptr [rsp + 15]
	mov	eax, 954084893
	mov	r12d, 2023837107
	mov	r13d, 1937764254
	mov	ebp, 80535886
	jmp	.LBB56_1
.LBB56_9:                               
	mov	rsi, qword ptr [rbx]
	mov	rdx, qword ptr [rbx + 8]
	mov	rdi, r14
	call	_ZNSt7__cxx1112basic_stringIcSt11char_traitsIcESaIcEE9_M_appendEPKcm
	mov	qword ptr [rsp + 16], rax
	mov	eax, dword ptr [rip + x.280]
	lea	ecx, [rax - 1]
	imul	ecx, eax
	not	ecx
	or	ecx, -2
	cmp	ecx, r15d
	sete	cl
	mov	eax, 1937764254
	cmove	eax, r12d
	cmp	dword ptr [rip + y.281], 10
	setl	dl
	cmovge	eax, r13d
	xor	dl, cl
	cmovne	eax, r12d
	jmp	.LBB56_1
.LBB56_8:                               
	mov	rsi, qword ptr [rbx]
	mov	rdx, qword ptr [rbx + 8]
	mov	rdi, r14
	call	_ZNSt7__cxx1112basic_stringIcSt11char_traitsIcESaIcEE9_M_appendEPKcm
	mov	eax, 80535886
.LBB56_1:                               
	mov	ecx, eax
	and	ecx, 2147483647
	cmp	ecx, 1937764253
	jg	.LBB56_5

	cmp	ecx, 80535886
	je	.LBB56_9

	cmp	ecx, 954084893
	jne	.LBB56_1

	mov	cl, byte ptr [rsp + 14]
	mov	al, byte ptr [rsp + 15]
	mov	edx, ecx
	xor	dl, al
	test	al, al
	mov	eax, 1937764254
	cmovne	eax, ebp
	test	cl, cl
	cmove	eax, r13d
	test	dl, dl
	cmovne	eax, ebp
	jmp	.LBB56_1
.LBB56_5:                               
	cmp	ecx, 1937764254
	je	.LBB56_8

	cmp	ecx, 2023837107
	jne	.LBB56_1

	mov	rax, qword ptr [rsp + 16]
	add	rsp, 24
	pop	rbx
	pop	r12
	pop	r13
	pop	r14
	pop	r15
	pop	rbp
	ret
.Lfunc_end56:
	.size	_ZNSt7__cxx1112basic_stringIcSt11char_traitsIcESaIcEE6appendERKS4_, .Lfunc_end56-_ZNSt7__cxx1112basic_stringIcSt11char_traitsIcESaIcEE6appendERKS4_
	.cfi_endproc

	.section	.text._ZNSt7__cxx1112basic_stringIcSt11char_traitsIcESaIcEEC2EOS4_,"axG",@progbits,_ZNSt7__cxx1112basic_stringIcSt11char_traitsIcESaIcEEC2EOS4_,comdat
	.weak	_ZNSt7__cxx1112basic_stringIcSt11char_traitsIcESaIcEEC2EOS4_ 
	.p2align	1, 0x90
	.type	_ZNSt7__cxx1112basic_stringIcSt11char_traitsIcESaIcEEC2EOS4_,@function
_ZNSt7__cxx1112basic_stringIcSt11char_traitsIcESaIcEEC2EOS4_: 
.Lfunc_begin22:
	.cfi_startproc
	.cfi_personality 3, __gxx_personality_v0
	.cfi_lsda 3, .Lexception22

	push	r15
	push	r14
	push	r13
	push	r12
	push	rbx
	sub	rsp, 16
	mov	r13, rsi
	mov	r14, rdi
	mov	eax, dword ptr [rip + x.342]
	mov	edx, dword ptr [rip + y.343]
	mov	ecx, eax
	neg	ecx
	not	ecx
	imul	ecx, eax
	mov	esi, ecx
	xor	esi, -2
	cmp	edx, 10
	setl	al
	setl	byte ptr [rsp + 13]
	and	esi, ecx
	sete	cl
	sete	byte ptr [rsp + 12]
	xor	cl, al
	mov	eax, 1668723644
	mov	r8d, -1434449276
	mov	edi, -1434449276
	cmovne	edi, eax
	test	esi, esi
	cmovne	eax, edi
	cmp	edx, 10
	cmovge	eax, edi
	lea	r12, [r14 + 16]
	mov	esi, 56014225
	mov	edi, -190904379
	jmp	.LBB57_1
.LBB57_6:                               
	cmp	esi, 56014225
	jne	.LBB57_1

	mov	bl, byte ptr [rsp + 12]
	mov	dl, byte ptr [rsp + 13]
	mov	ecx, ebx
	xor	cl, dl
	test	dl, dl
	mov	esi, -1434449276
	cmovne	esi, edi
	test	bl, bl
	cmove	esi, r8d
	test	cl, cl
	cmovne	esi, edi
	jmp	.LBB57_1
.LBB57_8:                               
	mov	esi, -190904379
.LBB57_1:                               
	cmp	esi, 56014224
	jg	.LBB57_5

	cmp	esi, -1434449276
	je	.LBB57_8

	cmp	esi, -190904379
	jne	.LBB57_1

	mov	esi, eax
	jmp	.LBB57_1
.LBB57_5:                               
	cmp	esi, 1668723644
	jne	.LBB57_6

	mov	rdi, r13
	call	_ZSt4moveIRSaIcEEONSt16remove_referenceIT_E4typeEOS3_
	mov	rdi, r14
	mov	rsi, r12
	mov	rdx, rax
	call	_ZNSt7__cxx1112basic_stringIcSt11char_traitsIcESaIcEE12_Alloc_hiderC2EPcOS3_
.Ltmp418:
	mov	rdi, r13
	call	_ZNKSt7__cxx1112basic_stringIcSt11char_traitsIcESaIcEE11_M_is_localEv
.Ltmp419:

	test	al, al
	je	.LBB57_13

	lea	r15, [r13 + 16]
	mov	edx, 16
	mov	rdi, r12
	mov	rsi, r15
	call	_ZNSt11char_traitsIcE4copyEPcPKcm
	jmp	.LBB57_14
.LBB57_13:
	mov	rsi, qword ptr [r13]
	mov	rdi, r14
	call	_ZNSt7__cxx1112basic_stringIcSt11char_traitsIcESaIcEE7_M_dataEPc
	lea	r15, [r13 + 16]
	mov	rsi, qword ptr [r13 + 16]
	mov	rdi, r14
	call	_ZNSt7__cxx1112basic_stringIcSt11char_traitsIcESaIcEE11_M_capacityEm
.LBB57_14:
	mov	rdi, r13
	call	_ZNKSt7__cxx1112basic_stringIcSt11char_traitsIcESaIcEE6lengthEv
	mov	qword ptr [r14 + 8], rax
	mov	eax, dword ptr [rip + x.342]
	mov	ecx, dword ptr [rip + y.343]
	lea	edx, [rax - 1]
	imul	edx, eax
	mov	esi, edx
	xor	esi, -2
	and	esi, edx
	sete	byte ptr [rsp + 14]
	sete	al
	cmp	ecx, 10
	setl	dl
	xor	dl, al
	mov	eax, 1668723644
	mov	edx, -1434449276
	cmovne	edx, eax
	test	esi, esi
	cmovne	eax, edx
	cmp	ecx, 10
	setl	byte ptr [rsp + 15]
	mov	r8d, -1434449276
	cmovge	eax, edx
	mov	esi, 56014225
	mov	edi, -190904379
	jmp	.LBB57_15
.LBB57_20:                              
	cmp	esi, 56014225
	jne	.LBB57_15

	mov	dl, byte ptr [rsp + 14]
	mov	cl, byte ptr [rsp + 15]
	mov	ebx, edx
	xor	bl, cl
	test	cl, cl
	mov	esi, -1434449276
	cmovne	esi, edi
	test	dl, dl
	cmove	esi, r8d
	test	bl, bl
	cmovne	esi, edi
	jmp	.LBB57_15
.LBB57_22:                              
	mov	esi, -190904379
.LBB57_15:                              
	cmp	esi, 56014224
	jg	.LBB57_19

	cmp	esi, -1434449276
	je	.LBB57_22

	cmp	esi, -190904379
	jne	.LBB57_15

	mov	esi, eax
	jmp	.LBB57_15
.LBB57_19:                              
	cmp	esi, 1668723644
	jne	.LBB57_20

	mov	rdi, r13
	mov	rsi, r15
	call	_ZNSt7__cxx1112basic_stringIcSt11char_traitsIcESaIcEE7_M_dataEPc
.Ltmp420:
	xor	esi, esi
	mov	rdi, r13
	call	_ZNSt7__cxx1112basic_stringIcSt11char_traitsIcESaIcEE13_M_set_lengthEm
.Ltmp421:

	add	rsp, 16
	pop	rbx
	pop	r12
	pop	r13
	pop	r14
	pop	r15
	ret
.LBB57_12:
.Ltmp422:
	mov	rdi, rax
	call	__clang_call_terminate
.Lfunc_end57:
	.size	_ZNSt7__cxx1112basic_stringIcSt11char_traitsIcESaIcEEC2EOS4_, .Lfunc_end57-_ZNSt7__cxx1112basic_stringIcSt11char_traitsIcESaIcEEC2EOS4_
	.cfi_endproc
	.section	.gcc_except_table,"a",@progbits
	.p2align	2
GCC_except_table57:
.Lexception22:
	.byte	255                     
	.byte	3                       
	.byte	21                      
	.byte	3                       
	.byte	13                      
	.long	.Ltmp418-.Lfunc_begin22 
	.long	.Ltmp421-.Ltmp418       
	.long	.Ltmp422-.Lfunc_begin22 
	.byte	1                       
	.byte	1                       

	.byte	0                       

	.long	0                       
	.p2align	2

	.section	.text._ZNSt7__cxx1112basic_stringIcSt11char_traitsIcESaIcEE7replaceEmmPKcm,"axG",@progbits,_ZNSt7__cxx1112basic_stringIcSt11char_traitsIcESaIcEE7replaceEmmPKcm,comdat
	.weak	_ZNSt7__cxx1112basic_stringIcSt11char_traitsIcESaIcEE7replaceEmmPKcm 
	.p2align	1, 0x90
	.type	_ZNSt7__cxx1112basic_stringIcSt11char_traitsIcESaIcEE7replaceEmmPKcm,@function
_ZNSt7__cxx1112basic_stringIcSt11char_traitsIcESaIcEE7replaceEmmPKcm: 
	.cfi_startproc

	push	rbp
.Lcfi357:
	.cfi_def_cfa_offset 16
	push	r15
.Lcfi358:
	.cfi_def_cfa_offset 24
	push	r14
.Lcfi359:
	.cfi_def_cfa_offset 32
	push	r13
.Lcfi360:
	.cfi_def_cfa_offset 40
	push	r12
.Lcfi361:
	.cfi_def_cfa_offset 48
	push	rbx
.Lcfi362:
	.cfi_def_cfa_offset 56
	push	rax
.Lcfi363:
	.cfi_def_cfa_offset 64
.Lcfi364:
	.cfi_offset rbx, -56
.Lcfi365:
	.cfi_offset r12, -48
.Lcfi366:
	.cfi_offset r13, -40
.Lcfi367:
	.cfi_offset r14, -32
.Lcfi368:
	.cfi_offset r15, -24
.Lcfi369:
	.cfi_offset rbp, -16
	mov	r14, r8
	mov	r15, rcx
	mov	r12, rdx
	mov	r13, rsi
	mov	rbx, rdi
	mov	edx, .L.str.41
	call	_ZNKSt7__cxx1112basic_stringIcSt11char_traitsIcESaIcEE8_M_checkEmPKc
	mov	rbp, rax
	mov	rdi, rbx
	mov	rsi, r13
	mov	rdx, r12
	call	_ZNKSt7__cxx1112basic_stringIcSt11char_traitsIcESaIcEE8_M_limitEmm
	mov	rdi, rbx
	mov	rsi, rbp
	mov	rdx, rax
	mov	rcx, r15
	mov	r8, r14
	add	rsp, 8
	pop	rbx
	pop	r12
	pop	r13
	pop	r14
	pop	r15
	pop	rbp
	jmp	_ZNSt7__cxx1112basic_stringIcSt11char_traitsIcESaIcEE10_M_replaceEmmPKcm 
.Lfunc_end58:
	.size	_ZNSt7__cxx1112basic_stringIcSt11char_traitsIcESaIcEE7replaceEmmPKcm, .Lfunc_end58-_ZNSt7__cxx1112basic_stringIcSt11char_traitsIcESaIcEE7replaceEmmPKcm
	.cfi_endproc

	.section	.text._ZNSt7__cxx1112basic_stringIcSt11char_traitsIcESaIcEE10_M_replaceEmmPKcm,"axG",@progbits,_ZNSt7__cxx1112basic_stringIcSt11char_traitsIcESaIcEE10_M_replaceEmmPKcm,comdat
	.weak	_ZNSt7__cxx1112basic_stringIcSt11char_traitsIcESaIcEE10_M_replaceEmmPKcm 
	.p2align	1, 0x90
	.type	_ZNSt7__cxx1112basic_stringIcSt11char_traitsIcESaIcEE10_M_replaceEmmPKcm,@function
_ZNSt7__cxx1112basic_stringIcSt11char_traitsIcESaIcEE10_M_replaceEmmPKcm: 
	.cfi_startproc

	push	rbp
.Lcfi370:
	.cfi_def_cfa_offset 16
	push	r15
.Lcfi371:
	.cfi_def_cfa_offset 24
	push	r14
.Lcfi372:
	.cfi_def_cfa_offset 32
	push	r13
.Lcfi373:
	.cfi_def_cfa_offset 40
	push	r12
.Lcfi374:
	.cfi_def_cfa_offset 48
	push	rbx
.Lcfi375:
	.cfi_def_cfa_offset 56
	sub	rsp, 104
.Lcfi376:
	.cfi_def_cfa_offset 160
.Lcfi377:
	.cfi_offset rbx, -56
.Lcfi378:
	.cfi_offset r12, -48
.Lcfi379:
	.cfi_offset r13, -40
.Lcfi380:
	.cfi_offset r14, -32
.Lcfi381:
	.cfi_offset r15, -24
.Lcfi382:
	.cfi_offset rbp, -16
	mov	r13, r8
	mov	r15, rcx
	mov	r12, rdx
	mov	rbp, rsi
	mov	r14, rdi
	mov	rax, r12
	neg	rax
	mov	qword ptr [rsp + 56], rax 
	mov	ecx, .L.str.42
	mov	rsi, r12
	mov	rdx, r13
	call	_ZNKSt7__cxx1112basic_stringIcSt11char_traitsIcESaIcEE15_M_check_lengthEmmPKc
	mov	rax, qword ptr [r14 + 8]
	mov	qword ptr [rsp + 64], rax
	mov	rax, r13
	sub	rax, r12
	mov	ecx, 564372866
	mov	edx, -1960048526
	cmove	edx, ecx
	mov	dword ptr [rsp + 52], edx 
	mov	ebx, -128719121
	mov	ecx, -1451443315
	cmova	ecx, ebx
	mov	dword ptr [rsp + 40], ecx 
	mov	ecx, -762942268
	mov	edx, 2124603672
	cmove	edx, ecx
	mov	dword ptr [rsp + 48], edx 
	add	rax, qword ptr [rsp + 64]
	mov	qword ptr [rsp + 72], rax
	mov	rdi, r14
	call	_ZNKSt7__cxx1112basic_stringIcSt11char_traitsIcESaIcEE8capacityEv
	mov	qword ptr [rsp + 96], rax
	mov	rax, rbp
	neg	rax
	sub	rax, r12
	neg	rax
	mov	qword ptr [rsp + 88], rax 
	test	r13, r13
	mov	eax, 515539617
	cmove	eax, ebx
	mov	dword ptr [rsp + 44], eax 
	lea	rax, [r15 + r13]
	mov	qword ptr [rsp + 80], rax 
	mov	eax, -2078908610
	jmp	.LBB59_1
.LBB59_70:                              
	cmp	ecx, 1095280113
	mov	eax, ecx
	jne	.LBB59_1

	mov	rdi, r14
	mov	rsi, rbp
	mov	rdx, r12
	mov	rcx, r15
	mov	r8, r13
	call	_ZNSt7__cxx1112basic_stringIcSt11char_traitsIcESaIcEE9_M_mutateEmmPKcm
	jmp	.LBB59_74
.LBB59_4:                               
	cmp	ecx, -1894978970
	jg	.LBB59_8

	cmp	ecx, -2078908610
	je	.LBB59_83

	cmp	ecx, -1960048526
	mov	eax, ecx
	jne	.LBB59_1

	mov	rdi, qword ptr [rsp + 8]
	add	rdi, r13
	mov	rsi, qword ptr [rsp + 8]
	add	rsi, r12
	mov	rdx, qword ptr [rsp + 16]
	call	_ZNSt7__cxx1112basic_stringIcSt11char_traitsIcESaIcEE7_S_moveEPcPKcm
	mov	eax, 564372866
	jmp	.LBB59_1
.LBB59_50:                              
	cmp	ecx, 605734881
	jg	.LBB59_55

	cmp	ecx, 558892919
	je	.LBB59_107

	cmp	ecx, 564372866
	mov	eax, ecx
	jne	.LBB59_1

	mov	eax, dword ptr [rip + x.284]
	mov	ecx, dword ptr [rip + y.285]
	lea	edx, [rax - 1]
	imul	edx, eax
	mov	eax, edx
	xor	eax, -2
	and	eax, edx
	sete	bl
	test	eax, eax
	mov	eax, 33465657
	mov	edx, -1643465971
	mov	esi, 33465657
	jne	.LBB59_54
	jmp	.LBB59_29
.LBB59_25:                              
	cmp	ecx, -904201330
	je	.LBB59_58

	cmp	ecx, -762942268
	mov	eax, ecx
	jne	.LBB59_1

	mov	eax, dword ptr [rip + x.284]
	mov	ecx, dword ptr [rip + y.285]
	mov	edx, eax
	neg	edx
	not	edx
	imul	edx, eax
	not	edx
	or	edx, -2
	mov	eax, -1
	cmp	edx, eax
	sete	bl
	mov	eax, -302236162
	mov	edx, 6443967
	mov	esi, -302236162
	je	.LBB59_29

	mov	esi, 6443967
	jmp	.LBB59_29
.LBB59_76:                              
	cmp	ecx, 1717965154
	je	.LBB59_88

	cmp	ecx, 1905174007
	mov	eax, ecx
	jne	.LBB59_1

	mov	rax, qword ptr [r14]
	add	rax, rbp
	mov	qword ptr [rsp + 8], rax
	mov	rax, qword ptr [rsp + 64]
	sub	rax, qword ptr [rsp + 88] 
	mov	qword ptr [rsp + 16], rax
	mov	rdi, r14
	mov	rsi, r15
	call	_ZNKSt7__cxx1112basic_stringIcSt11char_traitsIcESaIcEE11_M_disjunctEPKc
	test	al, al
	mov	eax, -1894978969
	mov	ecx, 1491470422
	cmovne	eax, ecx
	jmp	.LBB59_1
.LBB59_12:                              
	cmp	ecx, -1543805648
	je	.LBB59_106

	cmp	ecx, -1451443315
	mov	eax, ecx
	jne	.LBB59_1

	mov	eax, dword ptr [rip + x.284]
	mov	ecx, dword ptr [rip + y.285]
	lea	esi, [rax - 1]
	imul	esi, eax
	mov	edx, esi
	xor	edx, -2
	and	edx, esi
	sete	al
	cmp	ecx, 10
	setl	bl
	xor	bl, al
	mov	esi, -554062833
	mov	eax, -554062833
	jne	.LBB59_16

	mov	eax, -1543805648
	jmp	.LBB59_16
.LBB59_60:                              
	cmp	ecx, 700020244
	je	.LBB59_96

	cmp	ecx, 884516766
	mov	eax, ecx
	jne	.LBB59_1

	mov	eax, -128719121
	jmp	.LBB59_1
.LBB59_40:                              
	cmp	ecx, -175315138
	je	.LBB59_100

	cmp	ecx, -128719121
	mov	eax, ecx
	jne	.LBB59_1

	mov	eax, dword ptr [rip + x.284]
	mov	ecx, dword ptr [rip + y.285]
	lea	edx, [rax - 1]
	imul	edx, eax
	not	edx
	or	edx, -2
	mov	eax, -1
	cmp	edx, eax
	sete	bl
	mov	eax, -1259203459
	mov	edx, 558892919
	mov	esi, -1259203459
	jne	.LBB59_43
	jmp	.LBB59_29
.LBB59_72:                              
	cmp	ecx, 1491470422
	je	.LBB59_85

	cmp	ecx, 1594650113
	mov	eax, ecx
	jne	.LBB59_1
.LBB59_74:                              
	mov	eax, 1172001177
	jmp	.LBB59_1
.LBB59_8:                               
	cmp	ecx, -1894978969
	mov	eax, dword ptr [rsp + 44] 
	je	.LBB59_1

	cmp	ecx, -1643465971
	mov	eax, ecx
	jne	.LBB59_1

	mov	eax, 33465657
	jmp	.LBB59_1
.LBB59_55:                              
	cmp	ecx, 605734882
	je	.LBB59_98

	cmp	ecx, 649106400
	mov	eax, ecx
	jne	.LBB59_1

	mov	al, byte ptr [rsp + 5]
	test	al, al
	mov	eax, 1717965154
	jne	.LBB59_1
	jmp	.LBB59_58
.LBB59_90:                              
	mov	rdi, qword ptr [rsp + 8]
	mov	rsi, r15
	mov	rdx, r13
	call	_ZNSt7__cxx1112basic_stringIcSt11char_traitsIcESaIcEE7_S_moveEPcPKcm
	mov	eax, dword ptr [rip + x.284]
	mov	ecx, dword ptr [rip + y.285]
	lea	edx, [rax - 1]
	imul	edx, eax
	mov	eax, edx
	xor	eax, -2
	and	eax, edx
	sete	bl
	test	eax, eax
	mov	eax, 884516766
	mov	edx, -1543805648
	mov	esi, 884516766
	je	.LBB59_29

	mov	esi, -1543805648
	jmp	.LBB59_29
.LBB59_102:                             
	mov	rsi, qword ptr [rsp + 24]
	add	rsi, qword ptr [rsp + 56] 
	mov	rdi, qword ptr [rsp + 8]
	mov	rdx, r13
	call	_ZNSt7__cxx1112basic_stringIcSt11char_traitsIcESaIcEE7_S_copyEPcPKcm
	mov	eax, dword ptr [rip + x.284]
	mov	ecx, dword ptr [rip + y.285]
	mov	edx, eax
	neg	edx
	not	edx
	imul	edx, eax
	mov	eax, edx
	xor	eax, -2
	and	eax, edx
	sete	bl
	test	eax, eax
	mov	eax, -904201330
	mov	edx, 1014468725
	mov	esi, -904201330
	je	.LBB59_29

	mov	esi, 1014468725
	jmp	.LBB59_29
.LBB59_92:                              
	cmp	qword ptr [rsp + 16], 0
	setne	byte ptr [rsp + 6]
	mov	eax, dword ptr [rip + x.284]
	mov	ecx, dword ptr [rip + y.285]
	mov	edx, eax
	neg	edx
	not	edx
	imul	edx, eax
	not	edx
	or	edx, -2
	mov	eax, -1
	cmp	edx, eax
	sete	bl
	mov	eax, -978005374
	mov	edx, 558892919
	mov	esi, -978005374
	je	.LBB59_29
.LBB59_43:                              
	mov	esi, 558892919
	jmp	.LBB59_29
.LBB59_93:                              
	mov	al, byte ptr [rsp + 6]
	test	al, al
	mov	eax, -450409698
	jne	.LBB59_1
.LBB59_94:                              
	mov	eax, -762942268
	jmp	.LBB59_1
.LBB59_95:                              
	mov	al, byte ptr [rsp + 7]
	test	al, al
	mov	eax, 700020244
	jne	.LBB59_1
	jmp	.LBB59_58
.LBB59_104:                             
	mov	rdi, qword ptr [rsp + 8]
	mov	rsi, r15
	mov	rdx, r13
	call	_ZNSt7__cxx1112basic_stringIcSt11char_traitsIcESaIcEE7_S_moveEPcPKcm
	jmp	.LBB59_58
.LBB59_108:                             
	mov	eax, -302236162
	jmp	.LBB59_1
.LBB59_87:                              
	test	r13, r13
	setne	byte ptr [rsp + 5]
	mov	eax, dword ptr [rip + x.284]
	mov	ecx, dword ptr [rip + y.285]
	lea	edx, [rax - 1]
	imul	edx, eax
	not	edx
	or	edx, -2
	mov	eax, -1
	cmp	edx, eax
	sete	bl
	mov	eax, 649106400
	mov	edx, -1643465971
	mov	esi, 649106400
	je	.LBB59_29
.LBB59_54:                              
	mov	esi, -1643465971
.LBB59_29:                              
	cmp	ecx, 10
	setl	cl
	cmovl	edx, esi
	xor	cl, bl
	jne	.LBB59_1

	mov	eax, edx
	jmp	.LBB59_1
.LBB59_83:                              
	mov	rax, qword ptr [rsp + 72]
	cmp	rax, qword ptr [rsp + 96]
	mov	eax, 1095280113
	ja	.LBB59_1

	mov	eax, 1905174007
	jmp	.LBB59_1
.LBB59_107:                             
	mov	rax, qword ptr [rsp + 16]
	mov	eax, -1259203459
	jmp	.LBB59_1
.LBB59_88:                              
	mov	rdi, qword ptr [rsp + 8]
	mov	rsi, r15
