	.text
	.intel_syntax noprefix
	.file	"/mnt/c/Users/Adam/Developer/CryptoFunctionDetection/crypto_implementations/cryptopp/des.cpp"
	.globl	_ZN8CryptoPP3DES4Base15UncheckedSetKeyEPKhjRKNS_14NameValuePairsE 
	.p2align	4, 0x90
	.type	_ZN8CryptoPP3DES4Base15UncheckedSetKeyEPKhjRKNS_14NameValuePairsE,@function
_ZN8CryptoPP3DES4Base15UncheckedSetKeyEPKhjRKNS_14NameValuePairsE: 
	.cfi_startproc

	push	r15
.Lcfi0:
	.cfi_def_cfa_offset 16
	push	r14
.Lcfi1:
	.cfi_def_cfa_offset 24
	push	rbx
.Lcfi2:
	.cfi_def_cfa_offset 32
.Lcfi3:
	.cfi_offset rbx, -32
.Lcfi4:
	.cfi_offset r14, -24
.Lcfi5:
	.cfi_offset r15, -16
	mov	r14, rsi
	mov	rbx, rdi
	mov	esi, edx
	call	_ZNK8CryptoPP21SimpleKeyingInterface20AssertValidKeyLengthEm
	lea	r15, [rbx + 16]
	add	rbx, 8
	mov	rdi, rbx
	call	_ZNK8CryptoPP19BlockTransformation18GetCipherDirectionEv
	mov	rdi, r15
	mov	esi, eax
	mov	rdx, r14
	pop	rbx
	pop	r14
	pop	r15
	jmp	_ZN8CryptoPP6RawDES9RawSetKeyENS_9CipherDirEPKh 
.Lfunc_end0:
	.size	_ZN8CryptoPP3DES4Base15UncheckedSetKeyEPKhjRKNS_14NameValuePairsE, .Lfunc_end0-_ZN8CryptoPP3DES4Base15UncheckedSetKeyEPKhjRKNS_14NameValuePairsE
	.cfi_endproc

	.section	.text._ZNK8CryptoPP21SimpleKeyingInterface20AssertValidKeyLengthEm,"axG",@progbits,_ZNK8CryptoPP21SimpleKeyingInterface20AssertValidKeyLengthEm,comdat
	.weak	_ZNK8CryptoPP21SimpleKeyingInterface20AssertValidKeyLengthEm 
	.p2align	4, 0x90
	.type	_ZNK8CryptoPP21SimpleKeyingInterface20AssertValidKeyLengthEm,@function
_ZNK8CryptoPP21SimpleKeyingInterface20AssertValidKeyLengthEm: 

	ret
.Lfunc_end1:
	.size	_ZNK8CryptoPP21SimpleKeyingInterface20AssertValidKeyLengthEm, .Lfunc_end1-_ZNK8CryptoPP21SimpleKeyingInterface20AssertValidKeyLengthEm

	.text
	.globl	_ZN8CryptoPP6RawDES9RawSetKeyENS_9CipherDirEPKh 
	.p2align	4, 0x90
	.type	_ZN8CryptoPP6RawDES9RawSetKeyENS_9CipherDirEPKh,@function
_ZN8CryptoPP6RawDES9RawSetKeyENS_9CipherDirEPKh: 
	.cfi_startproc

	push	rbp
.Lcfi6:
	.cfi_def_cfa_offset 16
	push	r15
.Lcfi7:
	.cfi_def_cfa_offset 24
	push	r14
.Lcfi8:
	.cfi_def_cfa_offset 32
	push	r13
.Lcfi9:
	.cfi_def_cfa_offset 40
	push	r12
.Lcfi10:
	.cfi_def_cfa_offset 48
	push	rbx
.Lcfi11:
	.cfi_def_cfa_offset 56
	sub	rsp, 136
.Lcfi12:
	.cfi_def_cfa_offset 192
.Lcfi13:
	.cfi_offset rbx, -56
.Lcfi14:
	.cfi_offset r12, -48
.Lcfi15:
	.cfi_offset r13, -40
.Lcfi16:
	.cfi_offset r14, -32
.Lcfi17:
	.cfi_offset r15, -24
.Lcfi18:
	.cfi_offset rbp, -16
	mov	qword ptr [rsp + 96], rdx 
	mov	ebp, esi
	mov	r15, rdi
	lea	rbx, [rsp + 104]
	mov	qword ptr [rsp + 72], rbx
	mov	rax, qword ptr [rsp + 72]
	mov	esi, 120
	mov	rdi, rbx
	call	_ZN8CryptoPP8SecBlockIhNS_20AllocatorWithCleanupIhLb0EEEEC2Em
	mov	rdi, rbx
	call	_ZN8CryptoPP8SecBlockIhNS_20AllocatorWithCleanupIhLb0EEEEcvPhEv
	mov	qword ptr [rsp + 64], rax
	mov	rax, qword ptr [rsp + 64]
	add	rax, 56
	mov	qword ptr [rsp + 40], rax
	mov	rax, qword ptr [rsp + 40]
	add	rax, 56
	mov	qword ptr [rsp + 24], rax
	cmp	ebp, 1
	mov	r12d, 752548961
	mov	eax, 1091747531
	cmovne	r12d, eax
	mov	eax, 1939052390
	xor	r13d, r13d







	jmp	.LBB2_1
.LBB2_79:                               
	cmovge	eax, esi
	xor	dl, cl
	cmovne	eax, edi
	.p2align	4, 0x90
.LBB2_1:                                
	mov	ecx, eax
	cmp	ecx, 800227174
	jle	.LBB2_2

	cmp	ecx, 1386509249
	jle	.LBB2_36

	cmp	ecx, 1579647294
	jg	.LBB2_62

	cmp	ecx, 1439020413
	jle	.LBB2_55

	cmp	ecx, 1439020414
	je	.LBB2_77

	cmp	ecx, 1503191189
	je	.LBB2_69

	cmp	ecx, 1573402123
	mov	eax, ecx
	jne	.LBB2_1

	mov	eax, dword ptr [rip + x.13]
	mov	ecx, eax
	neg	ecx
	not	ecx
	imul	ecx, eax
	not	ecx
	or	ecx, -2
	cmp	ecx, -1
	sete	cl
	mov	eax, 663736955
	mov	edi, -1980171999
	cmove	eax, edi
	cmp	dword ptr [rip + y.14], 10
	setl	dl
	mov	esi, 663736955
	jmp	.LBB2_79
	.p2align	4, 0x90
.LBB2_2:                                
	cmp	ecx, -814021564
	jg	.LBB2_19

	cmp	ecx, -1582730887
	jle	.LBB2_4

	cmp	ecx, -1336285030
	jle	.LBB2_12

	cmp	ecx, -1336285029
	je	.LBB2_80

	cmp	ecx, -1040330616
	je	.LBB2_83

	cmp	ecx, -940838541
	mov	eax, ecx
	jne	.LBB2_1

	mov	rdi, r15
	call	_ZN8CryptoPP8SecBlockIjNS_29FixedSizeAllocatorWithCleanupIjLm32ENS_13NullAllocatorIjEELb0EEEEcvPjEv
	movsxd	rcx, dword ptr [rsp + 4]
	lea	rbp, [rax + 4*rcx]
	mov	rdi, r15
	call	_ZN8CryptoPP8SecBlockIjNS_29FixedSizeAllocatorWithCleanupIjLm32ENS_13NullAllocatorIjEELb0EEEEcvPjEv
	mov	ecx, 30
	sub	ecx, dword ptr [rsp + 4]
	movsxd	rcx, ecx
	lea	rsi, [rax + 4*rcx]
	mov	rdi, rbp
	call	_ZSt4swapIjEvRT_S1_
	mov	rdi, r15
	call	_ZN8CryptoPP8SecBlockIjNS_29FixedSizeAllocatorWithCleanupIjLm32ENS_13NullAllocatorIjEELb0EEEEcvPjEv
	mov	ecx, dword ptr [rsp + 4]
	inc	ecx
	movsxd	rcx, ecx
	lea	rbp, [rax + 4*rcx]
	mov	rdi, r15
	call	_ZN8CryptoPP8SecBlockIjNS_29FixedSizeAllocatorWithCleanupIjLm32ENS_13NullAllocatorIjEELb0EEEEcvPjEv
	mov	ecx, 31
	sub	ecx, dword ptr [rsp + 4]
	movsxd	rcx, ecx
	lea	rsi, [rax + 4*rcx]
	mov	rdi, rbp
	call	_ZSt4swapIjEvRT_S1_
	mov	eax, dword ptr [rsp + 4]
	add	eax, 2
	mov	dword ptr [rsp + 92], eax
	mov	eax, dword ptr [rip + x.13]
	lea	ecx, [rax - 1]
	imul	ecx, eax
	not	ecx
	or	ecx, -2
	cmp	ecx, -1
	sete	cl
	mov	eax, 1579647295
	mov	edi, -1623819141
	cmove	eax, edi
	cmp	dword ptr [rip + y.14], 10
	setl	dl
	mov	esi, 1579647295
	jmp	.LBB2_79
	.p2align	4, 0x90
.LBB2_36:                               
	cmp	ecx, 989255793
	jle	.LBB2_37

	cmp	ecx, 1190289118
	jle	.LBB2_46

	cmp	ecx, 1190289119
	je	.LBB2_76

	cmp	ecx, 1223828093
	je	.LBB2_71

	cmp	ecx, 1353526226
	mov	eax, ecx
	jne	.LBB2_1

	movzx	eax, byte ptr [rsp + 19]
	test	al, al
	mov	eax, 1386509250
	mov	ecx, 813068877
	cmovne	eax, ecx
	jmp	.LBB2_1
	.p2align	4, 0x90
.LBB2_19:                               
	cmp	ecx, 16711160
	jle	.LBB2_20

	cmp	ecx, 680780635
	jle	.LBB2_28

	cmp	ecx, 680780636
	mov	eax, r12d
	je	.LBB2_1

	cmp	ecx, 752548961
	je	.LBB2_82

	cmp	ecx, 779553466
	mov	eax, ecx
	jne	.LBB2_1

	mov	rax, qword ptr [rsp + 24]
	movzx	eax, byte ptr [rax]
	shl	eax, 24
	mov	rcx, qword ptr [rsp + 24]
	movzx	ecx, byte ptr [rcx + 2]
	shl	ecx, 16
	mov	edx, ecx
	not	edx
	mov	esi, eax
	not	esi
	and	edx, -907854513
	and	ecx, 1835008
	or	ecx, edx
	and	esi, -907854513
	and	eax, 905969664
	or	eax, esi
	xor	eax, ecx
	mov	rcx, qword ptr [rsp + 24]
	movzx	ecx, byte ptr [rcx + 4]
	shl	ecx, 8
	or	ecx, eax
	mov	rax, qword ptr [rsp + 24]
	movzx	eax, byte ptr [rax + 6]
	mov	ebx, ecx
	not	ebx
	mov	edx, eax
	not	edx
	mov	esi, ebx
	and	esi, 1339204868
	and	ecx, -1339205120
	or	ecx, esi
	or	ebx, edx
	and	edx, 1339204868
	and	eax, 251
	or	eax, edx
	xor	eax, ecx
	not	ebx
	or	ebx, eax
	mov	rdi, r15
	call	_ZN8CryptoPP8SecBlockIjNS_29FixedSizeAllocatorWithCleanupIjLm32ENS_13NullAllocatorIjEELb0EEEEcvPjEv
	movsxd	rbp, dword ptr [rsp + 20]
	mov	dword ptr [rax + 8*rbp], ebx
	mov	rax, qword ptr [rsp + 24]
	movzx	eax, byte ptr [rax + 1]
	shl	eax, 24
	mov	rcx, qword ptr [rsp + 24]
	movzx	ecx, byte ptr [rcx + 3]
	shl	ecx, 16
	mov	edx, ecx
	not	edx
	mov	esi, eax
	not	esi
	and	edx, 1466413169
	and	ecx, 9961472
	or	ecx, edx
	and	esi, 1466413169
	and	eax, -1476395008
	or	eax, esi
	xor	eax, ecx
	mov	rcx, qword ptr [rsp + 24]
	movzx	ecx, byte ptr [rcx + 5]
	shl	ecx, 8
	mov	ebx, eax
	not	ebx
	mov	edx, ecx
	not	edx
	mov	esi, ebx
	and	esi, 655574020
	and	eax, -655622144
	or	eax, esi
	or	ebx, edx
	and	edx, 655574020
	and	ecx, 47872
	or	ecx, edx
	xor	ecx, eax
	not	ebx
	or	ebx, ecx
	mov	rax, qword ptr [rsp + 24]
	movzx	eax, byte ptr [rax + 7]
	mov	ecx, ebx
	and	ecx, eax
	xor	ebx, eax
	or	ebx, ecx
	mov	rdi, r15
	call	_ZN8CryptoPP8SecBlockIjNS_29FixedSizeAllocatorWithCleanupIjLm32ENS_13NullAllocatorIjEELb0EEEEcvPjEv
	lea	ecx, [rbp + rbp + 1]
	movsxd	rcx, ecx
	mov	dword ptr [rax + 4*rcx], ebx
	mov	r14d, dword ptr [rsp + 20]
	inc	r14d
	mov	eax, -393369797
	jmp	.LBB2_1
.LBB2_62:                               
	cmp	ecx, 1796082886
	jle	.LBB2_63

	cmp	ecx, 1796082887
	je	.LBB2_85

	cmp	ecx, 1939052390
	mov	eax, ecx
	jne	.LBB2_1

	mov	dword ptr [rsp + 36], r13d
	mov	eax, dword ptr [rsp + 36]
	cmp	eax, 56
	mov	eax, -814021563
	mov	ecx, 1503191189
	cmovl	eax, ecx
	jmp	.LBB2_1
.LBB2_4:                                
	cmp	ecx, -1902591494
	jg	.LBB2_8

	cmp	ecx, -2041030473
	je	.LBB2_87

	cmp	ecx, -1980171999
	mov	eax, ecx
	jne	.LBB2_1

	movsxd	rax, dword ptr [rsp + 20]
	movzx	eax, byte ptr [rax + _ZN8CryptoPP12_GLOBAL__N_1L6totrotE]
	mov	ecx, dword ptr [rsp + 8]
	lea	edx, [rcx + rax]
	mov	esi, dword ptr [rsp + 8]
	cmp	esi, 28
	mov	esi, 56
	mov	edi, 28
	cmovl	esi, edi
	cmp	edx, esi
	lea	eax, [rcx + rax - 28]
	cmovl	eax, edx
	cdqe
	mov	rcx, qword ptr [rsp + 64]
	movzx	eax, byte ptr [rcx + rax]
	movsxd	rcx, dword ptr [rsp + 8]
	mov	rdx, qword ptr [rsp + 40]
	mov	byte ptr [rdx + rcx], al
	mov	eax, dword ptr [rip + x.13]
	mov	ecx, dword ptr [rip + y.14]
	lea	edx, [rax - 1]
	imul	edx, eax
	mov	eax, edx
	xor	eax, -2
	and	eax, edx
	sete	dl
	cmp	ecx, 10
	setl	bl
	xor	bl, dl
	mov	edx, 663736955
	mov	esi, 800227175
	cmovne	edx, esi
	test	eax, eax
	mov	eax, edx
	cmove	eax, esi
	cmp	ecx, 10
	mov	ecx, dword ptr [rsp + 8]
	cmovge	eax, edx
	inc	ecx
	mov	dword ptr [rsp + 84], ecx
	jmp	.LBB2_1
.LBB2_37:                               
	cmp	ecx, 824596547
	jg	.LBB2_41

	cmp	ecx, 800227175
	je	.LBB2_74

	cmp	ecx, 813068877
	mov	eax, ecx
	jne	.LBB2_1

	movsxd	rax, dword ptr [rsp + 12]
	imul	rcx, rax, 715827883
	mov	rdx, rcx
	shr	rdx, 63
	shr	rcx, 32
	add	ecx, edx
	add	ecx, ecx
	lea	ecx, [rcx + 2*rcx]
	sub	eax, ecx
	cdqe
	mov	eax, dword ptr [4*rax + _ZN8CryptoPP12_GLOBAL__N_1L7bytebitE]
	shr	eax, 2
	movsxd	rcx, dword ptr [rsp + 12]
	imul	rcx, rcx, 715827883
	mov	rdx, rcx
	shr	rdx, 63
	shr	rcx, 32
	add	ecx, edx
	movsxd	rcx, ecx
	mov	rdx, qword ptr [rsp + 24]
	movzx	esi, byte ptr [rdx + rcx]
	mov	edi, eax
	not	edi
	mov	ebp, esi
	not	ebp
	mov	ebx, edi
	and	ebx, 44
	and	eax, 211
	or	eax, ebx
	or	edi, ebp
	and	ebp, 44
	and	esi, 211
	or	esi, ebp
	xor	esi, eax
	not	edi
	or	edi, esi
	mov	byte ptr [rdx + rcx], dil
	mov	eax, 1386509250
	jmp	.LBB2_1
.LBB2_20:                               
	cmp	ecx, -402170501
	jg	.LBB2_24

	cmp	ecx, -814021563
	je	.LBB2_70

	cmp	ecx, -565405874
	mov	eax, ecx
	jne	.LBB2_1

	lea	rdi, [rsp + 104]
	call	_ZN8CryptoPP8SecBlockIhNS_20AllocatorWithCleanupIhLb0EEEED2Ev
	mov	rax, qword ptr [rsp + 72]
	mov	eax, 989255794
	jmp	.LBB2_1
.LBB2_55:                               
	cmp	ecx, 1386509250
	je	.LBB2_78

	cmp	ecx, 1412468778
	mov	eax, ecx
	jne	.LBB2_1

	mov	eax, dword ptr [rsp + 60] 
	mov	dword ptr [rsp + 4], eax
	mov	eax, dword ptr [rsp + 4]
	cmp	eax, 16
	mov	eax, 1091747531
	mov	ecx, -1040330616
	cmovl	eax, ecx
	jmp	.LBB2_1
.LBB2_12:                               
	cmp	ecx, -1582730886
	je	.LBB2_75

	cmp	ecx, -1422501360
	mov	eax, ecx
	jne	.LBB2_1

	mov	rax, qword ptr [rsp + 24]
	mov	qword ptr [rax], 0
	mov	eax, 1223828093
	mov	dword ptr [rsp + 52], 0 
	jmp	.LBB2_1
.LBB2_46:                               
	cmp	ecx, 989255794
	je	.LBB2_84

	cmp	ecx, 1091747531
	mov	eax, ecx
	jne	.LBB2_1

	mov	eax, dword ptr [rip + x.13]
	lea	ecx, [rax - 1]
	imul	ecx, eax
	mov	eax, ecx
	xor	eax, -2
	and	eax, ecx
	sete	cl
	test	eax, eax
	mov	eax, -565405874
	mov	edi, 989255794
	cmove	eax, edi
	cmp	dword ptr [rip + y.14], 10
	setl	dl
	mov	esi, -565405874
	jmp	.LBB2_79
.LBB2_28:                               
	cmp	ecx, 16711161
	je	.LBB2_72

	cmp	ecx, 663736955
	mov	eax, ecx
	jne	.LBB2_1

	movsxd	rax, dword ptr [rsp + 20]
	movzx	eax, byte ptr [rax + _ZN8CryptoPP12_GLOBAL__N_1L6totrotE]
	mov	ecx, dword ptr [rsp + 8]
	mov	ecx, dword ptr [rsp + 8]
	mov	ecx, dword ptr [rsp + 8]
	mov	ecx, dword ptr [rsp + 8]
	mov	ecx, dword ptr [rsp + 8]
	mov	ecx, dword ptr [rsp + 8]
	mov	ecx, dword ptr [rsp + 8]
	mov	ecx, dword ptr [rsp + 8]
	mov	ecx, dword ptr [rsp + 8]
	mov	ecx, dword ptr [rsp + 8]
	mov	ecx, dword ptr [rsp + 8]
	lea	edx, [rcx + rax]
	mov	esi, dword ptr [rsp + 8]
	cmp	esi, 28
	mov	esi, 56
	mov	edi, 28
	cmovl	esi, edi
	cmp	edx, esi
	lea	eax, [rcx + rax - 28]
	cmovl	eax, edx
	cdqe
	mov	rcx, qword ptr [rsp + 64]
	movzx	eax, byte ptr [rcx + rax]
	movsxd	rcx, dword ptr [rsp + 8]
	mov	rdx, qword ptr [rsp + 40]
	mov	byte ptr [rdx + rcx], al
	mov	eax, dword ptr [rsp + 8]
	mov	eax, dword ptr [rsp + 8]
	mov	eax, dword ptr [rsp + 8]
	mov	eax, dword ptr [rsp + 8]
	mov	eax, -1980171999
	jmp	.LBB2_1
.LBB2_63:                               
	cmp	ecx, 1579647295
	je	.LBB2_88

	cmp	ecx, 1593690768
	mov	eax, ecx
	jne	.LBB2_1

	mov	eax, dword ptr [rsp + 12]
	mov	rax, qword ptr [rsp + 40]
	mov	eax, 1439020414
	jmp	.LBB2_1
.LBB2_8:                                
	cmp	ecx, -1902591493
	je	.LBB2_73

	cmp	ecx, -1623819141
	mov	eax, ecx
	jne	.LBB2_1

	mov	eax, 1412468778
	mov	ecx, dword ptr [rsp + 92]
	mov	dword ptr [rsp + 60], ecx 
	jmp	.LBB2_1
.LBB2_41:                               
	cmp	ecx, 824596548
	je	.LBB2_81

	cmp	ecx, 954926039
	mov	eax, ecx
	jne	.LBB2_1

	mov	eax, dword ptr [rip + x.13]
	mov	ecx, dword ptr [rip + y.14]
	lea	edx, [rax - 1]
	imul	edx, eax
	not	edx
	or	edx, -2
	cmp	edx, -1
	sete	al
	cmp	ecx, 10
	setl	bl
	xor	bl, al
	mov	esi, 1593690768
	mov	edi, 1439020414
	jmp	.LBB2_44
.LBB2_24:                               
	cmp	ecx, -402170500
	je	.LBB2_86

	cmp	ecx, -393369797
	mov	eax, ecx
	jne	.LBB2_1

	mov	dword ptr [rsp + 20], r14d
	mov	eax, dword ptr [rsp + 20]
	cmp	eax, 16
	mov	eax, 680780636
	mov	ecx, -1422501360
	cmovl	eax, ecx
	jmp	.LBB2_1
.LBB2_77:                               
	movsxd	rax, dword ptr [rsp + 12]
	movzx	eax, byte ptr [rax + _ZN8CryptoPP12_GLOBAL__N_1L3pc2E]
	movabs	rcx, 3901781233421861314
	sub	rax, rcx
	add	rax, qword ptr [rsp + 40]
	cmp	byte ptr [rcx + rax - 1], 0
	setne	byte ptr [rsp + 19]
	mov	eax, dword ptr [rip + x.13]
	lea	ecx, [rax - 1]
	imul	ecx, eax
	not	ecx
	or	ecx, -2
	cmp	ecx, -1
	sete	cl
	mov	eax, 1593690768
	mov	edi, 1353526226
	cmove	eax, edi
	cmp	dword ptr [rip + y.14], 10
	setl	dl
	mov	esi, 1593690768
	jmp	.LBB2_79
.LBB2_69:                               
	movsxd	rax, dword ptr [rsp + 36]
	movzx	ecx, byte ptr [rax + _ZN8CryptoPP12_GLOBAL__N_1L3pc1E]
	mov	edx, ecx
	dec	edx
	neg	cl
	mov	bl, 7
	sub	bl, cl
	mov	ecx, ebx
	xor	cl, -8
	and	cl, bl
	sar	edx, 3
	movsxd	rdx, edx
	mov	rsi, qword ptr [rsp + 96] 
	movzx	edx, byte ptr [rsi + rdx]
	movzx	ecx, cl
	mov	ecx, dword ptr [4*rcx + _ZN8CryptoPP12_GLOBAL__N_1L7bytebitE]
	xor	edx, ecx
	not	edx
	test	edx, ecx
	mov	rcx, qword ptr [rsp + 64]
	setne	byte ptr [rcx + rax]
	mov	r13d, dword ptr [rsp + 36]
	inc	r13d
	mov	eax, 1939052390
	jmp	.LBB2_1
.LBB2_80:                               
	mov	eax, dword ptr [rip + x.13]
	mov	ecx, dword ptr [rip + y.14]
	lea	edx, [rax - 1]
	imul	edx, eax
	not	edx
	or	edx, -2
	cmp	edx, -1
	sete	al
	cmp	ecx, 10
	setl	bl
	xor	bl, al
	mov	esi, -2041030473
	mov	edi, 824596548
	cmovne	esi, edi
	cmp	edx, -1
	mov	eax, esi
	cmove	eax, edi
	cmp	ecx, 10
	mov	ecx, dword ptr [rsp + 12]
	cmovge	eax, esi
	inc	ecx
	mov	dword ptr [rsp + 88], ecx
	jmp	.LBB2_1
.LBB2_83:                               
	mov	eax, dword ptr [rip + x.13]
	mov	ecx, dword ptr [rip + y.14]
	lea	edx, [rax - 1]
	imul	edx, eax
	not	edx
	or	edx, -2
	cmp	edx, -1
	sete	al
	cmp	ecx, 10
	setl	bl
	xor	bl, al
	mov	esi, 1579647295
	mov	edi, -940838541
.LBB2_44:                               
	cmovne	esi, edi
	cmp	edx, -1
	mov	eax, esi
	cmove	eax, edi
	cmp	ecx, 10
	cmovge	eax, esi
	jmp	.LBB2_1
.LBB2_76:                               
	mov	eax, dword ptr [rsp + 56] 
	mov	dword ptr [rsp + 12], eax
	mov	eax, dword ptr [rsp + 12]
	cmp	eax, 48
	mov	eax, 779553466
	mov	ecx, 954926039
	cmovl	eax, ecx
	jmp	.LBB2_1
.LBB2_71:                               
	mov	eax, dword ptr [rip + x.13]
	mov	ecx, dword ptr [rip + y.14]
	mov	edx, eax
	neg	edx
	not	edx
	imul	edx, eax
	not	edx
	or	edx, -2
	cmp	edx, -1
	sete	al
	cmp	ecx, 10
	setl	bl
	xor	bl, al
	mov	esi, -402170500
	mov	edi, 16711161
	cmovne	esi, edi
	cmp	edx, -1
	mov	eax, esi
	cmove	eax, edi
	cmp	ecx, 10
	mov	ecx, dword ptr [rsp + 52] 
	mov	dword ptr [rsp + 8], ecx
	cmovge	eax, esi
	jmp	.LBB2_1
.LBB2_82:                               
	mov	eax, 1412468778
	mov	dword ptr [rsp + 60], 0 
	jmp	.LBB2_1
.LBB2_87:                               
	mov	eax, dword ptr [rsp + 12]
	mov	eax, dword ptr [rsp + 12]
	mov	eax, dword ptr [rsp + 12]
	mov	eax, -1336285029
	jmp	.LBB2_1
.LBB2_74:                               
	mov	eax, 1223828093
	mov	ecx, dword ptr [rsp + 84]
	mov	dword ptr [rsp + 52], ecx 
	jmp	.LBB2_1
.LBB2_70:                               
	mov	eax, -393369797
	xor	r14d, r14d
	jmp	.LBB2_1
.LBB2_78:                               
	mov	eax, dword ptr [rip + x.13]
	lea	ecx, [rax - 1]
	imul	ecx, eax
	mov	eax, ecx
	xor	eax, -2
	and	eax, ecx
	sete	cl
	test	eax, eax
	mov	eax, -2041030473
	mov	edi, -1336285029
	cmove	eax, edi
	cmp	dword ptr [rip + y.14], 10
	setl	dl
	mov	esi, -2041030473
	jmp	.LBB2_79
.LBB2_75:                               
	mov	eax, 1190289119
	mov	dword ptr [rsp + 56], 0 
	jmp	.LBB2_1
.LBB2_84:                               
	lea	rdi, [rsp + 104]
	call	_ZN8CryptoPP8SecBlockIhNS_20AllocatorWithCleanupIhLb0EEEED2Ev
	mov	eax, dword ptr [rip + x.13]
	mov	ecx, dword ptr [rip + y.14]
	mov	edx, eax
	neg	edx
	not	edx
	imul	edx, eax
	mov	eax, edx
	xor	eax, -2
	and	eax, edx
	sete	dl
	cmp	ecx, 10
	setl	bl
	xor	bl, dl
	mov	edx, -565405874
	mov	esi, 1796082887
	cmovne	edx, esi
	test	eax, eax
	mov	eax, edx
	cmove	eax, esi
	cmp	ecx, 10
	mov	rcx, qword ptr [rsp + 72]
	cmovge	eax, edx
	jmp	.LBB2_1
.LBB2_72:                               
	mov	eax, dword ptr [rsp + 8]
	cmp	eax, 56
	setl	byte ptr [rsp + 18]
	mov	eax, dword ptr [rip + x.13]
	lea	ecx, [rax - 1]
	imul	ecx, eax
	not	ecx
	or	ecx, -2
	cmp	ecx, -1
	sete	cl
	mov	eax, -402170500
	mov	esi, -1902591493
	cmove	eax, esi
	cmp	dword ptr [rip + y.14], 10
	setl	dl
	mov	edi, -402170500
	cmovge	eax, edi
	xor	dl, cl
	cmovne	eax, esi
	jmp	.LBB2_1
.LBB2_88:                               
	mov	rdi, r15
	call	_ZN8CryptoPP8SecBlockIjNS_29FixedSizeAllocatorWithCleanupIjLm32ENS_13NullAllocatorIjEELb0EEEEcvPjEv
	movsxd	rcx, dword ptr [rsp + 4]
	lea	rbp, [rax + 4*rcx]
	mov	rdi, r15
	call	_ZN8CryptoPP8SecBlockIjNS_29FixedSizeAllocatorWithCleanupIjLm32ENS_13NullAllocatorIjEELb0EEEEcvPjEv
	mov	ecx, dword ptr [rsp + 4]
	mov	ecx, dword ptr [rsp + 4]
	mov	ecx, dword ptr [rsp + 4]
	mov	ecx, dword ptr [rsp + 4]
	mov	ecx, dword ptr [rsp + 4]
	mov	ecx, dword ptr [rsp + 4]
	mov	ecx, dword ptr [rsp + 4]
	mov	ecx, dword ptr [rsp + 4]
	mov	ecx, dword ptr [rsp + 4]
	mov	ecx, dword ptr [rsp + 4]
	mov	ecx, dword ptr [rsp + 4]
	mov	ecx, dword ptr [rsp + 4]
	mov	ecx, dword ptr [rsp + 4]
	mov	ecx, 30
	sub	ecx, dword ptr [rsp + 4]
	movsxd	rcx, ecx
	lea	rsi, [rax + 4*rcx]
	mov	rdi, rbp
	call	_ZSt4swapIjEvRT_S1_
	mov	rdi, r15
	call	_ZN8CryptoPP8SecBlockIjNS_29FixedSizeAllocatorWithCleanupIjLm32ENS_13NullAllocatorIjEELb0EEEEcvPjEv
	mov	ecx, dword ptr [rsp + 4]
	mov	ecx, dword ptr [rsp + 4]
	mov	ecx, dword ptr [rsp + 4]
	mov	ecx, dword ptr [rsp + 4]
	xor	ecx, ecx
	sub	ecx, dword ptr [rsp + 4]
	mov	edx, 1
	sub	edx, ecx
	movsxd	rcx, edx
	lea	rbp, [rax + 4*rcx]
	mov	rdi, r15
	call	_ZN8CryptoPP8SecBlockIjNS_29FixedSizeAllocatorWithCleanupIjLm32ENS_13NullAllocatorIjEELb0EEEEcvPjEv
	mov	ecx, dword ptr [rsp + 4]
	mov	ecx, 31
	sub	ecx, dword ptr [rsp + 4]
	movsxd	rcx, ecx
	lea	rsi, [rax + 4*rcx]
	mov	rdi, rbp
	call	_ZSt4swapIjEvRT_S1_
	mov	eax, dword ptr [rsp + 4]
	mov	eax, dword ptr [rsp + 4]
	mov	eax, dword ptr [rsp + 4]
	mov	eax, dword ptr [rsp + 4]
	mov	eax, dword ptr [rsp + 4]
	mov	eax, dword ptr [rsp + 4]
	mov	eax, dword ptr [rsp + 4]
	mov	eax, dword ptr [rsp + 4]
	mov	eax, -940838541
	jmp	.LBB2_1
.LBB2_73:                               
	movzx	eax, byte ptr [rsp + 18]
	test	al, al
	mov	eax, -1582730886
	mov	ecx, 1573402123
	cmovne	eax, ecx
	jmp	.LBB2_1
.LBB2_81:                               
	mov	eax, 1190289119
	mov	ecx, dword ptr [rsp + 88]
	mov	dword ptr [rsp + 56], ecx 
	jmp	.LBB2_1
.LBB2_86:                               
	mov	eax, dword ptr [rsp + 8]
	mov	eax, 16711161
	jmp	.LBB2_1
.LBB2_85:
	add	rsp, 136
	pop	rbx
	pop	r12
	pop	r13
	pop	r14
	pop	r15
	pop	rbp
	ret
.Lfunc_end2:
	.size	_ZN8CryptoPP6RawDES9RawSetKeyENS_9CipherDirEPKh, .Lfunc_end2-_ZN8CryptoPP6RawDES9RawSetKeyENS_9CipherDirEPKh
	.cfi_endproc

	.section	.text._ZNK8CryptoPP19BlockTransformation18GetCipherDirectionEv,"axG",@progbits,_ZNK8CryptoPP19BlockTransformation18GetCipherDirectionEv,comdat
	.weak	_ZNK8CryptoPP19BlockTransformation18GetCipherDirectionEv 
	.p2align	4, 0x90
	.type	_ZNK8CryptoPP19BlockTransformation18GetCipherDirectionEv,@function
_ZNK8CryptoPP19BlockTransformation18GetCipherDirectionEv: 
	.cfi_startproc

	push	rbp
.Lcfi19:
	.cfi_def_cfa_offset 16
	push	r15
.Lcfi20:
	.cfi_def_cfa_offset 24
	push	r14
.Lcfi21:
	.cfi_def_cfa_offset 32
	push	rbx
.Lcfi22:
	.cfi_def_cfa_offset 40
	push	rax
.Lcfi23:
	.cfi_def_cfa_offset 48
.Lcfi24:
	.cfi_offset rbx, -40
.Lcfi25:
	.cfi_offset r14, -32
.Lcfi26:
	.cfi_offset r15, -24
.Lcfi27:
	.cfi_offset rbp, -16
	mov	eax, dword ptr [rip + x.15]
	lea	ecx, [rax - 1]
	imul	ecx, eax
	mov	eax, ecx
	xor	eax, -2
	test	eax, ecx
	sete	byte ptr [rsp + 2]
	mov	eax, dword ptr [rip + y.16]
	cmp	eax, 10
	setl	byte ptr [rsp + 3]
	mov	rbp, rdi
	mov	ecx, 1537348064
	mov	r14d, -677385531
	mov	r15d, -861447080
	jmp	.LBB3_1
.LBB3_7:                                
	movzx	eax, byte ptr [rsp + 2]
	movzx	ecx, byte ptr [rsp + 3]
	mov	edx, eax
	xor	dl, cl
	mov	edx, 1091698292
	cmovne	edx, r15d
	test	cl, cl
	mov	ecx, edx
	cmovne	ecx, r15d
	test	al, al
	cmove	ecx, edx
	.p2align	4, 0x90
.LBB3_1:                                
	cmp	ecx, 1091698291
	jg	.LBB3_5

	cmp	ecx, -861447080
	je	.LBB3_8

	cmp	ecx, -677385531
	jne	.LBB3_1
	jmp	.LBB3_4
	.p2align	4, 0x90
.LBB3_5:                                
	cmp	ecx, 1091698292
	je	.LBB3_9

	cmp	ecx, 1537348064
	jne	.LBB3_1
	jmp	.LBB3_7
.LBB3_8:                                
	mov	rax, qword ptr [rbp]
	mov	rdi, rbp
	call	qword ptr [rax + 72]
	mov	ecx, dword ptr [rip + x.15]
	mov	edi, dword ptr [rip + y.16]
	mov	esi, ecx
	neg	esi
	not	esi
	imul	esi, ecx
	mov	ecx, esi
	xor	ecx, -2
	and	ecx, esi
	sete	bl
	cmp	edi, 10
	setl	dl
	xor	dl, bl
	mov	edx, 1091698292
	cmovne	edx, r14d
	test	ecx, ecx
	mov	ecx, edx
	cmove	ecx, r14d
	cmp	edi, 10
	cmovge	ecx, edx
	xor	al, 1
	movzx	eax, al
	mov	dword ptr [rsp + 4], eax
	jmp	.LBB3_1
.LBB3_9:                                
	mov	rax, qword ptr [rbp]
	mov	rdi, rbp
	call	qword ptr [rax + 72]
	mov	ecx, -861447080
	jmp	.LBB3_1
.LBB3_4:
	mov	eax, dword ptr [rsp + 4]
	add	rsp, 8
	pop	rbx
	pop	r14
	pop	r15
	pop	rbp
	ret
.Lfunc_end3:
	.size	_ZNK8CryptoPP19BlockTransformation18GetCipherDirectionEv, .Lfunc_end3-_ZNK8CryptoPP19BlockTransformation18GetCipherDirectionEv
	.cfi_endproc

	.section	.text._ZN8CryptoPP8SecBlockIhNS_20AllocatorWithCleanupIhLb0EEEEC2Em,"axG",@progbits,_ZN8CryptoPP8SecBlockIhNS_20AllocatorWithCleanupIhLb0EEEEC2Em,comdat
	.weak	_ZN8CryptoPP8SecBlockIhNS_20AllocatorWithCleanupIhLb0EEEEC2Em 
	.p2align	4, 0x90
	.type	_ZN8CryptoPP8SecBlockIhNS_20AllocatorWithCleanupIhLb0EEEEC2Em,@function
_ZN8CryptoPP8SecBlockIhNS_20AllocatorWithCleanupIhLb0EEEEC2Em: 
	.cfi_startproc

	push	rbx
.Lcfi28:
	.cfi_def_cfa_offset 16
.Lcfi29:
	.cfi_offset rbx, -16
	mov	rbx, rdi
	mov	qword ptr [rbx + 8], -1
	mov	qword ptr [rbx + 16], rsi
	xor	edx, edx
	call	_ZN8CryptoPP20AllocatorWithCleanupIhLb0EE8allocateEmPKv
	mov	qword ptr [rbx + 24], rax
	pop	rbx
	ret
.Lfunc_end4:
	.size	_ZN8CryptoPP8SecBlockIhNS_20AllocatorWithCleanupIhLb0EEEEC2Em, .Lfunc_end4-_ZN8CryptoPP8SecBlockIhNS_20AllocatorWithCleanupIhLb0EEEEC2Em
	.cfi_endproc

	.section	.text._ZN8CryptoPP8SecBlockIhNS_20AllocatorWithCleanupIhLb0EEEEcvPhEv,"axG",@progbits,_ZN8CryptoPP8SecBlockIhNS_20AllocatorWithCleanupIhLb0EEEEcvPhEv,comdat
	.weak	_ZN8CryptoPP8SecBlockIhNS_20AllocatorWithCleanupIhLb0EEEEcvPhEv 
	.p2align	4, 0x90
	.type	_ZN8CryptoPP8SecBlockIhNS_20AllocatorWithCleanupIhLb0EEEEcvPhEv,@function
_ZN8CryptoPP8SecBlockIhNS_20AllocatorWithCleanupIhLb0EEEEcvPhEv: 

	mov	rax, qword ptr [rdi + 24]
	ret
.Lfunc_end5:
	.size	_ZN8CryptoPP8SecBlockIhNS_20AllocatorWithCleanupIhLb0EEEEcvPhEv, .Lfunc_end5-_ZN8CryptoPP8SecBlockIhNS_20AllocatorWithCleanupIhLb0EEEEcvPhEv

	.section	.text._ZN8CryptoPP8SecBlockIjNS_29FixedSizeAllocatorWithCleanupIjLm32ENS_13NullAllocatorIjEELb0EEEEcvPjEv,"axG",@progbits,_ZN8CryptoPP8SecBlockIjNS_29FixedSizeAllocatorWithCleanupIjLm32ENS_13NullAllocatorIjEELb0EEEEcvPjEv,comdat
	.weak	_ZN8CryptoPP8SecBlockIjNS_29FixedSizeAllocatorWithCleanupIjLm32ENS_13NullAllocatorIjEELb0EEEEcvPjEv 
	.p2align	4, 0x90
	.type	_ZN8CryptoPP8SecBlockIjNS_29FixedSizeAllocatorWithCleanupIjLm32ENS_13NullAllocatorIjEELb0EEEEcvPjEv,@function
_ZN8CryptoPP8SecBlockIjNS_29FixedSizeAllocatorWithCleanupIjLm32ENS_13NullAllocatorIjEELb0EEEEcvPjEv: 

	mov	eax, dword ptr [rip + x.21]
	mov	esi, dword ptr [rip + y.22]
	lea	ecx, [rax - 1]
	imul	ecx, eax
	mov	eax, ecx
	xor	eax, -2
	and	eax, ecx
	sete	dl
	sete	byte ptr [rsp - 10]
	test	eax, eax
	mov	r9d, 1997415854
	mov	r8d, 2028849130
	mov	ecx, 2028849130
	cmove	ecx, r9d
	cmp	esi, 10
	setl	al
	setl	byte ptr [rsp - 9]
	cmovge	ecx, r8d
	xor	al, dl
	cmovne	ecx, r9d
	mov	esi, 1368418048
	mov	r9d, -1450651272
	jmp	.LBB6_1
.LBB6_4:                                
	movzx	r10d, byte ptr [rsp - 10]
	movzx	edx, byte ptr [rsp - 9]
	mov	eax, r10d
	xor	al, dl
	test	dl, dl
	mov	esi, 2028849130
	cmovne	esi, r9d
	test	r10b, r10b
	cmove	esi, r8d
	test	al, al
	cmovne	esi, r9d
	.p2align	4, 0x90
.LBB6_1:                                
	cmp	esi, 1997415853
	jg	.LBB6_5

	cmp	esi, -1450651272
	je	.LBB6_8

	cmp	esi, 1368418048
	jne	.LBB6_1
	jmp	.LBB6_4
	.p2align	4, 0x90
.LBB6_5:                                
	cmp	esi, 1997415854
	je	.LBB6_9

	cmp	esi, 2028849130
	jne	.LBB6_1

	mov	esi, -1450651272
	jmp	.LBB6_1
.LBB6_8:                                
	mov	rax, qword ptr [rdi + 152]
	mov	qword ptr [rsp - 8], rax
	mov	esi, ecx
	jmp	.LBB6_1
.LBB6_9:
	mov	rax, qword ptr [rsp - 8]
	ret
.Lfunc_end6:
	.size	_ZN8CryptoPP8SecBlockIjNS_29FixedSizeAllocatorWithCleanupIjLm32ENS_13NullAllocatorIjEELb0EEEEcvPjEv, .Lfunc_end6-_ZN8CryptoPP8SecBlockIjNS_29FixedSizeAllocatorWithCleanupIjLm32ENS_13NullAllocatorIjEELb0EEEEcvPjEv

	.section	.text._ZSt4swapIjEvRT_S1_,"axG",@progbits,_ZSt4swapIjEvRT_S1_,comdat
	.weak	_ZSt4swapIjEvRT_S1_     
	.p2align	4, 0x90
	.type	_ZSt4swapIjEvRT_S1_,@function
_ZSt4swapIjEvRT_S1_:                    

	mov	eax, dword ptr [rip + x.23]
	lea	ecx, [rax - 1]
	imul	ecx, eax
	mov	eax, ecx
	xor	eax, -2
	test	eax, ecx
	sete	byte ptr [rsp - 2]
	mov	eax, dword ptr [rip + y.24]
	cmp	eax, 10
	setl	byte ptr [rsp - 1]
	mov	edx, -1595145940
	mov	r8d, 2059292287
	mov	r9d, 1515701603
	jmp	.LBB7_1
.LBB7_9:                                
	movzx	ecx, byte ptr [rsp - 2]
	movzx	edx, byte ptr [rsp - 1]
	mov	eax, ecx
	xor	al, dl
	mov	eax, -82429219
	cmovne	eax, r8d
	test	dl, dl
	mov	edx, eax
	cmovne	edx, r8d
	test	cl, cl
	cmove	edx, eax
	.p2align	4, 0x90
.LBB7_1:                                
	cmp	edx, 1515701602
	jg	.LBB7_5

	cmp	edx, -1595145940
	je	.LBB7_9

	cmp	edx, -82429219
	jne	.LBB7_1

	mov	eax, dword ptr [rdi]
	mov	ecx, dword ptr [rsi]
	mov	dword ptr [rdi], ecx
	mov	dword ptr [rsi], eax
	mov	edx, 2059292287
	jmp	.LBB7_1
	.p2align	4, 0x90
.LBB7_5:                                
	cmp	edx, 1515701603
	je	.LBB7_8

	cmp	edx, 2059292287
	jne	.LBB7_1

	mov	eax, dword ptr [rdi]
	mov	ecx, dword ptr [rsi]
	mov	dword ptr [rdi], ecx
	mov	dword ptr [rsi], eax
	mov	eax, dword ptr [rip + x.23]
	mov	r10d, dword ptr [rip + y.24]
	lea	edx, [rax - 1]
	imul	edx, eax
	mov	eax, edx
	xor	eax, -2
	and	eax, edx
	sete	dl
	cmp	r10d, 10
	setl	cl
	xor	cl, dl
	mov	ecx, -82429219
	cmovne	ecx, r9d
	test	eax, eax
	mov	edx, ecx
	cmove	edx, r9d
	cmp	r10d, 10
	cmovge	edx, ecx
	jmp	.LBB7_1
.LBB7_8:
	ret
.Lfunc_end7:
	.size	_ZSt4swapIjEvRT_S1_, .Lfunc_end7-_ZSt4swapIjEvRT_S1_

	.section	.text._ZN8CryptoPP8SecBlockIhNS_20AllocatorWithCleanupIhLb0EEEED2Ev,"axG",@progbits,_ZN8CryptoPP8SecBlockIhNS_20AllocatorWithCleanupIhLb0EEEED2Ev,comdat
	.weak	_ZN8CryptoPP8SecBlockIhNS_20AllocatorWithCleanupIhLb0EEEED2Ev 
	.p2align	4, 0x90
	.type	_ZN8CryptoPP8SecBlockIhNS_20AllocatorWithCleanupIhLb0EEEED2Ev,@function
_ZN8CryptoPP8SecBlockIhNS_20AllocatorWithCleanupIhLb0EEEED2Ev: 
	.cfi_startproc

	push	r14
.Lcfi30:
	.cfi_def_cfa_offset 16
	push	rbx
.Lcfi31:
	.cfi_def_cfa_offset 24
	push	rax
.Lcfi32:
	.cfi_def_cfa_offset 32
.Lcfi33:
	.cfi_offset rbx, -24
.Lcfi34:
	.cfi_offset r14, -16
	mov	rbx, rdi
	mov	r14, qword ptr [rbx + 24]
	lea	rdi, [rbx + 16]
	lea	rsi, [rbx + 8]
	call	_ZN8CryptoPP6STDMINImEERKT_S3_S3_
	mov	rdx, qword ptr [rax]
	mov	rdi, rbx
	mov	rsi, r14
	add	rsp, 8
	pop	rbx
	pop	r14
	jmp	_ZN8CryptoPP20AllocatorWithCleanupIhLb0EE10deallocateEPvm 
.Lfunc_end8:
	.size	_ZN8CryptoPP8SecBlockIhNS_20AllocatorWithCleanupIhLb0EEEED2Ev, .Lfunc_end8-_ZN8CryptoPP8SecBlockIhNS_20AllocatorWithCleanupIhLb0EEEED2Ev
	.cfi_endproc

	.section	.text.__clang_call_terminate,"axG",@progbits,__clang_call_terminate,comdat
	.hidden	__clang_call_terminate  
	.weak	__clang_call_terminate
	.p2align	4, 0x90
	.type	__clang_call_terminate,@function
__clang_call_terminate:                 

	push	rax
	call	__cxa_begin_catch
	call	_ZSt9terminatev
.Lfunc_end9:
	.size	__clang_call_terminate, .Lfunc_end9-__clang_call_terminate

	.text
	.globl	_ZNK8CryptoPP6RawDES15RawProcessBlockERjS1_ 
	.p2align	4, 0x90
	.type	_ZNK8CryptoPP6RawDES15RawProcessBlockERjS1_,@function
_ZNK8CryptoPP6RawDES15RawProcessBlockERjS1_: 

	push	rbp
	push	r15
	push	r14
	push	r13
	push	r12
	push	rbx
	sub	rsp, 24
	mov	r14, rdx
	mov	r15, rsi
	mov	r13d, dword ptr [r15]
	mov	r12d, dword ptr [r14]
	call	_ZNK8CryptoPP8SecBlockIjNS_29FixedSizeAllocatorWithCleanupIjLm32ENS_13NullAllocatorIjEELb0EEEEcvPKjEv
	mov	qword ptr [rsp + 16], rax
	xor	eax, eax
	jmp	.LBB10_1
	.p2align	4, 0x90
.LBB10_13:                              
	mov	edi, dword ptr [rsp + 4]
	call	_ZN8CryptoPP12rotrConstantILj4EjEET0_S1_

	mov	r12d, dword ptr [rsp + 12]
	lea	ecx, [4*r12]
	mov	rdx, qword ptr [rsp + 16]
	mov	ecx, dword ptr [rdx + 4*rcx]
	mov	edx, ecx
	not	edx
	and	edx, 1412743922
	and	ecx, -1412743923
	or	ecx, edx
	mov	edx, eax
	not	edx
	and	edx, 1412743922
	and	eax, -1412743923
	or	eax, edx
	xor	eax, ecx
	mov	ecx, eax
	xor	ecx, -64
	and	ecx, eax
	mov	ebp, dword ptr [4*rcx + _ZN8CryptoPP6RawDES5SpboxE+1536]
	mov	ecx, eax
	shr	ecx, 8
	mov	edx, ecx
	xor	edx, 16777152
	and	edx, ecx
	mov	r8d, dword ptr [4*rdx + _ZN8CryptoPP6RawDES5SpboxE+1024]
	mov	ecx, eax
	shr	ecx, 16
	and	ecx, 63
	mov	ebx, dword ptr [4*rcx + _ZN8CryptoPP6RawDES5SpboxE+512]
	shr	eax, 24
	and	eax, 63
	mov	r10d, dword ptr [4*rax + _ZN8CryptoPP6RawDES5SpboxE]
	mov	eax, dword ptr [rsp + 8]
	lea	ecx, [4*r12 + 1]
	mov	rdx, qword ptr [rsp + 16]
	mov	edx, dword ptr [rdx + 4*rcx]
	mov	ecx, dword ptr [rsp + 4]
	mov	edi, ecx
	not	edi
	and	edi, -399889715
	and	ecx, 399889714
	or	ecx, edi
	mov	edi, edx
	not	edi
	and	edi, -399889715
	and	edx, 399889714
	or	edx, edi
	xor	edx, ecx
	mov	ecx, edx
	and	ecx, 63
	mov	edi, dword ptr [4*rcx + _ZN8CryptoPP6RawDES5SpboxE+1792]
	mov	ecx, edx
	shr	ecx, 8
	mov	esi, ecx
	xor	esi, 16777152
	and	esi, ecx
	mov	r9d, dword ptr [4*rsi + _ZN8CryptoPP6RawDES5SpboxE+1280]
	mov	ecx, edx
	shr	ecx, 16
	mov	esi, ecx
	xor	esi, 65472
	and	esi, ecx
	mov	ecx, dword ptr [4*rsi + _ZN8CryptoPP6RawDES5SpboxE+768]
	shr	edx, 24
	mov	esi, edx
	xor	esi, 192
	and	esi, edx
	mov	r13d, dword ptr [4*rsi + _ZN8CryptoPP6RawDES5SpboxE+256]
	mov	edx, r8d
	not	edx
	and	edx, -1376943853
	and	r8d, 1376943852
	or	r8d, edx
	mov	edx, ebp
	not	edx
	and	edx, -1376943853
	and	ebp, 1376943852
	or	ebp, edx
	xor	ebp, r8d
	mov	edx, ebp
	not	edx
	and	edx, -2004799062
	and	ebp, 2004799061
	or	ebp, edx
	mov	edx, ebx
	not	edx
	and	edx, -2004799062
	and	ebx, 2004799061
	or	ebx, edx
	xor	ebx, ebp
	mov	edx, ebx
	not	edx
	and	edx, 403928012
	and	ebx, -403928013
	or	ebx, edx
	mov	edx, r10d
	not	edx
	and	edx, 403928012
	and	r10d, -403928013
	or	r10d, edx
	xor	r10d, ebx
	mov	edx, r10d
	not	edx
	and	edx, eax
	not	eax
	and	eax, r10d
	or	eax, edx
	mov	edx, eax
	not	edx
	and	edx, 1266838666
	and	eax, -1266838667
	or	eax, edx
	mov	edx, edi
	not	edx
	and	edx, 1266838666
	and	edi, -1266838667
	or	edi, edx
	xor	edi, eax
	mov	eax, edi
	not	eax
	and	eax, r9d
	not	r9d
	and	r9d, edi
	or	r9d, eax
	mov	eax, r9d
	not	eax
	and	eax, ecx
	not	ecx
	and	ecx, r9d
	or	ecx, eax
	mov	eax, ecx
	not	eax
	and	eax, -649417579
	and	ecx, 649417578
	or	ecx, eax
	mov	eax, r13d
	not	eax
	and	eax, -649417579
	and	r13d, 649417578
	or	r13d, eax
	xor	r13d, ecx
	mov	edi, r13d
	call	_ZN8CryptoPP12rotrConstantILj4EjEET0_S1_
	lea	ecx, [4*r12 + 2]
	mov	rdx, qword ptr [rsp + 16]
	mov	ecx, dword ptr [rdx + 4*rcx]
	mov	edx, ecx
	not	edx
	and	edx, eax
	not	eax
	and	eax, ecx
	or	eax, edx
	mov	ecx, eax
	xor	ecx, -64
	and	ecx, eax
	mov	ebp, dword ptr [4*rcx + _ZN8CryptoPP6RawDES5SpboxE+1536]
	mov	ecx, eax
	shr	ecx, 8
	mov	edx, ecx
	xor	edx, 16777152
	and	edx, ecx
	mov	r8d, dword ptr [4*rdx + _ZN8CryptoPP6RawDES5SpboxE+1024]
	mov	ecx, eax
	shr	ecx, 16
	and	ecx, 63
	mov	r10d, dword ptr [4*rcx + _ZN8CryptoPP6RawDES5SpboxE+512]
	shr	eax, 24
	mov	ecx, eax
	xor	ecx, 192
	and	ecx, eax
	mov	edi, dword ptr [4*rcx + _ZN8CryptoPP6RawDES5SpboxE]
	mov	eax, dword ptr [rsp + 4]
	lea	ecx, [4*r12 + 3]
	mov	rdx, qword ptr [rsp + 16]
	mov	ecx, dword ptr [rdx + 4*rcx]
	mov	edx, ecx
	not	edx
	and	edx, -292090781
	and	ecx, 292090780
	or	ecx, edx
	mov	edx, r13d
	not	edx
	and	edx, -292090781
	mov	esi, r13d
	and	esi, 292090780
	or	esi, edx
	xor	esi, ecx
	mov	ecx, esi
	and	ecx, 63
	mov	edx, dword ptr [4*rcx + _ZN8CryptoPP6RawDES5SpboxE+1792]
	mov	ecx, esi
	shr	ecx, 8
	mov	ebx, ecx
	xor	ebx, 16777152
	and	ebx, ecx
	mov	ecx, dword ptr [4*rbx + _ZN8CryptoPP6RawDES5SpboxE+1280]
	mov	ebx, esi
	shr	ebx, 16
	and	ebx, 63
	mov	r9d, dword ptr [4*rbx + _ZN8CryptoPP6RawDES5SpboxE+768]
	shr	esi, 24
	mov	ebx, esi
	xor	ebx, 192
	and	ebx, esi
	mov	r12d, dword ptr [4*rbx + _ZN8CryptoPP6RawDES5SpboxE+256]
	mov	esi, r8d
	not	esi
	and	esi, 2074773785
	and	r8d, -2074773786
	or	r8d, esi
	mov	esi, ebp
	not	esi
	and	esi, 2074773785
	and	ebp, -2074773786
	or	ebp, esi
	xor	ebp, r8d
	mov	esi, ebp
	not	esi
	and	esi, 1308121360
	and	ebp, -1308121361
	or	ebp, esi
	mov	esi, r10d
	not	esi
	and	esi, 1308121360
	and	r10d, -1308121361
	or	r10d, esi
	xor	r10d, ebp
	mov	esi, r10d
	not	esi
	and	esi, edi
	not	edi
	and	edi, r10d
	or	edi, esi
	mov	esi, edi
	not	esi
	and	esi, -865939795
	and	edi, 865939794
	or	edi, esi
	mov	esi, eax
	not	esi
	and	esi, -865939795
	and	eax, 865939794
	or	eax, esi
	xor	eax, edi
	mov	esi, eax
	not	esi
	and	esi, 21990893
	and	eax, -21990894
	or	eax, esi
	mov	esi, edx
	not	esi
	and	esi, 21990893
	and	edx, -21990894
	or	edx, esi
	xor	edx, eax
	mov	eax, edx
	not	eax
	and	eax, 1368176719
	and	edx, -1368176720
	or	edx, eax
	mov	eax, ecx
	not	eax
	and	eax, 1368176719
	and	ecx, -1368176720
	or	ecx, eax
	xor	ecx, edx
	mov	eax, ecx
	not	eax
	and	eax, r9d
	not	r9d
	and	r9d, ecx
	or	r9d, eax
	mov	eax, r9d
	not	eax
	and	eax, r12d
	not	r12d
	and	r12d, r9d
	or	r12d, eax
	mov	eax, dword ptr [rsp + 12]
	inc	eax
.LBB10_1:                               

	mov	ecx, -709005144
	jmp	.LBB10_2
.LBB10_10:                              
	mov	dword ptr [rsp + 8], r13d
	mov	dword ptr [rsp + 12], eax
	mov	dword ptr [rsp + 4], r12d
	mov	ecx, dword ptr [rsp + 12]
	cmp	ecx, 8
	mov	ecx, -1118697108
	mov	edx, 146124514
	cmovb	ecx, edx
	.p2align	4, 0x90
.LBB10_2:                               

	cmp	ecx, -825879694
	jg	.LBB10_7

	cmp	ecx, -1700254277
	je	.LBB10_12

	cmp	ecx, -1326465155
	je	.LBB10_11

	cmp	ecx, -1118697108
	jne	.LBB10_2

	mov	ecx, dword ptr [rip + x.29]
	lea	edx, [rcx - 1]
	imul	edx, ecx
	not	edx
	or	edx, -2
	cmp	edx, -1
	sete	dl
	mov	ecx, -825879693
	mov	edi, -1326465155
	cmove	ecx, edi
	cmp	dword ptr [rip + y.30], 10
	setl	bl
	mov	esi, -825879693
	cmovge	ecx, esi
	xor	bl, dl
	cmovne	ecx, edi
	jmp	.LBB10_2
	.p2align	4, 0x90
.LBB10_7:                               
	cmp	ecx, -825879693
	je	.LBB10_14

	cmp	ecx, 146124514
	je	.LBB10_13

	cmp	ecx, -709005144
	jne	.LBB10_2
	jmp	.LBB10_10
.LBB10_11:                              
	mov	ecx, dword ptr [rsp + 8]
	mov	dword ptr [r15], ecx
	mov	ecx, dword ptr [rsp + 4]
	mov	dword ptr [r14], ecx
	mov	ecx, dword ptr [rip + x.29]
	mov	edx, dword ptr [rip + y.30]
	mov	esi, ecx
	neg	esi
	not	esi
	imul	esi, ecx
	not	esi
	or	esi, -2
	cmp	esi, -1
	sete	cl
	cmp	edx, 10
	setl	bl
	xor	bl, cl
	mov	edi, -825879693
	mov	ebp, -1700254277
	cmovne	edi, ebp
	cmp	esi, -1
	mov	ecx, edi
	cmove	ecx, ebp
	cmp	edx, 10
	cmovge	ecx, edi
	jmp	.LBB10_2
.LBB10_14:                              
	mov	ecx, dword ptr [rsp + 8]
	mov	dword ptr [r15], ecx
	mov	ecx, dword ptr [rsp + 4]
	mov	dword ptr [r14], ecx
	mov	ecx, -1326465155
	jmp	.LBB10_2
.LBB10_12:
	add	rsp, 24
	pop	rbx
	pop	r12
	pop	r13
	pop	r14
	pop	r15
	pop	rbp
	ret
.Lfunc_end10:
	.size	_ZNK8CryptoPP6RawDES15RawProcessBlockERjS1_, .Lfunc_end10-_ZNK8CryptoPP6RawDES15RawProcessBlockERjS1_

	.section	.text._ZNK8CryptoPP8SecBlockIjNS_29FixedSizeAllocatorWithCleanupIjLm32ENS_13NullAllocatorIjEELb0EEEEcvPKjEv,"axG",@progbits,_ZNK8CryptoPP8SecBlockIjNS_29FixedSizeAllocatorWithCleanupIjLm32ENS_13NullAllocatorIjEELb0EEEEcvPKjEv,comdat
	.weak	_ZNK8CryptoPP8SecBlockIjNS_29FixedSizeAllocatorWithCleanupIjLm32ENS_13NullAllocatorIjEELb0EEEEcvPKjEv 
	.p2align	4, 0x90
	.type	_ZNK8CryptoPP8SecBlockIjNS_29FixedSizeAllocatorWithCleanupIjLm32ENS_13NullAllocatorIjEELb0EEEEcvPKjEv,@function
_ZNK8CryptoPP8SecBlockIjNS_29FixedSizeAllocatorWithCleanupIjLm32ENS_13NullAllocatorIjEELb0EEEEcvPKjEv: 

	mov	rax, qword ptr [rdi + 152]
	ret
.Lfunc_end11:
	.size	_ZNK8CryptoPP8SecBlockIjNS_29FixedSizeAllocatorWithCleanupIjLm32ENS_13NullAllocatorIjEELb0EEEEcvPKjEv, .Lfunc_end11-_ZNK8CryptoPP8SecBlockIjNS_29FixedSizeAllocatorWithCleanupIjLm32ENS_13NullAllocatorIjEELb0EEEEcvPKjEv

	.section	.text._ZN8CryptoPP12rotrConstantILj4EjEET0_S1_,"axG",@progbits,_ZN8CryptoPP12rotrConstantILj4EjEET0_S1_,comdat
	.weak	_ZN8CryptoPP12rotrConstantILj4EjEET0_S1_ 
	.p2align	4, 0x90
	.type	_ZN8CryptoPP12rotrConstantILj4EjEET0_S1_,@function
_ZN8CryptoPP12rotrConstantILj4EjEET0_S1_: 

	mov	eax, dword ptr [rip + x.33]
	mov	ecx, dword ptr [rip + y.34]
	lea	edx, [rax - 1]
	imul	edx, eax
	not	edx
	or	edx, -2
	rol	edi, 28
	cmp	edx, -1
	sete	dl
	sete	byte ptr [rsp - 6]
	mov	esi, 1313998124
	mov	r8d, 653432514
	mov	eax, 653432514
	cmove	eax, esi
	cmp	ecx, 10
	setl	cl
	setl	byte ptr [rsp - 5]
	cmovge	eax, r8d
	xor	cl, dl
	cmovne	eax, esi
	mov	edx, 1093694182
	mov	r8d, 2070839914
	jmp	.LBB12_1
.LBB12_4:                               
	movzx	esi, byte ptr [rsp - 6]
	movzx	edx, byte ptr [rsp - 5]
	mov	ecx, esi
	xor	cl, dl
	mov	ecx, 653432514
	cmovne	ecx, r8d
	test	dl, dl
	mov	edx, ecx
	cmovne	edx, r8d
	test	sil, sil
	cmove	edx, ecx
	.p2align	4, 0x90
.LBB12_1:                               
	mov	esi, edx
	and	esi, 2147483647
	cmp	esi, 1313998123
	jg	.LBB12_5

	cmp	esi, 653432514
	je	.LBB12_9

	cmp	esi, 1093694182
	jne	.LBB12_1
	jmp	.LBB12_4
	.p2align	4, 0x90
.LBB12_5:                               
	cmp	esi, 1313998124
	je	.LBB12_8

	cmp	esi, 2070839914
	jne	.LBB12_1

	mov	dword ptr [rsp - 4], edi
	mov	edx, eax
	jmp	.LBB12_1
.LBB12_9:                               
	mov	edx, 2070839914
	jmp	.LBB12_1
.LBB12_8:
	mov	eax, dword ptr [rsp - 4]
	ret
.Lfunc_end12:
	.size	_ZN8CryptoPP12rotrConstantILj4EjEET0_S1_, .Lfunc_end12-_ZN8CryptoPP12rotrConstantILj4EjEET0_S1_

	.text
	.globl	_ZN8CryptoPP8DES_EDE24Base15UncheckedSetKeyEPKhjRKNS_14NameValuePairsE 
	.p2align	4, 0x90
	.type	_ZN8CryptoPP8DES_EDE24Base15UncheckedSetKeyEPKhjRKNS_14NameValuePairsE,@function
_ZN8CryptoPP8DES_EDE24Base15UncheckedSetKeyEPKhjRKNS_14NameValuePairsE: 
	.cfi_startproc

	push	rbp
.Lcfi35:
	.cfi_def_cfa_offset 16
	push	r15
.Lcfi36:
	.cfi_def_cfa_offset 24
	push	r14
.Lcfi37:
	.cfi_def_cfa_offset 32
	push	r13
.Lcfi38:
	.cfi_def_cfa_offset 40
	push	r12
.Lcfi39:
	.cfi_def_cfa_offset 48
	push	rbx
.Lcfi40:
	.cfi_def_cfa_offset 56
	sub	rsp, 24
.Lcfi41:
	.cfi_def_cfa_offset 80
.Lcfi42:
	.cfi_offset rbx, -56
.Lcfi43:
	.cfi_offset r12, -48
.Lcfi44:
	.cfi_offset r13, -40
.Lcfi45:
	.cfi_offset r14, -32
.Lcfi46:
	.cfi_offset r15, -24
.Lcfi47:
	.cfi_offset rbp, -16
	mov	r14, rsi
	mov	r12, rdi
	mov	eax, dword ptr [rip + x.35]
	lea	ecx, [rax - 1]
	imul	ecx, eax
	not	ecx
	or	ecx, -2
	cmp	ecx, -1
	sete	byte ptr [rsp + 14]
	mov	eax, dword ptr [rip + y.36]
	cmp	eax, 10
	setl	byte ptr [rsp + 15]
	mov	ebx, edx
	lea	rax, [r12 + 16]
	mov	qword ptr [rsp + 16], rax 
	lea	r13, [r12 + 8]
	lea	rbp, [r12 + 176]
	lea	r15, [r14 + 8]
	mov	eax, 407373411
	jmp	.LBB13_1
.LBB13_8:                               
	movzx	ecx, byte ptr [rsp + 14]
	movzx	eax, byte ptr [rsp + 15]
	mov	edx, ecx
	xor	dl, al
	mov	edx, 822556592
	mov	esi, 511024729
	cmovne	edx, esi
	test	al, al
	mov	eax, edx
	cmovne	eax, esi
	test	cl, cl
	cmove	eax, edx
	.p2align	4, 0x90
.LBB13_1:                               
	mov	ecx, eax
	and	ecx, 2147483647
	cmp	ecx, 822556591
	jle	.LBB13_2

	cmp	ecx, 822556592
	je	.LBB13_9

	cmp	ecx, 1597009661
	jne	.LBB13_1
	jmp	.LBB13_7
	.p2align	4, 0x90
.LBB13_2:                               
	cmp	ecx, 407373411
	je	.LBB13_8

	cmp	ecx, 511024729
	jne	.LBB13_1

	mov	rdi, r12
	mov	rsi, rbx
	call	_ZNK8CryptoPP21SimpleKeyingInterface20AssertValidKeyLengthEm
	mov	rdi, r13
	call	_ZNK8CryptoPP19BlockTransformation18GetCipherDirectionEv
	mov	rdi, qword ptr [rsp + 16] 
	mov	esi, eax
	mov	rdx, r14
	call	_ZN8CryptoPP6RawDES9RawSetKeyENS_9CipherDirEPKh
	mov	rdi, r13
	call	_ZNK8CryptoPP19BlockTransformation18GetCipherDirectionEv
	mov	edi, eax
	call	_ZN8CryptoPP16ReverseCipherDirENS_9CipherDirE
	mov	rdi, rbp
	mov	esi, eax
	mov	rdx, r15
	call	_ZN8CryptoPP6RawDES9RawSetKeyENS_9CipherDirEPKh
	mov	eax, dword ptr [rip + x.35]
	mov	ecx, dword ptr [rip + y.36]
	mov	edx, eax
	neg	edx
	not	edx
	imul	edx, eax
	not	edx
	or	edx, -2
	cmp	edx, -1
	sete	al
	cmp	ecx, 10
	mov	rsi, rbx
	setl	bl
	xor	bl, al
	mov	rbx, rsi
	mov	esi, 822556592
	mov	edi, 1597009661
	cmovne	esi, edi
	cmp	edx, -1
	mov	eax, esi
	cmove	eax, edi
	cmp	ecx, 10
	cmovge	eax, esi
	jmp	.LBB13_1
.LBB13_9:                               
	mov	rdi, r12
	mov	rsi, rbx
	call	_ZNK8CryptoPP21SimpleKeyingInterface20AssertValidKeyLengthEm
	mov	rdi, r13
	call	_ZNK8CryptoPP19BlockTransformation18GetCipherDirectionEv
	mov	rdi, qword ptr [rsp + 16] 
	mov	esi, eax
	mov	rdx, r14
	call	_ZN8CryptoPP6RawDES9RawSetKeyENS_9CipherDirEPKh
	mov	rdi, r13
	call	_ZNK8CryptoPP19BlockTransformation18GetCipherDirectionEv
	mov	edi, eax
	call	_ZN8CryptoPP16ReverseCipherDirENS_9CipherDirE
	mov	rdi, rbp
	mov	esi, eax
	mov	rdx, r15
	call	_ZN8CryptoPP6RawDES9RawSetKeyENS_9CipherDirEPKh
	mov	eax, 511024729
	jmp	.LBB13_1
.LBB13_7:
	add	rsp, 24
	pop	rbx
	pop	r12
	pop	r13
	pop	r14
	pop	r15
	pop	rbp
	ret
.Lfunc_end13:
	.size	_ZN8CryptoPP8DES_EDE24Base15UncheckedSetKeyEPKhjRKNS_14NameValuePairsE, .Lfunc_end13-_ZN8CryptoPP8DES_EDE24Base15UncheckedSetKeyEPKhjRKNS_14NameValuePairsE
	.cfi_endproc

	.section	.text._ZN8CryptoPP16ReverseCipherDirENS_9CipherDirE,"axG",@progbits,_ZN8CryptoPP16ReverseCipherDirENS_9CipherDirE,comdat
	.weak	_ZN8CryptoPP16ReverseCipherDirENS_9CipherDirE 
	.p2align	4, 0x90
	.type	_ZN8CryptoPP16ReverseCipherDirENS_9CipherDirE,@function
_ZN8CryptoPP16ReverseCipherDirENS_9CipherDirE: 

	mov	eax, dword ptr [rip + x.37]
	mov	ecx, dword ptr [rip + y.38]
	lea	edx, [rax - 1]
	imul	edx, eax
	mov	esi, edx
	xor	esi, -2
	and	esi, edx
	sete	al
	sete	byte ptr [rsp - 6]
	cmp	ecx, 10
	setl	dl
	xor	dl, al
	mov	r9d, 152883549
	mov	edx, -550931966
	cmovne	edx, r9d
	test	esi, esi
	cmovne	r9d, edx
	cmp	ecx, 10
	setl	byte ptr [rsp - 5]
	cmovge	r9d, edx
	xor	r8d, r8d
	test	edi, edi
	sete	r8b
	mov	esi, 170987670
	mov	edi, -257053191
	jmp	.LBB14_1
.LBB14_7:                               
	movzx	eax, byte ptr [rsp - 6]
	movzx	ecx, byte ptr [rsp - 5]
	mov	edx, eax
	xor	dl, cl
	mov	edx, -550931966
	cmovne	edx, edi
	test	cl, cl
	mov	esi, edx
	cmovne	esi, edi
	test	al, al
	cmove	esi, edx
	.p2align	4, 0x90
.LBB14_1:                               
	cmp	esi, 152883548
	jg	.LBB14_5

	cmp	esi, -550931966
	je	.LBB14_9

	cmp	esi, -257053191
	jne	.LBB14_1

	mov	dword ptr [rsp - 4], r8d
	mov	esi, r9d
	jmp	.LBB14_1
	.p2align	4, 0x90
.LBB14_5:                               
	cmp	esi, 152883549
	je	.LBB14_8

	cmp	esi, 170987670
	jne	.LBB14_1
	jmp	.LBB14_7
.LBB14_9:                               
	mov	esi, -257053191
	jmp	.LBB14_1
.LBB14_8:
	mov	eax, dword ptr [rsp - 4]
	ret
.Lfunc_end14:
	.size	_ZN8CryptoPP16ReverseCipherDirENS_9CipherDirE, .Lfunc_end14-_ZN8CryptoPP16ReverseCipherDirENS_9CipherDirE

	.text
	.globl	_ZNK8CryptoPP8DES_EDE24Base18ProcessAndXorBlockEPKhS3_Ph 
	.p2align	4, 0x90
	.type	_ZNK8CryptoPP8DES_EDE24Base18ProcessAndXorBlockEPKhS3_Ph,@function
_ZNK8CryptoPP8DES_EDE24Base18ProcessAndXorBlockEPKhS3_Ph: 
	.cfi_startproc

	push	rbp
.Lcfi48:
	.cfi_def_cfa_offset 16
	push	r15
.Lcfi49:
	.cfi_def_cfa_offset 24
	push	r14
.Lcfi50:
	.cfi_def_cfa_offset 32
	push	r13
.Lcfi51:
	.cfi_def_cfa_offset 40
	push	r12
.Lcfi52:
	.cfi_def_cfa_offset 48
	push	rbx
.Lcfi53:
	.cfi_def_cfa_offset 56
	sub	rsp, 40
.Lcfi54:
	.cfi_def_cfa_offset 96
.Lcfi55:
	.cfi_offset rbx, -56
.Lcfi56:
	.cfi_offset r12, -48
.Lcfi57:
	.cfi_offset r13, -40
.Lcfi58:
	.cfi_offset r14, -32
.Lcfi59:
	.cfi_offset r15, -24
.Lcfi60:
	.cfi_offset rbp, -16
	mov	r14, rcx
	mov	r15, rdx
	mov	rbx, rdi
	mov	rdi, rsi
	call	_ZN8CryptoPP14BlockGetAndPutIjNS_10EnumToTypeINS_9ByteOrderELi1EEELb0ELb0EE3GetEPKv
	mov	qword ptr [rsp + 16], rax
	lea	rdi, [rsp + 16]
	lea	r12, [rsp + 12]
	mov	rsi, r12
	call	_ZN8CryptoPP8GetBlockIjNS_10EnumToTypeINS_9ByteOrderELi1EEELb0EEclIjEERS4_RT_
	lea	r13, [rsp + 8]
	mov	rdi, rax
	mov	rsi, r13
	call	_ZN8CryptoPP8GetBlockIjNS_10EnumToTypeINS_9ByteOrderELi1EEELb0EEclIjEERS4_RT_
	mov	rdi, r12
	mov	rsi, r13
	call	_ZN8CryptoPPL5IPERMERjS0_
	lea	rbp, [rbx + 16]
	mov	rdi, rbp
	mov	rsi, r12
	mov	rdx, r13
	call	_ZNK8CryptoPP6RawDES15RawProcessBlockERjS1_
	add	rbx, 176
	mov	rdi, rbx
	mov	rsi, r13
	mov	rdx, r12
	call	_ZNK8CryptoPP6RawDES15RawProcessBlockERjS1_
	mov	rdi, rbp
	mov	rsi, r12
	mov	rdx, r13
	call	_ZNK8CryptoPP6RawDES15RawProcessBlockERjS1_
	mov	rdi, r12
	mov	rsi, r13
	call	_ZN8CryptoPPL5FPERMERjS0_
	lea	rbx, [rsp + 24]
	mov	rdi, rbx
	mov	rsi, r15
	mov	rdx, r14
	call	_ZN8CryptoPP8PutBlockIjNS_10EnumToTypeINS_9ByteOrderELi1EEELb0EEC2EPKvPv
	mov	esi, dword ptr [rsp + 8]
	mov	rdi, rbx
	call	_ZN8CryptoPP8PutBlockIjNS_10EnumToTypeINS_9ByteOrderELi1EEELb0EEclIjEERS4_T_
	mov	esi, dword ptr [rsp + 12]
	mov	rdi, rax
	call	_ZN8CryptoPP8PutBlockIjNS_10EnumToTypeINS_9ByteOrderELi1EEELb0EEclIjEERS4_T_
	add	rsp, 40
	pop	rbx
	pop	r12
	pop	r13
	pop	r14
	pop	r15
	pop	rbp
	ret
.Lfunc_end15:
	.size	_ZNK8CryptoPP8DES_EDE24Base18ProcessAndXorBlockEPKhS3_Ph, .Lfunc_end15-_ZNK8CryptoPP8DES_EDE24Base18ProcessAndXorBlockEPKhS3_Ph
	.cfi_endproc

	.section	.text._ZN8CryptoPP14BlockGetAndPutIjNS_10EnumToTypeINS_9ByteOrderELi1EEELb0ELb0EE3GetEPKv,"axG",@progbits,_ZN8CryptoPP14BlockGetAndPutIjNS_10EnumToTypeINS_9ByteOrderELi1EEELb0ELb0EE3GetEPKv,comdat
	.weak	_ZN8CryptoPP14BlockGetAndPutIjNS_10EnumToTypeINS_9ByteOrderELi1EEELb0ELb0EE3GetEPKv 
	.p2align	4, 0x90
	.type	_ZN8CryptoPP14BlockGetAndPutIjNS_10EnumToTypeINS_9ByteOrderELi1EEELb0ELb0EE3GetEPKv,@function
_ZN8CryptoPP14BlockGetAndPutIjNS_10EnumToTypeINS_9ByteOrderELi1EEELb0ELb0EE3GetEPKv: 
	.cfi_startproc

	push	rax
.Lcfi61:
	.cfi_def_cfa_offset 16
	mov	rax, rdi
	mov	rdi, rsp
	mov	rsi, rax
	call	_ZN8CryptoPP8GetBlockIjNS_10EnumToTypeINS_9ByteOrderELi1EEELb0EEC2EPKv
	mov	rax, qword ptr [rsp]
	pop	rcx
	ret
.Lfunc_end16:
	.size	_ZN8CryptoPP14BlockGetAndPutIjNS_10EnumToTypeINS_9ByteOrderELi1EEELb0ELb0EE3GetEPKv, .Lfunc_end16-_ZN8CryptoPP14BlockGetAndPutIjNS_10EnumToTypeINS_9ByteOrderELi1EEELb0ELb0EE3GetEPKv
	.cfi_endproc

	.section	.text._ZN8CryptoPP8GetBlockIjNS_10EnumToTypeINS_9ByteOrderELi1EEELb0EEclIjEERS4_RT_,"axG",@progbits,_ZN8CryptoPP8GetBlockIjNS_10EnumToTypeINS_9ByteOrderELi1EEELb0EEclIjEERS4_RT_,comdat
	.weak	_ZN8CryptoPP8GetBlockIjNS_10EnumToTypeINS_9ByteOrderELi1EEELb0EEclIjEERS4_RT_ 
	.p2align	4, 0x90
	.type	_ZN8CryptoPP8GetBlockIjNS_10EnumToTypeINS_9ByteOrderELi1EEELb0EEclIjEERS4_RT_,@function
_ZN8CryptoPP8GetBlockIjNS_10EnumToTypeINS_9ByteOrderELi1EEELb0EEclIjEERS4_RT_: 
	.cfi_startproc

	push	rbp
.Lcfi62:
	.cfi_def_cfa_offset 16
	push	r15
.Lcfi63:
	.cfi_def_cfa_offset 24
	push	r14
.Lcfi64:
	.cfi_def_cfa_offset 32
	push	r13
.Lcfi65:
	.cfi_def_cfa_offset 40
	push	r12
.Lcfi66:
	.cfi_def_cfa_offset 48
	push	rbx
.Lcfi67:
	.cfi_def_cfa_offset 56
	push	rax
.Lcfi68:
	.cfi_def_cfa_offset 64
.Lcfi69:
	.cfi_offset rbx, -56
.Lcfi70:
	.cfi_offset r12, -48
.Lcfi71:
	.cfi_offset r13, -40
.Lcfi72:
	.cfi_offset r14, -32
.Lcfi73:
	.cfi_offset r15, -24
.Lcfi74:
	.cfi_offset rbp, -16
	mov	r14, rsi
	mov	rbp, rdi
	mov	eax, dword ptr [rip + x.43]
	lea	ecx, [rax - 1]
	imul	ecx, eax
	not	ecx
	or	ecx, -2
	cmp	ecx, -1
	sete	byte ptr [rsp + 6]
	mov	eax, dword ptr [rip + y.44]
	cmp	eax, 10
	setl	byte ptr [rsp + 7]
	mov	eax, 1204283749
	mov	r12d, 1131236690
	mov	r15d, 298116494
	mov	r13d, -1176407089
	jmp	.LBB17_1
.LBB17_7:                               
	movzx	ecx, byte ptr [rsp + 6]
	movzx	eax, byte ptr [rsp + 7]
	mov	edx, ecx
	xor	dl, al
	test	al, al
	mov	eax, 298116494
	cmovne	eax, r13d
	test	cl, cl
	cmove	eax, r15d
	test	dl, dl
	cmovne	eax, r13d
	.p2align	4, 0x90
.LBB17_1:                               
	cmp	eax, 1131236689
	jg	.LBB17_5

	cmp	eax, -1176407089
	je	.LBB17_8

	cmp	eax, 298116494
	jne	.LBB17_1

	call	_ZN8CryptoPP10EnumToTypeINS_9ByteOrderELi1EE6ToEnumEv
	mov	rdx, qword ptr [rbp]
	xor	edi, edi
	mov	esi, eax
	call	_ZN8CryptoPP7GetWordIjEET_bNS_9ByteOrderEPKh
	mov	dword ptr [r14], eax
	add	qword ptr [rbp], 4
	mov	eax, -1176407089
	jmp	.LBB17_1
	.p2align	4, 0x90
.LBB17_5:                               
	cmp	eax, 1131236690
	je	.LBB17_9

	cmp	eax, 1204283749
	jne	.LBB17_1
	jmp	.LBB17_7
.LBB17_8:                               
	call	_ZN8CryptoPP10EnumToTypeINS_9ByteOrderELi1EE6ToEnumEv
	mov	rdx, qword ptr [rbp]
	xor	edi, edi
	mov	esi, eax
	call	_ZN8CryptoPP7GetWordIjEET_bNS_9ByteOrderEPKh
	mov	dword ptr [r14], eax
	add	qword ptr [rbp], 4
	mov	eax, dword ptr [rip + x.43]
	mov	ecx, dword ptr [rip + y.44]
	lea	edx, [rax - 1]
	imul	edx, eax
	not	edx
	or	edx, -2
	cmp	edx, -1
	sete	al
	cmp	ecx, 10
	setl	bl
	xor	bl, al
	mov	esi, 298116494
	cmovne	esi, r12d
	cmp	edx, -1
	mov	eax, esi
	cmove	eax, r12d
	cmp	ecx, 10
	cmovge	eax, esi
	jmp	.LBB17_1
.LBB17_9:
	mov	rax, rbp
	add	rsp, 8
	pop	rbx
	pop	r12
	pop	r13
	pop	r14
	pop	r15
	pop	rbp
	ret
.Lfunc_end17:
	.size	_ZN8CryptoPP8GetBlockIjNS_10EnumToTypeINS_9ByteOrderELi1EEELb0EEclIjEERS4_RT_, .Lfunc_end17-_ZN8CryptoPP8GetBlockIjNS_10EnumToTypeINS_9ByteOrderELi1EEELb0EEclIjEERS4_RT_
	.cfi_endproc

	.text
	.p2align	4, 0x90         
	.type	_ZN8CryptoPPL5IPERMERjS0_,@function
_ZN8CryptoPPL5IPERMERjS0_:              

	push	rbp
	push	r15
	push	r14
	push	rbx
	push	rax
	mov	r15, rsi
	mov	r14, rdi
	mov	edi, dword ptr [r15]
	call	_ZN8CryptoPP12rotlConstantILj4EjEET0_S1_
	mov	dword ptr [r15], eax
	mov	ecx, dword ptr [r14]
	mov	edx, ecx
	not	edx
	mov	esi, eax
	and	esi, edx
	not	eax
	and	eax, ecx
	or	eax, esi
	mov	esi, eax
	not	esi
	or	esi, 252645135
	and	edx, eax
	and	ecx, esi
	and	edx, -252645136
	or	edx, ecx
	mov	dword ptr [r14], edx
	mov	edi, dword ptr [r15]
	mov	ecx, edi
	not	ecx
	and	ecx, 193285311
	and	edi, -193285312
	or	edi, ecx
	and	esi, 193285311
	and	eax, -261050304
	or	eax, esi
	xor	edi, eax
	call	_ZN8CryptoPP12rotrConstantILj20EjEET0_S1_
	mov	dword ptr [r15], eax
	mov	ecx, dword ptr [r14]
	mov	edx, ecx
	not	edx
	mov	esi, edx
	and	esi, -2059812160
	mov	edi, ecx
	and	edi, 2059812159
	or	edi, esi
	mov	esi, eax
	not	esi
	and	esi, -2059812160
	and	eax, 2059812159
	or	eax, esi
	xor	eax, edi
	mov	esi, eax
	not	esi
	or	esi, 65535
	and	eax, -65536
	and	ecx, esi
	and	edx, eax
	or	edx, ecx
	mov	dword ptr [r14], edx
	mov	edi, dword ptr [r15]
	and	esi, edi
	not	edi
	and	edi, eax
	or	edi, esi
	call	_ZN8CryptoPP12rotrConstantILj18EjEET0_S1_
	mov	dword ptr [r15], eax
	mov	ecx, dword ptr [r14]
	mov	edx, ecx
	not	edx
	mov	esi, edx
	and	esi, -828862763
	mov	edi, ecx
	and	edi, 828862762
	or	edi, esi
	mov	esi, eax
	not	esi
	and	esi, -828862763
	and	eax, 828862762
	or	eax, esi
	xor	eax, edi
	mov	esi, eax
	not	esi
	or	esi, -858993460
	and	eax, 858993459
	and	ecx, esi
	and	edx, eax
	or	edx, ecx
	mov	dword ptr [r14], edx
	mov	edi, dword ptr [r15]
	and	esi, edi
	not	edi
	and	edi, eax
	or	edi, esi
	call	_ZN8CryptoPP12rotrConstantILj6EjEET0_S1_
	mov	dword ptr [r15], eax
	mov	ecx, dword ptr [r14]
	mov	edx, ecx
	not	edx
	mov	esi, eax
	and	esi, edx
	not	eax
	and	eax, ecx
	or	eax, esi
	mov	esi, eax
	not	esi
	or	esi, -16711936
	and	edx, eax
	and	ecx, esi
	and	edx, 16711935
	or	edx, ecx
	mov	dword ptr [r14], edx
	mov	edi, dword ptr [r15]
	mov	ecx, edi
	not	ecx
	and	ecx, 1916437809
	and	edi, -1916437810
	or	edi, ecx
	and	esi, 1916437809
	and	eax, 12910798
	or	eax, esi
	xor	edi, eax
	call	_ZN8CryptoPP12rotlConstantILj9EjEET0_S1_
	mov	ebp, eax
	mov	dword ptr [r15], ebp
	mov	edi, dword ptr [r14]
	mov	eax, edi
	not	eax
	mov	ecx, eax
	and	ecx, 648805592
	mov	edx, edi
	and	edx, -648805593
	or	edx, ecx
	mov	ecx, ebp
	not	ecx
	and	ecx, 648805592
	and	ebp, -648805593
	or	ebp, ecx
	xor	ebp, edx
	mov	ebx, ebp
	not	ebx
	or	ebx, 1431655765
	mov	ecx, ebx
	and	ecx, -15671805
	mov	edx, ebp
	and	edx, 11149480
	lea	ecx, [rdx + rcx]
	and	eax, -15671805
	and	edi, 15671804
	or	edi, eax
	xor	edi, ecx
	call	_ZN8CryptoPP12rotlConstantILj1EjEET0_S1_
	mov	dword ptr [r14], eax
	mov	eax, dword ptr [r15]
	mov	ecx, eax
	not	ecx
	and	ecx, 1459583753
	and	eax, -1459583754
	or	eax, ecx
	and	ebx, 1459583753
	and	ebp, -1476362078
	or	ebp, ebx
	xor	ebp, eax
	mov	dword ptr [r15], ebp
	add	rsp, 8
	pop	rbx
	pop	r14
	pop	r15
	pop	rbp
	ret
.Lfunc_end18:
	.size	_ZN8CryptoPPL5IPERMERjS0_, .Lfunc_end18-_ZN8CryptoPPL5IPERMERjS0_

	.p2align	4, 0x90         
	.type	_ZN8CryptoPPL5FPERMERjS0_,@function
_ZN8CryptoPPL5FPERMERjS0_:              

	push	r15
	push	r14
	push	rbx
	mov	r15, rsi
	mov	r14, rdi
	mov	edi, dword ptr [r15]
	call	_ZN8CryptoPP12rotrConstantILj1EjEET0_S1_
	mov	dword ptr [r15], eax
	mov	ecx, dword ptr [r14]
	mov	edx, ecx
	not	edx
	and	edx, eax
	mov	esi, eax
	not	esi
	and	ecx, esi
	or	ecx, edx
	mov	ebx, ecx
	xor	ebx, 1431655765
	and	ebx, ecx
	mov	edi, ebx
	not	edi
	mov	ecx, edi
	and	ecx, -1384060905
	mov	edx, ebx
	and	edx, 1384060904
	or	edx, ecx
	and	esi, -1384060905
	and	eax, 1384060904
	or	eax, esi
	xor	eax, edx
	mov	dword ptr [r15], eax
	mov	eax, dword ptr [r14]
	and	edi, eax
	not	eax
	and	eax, ebx
	or	edi, eax
	call	_ZN8CryptoPP12rotrConstantILj9EjEET0_S1_
	mov	dword ptr [r14], eax
	mov	ecx, dword ptr [r15]
	mov	edx, ecx
	not	edx
	mov	esi, edx
	and	esi, 844081819
	mov	edi, ecx
	and	edi, -844081820
	or	edi, esi
	mov	esi, eax
	not	esi
	and	esi, 844081819
	and	eax, -844081820
	or	eax, esi
	xor	eax, edi
	mov	esi, eax
	not	esi
	or	esi, -16711936
	mov	edi, esi
	and	edi, -180361633
	mov	ebx, eax
	and	ebx, 12583072
	or	ebx, edi
	and	edx, -180361633
	and	ecx, 180361632
	or	ecx, edx
	xor	ecx, ebx
	mov	dword ptr [r15], ecx
	mov	edi, dword ptr [r14]
	and	esi, edi
	not	edi
	and	edi, eax
	and	edi, 16711935
	or	edi, esi
	call	_ZN8CryptoPP12rotlConstantILj6EjEET0_S1_
	mov	dword ptr [r14], eax
	mov	ecx, dword ptr [r15]
	mov	edx, ecx
	not	edx
	mov	esi, edx
	and	esi, -867078939
	mov	edi, ecx
	and	edi, 867078938
	or	edi, esi
	mov	esi, eax
	not	esi
	and	esi, -867078939
	and	eax, 867078938
	or	eax, esi
	xor	eax, edi
	mov	ebx, eax
	xor	ebx, -858993460
	and	ebx, eax
	mov	eax, ebx
	not	eax
	mov	edi, eax
	and	edi, -566410251
	mov	esi, ebx
	and	esi, 566410250
	or	esi, edi
	and	edx, -566410251
	and	ecx, 566410250
	or	ecx, edx
	xor	ecx, esi
	mov	dword ptr [r15], ecx
	mov	edi, dword ptr [r14]
	and	eax, edi
	not	edi
	and	edi, ebx
	or	edi, eax
	call	_ZN8CryptoPP12rotlConstantILj18EjEET0_S1_
	mov	dword ptr [r14], eax
	mov	ecx, dword ptr [r15]
	mov	edx, ecx
	not	edx
	mov	esi, eax
	and	esi, edx
	not	eax
	and	eax, ecx
	or	eax, esi
	mov	esi, eax
	not	esi
	or	esi, 65535
	mov	edi, esi
	and	edi, -1808027464
	mov	ebx, eax
	and	ebx, 1808007168
	or	ebx, edi
	and	edx, -1808027464
	and	ecx, 1808027463
	or	ecx, edx
	xor	ecx, ebx
	mov	dword ptr [r15], ecx
	mov	edi, dword ptr [r14]
	and	esi, edi
	not	edi
	and	edi, eax
	and	edi, -65536
	or	edi, esi
	call	_ZN8CryptoPP12rotlConstantILj20EjEET0_S1_
	mov	dword ptr [r14], eax
	mov	ecx, dword ptr [r15]
	mov	edx, ecx
	not	edx
	mov	esi, edx
	and	esi, -662047824
	mov	edi, ecx
	and	edi, 662047823
	or	edi, esi
	mov	esi, eax
	not	esi
	and	esi, -662047824
	and	eax, 662047823
	or	eax, esi
	xor	eax, edi
	mov	esi, eax
	not	esi
	or	esi, 252645135
	and	eax, -252645136
	and	ecx, esi
	and	edx, eax
	or	edx, ecx
	mov	dword ptr [r15], edx
	mov	edi, dword ptr [r14]
	and	esi, edi
	not	edi
	and	edi, eax
	or	edi, esi
	call	_ZN8CryptoPP12rotrConstantILj4EjEET0_S1_
	mov	dword ptr [r14], eax
	pop	rbx
	pop	r14
	pop	r15
	ret
.Lfunc_end19:
	.size	_ZN8CryptoPPL5FPERMERjS0_, .Lfunc_end19-_ZN8CryptoPPL5FPERMERjS0_

	.section	.text._ZN8CryptoPP8PutBlockIjNS_10EnumToTypeINS_9ByteOrderELi1EEELb0EEC2EPKvPv,"axG",@progbits,_ZN8CryptoPP8PutBlockIjNS_10EnumToTypeINS_9ByteOrderELi1EEELb0EEC2EPKvPv,comdat
	.weak	_ZN8CryptoPP8PutBlockIjNS_10EnumToTypeINS_9ByteOrderELi1EEELb0EEC2EPKvPv 
	.p2align	4, 0x90
	.type	_ZN8CryptoPP8PutBlockIjNS_10EnumToTypeINS_9ByteOrderELi1EEELb0EEC2EPKvPv,@function
_ZN8CryptoPP8PutBlockIjNS_10EnumToTypeINS_9ByteOrderELi1EEELb0EEC2EPKvPv: 

	mov	qword ptr [rdi], rsi
	mov	qword ptr [rdi + 8], rdx
	ret
.Lfunc_end20:
	.size	_ZN8CryptoPP8PutBlockIjNS_10EnumToTypeINS_9ByteOrderELi1EEELb0EEC2EPKvPv, .Lfunc_end20-_ZN8CryptoPP8PutBlockIjNS_10EnumToTypeINS_9ByteOrderELi1EEELb0EEC2EPKvPv

	.section	.text._ZN8CryptoPP8PutBlockIjNS_10EnumToTypeINS_9ByteOrderELi1EEELb0EEclIjEERS4_T_,"axG",@progbits,_ZN8CryptoPP8PutBlockIjNS_10EnumToTypeINS_9ByteOrderELi1EEELb0EEclIjEERS4_T_,comdat
	.weak	_ZN8CryptoPP8PutBlockIjNS_10EnumToTypeINS_9ByteOrderELi1EEELb0EEclIjEERS4_T_ 
	.p2align	4, 0x90
	.type	_ZN8CryptoPP8PutBlockIjNS_10EnumToTypeINS_9ByteOrderELi1EEELb0EEclIjEERS4_T_,@function
_ZN8CryptoPP8PutBlockIjNS_10EnumToTypeINS_9ByteOrderELi1EEELb0EEclIjEERS4_T_: 
	.cfi_startproc

	push	rbp
.Lcfi75:
	.cfi_def_cfa_offset 16
	push	r14
.Lcfi76:
	.cfi_def_cfa_offset 24
	push	rbx
.Lcfi77:
	.cfi_def_cfa_offset 32
	sub	rsp, 32
.Lcfi78:
	.cfi_def_cfa_offset 64
.Lcfi79:
	.cfi_offset rbx, -32
.Lcfi80:
	.cfi_offset r14, -24
.Lcfi81:
	.cfi_offset rbp, -16
	mov	r14d, esi
	mov	rbp, rdi
	mov	eax, dword ptr [rip + x.51]
	mov	ecx, dword ptr [rip + y.52]
	lea	edx, [rax - 1]
	imul	edx, eax
	mov	eax, edx
	xor	eax, -2
	test	eax, edx
	sete	byte ptr [rsp + 13]
	cmp	ecx, 10
	setl	byte ptr [rsp + 14]
	mov	eax, 78773178
	jmp	.LBB21_1
.LBB21_34:                              
	mov	rax, qword ptr [rsp + 24]
	add	rax, 4
	mov	rcx, qword ptr [rsp + 16]
	mov	qword ptr [rcx], rax
	mov	eax, 1907793808
	.p2align	4, 0x90
.LBB21_1:                               
	cmp	eax, 78773177
	jle	.LBB21_2

	cmp	eax, 1688998445
	jg	.LBB21_17

	cmp	eax, 78773178
	je	.LBB21_24

	cmp	eax, 514245875
	je	.LBB21_33

	cmp	eax, 473897845
	jne	.LBB21_1
	jmp	.LBB21_16
	.p2align	4, 0x90
.LBB21_2:                               
	cmp	eax, -770848820
	jg	.LBB21_6

	cmp	eax, -1930495339
	je	.LBB21_27

	cmp	eax, -1147052259
	jne	.LBB21_1

	call	_ZN8CryptoPP10EnumToTypeINS_9ByteOrderELi1EE6ToEnumEv
	mov	r8, qword ptr [rbp]
	mov	rdx, qword ptr [rbp + 8]
	xor	edi, edi
	mov	esi, eax
	mov	ecx, r14d
	call	_ZN8CryptoPP7PutWordIjEEvbNS_9ByteOrderEPhT_PKh
	add	qword ptr [rbp + 8], 4
	mov	eax, -407172348
	jmp	.LBB21_1
	.p2align	4, 0x90
.LBB21_17:                              
	cmp	eax, 1688998446
	je	.LBB21_29

	cmp	eax, 1907793808
	jne	.LBB21_1

	mov	rax, qword ptr [rsp + 24]
	add	rax, 4
	mov	rcx, qword ptr [rsp + 16]
	mov	qword ptr [rcx], rax
	mov	eax, dword ptr [rip + x.51]
	mov	ecx, dword ptr [rip + y.52]
	lea	esi, [rax - 1]
	imul	esi, eax
	mov	edx, esi
	xor	edx, -2
	and	edx, esi
	sete	al
	cmp	ecx, 10
	setl	bl
	xor	bl, al
	mov	esi, 514245875
	mov	eax, 514245875
	jne	.LBB21_21

	mov	eax, -770848819
.LBB21_21:                              
	test	edx, edx
	je	.LBB21_23

	mov	esi, eax
.LBB21_23:                              
	cmp	ecx, 10
	cmovl	eax, esi
	jmp	.LBB21_1
	.p2align	4, 0x90
.LBB21_6:                               
	cmp	eax, -770848819
	je	.LBB21_34

	cmp	eax, -407172348
	jne	.LBB21_1

	call	_ZN8CryptoPP10EnumToTypeINS_9ByteOrderELi1EE6ToEnumEv
	mov	rdx, qword ptr [rbp + 8]
	mov	qword ptr [rsp + 16], rbp
	mov	rcx, qword ptr [rsp + 16]
	mov	r8, qword ptr [rcx]
	xor	edi, edi
	mov	esi, eax
	mov	ecx, r14d
	call	_ZN8CryptoPP7PutWordIjEEvbNS_9ByteOrderEPhT_PKh
	add	qword ptr [rbp + 8], 4
	mov	rax, qword ptr [rsp + 16]
	mov	rax, qword ptr [rax]
	mov	qword ptr [rsp + 24], rax
	cmp	qword ptr [rsp + 24], 0
	setne	byte ptr [rsp + 15]
	mov	eax, dword ptr [rip + x.51]
	mov	ecx, dword ptr [rip + y.52]
	lea	edx, [rax - 1]
	imul	edx, eax
	mov	eax, edx
	xor	eax, -2
	and	eax, edx
	sete	bl
	test	eax, eax
	mov	eax, -1930495339
	mov	edx, -1147052259
	mov	esi, -1930495339
	je	.LBB21_10

	mov	esi, -1147052259
.LBB21_10:                              
	cmp	ecx, 10
	setl	cl
	cmovl	edx, esi
	xor	cl, bl
	jne	.LBB21_1

	mov	eax, edx
	jmp	.LBB21_1
.LBB21_24:                              
	movzx	ecx, byte ptr [rsp + 13]
	movzx	edx, byte ptr [rsp + 14]
	mov	eax, ecx
	xor	al, dl
	mov	eax, -407172348
	mov	esi, -407172348
	jne	.LBB21_26

	mov	esi, -1147052259
.LBB21_26:                              
	test	dl, dl
	cmove	eax, esi
	test	cl, cl
	cmove	eax, esi
	jmp	.LBB21_1
.LBB21_33:                              
	mov	eax, 473897845
	jmp	.LBB21_1
.LBB21_27:                              
	movzx	eax, byte ptr [rsp + 15]
	test	al, al
	mov	eax, 1688998446
	jne	.LBB21_1

	mov	eax, 473897845
	jmp	.LBB21_1
.LBB21_29:                              
	mov	eax, dword ptr [rip + x.51]
	mov	ecx, dword ptr [rip + y.52]
	lea	edx, [rax - 1]
	imul	edx, eax
	mov	eax, edx
	xor	eax, -2
	and	eax, edx
	sete	bl
	test	eax, eax
	mov	eax, 1907793808
	mov	edx, -770848819
	mov	esi, 1907793808
	je	.LBB21_31

	mov	esi, -770848819
.LBB21_31:                              
	cmp	ecx, 10
	setl	cl
	cmovl	edx, esi
	xor	cl, bl
	jne	.LBB21_1

	mov	eax, edx
	jmp	.LBB21_1
.LBB21_16:
	mov	rax, rbp
	add	rsp, 32
	pop	rbx
	pop	r14
	pop	rbp
	ret
.Lfunc_end21:
	.size	_ZN8CryptoPP8PutBlockIjNS_10EnumToTypeINS_9ByteOrderELi1EEELb0EEclIjEERS4_T_, .Lfunc_end21-_ZN8CryptoPP8PutBlockIjNS_10EnumToTypeINS_9ByteOrderELi1EEELb0EEclIjEERS4_T_
	.cfi_endproc

	.text
	.globl	_ZThn8_NK8CryptoPP8DES_EDE24Base18ProcessAndXorBlockEPKhS3_Ph 
	.p2align	4, 0x90
	.type	_ZThn8_NK8CryptoPP8DES_EDE24Base18ProcessAndXorBlockEPKhS3_Ph,@function
_ZThn8_NK8CryptoPP8DES_EDE24Base18ProcessAndXorBlockEPKhS3_Ph: 
	.cfi_startproc

	add	rdi, -8
	jmp	_ZNK8CryptoPP8DES_EDE24Base18ProcessAndXorBlockEPKhS3_Ph 
.Lfunc_end22:
	.size	_ZThn8_NK8CryptoPP8DES_EDE24Base18ProcessAndXorBlockEPKhS3_Ph, .Lfunc_end22-_ZThn8_NK8CryptoPP8DES_EDE24Base18ProcessAndXorBlockEPKhS3_Ph
	.cfi_endproc

	.globl	_ZN8CryptoPP8DES_EDE34Base15UncheckedSetKeyEPKhjRKNS_14NameValuePairsE 
	.p2align	4, 0x90
	.type	_ZN8CryptoPP8DES_EDE34Base15UncheckedSetKeyEPKhjRKNS_14NameValuePairsE,@function
_ZN8CryptoPP8DES_EDE34Base15UncheckedSetKeyEPKhjRKNS_14NameValuePairsE: 
	.cfi_startproc

	push	rbp
.Lcfi82:
	.cfi_def_cfa_offset 16
	push	r15
.Lcfi83:
	.cfi_def_cfa_offset 24
	push	r14
.Lcfi84:
	.cfi_def_cfa_offset 32
	push	r13
.Lcfi85:
	.cfi_def_cfa_offset 40
	push	r12
.Lcfi86:
	.cfi_def_cfa_offset 48
	push	rbx
.Lcfi87:
	.cfi_def_cfa_offset 56
	sub	rsp, 40
.Lcfi88:
	.cfi_def_cfa_offset 96
.Lcfi89:
	.cfi_offset rbx, -56
.Lcfi90:
	.cfi_offset r12, -48
.Lcfi91:
	.cfi_offset r13, -40
.Lcfi92:
	.cfi_offset r14, -32
.Lcfi93:
	.cfi_offset r15, -24
.Lcfi94:
	.cfi_offset rbp, -16
	mov	r14, rsi
	mov	r13, rdi
	mov	eax, dword ptr [rip + x.55]
	mov	ecx, dword ptr [rip + y.56]
	mov	esi, eax
	neg	esi
	not	esi
	imul	esi, eax
	mov	eax, esi
	xor	eax, -2
	test	eax, esi
	sete	byte ptr [rsp + 14]
	cmp	ecx, 10
	setl	byte ptr [rsp + 15]
	mov	ebx, edx
	lea	rax, [r13 + 16]
	mov	qword ptr [rsp + 32], rax 
	lea	r15, [r13 + 8]
	lea	rax, [r13 + 176]
	mov	qword ptr [rsp + 24], rax 
	lea	rax, [r14 + 8]
	mov	qword ptr [rsp + 16], rax 
	lea	r12, [r13 + 336]
	mov	eax, -1443903373
	jmp	.LBB23_1
.LBB23_4:                               
	movzx	ecx, byte ptr [rsp + 14]
	movzx	eax, byte ptr [rsp + 15]
	mov	edx, ecx
	xor	dl, al
	test	al, al
	mov	eax, -1216582263
	mov	esi, -440807058
	cmovne	eax, esi
	test	cl, cl
	mov	ecx, -1216582263
	cmove	eax, ecx
	test	dl, dl
	cmovne	eax, esi
	.p2align	4, 0x90
.LBB23_1:                               
	mov	ecx, eax
	and	ecx, 2147483647
	cmp	ecx, 930901384
	jg	.LBB23_5

	cmp	ecx, 207340379
	je	.LBB23_8

	cmp	ecx, 703580275
	jne	.LBB23_1
	jmp	.LBB23_4
	.p2align	4, 0x90
.LBB23_5:                               
	cmp	ecx, 930901385
	je	.LBB23_9

	cmp	ecx, 1706676590
	jne	.LBB23_1

	mov	rdi, r13
	mov	rsi, rbx
	call	_ZNK8CryptoPP21SimpleKeyingInterface20AssertValidKeyLengthEm
	mov	rdi, r15
	call	_ZNK8CryptoPP19BlockTransformation18GetCipherDirectionEv
	mov	ebp, eax
	mov	rax, qword ptr [r13 + 8]
	mov	rdi, r15
	call	qword ptr [rax + 72]
	xor	edx, edx
	test	al, al
	sete	dl
	shl	rdx, 4
	add	rdx, r14
	mov	rdi, qword ptr [rsp + 32] 
	mov	esi, ebp
	call	_ZN8CryptoPP6RawDES9RawSetKeyENS_9CipherDirEPKh
	mov	rdi, r15
	call	_ZNK8CryptoPP19BlockTransformation18GetCipherDirectionEv
	mov	edi, eax
	call	_ZN8CryptoPP16ReverseCipherDirENS_9CipherDirE
	mov	rdi, qword ptr [rsp + 24] 
	mov	esi, eax
	mov	rdx, qword ptr [rsp + 16] 
	call	_ZN8CryptoPP6RawDES9RawSetKeyENS_9CipherDirEPKh
	mov	rdi, r15
	call	_ZNK8CryptoPP19BlockTransformation18GetCipherDirectionEv
	mov	ebp, eax
	mov	rax, qword ptr [r13 + 8]
	mov	rdi, r15
	call	qword ptr [rax + 72]
	movzx	edx, al
	shl	rdx, 4
	add	rdx, r14
	mov	rdi, r12
	mov	esi, ebp
	call	_ZN8CryptoPP6RawDES9RawSetKeyENS_9CipherDirEPKh
	mov	eax, dword ptr [rip + x.55]
	mov	ecx, dword ptr [rip + y.56]
	mov	edx, eax
	neg	edx
	not	edx
	imul	edx, eax
	mov	eax, edx
	xor	eax, -2
	and	eax, edx
	sete	dl
	cmp	ecx, 10
	mov	rsi, rbx
	setl	bl
	xor	bl, dl
	mov	rbx, rsi
	mov	edx, -1216582263
	mov	esi, -1940143269
	cmovne	edx, esi
	test	eax, eax
	mov	eax, edx
	cmove	eax, esi
	cmp	ecx, 10
	cmovge	eax, edx
	jmp	.LBB23_1
.LBB23_9:                               
	mov	rdi, r13
	mov	rsi, rbx
	call	_ZNK8CryptoPP21SimpleKeyingInterface20AssertValidKeyLengthEm
	mov	rdi, r15
	call	_ZNK8CryptoPP19BlockTransformation18GetCipherDirectionEv
	mov	ebp, eax
	mov	rax, qword ptr [r13 + 8]
	mov	rdi, r15
	call	qword ptr [rax + 72]
	xor	edx, edx
	test	al, al
	sete	dl
	shl	rdx, 4
	add	rdx, r14
	mov	rdi, qword ptr [rsp + 32] 
	mov	esi, ebp
	call	_ZN8CryptoPP6RawDES9RawSetKeyENS_9CipherDirEPKh
	mov	rdi, r15
	call	_ZNK8CryptoPP19BlockTransformation18GetCipherDirectionEv
	mov	edi, eax
	call	_ZN8CryptoPP16ReverseCipherDirENS_9CipherDirE
	mov	rdi, qword ptr [rsp + 24] 
	mov	esi, eax
	mov	rdx, qword ptr [rsp + 16] 
	call	_ZN8CryptoPP6RawDES9RawSetKeyENS_9CipherDirEPKh
	mov	rdi, r15
	call	_ZNK8CryptoPP19BlockTransformation18GetCipherDirectionEv
	mov	ebp, eax
	mov	rax, qword ptr [r13 + 8]
	mov	rdi, r15
	call	qword ptr [rax + 72]
	movzx	edx, al
	shl	rdx, 4
	add	rdx, r14
	mov	rdi, r12
	mov	esi, ebp
	call	_ZN8CryptoPP6RawDES9RawSetKeyENS_9CipherDirEPKh
	mov	eax, -440807058
	jmp	.LBB23_1
.LBB23_8:
	add	rsp, 40
	pop	rbx
	pop	r12
	pop	r13
	pop	r14
	pop	r15
	pop	rbp
	ret
.Lfunc_end23:
	.size	_ZN8CryptoPP8DES_EDE34Base15UncheckedSetKeyEPKhjRKNS_14NameValuePairsE, .Lfunc_end23-_ZN8CryptoPP8DES_EDE34Base15UncheckedSetKeyEPKhjRKNS_14NameValuePairsE
	.cfi_endproc

	.globl	_ZNK8CryptoPP8DES_EDE34Base18ProcessAndXorBlockEPKhS3_Ph 
	.p2align	4, 0x90
	.type	_ZNK8CryptoPP8DES_EDE34Base18ProcessAndXorBlockEPKhS3_Ph,@function
_ZNK8CryptoPP8DES_EDE34Base18ProcessAndXorBlockEPKhS3_Ph: 
	.cfi_startproc

	push	rbp
.Lcfi95:
	.cfi_def_cfa_offset 16
.Lcfi96:
	.cfi_offset rbp, -16
	mov	rbp, rsp
.Lcfi97:
	.cfi_def_cfa_register rbp
	push	r15
	push	r14
	push	r13
	push	r12
	push	rbx
	sub	rsp, 72
.Lcfi98:
	.cfi_offset rbx, -56
.Lcfi99:
	.cfi_offset r12, -48
.Lcfi100:
	.cfi_offset r13, -40
.Lcfi101:
	.cfi_offset r14, -32
.Lcfi102:
	.cfi_offset r15, -24
	mov	eax, dword ptr [rip + x.57]
	lea	ebx, [rax - 1]
	imul	ebx, eax
	not	ebx
	or	ebx, -2
	cmp	ebx, -1
	sete	byte ptr [rbp - 41]
	mov	eax, dword ptr [rip + y.58]
	cmp	eax, 10
	setl	byte ptr [rbp - 42]
	mov	qword ptr [rbp - 112], rcx 
	mov	qword ptr [rbp - 104], rdx 
	mov	qword ptr [rbp - 96], rsi 
	lea	rax, [rdi + 16]
	mov	qword ptr [rbp - 80], rax 
	lea	rax, [rdi + 176]
	mov	qword ptr [rbp - 72], rax 
	add	rdi, 336
	mov	qword ptr [rbp - 88], rdi 
	mov	eax, 276370582
	jmp	.LBB24_1
.LBB24_7:                               
	movzx	ecx, byte ptr [rbp - 41]
	movzx	eax, byte ptr [rbp - 42]
	mov	edx, ecx
	xor	dl, al
	mov	edx, -754458965
	mov	esi, -1009135859
	cmovne	edx, esi
	test	al, al
	mov	eax, edx
	cmovne	eax, esi
	test	cl, cl
	cmove	eax, edx
	.p2align	4, 0x90
.LBB24_1:                               
	cmp	eax, -754458966
	jg	.LBB24_5

	cmp	eax, -1009135859
	je	.LBB24_8

	cmp	eax, -969456287
	jne	.LBB24_1
	jmp	.LBB24_4
	.p2align	4, 0x90
.LBB24_5:                               
	cmp	eax, -754458965
	je	.LBB24_9

	cmp	eax, 276370582
	jne	.LBB24_1
	jmp	.LBB24_7
.LBB24_8:                               
	mov	rax, rsp
	mov	qword ptr [rbp - 64], rax 
	lea	r13, [rax - 16]
	mov	rsp, r13
	mov	rax, rsp
	mov	qword ptr [rbp - 56], rax 
	lea	rbx, [rax - 16]
	mov	rsp, rbx
	mov	r12, rsp
	lea	r14, [r12 - 16]
	mov	rsp, r14
	mov	r15, rsp
	add	r15, -16
	mov	rsp, r15
	mov	rdi, qword ptr [rbp - 96] 
	call	_ZN8CryptoPP14BlockGetAndPutIjNS_10EnumToTypeINS_9ByteOrderELi1EEELb0ELb0EE3GetEPKv
	mov	qword ptr [r12 - 16], rax
	mov	rdi, r14
	mov	rsi, r13
	call	_ZN8CryptoPP8GetBlockIjNS_10EnumToTypeINS_9ByteOrderELi1EEELb0EEclIjEERS4_RT_
	mov	rdi, rax
	mov	rsi, rbx
	call	_ZN8CryptoPP8GetBlockIjNS_10EnumToTypeINS_9ByteOrderELi1EEELb0EEclIjEERS4_RT_
	mov	rdi, r13
	mov	rsi, rbx
	call	_ZN8CryptoPPL5IPERMERjS0_
	mov	rdi, qword ptr [rbp - 80] 
	mov	rsi, r13
	mov	rdx, rbx
	call	_ZNK8CryptoPP6RawDES15RawProcessBlockERjS1_
	mov	rdi, qword ptr [rbp - 72] 
	mov	rsi, rbx
	mov	rdx, r13
	call	_ZNK8CryptoPP6RawDES15RawProcessBlockERjS1_
	mov	rdi, qword ptr [rbp - 88] 
	mov	rsi, r13
	mov	rdx, rbx
	call	_ZNK8CryptoPP6RawDES15RawProcessBlockERjS1_
	mov	rdi, r13
	mov	rsi, rbx
	call	_ZN8CryptoPPL5FPERMERjS0_
	mov	rdi, r15
	mov	rsi, qword ptr [rbp - 104] 
	mov	rdx, qword ptr [rbp - 112] 
	call	_ZN8CryptoPP8PutBlockIjNS_10EnumToTypeINS_9ByteOrderELi1EEELb0EEC2EPKvPv
	mov	rax, qword ptr [rbp - 56] 
	mov	esi, dword ptr [rax - 16]
	mov	rdi, r15
	call	_ZN8CryptoPP8PutBlockIjNS_10EnumToTypeINS_9ByteOrderELi1EEELb0EEclIjEERS4_T_
	mov	rcx, qword ptr [rbp - 64] 
	mov	esi, dword ptr [rcx - 16]
	mov	rdi, rax
	call	_ZN8CryptoPP8PutBlockIjNS_10EnumToTypeINS_9ByteOrderELi1EEELb0EEclIjEERS4_T_
	mov	eax, dword ptr [rip + x.57]
	lea	ecx, [rax - 1]
	imul	ecx, eax
	not	ecx
	or	ecx, -2
	cmp	ecx, -1
	sete	cl
	mov	eax, -754458965
	mov	esi, -969456287
	cmove	eax, esi
	cmp	dword ptr [rip + y.58], 10
	setl	dl
	mov	edi, -754458965
	cmovge	eax, edi
	xor	dl, cl
	cmovne	eax, esi
	jmp	.LBB24_1
.LBB24_9:                               
	mov	rax, rsp
	mov	qword ptr [rbp - 64], rax 
	lea	r15, [rax - 16]
	mov	rsp, r15
	mov	rax, rsp
	mov	qword ptr [rbp - 56], rax 
	lea	r13, [rax - 16]
	mov	rsp, r13
	mov	r12, rsp
	lea	r14, [r12 - 16]
	mov	rsp, r14
	mov	rbx, rsp
	add	rbx, -16
	mov	rsp, rbx
	mov	rdi, qword ptr [rbp - 96] 
	call	_ZN8CryptoPP14BlockGetAndPutIjNS_10EnumToTypeINS_9ByteOrderELi1EEELb0ELb0EE3GetEPKv
	mov	qword ptr [r12 - 16], rax
	mov	rdi, r14
	mov	rsi, r15
	call	_ZN8CryptoPP8GetBlockIjNS_10EnumToTypeINS_9ByteOrderELi1EEELb0EEclIjEERS4_RT_
	mov	rdi, rax
	mov	rsi, r13
	call	_ZN8CryptoPP8GetBlockIjNS_10EnumToTypeINS_9ByteOrderELi1EEELb0EEclIjEERS4_RT_
	mov	rdi, r15
	mov	rsi, r13
	call	_ZN8CryptoPPL5IPERMERjS0_
	mov	rdi, qword ptr [rbp - 80] 
	mov	rsi, r15
	mov	rdx, r13
	call	_ZNK8CryptoPP6RawDES15RawProcessBlockERjS1_
	mov	rdi, qword ptr [rbp - 72] 
	mov	rsi, r13
	mov	rdx, r15
	call	_ZNK8CryptoPP6RawDES15RawProcessBlockERjS1_
	mov	rdi, qword ptr [rbp - 88] 
	mov	rsi, r15
	mov	rdx, r13
	call	_ZNK8CryptoPP6RawDES15RawProcessBlockERjS1_
	mov	rdi, r15
	mov	rsi, r13
	call	_ZN8CryptoPPL5FPERMERjS0_
	mov	rdi, rbx
	mov	rsi, qword ptr [rbp - 104] 
	mov	rdx, qword ptr [rbp - 112] 
	call	_ZN8CryptoPP8PutBlockIjNS_10EnumToTypeINS_9ByteOrderELi1EEELb0EEC2EPKvPv
	mov	rax, qword ptr [rbp - 56] 
	mov	esi, dword ptr [rax - 16]
	mov	rdi, rbx
	call	_ZN8CryptoPP8PutBlockIjNS_10EnumToTypeINS_9ByteOrderELi1EEELb0EEclIjEERS4_T_
	mov	rcx, qword ptr [rbp - 64] 
	mov	esi, dword ptr [rcx - 16]
	mov	rdi, rax
	call	_ZN8CryptoPP8PutBlockIjNS_10EnumToTypeINS_9ByteOrderELi1EEELb0EEclIjEERS4_T_
	mov	eax, -1009135859
	jmp	.LBB24_1
.LBB24_4:
	lea	rsp, [rbp - 40]
	pop	rbx
	pop	r12
	pop	r13
	pop	r14
	pop	r15
	pop	rbp
	ret
.Lfunc_end24:
	.size	_ZNK8CryptoPP8DES_EDE34Base18ProcessAndXorBlockEPKhS3_Ph, .Lfunc_end24-_ZNK8CryptoPP8DES_EDE34Base18ProcessAndXorBlockEPKhS3_Ph
	.cfi_endproc

	.globl	_ZThn8_NK8CryptoPP8DES_EDE34Base18ProcessAndXorBlockEPKhS3_Ph 
	.p2align	4, 0x90
	.type	_ZThn8_NK8CryptoPP8DES_EDE34Base18ProcessAndXorBlockEPKhS3_Ph,@function
_ZThn8_NK8CryptoPP8DES_EDE34Base18ProcessAndXorBlockEPKhS3_Ph: 
	.cfi_startproc

	add	rdi, -8
	jmp	_ZNK8CryptoPP8DES_EDE34Base18ProcessAndXorBlockEPKhS3_Ph 
.Lfunc_end25:
	.size	_ZThn8_NK8CryptoPP8DES_EDE34Base18ProcessAndXorBlockEPKhS3_Ph, .Lfunc_end25-_ZThn8_NK8CryptoPP8DES_EDE34Base18ProcessAndXorBlockEPKhS3_Ph
	.cfi_endproc

	.globl	_ZN8CryptoPP3DES18CheckKeyParityBitsEPKh 
	.p2align	4, 0x90
	.type	_ZN8CryptoPP3DES18CheckKeyParityBitsEPKh,@function
_ZN8CryptoPP3DES18CheckKeyParityBitsEPKh: 

	push	rbp
	push	r15
	push	r14
	push	r13
	push	r12
	push	rbx
	sub	rsp, 40
	mov	qword ptr [rsp + 32], rdi 
	mov	r9d, dword ptr [rip + x.61]
	mov	r15d, dword ptr [rip + y.62]
	lea	eax, [r9 - 1]
	cmp	r15d, 10
	setl	r10b
	imul	eax, r9d
	mov	esi, eax
	xor	esi, -2
	mov	ecx, esi
	and	ecx, eax
	sete	r14b
	mov	ebx, r10d
	xor	bl, r14b
	mov	edx, 977203584
	mov	ebp, -947164261
	cmovne	ebp, edx
	mov	ecx, -348505497
	mov	ebx, 316713555
	cmovne	ebx, ecx
	and	esi, eax
	mov	edi, 929177347
	mov	r8d, -11521710
	cmove	r8d, edi
	cmovne	ecx, ebx
	cmp	r15d, 10
	not	eax
	cmovge	ecx, ebx
	mov	dword ptr [rsp + 24], ecx 
	or	eax, -2
	cmp	eax, -1
	mov	eax, 1621345653
	mov	edi, -1552109913
	cmove	edi, eax
	sete	r13b
	mov	ecx, 2129704177
	mov	eax, 316713555
	cmove	eax, ecx
	cmp	r15d, 10
	mov	ebx, 316713555
	cmovge	eax, ebx
	mov	r11d, -11521710
	cmovge	r8d, r11d
	test	esi, esi
	cmovne	edx, ebp
	cmp	r15d, 10
	cmovge	edx, ebp
	mov	dword ptr [rsp + 28], edx 
	mov	r12d, -1552109913
	cmovge	edi, r12d
	mov	esi, r9d
	neg	esi
	not	esi
	imul	esi, r9d
	not	esi
	or	esi, -2
	cmp	esi, -1
	sete	bpl
	setne	dl
	cmp	r15d, 9
	setg	sil
	mov	ecx, esi
	or	cl, dl
	mov	r15d, -1381866695
	cmove	r12d, r15d
	xor	cl, 1
	xor	dl, sil
	cmovne	r12d, r15d
	mov	dword ptr [rsp + 16], r12d 
	xor	bpl, r10b
	xor	r14b, sil
	mov	edx, -947164261
	mov	ebx, 929177347
	cmove	r8d, ebx
	mov	ebx, r8d
	or	bpl, cl
	mov	r15d, -1089266406
	cmove	r15d, edx
	mov	r14d, -1749105581
	cmove	r14d, r11d
	xor	r13b, sil
	mov	ecx, 1621345653
	cmove	edi, ecx
	mov	dword ptr [rsp + 20], edi 
	mov	ecx, 2129704177
	cmove	eax, ecx
	mov	dword ptr [rsp + 12], eax 
	mov	ecx, -776541515
	xor	ebp, ebp


	jmp	.LBB26_1
.LBB26_45:                              
	mov	ecx, 2129704177
	.p2align	4, 0x90
.LBB26_1:                               
	mov	eax, ecx
	cmp	eax, -348505498
	jg	.LBB26_19

	cmp	eax, -1089266407
	jg	.LBB26_11

	cmp	eax, -1552109914
	jle	.LBB26_4

	cmp	eax, -1552109913
	je	.LBB26_43

	cmp	eax, -1457058408
	mov	ecx, ebx
	je	.LBB26_1

	cmp	eax, -1381866695
	mov	ecx, eax
	jne	.LBB26_1

	mov	eax, dword ptr [rsp + 8]
	cmp	eax, 8
	setb	byte ptr [rsp + 6]
	mov	ecx, dword ptr [rsp + 20] 
	jmp	.LBB26_1
	.p2align	4, 0x90
.LBB26_19:                              
	cmp	eax, 929177346
	jle	.LBB26_20

	cmp	eax, 1043710355
	jle	.LBB26_29

	cmp	eax, 1043710356
	mov	ecx, r15d
	je	.LBB26_1

	cmp	eax, 1621345653
	je	.LBB26_37

	cmp	eax, 2129704177
	mov	ecx, eax
	jne	.LBB26_1

	mov	ecx, dword ptr [rsp + 24] 
	jmp	.LBB26_1
	.p2align	4, 0x90
.LBB26_11:                              
	cmp	eax, -886096558
	jle	.LBB26_12

	cmp	eax, -886096557
	je	.LBB26_41

	cmp	eax, -776541515
	je	.LBB26_36

	cmp	eax, -502967390
	mov	ecx, eax
	jne	.LBB26_1

	mov	ebp, dword ptr [rsp + 8]
	inc	ebp
	mov	ecx, -776541515
	jmp	.LBB26_1
	.p2align	4, 0x90
.LBB26_20:                              
	cmp	eax, 316713554
	jg	.LBB26_25

	cmp	eax, -321208559
	je	.LBB26_39

	cmp	eax, -11521710
	je	.LBB26_44

	cmp	eax, -348505497
	mov	ecx, eax
	jne	.LBB26_1
	jmp	.LBB26_24
.LBB26_4:                               
	cmp	eax, -1749105581
	je	.LBB26_42

	cmp	eax, -1657934818
	mov	ecx, eax
	jne	.LBB26_1

	mov	eax, r12d
	and	al, 1
	mov	byte ptr [rsp + 7], al
	mov	ecx, dword ptr [rsp + 12] 
	jmp	.LBB26_1
.LBB26_29:                              
	cmp	eax, 929177347
	mov	ecx, r14d
	je	.LBB26_1

	cmp	eax, 977203584
	mov	ecx, eax
	jne	.LBB26_1

	mov	ecx, -886096557
	mov	r13d, 1
	jmp	.LBB26_1
.LBB26_12:                              
	cmp	eax, -1089266406
	mov	ecx, dword ptr [rsp + 28] 
	je	.LBB26_1

	cmp	eax, -947164261
	mov	ecx, eax
	jne	.LBB26_1

	mov	ecx, -1089266406
	jmp	.LBB26_1
.LBB26_25:                              
	cmp	eax, 316713555
	je	.LBB26_45

	cmp	eax, 819269200
	mov	ecx, eax
	jne	.LBB26_1

	mov	ecx, -886096557
	mov	r13d, 2
	jmp	.LBB26_1
.LBB26_43:                              
	mov	eax, dword ptr [rsp + 8]
	mov	ecx, -1381866695
	jmp	.LBB26_1
.LBB26_37:                              
	movzx	eax, byte ptr [rsp + 6]
	test	al, al
	mov	ecx, -321208559
	jne	.LBB26_1

	mov	ecx, 819269200
	jmp	.LBB26_1
.LBB26_41:                              
	cmp	r13d, 2
	mov	ecx, -1657934818
	mov	eax, -1457058408
	cmove	ecx, eax
	xor	r12d, r12d
	jmp	.LBB26_1
.LBB26_36:                              
	mov	dword ptr [rsp + 8], ebp
	mov	ecx, dword ptr [rsp + 16] 
	jmp	.LBB26_1
.LBB26_44:                              
	mov	ecx, 929177347
	jmp	.LBB26_1
.LBB26_42:                              
	mov	ecx, -1657934818
	mov	r12b, 1
	jmp	.LBB26_1
.LBB26_39:                              
	mov	eax, dword ptr [rsp + 8]
	mov	rcx, qword ptr [rsp + 32] 
	movzx	edi, byte ptr [rcx + rax]
	call	_ZN8CryptoPPL11CheckParityEh
	test	al, al
	mov	ecx, -502967390
	jne	.LBB26_1

	mov	ecx, 1043710356
	jmp	.LBB26_1
.LBB26_24:
	mov	al, byte ptr [rsp + 7]
	add	rsp, 40
	pop	rbx
	pop	r12
	pop	r13
	pop	r14
	pop	r15
	pop	rbp
	ret
.Lfunc_end26:
	.size	_ZN8CryptoPP3DES18CheckKeyParityBitsEPKh, .Lfunc_end26-_ZN8CryptoPP3DES18CheckKeyParityBitsEPKh

	.p2align	4, 0x90         
	.type	_ZN8CryptoPPL11CheckParityEh,@function
_ZN8CryptoPPL11CheckParityEh:           

	mov	eax, edi
	shr	eax, 4
	mov	ecx, eax
	not	ecx
	and	ecx, -1963873149
	and	eax, 12
	or	eax, ecx
	mov	ecx, edi
	not	ecx
	and	ecx, -1963873149
	and	edi, 124
	or	edi, ecx
	xor	edi, eax
	mov	eax, edi
	shr	eax
	mov	ecx, eax
	not	ecx
	and	ecx, -1340776639
	and	eax, 90734654
	or	eax, ecx
	mov	ecx, edi
	not	ecx
	and	ecx, -1340776639
	mov	edx, edi
	and	edx, 190
	or	edx, ecx
	xor	edx, eax
	mov	eax, edi
	shr	eax, 2
	mov	ecx, edx
	not	ecx
	and	ecx, eax
	not	eax
	and	eax, edx
	or	eax, ecx
	shr	edi, 3
	mov	ecx, eax
	not	ecx
	and	ecx, 83913808
	and	eax, -1157655633
	or	eax, ecx
	mov	ecx, edi
	not	ecx
	and	ecx, 83913808
	and	edi, 6164879
	or	edi, ecx
	xor	edi, eax
	mov	eax, edi
	xor	eax, -1073741826
	test	eax, edi
	setne	al
	ret
.Lfunc_end27:
	.size	_ZN8CryptoPPL11CheckParityEh, .Lfunc_end27-_ZN8CryptoPPL11CheckParityEh

	.globl	_ZN8CryptoPP3DES20CorrectKeyParityBitsEPh 
	.p2align	4, 0x90
	.type	_ZN8CryptoPP3DES20CorrectKeyParityBitsEPh,@function
_ZN8CryptoPP3DES20CorrectKeyParityBitsEPh: 

	push	rbp
	push	r14
	push	rbx
	sub	rsp, 16
	mov	r14, rdi
	mov	eax, -1759674830
	xor	ebp, ebp
	jmp	.LBB28_1
.LBB28_39:                              
	mov	eax, -1026974755
	.p2align	4, 0x90
.LBB28_1:                               
	cmp	eax, -737722066
	jle	.LBB28_2

	cmp	eax, 1695998790
	jg	.LBB28_23

	cmp	eax, -737722065
	je	.LBB28_27

	cmp	eax, -720771532
	je	.LBB28_30

	cmp	eax, -447752590
	jne	.LBB28_1

	mov	eax, dword ptr [rip + x.65]
	mov	ecx, dword ptr [rip + y.66]
	lea	esi, [rax - 1]
	imul	esi, eax
	mov	edx, esi
	xor	edx, -2
	and	edx, esi
	sete	al
	cmp	ecx, 10
	setl	bl
	xor	bl, al
	mov	esi, -1026974755
	mov	eax, -1026974755
	jne	.LBB28_20

	mov	eax, -1072434052
.LBB28_20:                              
	test	edx, edx
	je	.LBB28_22

	mov	esi, eax
.LBB28_22:                              
	cmp	ecx, 10
	cmovl	eax, esi
	jmp	.LBB28_1
	.p2align	4, 0x90
.LBB28_2:                               
	cmp	eax, -1072434053
	jle	.LBB28_3

	cmp	eax, -1072434052
	je	.LBB28_39

	cmp	eax, -1026974755
	je	.LBB28_32

	cmp	eax, -954660442
	jne	.LBB28_1

	mov	rax, qword ptr [rsp + 8]
	movzx	eax, byte ptr [rax]
	mov	ecx, eax
	not	cl
	and	cl, 1
	and	al, -2
	or	al, cl
	mov	rcx, qword ptr [rsp + 8]
	mov	byte ptr [rcx], al
	mov	eax, -2115302316
	jmp	.LBB28_1
	.p2align	4, 0x90
.LBB28_23:                              
	cmp	eax, 1695998791
	je	.LBB28_38

	cmp	eax, 1835023975
	je	.LBB28_35

	cmp	eax, 1956822767
	jne	.LBB28_1
	jmp	.LBB28_26
	.p2align	4, 0x90
.LBB28_3:                               
	cmp	eax, -2115302316
	je	.LBB28_37

	cmp	eax, -1759674830
	jne	.LBB28_1

	mov	eax, dword ptr [rip + x.65]
	mov	ecx, dword ptr [rip + y.66]
	lea	esi, [rax - 1]
	imul	esi, eax
	mov	edx, esi
	xor	edx, -2
	and	edx, esi
	sete	al
	cmp	ecx, 10
	setl	bl
	xor	bl, al
	mov	esi, -737722065
	mov	eax, -737722065
	jne	.LBB28_7

	mov	eax, 1695998791
.LBB28_7:                               
	test	edx, edx
	je	.LBB28_9

	mov	esi, eax
.LBB28_9:                               
	cmp	ecx, 10
	mov	dword ptr [rsp + 4], ebp
	cmovl	eax, esi
	jmp	.LBB28_1
.LBB28_27:                              
	mov	eax, dword ptr [rip + x.65]
	mov	ecx, dword ptr [rip + y.66]
	lea	edx, [rax - 1]
	imul	edx, eax
	not	edx
	or	edx, -2
	cmp	edx, -1
	sete	al
	cmp	ecx, 10
	setl	bl
	xor	bl, al
	mov	eax, -720771532
	mov	esi, -720771532
	jne	.LBB28_29

	mov	esi, 1695998791
.LBB28_29:                              
	cmp	edx, -1
	cmovne	eax, esi
	cmp	ecx, 10
	mov	ecx, dword ptr [rsp + 4]
	cmovge	eax, esi
	cmp	ecx, 8
	setb	byte ptr [rsp + 3]
	jmp	.LBB28_1
.LBB28_30:                              
	movzx	eax, byte ptr [rsp + 3]
	test	al, al
	mov	eax, 1835023975
	jne	.LBB28_1

	mov	eax, -447752590
	jmp	.LBB28_1
.LBB28_32:                              
	mov	eax, dword ptr [rip + x.65]
	mov	ecx, dword ptr [rip + y.66]
	lea	edx, [rax - 1]
	imul	edx, eax
	not	edx
	or	edx, -2
	cmp	edx, -1
	sete	al
	cmp	ecx, 10
	setl	bl
	xor	bl, al
	mov	eax, 1956822767
	mov	esi, 1956822767
	jne	.LBB28_34

	mov	esi, -1072434052
.LBB28_34:                              
	cmp	edx, -1
	cmovne	eax, esi
	cmp	ecx, 10
	cmovge	eax, esi
	jmp	.LBB28_1
.LBB28_38:                              
	mov	eax, dword ptr [rsp + 4]
	mov	eax, -737722065
	jmp	.LBB28_1
.LBB28_35:                              
	mov	eax, dword ptr [rsp + 4]
	add	rax, r14
	mov	qword ptr [rsp + 8], rax
	mov	rax, qword ptr [rsp + 8]
	movzx	edi, byte ptr [rax]
	call	_ZN8CryptoPPL11CheckParityEh
	test	al, al
	mov	eax, -2115302316
	jne	.LBB28_1

	mov	eax, -954660442
	jmp	.LBB28_1
.LBB28_37:                              
	mov	ebp, dword ptr [rsp + 4]
	inc	ebp
	mov	eax, -1759674830
	jmp	.LBB28_1
.LBB28_26:
	add	rsp, 16
	pop	rbx
	pop	r14
	pop	rbp
	ret
.Lfunc_end28:
	.size	_ZN8CryptoPP3DES20CorrectKeyParityBitsEPh, .Lfunc_end28-_ZN8CryptoPP3DES20CorrectKeyParityBitsEPh

	.globl	_ZNK8CryptoPP3DES4Base18ProcessAndXorBlockEPKhS3_Ph 
	.p2align	4, 0x90
	.type	_ZNK8CryptoPP3DES4Base18ProcessAndXorBlockEPKhS3_Ph,@function
_ZNK8CryptoPP3DES4Base18ProcessAndXorBlockEPKhS3_Ph: 
	.cfi_startproc

	push	r15
.Lcfi103:
	.cfi_def_cfa_offset 16
	push	r14
.Lcfi104:
	.cfi_def_cfa_offset 24
	push	r13
.Lcfi105:
	.cfi_def_cfa_offset 32
	push	r12
.Lcfi106:
	.cfi_def_cfa_offset 40
	push	rbx
.Lcfi107:
	.cfi_def_cfa_offset 48
	sub	rsp, 32
.Lcfi108:
	.cfi_def_cfa_offset 80
.Lcfi109:
	.cfi_offset rbx, -48
.Lcfi110:
	.cfi_offset r12, -40
.Lcfi111:
	.cfi_offset r13, -32
.Lcfi112:
	.cfi_offset r14, -24
.Lcfi113:
	.cfi_offset r15, -16
	mov	r14, rcx
	mov	r15, rdx
	mov	rbx, rdi
	mov	rdi, rsi
	call	_ZN8CryptoPP14BlockGetAndPutIjNS_10EnumToTypeINS_9ByteOrderELi1EEELb0ELb0EE3GetEPKv
	mov	qword ptr [rsp + 8], rax
	lea	rdi, [rsp + 8]
	lea	r12, [rsp + 4]
	mov	rsi, r12
	call	_ZN8CryptoPP8GetBlockIjNS_10EnumToTypeINS_9ByteOrderELi1EEELb0EEclIjEERS4_RT_
	mov	r13, rsp
	mov	rdi, rax
	mov	rsi, r13
	call	_ZN8CryptoPP8GetBlockIjNS_10EnumToTypeINS_9ByteOrderELi1EEELb0EEclIjEERS4_RT_
	mov	rdi, r12
	mov	rsi, r13
	call	_ZN8CryptoPPL5IPERMERjS0_
	add	rbx, 16
	mov	rdi, rbx
	mov	rsi, r12
	mov	rdx, r13
	call	_ZNK8CryptoPP6RawDES15RawProcessBlockERjS1_
	mov	rdi, r12
	mov	rsi, r13
	call	_ZN8CryptoPPL5FPERMERjS0_
	lea	rbx, [rsp + 16]
	mov	rdi, rbx
	mov	rsi, r15
	mov	rdx, r14
	call	_ZN8CryptoPP8PutBlockIjNS_10EnumToTypeINS_9ByteOrderELi1EEELb0EEC2EPKvPv
	mov	esi, dword ptr [rsp]
	mov	rdi, rbx
	call	_ZN8CryptoPP8PutBlockIjNS_10EnumToTypeINS_9ByteOrderELi1EEELb0EEclIjEERS4_T_
	mov	esi, dword ptr [rsp + 4]
	mov	rdi, rax
	call	_ZN8CryptoPP8PutBlockIjNS_10EnumToTypeINS_9ByteOrderELi1EEELb0EEclIjEERS4_T_
	add	rsp, 32
	pop	rbx
	pop	r12
	pop	r13
	pop	r14
	pop	r15
	ret
.Lfunc_end29:
	.size	_ZNK8CryptoPP3DES4Base18ProcessAndXorBlockEPKhS3_Ph, .Lfunc_end29-_ZNK8CryptoPP3DES4Base18ProcessAndXorBlockEPKhS3_Ph
	.cfi_endproc

	.globl	_ZThn8_NK8CryptoPP3DES4Base18ProcessAndXorBlockEPKhS3_Ph 
	.p2align	4, 0x90
	.type	_ZThn8_NK8CryptoPP3DES4Base18ProcessAndXorBlockEPKhS3_Ph,@function
_ZThn8_NK8CryptoPP3DES4Base18ProcessAndXorBlockEPKhS3_Ph: 
	.cfi_startproc

	push	rbp
.Lcfi114:
	.cfi_def_cfa_offset 16
	push	r15
.Lcfi115:
	.cfi_def_cfa_offset 24
	push	r14
.Lcfi116:
	.cfi_def_cfa_offset 32
	push	r13
.Lcfi117:
	.cfi_def_cfa_offset 40
	push	r12
.Lcfi118:
	.cfi_def_cfa_offset 48
	push	rbx
.Lcfi119:
	.cfi_def_cfa_offset 56
	push	rax
.Lcfi120:
	.cfi_def_cfa_offset 64
.Lcfi121:
	.cfi_offset rbx, -56
.Lcfi122:
	.cfi_offset r12, -48
.Lcfi123:
	.cfi_offset r13, -40
.Lcfi124:
	.cfi_offset r14, -32
.Lcfi125:
	.cfi_offset r15, -24
.Lcfi126:
	.cfi_offset rbp, -16
	mov	r14, rcx
	mov	r15, rdx
	mov	r12, rsi
	mov	rbp, rdi
	mov	eax, dword ptr [rip + x.69]
	mov	ecx, dword ptr [rip + y.70]
	lea	edx, [rax - 1]
	imul	edx, eax
	not	edx
	or	edx, -2
	cmp	edx, -1
	sete	byte ptr [rsp + 6]
	cmp	ecx, 10
	setl	byte ptr [rsp + 7]
	add	rbp, -8
	mov	eax, -88252352
	mov	r13d, 313400534
	jmp	.LBB30_1
.LBB30_8:                               
	movzx	ecx, byte ptr [rsp + 6]
	movzx	eax, byte ptr [rsp + 7]
	mov	edx, ecx
	xor	dl, al
	test	al, al
	mov	eax, 1207193526
	mov	esi, 423114702
	cmovne	eax, esi
	test	cl, cl
	mov	ecx, 1207193526
	cmove	eax, ecx
	test	dl, dl
	cmovne	eax, esi
	.p2align	4, 0x90
.LBB30_1:                               
	cmp	eax, 423114701
	jg	.LBB30_5

	cmp	eax, -88252352
	je	.LBB30_8

	cmp	eax, 313400534
	jne	.LBB30_1
	jmp	.LBB30_4
	.p2align	4, 0x90
.LBB30_5:                               
	cmp	eax, 423114702
	je	.LBB30_9

	cmp	eax, 1207193526
	jne	.LBB30_1

	mov	rdi, rbp
	mov	rsi, r12
	mov	rdx, r15
	mov	rcx, r14
	call	_ZNK8CryptoPP3DES4Base18ProcessAndXorBlockEPKhS3_Ph
	mov	eax, 423114702
	jmp	.LBB30_1
.LBB30_9:                               
	mov	rdi, rbp
	mov	rsi, r12
	mov	rdx, r15
	mov	rcx, r14
	call	_ZNK8CryptoPP3DES4Base18ProcessAndXorBlockEPKhS3_Ph
	mov	eax, dword ptr [rip + x.69]
	mov	ecx, dword ptr [rip + y.70]
	lea	edx, [rax - 1]
	imul	edx, eax
	not	edx
	or	edx, -2
	cmp	edx, -1
	sete	al
	cmp	ecx, 10
	setl	bl
	xor	bl, al
	mov	esi, 1207193526
	cmovne	esi, r13d
	cmp	edx, -1
	mov	eax, esi
	cmove	eax, r13d
	cmp	ecx, 10
	cmovge	eax, esi
	jmp	.LBB30_1
.LBB30_4:
	add	rsp, 8
	pop	rbx
	pop	r12
	pop	r13
	pop	r14
	pop	r15
	pop	rbp
	ret
.Lfunc_end30:
	.size	_ZThn8_NK8CryptoPP3DES4Base18ProcessAndXorBlockEPKhS3_Ph, .Lfunc_end30-_ZThn8_NK8CryptoPP3DES4Base18ProcessAndXorBlockEPKhS3_Ph
	.cfi_endproc

	.globl	_ZN8CryptoPP8DES_XEX34Base15UncheckedSetKeyEPKhjRKNS_14NameValuePairsE 
	.p2align	4, 0x90
	.type	_ZN8CryptoPP8DES_XEX34Base15UncheckedSetKeyEPKhjRKNS_14NameValuePairsE,@function
_ZN8CryptoPP8DES_XEX34Base15UncheckedSetKeyEPKhjRKNS_14NameValuePairsE: 
.Lfunc_begin0:
	.cfi_startproc
	.cfi_personality 3, __gxx_personality_v0
	.cfi_lsda 3, .Lexception0

	push	r15
.Lcfi127:
	.cfi_def_cfa_offset 16
	push	r14
.Lcfi128:
	.cfi_def_cfa_offset 24
	push	r13
.Lcfi129:
	.cfi_def_cfa_offset 32
	push	r12
.Lcfi130:
	.cfi_def_cfa_offset 40
	push	rbx
.Lcfi131:
	.cfi_def_cfa_offset 48
.Lcfi132:
	.cfi_offset rbx, -48
.Lcfi133:
	.cfi_offset r12, -40
.Lcfi134:
	.cfi_offset r13, -32
.Lcfi135:
	.cfi_offset r14, -24
.Lcfi136:
	.cfi_offset r15, -16
	mov	r14, rsi
	mov	rbx, rdi
	mov	esi, edx
	call	_ZNK8CryptoPP21SimpleKeyingInterface20AssertValidKeyLengthEm
	lea	r15, [rbx + 96]
	mov	rdi, r15
	call	_ZN8CryptoPP10member_ptrINS_16BlockCipherFinalILNS_9CipherDirE0ENS_3DES4BaseEEEE3getEv
	test	rax, rax
	jne	.LBB31_3

	mov	edi, 176
	call	_Znwm
	mov	r12, rax
.Ltmp0:
	mov	rdi, r12
	call	_ZN8CryptoPP16BlockCipherFinalILNS_9CipherDirE0ENS_3DES4BaseEEC2Ev
.Ltmp1:

	mov	rdi, r15
	mov	rsi, r12
	call	_ZN8CryptoPP10member_ptrINS_16BlockCipherFinalILNS_9CipherDirE0ENS_3DES4BaseEEEE5resetEPS5_
.LBB31_3:
	lea	rdi, [rbx + 16]
	call	_ZN8CryptoPP8SecBlockIhNS_29FixedSizeAllocatorWithCleanupIhLm8ENS_13NullAllocatorIhEELb0EEEEcvPvEv
	mov	r13, rax
	lea	r12, [rbx + 8]
	mov	rax, qword ptr [rbx + 8]
	mov	rdi, r12
	call	qword ptr [rax + 72]
	xor	ecx, ecx
	test	al, al
	sete	cl
	shl	rcx, 4
	mov	rax, qword ptr [r14 + rcx]
	mov	qword ptr [r13], rax
	mov	rdi, r15
	call	_ZN8CryptoPP10member_ptrINS_16BlockCipherFinalILNS_9CipherDirE0ENS_3DES4BaseEEEEptEv
	lea	r15, [rax + 16]
	mov	rdi, r12
	call	_ZNK8CryptoPP19BlockTransformation18GetCipherDirectionEv
	lea	rdx, [r14 + 8]
	mov	rdi, r15
	mov	esi, eax
	call	_ZN8CryptoPP6RawDES9RawSetKeyENS_9CipherDirEPKh
	lea	rdi, [rbx + 56]
	call	_ZN8CryptoPP8SecBlockIhNS_29FixedSizeAllocatorWithCleanupIhLm8ENS_13NullAllocatorIhEELb0EEEEcvPvEv
	mov	r15, rax
	mov	rax, qword ptr [rbx + 8]
	mov	rdi, r12
	call	qword ptr [rax + 72]
	movzx	eax, al
	shl	rax, 4
	mov	rax, qword ptr [r14 + rax]
	mov	qword ptr [r15], rax
	pop	rbx
	pop	r12
	pop	r13
	pop	r14
	pop	r15
	ret
.LBB31_4:
.Ltmp2:
	mov	rbx, rax
	mov	rdi, r12
	call	_ZdlPv
	mov	rdi, rbx
	call	_Unwind_Resume
.Lfunc_end31:
	.size	_ZN8CryptoPP8DES_XEX34Base15UncheckedSetKeyEPKhjRKNS_14NameValuePairsE, .Lfunc_end31-_ZN8CryptoPP8DES_XEX34Base15UncheckedSetKeyEPKhjRKNS_14NameValuePairsE
	.cfi_endproc
	.section	.gcc_except_table,"a",@progbits
	.p2align	2
GCC_except_table31:
.Lexception0:
	.byte	255                     
	.byte	3                       
	.byte	41                      
	.byte	3                       
	.byte	39                      
	.long	.Lfunc_begin0-.Lfunc_begin0 
	.long	.Ltmp0-.Lfunc_begin0    
	.long	0                       
	.byte	0                       
	.long	.Ltmp0-.Lfunc_begin0    
	.long	.Ltmp1-.Ltmp0           
	.long	.Ltmp2-.Lfunc_begin0    
	.byte	0                       
	.long	.Ltmp1-.Lfunc_begin0    
	.long	.Lfunc_end31-.Ltmp1     
	.long	0                       
	.byte	0                       
	.p2align	2

	.section	.text._ZN8CryptoPP10member_ptrINS_16BlockCipherFinalILNS_9CipherDirE0ENS_3DES4BaseEEEE3getEv,"axG",@progbits,_ZN8CryptoPP10member_ptrINS_16BlockCipherFinalILNS_9CipherDirE0ENS_3DES4BaseEEEE3getEv,comdat
	.weak	_ZN8CryptoPP10member_ptrINS_16BlockCipherFinalILNS_9CipherDirE0ENS_3DES4BaseEEEE3getEv 
	.p2align	4, 0x90
	.type	_ZN8CryptoPP10member_ptrINS_16BlockCipherFinalILNS_9CipherDirE0ENS_3DES4BaseEEEE3getEv,@function
_ZN8CryptoPP10member_ptrINS_16BlockCipherFinalILNS_9CipherDirE0ENS_3DES4BaseEEEE3getEv: 

	mov	rax, qword ptr [rdi]
	ret
.Lfunc_end32:
	.size	_ZN8CryptoPP10member_ptrINS_16BlockCipherFinalILNS_9CipherDirE0ENS_3DES4BaseEEEE3getEv, .Lfunc_end32-_ZN8CryptoPP10member_ptrINS_16BlockCipherFinalILNS_9CipherDirE0ENS_3DES4BaseEEEE3getEv

	.section	.text._ZN8CryptoPP10member_ptrINS_16BlockCipherFinalILNS_9CipherDirE0ENS_3DES4BaseEEEE5resetEPS5_,"axG",@progbits,_ZN8CryptoPP10member_ptrINS_16BlockCipherFinalILNS_9CipherDirE0ENS_3DES4BaseEEEE5resetEPS5_,comdat
	.weak	_ZN8CryptoPP10member_ptrINS_16BlockCipherFinalILNS_9CipherDirE0ENS_3DES4BaseEEEE5resetEPS5_ 
	.p2align	4, 0x90
	.type	_ZN8CryptoPP10member_ptrINS_16BlockCipherFinalILNS_9CipherDirE0ENS_3DES4BaseEEEE5resetEPS5_,@function
_ZN8CryptoPP10member_ptrINS_16BlockCipherFinalILNS_9CipherDirE0ENS_3DES4BaseEEEE5resetEPS5_: 
	.cfi_startproc

	push	rbp
.Lcfi137:
	.cfi_def_cfa_offset 16
	push	r15
.Lcfi138:
	.cfi_def_cfa_offset 24
	push	r14
.Lcfi139:
	.cfi_def_cfa_offset 32
	push	r13
.Lcfi140:
	.cfi_def_cfa_offset 40
	push	r12
.Lcfi141:
	.cfi_def_cfa_offset 48
	push	rbx
.Lcfi142:
	.cfi_def_cfa_offset 56
	sub	rsp, 24
.Lcfi143:
	.cfi_def_cfa_offset 80
.Lcfi144:
	.cfi_offset rbx, -56
.Lcfi145:
	.cfi_offset r12, -48
.Lcfi146:
	.cfi_offset r13, -40
.Lcfi147:
	.cfi_offset r14, -32
.Lcfi148:
	.cfi_offset r15, -24
.Lcfi149:
	.cfi_offset rbp, -16
	mov	r14, rsi
	mov	rbx, rdi
	mov	eax, dword ptr [rip + x.73]
	mov	ecx, dword ptr [rip + y.74]
	mov	edx, eax
	neg	edx
	not	edx
	imul	edx, eax
	mov	eax, edx
	xor	eax, -2
	test	eax, edx
	sete	byte ptr [rsp + 5]
	cmp	ecx, 10
	setl	byte ptr [rsp + 6]
	mov	eax, 1216785300
	mov	r13d, -699311308
	mov	r15d, -910481966
	mov	r12d, -1313003183
	mov	ebp, -1169904481
	jmp	.LBB33_1
.LBB33_10:                              
	movzx	eax, byte ptr [rsp + 7]
	test	al, al
	mov	eax, -1378801512
	cmovne	eax, r12d
	.p2align	4, 0x90
.LBB33_1:                               
	cmp	eax, -910481967
	jg	.LBB33_6

	cmp	eax, -1378801512
	je	.LBB33_11

	cmp	eax, -1313003183
	je	.LBB33_12

	cmp	eax, -1169904481
	jne	.LBB33_1

	mov	qword ptr [rsp + 16], rbx
	mov	rax, qword ptr [rsp + 16]
	mov	rax, qword ptr [rax]
	mov	qword ptr [rsp + 8], rax
	cmp	qword ptr [rsp + 8], 0
	sete	byte ptr [rsp + 7]
	mov	eax, dword ptr [rip + x.73]
	lea	ecx, [rax - 1]
	imul	ecx, eax
	not	ecx
	or	ecx, -2
	cmp	ecx, -1
	sete	cl
	mov	eax, -910481966
	cmove	eax, r13d
	cmp	dword ptr [rip + y.74], 10
	setl	dl
	cmovge	eax, r15d
	xor	dl, cl
	cmovne	eax, r13d
	jmp	.LBB33_1
	.p2align	4, 0x90
.LBB33_6:                               
	cmp	eax, -910481966
	je	.LBB33_13

	cmp	eax, -699311308
	je	.LBB33_10

	cmp	eax, 1216785300
	jne	.LBB33_1

	movzx	ecx, byte ptr [rsp + 5]
	movzx	eax, byte ptr [rsp + 6]
	mov	edx, ecx
	xor	dl, al
	mov	edx, -910481966
	cmovne	edx, ebp
	test	al, al
	mov	eax, edx
	cmovne	eax, ebp
	test	cl, cl
	cmove	eax, edx
	jmp	.LBB33_1
.LBB33_11:                              
	mov	rax, qword ptr [rsp + 8]
	mov	rax, qword ptr [rax]
	mov	rdi, qword ptr [rsp + 8]
	call	qword ptr [rax + 8]
	mov	eax, -1313003183
	jmp	.LBB33_1
.LBB33_13:                              
	mov	eax, -1169904481
	jmp	.LBB33_1
.LBB33_12:
	mov	rax, qword ptr [rsp + 16]
	mov	qword ptr [rax], r14
	add	rsp, 24
	pop	rbx
	pop	r12
	pop	r13
	pop	r14
	pop	r15
	pop	rbp
	ret
.Lfunc_end33:
	.size	_ZN8CryptoPP10member_ptrINS_16BlockCipherFinalILNS_9CipherDirE0ENS_3DES4BaseEEEE5resetEPS5_, .Lfunc_end33-_ZN8CryptoPP10member_ptrINS_16BlockCipherFinalILNS_9CipherDirE0ENS_3DES4BaseEEEE5resetEPS5_
	.cfi_endproc

	.section	.text._ZN8CryptoPP16BlockCipherFinalILNS_9CipherDirE0ENS_3DES4BaseEEC2Ev,"axG",@progbits,_ZN8CryptoPP16BlockCipherFinalILNS_9CipherDirE0ENS_3DES4BaseEEC2Ev,comdat
	.weak	_ZN8CryptoPP16BlockCipherFinalILNS_9CipherDirE0ENS_3DES4BaseEEC2Ev 
	.p2align	4, 0x90
	.type	_ZN8CryptoPP16BlockCipherFinalILNS_9CipherDirE0ENS_3DES4BaseEEC2Ev,@function
_ZN8CryptoPP16BlockCipherFinalILNS_9CipherDirE0ENS_3DES4BaseEEC2Ev: 
	.cfi_startproc

	push	rbp
.Lcfi150:
	.cfi_def_cfa_offset 16
	push	r15
.Lcfi151:
	.cfi_def_cfa_offset 24
	push	r14
.Lcfi152:
	.cfi_def_cfa_offset 32
	push	rbx
.Lcfi153:
	.cfi_def_cfa_offset 40
	push	rax
.Lcfi154:
	.cfi_def_cfa_offset 48
.Lcfi155:
	.cfi_offset rbx, -40
.Lcfi156:
	.cfi_offset r14, -32
.Lcfi157:
	.cfi_offset r15, -24
.Lcfi158:
	.cfi_offset rbp, -16
	mov	eax, dword ptr [rip + x.75]
	lea	ecx, [rax - 1]
	imul	ecx, eax
	mov	eax, ecx
	xor	eax, -2
	test	eax, ecx
	sete	byte ptr [rsp + 6]
	mov	eax, dword ptr [rip + y.76]
	cmp	eax, 10
	setl	byte ptr [rsp + 7]
	mov	rbp, rdi
	mov	eax, 1496992283
	mov	r14d, -1903287965
	mov	r15d, -1467813802
	jmp	.LBB34_1
.LBB34_7:                               
	movzx	ecx, byte ptr [rsp + 6]
	movzx	eax, byte ptr [rsp + 7]
	mov	edx, ecx
	xor	dl, al
	mov	edx, 394146300
	cmovne	edx, r15d
	test	al, al
	mov	eax, edx
	cmovne	eax, r15d
	test	cl, cl
	cmove	eax, edx
	.p2align	4, 0x90
.LBB34_1:                               
	cmp	eax, 394146299
	jg	.LBB34_5

	cmp	eax, -1903287965
	je	.LBB34_8

	cmp	eax, -1467813802
	jne	.LBB34_1

	mov	rdi, rbp
	call	_ZN8CryptoPP12ClonableImplINS_16BlockCipherFinalILNS_9CipherDirE0ENS_3DES4BaseEEES4_EC2Ev
	mov	qword ptr [rbp], _ZTVN8CryptoPP16BlockCipherFinalILNS_9CipherDirE0ENS_3DES4BaseEEE+16
	mov	qword ptr [rbp + 8], _ZTVN8CryptoPP16BlockCipherFinalILNS_9CipherDirE0ENS_3DES4BaseEEE+200
	mov	eax, dword ptr [rip + x.75]
	mov	ecx, dword ptr [rip + y.76]
	lea	edx, [rax - 1]
	imul	edx, eax
	not	edx
	or	edx, -2
	cmp	edx, -1
	sete	al
	cmp	ecx, 10
	setl	bl
	xor	bl, al
	mov	esi, 394146300
	cmovne	esi, r14d
	cmp	edx, -1
	mov	eax, esi
	cmove	eax, r14d
	cmp	ecx, 10
	cmovge	eax, esi
	jmp	.LBB34_1
	.p2align	4, 0x90
.LBB34_5:                               
	cmp	eax, 394146300
	je	.LBB34_9

	cmp	eax, 1496992283
	jne	.LBB34_1
	jmp	.LBB34_7
.LBB34_9:                               
	mov	rdi, rbp
	call	_ZN8CryptoPP12ClonableImplINS_16BlockCipherFinalILNS_9CipherDirE0ENS_3DES4BaseEEES4_EC2Ev
	mov	qword ptr [rbp], _ZTVN8CryptoPP16BlockCipherFinalILNS_9CipherDirE0ENS_3DES4BaseEEE+16
	mov	qword ptr [rbp + 8], _ZTVN8CryptoPP16BlockCipherFinalILNS_9CipherDirE0ENS_3DES4BaseEEE+200
	mov	eax, -1467813802
	jmp	.LBB34_1
.LBB34_8:
	add	rsp, 8
	pop	rbx
	pop	r14
	pop	r15
	pop	rbp
	ret
.Lfunc_end34:
	.size	_ZN8CryptoPP16BlockCipherFinalILNS_9CipherDirE0ENS_3DES4BaseEEC2Ev, .Lfunc_end34-_ZN8CryptoPP16BlockCipherFinalILNS_9CipherDirE0ENS_3DES4BaseEEC2Ev
	.cfi_endproc

	.section	.text._ZN8CryptoPP8SecBlockIhNS_29FixedSizeAllocatorWithCleanupIhLm8ENS_13NullAllocatorIhEELb0EEEEcvPvEv,"axG",@progbits,_ZN8CryptoPP8SecBlockIhNS_29FixedSizeAllocatorWithCleanupIhLm8ENS_13NullAllocatorIhEELb0EEEEcvPvEv,comdat
	.weak	_ZN8CryptoPP8SecBlockIhNS_29FixedSizeAllocatorWithCleanupIhLm8ENS_13NullAllocatorIhEELb0EEEEcvPvEv 
	.p2align	4, 0x90
	.type	_ZN8CryptoPP8SecBlockIhNS_29FixedSizeAllocatorWithCleanupIhLm8ENS_13NullAllocatorIhEELb0EEEEcvPvEv,@function
_ZN8CryptoPP8SecBlockIhNS_29FixedSizeAllocatorWithCleanupIhLm8ENS_13NullAllocatorIhEELb0EEEEcvPvEv: 

	mov	rax, qword ptr [rdi + 32]
	ret
.Lfunc_end35:
	.size	_ZN8CryptoPP8SecBlockIhNS_29FixedSizeAllocatorWithCleanupIhLm8ENS_13NullAllocatorIhEELb0EEEEcvPvEv, .Lfunc_end35-_ZN8CryptoPP8SecBlockIhNS_29FixedSizeAllocatorWithCleanupIhLm8ENS_13NullAllocatorIhEELb0EEEEcvPvEv

	.section	.text._ZN8CryptoPP10member_ptrINS_16BlockCipherFinalILNS_9CipherDirE0ENS_3DES4BaseEEEEptEv,"axG",@progbits,_ZN8CryptoPP10member_ptrINS_16BlockCipherFinalILNS_9CipherDirE0ENS_3DES4BaseEEEEptEv,comdat
	.weak	_ZN8CryptoPP10member_ptrINS_16BlockCipherFinalILNS_9CipherDirE0ENS_3DES4BaseEEEEptEv 
	.p2align	4, 0x90
	.type	_ZN8CryptoPP10member_ptrINS_16BlockCipherFinalILNS_9CipherDirE0ENS_3DES4BaseEEEEptEv,@function
_ZN8CryptoPP10member_ptrINS_16BlockCipherFinalILNS_9CipherDirE0ENS_3DES4BaseEEEEptEv: 

	mov	rax, qword ptr [rdi]
	ret
.Lfunc_end36:
	.size	_ZN8CryptoPP10member_ptrINS_16BlockCipherFinalILNS_9CipherDirE0ENS_3DES4BaseEEEEptEv, .Lfunc_end36-_ZN8CryptoPP10member_ptrINS_16BlockCipherFinalILNS_9CipherDirE0ENS_3DES4BaseEEEEptEv

	.text
	.globl	_ZNK8CryptoPP8DES_XEX34Base18ProcessAndXorBlockEPKhS3_Ph 
	.p2align	4, 0x90
	.type	_ZNK8CryptoPP8DES_XEX34Base18ProcessAndXorBlockEPKhS3_Ph,@function
_ZNK8CryptoPP8DES_XEX34Base18ProcessAndXorBlockEPKhS3_Ph: 
	.cfi_startproc

	push	r15
.Lcfi159:
	.cfi_def_cfa_offset 16
	push	r14
.Lcfi160:
	.cfi_def_cfa_offset 24
	push	r12
.Lcfi161:
	.cfi_def_cfa_offset 32
	push	rbx
.Lcfi162:
	.cfi_def_cfa_offset 40
	push	rax
.Lcfi163:
	.cfi_def_cfa_offset 48
.Lcfi164:
	.cfi_offset rbx, -40
.Lcfi165:
	.cfi_offset r12, -32
.Lcfi166:
	.cfi_offset r14, -24
.Lcfi167:
	.cfi_offset r15, -16
	mov	r12, rcx
	mov	r14, rdx
	mov	r15, rsi
	mov	rbx, rdi
	lea	rdi, [rbx + 16]
	call	_ZNK8CryptoPP8SecBlockIhNS_29FixedSizeAllocatorWithCleanupIhLm8ENS_13NullAllocatorIhEELb0EEEEcvPKhEv
	mov	ecx, 8
	mov	rdi, r12
	mov	rsi, r15
	mov	rdx, rax
	call	_ZN8CryptoPP6xorbufEPhPKhS2_m
	lea	rdi, [rbx + 96]
	call	_ZNK8CryptoPP10member_ptrINS_16BlockCipherFinalILNS_9CipherDirE0ENS_3DES4BaseEEEEptEv
	mov	r8, qword ptr [rax]
	mov	rdi, rax
	mov	rsi, r12
	mov	rdx, r14
	mov	rcx, r12
	call	qword ptr [r8 + 144]
	add	rbx, 56
	mov	rdi, rbx
	call	_ZNK8CryptoPP8SecBlockIhNS_29FixedSizeAllocatorWithCleanupIhLm8ENS_13NullAllocatorIhEELb0EEEEcvPKhEv
	mov	edx, 8
	mov	rdi, r12
	mov	rsi, rax
	add	rsp, 8
	pop	rbx
	pop	r12
	pop	r14
	pop	r15
	jmp	_ZN8CryptoPP6xorbufEPhPKhm 
.Lfunc_end37:
	.size	_ZNK8CryptoPP8DES_XEX34Base18ProcessAndXorBlockEPKhS3_Ph, .Lfunc_end37-_ZNK8CryptoPP8DES_XEX34Base18ProcessAndXorBlockEPKhS3_Ph
	.cfi_endproc

	.section	.text._ZNK8CryptoPP8SecBlockIhNS_29FixedSizeAllocatorWithCleanupIhLm8ENS_13NullAllocatorIhEELb0EEEEcvPKhEv,"axG",@progbits,_ZNK8CryptoPP8SecBlockIhNS_29FixedSizeAllocatorWithCleanupIhLm8ENS_13NullAllocatorIhEELb0EEEEcvPKhEv,comdat
	.weak	_ZNK8CryptoPP8SecBlockIhNS_29FixedSizeAllocatorWithCleanupIhLm8ENS_13NullAllocatorIhEELb0EEEEcvPKhEv 
	.p2align	4, 0x90
	.type	_ZNK8CryptoPP8SecBlockIhNS_29FixedSizeAllocatorWithCleanupIhLm8ENS_13NullAllocatorIhEELb0EEEEcvPKhEv,@function
_ZNK8CryptoPP8SecBlockIhNS_29FixedSizeAllocatorWithCleanupIhLm8ENS_13NullAllocatorIhEELb0EEEEcvPKhEv: 

	mov	rax, qword ptr [rdi + 32]
	ret
.Lfunc_end38:
	.size	_ZNK8CryptoPP8SecBlockIhNS_29FixedSizeAllocatorWithCleanupIhLm8ENS_13NullAllocatorIhEELb0EEEEcvPKhEv, .Lfunc_end38-_ZNK8CryptoPP8SecBlockIhNS_29FixedSizeAllocatorWithCleanupIhLm8ENS_13NullAllocatorIhEELb0EEEEcvPKhEv

	.section	.text._ZNK8CryptoPP10member_ptrINS_16BlockCipherFinalILNS_9CipherDirE0ENS_3DES4BaseEEEEptEv,"axG",@progbits,_ZNK8CryptoPP10member_ptrINS_16BlockCipherFinalILNS_9CipherDirE0ENS_3DES4BaseEEEEptEv,comdat
	.weak	_ZNK8CryptoPP10member_ptrINS_16BlockCipherFinalILNS_9CipherDirE0ENS_3DES4BaseEEEEptEv 
	.p2align	4, 0x90
	.type	_ZNK8CryptoPP10member_ptrINS_16BlockCipherFinalILNS_9CipherDirE0ENS_3DES4BaseEEEEptEv,@function
_ZNK8CryptoPP10member_ptrINS_16BlockCipherFinalILNS_9CipherDirE0ENS_3DES4BaseEEEEptEv: 

	mov	eax, dword ptr [rip + x.85]
	mov	ecx, dword ptr [rip + y.86]
	lea	edx, [rax - 1]
	imul	edx, eax
	not	edx
	or	edx, -2
	cmp	edx, -1
	sete	dl
	sete	byte ptr [rsp - 10]
	mov	esi, 206081306
	mov	r8d, 1173424991
	mov	eax, 1173424991
	cmove	eax, esi
	cmp	ecx, 10
	setl	cl
	setl	byte ptr [rsp - 9]
	cmovge	eax, r8d
	xor	cl, dl
	cmovne	eax, esi
	mov	edx, -28696573
	mov	esi, 524709161
	jmp	.LBB39_1
.LBB39_8:                               
	movzx	r8d, byte ptr [rsp - 10]
	movzx	edx, byte ptr [rsp - 9]
	mov	ecx, r8d
	xor	cl, dl
	mov	ecx, 1173424991
	cmovne	ecx, esi
	test	dl, dl
	mov	edx, ecx
	cmovne	edx, esi
	test	r8b, r8b
	cmove	edx, ecx
	.p2align	4, 0x90
.LBB39_1:                               
	cmp	edx, 524709160
	jg	.LBB39_5

	cmp	edx, -28696573
	je	.LBB39_8

	cmp	edx, 206081306
	jne	.LBB39_1
	jmp	.LBB39_4
	.p2align	4, 0x90
.LBB39_5:                               
	cmp	edx, 524709161
	je	.LBB39_9

	cmp	edx, 1173424991
	jne	.LBB39_1

	mov	edx, 524709161
	jmp	.LBB39_1
.LBB39_9:                               
	mov	rcx, qword ptr [rdi]
	mov	qword ptr [rsp - 8], rcx
	mov	edx, eax
	jmp	.LBB39_1
.LBB39_4:
	mov	rax, qword ptr [rsp - 8]
	ret
.Lfunc_end39:
	.size	_ZNK8CryptoPP10member_ptrINS_16BlockCipherFinalILNS_9CipherDirE0ENS_3DES4BaseEEEEptEv, .Lfunc_end39-_ZNK8CryptoPP10member_ptrINS_16BlockCipherFinalILNS_9CipherDirE0ENS_3DES4BaseEEEEptEv

	.text
	.globl	_ZThn8_NK8CryptoPP8DES_XEX34Base18ProcessAndXorBlockEPKhS3_Ph 
	.p2align	4, 0x90
	.type	_ZThn8_NK8CryptoPP8DES_XEX34Base18ProcessAndXorBlockEPKhS3_Ph,@function
_ZThn8_NK8CryptoPP8DES_XEX34Base18ProcessAndXorBlockEPKhS3_Ph: 
	.cfi_startproc

	add	rdi, -8
	jmp	_ZNK8CryptoPP8DES_XEX34Base18ProcessAndXorBlockEPKhS3_Ph 
.Lfunc_end40:
	.size	_ZThn8_NK8CryptoPP8DES_XEX34Base18ProcessAndXorBlockEPKhS3_Ph, .Lfunc_end40-_ZThn8_NK8CryptoPP8DES_XEX34Base18ProcessAndXorBlockEPKhS3_Ph
	.cfi_endproc

	.section	.text._ZN8CryptoPP3DES4BaseD0Ev,"axG",@progbits,_ZN8CryptoPP3DES4BaseD0Ev,comdat
	.weak	_ZN8CryptoPP3DES4BaseD0Ev 
	.p2align	4, 0x90
	.type	_ZN8CryptoPP3DES4BaseD0Ev,@function
_ZN8CryptoPP3DES4BaseD0Ev:              

	ud2
.Lfunc_end41:
	.size	_ZN8CryptoPP3DES4BaseD0Ev, .Lfunc_end41-_ZN8CryptoPP3DES4BaseD0Ev

	.section	.text._ZNK8CryptoPP25SimpleKeyingInterfaceImplINS_8TwoBasesINS_11BlockCipherENS_8DES_InfoEEES4_E12MinKeyLengthEv,"axG",@progbits,_ZNK8CryptoPP25SimpleKeyingInterfaceImplINS_8TwoBasesINS_11BlockCipherENS_8DES_InfoEEES4_E12MinKeyLengthEv,comdat
	.weak	_ZNK8CryptoPP25SimpleKeyingInterfaceImplINS_8TwoBasesINS_11BlockCipherENS_8DES_InfoEEES4_E12MinKeyLengthEv 
	.p2align	4, 0x90
	.type	_ZNK8CryptoPP25SimpleKeyingInterfaceImplINS_8TwoBasesINS_11BlockCipherENS_8DES_InfoEEES4_E12MinKeyLengthEv,@function
_ZNK8CryptoPP25SimpleKeyingInterfaceImplINS_8TwoBasesINS_11BlockCipherENS_8DES_InfoEEES4_E12MinKeyLengthEv: 

	mov	eax, 8
	ret
.Lfunc_end42:
	.size	_ZNK8CryptoPP25SimpleKeyingInterfaceImplINS_8TwoBasesINS_11BlockCipherENS_8DES_InfoEEES4_E12MinKeyLengthEv, .Lfunc_end42-_ZNK8CryptoPP25SimpleKeyingInterfaceImplINS_8TwoBasesINS_11BlockCipherENS_8DES_InfoEEES4_E12MinKeyLengthEv

	.section	.text._ZNK8CryptoPP25SimpleKeyingInterfaceImplINS_8TwoBasesINS_11BlockCipherENS_8DES_InfoEEES4_E12MaxKeyLengthEv,"axG",@progbits,_ZNK8CryptoPP25SimpleKeyingInterfaceImplINS_8TwoBasesINS_11BlockCipherENS_8DES_InfoEEES4_E12MaxKeyLengthEv,comdat
	.weak	_ZNK8CryptoPP25SimpleKeyingInterfaceImplINS_8TwoBasesINS_11BlockCipherENS_8DES_InfoEEES4_E12MaxKeyLengthEv 
	.p2align	4, 0x90
	.type	_ZNK8CryptoPP25SimpleKeyingInterfaceImplINS_8TwoBasesINS_11BlockCipherENS_8DES_InfoEEES4_E12MaxKeyLengthEv,@function
_ZNK8CryptoPP25SimpleKeyingInterfaceImplINS_8TwoBasesINS_11BlockCipherENS_8DES_InfoEEES4_E12MaxKeyLengthEv: 

	mov	eax, 8
	ret
.Lfunc_end43:
	.size	_ZNK8CryptoPP25SimpleKeyingInterfaceImplINS_8TwoBasesINS_11BlockCipherENS_8DES_InfoEEES4_E12MaxKeyLengthEv, .Lfunc_end43-_ZNK8CryptoPP25SimpleKeyingInterfaceImplINS_8TwoBasesINS_11BlockCipherENS_8DES_InfoEEES4_E12MaxKeyLengthEv

	.section	.text._ZNK8CryptoPP25SimpleKeyingInterfaceImplINS_8TwoBasesINS_11BlockCipherENS_8DES_InfoEEES4_E16DefaultKeyLengthEv,"axG",@progbits,_ZNK8CryptoPP25SimpleKeyingInterfaceImplINS_8TwoBasesINS_11BlockCipherENS_8DES_InfoEEES4_E16DefaultKeyLengthEv,comdat
	.weak	_ZNK8CryptoPP25SimpleKeyingInterfaceImplINS_8TwoBasesINS_11BlockCipherENS_8DES_InfoEEES4_E16DefaultKeyLengthEv 
	.p2align	4, 0x90
	.type	_ZNK8CryptoPP25SimpleKeyingInterfaceImplINS_8TwoBasesINS_11BlockCipherENS_8DES_InfoEEES4_E16DefaultKeyLengthEv,@function
_ZNK8CryptoPP25SimpleKeyingInterfaceImplINS_8TwoBasesINS_11BlockCipherENS_8DES_InfoEEES4_E16DefaultKeyLengthEv: 

	mov	eax, 8
	ret
.Lfunc_end44:
	.size	_ZNK8CryptoPP25SimpleKeyingInterfaceImplINS_8TwoBasesINS_11BlockCipherENS_8DES_InfoEEES4_E16DefaultKeyLengthEv, .Lfunc_end44-_ZNK8CryptoPP25SimpleKeyingInterfaceImplINS_8TwoBasesINS_11BlockCipherENS_8DES_InfoEEES4_E16DefaultKeyLengthEv

	.section	.text._ZNK8CryptoPP25SimpleKeyingInterfaceImplINS_8TwoBasesINS_11BlockCipherENS_8DES_InfoEEES4_E17GetValidKeyLengthEm,"axG",@progbits,_ZNK8CryptoPP25SimpleKeyingInterfaceImplINS_8TwoBasesINS_11BlockCipherENS_8DES_InfoEEES4_E17GetValidKeyLengthEm,comdat
	.weak	_ZNK8CryptoPP25SimpleKeyingInterfaceImplINS_8TwoBasesINS_11BlockCipherENS_8DES_InfoEEES4_E17GetValidKeyLengthEm 
	.p2align	4, 0x90
	.type	_ZNK8CryptoPP25SimpleKeyingInterfaceImplINS_8TwoBasesINS_11BlockCipherENS_8DES_InfoEEES4_E17GetValidKeyLengthEm,@function
_ZNK8CryptoPP25SimpleKeyingInterfaceImplINS_8TwoBasesINS_11BlockCipherENS_8DES_InfoEEES4_E17GetValidKeyLengthEm: 
	.cfi_startproc

	mov	rdi, rsi
	jmp	_ZN8CryptoPP14FixedKeyLengthILj8ELj4ELj0EE23StaticGetValidKeyLengthEm 
.Lfunc_end45:
	.size	_ZNK8CryptoPP25SimpleKeyingInterfaceImplINS_8TwoBasesINS_11BlockCipherENS_8DES_InfoEEES4_E17GetValidKeyLengthEm, .Lfunc_end45-_ZNK8CryptoPP25SimpleKeyingInterfaceImplINS_8TwoBasesINS_11BlockCipherENS_8DES_InfoEEES4_E17GetValidKeyLengthEm
	.cfi_endproc

	.section	.text._ZNK8CryptoPP21SimpleKeyingInterface16IsValidKeyLengthEm,"axG",@progbits,_ZNK8CryptoPP21SimpleKeyingInterface16IsValidKeyLengthEm,comdat
	.weak	_ZNK8CryptoPP21SimpleKeyingInterface16IsValidKeyLengthEm 
	.p2align	4, 0x90
	.type	_ZNK8CryptoPP21SimpleKeyingInterface16IsValidKeyLengthEm,@function
_ZNK8CryptoPP21SimpleKeyingInterface16IsValidKeyLengthEm: 
	.cfi_startproc

	push	rbx
.Lcfi168:
	.cfi_def_cfa_offset 16
.Lcfi169:
	.cfi_offset rbx, -16
	mov	rbx, rsi
	mov	rax, qword ptr [rdi]
	call	qword ptr [rax + 40]
	cmp	rax, rbx
	sete	al
	pop	rbx
	ret
.Lfunc_end46:
	.size	_ZNK8CryptoPP21SimpleKeyingInterface16IsValidKeyLengthEm, .Lfunc_end46-_ZNK8CryptoPP21SimpleKeyingInterface16IsValidKeyLengthEm
	.cfi_endproc

	.section	.text._ZNK8CryptoPP25SimpleKeyingInterfaceImplINS_8TwoBasesINS_11BlockCipherENS_8DES_InfoEEES4_E13IVRequirementEv,"axG",@progbits,_ZNK8CryptoPP25SimpleKeyingInterfaceImplINS_8TwoBasesINS_11BlockCipherENS_8DES_InfoEEES4_E13IVRequirementEv,comdat
	.weak	_ZNK8CryptoPP25SimpleKeyingInterfaceImplINS_8TwoBasesINS_11BlockCipherENS_8DES_InfoEEES4_E13IVRequirementEv 
	.p2align	4, 0x90
	.type	_ZNK8CryptoPP25SimpleKeyingInterfaceImplINS_8TwoBasesINS_11BlockCipherENS_8DES_InfoEEES4_E13IVRequirementEv,@function
_ZNK8CryptoPP25SimpleKeyingInterfaceImplINS_8TwoBasesINS_11BlockCipherENS_8DES_InfoEEES4_E13IVRequirementEv: 

	mov	eax, 4
	ret
.Lfunc_end47:
	.size	_ZNK8CryptoPP25SimpleKeyingInterfaceImplINS_8TwoBasesINS_11BlockCipherENS_8DES_InfoEEES4_E13IVRequirementEv, .Lfunc_end47-_ZNK8CryptoPP25SimpleKeyingInterfaceImplINS_8TwoBasesINS_11BlockCipherENS_8DES_InfoEEES4_E13IVRequirementEv

	.section	.text._ZNK8CryptoPP25SimpleKeyingInterfaceImplINS_8TwoBasesINS_11BlockCipherENS_8DES_InfoEEES4_E6IVSizeEv,"axG",@progbits,_ZNK8CryptoPP25SimpleKeyingInterfaceImplINS_8TwoBasesINS_11BlockCipherENS_8DES_InfoEEES4_E6IVSizeEv,comdat
	.weak	_ZNK8CryptoPP25SimpleKeyingInterfaceImplINS_8TwoBasesINS_11BlockCipherENS_8DES_InfoEEES4_E6IVSizeEv 
	.p2align	4, 0x90
	.type	_ZNK8CryptoPP25SimpleKeyingInterfaceImplINS_8TwoBasesINS_11BlockCipherENS_8DES_InfoEEES4_E6IVSizeEv,@function
_ZNK8CryptoPP25SimpleKeyingInterfaceImplINS_8TwoBasesINS_11BlockCipherENS_8DES_InfoEEES4_E6IVSizeEv: 

	xor	eax, eax
	ret
.Lfunc_end48:
	.size	_ZNK8CryptoPP25SimpleKeyingInterfaceImplINS_8TwoBasesINS_11BlockCipherENS_8DES_InfoEEES4_E6IVSizeEv, .Lfunc_end48-_ZNK8CryptoPP25SimpleKeyingInterfaceImplINS_8TwoBasesINS_11BlockCipherENS_8DES_InfoEEES4_E6IVSizeEv

	.section	.text._ZNK8CryptoPP21SimpleKeyingInterface11MinIVLengthEv,"axG",@progbits,_ZNK8CryptoPP21SimpleKeyingInterface11MinIVLengthEv,comdat
	.weak	_ZNK8CryptoPP21SimpleKeyingInterface11MinIVLengthEv 
	.p2align	4, 0x90
	.type	_ZNK8CryptoPP21SimpleKeyingInterface11MinIVLengthEv,@function
_ZNK8CryptoPP21SimpleKeyingInterface11MinIVLengthEv: 
	.cfi_startproc

	mov	rax, qword ptr [rdi]
	jmp	qword ptr [rax + 72]    
.Lfunc_end49:
	.size	_ZNK8CryptoPP21SimpleKeyingInterface11MinIVLengthEv, .Lfunc_end49-_ZNK8CryptoPP21SimpleKeyingInterface11MinIVLengthEv
	.cfi_endproc

	.section	.text._ZNK8CryptoPP21SimpleKeyingInterface11MaxIVLengthEv,"axG",@progbits,_ZNK8CryptoPP21SimpleKeyingInterface11MaxIVLengthEv,comdat
	.weak	_ZNK8CryptoPP21SimpleKeyingInterface11MaxIVLengthEv 
	.p2align	4, 0x90
	.type	_ZNK8CryptoPP21SimpleKeyingInterface11MaxIVLengthEv,@function
_ZNK8CryptoPP21SimpleKeyingInterface11MaxIVLengthEv: 
	.cfi_startproc

	mov	rax, qword ptr [rdi]
	jmp	qword ptr [rax + 72]    
.Lfunc_end50:
	.size	_ZNK8CryptoPP21SimpleKeyingInterface11MaxIVLengthEv, .Lfunc_end50-_ZNK8CryptoPP21SimpleKeyingInterface11MaxIVLengthEv
	.cfi_endproc

	.section	.text._ZN8CryptoPP21SimpleKeyingInterface13ResynchronizeEPKhi,"axG",@progbits,_ZN8CryptoPP21SimpleKeyingInterface13ResynchronizeEPKhi,comdat
	.weak	_ZN8CryptoPP21SimpleKeyingInterface13ResynchronizeEPKhi 
	.p2align	4, 0x90
	.type	_ZN8CryptoPP21SimpleKeyingInterface13ResynchronizeEPKhi,@function
_ZN8CryptoPP21SimpleKeyingInterface13ResynchronizeEPKhi: 
.Lfunc_begin1:
	.cfi_startproc
	.cfi_personality 3, __gxx_personality_v0
	.cfi_lsda 3, .Lexception1

	push	r15
.Lcfi170:
	.cfi_def_cfa_offset 16
	push	r14
.Lcfi171:
	.cfi_def_cfa_offset 24
	push	rbx
.Lcfi172:
	.cfi_def_cfa_offset 32
	sub	rsp, 64
.Lcfi173:
	.cfi_def_cfa_offset 96
.Lcfi174:
	.cfi_offset rbx, -32
.Lcfi175:
	.cfi_offset r14, -24
.Lcfi176:
	.cfi_offset r15, -16
	mov	rbx, rdi
	mov	edi, 48
	call	__cxa_allocate_exception
	mov	r15, rax
	mov	rax, qword ptr [rbx]
.Ltmp3:
	mov	rdi, rbx
	call	qword ptr [rax + 112]
.Ltmp4:

	mov	rcx, qword ptr [rax]
.Ltmp5:
	mov	rdi, rsp
	mov	rsi, rax
	call	qword ptr [rcx + 24]
.Ltmp6:

.Ltmp8:
	lea	rdi, [rsp + 32]
	mov	rsi, rsp
	mov	edx, .L.str
	call	_ZStplIcSt11char_traitsIcESaIcEENSt7__cxx1112basic_stringIT_T0_T1_EERKS8_PKS5_
.Ltmp9:

	mov	bl, 1
.Ltmp11:
	lea	rsi, [rsp + 32]
	mov	rdi, r15
	call	_ZN8CryptoPP14NotImplementedC2ERKNSt7__cxx1112basic_stringIcSt11char_traitsIcESaIcEEE
.Ltmp12:

	xor	ebx, ebx
.Ltmp13:
	mov	esi, _ZTIN8CryptoPP14NotImplementedE
	mov	edx, _ZN8CryptoPP9ExceptionD2Ev
	mov	rdi, r15
	call	__cxa_throw
.Ltmp14:

.LBB51_6:
.Ltmp10:
	mov	r14, rax
	mov	bl, 1
	jmp	.LBB51_8
.LBB51_7:
.Ltmp15:
	mov	r14, rax
.Ltmp16:
	lea	rdi, [rsp + 32]
	call	_ZNSt7__cxx1112basic_stringIcSt11char_traitsIcESaIcEED2Ev
.Ltmp17:
.LBB51_8:
.Ltmp18:
	mov	rdi, rsp
	call	_ZNSt7__cxx1112basic_stringIcSt11char_traitsIcESaIcEED2Ev
.Ltmp19:

	test	bl, bl
	jne	.LBB51_10
	jmp	.LBB51_11
.LBB51_12:
.Ltmp20:
	mov	rdi, rax
	call	__clang_call_terminate
.LBB51_5:
.Ltmp7:
	mov	r14, rax
.LBB51_10:
	mov	rdi, r15
	call	__cxa_free_exception
.LBB51_11:
	mov	rdi, r14
	call	_Unwind_Resume
.Lfunc_end51:
	.size	_ZN8CryptoPP21SimpleKeyingInterface13ResynchronizeEPKhi, .Lfunc_end51-_ZN8CryptoPP21SimpleKeyingInterface13ResynchronizeEPKhi
	.cfi_endproc
	.section	.gcc_except_table,"a",@progbits
	.p2align	2
GCC_except_table51:
.Lexception1:
	.byte	255                     
	.byte	3                       
	.asciz	"\326\200\200"          
	.byte	3                       
	.byte	78                      
	.long	.Lfunc_begin1-.Lfunc_begin1 
	.long	.Ltmp3-.Lfunc_begin1    
	.long	0                       
	.byte	0                       
	.long	.Ltmp3-.Lfunc_begin1    
	.long	.Ltmp6-.Ltmp3           
	.long	.Ltmp7-.Lfunc_begin1    
	.byte	0                       
	.long	.Ltmp8-.Lfunc_begin1    
	.long	.Ltmp9-.Ltmp8           
	.long	.Ltmp10-.Lfunc_begin1   
	.byte	0                       
	.long	.Ltmp11-.Lfunc_begin1   
	.long	.Ltmp14-.Ltmp11         
	.long	.Ltmp15-.Lfunc_begin1   
	.byte	0                       
	.long	.Ltmp16-.Lfunc_begin1   
	.long	.Ltmp19-.Ltmp16         
	.long	.Ltmp20-.Lfunc_begin1   
	.byte	1                       
	.long	.Ltmp19-.Lfunc_begin1   
	.long	.Lfunc_end51-.Ltmp19    
	.long	0                       
	.byte	0                       
	.byte	1                       

	.byte	0                       

	.long	0                       
	.p2align	2

	.section	.text._ZNK8CryptoPP11BlockCipher12GetAlgorithmEv,"axG",@progbits,_ZNK8CryptoPP11BlockCipher12GetAlgorithmEv,comdat
	.weak	_ZNK8CryptoPP11BlockCipher12GetAlgorithmEv 
	.p2align	4, 0x90
	.type	_ZNK8CryptoPP11BlockCipher12GetAlgorithmEv,@function
_ZNK8CryptoPP11BlockCipher12GetAlgorithmEv: 

	lea	rax, [rdi + 8]
	ret
.Lfunc_end52:
	.size	_ZNK8CryptoPP11BlockCipher12GetAlgorithmEv, .Lfunc_end52-_ZNK8CryptoPP11BlockCipher12GetAlgorithmEv

	.section	.text._ZNK8CryptoPP13AlgorithmImplINS_25SimpleKeyingInterfaceImplINS_8TwoBasesINS_11BlockCipherENS_8DES_InfoEEES5_EES6_E13AlgorithmNameB5cxx11Ev,"axG",@progbits,_ZNK8CryptoPP13AlgorithmImplINS_25SimpleKeyingInterfaceImplINS_8TwoBasesINS_11BlockCipherENS_8DES_InfoEEES5_EES6_E13AlgorithmNameB5cxx11Ev,comdat
	.weak	_ZNK8CryptoPP13AlgorithmImplINS_25SimpleKeyingInterfaceImplINS_8TwoBasesINS_11BlockCipherENS_8DES_InfoEEES5_EES6_E13AlgorithmNameB5cxx11Ev 
	.p2align	4, 0x90
	.type	_ZNK8CryptoPP13AlgorithmImplINS_25SimpleKeyingInterfaceImplINS_8TwoBasesINS_11BlockCipherENS_8DES_InfoEEES5_EES6_E13AlgorithmNameB5cxx11Ev,@function
_ZNK8CryptoPP13AlgorithmImplINS_25SimpleKeyingInterfaceImplINS_8TwoBasesINS_11BlockCipherENS_8DES_InfoEEES5_EES6_E13AlgorithmNameB5cxx11Ev: 
.Lfunc_begin2:
	.cfi_startproc
	.cfi_personality 3, __gxx_personality_v0
	.cfi_lsda 3, .Lexception2

	push	r15
.Lcfi177:
	.cfi_def_cfa_offset 16
	push	r14
.Lcfi178:
	.cfi_def_cfa_offset 24
	push	rbx
.Lcfi179:
	.cfi_def_cfa_offset 32
	sub	rsp, 16
.Lcfi180:
	.cfi_def_cfa_offset 48
.Lcfi181:
	.cfi_offset rbx, -32
.Lcfi182:
	.cfi_offset r14, -24
.Lcfi183:
	.cfi_offset r15, -16
	mov	r14, rdi
	call	_ZN8CryptoPP8DES_Info19StaticAlgorithmNameEv
	mov	rbx, rax
	lea	r15, [rsp + 8]
	mov	rdi, r15
	call	_ZNSaIcEC2Ev
.Ltmp21:
	mov	rdi, r14
	mov	rsi, rbx
	mov	rdx, r15
	call	_ZNSt7__cxx1112basic_stringIcSt11char_traitsIcESaIcEEC2EPKcRKS3_
.Ltmp22:

	lea	rdi, [rsp + 8]
	call	_ZNSaIcED2Ev
	mov	rax, r14
	add	rsp, 16
	pop	rbx
	pop	r14
	pop	r15
	ret
.LBB53_2:
.Ltmp23:
	mov	rbx, rax
	lea	rdi, [rsp + 8]
	call	_ZNSaIcED2Ev
	mov	rdi, rbx
	call	_Unwind_Resume
.Lfunc_end53:
	.size	_ZNK8CryptoPP13AlgorithmImplINS_25SimpleKeyingInterfaceImplINS_8TwoBasesINS_11BlockCipherENS_8DES_InfoEEES5_EES6_E13AlgorithmNameB5cxx11Ev, .Lfunc_end53-_ZNK8CryptoPP13AlgorithmImplINS_25SimpleKeyingInterfaceImplINS_8TwoBasesINS_11BlockCipherENS_8DES_InfoEEES5_EES6_E13AlgorithmNameB5cxx11Ev
	.cfi_endproc
	.section	.gcc_except_table,"a",@progbits
	.p2align	2
GCC_except_table53:
.Lexception2:
	.byte	255                     
	.byte	3                       
	.asciz	"\234"                  
	.byte	3                       
	.byte	26                      
	.long	.Ltmp21-.Lfunc_begin2   
	.long	.Ltmp22-.Ltmp21         
	.long	.Ltmp23-.Lfunc_begin2   
	.byte	0                       
	.long	.Ltmp22-.Lfunc_begin2   
	.long	.Lfunc_end53-.Ltmp22    
	.long	0                       
	.byte	0                       
	.p2align	2

	.section	.text._ZNK8CryptoPP15BlockCipherImplINS_8DES_InfoENS_11BlockCipherEE9BlockSizeEv,"axG",@progbits,_ZNK8CryptoPP15BlockCipherImplINS_8DES_InfoENS_11BlockCipherEE9BlockSizeEv,comdat
	.weak	_ZNK8CryptoPP15BlockCipherImplINS_8DES_InfoENS_11BlockCipherEE9BlockSizeEv 
	.p2align	4, 0x90
	.type	_ZNK8CryptoPP15BlockCipherImplINS_8DES_InfoENS_11BlockCipherEE9BlockSizeEv,@function
_ZNK8CryptoPP15BlockCipherImplINS_8DES_InfoENS_11BlockCipherEE9BlockSizeEv: 

	mov	eax, 8
	ret
.Lfunc_end54:
	.size	_ZNK8CryptoPP15BlockCipherImplINS_8DES_InfoENS_11BlockCipherEE9BlockSizeEv, .Lfunc_end54-_ZNK8CryptoPP15BlockCipherImplINS_8DES_InfoENS_11BlockCipherEE9BlockSizeEv

	.section	.text._ZThn8_N8CryptoPP3DES4BaseD1Ev,"axG",@progbits,_ZThn8_N8CryptoPP3DES4BaseD1Ev,comdat
	.weak	_ZThn8_N8CryptoPP3DES4BaseD1Ev 
	.p2align	4, 0x90
	.type	_ZThn8_N8CryptoPP3DES4BaseD1Ev,@function
_ZThn8_N8CryptoPP3DES4BaseD1Ev:         
	.cfi_startproc

	add	rdi, -8
	jmp	_ZN8CryptoPP3DES4BaseD2Ev 
.Lfunc_end55:
	.size	_ZThn8_N8CryptoPP3DES4BaseD1Ev, .Lfunc_end55-_ZThn8_N8CryptoPP3DES4BaseD1Ev
	.cfi_endproc

	.section	.text._ZThn8_N8CryptoPP3DES4BaseD0Ev,"axG",@progbits,_ZThn8_N8CryptoPP3DES4BaseD0Ev,comdat
	.weak	_ZThn8_N8CryptoPP3DES4BaseD0Ev 
	.p2align	4, 0x90
	.type	_ZThn8_N8CryptoPP3DES4BaseD0Ev,@function
_ZThn8_N8CryptoPP3DES4BaseD0Ev:         
	.cfi_startproc

	add	rdi, -8
	jmp	_ZN8CryptoPP3DES4BaseD0Ev 
.Lfunc_end56:
	.size	_ZThn8_N8CryptoPP3DES4BaseD0Ev, .Lfunc_end56-_ZThn8_N8CryptoPP3DES4BaseD0Ev
	.cfi_endproc

	.section	.text._ZNK8CryptoPP8Clonable5CloneEv,"axG",@progbits,_ZNK8CryptoPP8Clonable5CloneEv,comdat
	.weak	_ZNK8CryptoPP8Clonable5CloneEv 
	.p2align	4, 0x90
	.type	_ZNK8CryptoPP8Clonable5CloneEv,@function
_ZNK8CryptoPP8Clonable5CloneEv:         
.Lfunc_begin3:
	.cfi_startproc
	.cfi_personality 3, __gxx_personality_v0
	.cfi_lsda 3, .Lexception3

	push	r15
.Lcfi184:
	.cfi_def_cfa_offset 16
	push	r14
.Lcfi185:
	.cfi_def_cfa_offset 24
	push	rbx
.Lcfi186:
	.cfi_def_cfa_offset 32
	sub	rsp, 48
.Lcfi187:
	.cfi_def_cfa_offset 80
.Lcfi188:
	.cfi_offset rbx, -32
.Lcfi189:
	.cfi_offset r14, -24
.Lcfi190:
	.cfi_offset r15, -16
	mov	edi, 48
	call	__cxa_allocate_exception
	mov	r15, rax
	lea	rbx, [rsp + 8]
	mov	rdi, rbx
	call	_ZNSaIcEC2Ev
.Ltmp24:
	lea	rdi, [rsp + 16]
	mov	esi, .L.str.3
	mov	rdx, rbx
	call	_ZNSt7__cxx1112basic_stringIcSt11char_traitsIcESaIcEEC2EPKcRKS3_
.Ltmp25:

	mov	bl, 1
.Ltmp27:
	lea	rsi, [rsp + 16]
	mov	rdi, r15
	call	_ZN8CryptoPP14NotImplementedC2ERKNSt7__cxx1112basic_stringIcSt11char_traitsIcESaIcEEE
.Ltmp28:

	xor	ebx, ebx
.Ltmp29:
	mov	esi, _ZTIN8CryptoPP14NotImplementedE
	mov	edx, _ZN8CryptoPP9ExceptionD2Ev
	mov	rdi, r15
	call	__cxa_throw
.Ltmp30:

.LBB57_3:
.Ltmp26:
	mov	r14, rax
	mov	bl, 1
	jmp	.LBB57_5
.LBB57_4:
.Ltmp31:
	mov	r14, rax
.Ltmp32:
	lea	rdi, [rsp + 16]
	call	_ZNSt7__cxx1112basic_stringIcSt11char_traitsIcESaIcEED2Ev
.Ltmp33:
.LBB57_5:
	lea	rdi, [rsp + 8]
	call	_ZNSaIcED2Ev
	test	bl, bl
	je	.LBB57_7

	mov	rdi, r15
	call	__cxa_free_exception
.LBB57_7:
	mov	rdi, r14
	call	_Unwind_Resume
.LBB57_8:
.Ltmp34:
	mov	rdi, rax
	call	__clang_call_terminate
.Lfunc_end57:
	.size	_ZNK8CryptoPP8Clonable5CloneEv, .Lfunc_end57-_ZNK8CryptoPP8Clonable5CloneEv
	.cfi_endproc
	.section	.gcc_except_table,"a",@progbits
	.p2align	2
GCC_except_table57:
.Lexception3:
	.byte	255                     
	.byte	3                       
	.byte	73                      
	.byte	3                       
	.byte	65                      
	.long	.Lfunc_begin3-.Lfunc_begin3 
	.long	.Ltmp24-.Lfunc_begin3   
	.long	0                       
	.byte	0                       
	.long	.Ltmp24-.Lfunc_begin3   
	.long	.Ltmp25-.Ltmp24         
	.long	.Ltmp26-.Lfunc_begin3   
	.byte	0                       
	.long	.Ltmp27-.Lfunc_begin3   
	.long	.Ltmp30-.Ltmp27         
	.long	.Ltmp31-.Lfunc_begin3   
	.byte	0                       
	.long	.Ltmp32-.Lfunc_begin3   
	.long	.Ltmp33-.Ltmp32         
	.long	.Ltmp34-.Lfunc_begin3   
	.byte	1                       
	.long	.Ltmp33-.Lfunc_begin3   
	.long	.Lfunc_end57-.Ltmp33    
	.long	0                       
	.byte	0                       
	.byte	1                       

	.byte	0                       

	.long	0                       
	.p2align	2

	.section	.text._ZThn8_NK8CryptoPP13AlgorithmImplINS_25SimpleKeyingInterfaceImplINS_8TwoBasesINS_11BlockCipherENS_8DES_InfoEEES5_EES6_E13AlgorithmNameB5cxx11Ev,"axG",@progbits,_ZThn8_NK8CryptoPP13AlgorithmImplINS_25SimpleKeyingInterfaceImplINS_8TwoBasesINS_11BlockCipherENS_8DES_InfoEEES5_EES6_E13AlgorithmNameB5cxx11Ev,comdat
	.weak	_ZThn8_NK8CryptoPP13AlgorithmImplINS_25SimpleKeyingInterfaceImplINS_8TwoBasesINS_11BlockCipherENS_8DES_InfoEEES5_EES6_E13AlgorithmNameB5cxx11Ev 
	.p2align	4, 0x90
	.type	_ZThn8_NK8CryptoPP13AlgorithmImplINS_25SimpleKeyingInterfaceImplINS_8TwoBasesINS_11BlockCipherENS_8DES_InfoEEES5_EES6_E13AlgorithmNameB5cxx11Ev,@function
_ZThn8_NK8CryptoPP13AlgorithmImplINS_25SimpleKeyingInterfaceImplINS_8TwoBasesINS_11BlockCipherENS_8DES_InfoEEES5_EES6_E13AlgorithmNameB5cxx11Ev: 
	.cfi_startproc

	push	rbx
.Lcfi191:
	.cfi_def_cfa_offset 16
.Lcfi192:
	.cfi_offset rbx, -16
	mov	rbx, rdi
	add	rsi, -8
	call	_ZNK8CryptoPP13AlgorithmImplINS_25SimpleKeyingInterfaceImplINS_8TwoBasesINS_11BlockCipherENS_8DES_InfoEEES5_EES6_E13AlgorithmNameB5cxx11Ev
	mov	rax, rbx
	pop	rbx
	ret
.Lfunc_end58:
	.size	_ZThn8_NK8CryptoPP13AlgorithmImplINS_25SimpleKeyingInterfaceImplINS_8TwoBasesINS_11BlockCipherENS_8DES_InfoEEES5_EES6_E13AlgorithmNameB5cxx11Ev, .Lfunc_end58-_ZThn8_NK8CryptoPP13AlgorithmImplINS_25SimpleKeyingInterfaceImplINS_8TwoBasesINS_11BlockCipherENS_8DES_InfoEEES5_EES6_E13AlgorithmNameB5cxx11Ev
	.cfi_endproc

	.section	.text._ZNK8CryptoPP9Algorithm17AlgorithmProviderB5cxx11Ev,"axG",@progbits,_ZNK8CryptoPP9Algorithm17AlgorithmProviderB5cxx11Ev,comdat
	.weak	_ZNK8CryptoPP9Algorithm17AlgorithmProviderB5cxx11Ev 
	.p2align	4, 0x90
	.type	_ZNK8CryptoPP9Algorithm17AlgorithmProviderB5cxx11Ev,@function
_ZNK8CryptoPP9Algorithm17AlgorithmProviderB5cxx11Ev: 
.Lfunc_begin4:
	.cfi_startproc
	.cfi_personality 3, __gxx_personality_v0
	.cfi_lsda 3, .Lexception4

	push	r14
.Lcfi193:
	.cfi_def_cfa_offset 16
	push	rbx
.Lcfi194:
	.cfi_def_cfa_offset 24
	push	rax
.Lcfi195:
	.cfi_def_cfa_offset 32
.Lcfi196:
	.cfi_offset rbx, -24
.Lcfi197:
	.cfi_offset r14, -16
	mov	rbx, rdi
	mov	r14, rsp
	mov	rdi, r14
	call	_ZNSaIcEC2Ev
.Ltmp35:
	mov	esi, .L.str.4
	mov	rdi, rbx
	mov	rdx, r14
	call	_ZNSt7__cxx1112basic_stringIcSt11char_traitsIcESaIcEEC2EPKcRKS3_
.Ltmp36:

	mov	rdi, rsp
	call	_ZNSaIcED2Ev
	mov	rax, rbx
	add	rsp, 8
	pop	rbx
	pop	r14
	ret
.LBB59_2:
.Ltmp37:
	mov	rbx, rax
	mov	rdi, rsp
	call	_ZNSaIcED2Ev
	mov	rdi, rbx
	call	_Unwind_Resume
.Lfunc_end59:
	.size	_ZNK8CryptoPP9Algorithm17AlgorithmProviderB5cxx11Ev, .Lfunc_end59-_ZNK8CryptoPP9Algorithm17AlgorithmProviderB5cxx11Ev
	.cfi_endproc
	.section	.gcc_except_table,"a",@progbits
	.p2align	2
GCC_except_table59:
.Lexception4:
	.byte	255                     
	.byte	3                       
	.asciz	"\234"                  
	.byte	3                       
	.byte	26                      
	.long	.Ltmp35-.Lfunc_begin4   
	.long	.Ltmp36-.Ltmp35         
	.long	.Ltmp37-.Lfunc_begin4   
	.byte	0                       
	.long	.Ltmp36-.Lfunc_begin4   
	.long	.Lfunc_end59-.Ltmp36    
	.long	0                       
	.byte	0                       
	.p2align	2

	.section	.text._ZThn8_NK8CryptoPP15BlockCipherImplINS_8DES_InfoENS_11BlockCipherEE9BlockSizeEv,"axG",@progbits,_ZThn8_NK8CryptoPP15BlockCipherImplINS_8DES_InfoENS_11BlockCipherEE9BlockSizeEv,comdat
	.weak	_ZThn8_NK8CryptoPP15BlockCipherImplINS_8DES_InfoENS_11BlockCipherEE9BlockSizeEv 
	.p2align	4, 0x90
	.type	_ZThn8_NK8CryptoPP15BlockCipherImplINS_8DES_InfoENS_11BlockCipherEE9BlockSizeEv,@function
_ZThn8_NK8CryptoPP15BlockCipherImplINS_8DES_InfoENS_11BlockCipherEE9BlockSizeEv: 
	.cfi_startproc

	push	rbp
.Lcfi198:
	.cfi_def_cfa_offset 16
	push	r15
.Lcfi199:
	.cfi_def_cfa_offset 24
	push	r14
.Lcfi200:
	.cfi_def_cfa_offset 32
	push	rbx
.Lcfi201:
	.cfi_def_cfa_offset 40
	push	rax
.Lcfi202:
	.cfi_def_cfa_offset 48
.Lcfi203:
	.cfi_offset rbx, -40
.Lcfi204:
	.cfi_offset r14, -32
.Lcfi205:
	.cfi_offset r15, -24
.Lcfi206:
	.cfi_offset rbp, -16
	mov	rbx, rdi
	mov	eax, dword ptr [rip + x.119]
	mov	ecx, dword ptr [rip + y.120]
	lea	edx, [rax - 1]
	imul	edx, eax
	mov	eax, edx
	xor	eax, -2
	test	eax, edx
	sete	byte ptr [rsp + 2]
	cmp	ecx, 10
	setl	byte ptr [rsp + 3]
	add	rbx, -8
	mov	eax, -272821886
	mov	r15d, 597877329
	mov	r14d, 1925693421
	mov	ebp, -1621633999
	jmp	.LBB60_1
.LBB60_4:                               
	movzx	ecx, byte ptr [rsp + 2]
	movzx	eax, byte ptr [rsp + 3]
	mov	edx, ecx
	xor	dl, al
	mov	edx, 1925693421
	cmovne	edx, ebp
	test	al, al
	mov	eax, edx
	cmovne	eax, ebp
	test	cl, cl
	cmove	eax, edx
	.p2align	4, 0x90
.LBB60_1:                               
	cmp	eax, 597877328
	jg	.LBB60_5

	cmp	eax, -1621633999
	je	.LBB60_8

	cmp	eax, -272821886
	jne	.LBB60_1
	jmp	.LBB60_4
	.p2align	4, 0x90
.LBB60_5:                               
	cmp	eax, 597877329
	je	.LBB60_9

	cmp	eax, 1925693421
	jne	.LBB60_1

	mov	rdi, rbx
	call	_ZNK8CryptoPP15BlockCipherImplINS_8DES_InfoENS_11BlockCipherEE9BlockSizeEv
	mov	eax, -1621633999
	jmp	.LBB60_1
.LBB60_8:                               
	mov	rdi, rbx
	call	_ZNK8CryptoPP15BlockCipherImplINS_8DES_InfoENS_11BlockCipherEE9BlockSizeEv
	mov	dword ptr [rsp + 4], eax
	mov	eax, dword ptr [rip + x.119]
	lea	ecx, [rax - 1]
	imul	ecx, eax
	mov	eax, ecx
	xor	eax, -2
	and	eax, ecx
	sete	cl
	test	eax, eax
	mov	eax, 1925693421
	cmove	eax, r15d
	cmp	dword ptr [rip + y.120], 10
	setl	dl
	cmovge	eax, r14d
	xor	dl, cl
	cmovne	eax, r15d
	jmp	.LBB60_1
.LBB60_9:
	mov	eax, dword ptr [rsp + 4]
	add	rsp, 8
	pop	rbx
	pop	r14
	pop	r15
	pop	rbp
	ret
.Lfunc_end60:
	.size	_ZThn8_NK8CryptoPP15BlockCipherImplINS_8DES_InfoENS_11BlockCipherEE9BlockSizeEv, .Lfunc_end60-_ZThn8_NK8CryptoPP15BlockCipherImplINS_8DES_InfoENS_11BlockCipherEE9BlockSizeEv
	.cfi_endproc

	.section	.text._ZNK8CryptoPP19BlockTransformation13IsPermutationEv,"axG",@progbits,_ZNK8CryptoPP19BlockTransformation13IsPermutationEv,comdat
	.weak	_ZNK8CryptoPP19BlockTransformation13IsPermutationEv 
	.p2align	4, 0x90
	.type	_ZNK8CryptoPP19BlockTransformation13IsPermutationEv,@function
_ZNK8CryptoPP19BlockTransformation13IsPermutationEv: 

	mov	al, 1
	ret
.Lfunc_end61:
	.size	_ZNK8CryptoPP19BlockTransformation13IsPermutationEv, .Lfunc_end61-_ZNK8CryptoPP19BlockTransformation13IsPermutationEv

	.section	.text._ZNK8CryptoPP19BlockTransformation29OptimalNumberOfParallelBlocksEv,"axG",@progbits,_ZNK8CryptoPP19BlockTransformation29OptimalNumberOfParallelBlocksEv,comdat
	.weak	_ZNK8CryptoPP19BlockTransformation29OptimalNumberOfParallelBlocksEv 
	.p2align	4, 0x90
	.type	_ZNK8CryptoPP19BlockTransformation29OptimalNumberOfParallelBlocksEv,@function
_ZNK8CryptoPP19BlockTransformation29OptimalNumberOfParallelBlocksEv: 

	mov	eax, dword ptr [rip + x.123]
	mov	ecx, dword ptr [rip + y.124]
	mov	edx, eax
	neg	edx
	not	edx
	imul	edx, eax
	not	edx
	or	edx, -2
	cmp	edx, -1
	sete	dl
	sete	byte ptr [rsp - 2]
	mov	esi, -1270837667
	mov	edi, -1525211558
	mov	eax, -1525211558
	cmove	eax, esi
	cmp	ecx, 10
	setl	cl
	setl	byte ptr [rsp - 1]
	cmovge	eax, edi
	xor	cl, dl
	cmovne	eax, esi
	mov	edx, 703423379
	mov	esi, 1985055992
	jmp	.LBB62_1
.LBB62_6:                               
	mov	edx, eax
	.p2align	4, 0x90
.LBB62_1:                               
	cmp	edx, 703423378
	jg	.LBB62_5

	cmp	edx, -1525211558
	je	.LBB62_9

	cmp	edx, -1270837667
	jne	.LBB62_1
	jmp	.LBB62_4
	.p2align	4, 0x90
.LBB62_5:                               
	cmp	edx, 1985055992
	je	.LBB62_6

	cmp	edx, 703423379
	jne	.LBB62_1

	movzx	edi, byte ptr [rsp - 2]
	movzx	edx, byte ptr [rsp - 1]
	mov	ecx, edi
	xor	cl, dl
	mov	ecx, -1525211558
	cmovne	ecx, esi
	test	dl, dl
	mov	edx, ecx
	cmovne	edx, esi
	test	dil, dil
	cmove	edx, ecx
	jmp	.LBB62_1
.LBB62_9:                               
	mov	edx, 1985055992
	jmp	.LBB62_1
.LBB62_4:
	mov	eax, 1
	ret
.Lfunc_end62:
	.size	_ZNK8CryptoPP19BlockTransformation29OptimalNumberOfParallelBlocksEv, .Lfunc_end62-_ZNK8CryptoPP19BlockTransformation29OptimalNumberOfParallelBlocksEv

	.section	.text._ZN8CryptoPP8DES_EDE24BaseD2Ev,"axG",@progbits,_ZN8CryptoPP8DES_EDE24BaseD2Ev,comdat
	.weak	_ZN8CryptoPP8DES_EDE24BaseD2Ev 
	.p2align	4, 0x90
	.type	_ZN8CryptoPP8DES_EDE24BaseD2Ev,@function
_ZN8CryptoPP8DES_EDE24BaseD2Ev:         
.Lfunc_begin5:
	.cfi_startproc
	.cfi_personality 3, __gxx_personality_v0
	.cfi_lsda 3, .Lexception5

	push	r14
.Lcfi207:
	.cfi_def_cfa_offset 16
	push	rbx
.Lcfi208:
	.cfi_def_cfa_offset 24
	push	rax
.Lcfi209:
	.cfi_def_cfa_offset 32
.Lcfi210:
	.cfi_offset rbx, -24
.Lcfi211:
	.cfi_offset r14, -16
	mov	rbx, rdi
	mov	qword ptr [rbx], _ZTVN8CryptoPP8DES_EDE24BaseE+16
	mov	qword ptr [rbx + 8], _ZTVN8CryptoPP8DES_EDE24BaseE+184
	lea	rdi, [rbx + 176]
.Ltmp38:
	call	_ZN8CryptoPP6RawDESD2Ev
.Ltmp39:

	lea	rdi, [rbx + 16]
.Ltmp43:
	call	_ZN8CryptoPP6RawDESD2Ev
.Ltmp44:

	mov	rdi, rbx
	add	rsp, 8
	pop	rbx
	pop	r14
	jmp	_ZN8CryptoPP11BlockCipherD2Ev 
.LBB63_4:
.Ltmp45:
	mov	r14, rax
	jmp	.LBB63_5
.LBB63_3:
.Ltmp40:
	mov	r14, rax
	lea	rdi, [rbx + 16]
.Ltmp41:
	call	_ZN8CryptoPP6RawDESD2Ev
.Ltmp42:
.LBB63_5:
.Ltmp46:
	mov	rdi, rbx
	call	_ZN8CryptoPP11BlockCipherD2Ev
.Ltmp47:

	mov	rdi, r14
	call	_Unwind_Resume
.LBB63_7:
.Ltmp48:
	mov	rdi, rax
	call	__clang_call_terminate
.Lfunc_end63:
	.size	_ZN8CryptoPP8DES_EDE24BaseD2Ev, .Lfunc_end63-_ZN8CryptoPP8DES_EDE24BaseD2Ev
	.cfi_endproc
	.section	.gcc_except_table,"a",@progbits
	.p2align	2
GCC_except_table63:
.Lexception5:
	.byte	255                     
	.byte	3                       
	.byte	73                      
	.byte	3                       
	.byte	65                      
	.long	.Ltmp38-.Lfunc_begin5   
	.long	.Ltmp39-.Ltmp38         
	.long	.Ltmp40-.Lfunc_begin5   
	.byte	0                       
	.long	.Ltmp43-.Lfunc_begin5   
	.long	.Ltmp44-.Ltmp43         
	.long	.Ltmp45-.Lfunc_begin5   
	.byte	0                       
	.long	.Ltmp44-.Lfunc_begin5   
	.long	.Ltmp41-.Ltmp44         
	.long	0                       
	.byte	0                       
	.long	.Ltmp41-.Lfunc_begin5   
	.long	.Ltmp47-.Ltmp41         
	.long	.Ltmp48-.Lfunc_begin5   
	.byte	1                       
	.long	.Ltmp47-.Lfunc_begin5   
	.long	.Lfunc_end63-.Ltmp47    
	.long	0                       
	.byte	0                       
	.byte	1                       

	.byte	0                       

	.long	0                       
	.p2align	2

	.section	.text._ZN8CryptoPP8DES_EDE24BaseD0Ev,"axG",@progbits,_ZN8CryptoPP8DES_EDE24BaseD0Ev,comdat
	.weak	_ZN8CryptoPP8DES_EDE24BaseD0Ev 
	.p2align	4, 0x90
	.type	_ZN8CryptoPP8DES_EDE24BaseD0Ev,@function
_ZN8CryptoPP8DES_EDE24BaseD0Ev:         

	mov	eax, dword ptr [rip + x.125]
	mov	ecx, dword ptr [rip + y.126]
	lea	edx, [rax - 1]
	imul	edx, eax
	mov	eax, edx
	xor	eax, -2
	test	eax, edx
	sete	byte ptr [rsp - 2]
	cmp	ecx, 10
	setl	byte ptr [rsp - 1]
	mov	ecx, -1888646499
	mov	esi, 1826328471
	jmp	.LBB64_1
	.p2align	4, 0x90
.LBB64_5:                               
	movzx	eax, byte ptr [rsp - 2]
	movzx	ecx, byte ptr [rsp - 1]
	mov	edx, eax
	xor	dl, cl
	mov	edx, 868180869
	cmovne	edx, esi
	test	cl, cl
	mov	ecx, edx
	cmovne	ecx, esi
	test	al, al
	cmove	ecx, edx
.LBB64_1:                               
	cmp	ecx, -1888646499
	je	.LBB64_5

	cmp	ecx, 868180869
	je	.LBB64_4

	cmp	ecx, 1826328471
	jne	.LBB64_1
.LBB64_4:
	ud2
.Lfunc_end64:
	.size	_ZN8CryptoPP8DES_EDE24BaseD0Ev, .Lfunc_end64-_ZN8CryptoPP8DES_EDE24BaseD0Ev

	.section	.text._ZNK8CryptoPP25SimpleKeyingInterfaceImplINS_8TwoBasesINS_11BlockCipherENS_13DES_EDE2_InfoEEES4_E12MinKeyLengthEv,"axG",@progbits,_ZNK8CryptoPP25SimpleKeyingInterfaceImplINS_8TwoBasesINS_11BlockCipherENS_13DES_EDE2_InfoEEES4_E12MinKeyLengthEv,comdat
	.weak	_ZNK8CryptoPP25SimpleKeyingInterfaceImplINS_8TwoBasesINS_11BlockCipherENS_13DES_EDE2_InfoEEES4_E12MinKeyLengthEv 
	.p2align	4, 0x90
	.type	_ZNK8CryptoPP25SimpleKeyingInterfaceImplINS_8TwoBasesINS_11BlockCipherENS_13DES_EDE2_InfoEEES4_E12MinKeyLengthEv,@function
_ZNK8CryptoPP25SimpleKeyingInterfaceImplINS_8TwoBasesINS_11BlockCipherENS_13DES_EDE2_InfoEEES4_E12MinKeyLengthEv: 

	mov	eax, 16
	ret
.Lfunc_end65:
	.size	_ZNK8CryptoPP25SimpleKeyingInterfaceImplINS_8TwoBasesINS_11BlockCipherENS_13DES_EDE2_InfoEEES4_E12MinKeyLengthEv, .Lfunc_end65-_ZNK8CryptoPP25SimpleKeyingInterfaceImplINS_8TwoBasesINS_11BlockCipherENS_13DES_EDE2_InfoEEES4_E12MinKeyLengthEv

	.section	.text._ZNK8CryptoPP25SimpleKeyingInterfaceImplINS_8TwoBasesINS_11BlockCipherENS_13DES_EDE2_InfoEEES4_E12MaxKeyLengthEv,"axG",@progbits,_ZNK8CryptoPP25SimpleKeyingInterfaceImplINS_8TwoBasesINS_11BlockCipherENS_13DES_EDE2_InfoEEES4_E12MaxKeyLengthEv,comdat
	.weak	_ZNK8CryptoPP25SimpleKeyingInterfaceImplINS_8TwoBasesINS_11BlockCipherENS_13DES_EDE2_InfoEEES4_E12MaxKeyLengthEv 
	.p2align	4, 0x90
	.type	_ZNK8CryptoPP25SimpleKeyingInterfaceImplINS_8TwoBasesINS_11BlockCipherENS_13DES_EDE2_InfoEEES4_E12MaxKeyLengthEv,@function
_ZNK8CryptoPP25SimpleKeyingInterfaceImplINS_8TwoBasesINS_11BlockCipherENS_13DES_EDE2_InfoEEES4_E12MaxKeyLengthEv: 

	mov	eax, 16
	ret
.Lfunc_end66:
	.size	_ZNK8CryptoPP25SimpleKeyingInterfaceImplINS_8TwoBasesINS_11BlockCipherENS_13DES_EDE2_InfoEEES4_E12MaxKeyLengthEv, .Lfunc_end66-_ZNK8CryptoPP25SimpleKeyingInterfaceImplINS_8TwoBasesINS_11BlockCipherENS_13DES_EDE2_InfoEEES4_E12MaxKeyLengthEv

	.section	.text._ZNK8CryptoPP25SimpleKeyingInterfaceImplINS_8TwoBasesINS_11BlockCipherENS_13DES_EDE2_InfoEEES4_E16DefaultKeyLengthEv,"axG",@progbits,_ZNK8CryptoPP25SimpleKeyingInterfaceImplINS_8TwoBasesINS_11BlockCipherENS_13DES_EDE2_InfoEEES4_E16DefaultKeyLengthEv,comdat
	.weak	_ZNK8CryptoPP25SimpleKeyingInterfaceImplINS_8TwoBasesINS_11BlockCipherENS_13DES_EDE2_InfoEEES4_E16DefaultKeyLengthEv 
	.p2align	4, 0x90
	.type	_ZNK8CryptoPP25SimpleKeyingInterfaceImplINS_8TwoBasesINS_11BlockCipherENS_13DES_EDE2_InfoEEES4_E16DefaultKeyLengthEv,@function
_ZNK8CryptoPP25SimpleKeyingInterfaceImplINS_8TwoBasesINS_11BlockCipherENS_13DES_EDE2_InfoEEES4_E16DefaultKeyLengthEv: 

	mov	eax, 16
	ret
.Lfunc_end67:
	.size	_ZNK8CryptoPP25SimpleKeyingInterfaceImplINS_8TwoBasesINS_11BlockCipherENS_13DES_EDE2_InfoEEES4_E16DefaultKeyLengthEv, .Lfunc_end67-_ZNK8CryptoPP25SimpleKeyingInterfaceImplINS_8TwoBasesINS_11BlockCipherENS_13DES_EDE2_InfoEEES4_E16DefaultKeyLengthEv

	.section	.text._ZNK8CryptoPP25SimpleKeyingInterfaceImplINS_8TwoBasesINS_11BlockCipherENS_13DES_EDE2_InfoEEES4_E17GetValidKeyLengthEm,"axG",@progbits,_ZNK8CryptoPP25SimpleKeyingInterfaceImplINS_8TwoBasesINS_11BlockCipherENS_13DES_EDE2_InfoEEES4_E17GetValidKeyLengthEm,comdat
	.weak	_ZNK8CryptoPP25SimpleKeyingInterfaceImplINS_8TwoBasesINS_11BlockCipherENS_13DES_EDE2_InfoEEES4_E17GetValidKeyLengthEm 
	.p2align	4, 0x90
	.type	_ZNK8CryptoPP25SimpleKeyingInterfaceImplINS_8TwoBasesINS_11BlockCipherENS_13DES_EDE2_InfoEEES4_E17GetValidKeyLengthEm,@function
_ZNK8CryptoPP25SimpleKeyingInterfaceImplINS_8TwoBasesINS_11BlockCipherENS_13DES_EDE2_InfoEEES4_E17GetValidKeyLengthEm: 
	.cfi_startproc

	mov	rdi, rsi
	jmp	_ZN8CryptoPP14FixedKeyLengthILj16ELj4ELj0EE23StaticGetValidKeyLengthEm 
.Lfunc_end68:
	.size	_ZNK8CryptoPP25SimpleKeyingInterfaceImplINS_8TwoBasesINS_11BlockCipherENS_13DES_EDE2_InfoEEES4_E17GetValidKeyLengthEm, .Lfunc_end68-_ZNK8CryptoPP25SimpleKeyingInterfaceImplINS_8TwoBasesINS_11BlockCipherENS_13DES_EDE2_InfoEEES4_E17GetValidKeyLengthEm
	.cfi_endproc

	.section	.text._ZNK8CryptoPP25SimpleKeyingInterfaceImplINS_8TwoBasesINS_11BlockCipherENS_13DES_EDE2_InfoEEES4_E13IVRequirementEv,"axG",@progbits,_ZNK8CryptoPP25SimpleKeyingInterfaceImplINS_8TwoBasesINS_11BlockCipherENS_13DES_EDE2_InfoEEES4_E13IVRequirementEv,comdat
	.weak	_ZNK8CryptoPP25SimpleKeyingInterfaceImplINS_8TwoBasesINS_11BlockCipherENS_13DES_EDE2_InfoEEES4_E13IVRequirementEv 
	.p2align	4, 0x90
	.type	_ZNK8CryptoPP25SimpleKeyingInterfaceImplINS_8TwoBasesINS_11BlockCipherENS_13DES_EDE2_InfoEEES4_E13IVRequirementEv,@function
_ZNK8CryptoPP25SimpleKeyingInterfaceImplINS_8TwoBasesINS_11BlockCipherENS_13DES_EDE2_InfoEEES4_E13IVRequirementEv: 

	mov	eax, 4
	ret
.Lfunc_end69:
	.size	_ZNK8CryptoPP25SimpleKeyingInterfaceImplINS_8TwoBasesINS_11BlockCipherENS_13DES_EDE2_InfoEEES4_E13IVRequirementEv, .Lfunc_end69-_ZNK8CryptoPP25SimpleKeyingInterfaceImplINS_8TwoBasesINS_11BlockCipherENS_13DES_EDE2_InfoEEES4_E13IVRequirementEv

	.section	.text._ZNK8CryptoPP25SimpleKeyingInterfaceImplINS_8TwoBasesINS_11BlockCipherENS_13DES_EDE2_InfoEEES4_E6IVSizeEv,"axG",@progbits,_ZNK8CryptoPP25SimpleKeyingInterfaceImplINS_8TwoBasesINS_11BlockCipherENS_13DES_EDE2_InfoEEES4_E6IVSizeEv,comdat
	.weak	_ZNK8CryptoPP25SimpleKeyingInterfaceImplINS_8TwoBasesINS_11BlockCipherENS_13DES_EDE2_InfoEEES4_E6IVSizeEv 
	.p2align	4, 0x90
	.type	_ZNK8CryptoPP25SimpleKeyingInterfaceImplINS_8TwoBasesINS_11BlockCipherENS_13DES_EDE2_InfoEEES4_E6IVSizeEv,@function
_ZNK8CryptoPP25SimpleKeyingInterfaceImplINS_8TwoBasesINS_11BlockCipherENS_13DES_EDE2_InfoEEES4_E6IVSizeEv: 

	mov	eax, dword ptr [rip + x.137]
	mov	esi, dword ptr [rip + y.138]
	lea	edx, [rax - 1]
	imul	edx, eax
	not	edx
	or	edx, -2
	cmp	edx, -1
	sete	al
	cmp	esi, 10
	setl	cl
	xor	cl, al
	mov	edi, -1124431872
	mov	ecx, 142999216
	cmovne	ecx, edi
	cmp	edx, -1
	sete	byte ptr [rsp - 2]
	cmovne	edi, ecx
	cmp	esi, 10
	setl	byte ptr [rsp - 1]
	cmovge	edi, ecx
	mov	edx, 2059907569
	mov	esi, -1245175560
	jmp	.LBB70_1
.LBB70_3:                               
	mov	edx, edi
	.p2align	4, 0x90
.LBB70_1:                               
	cmp	edx, 142999215
	jg	.LBB70_4

	cmp	edx, -1245175560
	je	.LBB70_3

	cmp	edx, -1124431872
	jne	.LBB70_1
	jmp	.LBB70_8
	.p2align	4, 0x90
.LBB70_4:                               
	cmp	edx, 142999216
	je	.LBB70_9

	cmp	edx, 2059907569
	jne	.LBB70_1

	movzx	eax, byte ptr [rsp - 2]
	movzx	edx, byte ptr [rsp - 1]
	mov	ecx, eax
	xor	cl, dl
	mov	ecx, 142999216
	cmovne	ecx, esi
	test	dl, dl
	mov	edx, ecx
	cmovne	edx, esi
	test	al, al
	cmove	edx, ecx
	jmp	.LBB70_1
.LBB70_9:                               
	mov	edx, -1245175560
	jmp	.LBB70_1
.LBB70_8:
	xor	eax, eax
	ret
.Lfunc_end70:
	.size	_ZNK8CryptoPP25SimpleKeyingInterfaceImplINS_8TwoBasesINS_11BlockCipherENS_13DES_EDE2_InfoEEES4_E6IVSizeEv, .Lfunc_end70-_ZNK8CryptoPP25SimpleKeyingInterfaceImplINS_8TwoBasesINS_11BlockCipherENS_13DES_EDE2_InfoEEES4_E6IVSizeEv

	.section	.text._ZNK8CryptoPP13AlgorithmImplINS_25SimpleKeyingInterfaceImplINS_8TwoBasesINS_11BlockCipherENS_13DES_EDE2_InfoEEES5_EES6_E13AlgorithmNameB5cxx11Ev,"axG",@progbits,_ZNK8CryptoPP13AlgorithmImplINS_25SimpleKeyingInterfaceImplINS_8TwoBasesINS_11BlockCipherENS_13DES_EDE2_InfoEEES5_EES6_E13AlgorithmNameB5cxx11Ev,comdat
	.weak	_ZNK8CryptoPP13AlgorithmImplINS_25SimpleKeyingInterfaceImplINS_8TwoBasesINS_11BlockCipherENS_13DES_EDE2_InfoEEES5_EES6_E13AlgorithmNameB5cxx11Ev 
	.p2align	4, 0x90
	.type	_ZNK8CryptoPP13AlgorithmImplINS_25SimpleKeyingInterfaceImplINS_8TwoBasesINS_11BlockCipherENS_13DES_EDE2_InfoEEES5_EES6_E13AlgorithmNameB5cxx11Ev,@function
_ZNK8CryptoPP13AlgorithmImplINS_25SimpleKeyingInterfaceImplINS_8TwoBasesINS_11BlockCipherENS_13DES_EDE2_InfoEEES5_EES6_E13AlgorithmNameB5cxx11Ev: 
.Lfunc_begin6:
	.cfi_startproc
	.cfi_personality 3, __gxx_personality_v0
	.cfi_lsda 3, .Lexception6

	push	r15
.Lcfi212:
	.cfi_def_cfa_offset 16
	push	r14
.Lcfi213:
	.cfi_def_cfa_offset 24
	push	rbx
.Lcfi214:
	.cfi_def_cfa_offset 32
	sub	rsp, 16
.Lcfi215:
	.cfi_def_cfa_offset 48
.Lcfi216:
	.cfi_offset rbx, -32
.Lcfi217:
	.cfi_offset r14, -24
.Lcfi218:
	.cfi_offset r15, -16
	mov	r14, rdi
	call	_ZN8CryptoPP13DES_EDE2_Info19StaticAlgorithmNameEv
	mov	rbx, rax
	lea	r15, [rsp + 8]
	mov	rdi, r15
	call	_ZNSaIcEC2Ev
.Ltmp49:
	mov	rdi, r14
	mov	rsi, rbx
	mov	rdx, r15
	call	_ZNSt7__cxx1112basic_stringIcSt11char_traitsIcESaIcEEC2EPKcRKS3_
.Ltmp50:

	lea	rdi, [rsp + 8]
	call	_ZNSaIcED2Ev
	mov	rax, r14
	add	rsp, 16
	pop	rbx
	pop	r14
	pop	r15
	ret
.LBB71_2:
.Ltmp51:
	mov	rbx, rax
	lea	rdi, [rsp + 8]
	call	_ZNSaIcED2Ev
	mov	rdi, rbx
	call	_Unwind_Resume
.Lfunc_end71:
	.size	_ZNK8CryptoPP13AlgorithmImplINS_25SimpleKeyingInterfaceImplINS_8TwoBasesINS_11BlockCipherENS_13DES_EDE2_InfoEEES5_EES6_E13AlgorithmNameB5cxx11Ev, .Lfunc_end71-_ZNK8CryptoPP13AlgorithmImplINS_25SimpleKeyingInterfaceImplINS_8TwoBasesINS_11BlockCipherENS_13DES_EDE2_InfoEEES5_EES6_E13AlgorithmNameB5cxx11Ev
	.cfi_endproc
	.section	.gcc_except_table,"a",@progbits
	.p2align	2
GCC_except_table71:
.Lexception6:
	.byte	255                     
	.byte	3                       
	.asciz	"\234"                  
	.byte	3                       
	.byte	26                      
	.long	.Ltmp49-.Lfunc_begin6   
	.long	.Ltmp50-.Ltmp49         
	.long	.Ltmp51-.Lfunc_begin6   
	.byte	0                       
	.long	.Ltmp50-.Lfunc_begin6   
	.long	.Lfunc_end71-.Ltmp50    
	.long	0                       
	.byte	0                       
	.p2align	2

	.section	.text._ZNK8CryptoPP15BlockCipherImplINS_13DES_EDE2_InfoENS_11BlockCipherEE9BlockSizeEv,"axG",@progbits,_ZNK8CryptoPP15BlockCipherImplINS_13DES_EDE2_InfoENS_11BlockCipherEE9BlockSizeEv,comdat
	.weak	_ZNK8CryptoPP15BlockCipherImplINS_13DES_EDE2_InfoENS_11BlockCipherEE9BlockSizeEv 
	.p2align	4, 0x90
	.type	_ZNK8CryptoPP15BlockCipherImplINS_13DES_EDE2_InfoENS_11BlockCipherEE9BlockSizeEv,@function
_ZNK8CryptoPP15BlockCipherImplINS_13DES_EDE2_InfoENS_11BlockCipherEE9BlockSizeEv: 

	mov	eax, dword ptr [rip + x.139]
	mov	ecx, dword ptr [rip + y.140]
	mov	edx, eax
	neg	edx
	not	edx
	imul	edx, eax
	mov	esi, edx
	xor	esi, -2
	and	esi, edx
	sete	byte ptr [rsp - 2]
	sete	al
	cmp	ecx, 10
	setl	dl
	xor	dl, al
	mov	eax, 779023182
	mov	edx, 154083243
	cmovne	edx, eax
	test	esi, esi
	cmovne	eax, edx
	cmp	ecx, 10
	setl	byte ptr [rsp - 1]
	cmovge	eax, edx
	mov	edx, 21797773
	mov	edi, 1136987246
	jmp	.LBB72_1
.LBB72_7:                               
	mov	edx, eax
	.p2align	4, 0x90
.LBB72_1:                               
	mov	esi, edx
	and	esi, 2147483647
	cmp	esi, 779023181
	jg	.LBB72_5

	cmp	esi, 21797773
	je	.LBB72_8

	cmp	esi, 154083243
	jne	.LBB72_1

	mov	edx, 1136987246
	jmp	.LBB72_1
	.p2align	4, 0x90
.LBB72_5:                               
	cmp	esi, 779023182
	je	.LBB72_9

	cmp	esi, 1136987246
	jne	.LBB72_1
	jmp	.LBB72_7
.LBB72_8:                               
	movzx	esi, byte ptr [rsp - 2]
	movzx	edx, byte ptr [rsp - 1]
	mov	ecx, esi
	xor	cl, dl
	mov	ecx, 154083243
	cmovne	ecx, edi
	test	dl, dl
	mov	edx, ecx
	cmovne	edx, edi
	test	sil, sil
	cmove	edx, ecx
	jmp	.LBB72_1
.LBB72_9:
	mov	eax, 8
	ret
.Lfunc_end72:
	.size	_ZNK8CryptoPP15BlockCipherImplINS_13DES_EDE2_InfoENS_11BlockCipherEE9BlockSizeEv, .Lfunc_end72-_ZNK8CryptoPP15BlockCipherImplINS_13DES_EDE2_InfoENS_11BlockCipherEE9BlockSizeEv

	.section	.text._ZThn8_N8CryptoPP8DES_EDE24BaseD1Ev,"axG",@progbits,_ZThn8_N8CryptoPP8DES_EDE24BaseD1Ev,comdat
	.weak	_ZThn8_N8CryptoPP8DES_EDE24BaseD1Ev 
	.p2align	4, 0x90
	.type	_ZThn8_N8CryptoPP8DES_EDE24BaseD1Ev,@function
_ZThn8_N8CryptoPP8DES_EDE24BaseD1Ev:    
	.cfi_startproc

	add	rdi, -8
	jmp	_ZN8CryptoPP8DES_EDE24BaseD2Ev 
.Lfunc_end73:
	.size	_ZThn8_N8CryptoPP8DES_EDE24BaseD1Ev, .Lfunc_end73-_ZThn8_N8CryptoPP8DES_EDE24BaseD1Ev
	.cfi_endproc

	.section	.text._ZThn8_N8CryptoPP8DES_EDE24BaseD0Ev,"axG",@progbits,_ZThn8_N8CryptoPP8DES_EDE24BaseD0Ev,comdat
	.weak	_ZThn8_N8CryptoPP8DES_EDE24BaseD0Ev 
	.p2align	4, 0x90
	.type	_ZThn8_N8CryptoPP8DES_EDE24BaseD0Ev,@function
_ZThn8_N8CryptoPP8DES_EDE24BaseD0Ev:    
	.cfi_startproc

	push	rbp
.Lcfi219:
	.cfi_def_cfa_offset 16
	push	r15
.Lcfi220:
	.cfi_def_cfa_offset 24
	push	r14
.Lcfi221:
	.cfi_def_cfa_offset 32
	push	rbx
.Lcfi222:
	.cfi_def_cfa_offset 40
	push	rax
.Lcfi223:
	.cfi_def_cfa_offset 48
.Lcfi224:
	.cfi_offset rbx, -40
.Lcfi225:
	.cfi_offset r14, -32
.Lcfi226:
	.cfi_offset r15, -24
.Lcfi227:
	.cfi_offset rbp, -16
	mov	rbp, rdi
	mov	eax, dword ptr [rip + x.143]
	mov	ecx, eax
	neg	ecx
	not	ecx
	imul	ecx, eax
	not	ecx
	or	ecx, -2
	cmp	ecx, -1
	sete	byte ptr [rsp + 6]
	mov	eax, dword ptr [rip + y.144]
	cmp	eax, 10
	setl	byte ptr [rsp + 7]
	add	rbp, -8
	mov	eax, 2141984191
	mov	r14d, 1119986831
	mov	r15d, -1671732960
	jmp	.LBB74_1
.LBB74_7:                               
	movzx	ecx, byte ptr [rsp + 6]
	movzx	eax, byte ptr [rsp + 7]
	mov	edx, ecx
	xor	dl, al
	mov	edx, -1000644489
	cmovne	edx, r15d
	test	al, al
	mov	eax, edx
	cmovne	eax, r15d
	test	cl, cl
	cmove	eax, edx
	.p2align	4, 0x90
.LBB74_1:                               
	cmp	eax, 1119986830
	jg	.LBB74_5

	cmp	eax, -1671732960
	je	.LBB74_8

	cmp	eax, -1000644489
	jne	.LBB74_1

	mov	rdi, rbp
	call	_ZN8CryptoPP8DES_EDE24BaseD0Ev
	mov	eax, -1671732960
	jmp	.LBB74_1
	.p2align	4, 0x90
.LBB74_5:                               
	cmp	eax, 1119986831
	je	.LBB74_9

	cmp	eax, 2141984191
	jne	.LBB74_1
	jmp	.LBB74_7
.LBB74_8:                               
	mov	rdi, rbp
	call	_ZN8CryptoPP8DES_EDE24BaseD0Ev
	mov	eax, dword ptr [rip + x.143]
	mov	ecx, dword ptr [rip + y.144]
	lea	edx, [rax - 1]
	imul	edx, eax
	mov	eax, edx
	xor	eax, -2
	and	eax, edx
	sete	dl
	cmp	ecx, 10
	setl	bl
	xor	bl, dl
	mov	edx, -1000644489
	cmovne	edx, r14d
	test	eax, eax
	mov	eax, edx
	cmove	eax, r14d
	cmp	ecx, 10
	cmovge	eax, edx
	jmp	.LBB74_1
.LBB74_9:
	add	rsp, 8
	pop	rbx
	pop	r14
	pop	r15
	pop	rbp
	ret
.Lfunc_end74:
	.size	_ZThn8_N8CryptoPP8DES_EDE24BaseD0Ev, .Lfunc_end74-_ZThn8_N8CryptoPP8DES_EDE24BaseD0Ev
	.cfi_endproc

	.section	.text._ZThn8_NK8CryptoPP13AlgorithmImplINS_25SimpleKeyingInterfaceImplINS_8TwoBasesINS_11BlockCipherENS_13DES_EDE2_InfoEEES5_EES6_E13AlgorithmNameB5cxx11Ev,"axG",@progbits,_ZThn8_NK8CryptoPP13AlgorithmImplINS_25SimpleKeyingInterfaceImplINS_8TwoBasesINS_11BlockCipherENS_13DES_EDE2_InfoEEES5_EES6_E13AlgorithmNameB5cxx11Ev,comdat
	.weak	_ZThn8_NK8CryptoPP13AlgorithmImplINS_25SimpleKeyingInterfaceImplINS_8TwoBasesINS_11BlockCipherENS_13DES_EDE2_InfoEEES5_EES6_E13AlgorithmNameB5cxx11Ev 
	.p2align	4, 0x90
	.type	_ZThn8_NK8CryptoPP13AlgorithmImplINS_25SimpleKeyingInterfaceImplINS_8TwoBasesINS_11BlockCipherENS_13DES_EDE2_InfoEEES5_EES6_E13AlgorithmNameB5cxx11Ev,@function
_ZThn8_NK8CryptoPP13AlgorithmImplINS_25SimpleKeyingInterfaceImplINS_8TwoBasesINS_11BlockCipherENS_13DES_EDE2_InfoEEES5_EES6_E13AlgorithmNameB5cxx11Ev: 
	.cfi_startproc

	push	rbp
.Lcfi228:
	.cfi_def_cfa_offset 16
	push	r15
.Lcfi229:
	.cfi_def_cfa_offset 24
	push	r14
.Lcfi230:
	.cfi_def_cfa_offset 32
	push	r12
.Lcfi231:
	.cfi_def_cfa_offset 40
	push	rbx
.Lcfi232:
	.cfi_def_cfa_offset 48
	sub	rsp, 16
.Lcfi233:
	.cfi_def_cfa_offset 64
.Lcfi234:
	.cfi_offset rbx, -48
.Lcfi235:
	.cfi_offset r12, -40
.Lcfi236:
	.cfi_offset r14, -32
.Lcfi237:
	.cfi_offset r15, -24
.Lcfi238:
	.cfi_offset rbp, -16
	mov	rbx, rsi
	mov	r14, rdi
	mov	eax, dword ptr [rip + x.145]
	mov	ecx, dword ptr [rip + y.146]
	lea	edx, [rax - 1]
	imul	edx, eax
	not	edx
	or	edx, -2
	cmp	edx, -1
	sete	byte ptr [rsp + 14]
	cmp	ecx, 10
	setl	byte ptr [rsp + 15]
	add	rbx, -8
	mov	eax, 1101821066
	mov	r15d, -2085813387
	mov	r12d, -1444334375
	mov	ebp, -2006782918
	jmp	.LBB75_1
.LBB75_7:                               
	movzx	ecx, byte ptr [rsp + 14]
	movzx	eax, byte ptr [rsp + 15]
	mov	edx, ecx
	xor	dl, al
	test	al, al
	mov	eax, -1444334375
	cmovne	eax, ebp
	test	cl, cl
	cmove	eax, r12d
	test	dl, dl
	cmovne	eax, ebp
	.p2align	4, 0x90
.LBB75_1:                               
	cmp	eax, -1444334376
	jg	.LBB75_5

	cmp	eax, -2085813387
	je	.LBB75_8

	cmp	eax, -2006782918
	jne	.LBB75_1

	mov	rdi, r14
	mov	rsi, rbx
	call	_ZNK8CryptoPP13AlgorithmImplINS_25SimpleKeyingInterfaceImplINS_8TwoBasesINS_11BlockCipherENS_13DES_EDE2_InfoEEES5_EES6_E13AlgorithmNameB5cxx11Ev
	mov	eax, dword ptr [rip + x.145]
	mov	ecx, eax
	neg	ecx
	not	ecx
	imul	ecx, eax
	not	ecx
	or	ecx, -2
	cmp	ecx, -1
	sete	cl
	mov	eax, -1444334375
	cmove	eax, r15d
	cmp	dword ptr [rip + y.146], 10
	setl	dl
	cmovge	eax, r12d
	xor	dl, cl
	cmovne	eax, r15d
	jmp	.LBB75_1
	.p2align	4, 0x90
.LBB75_5:                               
	cmp	eax, -1444334375
	je	.LBB75_9

	cmp	eax, 1101821066
	jne	.LBB75_1
	jmp	.LBB75_7
.LBB75_9:                               
	mov	rdi, r14
	mov	rsi, rbx
	call	_ZNK8CryptoPP13AlgorithmImplINS_25SimpleKeyingInterfaceImplINS_8TwoBasesINS_11BlockCipherENS_13DES_EDE2_InfoEEES5_EES6_E13AlgorithmNameB5cxx11Ev
	mov	eax, -2006782918
	jmp	.LBB75_1
.LBB75_8:
	mov	rax, r14
	add	rsp, 16
	pop	rbx
	pop	r12
	pop	r14
	pop	r15
	pop	rbp
	ret
.Lfunc_end75:
	.size	_ZThn8_NK8CryptoPP13AlgorithmImplINS_25SimpleKeyingInterfaceImplINS_8TwoBasesINS_11BlockCipherENS_13DES_EDE2_InfoEEES5_EES6_E13AlgorithmNameB5cxx11Ev, .Lfunc_end75-_ZThn8_NK8CryptoPP13AlgorithmImplINS_25SimpleKeyingInterfaceImplINS_8TwoBasesINS_11BlockCipherENS_13DES_EDE2_InfoEEES5_EES6_E13AlgorithmNameB5cxx11Ev
	.cfi_endproc

	.section	.text._ZThn8_NK8CryptoPP15BlockCipherImplINS_13DES_EDE2_InfoENS_11BlockCipherEE9BlockSizeEv,"axG",@progbits,_ZThn8_NK8CryptoPP15BlockCipherImplINS_13DES_EDE2_InfoENS_11BlockCipherEE9BlockSizeEv,comdat
	.weak	_ZThn8_NK8CryptoPP15BlockCipherImplINS_13DES_EDE2_InfoENS_11BlockCipherEE9BlockSizeEv 
	.p2align	4, 0x90
	.type	_ZThn8_NK8CryptoPP15BlockCipherImplINS_13DES_EDE2_InfoENS_11BlockCipherEE9BlockSizeEv,@function
_ZThn8_NK8CryptoPP15BlockCipherImplINS_13DES_EDE2_InfoENS_11BlockCipherEE9BlockSizeEv: 
	.cfi_startproc

	add	rdi, -8
	jmp	_ZNK8CryptoPP15BlockCipherImplINS_13DES_EDE2_InfoENS_11BlockCipherEE9BlockSizeEv 
.Lfunc_end76:
	.size	_ZThn8_NK8CryptoPP15BlockCipherImplINS_13DES_EDE2_InfoENS_11BlockCipherEE9BlockSizeEv, .Lfunc_end76-_ZThn8_NK8CryptoPP15BlockCipherImplINS_13DES_EDE2_InfoENS_11BlockCipherEE9BlockSizeEv
	.cfi_endproc

	.section	.text._ZN8CryptoPP8DES_EDE34BaseD2Ev,"axG",@progbits,_ZN8CryptoPP8DES_EDE34BaseD2Ev,comdat
	.weak	_ZN8CryptoPP8DES_EDE34BaseD2Ev 
	.p2align	4, 0x90
	.type	_ZN8CryptoPP8DES_EDE34BaseD2Ev,@function
_ZN8CryptoPP8DES_EDE34BaseD2Ev:         
.Lfunc_begin7:
	.cfi_startproc
	.cfi_personality 3, __gxx_personality_v0
	.cfi_lsda 3, .Lexception7

	push	r14
.Lcfi239:
	.cfi_def_cfa_offset 16
	push	rbx
.Lcfi240:
	.cfi_def_cfa_offset 24
	push	rax
.Lcfi241:
	.cfi_def_cfa_offset 32
.Lcfi242:
	.cfi_offset rbx, -24
.Lcfi243:
	.cfi_offset r14, -16
	mov	rbx, rdi
	mov	qword ptr [rbx], _ZTVN8CryptoPP8DES_EDE34BaseE+16
	mov	qword ptr [rbx + 8], _ZTVN8CryptoPP8DES_EDE34BaseE+184
	lea	rdi, [rbx + 336]
.Ltmp52:
	call	_ZN8CryptoPP6RawDESD2Ev
.Ltmp53:

	lea	rdi, [rbx + 176]
.Ltmp57:
	call	_ZN8CryptoPP6RawDESD2Ev
.Ltmp58:

	lea	rdi, [rbx + 16]
.Ltmp62:
	call	_ZN8CryptoPP6RawDESD2Ev
.Ltmp63:

	mov	rdi, rbx
	add	rsp, 8
	pop	rbx
	pop	r14
	jmp	_ZN8CryptoPP11BlockCipherD2Ev 
.LBB77_5:
.Ltmp64:
	mov	r14, rax
	jmp	.LBB77_8
.LBB77_6:
.Ltmp59:
	mov	r14, rax
	jmp	.LBB77_7
.LBB77_4:
.Ltmp54:
	mov	r14, rax
	lea	rdi, [rbx + 176]
.Ltmp55:
	call	_ZN8CryptoPP6RawDESD2Ev
.Ltmp56:
.LBB77_7:
	lea	rdi, [rbx + 16]
.Ltmp60:
	call	_ZN8CryptoPP6RawDESD2Ev
.Ltmp61:
.LBB77_8:
.Ltmp65:
	mov	rdi, rbx
	call	_ZN8CryptoPP11BlockCipherD2Ev
.Ltmp66:

	mov	rdi, r14
	call	_Unwind_Resume
.LBB77_10:
.Ltmp67:
	mov	rdi, rax
	call	__clang_call_terminate
.Lfunc_end77:
	.size	_ZN8CryptoPP8DES_EDE34BaseD2Ev, .Lfunc_end77-_ZN8CryptoPP8DES_EDE34BaseD2Ev
	.cfi_endproc
	.section	.gcc_except_table,"a",@progbits
	.p2align	2
GCC_except_table77:
.Lexception7:
	.byte	255                     
	.byte	3                       
	.asciz	"\326\200\200"          
	.byte	3                       
	.byte	78                      
	.long	.Ltmp52-.Lfunc_begin7   
	.long	.Ltmp53-.Ltmp52         
	.long	.Ltmp54-.Lfunc_begin7   
	.byte	0                       
	.long	.Ltmp57-.Lfunc_begin7   
	.long	.Ltmp58-.Ltmp57         
	.long	.Ltmp59-.Lfunc_begin7   
	.byte	0                       
	.long	.Ltmp62-.Lfunc_begin7   
	.long	.Ltmp63-.Ltmp62         
	.long	.Ltmp64-.Lfunc_begin7   
	.byte	0                       
	.long	.Ltmp63-.Lfunc_begin7   
	.long	.Ltmp55-.Ltmp63         
	.long	0                       
	.byte	0                       
	.long	.Ltmp55-.Lfunc_begin7   
	.long	.Ltmp66-.Ltmp55         
	.long	.Ltmp67-.Lfunc_begin7   
	.byte	1                       
	.long	.Ltmp66-.Lfunc_begin7   
	.long	.Lfunc_end77-.Ltmp66    
	.long	0                       
	.byte	0                       
	.byte	1                       

	.byte	0                       

	.long	0                       
	.p2align	2

	.section	.text._ZN8CryptoPP8DES_EDE34BaseD0Ev,"axG",@progbits,_ZN8CryptoPP8DES_EDE34BaseD0Ev,comdat
	.weak	_ZN8CryptoPP8DES_EDE34BaseD0Ev 
	.p2align	4, 0x90
	.type	_ZN8CryptoPP8DES_EDE34BaseD0Ev,@function
_ZN8CryptoPP8DES_EDE34BaseD0Ev:         

	ud2
.Lfunc_end78:
	.size	_ZN8CryptoPP8DES_EDE34BaseD0Ev, .Lfunc_end78-_ZN8CryptoPP8DES_EDE34BaseD0Ev

	.section	.text._ZNK8CryptoPP25SimpleKeyingInterfaceImplINS_8TwoBasesINS_11BlockCipherENS_13DES_EDE3_InfoEEES4_E12MinKeyLengthEv,"axG",@progbits,_ZNK8CryptoPP25SimpleKeyingInterfaceImplINS_8TwoBasesINS_11BlockCipherENS_13DES_EDE3_InfoEEES4_E12MinKeyLengthEv,comdat
	.weak	_ZNK8CryptoPP25SimpleKeyingInterfaceImplINS_8TwoBasesINS_11BlockCipherENS_13DES_EDE3_InfoEEES4_E12MinKeyLengthEv 
	.p2align	4, 0x90
	.type	_ZNK8CryptoPP25SimpleKeyingInterfaceImplINS_8TwoBasesINS_11BlockCipherENS_13DES_EDE3_InfoEEES4_E12MinKeyLengthEv,@function
_ZNK8CryptoPP25SimpleKeyingInterfaceImplINS_8TwoBasesINS_11BlockCipherENS_13DES_EDE3_InfoEEES4_E12MinKeyLengthEv: 

	mov	eax, 24
	ret
.Lfunc_end79:
	.size	_ZNK8CryptoPP25SimpleKeyingInterfaceImplINS_8TwoBasesINS_11BlockCipherENS_13DES_EDE3_InfoEEES4_E12MinKeyLengthEv, .Lfunc_end79-_ZNK8CryptoPP25SimpleKeyingInterfaceImplINS_8TwoBasesINS_11BlockCipherENS_13DES_EDE3_InfoEEES4_E12MinKeyLengthEv

	.section	.text._ZNK8CryptoPP25SimpleKeyingInterfaceImplINS_8TwoBasesINS_11BlockCipherENS_13DES_EDE3_InfoEEES4_E12MaxKeyLengthEv,"axG",@progbits,_ZNK8CryptoPP25SimpleKeyingInterfaceImplINS_8TwoBasesINS_11BlockCipherENS_13DES_EDE3_InfoEEES4_E12MaxKeyLengthEv,comdat
	.weak	_ZNK8CryptoPP25SimpleKeyingInterfaceImplINS_8TwoBasesINS_11BlockCipherENS_13DES_EDE3_InfoEEES4_E12MaxKeyLengthEv 
	.p2align	4, 0x90
	.type	_ZNK8CryptoPP25SimpleKeyingInterfaceImplINS_8TwoBasesINS_11BlockCipherENS_13DES_EDE3_InfoEEES4_E12MaxKeyLengthEv,@function
_ZNK8CryptoPP25SimpleKeyingInterfaceImplINS_8TwoBasesINS_11BlockCipherENS_13DES_EDE3_InfoEEES4_E12MaxKeyLengthEv: 

	mov	eax, dword ptr [rip + x.153]
	mov	ecx, dword ptr [rip + y.154]
	mov	edx, eax
	neg	edx
	not	edx
	imul	edx, eax
	mov	eax, edx
	xor	eax, -2
	and	eax, edx
	sete	dl
	sete	byte ptr [rsp - 2]
	test	eax, eax
	mov	esi, 748155619
	mov	edi, 1640374838
	mov	eax, 1640374838
	cmove	eax, esi
	cmp	ecx, 10
	setl	cl
	setl	byte ptr [rsp - 1]
	cmovge	eax, edi
	xor	cl, dl
	cmovne	eax, esi
	mov	edx, -717845586
	mov	esi, 613191294
	jmp	.LBB80_1
.LBB80_4:                               
	mov	edx, eax
	.p2align	4, 0x90
.LBB80_1:                               
	cmp	edx, 748155618
	jg	.LBB80_5

	cmp	edx, -717845586
	je	.LBB80_8

	cmp	edx, 613191294
	jne	.LBB80_1
	jmp	.LBB80_4
	.p2align	4, 0x90
.LBB80_5:                               
	cmp	edx, 748155619
	je	.LBB80_9

	cmp	edx, 1640374838
	jne	.LBB80_1

	mov	edx, 613191294
	jmp	.LBB80_1
.LBB80_8:                               
	movzx	edi, byte ptr [rsp - 2]
	movzx	edx, byte ptr [rsp - 1]
	mov	ecx, edi
	xor	cl, dl
	mov	ecx, 1640374838
	cmovne	ecx, esi
	test	dl, dl
	mov	edx, ecx
	cmovne	edx, esi
	test	dil, dil
	cmove	edx, ecx
	jmp	.LBB80_1
.LBB80_9:
	mov	eax, 24
	ret
.Lfunc_end80:
	.size	_ZNK8CryptoPP25SimpleKeyingInterfaceImplINS_8TwoBasesINS_11BlockCipherENS_13DES_EDE3_InfoEEES4_E12MaxKeyLengthEv, .Lfunc_end80-_ZNK8CryptoPP25SimpleKeyingInterfaceImplINS_8TwoBasesINS_11BlockCipherENS_13DES_EDE3_InfoEEES4_E12MaxKeyLengthEv

	.section	.text._ZNK8CryptoPP25SimpleKeyingInterfaceImplINS_8TwoBasesINS_11BlockCipherENS_13DES_EDE3_InfoEEES4_E16DefaultKeyLengthEv,"axG",@progbits,_ZNK8CryptoPP25SimpleKeyingInterfaceImplINS_8TwoBasesINS_11BlockCipherENS_13DES_EDE3_InfoEEES4_E16DefaultKeyLengthEv,comdat
	.weak	_ZNK8CryptoPP25SimpleKeyingInterfaceImplINS_8TwoBasesINS_11BlockCipherENS_13DES_EDE3_InfoEEES4_E16DefaultKeyLengthEv 
	.p2align	4, 0x90
	.type	_ZNK8CryptoPP25SimpleKeyingInterfaceImplINS_8TwoBasesINS_11BlockCipherENS_13DES_EDE3_InfoEEES4_E16DefaultKeyLengthEv,@function
_ZNK8CryptoPP25SimpleKeyingInterfaceImplINS_8TwoBasesINS_11BlockCipherENS_13DES_EDE3_InfoEEES4_E16DefaultKeyLengthEv: 

	mov	eax, dword ptr [rip + x.155]
	mov	ecx, dword ptr [rip + y.156]
	lea	edx, [rax - 1]
	imul	edx, eax
	mov	esi, edx
	xor	esi, -2
	and	esi, edx
	sete	byte ptr [rsp - 2]
	sete	al
	cmp	ecx, 10
	setl	dl
	xor	dl, al
	mov	eax, -239632467
	mov	edx, 1257899897
	cmovne	edx, eax
	test	esi, esi
	cmovne	eax, edx
	cmp	ecx, 10
	setl	byte ptr [rsp - 1]
	cmovge	eax, edx
	mov	edx, -1878333783
	mov	esi, -943446562
	jmp	.LBB81_1
.LBB81_4:                               
	mov	edx, eax
	.p2align	4, 0x90
.LBB81_1:                               
	cmp	edx, -239632468
	jg	.LBB81_5

	cmp	edx, -1878333783
	je	.LBB81_8

	cmp	edx, -943446562
	jne	.LBB81_1
	jmp	.LBB81_4
	.p2align	4, 0x90
.LBB81_5:                               
	cmp	edx, -239632467
	je	.LBB81_9

	cmp	edx, 1257899897
	jne	.LBB81_1

	mov	edx, -943446562
	jmp	.LBB81_1
.LBB81_8:                               
	movzx	edi, byte ptr [rsp - 2]
	movzx	edx, byte ptr [rsp - 1]
	mov	ecx, edi
	xor	cl, dl
	mov	ecx, 1257899897
	cmovne	ecx, esi
	test	dl, dl
	mov	edx, ecx
	cmovne	edx, esi
	test	dil, dil
	cmove	edx, ecx
	jmp	.LBB81_1
.LBB81_9:
	mov	eax, 24
	ret
.Lfunc_end81:
	.size	_ZNK8CryptoPP25SimpleKeyingInterfaceImplINS_8TwoBasesINS_11BlockCipherENS_13DES_EDE3_InfoEEES4_E16DefaultKeyLengthEv, .Lfunc_end81-_ZNK8CryptoPP25SimpleKeyingInterfaceImplINS_8TwoBasesINS_11BlockCipherENS_13DES_EDE3_InfoEEES4_E16DefaultKeyLengthEv

	.section	.text._ZNK8CryptoPP25SimpleKeyingInterfaceImplINS_8TwoBasesINS_11BlockCipherENS_13DES_EDE3_InfoEEES4_E17GetValidKeyLengthEm,"axG",@progbits,_ZNK8CryptoPP25SimpleKeyingInterfaceImplINS_8TwoBasesINS_11BlockCipherENS_13DES_EDE3_InfoEEES4_E17GetValidKeyLengthEm,comdat
	.weak	_ZNK8CryptoPP25SimpleKeyingInterfaceImplINS_8TwoBasesINS_11BlockCipherENS_13DES_EDE3_InfoEEES4_E17GetValidKeyLengthEm 
	.p2align	4, 0x90
	.type	_ZNK8CryptoPP25SimpleKeyingInterfaceImplINS_8TwoBasesINS_11BlockCipherENS_13DES_EDE3_InfoEEES4_E17GetValidKeyLengthEm,@function
_ZNK8CryptoPP25SimpleKeyingInterfaceImplINS_8TwoBasesINS_11BlockCipherENS_13DES_EDE3_InfoEEES4_E17GetValidKeyLengthEm: 
	.cfi_startproc

	mov	rdi, rsi
	jmp	_ZN8CryptoPP14FixedKeyLengthILj24ELj4ELj0EE23StaticGetValidKeyLengthEm 
.Lfunc_end82:
	.size	_ZNK8CryptoPP25SimpleKeyingInterfaceImplINS_8TwoBasesINS_11BlockCipherENS_13DES_EDE3_InfoEEES4_E17GetValidKeyLengthEm, .Lfunc_end82-_ZNK8CryptoPP25SimpleKeyingInterfaceImplINS_8TwoBasesINS_11BlockCipherENS_13DES_EDE3_InfoEEES4_E17GetValidKeyLengthEm
	.cfi_endproc

	.section	.text._ZNK8CryptoPP25SimpleKeyingInterfaceImplINS_8TwoBasesINS_11BlockCipherENS_13DES_EDE3_InfoEEES4_E13IVRequirementEv,"axG",@progbits,_ZNK8CryptoPP25SimpleKeyingInterfaceImplINS_8TwoBasesINS_11BlockCipherENS_13DES_EDE3_InfoEEES4_E13IVRequirementEv,comdat
	.weak	_ZNK8CryptoPP25SimpleKeyingInterfaceImplINS_8TwoBasesINS_11BlockCipherENS_13DES_EDE3_InfoEEES4_E13IVRequirementEv 
	.p2align	4, 0x90
	.type	_ZNK8CryptoPP25SimpleKeyingInterfaceImplINS_8TwoBasesINS_11BlockCipherENS_13DES_EDE3_InfoEEES4_E13IVRequirementEv,@function
_ZNK8CryptoPP25SimpleKeyingInterfaceImplINS_8TwoBasesINS_11BlockCipherENS_13DES_EDE3_InfoEEES4_E13IVRequirementEv: 

	mov	eax, dword ptr [rip + x.159]
	mov	ecx, dword ptr [rip + y.160]
	mov	edx, eax
	neg	edx
	not	edx
	imul	edx, eax
	mov	esi, edx
	xor	esi, -2
	and	esi, edx
	sete	byte ptr [rsp - 2]
	sete	al
	cmp	ecx, 10
	setl	dl
	xor	dl, al
	mov	edi, -1642881591
	mov	edx, -850471519
	cmovne	edx, edi
	test	esi, esi
	cmovne	edi, edx
	cmp	ecx, 10
	setl	byte ptr [rsp - 1]
	mov	r8d, -850471519
	cmovge	edi, edx
	mov	esi, 887643041
	mov	r9d, 473437576
	jmp	.LBB83_1
.LBB83_6:                               
	mov	esi, edi
	.p2align	4, 0x90
.LBB83_1:                               
	cmp	esi, 473437575
	jg	.LBB83_5

	cmp	esi, -1642881591
	je	.LBB83_9

	cmp	esi, -850471519
	jne	.LBB83_1

	mov	esi, 473437576
	jmp	.LBB83_1
	.p2align	4, 0x90
.LBB83_5:                               
	cmp	esi, 473437576
	je	.LBB83_6

	cmp	esi, 887643041
	jne	.LBB83_1

	movzx	eax, byte ptr [rsp - 2]
	movzx	edx, byte ptr [rsp - 1]
	mov	ecx, eax
	xor	cl, dl
	test	dl, dl
	mov	esi, -850471519
	cmovne	esi, r9d
	test	al, al
	cmove	esi, r8d
	test	cl, cl
	cmovne	esi, r9d
	jmp	.LBB83_1
.LBB83_9:
	mov	eax, 4
	ret
.Lfunc_end83:
	.size	_ZNK8CryptoPP25SimpleKeyingInterfaceImplINS_8TwoBasesINS_11BlockCipherENS_13DES_EDE3_InfoEEES4_E13IVRequirementEv, .Lfunc_end83-_ZNK8CryptoPP25SimpleKeyingInterfaceImplINS_8TwoBasesINS_11BlockCipherENS_13DES_EDE3_InfoEEES4_E13IVRequirementEv

	.section	.text._ZNK8CryptoPP25SimpleKeyingInterfaceImplINS_8TwoBasesINS_11BlockCipherENS_13DES_EDE3_InfoEEES4_E6IVSizeEv,"axG",@progbits,_ZNK8CryptoPP25SimpleKeyingInterfaceImplINS_8TwoBasesINS_11BlockCipherENS_13DES_EDE3_InfoEEES4_E6IVSizeEv,comdat
	.weak	_ZNK8CryptoPP25SimpleKeyingInterfaceImplINS_8TwoBasesINS_11BlockCipherENS_13DES_EDE3_InfoEEES4_E6IVSizeEv 
	.p2align	4, 0x90
	.type	_ZNK8CryptoPP25SimpleKeyingInterfaceImplINS_8TwoBasesINS_11BlockCipherENS_13DES_EDE3_InfoEEES4_E6IVSizeEv,@function
_ZNK8CryptoPP25SimpleKeyingInterfaceImplINS_8TwoBasesINS_11BlockCipherENS_13DES_EDE3_InfoEEES4_E6IVSizeEv: 

	mov	eax, dword ptr [rip + x.161]
	mov	ecx, dword ptr [rip + y.162]
	lea	edx, [rax - 1]
	imul	edx, eax
	mov	esi, edx
	xor	esi, -2
	and	esi, edx
	sete	byte ptr [rsp - 2]
	sete	al
	cmp	ecx, 10
	setl	dl
	xor	dl, al
	mov	edi, -911297617
	mov	edx, -169830049
	cmovne	edx, edi
	test	esi, esi
	cmovne	edi, edx
	cmp	ecx, 10
	setl	byte ptr [rsp - 1]
	mov	r8d, -169830049
	cmovge	edi, edx
	mov	esi, -656932377
	mov	r9d, 1445882283
	jmp	.LBB84_1
.LBB84_7:                               
	mov	esi, edi
	.p2align	4, 0x90
.LBB84_1:                               
	cmp	esi, -169830050
	jg	.LBB84_5

	cmp	esi, -911297617
	je	.LBB84_8

	cmp	esi, -656932377
	jne	.LBB84_1

	movzx	eax, byte ptr [rsp - 2]
	movzx	edx, byte ptr [rsp - 1]
	mov	ecx, eax
	xor	cl, dl
	test	dl, dl
	mov	esi, -169830049
	cmovne	esi, r9d
	test	al, al
	cmove	esi, r8d
	test	cl, cl
	cmovne	esi, r9d
	jmp	.LBB84_1
	.p2align	4, 0x90
.LBB84_5:                               
	cmp	esi, -169830049
	je	.LBB84_9

	cmp	esi, 1445882283
	jne	.LBB84_1
	jmp	.LBB84_7
.LBB84_9:                               
	mov	esi, 1445882283
	jmp	.LBB84_1
.LBB84_8:
	xor	eax, eax
	ret
.Lfunc_end84:
	.size	_ZNK8CryptoPP25SimpleKeyingInterfaceImplINS_8TwoBasesINS_11BlockCipherENS_13DES_EDE3_InfoEEES4_E6IVSizeEv, .Lfunc_end84-_ZNK8CryptoPP25SimpleKeyingInterfaceImplINS_8TwoBasesINS_11BlockCipherENS_13DES_EDE3_InfoEEES4_E6IVSizeEv

	.section	.text._ZNK8CryptoPP13AlgorithmImplINS_25SimpleKeyingInterfaceImplINS_8TwoBasesINS_11BlockCipherENS_13DES_EDE3_InfoEEES5_EES6_E13AlgorithmNameB5cxx11Ev,"axG",@progbits,_ZNK8CryptoPP13AlgorithmImplINS_25SimpleKeyingInterfaceImplINS_8TwoBasesINS_11BlockCipherENS_13DES_EDE3_InfoEEES5_EES6_E13AlgorithmNameB5cxx11Ev,comdat
	.weak	_ZNK8CryptoPP13AlgorithmImplINS_25SimpleKeyingInterfaceImplINS_8TwoBasesINS_11BlockCipherENS_13DES_EDE3_InfoEEES5_EES6_E13AlgorithmNameB5cxx11Ev 
	.p2align	4, 0x90
	.type	_ZNK8CryptoPP13AlgorithmImplINS_25SimpleKeyingInterfaceImplINS_8TwoBasesINS_11BlockCipherENS_13DES_EDE3_InfoEEES5_EES6_E13AlgorithmNameB5cxx11Ev,@function
_ZNK8CryptoPP13AlgorithmImplINS_25SimpleKeyingInterfaceImplINS_8TwoBasesINS_11BlockCipherENS_13DES_EDE3_InfoEEES5_EES6_E13AlgorithmNameB5cxx11Ev: 
.Lfunc_begin8:
	.cfi_startproc
	.cfi_personality 3, __gxx_personality_v0
	.cfi_lsda 3, .Lexception8

	push	r15
.Lcfi244:
	.cfi_def_cfa_offset 16
	push	r14
.Lcfi245:
	.cfi_def_cfa_offset 24
	push	rbx
.Lcfi246:
	.cfi_def_cfa_offset 32
	sub	rsp, 16
.Lcfi247:
	.cfi_def_cfa_offset 48
.Lcfi248:
	.cfi_offset rbx, -32
.Lcfi249:
	.cfi_offset r14, -24
.Lcfi250:
	.cfi_offset r15, -16
	mov	r14, rdi
	call	_ZN8CryptoPP13DES_EDE3_Info19StaticAlgorithmNameEv
	mov	rbx, rax
	lea	r15, [rsp + 8]
	mov	rdi, r15
	call	_ZNSaIcEC2Ev
.Ltmp68:
	mov	rdi, r14
	mov	rsi, rbx
	mov	rdx, r15
	call	_ZNSt7__cxx1112basic_stringIcSt11char_traitsIcESaIcEEC2EPKcRKS3_
.Ltmp69:

	lea	rdi, [rsp + 8]
	call	_ZNSaIcED2Ev
	mov	rax, r14
	add	rsp, 16
	pop	rbx
	pop	r14
	pop	r15
	ret
.LBB85_2:
.Ltmp70:
	mov	rbx, rax
	lea	rdi, [rsp + 8]
	call	_ZNSaIcED2Ev
	mov	rdi, rbx
	call	_Unwind_Resume
.Lfunc_end85:
	.size	_ZNK8CryptoPP13AlgorithmImplINS_25SimpleKeyingInterfaceImplINS_8TwoBasesINS_11BlockCipherENS_13DES_EDE3_InfoEEES5_EES6_E13AlgorithmNameB5cxx11Ev, .Lfunc_end85-_ZNK8CryptoPP13AlgorithmImplINS_25SimpleKeyingInterfaceImplINS_8TwoBasesINS_11BlockCipherENS_13DES_EDE3_InfoEEES5_EES6_E13AlgorithmNameB5cxx11Ev
	.cfi_endproc
	.section	.gcc_except_table,"a",@progbits
	.p2align	2
GCC_except_table85:
.Lexception8:
	.byte	255                     
	.byte	3                       
	.asciz	"\234"                  
	.byte	3                       
	.byte	26                      
	.long	.Ltmp68-.Lfunc_begin8   
	.long	.Ltmp69-.Ltmp68         
	.long	.Ltmp70-.Lfunc_begin8   
	.byte	0                       
	.long	.Ltmp69-.Lfunc_begin8   
	.long	.Lfunc_end85-.Ltmp69    
	.long	0                       
	.byte	0                       
	.p2align	2

	.section	.text._ZNK8CryptoPP15BlockCipherImplINS_13DES_EDE3_InfoENS_11BlockCipherEE9BlockSizeEv,"axG",@progbits,_ZNK8CryptoPP15BlockCipherImplINS_13DES_EDE3_InfoENS_11BlockCipherEE9BlockSizeEv,comdat
	.weak	_ZNK8CryptoPP15BlockCipherImplINS_13DES_EDE3_InfoENS_11BlockCipherEE9BlockSizeEv 
	.p2align	4, 0x90
	.type	_ZNK8CryptoPP15BlockCipherImplINS_13DES_EDE3_InfoENS_11BlockCipherEE9BlockSizeEv,@function
_ZNK8CryptoPP15BlockCipherImplINS_13DES_EDE3_InfoENS_11BlockCipherEE9BlockSizeEv: 

	mov	eax, dword ptr [rip + x.163]
	mov	esi, dword ptr [rip + y.164]
	mov	ecx, eax
	neg	ecx
	not	ecx
	imul	ecx, eax
	mov	eax, ecx
	xor	eax, -2
	and	eax, ecx
	sete	dl
	sete	byte ptr [rsp - 2]
	test	eax, eax
	mov	edi, 28466980
	mov	r8d, -736211000
	mov	ecx, -736211000
	cmove	ecx, edi
	cmp	esi, 10
	setl	al
	setl	byte ptr [rsp - 1]
	cmovge	ecx, r8d
	xor	al, dl
	cmovne	ecx, edi
	mov	esi, 2095557480
	mov	edi, -21062035
	jmp	.LBB86_1
.LBB86_4:                               
	mov	esi, ecx
	.p2align	4, 0x90
.LBB86_1:                               
	cmp	esi, 28466979
	jg	.LBB86_5

	cmp	esi, -736211000
	je	.LBB86_9

	cmp	esi, -21062035
	jne	.LBB86_1
	jmp	.LBB86_4
	.p2align	4, 0x90
.LBB86_5:                               
	cmp	esi, 28466980
	je	.LBB86_8

	cmp	esi, 2095557480
	jne	.LBB86_1

	movzx	r9d, byte ptr [rsp - 2]
	movzx	edx, byte ptr [rsp - 1]
	mov	eax, r9d
	xor	al, dl
	test	dl, dl
	mov	esi, -736211000
	cmovne	esi, edi
	test	r9b, r9b
	cmove	esi, r8d
	test	al, al
	cmovne	esi, edi
	jmp	.LBB86_1
.LBB86_9:                               
	mov	esi, -21062035
	jmp	.LBB86_1
.LBB86_8:
	mov	eax, 8
	ret
.Lfunc_end86:
	.size	_ZNK8CryptoPP15BlockCipherImplINS_13DES_EDE3_InfoENS_11BlockCipherEE9BlockSizeEv, .Lfunc_end86-_ZNK8CryptoPP15BlockCipherImplINS_13DES_EDE3_InfoENS_11BlockCipherEE9BlockSizeEv

	.section	.text._ZThn8_N8CryptoPP8DES_EDE34BaseD1Ev,"axG",@progbits,_ZThn8_N8CryptoPP8DES_EDE34BaseD1Ev,comdat
	.weak	_ZThn8_N8CryptoPP8DES_EDE34BaseD1Ev 
	.p2align	4, 0x90
	.type	_ZThn8_N8CryptoPP8DES_EDE34BaseD1Ev,@function
_ZThn8_N8CryptoPP8DES_EDE34BaseD1Ev:    
	.cfi_startproc

	add	rdi, -8
	jmp	_ZN8CryptoPP8DES_EDE34BaseD2Ev 
.Lfunc_end87:
	.size	_ZThn8_N8CryptoPP8DES_EDE34BaseD1Ev, .Lfunc_end87-_ZThn8_N8CryptoPP8DES_EDE34BaseD1Ev
	.cfi_endproc

	.section	.text._ZThn8_N8CryptoPP8DES_EDE34BaseD0Ev,"axG",@progbits,_ZThn8_N8CryptoPP8DES_EDE34BaseD0Ev,comdat
	.weak	_ZThn8_N8CryptoPP8DES_EDE34BaseD0Ev 
	.p2align	4, 0x90
	.type	_ZThn8_N8CryptoPP8DES_EDE34BaseD0Ev,@function
_ZThn8_N8CryptoPP8DES_EDE34BaseD0Ev:    
	.cfi_startproc

	add	rdi, -8
	jmp	_ZN8CryptoPP8DES_EDE34BaseD0Ev 
.Lfunc_end88:
	.size	_ZThn8_N8CryptoPP8DES_EDE34BaseD0Ev, .Lfunc_end88-_ZThn8_N8CryptoPP8DES_EDE34BaseD0Ev
	.cfi_endproc

	.section	.text._ZThn8_NK8CryptoPP13AlgorithmImplINS_25SimpleKeyingInterfaceImplINS_8TwoBasesINS_11BlockCipherENS_13DES_EDE3_InfoEEES5_EES6_E13AlgorithmNameB5cxx11Ev,"axG",@progbits,_ZThn8_NK8CryptoPP13AlgorithmImplINS_25SimpleKeyingInterfaceImplINS_8TwoBasesINS_11BlockCipherENS_13DES_EDE3_InfoEEES5_EES6_E13AlgorithmNameB5cxx11Ev,comdat
	.weak	_ZThn8_NK8CryptoPP13AlgorithmImplINS_25SimpleKeyingInterfaceImplINS_8TwoBasesINS_11BlockCipherENS_13DES_EDE3_InfoEEES5_EES6_E13AlgorithmNameB5cxx11Ev 
	.p2align	4, 0x90
	.type	_ZThn8_NK8CryptoPP13AlgorithmImplINS_25SimpleKeyingInterfaceImplINS_8TwoBasesINS_11BlockCipherENS_13DES_EDE3_InfoEEES5_EES6_E13AlgorithmNameB5cxx11Ev,@function
_ZThn8_NK8CryptoPP13AlgorithmImplINS_25SimpleKeyingInterfaceImplINS_8TwoBasesINS_11BlockCipherENS_13DES_EDE3_InfoEEES5_EES6_E13AlgorithmNameB5cxx11Ev: 
	.cfi_startproc

	push	rbx
.Lcfi251:
	.cfi_def_cfa_offset 16
.Lcfi252:
	.cfi_offset rbx, -16
	mov	rbx, rdi
	add	rsi, -8
	call	_ZNK8CryptoPP13AlgorithmImplINS_25SimpleKeyingInterfaceImplINS_8TwoBasesINS_11BlockCipherENS_13DES_EDE3_InfoEEES5_EES6_E13AlgorithmNameB5cxx11Ev
	mov	rax, rbx
	pop	rbx
	ret
.Lfunc_end89:
	.size	_ZThn8_NK8CryptoPP13AlgorithmImplINS_25SimpleKeyingInterfaceImplINS_8TwoBasesINS_11BlockCipherENS_13DES_EDE3_InfoEEES5_EES6_E13AlgorithmNameB5cxx11Ev, .Lfunc_end89-_ZThn8_NK8CryptoPP13AlgorithmImplINS_25SimpleKeyingInterfaceImplINS_8TwoBasesINS_11BlockCipherENS_13DES_EDE3_InfoEEES5_EES6_E13AlgorithmNameB5cxx11Ev
	.cfi_endproc

	.section	.text._ZThn8_NK8CryptoPP15BlockCipherImplINS_13DES_EDE3_InfoENS_11BlockCipherEE9BlockSizeEv,"axG",@progbits,_ZThn8_NK8CryptoPP15BlockCipherImplINS_13DES_EDE3_InfoENS_11BlockCipherEE9BlockSizeEv,comdat
	.weak	_ZThn8_NK8CryptoPP15BlockCipherImplINS_13DES_EDE3_InfoENS_11BlockCipherEE9BlockSizeEv 
	.p2align	4, 0x90
	.type	_ZThn8_NK8CryptoPP15BlockCipherImplINS_13DES_EDE3_InfoENS_11BlockCipherEE9BlockSizeEv,@function
_ZThn8_NK8CryptoPP15BlockCipherImplINS_13DES_EDE3_InfoENS_11BlockCipherEE9BlockSizeEv: 
	.cfi_startproc

	push	rbp
.Lcfi253:
	.cfi_def_cfa_offset 16
	push	r15
.Lcfi254:
	.cfi_def_cfa_offset 24
	push	r14
.Lcfi255:
	.cfi_def_cfa_offset 32
	push	rbx
.Lcfi256:
	.cfi_def_cfa_offset 40
	push	rax
.Lcfi257:
	.cfi_def_cfa_offset 48
.Lcfi258:
	.cfi_offset rbx, -40
.Lcfi259:
	.cfi_offset r14, -32
.Lcfi260:
	.cfi_offset r15, -24
.Lcfi261:
	.cfi_offset rbp, -16
	mov	rbx, rdi
	mov	eax, dword ptr [rip + x.171]
	mov	ecx, dword ptr [rip + y.172]
	mov	edx, eax
	neg	edx
	not	edx
	imul	edx, eax
	not	edx
	or	edx, -2
	cmp	edx, -1
	sete	byte ptr [rsp + 2]
	cmp	ecx, 10
	setl	byte ptr [rsp + 3]
	add	rbx, -8
	mov	eax, -1528636879
	mov	r14d, 945907783
	mov	r15d, -983396959
	mov	ebp, -1759458566
	jmp	.LBB90_1
.LBB90_4:                               
	movzx	ecx, byte ptr [rsp + 2]
	movzx	eax, byte ptr [rsp + 3]
	mov	edx, ecx
	xor	dl, al
	test	al, al
	mov	eax, -983396959
	cmovne	eax, ebp
	test	cl, cl
	cmove	eax, r15d
	test	dl, dl
	cmovne	eax, ebp
	.p2align	4, 0x90
.LBB90_1:                               
	cmp	eax, -983396960
	jle	.LBB90_2

	cmp	eax, -983396959
	je	.LBB90_8

	cmp	eax, 945907783
	jne	.LBB90_1
	jmp	.LBB90_7
	.p2align	4, 0x90
.LBB90_2:                               
	cmp	eax, -1759458566
	je	.LBB90_9

	cmp	eax, -1528636879
	jne	.LBB90_1
	jmp	.LBB90_4
.LBB90_8:                               
	mov	rdi, rbx
	call	_ZNK8CryptoPP15BlockCipherImplINS_13DES_EDE3_InfoENS_11BlockCipherEE9BlockSizeEv
	mov	eax, -1759458566
	jmp	.LBB90_1
.LBB90_9:                               
	mov	rdi, rbx
	call	_ZNK8CryptoPP15BlockCipherImplINS_13DES_EDE3_InfoENS_11BlockCipherEE9BlockSizeEv
	mov	dword ptr [rsp + 4], eax
	mov	eax, dword ptr [rip + x.171]
	mov	ecx, eax
	neg	ecx
	not	ecx
	imul	ecx, eax
	not	ecx
	or	ecx, -2
	cmp	ecx, -1
	sete	cl
	mov	eax, -983396959
	cmove	eax, r14d
	cmp	dword ptr [rip + y.172], 10
	setl	dl
	cmovge	eax, r15d
	xor	dl, cl
	cmovne	eax, r14d
	jmp	.LBB90_1
.LBB90_7:
	mov	eax, dword ptr [rsp + 4]
	add	rsp, 8
	pop	rbx
	pop	r14
	pop	r15
	pop	rbp
	ret
.Lfunc_end90:
	.size	_ZThn8_NK8CryptoPP15BlockCipherImplINS_13DES_EDE3_InfoENS_11BlockCipherEE9BlockSizeEv, .Lfunc_end90-_ZThn8_NK8CryptoPP15BlockCipherImplINS_13DES_EDE3_InfoENS_11BlockCipherEE9BlockSizeEv
	.cfi_endproc

	.section	.text._ZN8CryptoPP8DES_XEX34BaseD2Ev,"axG",@progbits,_ZN8CryptoPP8DES_XEX34BaseD2Ev,comdat
	.weak	_ZN8CryptoPP8DES_XEX34BaseD2Ev 
	.p2align	4, 0x90
	.type	_ZN8CryptoPP8DES_XEX34BaseD2Ev,@function
_ZN8CryptoPP8DES_XEX34BaseD2Ev:         
.Lfunc_begin9:
	.cfi_startproc
	.cfi_personality 3, __gxx_personality_v0
	.cfi_lsda 3, .Lexception9

	push	r14
.Lcfi262:
	.cfi_def_cfa_offset 16
	push	rbx
.Lcfi263:
	.cfi_def_cfa_offset 24
	push	rax
.Lcfi264:
	.cfi_def_cfa_offset 32
.Lcfi265:
	.cfi_offset rbx, -24
.Lcfi266:
	.cfi_offset r14, -16
	mov	rbx, rdi
	mov	qword ptr [rbx], _ZTVN8CryptoPP8DES_XEX34BaseE+16
	mov	qword ptr [rbx + 8], _ZTVN8CryptoPP8DES_XEX34BaseE+184
	lea	rdi, [rbx + 96]
.Ltmp71:
	call	_ZN8CryptoPP10member_ptrINS_16BlockCipherFinalILNS_9CipherDirE0ENS_3DES4BaseEEEED2Ev
.Ltmp72:

	lea	rdi, [rbx + 56]
.Ltmp76:
	call	_ZN8CryptoPP8SecBlockIhNS_29FixedSizeAllocatorWithCleanupIhLm8ENS_13NullAllocatorIhEELb0EEEED2Ev
.Ltmp77:

	lea	rdi, [rbx + 16]
.Ltmp81:
	call	_ZN8CryptoPP8SecBlockIhNS_29FixedSizeAllocatorWithCleanupIhLm8ENS_13NullAllocatorIhEELb0EEEED2Ev
.Ltmp82:

	mov	rdi, rbx
	add	rsp, 8
	pop	rbx
	pop	r14
	jmp	_ZN8CryptoPP11BlockCipherD2Ev 
.LBB91_5:
.Ltmp83:
	mov	r14, rax
	jmp	.LBB91_8
.LBB91_6:
.Ltmp78:
	mov	r14, rax
	jmp	.LBB91_7
.LBB91_4:
.Ltmp73:
	mov	r14, rax
	lea	rdi, [rbx + 56]
.Ltmp74:
	call	_ZN8CryptoPP8SecBlockIhNS_29FixedSizeAllocatorWithCleanupIhLm8ENS_13NullAllocatorIhEELb0EEEED2Ev
.Ltmp75:
.LBB91_7:
	lea	rdi, [rbx + 16]
.Ltmp79:
	call	_ZN8CryptoPP8SecBlockIhNS_29FixedSizeAllocatorWithCleanupIhLm8ENS_13NullAllocatorIhEELb0EEEED2Ev
.Ltmp80:
.LBB91_8:
.Ltmp84:
	mov	rdi, rbx
	call	_ZN8CryptoPP11BlockCipherD2Ev
.Ltmp85:

	mov	rdi, r14
	call	_Unwind_Resume
.LBB91_10:
.Ltmp86:
	mov	rdi, rax
	call	__clang_call_terminate
.Lfunc_end91:
	.size	_ZN8CryptoPP8DES_XEX34BaseD2Ev, .Lfunc_end91-_ZN8CryptoPP8DES_XEX34BaseD2Ev
	.cfi_endproc
	.section	.gcc_except_table,"a",@progbits
	.p2align	2
GCC_except_table91:
.Lexception9:
	.byte	255                     
	.byte	3                       
	.asciz	"\326\200\200"          
	.byte	3                       
	.byte	78                      
	.long	.Ltmp71-.Lfunc_begin9   
	.long	.Ltmp72-.Ltmp71         
	.long	.Ltmp73-.Lfunc_begin9   
	.byte	0                       
	.long	.Ltmp76-.Lfunc_begin9   
	.long	.Ltmp77-.Ltmp76         
	.long	.Ltmp78-.Lfunc_begin9   
	.byte	0                       
	.long	.Ltmp81-.Lfunc_begin9   
	.long	.Ltmp82-.Ltmp81         
	.long	.Ltmp83-.Lfunc_begin9   
	.byte	0                       
	.long	.Ltmp82-.Lfunc_begin9   
	.long	.Ltmp74-.Ltmp82         
	.long	0                       
	.byte	0                       
	.long	.Ltmp74-.Lfunc_begin9   
	.long	.Ltmp85-.Ltmp74         
	.long	.Ltmp86-.Lfunc_begin9   
	.byte	1                       
	.long	.Ltmp85-.Lfunc_begin9   
	.long	.Lfunc_end91-.Ltmp85    
	.long	0                       
	.byte	0                       
	.byte	1                       

	.byte	0                       

	.long	0                       
	.p2align	2

	.section	.text._ZN8CryptoPP8DES_XEX34BaseD0Ev,"axG",@progbits,_ZN8CryptoPP8DES_XEX34BaseD0Ev,comdat
	.weak	_ZN8CryptoPP8DES_XEX34BaseD0Ev 
	.p2align	4, 0x90
	.type	_ZN8CryptoPP8DES_XEX34BaseD0Ev,@function
_ZN8CryptoPP8DES_XEX34BaseD0Ev:         

	mov	eax, dword ptr [rip + x.173]
	mov	ecx, dword ptr [rip + y.174]
	lea	edx, [rax - 1]
	imul	edx, eax
	mov	eax, edx
	xor	eax, -2
	test	eax, edx
	sete	byte ptr [rsp - 2]
	cmp	ecx, 10
	setl	byte ptr [rsp - 1]
	mov	ecx, -677122264
	mov	esi, -505201534
	jmp	.LBB92_1
	.p2align	4, 0x90
.LBB92_5:                               
	movzx	eax, byte ptr [rsp - 2]
	movzx	ecx, byte ptr [rsp - 1]
	mov	edx, eax
	xor	dl, cl
	mov	edx, 411980313
	cmovne	edx, esi
	test	cl, cl
	mov	ecx, edx
	cmovne	ecx, esi
	test	al, al
	cmove	ecx, edx
.LBB92_1:                               
	cmp	ecx, -677122264
	je	.LBB92_5

	cmp	ecx, -505201534
	je	.LBB92_4

	cmp	ecx, 411980313
	jne	.LBB92_1
.LBB92_4:
	ud2
.Lfunc_end92:
	.size	_ZN8CryptoPP8DES_XEX34BaseD0Ev, .Lfunc_end92-_ZN8CryptoPP8DES_XEX34BaseD0Ev

	.section	.text._ZNK8CryptoPP25SimpleKeyingInterfaceImplINS_8TwoBasesINS_11BlockCipherENS_13DES_XEX3_InfoEEES4_E12MinKeyLengthEv,"axG",@progbits,_ZNK8CryptoPP25SimpleKeyingInterfaceImplINS_8TwoBasesINS_11BlockCipherENS_13DES_XEX3_InfoEEES4_E12MinKeyLengthEv,comdat
	.weak	_ZNK8CryptoPP25SimpleKeyingInterfaceImplINS_8TwoBasesINS_11BlockCipherENS_13DES_XEX3_InfoEEES4_E12MinKeyLengthEv 
	.p2align	4, 0x90
	.type	_ZNK8CryptoPP25SimpleKeyingInterfaceImplINS_8TwoBasesINS_11BlockCipherENS_13DES_XEX3_InfoEEES4_E12MinKeyLengthEv,@function
_ZNK8CryptoPP25SimpleKeyingInterfaceImplINS_8TwoBasesINS_11BlockCipherENS_13DES_XEX3_InfoEEES4_E12MinKeyLengthEv: 

	mov	eax, dword ptr [rip + x.175]
	mov	esi, dword ptr [rip + y.176]
	lea	edx, [rax - 1]
	imul	edx, eax
	not	edx
	or	edx, -2
	cmp	edx, -1
	sete	al
	cmp	esi, 10
	setl	cl
	xor	cl, al
	mov	r9d, 1512890928
	mov	edi, 1785649514
	cmovne	edi, r9d
	cmp	edx, -1
	sete	byte ptr [rsp - 2]
	cmovne	r9d, edi
	cmp	esi, 10
	setl	byte ptr [rsp - 1]
	mov	r8d, 1785649514
	cmovge	r9d, edi
	mov	esi, -1148872321
	mov	edi, -1465771077
	jmp	.LBB93_1
.LBB93_3:                               
	mov	esi, r9d
	.p2align	4, 0x90
.LBB93_1:                               
	cmp	esi, 1512890927
	jg	.LBB93_4

	cmp	esi, -1465771077
	je	.LBB93_3

	cmp	esi, -1148872321
	jne	.LBB93_1

	movzx	eax, byte ptr [rsp - 2]
	movzx	edx, byte ptr [rsp - 1]
	mov	ecx, eax
	xor	cl, dl
	test	dl, dl
	mov	esi, 1785649514
	cmovne	esi, edi
	test	al, al
	cmove	esi, r8d
	test	cl, cl
	cmovne	esi, edi
	jmp	.LBB93_1
	.p2align	4, 0x90
.LBB93_4:                               
	cmp	esi, 1512890928
	je	.LBB93_9

	cmp	esi, 1785649514
	jne	.LBB93_1

	mov	esi, -1465771077
	jmp	.LBB93_1
.LBB93_9:
	mov	eax, 24
	ret
.Lfunc_end93:
	.size	_ZNK8CryptoPP25SimpleKeyingInterfaceImplINS_8TwoBasesINS_11BlockCipherENS_13DES_XEX3_InfoEEES4_E12MinKeyLengthEv, .Lfunc_end93-_ZNK8CryptoPP25SimpleKeyingInterfaceImplINS_8TwoBasesINS_11BlockCipherENS_13DES_XEX3_InfoEEES4_E12MinKeyLengthEv

	.section	.text._ZNK8CryptoPP25SimpleKeyingInterfaceImplINS_8TwoBasesINS_11BlockCipherENS_13DES_XEX3_InfoEEES4_E12MaxKeyLengthEv,"axG",@progbits,_ZNK8CryptoPP25SimpleKeyingInterfaceImplINS_8TwoBasesINS_11BlockCipherENS_13DES_XEX3_InfoEEES4_E12MaxKeyLengthEv,comdat
	.weak	_ZNK8CryptoPP25SimpleKeyingInterfaceImplINS_8TwoBasesINS_11BlockCipherENS_13DES_XEX3_InfoEEES4_E12MaxKeyLengthEv 
	.p2align	4, 0x90
	.type	_ZNK8CryptoPP25SimpleKeyingInterfaceImplINS_8TwoBasesINS_11BlockCipherENS_13DES_XEX3_InfoEEES4_E12MaxKeyLengthEv,@function
_ZNK8CryptoPP25SimpleKeyingInterfaceImplINS_8TwoBasesINS_11BlockCipherENS_13DES_XEX3_InfoEEES4_E12MaxKeyLengthEv: 

	mov	eax, dword ptr [rip + x.177]
	mov	ecx, dword ptr [rip + y.178]
	lea	edx, [rax - 1]
	imul	edx, eax
	mov	eax, edx
	xor	eax, -2
	and	eax, edx
	sete	dl
	sete	byte ptr [rsp - 2]
	test	eax, eax
	mov	esi, 1605990872
	mov	edi, -448638001
	mov	eax, -448638001
	cmove	eax, esi
	cmp	ecx, 10
	setl	cl
	setl	byte ptr [rsp - 1]
	cmovge	eax, edi
	xor	cl, dl
	cmovne	eax, esi
	mov	edx, -1591285776
	mov	esi, 631272751
	jmp	.LBB94_1
.LBB94_6:                               
	mov	edx, eax
	.p2align	4, 0x90
.LBB94_1:                               
	cmp	edx, 631272750
	jle	.LBB94_2

	cmp	edx, 631272751
	je	.LBB94_6

	cmp	edx, 1605990872
	jne	.LBB94_1
	jmp	.LBB94_9
	.p2align	4, 0x90
.LBB94_2:                               
	cmp	edx, -1591285776
	je	.LBB94_7

	cmp	edx, -448638001
	jne	.LBB94_1

	mov	edx, 631272751
	jmp	.LBB94_1
.LBB94_7:                               
	movzx	edi, byte ptr [rsp - 2]
	movzx	edx, byte ptr [rsp - 1]
	mov	ecx, edi
	xor	cl, dl
	mov	ecx, -448638001
	cmovne	ecx, esi
	test	dl, dl
	mov	edx, ecx
	cmovne	edx, esi
	test	dil, dil
	cmove	edx, ecx
	jmp	.LBB94_1
.LBB94_9:
	mov	eax, 24
	ret
.Lfunc_end94:
	.size	_ZNK8CryptoPP25SimpleKeyingInterfaceImplINS_8TwoBasesINS_11BlockCipherENS_13DES_XEX3_InfoEEES4_E12MaxKeyLengthEv, .Lfunc_end94-_ZNK8CryptoPP25SimpleKeyingInterfaceImplINS_8TwoBasesINS_11BlockCipherENS_13DES_XEX3_InfoEEES4_E12MaxKeyLengthEv

	.section	.text._ZNK8CryptoPP25SimpleKeyingInterfaceImplINS_8TwoBasesINS_11BlockCipherENS_13DES_XEX3_InfoEEES4_E16DefaultKeyLengthEv,"axG",@progbits,_ZNK8CryptoPP25SimpleKeyingInterfaceImplINS_8TwoBasesINS_11BlockCipherENS_13DES_XEX3_InfoEEES4_E16DefaultKeyLengthEv,comdat
	.weak	_ZNK8CryptoPP25SimpleKeyingInterfaceImplINS_8TwoBasesINS_11BlockCipherENS_13DES_XEX3_InfoEEES4_E16DefaultKeyLengthEv 
	.p2align	4, 0x90
	.type	_ZNK8CryptoPP25SimpleKeyingInterfaceImplINS_8TwoBasesINS_11BlockCipherENS_13DES_XEX3_InfoEEES4_E16DefaultKeyLengthEv,@function
_ZNK8CryptoPP25SimpleKeyingInterfaceImplINS_8TwoBasesINS_11BlockCipherENS_13DES_XEX3_InfoEEES4_E16DefaultKeyLengthEv: 

	mov	eax, 24
	ret
.Lfunc_end95:
	.size	_ZNK8CryptoPP25SimpleKeyingInterfaceImplINS_8TwoBasesINS_11BlockCipherENS_13DES_XEX3_InfoEEES4_E16DefaultKeyLengthEv, .Lfunc_end95-_ZNK8CryptoPP25SimpleKeyingInterfaceImplINS_8TwoBasesINS_11BlockCipherENS_13DES_XEX3_InfoEEES4_E16DefaultKeyLengthEv

	.section	.text._ZNK8CryptoPP25SimpleKeyingInterfaceImplINS_8TwoBasesINS_11BlockCipherENS_13DES_XEX3_InfoEEES4_E17GetValidKeyLengthEm,"axG",@progbits,_ZNK8CryptoPP25SimpleKeyingInterfaceImplINS_8TwoBasesINS_11BlockCipherENS_13DES_XEX3_InfoEEES4_E17GetValidKeyLengthEm,comdat
	.weak	_ZNK8CryptoPP25SimpleKeyingInterfaceImplINS_8TwoBasesINS_11BlockCipherENS_13DES_XEX3_InfoEEES4_E17GetValidKeyLengthEm 
	.p2align	4, 0x90
	.type	_ZNK8CryptoPP25SimpleKeyingInterfaceImplINS_8TwoBasesINS_11BlockCipherENS_13DES_XEX3_InfoEEES4_E17GetValidKeyLengthEm,@function
_ZNK8CryptoPP25SimpleKeyingInterfaceImplINS_8TwoBasesINS_11BlockCipherENS_13DES_XEX3_InfoEEES4_E17GetValidKeyLengthEm: 

	mov	rdi, rsi
	jmp	_ZN8CryptoPP14FixedKeyLengthILj24ELj4ELj0EE23StaticGetValidKeyLengthEm 
.Lfunc_end96:
	.size	_ZNK8CryptoPP25SimpleKeyingInterfaceImplINS_8TwoBasesINS_11BlockCipherENS_13DES_XEX3_InfoEEES4_E17GetValidKeyLengthEm, .Lfunc_end96-_ZNK8CryptoPP25SimpleKeyingInterfaceImplINS_8TwoBasesINS_11BlockCipherENS_13DES_XEX3_InfoEEES4_E17GetValidKeyLengthEm

	.section	.text._ZNK8CryptoPP25SimpleKeyingInterfaceImplINS_8TwoBasesINS_11BlockCipherENS_13DES_XEX3_InfoEEES4_E13IVRequirementEv,"axG",@progbits,_ZNK8CryptoPP25SimpleKeyingInterfaceImplINS_8TwoBasesINS_11BlockCipherENS_13DES_XEX3_InfoEEES4_E13IVRequirementEv,comdat
	.weak	_ZNK8CryptoPP25SimpleKeyingInterfaceImplINS_8TwoBasesINS_11BlockCipherENS_13DES_XEX3_InfoEEES4_E13IVRequirementEv 
	.p2align	4, 0x90
	.type	_ZNK8CryptoPP25SimpleKeyingInterfaceImplINS_8TwoBasesINS_11BlockCipherENS_13DES_XEX3_InfoEEES4_E13IVRequirementEv,@function
_ZNK8CryptoPP25SimpleKeyingInterfaceImplINS_8TwoBasesINS_11BlockCipherENS_13DES_XEX3_InfoEEES4_E13IVRequirementEv: 

	mov	eax, 4
	ret
.Lfunc_end97:
	.size	_ZNK8CryptoPP25SimpleKeyingInterfaceImplINS_8TwoBasesINS_11BlockCipherENS_13DES_XEX3_InfoEEES4_E13IVRequirementEv, .Lfunc_end97-_ZNK8CryptoPP25SimpleKeyingInterfaceImplINS_8TwoBasesINS_11BlockCipherENS_13DES_XEX3_InfoEEES4_E13IVRequirementEv

	.section	.text._ZNK8CryptoPP25SimpleKeyingInterfaceImplINS_8TwoBasesINS_11BlockCipherENS_13DES_XEX3_InfoEEES4_E6IVSizeEv,"axG",@progbits,_ZNK8CryptoPP25SimpleKeyingInterfaceImplINS_8TwoBasesINS_11BlockCipherENS_13DES_XEX3_InfoEEES4_E6IVSizeEv,comdat
	.weak	_ZNK8CryptoPP25SimpleKeyingInterfaceImplINS_8TwoBasesINS_11BlockCipherENS_13DES_XEX3_InfoEEES4_E6IVSizeEv 
	.p2align	4, 0x90
	.type	_ZNK8CryptoPP25SimpleKeyingInterfaceImplINS_8TwoBasesINS_11BlockCipherENS_13DES_XEX3_InfoEEES4_E6IVSizeEv,@function
_ZNK8CryptoPP25SimpleKeyingInterfaceImplINS_8TwoBasesINS_11BlockCipherENS_13DES_XEX3_InfoEEES4_E6IVSizeEv: 

	xor	eax, eax
	ret
.Lfunc_end98:
	.size	_ZNK8CryptoPP25SimpleKeyingInterfaceImplINS_8TwoBasesINS_11BlockCipherENS_13DES_XEX3_InfoEEES4_E6IVSizeEv, .Lfunc_end98-_ZNK8CryptoPP25SimpleKeyingInterfaceImplINS_8TwoBasesINS_11BlockCipherENS_13DES_XEX3_InfoEEES4_E6IVSizeEv

	.section	.text._ZNK8CryptoPP13AlgorithmImplINS_25SimpleKeyingInterfaceImplINS_8TwoBasesINS_11BlockCipherENS_13DES_XEX3_InfoEEES5_EES6_E13AlgorithmNameB5cxx11Ev,"axG",@progbits,_ZNK8CryptoPP13AlgorithmImplINS_25SimpleKeyingInterfaceImplINS_8TwoBasesINS_11BlockCipherENS_13DES_XEX3_InfoEEES5_EES6_E13AlgorithmNameB5cxx11Ev,comdat
	.weak	_ZNK8CryptoPP13AlgorithmImplINS_25SimpleKeyingInterfaceImplINS_8TwoBasesINS_11BlockCipherENS_13DES_XEX3_InfoEEES5_EES6_E13AlgorithmNameB5cxx11Ev 
	.p2align	4, 0x90
	.type	_ZNK8CryptoPP13AlgorithmImplINS_25SimpleKeyingInterfaceImplINS_8TwoBasesINS_11BlockCipherENS_13DES_XEX3_InfoEEES5_EES6_E13AlgorithmNameB5cxx11Ev,@function
_ZNK8CryptoPP13AlgorithmImplINS_25SimpleKeyingInterfaceImplINS_8TwoBasesINS_11BlockCipherENS_13DES_XEX3_InfoEEES5_EES6_E13AlgorithmNameB5cxx11Ev: 
.Lfunc_begin10:
	.cfi_startproc
	.cfi_personality 3, __gxx_personality_v0
	.cfi_lsda 3, .Lexception10

	push	r15
.Lcfi267:
	.cfi_def_cfa_offset 16
	push	r14
.Lcfi268:
	.cfi_def_cfa_offset 24
	push	rbx
.Lcfi269:
	.cfi_def_cfa_offset 32
	sub	rsp, 16
.Lcfi270:
	.cfi_def_cfa_offset 48
.Lcfi271:
	.cfi_offset rbx, -32
.Lcfi272:
	.cfi_offset r14, -24
.Lcfi273:
	.cfi_offset r15, -16
	mov	r14, rdi
	call	_ZN8CryptoPP13DES_XEX3_Info19StaticAlgorithmNameEv
	mov	rbx, rax
	lea	r15, [rsp + 8]
	mov	rdi, r15
	call	_ZNSaIcEC2Ev
.Ltmp87:
	mov	rdi, r14
	mov	rsi, rbx
	mov	rdx, r15
	call	_ZNSt7__cxx1112basic_stringIcSt11char_traitsIcESaIcEEC2EPKcRKS3_
.Ltmp88:

	lea	rdi, [rsp + 8]
	call	_ZNSaIcED2Ev
	mov	rax, r14
	add	rsp, 16
	pop	rbx
	pop	r14
	pop	r15
	ret
.LBB99_2:
.Ltmp89:
	mov	rbx, rax
	lea	rdi, [rsp + 8]
	call	_ZNSaIcED2Ev
	mov	rdi, rbx
	call	_Unwind_Resume
.Lfunc_end99:
	.size	_ZNK8CryptoPP13AlgorithmImplINS_25SimpleKeyingInterfaceImplINS_8TwoBasesINS_11BlockCipherENS_13DES_XEX3_InfoEEES5_EES6_E13AlgorithmNameB5cxx11Ev, .Lfunc_end99-_ZNK8CryptoPP13AlgorithmImplINS_25SimpleKeyingInterfaceImplINS_8TwoBasesINS_11BlockCipherENS_13DES_XEX3_InfoEEES5_EES6_E13AlgorithmNameB5cxx11Ev
	.cfi_endproc
	.section	.gcc_except_table,"a",@progbits
	.p2align	2
GCC_except_table99:
.Lexception10:
	.byte	255                     
	.byte	3                       
	.asciz	"\234"                  
	.byte	3                       
	.byte	26                      
	.long	.Ltmp87-.Lfunc_begin10  
	.long	.Ltmp88-.Ltmp87         
	.long	.Ltmp89-.Lfunc_begin10  
	.byte	0                       
	.long	.Ltmp88-.Lfunc_begin10  
	.long	.Lfunc_end99-.Ltmp88    
	.long	0                       
	.byte	0                       
	.p2align	2

	.section	.text._ZNK8CryptoPP15BlockCipherImplINS_13DES_XEX3_InfoENS_11BlockCipherEE9BlockSizeEv,"axG",@progbits,_ZNK8CryptoPP15BlockCipherImplINS_13DES_XEX3_InfoENS_11BlockCipherEE9BlockSizeEv,comdat
	.weak	_ZNK8CryptoPP15BlockCipherImplINS_13DES_XEX3_InfoENS_11BlockCipherEE9BlockSizeEv 
	.p2align	4, 0x90
	.type	_ZNK8CryptoPP15BlockCipherImplINS_13DES_XEX3_InfoENS_11BlockCipherEE9BlockSizeEv,@function
_ZNK8CryptoPP15BlockCipherImplINS_13DES_XEX3_InfoENS_11BlockCipherEE9BlockSizeEv: 

	mov	eax, 8
	ret
.Lfunc_end100:
	.size	_ZNK8CryptoPP15BlockCipherImplINS_13DES_XEX3_InfoENS_11BlockCipherEE9BlockSizeEv, .Lfunc_end100-_ZNK8CryptoPP15BlockCipherImplINS_13DES_XEX3_InfoENS_11BlockCipherEE9BlockSizeEv

	.section	.text._ZThn8_N8CryptoPP8DES_XEX34BaseD1Ev,"axG",@progbits,_ZThn8_N8CryptoPP8DES_XEX34BaseD1Ev,comdat
	.weak	_ZThn8_N8CryptoPP8DES_XEX34BaseD1Ev 
	.p2align	4, 0x90
	.type	_ZThn8_N8CryptoPP8DES_XEX34BaseD1Ev,@function
_ZThn8_N8CryptoPP8DES_XEX34BaseD1Ev:    
	.cfi_startproc

	add	rdi, -8
	jmp	_ZN8CryptoPP8DES_XEX34BaseD2Ev 
.Lfunc_end101:
	.size	_ZThn8_N8CryptoPP8DES_XEX34BaseD1Ev, .Lfunc_end101-_ZThn8_N8CryptoPP8DES_XEX34BaseD1Ev
	.cfi_endproc

	.section	.text._ZThn8_N8CryptoPP8DES_XEX34BaseD0Ev,"axG",@progbits,_ZThn8_N8CryptoPP8DES_XEX34BaseD0Ev,comdat
	.weak	_ZThn8_N8CryptoPP8DES_XEX34BaseD0Ev 
	.p2align	4, 0x90
	.type	_ZThn8_N8CryptoPP8DES_XEX34BaseD0Ev,@function
_ZThn8_N8CryptoPP8DES_XEX34BaseD0Ev:    
	.cfi_startproc

	add	rdi, -8
	jmp	_ZN8CryptoPP8DES_XEX34BaseD0Ev 
.Lfunc_end102:
	.size	_ZThn8_N8CryptoPP8DES_XEX34BaseD0Ev, .Lfunc_end102-_ZThn8_N8CryptoPP8DES_XEX34BaseD0Ev
	.cfi_endproc

	.section	.text._ZThn8_NK8CryptoPP13AlgorithmImplINS_25SimpleKeyingInterfaceImplINS_8TwoBasesINS_11BlockCipherENS_13DES_XEX3_InfoEEES5_EES6_E13AlgorithmNameB5cxx11Ev,"axG",@progbits,_ZThn8_NK8CryptoPP13AlgorithmImplINS_25SimpleKeyingInterfaceImplINS_8TwoBasesINS_11BlockCipherENS_13DES_XEX3_InfoEEES5_EES6_E13AlgorithmNameB5cxx11Ev,comdat
	.weak	_ZThn8_NK8CryptoPP13AlgorithmImplINS_25SimpleKeyingInterfaceImplINS_8TwoBasesINS_11BlockCipherENS_13DES_XEX3_InfoEEES5_EES6_E13AlgorithmNameB5cxx11Ev 
	.p2align	4, 0x90
	.type	_ZThn8_NK8CryptoPP13AlgorithmImplINS_25SimpleKeyingInterfaceImplINS_8TwoBasesINS_11BlockCipherENS_13DES_XEX3_InfoEEES5_EES6_E13AlgorithmNameB5cxx11Ev,@function
_ZThn8_NK8CryptoPP13AlgorithmImplINS_25SimpleKeyingInterfaceImplINS_8TwoBasesINS_11BlockCipherENS_13DES_XEX3_InfoEEES5_EES6_E13AlgorithmNameB5cxx11Ev: 
	.cfi_startproc

	push	rbx
.Lcfi274:
	.cfi_def_cfa_offset 16
.Lcfi275:
	.cfi_offset rbx, -16
	mov	rbx, rdi
	add	rsi, -8
	call	_ZNK8CryptoPP13AlgorithmImplINS_25SimpleKeyingInterfaceImplINS_8TwoBasesINS_11BlockCipherENS_13DES_XEX3_InfoEEES5_EES6_E13AlgorithmNameB5cxx11Ev
	mov	rax, rbx
	pop	rbx
	ret
.Lfunc_end103:
	.size	_ZThn8_NK8CryptoPP13AlgorithmImplINS_25SimpleKeyingInterfaceImplINS_8TwoBasesINS_11BlockCipherENS_13DES_XEX3_InfoEEES5_EES6_E13AlgorithmNameB5cxx11Ev, .Lfunc_end103-_ZThn8_NK8CryptoPP13AlgorithmImplINS_25SimpleKeyingInterfaceImplINS_8TwoBasesINS_11BlockCipherENS_13DES_XEX3_InfoEEES5_EES6_E13AlgorithmNameB5cxx11Ev
	.cfi_endproc

	.section	.text._ZThn8_NK8CryptoPP15BlockCipherImplINS_13DES_XEX3_InfoENS_11BlockCipherEE9BlockSizeEv,"axG",@progbits,_ZThn8_NK8CryptoPP15BlockCipherImplINS_13DES_XEX3_InfoENS_11BlockCipherEE9BlockSizeEv,comdat
	.weak	_ZThn8_NK8CryptoPP15BlockCipherImplINS_13DES_XEX3_InfoENS_11BlockCipherEE9BlockSizeEv 
	.p2align	4, 0x90
	.type	_ZThn8_NK8CryptoPP15BlockCipherImplINS_13DES_XEX3_InfoENS_11BlockCipherEE9BlockSizeEv,@function
_ZThn8_NK8CryptoPP15BlockCipherImplINS_13DES_XEX3_InfoENS_11BlockCipherEE9BlockSizeEv: 
	.cfi_startproc

	push	rbp
.Lcfi276:
	.cfi_def_cfa_offset 16
	push	r15
.Lcfi277:
	.cfi_def_cfa_offset 24
	push	r14
.Lcfi278:
	.cfi_def_cfa_offset 32
	push	rbx
.Lcfi279:
	.cfi_def_cfa_offset 40
	push	rax
.Lcfi280:
	.cfi_def_cfa_offset 48
.Lcfi281:
	.cfi_offset rbx, -40
.Lcfi282:
	.cfi_offset r14, -32
.Lcfi283:
	.cfi_offset r15, -24
.Lcfi284:
	.cfi_offset rbp, -16
	mov	rbx, rdi
	mov	eax, dword ptr [rip + x.195]
	mov	ecx, dword ptr [rip + y.196]
	lea	edx, [rax - 1]
	imul	edx, eax
	not	edx
	or	edx, -2
	cmp	edx, -1
	sete	byte ptr [rsp + 2]
	cmp	ecx, 10
	setl	byte ptr [rsp + 3]
	add	rbx, -8
	mov	eax, 1012862800
	mov	r14d, 2074782346
	mov	r15d, -176152393
	mov	ebp, -2123050349
	jmp	.LBB104_1
.LBB104_7:                              
	movzx	ecx, byte ptr [rsp + 2]
	movzx	eax, byte ptr [rsp + 3]
	mov	edx, ecx
	xor	dl, al
	test	al, al
	mov	eax, -176152393
	cmovne	eax, ebp
	test	cl, cl
	cmove	eax, r15d
	test	dl, dl
	cmovne	eax, ebp
	.p2align	4, 0x90
.LBB104_1:                              
	cmp	eax, 1012862799
	jg	.LBB104_5

	cmp	eax, -2123050349
	je	.LBB104_8

	cmp	eax, -176152393
	jne	.LBB104_1

	mov	rdi, rbx
	call	_ZNK8CryptoPP15BlockCipherImplINS_13DES_XEX3_InfoENS_11BlockCipherEE9BlockSizeEv
	mov	eax, -2123050349
	jmp	.LBB104_1
	.p2align	4, 0x90
.LBB104_5:                              
	cmp	eax, 2074782346
	je	.LBB104_9

	cmp	eax, 1012862800
	jne	.LBB104_1
	jmp	.LBB104_7
.LBB104_8:                              
	mov	rdi, rbx
	call	_ZNK8CryptoPP15BlockCipherImplINS_13DES_XEX3_InfoENS_11BlockCipherEE9BlockSizeEv
	mov	dword ptr [rsp + 4], eax
	mov	eax, dword ptr [rip + x.195]
	lea	ecx, [rax - 1]
	imul	ecx, eax
	mov	eax, ecx
	xor	eax, -2
	and	eax, ecx
	sete	cl
	test	eax, eax
	mov	eax, -176152393
	cmove	eax, r14d
	cmp	dword ptr [rip + y.196], 10
	setl	dl
	cmovge	eax, r15d
	xor	dl, cl
	cmovne	eax, r14d
	jmp	.LBB104_1
.LBB104_9:
	mov	eax, dword ptr [rsp + 4]
	add	rsp, 8
	pop	rbx
	pop	r14
	pop	r15
	pop	rbp
	ret
.Lfunc_end104:
	.size	_ZThn8_NK8CryptoPP15BlockCipherImplINS_13DES_XEX3_InfoENS_11BlockCipherEE9BlockSizeEv, .Lfunc_end104-_ZThn8_NK8CryptoPP15BlockCipherImplINS_13DES_XEX3_InfoENS_11BlockCipherEE9BlockSizeEv
	.cfi_endproc

	.section	.text._ZN8CryptoPP12rotlConstantILj4EjEET0_S1_,"axG",@progbits,_ZN8CryptoPP12rotlConstantILj4EjEET0_S1_,comdat
	.weak	_ZN8CryptoPP12rotlConstantILj4EjEET0_S1_ 
	.p2align	4, 0x90
	.type	_ZN8CryptoPP12rotlConstantILj4EjEET0_S1_,@function
_ZN8CryptoPP12rotlConstantILj4EjEET0_S1_: 

	mov	eax, dword ptr [rip + x.197]
	mov	r8d, dword ptr [rip + y.198]
	mov	edx, eax
	neg	edx
	not	edx
	imul	edx, eax
	mov	eax, edx
	xor	eax, -2
	and	eax, edx
	sete	r9b
	sete	byte ptr [rsp - 6]
	mov	esi, edi
	shl	esi, 4
	shr	edi, 28
	mov	ecx, esi
	not	ecx
	mov	edx, edi
	not	edx
	and	ecx, -1379799911
	and	esi, 1379799904
	or	esi, ecx
	and	edx, -1379799911
	and	edi, 6
	or	edi, edx
	xor	edi, esi
	test	eax, eax
	mov	ecx, 1642124654
	mov	esi, 890335654
	mov	eax, 890335654
	cmove	eax, ecx
	cmp	r8d, 10
	setl	dl
	setl	byte ptr [rsp - 5]
	cmovge	eax, esi
	xor	dl, r9b
	cmovne	eax, ecx
	mov	edx, 269388648
	mov	esi, -337481828
	jmp	.LBB105_1
.LBB105_4:                              
	movzx	r8d, byte ptr [rsp - 6]
	movzx	edx, byte ptr [rsp - 5]
	mov	ecx, r8d
	xor	cl, dl
	mov	ecx, 890335654
	cmovne	ecx, esi
	test	dl, dl
	mov	edx, ecx
	cmovne	edx, esi
	test	r8b, r8b
	cmove	edx, ecx
	.p2align	4, 0x90
.LBB105_1:                              
	cmp	edx, 890335653
	jle	.LBB105_2

	cmp	edx, 890335654
	je	.LBB105_8

	cmp	edx, 1642124654
	jne	.LBB105_1
	jmp	.LBB105_7
	.p2align	4, 0x90
.LBB105_2:                              
	cmp	edx, -337481828
	je	.LBB105_9

	cmp	edx, 269388648
	jne	.LBB105_1
	jmp	.LBB105_4
.LBB105_8:                              
	mov	edx, -337481828
	jmp	.LBB105_1
.LBB105_9:                              
	mov	dword ptr [rsp - 4], edi
	mov	edx, eax
	jmp	.LBB105_1
.LBB105_7:
	mov	eax, dword ptr [rsp - 4]
	ret
.Lfunc_end105:
	.size	_ZN8CryptoPP12rotlConstantILj4EjEET0_S1_, .Lfunc_end105-_ZN8CryptoPP12rotlConstantILj4EjEET0_S1_

	.section	.text._ZN8CryptoPP12rotrConstantILj20EjEET0_S1_,"axG",@progbits,_ZN8CryptoPP12rotrConstantILj20EjEET0_S1_,comdat
	.weak	_ZN8CryptoPP12rotrConstantILj20EjEET0_S1_ 
	.p2align	4, 0x90
	.type	_ZN8CryptoPP12rotrConstantILj20EjEET0_S1_,@function
_ZN8CryptoPP12rotrConstantILj20EjEET0_S1_: 

	mov	eax, edi
	shr	eax, 20
	shl	edi, 12
	mov	ecx, eax
	not	ecx
	mov	edx, edi
	not	edx
	and	ecx, -874535206
	and	eax, 2341
	lea	eax, [rax + rcx]
	and	edx, -874535206
	and	edi, 874532864
	or	edi, edx
	xor	eax, edi
	ret
.Lfunc_end106:
	.size	_ZN8CryptoPP12rotrConstantILj20EjEET0_S1_, .Lfunc_end106-_ZN8CryptoPP12rotrConstantILj20EjEET0_S1_

	.section	.text._ZN8CryptoPP12rotrConstantILj18EjEET0_S1_,"axG",@progbits,_ZN8CryptoPP12rotrConstantILj18EjEET0_S1_,comdat
	.weak	_ZN8CryptoPP12rotrConstantILj18EjEET0_S1_ 
	.p2align	4, 0x90
	.type	_ZN8CryptoPP12rotrConstantILj18EjEET0_S1_,@function
_ZN8CryptoPP12rotrConstantILj18EjEET0_S1_: 

	rol	edi, 14
	mov	eax, edi
	ret
.Lfunc_end107:
	.size	_ZN8CryptoPP12rotrConstantILj18EjEET0_S1_, .Lfunc_end107-_ZN8CryptoPP12rotrConstantILj18EjEET0_S1_

	.section	.text._ZN8CryptoPP12rotrConstantILj6EjEET0_S1_,"axG",@progbits,_ZN8CryptoPP12rotrConstantILj6EjEET0_S1_,comdat
	.weak	_ZN8CryptoPP12rotrConstantILj6EjEET0_S1_ 
	.p2align	4, 0x90
	.type	_ZN8CryptoPP12rotrConstantILj6EjEET0_S1_,@function
_ZN8CryptoPP12rotrConstantILj6EjEET0_S1_: 

	rol	edi, 26
	mov	eax, edi
	ret
.Lfunc_end108:
	.size	_ZN8CryptoPP12rotrConstantILj6EjEET0_S1_, .Lfunc_end108-_ZN8CryptoPP12rotrConstantILj6EjEET0_S1_

	.section	.text._ZN8CryptoPP12rotlConstantILj9EjEET0_S1_,"axG",@progbits,_ZN8CryptoPP12rotlConstantILj9EjEET0_S1_,comdat
	.weak	_ZN8CryptoPP12rotlConstantILj9EjEET0_S1_ 
	.p2align	4, 0x90
	.type	_ZN8CryptoPP12rotlConstantILj9EjEET0_S1_,@function
_ZN8CryptoPP12rotlConstantILj9EjEET0_S1_: 

	mov	eax, edi
	shl	eax, 9
	shr	edi, 23
	mov	ecx, eax
	not	ecx
	mov	edx, edi
	not	edx
	and	ecx, -1510198620
	and	eax, 1510198272
	lea	eax, [rax + rcx]
	and	edx, -1510198620
	and	edi, 347
	or	edi, edx
	xor	eax, edi
	ret
.Lfunc_end109:
	.size	_ZN8CryptoPP12rotlConstantILj9EjEET0_S1_, .Lfunc_end109-_ZN8CryptoPP12rotlConstantILj9EjEET0_S1_

	.section	.text._ZN8CryptoPP12rotlConstantILj1EjEET0_S1_,"axG",@progbits,_ZN8CryptoPP12rotlConstantILj1EjEET0_S1_,comdat
	.weak	_ZN8CryptoPP12rotlConstantILj1EjEET0_S1_ 
	.p2align	4, 0x90
	.type	_ZN8CryptoPP12rotlConstantILj1EjEET0_S1_,@function
_ZN8CryptoPP12rotlConstantILj1EjEET0_S1_: 


	mov	eax, dword ptr [rip + x.207]
	mov	ecx, dword ptr [rip + y.208]
	lea	edx, [rax - 1]
	imul	edx, eax
	mov	esi, edx
	xor	esi, -2
	and	esi, edx
	sete	byte ptr [rsp - 6]
	sete	al
	cmp	ecx, 10
	setl	dl
	xor	dl, al
	mov	r8d, 1832402305
	mov	edx, -492454387
	cmovne	edx, r8d
	test	esi, esi
	cmovne	r8d, edx
	cmp	ecx, 10
	setl	byte ptr [rsp - 5]
	cmovge	r8d, edx
	lea	ecx, [rdi + rdi]
	shr	edi, 31
	mov	edx, ecx
	not	edx
	not	edi
	and	edx, 994488263
	and	ecx, -994488264
	or	ecx, edx
	and	edi, 994488263
	xor	edi, ecx
	mov	edx, 1875508155
	mov	esi, 644485384
	jmp	.LBB110_1
.LBB110_7:                              
	movzx	eax, byte ptr [rsp - 6]
	movzx	edx, byte ptr [rsp - 5]
	mov	ecx, eax
	xor	cl, dl
	mov	ecx, -492454387
	cmovne	ecx, esi
	test	dl, dl
	mov	edx, ecx
	cmovne	edx, esi
	test	al, al
	cmove	edx, ecx
	.p2align	4, 0x90
.LBB110_1:                              
	cmp	edx, 1832402304
	jg	.LBB110_5

	cmp	edx, -492454387
	je	.LBB110_9

	cmp	edx, 644485384
	jne	.LBB110_1

	mov	dword ptr [rsp - 4], edi
	mov	edx, r8d
	jmp	.LBB110_1
	.p2align	4, 0x90
.LBB110_5:                              
	cmp	edx, 1832402305
	je	.LBB110_8

	cmp	edx, 1875508155
	jne	.LBB110_1
	jmp	.LBB110_7
.LBB110_9:                              
	mov	edx, 644485384
	jmp	.LBB110_1
.LBB110_8:
	mov	eax, dword ptr [rsp - 4]
	ret
.Lfunc_end110:
	.size	_ZN8CryptoPP12rotlConstantILj1EjEET0_S1_, .Lfunc_end110-_ZN8CryptoPP12rotlConstantILj1EjEET0_S1_

	.section	.text._ZN8CryptoPP12rotrConstantILj1EjEET0_S1_,"axG",@progbits,_ZN8CryptoPP12rotrConstantILj1EjEET0_S1_,comdat
	.weak	_ZN8CryptoPP12rotrConstantILj1EjEET0_S1_ 
	.p2align	4, 0x90
	.type	_ZN8CryptoPP12rotrConstantILj1EjEET0_S1_,@function
_ZN8CryptoPP12rotrConstantILj1EjEET0_S1_: 

	ror	edi
	mov	eax, edi
	ret
.Lfunc_end111:
	.size	_ZN8CryptoPP12rotrConstantILj1EjEET0_S1_, .Lfunc_end111-_ZN8CryptoPP12rotrConstantILj1EjEET0_S1_

	.section	.text._ZN8CryptoPP12rotrConstantILj9EjEET0_S1_,"axG",@progbits,_ZN8CryptoPP12rotrConstantILj9EjEET0_S1_,comdat
	.weak	_ZN8CryptoPP12rotrConstantILj9EjEET0_S1_ 
	.p2align	4, 0x90
	.type	_ZN8CryptoPP12rotrConstantILj9EjEET0_S1_,@function
_ZN8CryptoPP12rotrConstantILj9EjEET0_S1_: 

	mov	eax, edi
	shr	eax, 9
	shl	edi, 23
	mov	ecx, eax
	not	ecx
	mov	edx, edi
	not	edx
	and	ecx, -196837363
	and	eax, 3899378
	lea	eax, [rax + rcx]
	and	edx, -196837363
	and	edi, 192937984
	or	edi, edx
	xor	eax, edi
	ret
.Lfunc_end112:
	.size	_ZN8CryptoPP12rotrConstantILj9EjEET0_S1_, .Lfunc_end112-_ZN8CryptoPP12rotrConstantILj9EjEET0_S1_

	.section	.text._ZN8CryptoPP12rotlConstantILj6EjEET0_S1_,"axG",@progbits,_ZN8CryptoPP12rotlConstantILj6EjEET0_S1_,comdat
	.weak	_ZN8CryptoPP12rotlConstantILj6EjEET0_S1_ 
	.p2align	4, 0x90
	.type	_ZN8CryptoPP12rotlConstantILj6EjEET0_S1_,@function
_ZN8CryptoPP12rotlConstantILj6EjEET0_S1_: 

	mov	eax, dword ptr [rip + x.213]
	mov	edx, dword ptr [rip + y.214]
	lea	esi, [rax - 1]
	imul	esi, eax
	not	esi
	or	esi, -2
	cmp	esi, -1
	sete	al
	cmp	edx, 10
	setl	cl
	xor	cl, al
	mov	r10d, 1733263833
	mov	r8d, -968611358
	mov	ecx, -968611358
	cmovne	ecx, r10d
	cmp	esi, -1
	sete	byte ptr [rsp - 6]
	cmovne	r10d, ecx
	cmp	edx, 10
	setl	byte ptr [rsp - 5]
	cmovge	r10d, ecx
	mov	ecx, edi
	shl	ecx, 6
	shr	edi, 26
	mov	edx, ecx
	not	edx
	mov	esi, edi
	not	esi
	and	edx, -955486371
	and	ecx, 955486336
	or	ecx, edx
	and	esi, -955486371
	and	edi, 34
	or	edi, esi
	xor	edi, ecx
	mov	esi, 1843558517
	mov	r9d, -398698176
	jmp	.LBB113_1
.LBB113_7:                              
	movzx	eax, byte ptr [rsp - 6]
	movzx	edx, byte ptr [rsp - 5]
	mov	ecx, eax
	xor	cl, dl
	test	dl, dl
	mov	esi, -968611358
	cmovne	esi, r9d
	test	al, al
	cmove	esi, r8d
	test	cl, cl
	cmovne	esi, r9d
	.p2align	4, 0x90
.LBB113_1:                              
	cmp	esi, 1733263832
	jg	.LBB113_5

	cmp	esi, -968611358
	je	.LBB113_9

	cmp	esi, -398698176
	jne	.LBB113_1

	mov	dword ptr [rsp - 4], edi
	mov	esi, r10d
	jmp	.LBB113_1
	.p2align	4, 0x90
.LBB113_5:                              
	cmp	esi, 1733263833
	je	.LBB113_8

	cmp	esi, 1843558517
	jne	.LBB113_1
	jmp	.LBB113_7
.LBB113_9:                              
	mov	esi, -398698176
	jmp	.LBB113_1
.LBB113_8:
	mov	eax, dword ptr [rsp - 4]
	ret
.Lfunc_end113:
	.size	_ZN8CryptoPP12rotlConstantILj6EjEET0_S1_, .Lfunc_end113-_ZN8CryptoPP12rotlConstantILj6EjEET0_S1_

	.section	.text._ZN8CryptoPP12rotlConstantILj18EjEET0_S1_,"axG",@progbits,_ZN8CryptoPP12rotlConstantILj18EjEET0_S1_,comdat
	.weak	_ZN8CryptoPP12rotlConstantILj18EjEET0_S1_ 
	.p2align	4, 0x90
	.type	_ZN8CryptoPP12rotlConstantILj18EjEET0_S1_,@function
_ZN8CryptoPP12rotlConstantILj18EjEET0_S1_: 

	mov	eax, dword ptr [rip + x.215]
	mov	r8d, dword ptr [rip + y.216]
	lea	edx, [rax - 1]
	imul	edx, eax
	not	edx
	or	edx, -2
	mov	eax, edi
	shl	eax, 18
	shr	edi, 14
	mov	esi, eax
	not	esi
	mov	ecx, edi
	not	ecx
	and	esi, 580199901
	and	eax, -580386816
	or	eax, esi
	and	ecx, 580199901
	and	edi, 186914
	or	edi, ecx
	xor	edi, eax
	cmp	edx, -1
	sete	cl
	sete	byte ptr [rsp - 6]
	mov	esi, 1857885498
	mov	r9d, 391902266
	mov	eax, 391902266
	cmove	eax, esi
	cmp	r8d, 10
	setl	dl
	setl	byte ptr [rsp - 5]
	cmovge	eax, r9d
	xor	dl, cl
	cmovne	eax, esi
	mov	edx, 129881601
	mov	r8d, 1597364797
	jmp	.LBB114_1
.LBB114_8:                              
	movzx	esi, byte ptr [rsp - 6]
	movzx	edx, byte ptr [rsp - 5]
	mov	ecx, esi
	xor	cl, dl
	mov	ecx, 391902266
	cmovne	ecx, r8d
	test	dl, dl
	mov	edx, ecx
	cmovne	edx, r8d
	test	sil, sil
	cmove	edx, ecx
	.p2align	4, 0x90
.LBB114_1:                              
	mov	esi, edx
	and	esi, 2147483647
	cmp	esi, 1597364796
	jle	.LBB114_2

	cmp	esi, 1597364797
	je	.LBB114_9

	cmp	esi, 1857885498
	jne	.LBB114_1
	jmp	.LBB114_7
	.p2align	4, 0x90
.LBB114_2:                              
	cmp	esi, 129881601
	je	.LBB114_8

	cmp	esi, 391902266
	jne	.LBB114_1

	mov	edx, 1597364797
	jmp	.LBB114_1
.LBB114_9:                              
	mov	dword ptr [rsp - 4], edi
	mov	edx, eax
	jmp	.LBB114_1
.LBB114_7:
	mov	eax, dword ptr [rsp - 4]
	ret
.Lfunc_end114:
	.size	_ZN8CryptoPP12rotlConstantILj18EjEET0_S1_, .Lfunc_end114-_ZN8CryptoPP12rotlConstantILj18EjEET0_S1_

	.section	.text._ZN8CryptoPP12rotlConstantILj20EjEET0_S1_,"axG",@progbits,_ZN8CryptoPP12rotlConstantILj20EjEET0_S1_,comdat
	.weak	_ZN8CryptoPP12rotlConstantILj20EjEET0_S1_ 
	.p2align	4, 0x90
	.type	_ZN8CryptoPP12rotlConstantILj20EjEET0_S1_,@function
_ZN8CryptoPP12rotlConstantILj20EjEET0_S1_: 

	mov	eax, edi
	shl	eax, 20
	shr	edi, 12
	mov	ecx, eax
	not	ecx
	mov	edx, edi
	not	edx
	and	ecx, -1762254127
	and	eax, 1761607680
	lea	eax, [rax + rcx]
	and	edx, -1762254127
	and	edi, 646446
	or	edi, edx
	xor	eax, edi
	ret
.Lfunc_end115:
	.size	_ZN8CryptoPP12rotlConstantILj20EjEET0_S1_, .Lfunc_end115-_ZN8CryptoPP12rotlConstantILj20EjEET0_S1_

	.section	.text._ZN8CryptoPP8SecBlockIjNS_29FixedSizeAllocatorWithCleanupIjLm32ENS_13NullAllocatorIjEELb0EEEED2Ev,"axG",@progbits,_ZN8CryptoPP8SecBlockIjNS_29FixedSizeAllocatorWithCleanupIjLm32ENS_13NullAllocatorIjEELb0EEEED2Ev,comdat
	.weak	_ZN8CryptoPP8SecBlockIjNS_29FixedSizeAllocatorWithCleanupIjLm32ENS_13NullAllocatorIjEELb0EEEED2Ev 
	.p2align	4, 0x90
	.type	_ZN8CryptoPP8SecBlockIjNS_29FixedSizeAllocatorWithCleanupIjLm32ENS_13NullAllocatorIjEELb0EEEED2Ev,@function
_ZN8CryptoPP8SecBlockIjNS_29FixedSizeAllocatorWithCleanupIjLm32ENS_13NullAllocatorIjEELb0EEEED2Ev: 
	.cfi_startproc

	push	rbp
.Lcfi285:
	.cfi_def_cfa_offset 16
	push	r15
.Lcfi286:
	.cfi_def_cfa_offset 24
	push	r14
.Lcfi287:
	.cfi_def_cfa_offset 32
	push	r13
.Lcfi288:
	.cfi_def_cfa_offset 40
	push	r12
.Lcfi289:
	.cfi_def_cfa_offset 48
	push	rbx
.Lcfi290:
	.cfi_def_cfa_offset 56
	push	rax
.Lcfi291:
	.cfi_def_cfa_offset 64
.Lcfi292:
	.cfi_offset rbx, -56
.Lcfi293:
	.cfi_offset r12, -48
.Lcfi294:
	.cfi_offset r13, -40
.Lcfi295:
	.cfi_offset r14, -32
.Lcfi296:
	.cfi_offset r15, -24
.Lcfi297:
	.cfi_offset rbp, -16
	mov	r12, rdi
	mov	eax, dword ptr [rip + x.219]
	mov	ecx, dword ptr [rip + y.220]
	lea	edx, [rax - 1]
	imul	edx, eax
	mov	eax, edx
	xor	eax, -2
	test	eax, edx
	sete	byte ptr [rsp + 6]
	cmp	ecx, 10
	setl	byte ptr [rsp + 7]
	lea	r14, [r12 + 144]
	lea	r15, [r12 + 136]
	mov	eax, -1572700518
	mov	r13d, 1960983120
	mov	ebp, 1270542482
	jmp	.LBB116_1
.LBB116_9:                              
	movzx	ecx, byte ptr [rsp + 6]
	movzx	eax, byte ptr [rsp + 7]
	mov	edx, ecx
	xor	dl, al
	mov	edx, -1553252534
	cmovne	edx, r13d
	test	al, al
	mov	eax, edx
	cmovne	eax, r13d
	test	cl, cl
	cmove	eax, edx
	.p2align	4, 0x90
.LBB116_1:                              
	cmp	eax, 1270542481
	jg	.LBB116_5

	cmp	eax, -1572700518
	je	.LBB116_9

	cmp	eax, -1553252534
	jne	.LBB116_1

	mov	rbx, qword ptr [r12 + 152]
	mov	rdi, r14
	mov	rsi, r15
	call	_ZN8CryptoPP6STDMINImEERKT_S3_S3_
	mov	rdx, qword ptr [rax]
	mov	rdi, r12
	mov	rsi, rbx
	call	_ZN8CryptoPP29FixedSizeAllocatorWithCleanupIjLm32ENS_13NullAllocatorIjEELb0EE10deallocateEPvm
	mov	eax, 1960983120
	jmp	.LBB116_1
	.p2align	4, 0x90
.LBB116_5:                              
	cmp	eax, 1270542482
	je	.LBB116_8

	cmp	eax, 1960983120
	jne	.LBB116_1

	mov	rbx, qword ptr [r12 + 152]
	mov	rdi, r14
	mov	rsi, r15
	call	_ZN8CryptoPP6STDMINImEERKT_S3_S3_
	mov	rdx, qword ptr [rax]
	mov	rdi, r12
	mov	rsi, rbx
	call	_ZN8CryptoPP29FixedSizeAllocatorWithCleanupIjLm32ENS_13NullAllocatorIjEELb0EE10deallocateEPvm
	mov	eax, dword ptr [rip + x.219]
	mov	ecx, dword ptr [rip + y.220]
	mov	edx, eax
	neg	edx
	not	edx
	imul	edx, eax
	not	edx
	or	edx, -2
	cmp	edx, -1
	sete	al
	cmp	ecx, 10
	setl	bl
	xor	bl, al
	mov	esi, -1553252534
	cmovne	esi, ebp
	cmp	edx, -1
	mov	eax, esi
	cmove	eax, ebp
	cmp	ecx, 10
	cmovge	eax, esi
	jmp	.LBB116_1
.LBB116_8:
	add	rsp, 8
	pop	rbx
	pop	r12
	pop	r13
	pop	r14
	pop	r15
	pop	rbp
	ret
.Lfunc_end116:
	.size	_ZN8CryptoPP8SecBlockIjNS_29FixedSizeAllocatorWithCleanupIjLm32ENS_13NullAllocatorIjEELb0EEEED2Ev, .Lfunc_end116-_ZN8CryptoPP8SecBlockIjNS_29FixedSizeAllocatorWithCleanupIjLm32ENS_13NullAllocatorIjEELb0EEEED2Ev
	.cfi_endproc

	.section	.text._ZN8CryptoPP29FixedSizeAllocatorWithCleanupIjLm32ENS_13NullAllocatorIjEELb0EE10deallocateEPvm,"axG",@progbits,_ZN8CryptoPP29FixedSizeAllocatorWithCleanupIjLm32ENS_13NullAllocatorIjEELb0EE10deallocateEPvm,comdat
	.weak	_ZN8CryptoPP29FixedSizeAllocatorWithCleanupIjLm32ENS_13NullAllocatorIjEELb0EE10deallocateEPvm 
	.p2align	4, 0x90
	.type	_ZN8CryptoPP29FixedSizeAllocatorWithCleanupIjLm32ENS_13NullAllocatorIjEELb0EE10deallocateEPvm,@function
_ZN8CryptoPP29FixedSizeAllocatorWithCleanupIjLm32ENS_13NullAllocatorIjEELb0EE10deallocateEPvm: 
	.cfi_startproc

	push	rbp
.Lcfi298:
	.cfi_def_cfa_offset 16
	push	r15
.Lcfi299:
	.cfi_def_cfa_offset 24
	push	r14
.Lcfi300:
	.cfi_def_cfa_offset 32
	push	r13
.Lcfi301:
	.cfi_def_cfa_offset 40
	push	r12
.Lcfi302:
	.cfi_def_cfa_offset 48
	push	rbx
.Lcfi303:
	.cfi_def_cfa_offset 56
	push	rax
.Lcfi304:
	.cfi_def_cfa_offset 64
.Lcfi305:
	.cfi_offset rbx, -56
.Lcfi306:
	.cfi_offset r12, -48
.Lcfi307:
	.cfi_offset r13, -40
.Lcfi308:
	.cfi_offset r14, -32
.Lcfi309:
	.cfi_offset r15, -24
.Lcfi310:
	.cfi_offset rbp, -16
	mov	r14, rdx
	mov	rbp, rsi
	mov	r15, rdi
	call	_ZN8CryptoPP29FixedSizeAllocatorWithCleanupIjLm32ENS_13NullAllocatorIjEELb0EE15GetAlignedArrayEv
	mov	qword ptr [rsp], rax
	test	rbp, rbp
	mov	eax, -450737389
	mov	r13d, -107618701
	cmove	r13d, eax
	mov	r12, r15
	sub	r12, -128
	mov	eax, 360144339
	jmp	.LBB117_1
.LBB117_8:                              
	mov	eax, -1885672271
	.p2align	4, 0x90
.LBB117_1:                              
	cmp	eax, -450737390
	jle	.LBB117_2

	cmp	eax, 344169653
	jle	.LBB117_10

	cmp	eax, 344169654
	je	.LBB117_19

	cmp	eax, 360144339
	je	.LBB117_17

	cmp	eax, 1736368761
	jne	.LBB117_1
	jmp	.LBB117_16
	.p2align	4, 0x90
.LBB117_2:                              
	cmp	eax, -1566102399
	jg	.LBB117_6

	cmp	eax, -1885672271
	je	.LBB117_26

	cmp	eax, -1602752227
	jne	.LBB117_1

	mov	eax, r13d
	jmp	.LBB117_1
	.p2align	4, 0x90
.LBB117_10:                             
	cmp	eax, -450737389
	je	.LBB117_20

	cmp	eax, -107618701
	jne	.LBB117_1

	mov	rdi, r12
	mov	rsi, rbp
	mov	rdx, r14
	call	_ZN8CryptoPP13NullAllocatorIjE10deallocateEPvm
	mov	eax, -450737389
	jmp	.LBB117_1
	.p2align	4, 0x90
.LBB117_6:                              
	cmp	eax, -1566102398
	je	.LBB117_21

	cmp	eax, -933228267
	jne	.LBB117_1
	jmp	.LBB117_8
.LBB117_19:                             
	mov	byte ptr [r15 + 129], 0
	mov	rdi, rbp
	mov	rsi, r14
	call	_ZN8CryptoPP15SecureWipeArrayIjEEvPT_m
	mov	eax, -1566102398
	jmp	.LBB117_1
.LBB117_17:                             
	mov	rax, qword ptr [rsp]
	cmp	rax, rbp
	mov	eax, 344169654
	je	.LBB117_1

	mov	eax, -1602752227
	jmp	.LBB117_1
.LBB117_26:                             
	mov	eax, dword ptr [rip + x.221]
	mov	ecx, dword ptr [rip + y.222]
	mov	edx, eax
	neg	edx
	not	edx
	imul	edx, eax
	not	edx
	or	edx, -2
	cmp	edx, -1
	sete	bl
	mov	eax, 1736368761
	mov	edx, -933228267
	mov	esi, 1736368761
	je	.LBB117_28

	mov	esi, -933228267
.LBB117_28:                             
	cmp	ecx, 10
	setl	cl
	cmovl	edx, esi
	xor	cl, bl
	jne	.LBB117_1

	mov	eax, edx
	jmp	.LBB117_1
.LBB117_20:                             
	mov	byte ptr [r15 + 129], 0
	mov	eax, -1566102398
	jmp	.LBB117_1
.LBB117_21:                             
	mov	eax, dword ptr [rip + x.221]
	mov	ecx, dword ptr [rip + y.222]
	lea	esi, [rax - 1]
	imul	esi, eax
	mov	edx, esi
	xor	edx, -2
	and	edx, esi
	sete	al
	cmp	ecx, 10
	setl	bl
	xor	bl, al
	mov	esi, -1885672271
	mov	eax, -1885672271
	jne	.LBB117_23

	mov	eax, -933228267
.LBB117_23:                             
	test	edx, edx
	je	.LBB117_25

	mov	esi, eax
.LBB117_25:                             
	cmp	ecx, 10
	cmovl	eax, esi
	jmp	.LBB117_1
.LBB117_16:
	add	rsp, 8
	pop	rbx
	pop	r12
	pop	r13
	pop	r14
	pop	r15
	pop	rbp
	ret
.Lfunc_end117:
	.size	_ZN8CryptoPP29FixedSizeAllocatorWithCleanupIjLm32ENS_13NullAllocatorIjEELb0EE10deallocateEPvm, .Lfunc_end117-_ZN8CryptoPP29FixedSizeAllocatorWithCleanupIjLm32ENS_13NullAllocatorIjEELb0EE10deallocateEPvm
	.cfi_endproc

	.section	.text._ZN8CryptoPP6STDMINImEERKT_S3_S3_,"axG",@progbits,_ZN8CryptoPP6STDMINImEERKT_S3_S3_,comdat
	.weak	_ZN8CryptoPP6STDMINImEERKT_S3_S3_ 
	.p2align	4, 0x90
	.type	_ZN8CryptoPP6STDMINImEERKT_S3_S3_,@function
_ZN8CryptoPP6STDMINImEERKT_S3_S3_:      

	mov	rax, qword ptr [rsi]
	cmp	rax, qword ptr [rdi]
	cmovb	rdi, rsi
	mov	rax, rdi
	ret
.Lfunc_end118:
	.size	_ZN8CryptoPP6STDMINImEERKT_S3_S3_, .Lfunc_end118-_ZN8CryptoPP6STDMINImEERKT_S3_S3_

	.section	.text._ZN8CryptoPP29FixedSizeAllocatorWithCleanupIjLm32ENS_13NullAllocatorIjEELb0EE15GetAlignedArrayEv,"axG",@progbits,_ZN8CryptoPP29FixedSizeAllocatorWithCleanupIjLm32ENS_13NullAllocatorIjEELb0EE15GetAlignedArrayEv,comdat
	.weak	_ZN8CryptoPP29FixedSizeAllocatorWithCleanupIjLm32ENS_13NullAllocatorIjEELb0EE15GetAlignedArrayEv 
	.p2align	4, 0x90
	.type	_ZN8CryptoPP29FixedSizeAllocatorWithCleanupIjLm32ENS_13NullAllocatorIjEELb0EE15GetAlignedArrayEv,@function
_ZN8CryptoPP29FixedSizeAllocatorWithCleanupIjLm32ENS_13NullAllocatorIjEELb0EE15GetAlignedArrayEv: 

	mov	rax, rdi
	ret
.Lfunc_end119:
	.size	_ZN8CryptoPP29FixedSizeAllocatorWithCleanupIjLm32ENS_13NullAllocatorIjEELb0EE15GetAlignedArrayEv, .Lfunc_end119-_ZN8CryptoPP29FixedSizeAllocatorWithCleanupIjLm32ENS_13NullAllocatorIjEELb0EE15GetAlignedArrayEv

	.section	.text._ZN8CryptoPP15SecureWipeArrayIjEEvPT_m,"axG",@progbits,_ZN8CryptoPP15SecureWipeArrayIjEEvPT_m,comdat
	.weak	_ZN8CryptoPP15SecureWipeArrayIjEEvPT_m 
	.p2align	4, 0x90
	.type	_ZN8CryptoPP15SecureWipeArrayIjEEvPT_m,@function
_ZN8CryptoPP15SecureWipeArrayIjEEvPT_m: 
	.cfi_startproc

	push	rbp
.Lcfi311:
	.cfi_def_cfa_offset 16
	push	r15
.Lcfi312:
	.cfi_def_cfa_offset 24
	push	r14
.Lcfi313:
	.cfi_def_cfa_offset 32
	push	r13
.Lcfi314:
	.cfi_def_cfa_offset 40
	push	r12
.Lcfi315:
	.cfi_def_cfa_offset 48
	push	rbx
.Lcfi316:
	.cfi_def_cfa_offset 56
	sub	rsp, 24
.Lcfi317:
	.cfi_def_cfa_offset 80
.Lcfi318:
	.cfi_offset rbx, -56
.Lcfi319:
	.cfi_offset r12, -48
.Lcfi320:
	.cfi_offset r13, -40
.Lcfi321:
	.cfi_offset r14, -32
.Lcfi322:
	.cfi_offset r15, -24
.Lcfi323:
	.cfi_offset rbp, -16
	mov	rbx, rsi
	mov	r14, rdi
	call	_ZN8CryptoPP14GetAlignmentOfIjEEjv
	mov	ebp, eax
	call	_ZN8CryptoPP14GetAlignmentOfIjEEjv
	mov	ecx, eax
	xor	edx, edx
	mov	eax, ebp
	div	ecx
	mov	dword ptr [rsp + 12], edx
	lea	r15, [rbx + rbx]
	lea	r12, [4*rbx]
	mov	eax, 923052832
	mov	r13d, -960293676
	jmp	.LBB120_1
.LBB120_10:                             
	call	_ZN8CryptoPP14GetAlignmentOfIjEEjv
	mov	ebp, eax
	call	_ZN8CryptoPP14GetAlignmentOfItEEjv
	mov	ecx, eax
	xor	edx, edx
	mov	eax, ebp
	div	ecx
	test	edx, edx
	mov	qword ptr [rsp + 16], r14
	mov	eax, -1830144363
	mov	ecx, -990409663
	cmove	eax, ecx
	.p2align	4, 0x90
.LBB120_1:                              
	cmp	eax, 319406713
	jle	.LBB120_2

	cmp	eax, 319406714
	je	.LBB120_10

	cmp	eax, 1077977733
	je	.LBB120_13

	cmp	eax, 923052832
	jne	.LBB120_1

	cmp	dword ptr [rsp + 12], 0
	mov	eax, 319406714
	cmove	eax, r13d
	jmp	.LBB120_1
	.p2align	4, 0x90
.LBB120_2:                              
	cmp	eax, -1830144363
	je	.LBB120_12

	cmp	eax, -990409663
	je	.LBB120_11

	cmp	eax, -960293676
	jne	.LBB120_1

	mov	rdi, r14
	mov	rsi, rbx
	call	_ZN8CryptoPP16SecureWipeBufferIjEEvPT_m
	mov	eax, 1077977733
	jmp	.LBB120_1
.LBB120_12:                             
	mov	rdi, qword ptr [rsp + 16]
	mov	rsi, r12
	call	_ZN8CryptoPP16SecureWipeBufferIhEEvPT_m
	mov	eax, 1077977733
	jmp	.LBB120_1
.LBB120_11:                             
	mov	rdi, qword ptr [rsp + 16]
	mov	rsi, r15
	call	_ZN8CryptoPP16SecureWipeBufferItEEvPT_m
	mov	eax, 1077977733
	jmp	.LBB120_1
.LBB120_13:
	add	rsp, 24
	pop	rbx
	pop	r12
	pop	r13
	pop	r14
	pop	r15
	pop	rbp
	ret
.Lfunc_end120:
	.size	_ZN8CryptoPP15SecureWipeArrayIjEEvPT_m, .Lfunc_end120-_ZN8CryptoPP15SecureWipeArrayIjEEvPT_m
	.cfi_endproc

	.section	.text._ZN8CryptoPP13NullAllocatorIjE10deallocateEPvm,"axG",@progbits,_ZN8CryptoPP13NullAllocatorIjE10deallocateEPvm,comdat
	.weak	_ZN8CryptoPP13NullAllocatorIjE10deallocateEPvm 
	.p2align	4, 0x90
	.type	_ZN8CryptoPP13NullAllocatorIjE10deallocateEPvm,@function
_ZN8CryptoPP13NullAllocatorIjE10deallocateEPvm: 

	ret
.Lfunc_end121:
	.size	_ZN8CryptoPP13NullAllocatorIjE10deallocateEPvm, .Lfunc_end121-_ZN8CryptoPP13NullAllocatorIjE10deallocateEPvm

	.section	.text._ZN8CryptoPP14GetAlignmentOfIjEEjv,"axG",@progbits,_ZN8CryptoPP14GetAlignmentOfIjEEjv,comdat
	.weak	_ZN8CryptoPP14GetAlignmentOfIjEEjv 
	.p2align	4, 0x90
	.type	_ZN8CryptoPP14GetAlignmentOfIjEEjv,@function
_ZN8CryptoPP14GetAlignmentOfIjEEjv:     

	mov	eax, 4
	ret
.Lfunc_end122:
	.size	_ZN8CryptoPP14GetAlignmentOfIjEEjv, .Lfunc_end122-_ZN8CryptoPP14GetAlignmentOfIjEEjv

	.section	.text._ZN8CryptoPP16SecureWipeBufferIjEEvPT_m,"axG",@progbits,_ZN8CryptoPP16SecureWipeBufferIjEEvPT_m,comdat
	.weak	_ZN8CryptoPP16SecureWipeBufferIjEEvPT_m 
	.p2align	4, 0x90
	.type	_ZN8CryptoPP16SecureWipeBufferIjEEvPT_m,@function
_ZN8CryptoPP16SecureWipeBufferIjEEvPT_m: 

	mov	r11, rsi
	mov	rsi, rdi
	mov	eax, dword ptr [rip + x.233]
	lea	ecx, [rax - 1]
	imul	ecx, eax
	mov	eax, ecx
	xor	eax, -2
	test	eax, ecx
	sete	byte ptr [rsp - 2]
	mov	eax, dword ptr [rip + y.234]
	cmp	eax, 10
	setl	byte ptr [rsp - 1]
	mov	eax, 1690055586
	mov	r8d, 1788751648
	mov	r9d, -1866606130
	mov	r10d, -1622261086
	jmp	.LBB123_1
.LBB123_7:                              
	movzx	edx, byte ptr [rsp - 2]
	movzx	eax, byte ptr [rsp - 1]
	mov	ecx, edx
	xor	cl, al
	test	al, al
	mov	eax, -1866606130
	cmovne	eax, r10d
	test	dl, dl
	cmove	eax, r9d
	test	cl, cl
	cmovne	eax, r10d
	.p2align	4, 0x90
.LBB123_1:                              
	cmp	eax, 1690055585
	jg	.LBB123_5

	cmp	eax, -1866606130
	je	.LBB123_9

	cmp	eax, -1622261086
	jne	.LBB123_1

	xor	eax, eax
	mov	rdi, rsi
	mov	rcx, r11

	rep
	stosd	dword ptr es:[rdi], eax

	mov	eax, dword ptr [rip + x.233]
	lea	ecx, [rax - 1]
	imul	ecx, eax
	mov	eax, ecx
	xor	eax, -2
	and	eax, ecx
	sete	cl
	test	eax, eax
	mov	eax, -1866606130
	cmove	eax, r8d
	cmp	dword ptr [rip + y.234], 10
	setl	dl
	cmovge	eax, r9d
	xor	dl, cl
	cmovne	eax, r8d
	jmp	.LBB123_1
	.p2align	4, 0x90
.LBB123_5:                              
	cmp	eax, 1788751648
	je	.LBB123_8

	cmp	eax, 1690055586
	jne	.LBB123_1
	jmp	.LBB123_7
.LBB123_9:                              
	xor	eax, eax
	mov	rcx, r11
	mov	rdi, rsi

	rep
	stosd	dword ptr es:[rdi], eax

	mov	eax, -1622261086
	jmp	.LBB123_1
.LBB123_8:
	ret
.Lfunc_end123:
	.size	_ZN8CryptoPP16SecureWipeBufferIjEEvPT_m, .Lfunc_end123-_ZN8CryptoPP16SecureWipeBufferIjEEvPT_m

	.section	.text._ZN8CryptoPP14GetAlignmentOfItEEjv,"axG",@progbits,_ZN8CryptoPP14GetAlignmentOfItEEjv,comdat
	.weak	_ZN8CryptoPP14GetAlignmentOfItEEjv 
	.p2align	4, 0x90
	.type	_ZN8CryptoPP14GetAlignmentOfItEEjv,@function
_ZN8CryptoPP14GetAlignmentOfItEEjv:     

	mov	eax, 2
	ret
.Lfunc_end124:
	.size	_ZN8CryptoPP14GetAlignmentOfItEEjv, .Lfunc_end124-_ZN8CryptoPP14GetAlignmentOfItEEjv

	.section	.text._ZN8CryptoPP16SecureWipeBufferItEEvPT_m,"axG",@progbits,_ZN8CryptoPP16SecureWipeBufferItEEvPT_m,comdat
	.weak	_ZN8CryptoPP16SecureWipeBufferItEEvPT_m 
	.p2align	4, 0x90
	.type	_ZN8CryptoPP16SecureWipeBufferItEEvPT_m,@function
_ZN8CryptoPP16SecureWipeBufferItEEvPT_m: 

	xor	eax, eax
	mov	rcx, rsi

	rep
	stosw	word ptr es:[rdi], ax

	ret
.Lfunc_end125:
	.size	_ZN8CryptoPP16SecureWipeBufferItEEvPT_m, .Lfunc_end125-_ZN8CryptoPP16SecureWipeBufferItEEvPT_m

	.section	.text._ZN8CryptoPP16SecureWipeBufferIhEEvPT_m,"axG",@progbits,_ZN8CryptoPP16SecureWipeBufferIhEEvPT_m,comdat
	.weak	_ZN8CryptoPP16SecureWipeBufferIhEEvPT_m 
	.p2align	4, 0x90
	.type	_ZN8CryptoPP16SecureWipeBufferIhEEvPT_m,@function
_ZN8CryptoPP16SecureWipeBufferIhEEvPT_m: 

	mov	r11, rsi
	mov	rsi, rdi
	mov	eax, dword ptr [rip + x.239]
	lea	ecx, [rax - 1]
	imul	ecx, eax
	mov	eax, ecx
	xor	eax, -2
	test	eax, ecx
	sete	byte ptr [rsp - 2]
	mov	eax, dword ptr [rip + y.240]
	cmp	eax, 10
	setl	byte ptr [rsp - 1]
	mov	eax, 122478012
	mov	r8d, 639448942
	mov	r9d, -309710912
	mov	r10d, 2112916589
	jmp	.LBB126_1
.LBB126_4:                              
	movzx	edx, byte ptr [rsp - 2]
	movzx	eax, byte ptr [rsp - 1]
	mov	ecx, edx
	xor	cl, al
	test	al, al
	mov	eax, -309710912
	cmovne	eax, r8d
	test	dl, dl
	cmove	eax, r9d
	test	cl, cl
	cmovne	eax, r8d
	.p2align	4, 0x90
.LBB126_1:                              
	cmp	eax, 639448941
	jle	.LBB126_2

	cmp	eax, 639448942
	je	.LBB126_9

	cmp	eax, 2112916589
	jne	.LBB126_1
	jmp	.LBB126_7
	.p2align	4, 0x90
.LBB126_2:                              
	cmp	eax, -309710912
	je	.LBB126_8

	cmp	eax, 122478012
	jne	.LBB126_1
	jmp	.LBB126_4
.LBB126_9:                              
	xor	eax, eax
	mov	rdi, rsi
	mov	rcx, r11

	rep
	stosb	byte ptr es:[rdi], al

	mov	eax, dword ptr [rip + x.239]
	lea	ecx, [rax - 1]
	imul	ecx, eax
	mov	eax, ecx
	xor	eax, -2
	and	eax, ecx
	sete	cl
	test	eax, eax
	mov	eax, -309710912
	cmove	eax, r10d
	cmp	dword ptr [rip + y.240], 10
	setl	dl
	cmovge	eax, r9d
	xor	dl, cl
	cmovne	eax, r10d
	jmp	.LBB126_1
.LBB126_8:                              
	xor	eax, eax
	mov	rcx, r11
	mov	rdi, rsi

	rep
	stosb	byte ptr es:[rdi], al

	mov	eax, 639448942
	jmp	.LBB126_1
.LBB126_7:
	ret
.Lfunc_end126:
	.size	_ZN8CryptoPP16SecureWipeBufferIhEEvPT_m, .Lfunc_end126-_ZN8CryptoPP16SecureWipeBufferIhEEvPT_m

	.section	.text._ZN8CryptoPP21SimpleKeyingInterfaceD2Ev,"axG",@progbits,_ZN8CryptoPP21SimpleKeyingInterfaceD2Ev,comdat
	.weak	_ZN8CryptoPP21SimpleKeyingInterfaceD2Ev 
	.p2align	4, 0x90
	.type	_ZN8CryptoPP21SimpleKeyingInterfaceD2Ev,@function
_ZN8CryptoPP21SimpleKeyingInterfaceD2Ev: 

	ret
.Lfunc_end127:
	.size	_ZN8CryptoPP21SimpleKeyingInterfaceD2Ev, .Lfunc_end127-_ZN8CryptoPP21SimpleKeyingInterfaceD2Ev

	.section	.text._ZStplIcSt11char_traitsIcESaIcEENSt7__cxx1112basic_stringIT_T0_T1_EERKS8_PKS5_,"axG",@progbits,_ZStplIcSt11char_traitsIcESaIcEENSt7__cxx1112basic_stringIT_T0_T1_EERKS8_PKS5_,comdat
	.weak	_ZStplIcSt11char_traitsIcESaIcEENSt7__cxx1112basic_stringIT_T0_T1_EERKS8_PKS5_ 
	.p2align	4, 0x90
	.type	_ZStplIcSt11char_traitsIcESaIcEENSt7__cxx1112basic_stringIT_T0_T1_EERKS8_PKS5_,@function
_ZStplIcSt11char_traitsIcESaIcEENSt7__cxx1112basic_stringIT_T0_T1_EERKS8_PKS5_: 
.Lfunc_begin11:
	.cfi_startproc
	.cfi_personality 3, __gxx_personality_v0
	.cfi_lsda 3, .Lexception11

	push	r14
.Lcfi324:
	.cfi_def_cfa_offset 16
	push	rbx
.Lcfi325:
	.cfi_def_cfa_offset 24
	push	rax
.Lcfi326:
	.cfi_def_cfa_offset 32
.Lcfi327:
	.cfi_offset rbx, -24
.Lcfi328:
	.cfi_offset r14, -16
	mov	r14, rdx
	mov	rbx, rdi
	call	_ZNSt7__cxx1112basic_stringIcSt11char_traitsIcESaIcEEC2ERKS4_
.Ltmp90:
	mov	rdi, rbx
	mov	rsi, r14
	call	_ZNSt7__cxx1112basic_stringIcSt11char_traitsIcESaIcEE6appendEPKc
.Ltmp91:

	mov	rax, rbx
	add	rsp, 8
	pop	rbx
	pop	r14
	ret
.LBB128_2:
.Ltmp92:
	mov	r14, rax
.Ltmp93:
	mov	rdi, rbx
	call	_ZNSt7__cxx1112basic_stringIcSt11char_traitsIcESaIcEED2Ev
.Ltmp94:

	mov	rdi, r14
	call	_Unwind_Resume
.LBB128_4:
.Ltmp95:
	mov	rdi, rax
	call	__clang_call_terminate
.Lfunc_end128:
	.size	_ZStplIcSt11char_traitsIcESaIcEENSt7__cxx1112basic_stringIT_T0_T1_EERKS8_PKS5_, .Lfunc_end128-_ZStplIcSt11char_traitsIcESaIcEENSt7__cxx1112basic_stringIT_T0_T1_EERKS8_PKS5_
	.cfi_endproc
	.section	.gcc_except_table,"a",@progbits
	.p2align	2
GCC_except_table128:
.Lexception11:
	.byte	255                     
	.byte	3                       
	.asciz	"\274"                  
	.byte	3                       
	.byte	52                      
	.long	.Lfunc_begin11-.Lfunc_begin11 
	.long	.Ltmp90-.Lfunc_begin11  
	.long	0                       
	.byte	0                       
	.long	.Ltmp90-.Lfunc_begin11  
	.long	.Ltmp91-.Ltmp90         
	.long	.Ltmp92-.Lfunc_begin11  
	.byte	0                       
	.long	.Ltmp93-.Lfunc_begin11  
	.long	.Ltmp94-.Ltmp93         
	.long	.Ltmp95-.Lfunc_begin11  
	.byte	1                       
	.long	.Ltmp94-.Lfunc_begin11  
	.long	.Lfunc_end128-.Ltmp94   
	.long	0                       
	.byte	0                       
	.byte	1                       

	.byte	0                       

	.long	0                       
	.p2align	2

	.section	.text._ZN8CryptoPP14NotImplementedC2ERKNSt7__cxx1112basic_stringIcSt11char_traitsIcESaIcEEE,"axG",@progbits,_ZN8CryptoPP14NotImplementedC2ERKNSt7__cxx1112basic_stringIcSt11char_traitsIcESaIcEEE,comdat
	.weak	_ZN8CryptoPP14NotImplementedC2ERKNSt7__cxx1112basic_stringIcSt11char_traitsIcESaIcEEE 
	.p2align	4, 0x90
	.type	_ZN8CryptoPP14NotImplementedC2ERKNSt7__cxx1112basic_stringIcSt11char_traitsIcESaIcEEE,@function
_ZN8CryptoPP14NotImplementedC2ERKNSt7__cxx1112basic_stringIcSt11char_traitsIcESaIcEEE: 
	.cfi_startproc

	push	rbp
.Lcfi329:
	.cfi_def_cfa_offset 16
	push	r15
.Lcfi330:
	.cfi_def_cfa_offset 24
	push	r14
.Lcfi331:
	.cfi_def_cfa_offset 32
	push	r12
.Lcfi332:
	.cfi_def_cfa_offset 40
	push	rbx
.Lcfi333:
	.cfi_def_cfa_offset 48
	sub	rsp, 16
.Lcfi334:
	.cfi_def_cfa_offset 64
.Lcfi335:
	.cfi_offset rbx, -48
.Lcfi336:
	.cfi_offset r12, -40
.Lcfi337:
	.cfi_offset r14, -32
.Lcfi338:
	.cfi_offset r15, -24
.Lcfi339:
	.cfi_offset rbp, -16
	mov	eax, dword ptr [rip + x.243]
	lea	ecx, [rax - 1]
	imul	ecx, eax
	not	ecx
	or	ecx, -2
	cmp	ecx, -1
	sete	byte ptr [rsp + 14]
	mov	eax, dword ptr [rip + y.244]
	cmp	eax, 10
	setl	byte ptr [rsp + 15]
	mov	r14, rsi
	mov	rbp, rdi
	mov	eax, -1767885620
	mov	r15d, -1057286198
	mov	r12d, -972539910
	jmp	.LBB129_1
.LBB129_8:                              
	movzx	ecx, byte ptr [rsp + 14]
	movzx	eax, byte ptr [rsp + 15]
	mov	edx, ecx
	xor	dl, al
	mov	edx, 908498704
	cmovne	edx, r15d
	test	al, al
	mov	eax, edx
	cmovne	eax, r15d
	test	cl, cl
	cmove	eax, edx
	.p2align	4, 0x90
.LBB129_1:                              
	cmp	eax, -972539911
	jg	.LBB129_5

	cmp	eax, -1767885620
	je	.LBB129_8

	cmp	eax, -1057286198
	jne	.LBB129_1

	xor	esi, esi
	mov	rdi, rbp
	mov	rdx, r14
	call	_ZN8CryptoPP9ExceptionC2ENS0_9ErrorTypeERKNSt7__cxx1112basic_stringIcSt11char_traitsIcESaIcEEE
	mov	qword ptr [rbp], _ZTVN8CryptoPP14NotImplementedE+16
	mov	eax, dword ptr [rip + x.243]
	mov	ecx, dword ptr [rip + y.244]
	lea	edx, [rax - 1]
	imul	edx, eax
	not	edx
	or	edx, -2
	cmp	edx, -1
	sete	al
	cmp	ecx, 10
	setl	bl
	xor	bl, al
	mov	esi, 908498704
	cmovne	esi, r12d
	cmp	edx, -1
	mov	eax, esi
	cmove	eax, r12d
	cmp	ecx, 10
	cmovge	eax, esi
	jmp	.LBB129_1
	.p2align	4, 0x90
.LBB129_5:                              
	cmp	eax, -972539910
	je	.LBB129_9

	cmp	eax, 908498704
	jne	.LBB129_1

	xor	esi, esi
	mov	rdi, rbp
	mov	rdx, r14
	call	_ZN8CryptoPP9ExceptionC2ENS0_9ErrorTypeERKNSt7__cxx1112basic_stringIcSt11char_traitsIcESaIcEEE
	mov	qword ptr [rbp], _ZTVN8CryptoPP14NotImplementedE+16
	mov	eax, -1057286198
	jmp	.LBB129_1
.LBB129_9:
	add	rsp, 16
	pop	rbx
	pop	r12
	pop	r14
	pop	r15
	pop	rbp
	ret
.Lfunc_end129:
	.size	_ZN8CryptoPP14NotImplementedC2ERKNSt7__cxx1112basic_stringIcSt11char_traitsIcESaIcEEE, .Lfunc_end129-_ZN8CryptoPP14NotImplementedC2ERKNSt7__cxx1112basic_stringIcSt11char_traitsIcESaIcEEE
	.cfi_endproc

	.section	.text._ZN8CryptoPP9ExceptionD2Ev,"axG",@progbits,_ZN8CryptoPP9ExceptionD2Ev,comdat
	.weak	_ZN8CryptoPP9ExceptionD2Ev 
	.p2align	4, 0x90
	.type	_ZN8CryptoPP9ExceptionD2Ev,@function
_ZN8CryptoPP9ExceptionD2Ev:             
.Lfunc_begin12:
	.cfi_startproc
	.cfi_personality 3, __gxx_personality_v0
	.cfi_lsda 3, .Lexception12

	push	r14
	push	rbx
	push	rax
	mov	rbx, rdi
	mov	qword ptr [rbx], _ZTVN8CryptoPP9ExceptionE+16
	lea	rdi, [rbx + 16]
.Ltmp96:
	call	_ZNSt7__cxx1112basic_stringIcSt11char_traitsIcESaIcEED2Ev
.Ltmp97:

	mov	rdi, rbx
	add	rsp, 8
	pop	rbx
	pop	r14
	jmp	_ZNSt9exceptionD2Ev     
.LBB130_2:
.Ltmp98:
	mov	r14, rax
	mov	rdi, rbx
	call	_ZNSt9exceptionD2Ev
	mov	rdi, r14
	call	__cxa_call_unexpected
.Lfunc_end130:
	.size	_ZN8CryptoPP9ExceptionD2Ev, .Lfunc_end130-_ZN8CryptoPP9ExceptionD2Ev
	.cfi_endproc
	.section	.gcc_except_table,"a",@progbits
	.p2align	2
GCC_except_table130:
.Lexception12:
	.byte	255                     
	.byte	3                       
	.asciz	"\236\200\200"          
	.byte	3                       
	.byte	26                      
	.long	.Ltmp96-.Lfunc_begin12  
	.long	.Ltmp97-.Ltmp96         
	.long	.Ltmp98-.Lfunc_begin12  
	.byte	1                       
	.long	.Ltmp97-.Lfunc_begin12  
	.long	.Lfunc_end130-.Ltmp97   
	.long	0                       
	.byte	0                       
	.byte	127                     

	.byte	0                       

	.byte	0
	.p2align	2

	.section	.text._ZN9__gnu_cxx14__alloc_traitsISaIcEE17_S_select_on_copyERKS1_,"axG",@progbits,_ZN9__gnu_cxx14__alloc_traitsISaIcEE17_S_select_on_copyERKS1_,comdat
	.weak	_ZN9__gnu_cxx14__alloc_traitsISaIcEE17_S_select_on_copyERKS1_ 
	.p2align	4, 0x90
	.type	_ZN9__gnu_cxx14__alloc_traitsISaIcEE17_S_select_on_copyERKS1_,@function
_ZN9__gnu_cxx14__alloc_traitsISaIcEE17_S_select_on_copyERKS1_: 

	mov	rax, rdi
	ret
.Lfunc_end131:
	.size	_ZN9__gnu_cxx14__alloc_traitsISaIcEE17_S_select_on_copyERKS1_, .Lfunc_end131-_ZN9__gnu_cxx14__alloc_traitsISaIcEE17_S_select_on_copyERKS1_

	.section	.text._ZNSt7__cxx1112basic_stringIcSt11char_traitsIcESaIcEE12_M_constructIPcEEvT_S7_,"axG",@progbits,_ZNSt7__cxx1112basic_stringIcSt11char_traitsIcESaIcEE12_M_constructIPcEEvT_S7_,comdat
	.weak	_ZNSt7__cxx1112basic_stringIcSt11char_traitsIcESaIcEE12_M_constructIPcEEvT_S7_ 
	.p2align	4, 0x90
	.type	_ZNSt7__cxx1112basic_stringIcSt11char_traitsIcESaIcEE12_M_constructIPcEEvT_S7_,@function
_ZNSt7__cxx1112basic_stringIcSt11char_traitsIcESaIcEE12_M_constructIPcEEvT_S7_: 
	.cfi_startproc

	jmp	_ZNSt7__cxx1112basic_stringIcSt11char_traitsIcESaIcEE16_M_construct_auxIPcEEvT_S7_St12__false_type 
.Lfunc_end132:
	.size	_ZNSt7__cxx1112basic_stringIcSt11char_traitsIcESaIcEE12_M_constructIPcEEvT_S7_, .Lfunc_end132-_ZNSt7__cxx1112basic_stringIcSt11char_traitsIcESaIcEE12_M_constructIPcEEvT_S7_
	.cfi_endproc

	.section	.text._ZNSt7__cxx1112basic_stringIcSt11char_traitsIcESaIcEE12_Alloc_hiderD2Ev,"axG",@progbits,_ZNSt7__cxx1112basic_stringIcSt11char_traitsIcESaIcEE12_Alloc_hiderD2Ev,comdat
	.weak	_ZNSt7__cxx1112basic_stringIcSt11char_traitsIcESaIcEE12_Alloc_hiderD2Ev 
	.p2align	4, 0x90
	.type	_ZNSt7__cxx1112basic_stringIcSt11char_traitsIcESaIcEE12_Alloc_hiderD2Ev,@function
_ZNSt7__cxx1112basic_stringIcSt11char_traitsIcESaIcEE12_Alloc_hiderD2Ev: 

	jmp	_ZNSaIcED2Ev            
.Lfunc_end133:
	.size	_ZNSt7__cxx1112basic_stringIcSt11char_traitsIcESaIcEE12_Alloc_hiderD2Ev, .Lfunc_end133-_ZNSt7__cxx1112basic_stringIcSt11char_traitsIcESaIcEE12_Alloc_hiderD2Ev

	.section	.text._ZN9__gnu_cxx13new_allocatorIcEC2ERKS1_,"axG",@progbits,_ZN9__gnu_cxx13new_allocatorIcEC2ERKS1_,comdat
	.weak	_ZN9__gnu_cxx13new_allocatorIcEC2ERKS1_ 
	.p2align	4, 0x90
	.type	_ZN9__gnu_cxx13new_allocatorIcEC2ERKS1_,@function
_ZN9__gnu_cxx13new_allocatorIcEC2ERKS1_: 

	mov	eax, dword ptr [rip + x.251]
	mov	esi, dword ptr [rip + y.252]
	lea	edx, [rax - 1]
	imul	edx, eax
	not	edx
	or	edx, -2
	cmp	edx, -1
	sete	al
	cmp	esi, 10
	setl	cl
	xor	cl, al
	mov	edi, -145439905
	mov	ecx, 233247449
	cmovne	ecx, edi
	cmp	edx, -1
	sete	byte ptr [rsp - 2]
	cmovne	edi, ecx
	cmp	esi, 10
	setl	byte ptr [rsp - 1]
	cmovge	edi, ecx
	mov	edx, 1218757699
	mov	esi, -188431844
	jmp	.LBB134_1
.LBB134_3:                              
	mov	edx, edi
	.p2align	4, 0x90
.LBB134_1:                              
	cmp	edx, 233247448
	jg	.LBB134_4

	cmp	edx, -188431844
	je	.LBB134_3

	cmp	edx, -145439905
	jne	.LBB134_1
	jmp	.LBB134_8
	.p2align	4, 0x90
.LBB134_4:                              
	cmp	edx, 233247449
	je	.LBB134_9

	cmp	edx, 1218757699
	jne	.LBB134_1

	movzx	eax, byte ptr [rsp - 2]
	movzx	edx, byte ptr [rsp - 1]
	mov	ecx, eax
	xor	cl, dl
	mov	ecx, 233247449
	cmovne	ecx, esi
	test	dl, dl
	mov	edx, ecx
	cmovne	edx, esi
	test	al, al
	cmove	edx, ecx
	jmp	.LBB134_1
.LBB134_9:                              
	mov	edx, -188431844
	jmp	.LBB134_1
.LBB134_8:
	ret
.Lfunc_end134:
	.size	_ZN9__gnu_cxx13new_allocatorIcEC2ERKS1_, .Lfunc_end134-_ZN9__gnu_cxx13new_allocatorIcEC2ERKS1_

	.section	.text._ZNSt7__cxx1112basic_stringIcSt11char_traitsIcESaIcEE16_M_construct_auxIPcEEvT_S7_St12__false_type,"axG",@progbits,_ZNSt7__cxx1112basic_stringIcSt11char_traitsIcESaIcEE16_M_construct_auxIPcEEvT_S7_St12__false_type,comdat
	.weak	_ZNSt7__cxx1112basic_stringIcSt11char_traitsIcESaIcEE16_M_construct_auxIPcEEvT_S7_St12__false_type 
	.p2align	4, 0x90
	.type	_ZNSt7__cxx1112basic_stringIcSt11char_traitsIcESaIcEE16_M_construct_auxIPcEEvT_S7_St12__false_type,@function
_ZNSt7__cxx1112basic_stringIcSt11char_traitsIcESaIcEE16_M_construct_auxIPcEEvT_S7_St12__false_type: 
	.cfi_startproc

	jmp	_ZNSt7__cxx1112basic_stringIcSt11char_traitsIcESaIcEE12_M_constructIPcEEvT_S7_St20forward_iterator_tag 
.Lfunc_end135:
	.size	_ZNSt7__cxx1112basic_stringIcSt11char_traitsIcESaIcEE16_M_construct_auxIPcEEvT_S7_St12__false_type, .Lfunc_end135-_ZNSt7__cxx1112basic_stringIcSt11char_traitsIcESaIcEE16_M_construct_auxIPcEEvT_S7_St12__false_type
	.cfi_endproc

	.section	.text._ZNSt7__cxx1112basic_stringIcSt11char_traitsIcESaIcEE12_M_constructIPcEEvT_S7_St20forward_iterator_tag,"axG",@progbits,_ZNSt7__cxx1112basic_stringIcSt11char_traitsIcESaIcEE12_M_constructIPcEEvT_S7_St20forward_iterator_tag,comdat
	.weak	_ZNSt7__cxx1112basic_stringIcSt11char_traitsIcESaIcEE12_M_constructIPcEEvT_S7_St20forward_iterator_tag 
	.p2align	4, 0x90
	.type	_ZNSt7__cxx1112basic_stringIcSt11char_traitsIcESaIcEE12_M_constructIPcEEvT_S7_St20forward_iterator_tag,@function
_ZNSt7__cxx1112basic_stringIcSt11char_traitsIcESaIcEE12_M_constructIPcEEvT_S7_St20forward_iterator_tag: 
.Lfunc_begin13:
	.cfi_startproc
	.cfi_personality 3, __gxx_personality_v0
	.cfi_lsda 3, .Lexception13

	push	r15
.Lcfi340:
	.cfi_def_cfa_offset 16
	push	r14
.Lcfi341:
	.cfi_def_cfa_offset 24
	push	rbx
.Lcfi342:
	.cfi_def_cfa_offset 32
	sub	rsp, 16
.Lcfi343:
	.cfi_def_cfa_offset 48
.Lcfi344:
	.cfi_offset rbx, -32
.Lcfi345:
	.cfi_offset r14, -24
.Lcfi346:
	.cfi_offset r15, -16
	mov	r15, rdx
	mov	rbx, rsi
	mov	r14, rdi
	mov	rdi, rbx
	call	_ZN9__gnu_cxx17__is_null_pointerIcEEbPT_
	xor	al, 1
	cmp	rbx, r15
	sete	cl
	test	cl, al
	jne	.LBB136_2

	xor	cl, al
	je	.LBB136_12
.LBB136_2:
	mov	rdi, rbx
	mov	rsi, r15
	call	_ZSt8distanceIPcENSt15iterator_traitsIT_E15difference_typeES2_S2_
	mov	qword ptr [rsp + 8], rax
	cmp	rax, 16
	jb	.LBB136_4

	lea	rsi, [rsp + 8]
	xor	edx, edx
	mov	rdi, r14
	call	_ZNSt7__cxx1112basic_stringIcSt11char_traitsIcESaIcEE9_M_createERmm
	mov	rdi, r14
	mov	rsi, rax
	call	_ZNSt7__cxx1112basic_stringIcSt11char_traitsIcESaIcEE7_M_dataEPc
	mov	rsi, qword ptr [rsp + 8]
	mov	rdi, r14
	call	_ZNSt7__cxx1112basic_stringIcSt11char_traitsIcESaIcEE11_M_capacityEm
.LBB136_4:
	mov	rdi, r14
	call	_ZNKSt7__cxx1112basic_stringIcSt11char_traitsIcESaIcEE7_M_dataEv
.Ltmp99:
	mov	rdi, rax
	mov	rsi, rbx
	mov	rdx, r15
	call	_ZNSt7__cxx1112basic_stringIcSt11char_traitsIcESaIcEE13_S_copy_charsEPcS5_S5_
.Ltmp100:

	mov	rsi, qword ptr [rsp + 8]
	mov	rdi, r14
	call	_ZNSt7__cxx1112basic_stringIcSt11char_traitsIcESaIcEE13_M_set_lengthEm
	add	rsp, 16
	pop	rbx
	pop	r14
	pop	r15
	ret
.LBB136_12:
	mov	edi, .L.str.1
	call	_ZSt19__throw_logic_errorPKc
.LBB136_6:
.Ltmp101:
	mov	rdi, rax
	call	__cxa_begin_catch
.Ltmp102:
	mov	rdi, r14
	call	_ZNSt7__cxx1112basic_stringIcSt11char_traitsIcESaIcEE10_M_disposeEv
.Ltmp103:

.Ltmp104:
	call	__cxa_rethrow
.Ltmp105:

.LBB136_8:
.Ltmp106:
	mov	rbx, rax
.Ltmp107:
	call	__cxa_end_catch
.Ltmp108:

	mov	rdi, rbx
	call	_Unwind_Resume
.LBB136_10:
.Ltmp109:
	mov	rdi, rax
	call	__clang_call_terminate
.Lfunc_end136:
	.size	_ZNSt7__cxx1112basic_stringIcSt11char_traitsIcESaIcEE12_M_constructIPcEEvT_S7_St20forward_iterator_tag, .Lfunc_end136-_ZNSt7__cxx1112basic_stringIcSt11char_traitsIcESaIcEE12_M_constructIPcEEvT_S7_St20forward_iterator_tag
	.cfi_endproc
	.section	.gcc_except_table,"a",@progbits
	.p2align	2
GCC_except_table136:
.Lexception13:
	.byte	255                     
	.byte	3                       
	.asciz	"\326\200\200"          
	.byte	3                       
	.byte	78                      
	.long	.Lfunc_begin13-.Lfunc_begin13 
	.long	.Ltmp99-.Lfunc_begin13  
	.long	0                       
	.byte	0                       
	.long	.Ltmp99-.Lfunc_begin13  
	.long	.Ltmp100-.Ltmp99        
	.long	.Ltmp101-.Lfunc_begin13 
	.byte	1                       
	.long	.Ltmp100-.Lfunc_begin13 
	.long	.Ltmp102-.Ltmp100       
	.long	0                       
	.byte	0                       
	.long	.Ltmp102-.Lfunc_begin13 
	.long	.Ltmp105-.Ltmp102       
	.long	.Ltmp106-.Lfunc_begin13 
	.byte	0                       
	.long	.Ltmp107-.Lfunc_begin13 
	.long	.Ltmp108-.Ltmp107       
	.long	.Ltmp109-.Lfunc_begin13 
	.byte	1                       
	.long	.Ltmp108-.Lfunc_begin13 
	.long	.Lfunc_end136-.Ltmp108  
	.long	0                       
	.byte	0                       
	.byte	1                       

	.byte	0                       

	.long	0                       
	.p2align	2

	.section	.text._ZN9__gnu_cxx17__is_null_pointerIcEEbPT_,"axG",@progbits,_ZN9__gnu_cxx17__is_null_pointerIcEEbPT_,comdat
	.weak	_ZN9__gnu_cxx17__is_null_pointerIcEEbPT_ 
	.p2align	4, 0x90
	.type	_ZN9__gnu_cxx17__is_null_pointerIcEEbPT_,@function
_ZN9__gnu_cxx17__is_null_pointerIcEEbPT_: 

	test	rdi, rdi
	sete	al
	ret
.Lfunc_end137:
	.size	_ZN9__gnu_cxx17__is_null_pointerIcEEbPT_, .Lfunc_end137-_ZN9__gnu_cxx17__is_null_pointerIcEEbPT_

	.section	.text._ZSt8distanceIPcENSt15iterator_traitsIT_E15difference_typeES2_S2_,"axG",@progbits,_ZSt8distanceIPcENSt15iterator_traitsIT_E15difference_typeES2_S2_,comdat
	.weak	_ZSt8distanceIPcENSt15iterator_traitsIT_E15difference_typeES2_S2_ 
	.p2align	4, 0x90
	.type	_ZSt8distanceIPcENSt15iterator_traitsIT_E15difference_typeES2_S2_,@function
_ZSt8distanceIPcENSt15iterator_traitsIT_E15difference_typeES2_S2_: 
	.cfi_startproc

	push	r14
.Lcfi347:
	.cfi_def_cfa_offset 16
	push	rbx
.Lcfi348:
	.cfi_def_cfa_offset 24
	push	rax
.Lcfi349:
	.cfi_def_cfa_offset 32
.Lcfi350:
	.cfi_offset rbx, -24
.Lcfi351:
	.cfi_offset r14, -16
	mov	r14, rsi
	mov	rbx, rdi
	mov	qword ptr [rsp], rbx
	mov	rdi, rsp
	call	_ZSt19__iterator_categoryIPcENSt15iterator_traitsIT_E17iterator_categoryERKS2_
	mov	rdi, rbx
	mov	rsi, r14
	call	_ZSt10__distanceIPcENSt15iterator_traitsIT_E15difference_typeES2_S2_St26random_access_iterator_tag
	add	rsp, 8
	pop	rbx
	pop	r14
	ret
.Lfunc_end138:
	.size	_ZSt8distanceIPcENSt15iterator_traitsIT_E15difference_typeES2_S2_, .Lfunc_end138-_ZSt8distanceIPcENSt15iterator_traitsIT_E15difference_typeES2_S2_
	.cfi_endproc

	.section	.text._ZSt10__distanceIPcENSt15iterator_traitsIT_E15difference_typeES2_S2_St26random_access_iterator_tag,"axG",@progbits,_ZSt10__distanceIPcENSt15iterator_traitsIT_E15difference_typeES2_S2_St26random_access_iterator_tag,comdat
	.weak	_ZSt10__distanceIPcENSt15iterator_traitsIT_E15difference_typeES2_S2_St26random_access_iterator_tag 
	.p2align	4, 0x90
	.type	_ZSt10__distanceIPcENSt15iterator_traitsIT_E15difference_typeES2_S2_St26random_access_iterator_tag,@function
_ZSt10__distanceIPcENSt15iterator_traitsIT_E15difference_typeES2_S2_St26random_access_iterator_tag: 

	sub	rsi, rdi
	mov	rax, rsi
	ret
.Lfunc_end139:
	.size	_ZSt10__distanceIPcENSt15iterator_traitsIT_E15difference_typeES2_S2_St26random_access_iterator_tag, .Lfunc_end139-_ZSt10__distanceIPcENSt15iterator_traitsIT_E15difference_typeES2_S2_St26random_access_iterator_tag

	.section	.text._ZSt19__iterator_categoryIPcENSt15iterator_traitsIT_E17iterator_categoryERKS2_,"axG",@progbits,_ZSt19__iterator_categoryIPcENSt15iterator_traitsIT_E17iterator_categoryERKS2_,comdat
	.weak	_ZSt19__iterator_categoryIPcENSt15iterator_traitsIT_E17iterator_categoryERKS2_ 
	.p2align	4, 0x90
	.type	_ZSt19__iterator_categoryIPcENSt15iterator_traitsIT_E17iterator_categoryERKS2_,@function
_ZSt19__iterator_categoryIPcENSt15iterator_traitsIT_E17iterator_categoryERKS2_: 

	mov	eax, dword ptr [rip + x.261]
	mov	edx, dword ptr [rip + y.262]
	mov	ecx, eax
	neg	ecx
	not	ecx
	imul	ecx, eax
	not	ecx
	or	ecx, -2
	cmp	ecx, -1
	sete	al
	sete	byte ptr [rsp - 2]
	mov	esi, -1653161217
	mov	r8d, 1923279795
	mov	ecx, 1923279795
	cmove	ecx, esi
	cmp	edx, 10
	setl	dl
	setl	byte ptr [rsp - 1]
	cmovge	ecx, r8d
	xor	dl, al
	cmovne	ecx, esi
	mov	esi, -1173643476
	mov	edi, 1144695402
	jmp	.LBB140_1
.LBB140_6:                              
	mov	esi, ecx
	.p2align	4, 0x90
.LBB140_1:                              
	cmp	esi, 1144695401
	jg	.LBB140_5

	cmp	esi, -1653161217
	je	.LBB140_7

	cmp	esi, -1173643476
	jne	.LBB140_1

	movzx	r9d, byte ptr [rsp - 2]
	movzx	edx, byte ptr [rsp - 1]
	mov	eax, r9d
	xor	al, dl
	test	dl, dl
	mov	esi, 1923279795
	cmovne	esi, edi
	test	r9b, r9b
	cmove	esi, r8d
	test	al, al
	cmovne	esi, edi
	jmp	.LBB140_1
	.p2align	4, 0x90
.LBB140_5:                              
	cmp	esi, 1144695402
	je	.LBB140_6

	cmp	esi, 1923279795
	jne	.LBB140_1

	mov	esi, 1144695402
	jmp	.LBB140_1
.LBB140_7:
	ret
.Lfunc_end140:
	.size	_ZSt19__iterator_categoryIPcENSt15iterator_traitsIT_E17iterator_categoryERKS2_, .Lfunc_end140-_ZSt19__iterator_categoryIPcENSt15iterator_traitsIT_E17iterator_categoryERKS2_

	.section	.text._ZNSt11char_traitsIcE6assignERcRKc,"axG",@progbits,_ZNSt11char_traitsIcE6assignERcRKc,comdat
	.weak	_ZNSt11char_traitsIcE6assignERcRKc 
	.p2align	4, 0x90
	.type	_ZNSt11char_traitsIcE6assignERcRKc,@function
_ZNSt11char_traitsIcE6assignERcRKc:     

	mov	eax, dword ptr [rip + x.263]
	mov	ecx, eax
	neg	ecx
	not	ecx
	imul	ecx, eax
	mov	eax, ecx
	xor	eax, -2
	test	eax, ecx
	sete	byte ptr [rsp - 2]
	mov	eax, dword ptr [rip + y.264]
	cmp	eax, 10
	setl	byte ptr [rsp - 1]
	mov	ecx, 206531948
	mov	r9d, -2096210134
	mov	r8d, -322103886
	mov	r10d, 1908811684
	jmp	.LBB141_1
.LBB141_7:                              
	movzx	edx, byte ptr [rsp - 2]
	movzx	ecx, byte ptr [rsp - 1]
	mov	eax, edx
	xor	al, cl
	mov	eax, -322103886
	cmovne	eax, r10d
	test	cl, cl
	mov	ecx, eax
	cmovne	ecx, r10d
	test	dl, dl
	cmove	ecx, eax
	.p2align	4, 0x90
.LBB141_1:                              
	cmp	ecx, 206531947
	jg	.LBB141_5

	cmp	ecx, -2096210134
	je	.LBB141_9

	cmp	ecx, -322103886
	jne	.LBB141_1

	movzx	eax, byte ptr [rsi]
	mov	byte ptr [rdi], al
	mov	ecx, 1908811684
	jmp	.LBB141_1
	.p2align	4, 0x90
.LBB141_5:                              
	cmp	ecx, 1908811684
	je	.LBB141_8

	cmp	ecx, 206531948
	jne	.LBB141_1
	jmp	.LBB141_7
.LBB141_8:                              
	movzx	eax, byte ptr [rsi]
	mov	byte ptr [rdi], al
	mov	eax, dword ptr [rip + x.263]
	lea	ecx, [rax - 1]
	imul	ecx, eax
	mov	eax, ecx
	xor	eax, -2
	and	eax, ecx
	sete	dl
	test	eax, eax
	mov	ecx, -322103886
	cmove	ecx, r9d
	cmp	dword ptr [rip + y.264], 10
	setl	al
	cmovge	ecx, r8d
	xor	al, dl
	cmovne	ecx, r9d
	jmp	.LBB141_1
.LBB141_9:
	ret
.Lfunc_end141:
	.size	_ZNSt11char_traitsIcE6assignERcRKc, .Lfunc_end141-_ZNSt11char_traitsIcE6assignERcRKc

	.section	.text._ZNSt11char_traitsIcE4copyEPcPKcm,"axG",@progbits,_ZNSt11char_traitsIcE4copyEPcPKcm,comdat
	.weak	_ZNSt11char_traitsIcE4copyEPcPKcm 
	.p2align	4, 0x90
	.type	_ZNSt11char_traitsIcE4copyEPcPKcm,@function
_ZNSt11char_traitsIcE4copyEPcPKcm:      

	push	rbp
	push	r15
	push	r14
	push	rbx
	push	rax
	mov	r14, rdx
	mov	r15, rsi
	mov	rbx, rdi
	test	r14, r14
	mov	eax, 893742383
	mov	ebp, -396318819
	cmove	ebp, eax
	mov	eax, 1832173181
	jmp	.LBB142_1
.LBB142_7:                              
	mov	eax, ebp
	.p2align	4, 0x90
.LBB142_1:                              
	cmp	eax, 1695873381
	jg	.LBB142_5

	cmp	eax, -396318819
	je	.LBB142_8

	cmp	eax, 893742383
	jne	.LBB142_1

	mov	eax, 1695873382
	jmp	.LBB142_1
	.p2align	4, 0x90
.LBB142_5:                              
	cmp	eax, 1695873382
	je	.LBB142_9

	cmp	eax, 1832173181
	jne	.LBB142_1
	jmp	.LBB142_7
.LBB142_8:                              
	mov	rdi, rbx
	mov	rsi, r15
	mov	rdx, r14
	call	memcpy
	mov	eax, 1695873382
	jmp	.LBB142_1
.LBB142_9:
	mov	rax, rbx
	add	rsp, 8
	pop	rbx
	pop	r14
	pop	r15
	pop	rbp
	ret
.Lfunc_end142:
	.size	_ZNSt11char_traitsIcE4copyEPcPKcm, .Lfunc_end142-_ZNSt11char_traitsIcE4copyEPcPKcm

	.section	.text._ZN9__gnu_cxx14__alloc_traitsISaIcEE10deallocateERS1_Pcm,"axG",@progbits,_ZN9__gnu_cxx14__alloc_traitsISaIcEE10deallocateERS1_Pcm,comdat
	.weak	_ZN9__gnu_cxx14__alloc_traitsISaIcEE10deallocateERS1_Pcm 
	.p2align	4, 0x90
	.type	_ZN9__gnu_cxx14__alloc_traitsISaIcEE10deallocateERS1_Pcm,@function
_ZN9__gnu_cxx14__alloc_traitsISaIcEE10deallocateERS1_Pcm: 
	.cfi_startproc

	jmp	_ZN9__gnu_cxx13new_allocatorIcE10deallocateEPcm 
.Lfunc_end143:
	.size	_ZN9__gnu_cxx14__alloc_traitsISaIcEE10deallocateERS1_Pcm, .Lfunc_end143-_ZN9__gnu_cxx14__alloc_traitsISaIcEE10deallocateERS1_Pcm
	.cfi_endproc

	.section	.text._ZN9__gnu_cxx13new_allocatorIcE10deallocateEPcm,"axG",@progbits,_ZN9__gnu_cxx13new_allocatorIcE10deallocateEPcm,comdat
	.weak	_ZN9__gnu_cxx13new_allocatorIcE10deallocateEPcm 
	.p2align	4, 0x90
	.type	_ZN9__gnu_cxx13new_allocatorIcE10deallocateEPcm,@function
_ZN9__gnu_cxx13new_allocatorIcE10deallocateEPcm: 

	mov	rdi, rsi
	jmp	_ZdlPv                  
.Lfunc_end144:
	.size	_ZN9__gnu_cxx13new_allocatorIcE10deallocateEPcm, .Lfunc_end144-_ZN9__gnu_cxx13new_allocatorIcE10deallocateEPcm

	.section	.text._ZN9__gnu_cxx13new_allocatorIcED2Ev,"axG",@progbits,_ZN9__gnu_cxx13new_allocatorIcED2Ev,comdat
	.weak	_ZN9__gnu_cxx13new_allocatorIcED2Ev 
	.p2align	4, 0x90
	.type	_ZN9__gnu_cxx13new_allocatorIcED2Ev,@function
_ZN9__gnu_cxx13new_allocatorIcED2Ev:    

	mov	eax, dword ptr [rip + x.271]
	mov	esi, dword ptr [rip + y.272]
	lea	ecx, [rax - 1]
	imul	ecx, eax
	mov	eax, ecx
	xor	eax, -2
	and	eax, ecx
	sete	dl
	sete	byte ptr [rsp - 2]
	test	eax, eax
	mov	edi, 1207397686
	mov	r8d, 403366173
	mov	ecx, 403366173
	cmove	ecx, edi
	cmp	esi, 10
	setl	al
	setl	byte ptr [rsp - 1]
	cmovge	ecx, r8d
	xor	al, dl
	cmovne	ecx, edi
	mov	esi, 264551228
	mov	edi, -1936109492
	jmp	.LBB145_1
.LBB145_3:                              
	mov	esi, ecx
	.p2align	4, 0x90
.LBB145_1:                              
	cmp	esi, 403366172
	jle	.LBB145_2

	cmp	esi, 403366173
	je	.LBB145_9

	cmp	esi, 1207397686
	jne	.LBB145_1
	jmp	.LBB145_6
	.p2align	4, 0x90
.LBB145_2:                              
	cmp	esi, -1936109492
	je	.LBB145_3

	cmp	esi, 264551228
	jne	.LBB145_1

	movzx	r9d, byte ptr [rsp - 2]
	movzx	edx, byte ptr [rsp - 1]
	mov	eax, r9d
	xor	al, dl
	test	dl, dl
	mov	esi, 403366173
	cmovne	esi, edi
	test	r9b, r9b
	cmove	esi, r8d
	test	al, al
	cmovne	esi, edi
	jmp	.LBB145_1
.LBB145_9:                              
	mov	esi, -1936109492
	jmp	.LBB145_1
.LBB145_6:
	ret
.Lfunc_end145:
	.size	_ZN9__gnu_cxx13new_allocatorIcED2Ev, .Lfunc_end145-_ZN9__gnu_cxx13new_allocatorIcED2Ev

	.section	.text._ZNSt11char_traitsIcE6lengthEPKc,"axG",@progbits,_ZNSt11char_traitsIcE6lengthEPKc,comdat
	.weak	_ZNSt11char_traitsIcE6lengthEPKc 
	.p2align	4, 0x90
	.type	_ZNSt11char_traitsIcE6lengthEPKc,@function
_ZNSt11char_traitsIcE6lengthEPKc:       

	push	rbp
	push	r15
	push	r14
	push	rbx
	sub	rsp, 24
	mov	rbx, rdi
	mov	eax, dword ptr [rip + x.273]
	mov	ecx, dword ptr [rip + y.274]
	lea	edx, [rax - 1]
	imul	edx, eax
	not	edx
	or	edx, -2
	cmp	edx, -1
	sete	al
	sete	byte ptr [rsp + 14]
	mov	edx, 731447246
	mov	r14d, 1329637067
	mov	ebp, 1329637067
	cmove	ebp, edx
	cmp	ecx, 10
	setl	cl
	setl	byte ptr [rsp + 15]
	cmovge	ebp, r14d
	xor	cl, al
	cmovne	ebp, edx
	mov	eax, -1304651433
	mov	r15d, -24710727
	jmp	.LBB146_1
.LBB146_8:                              
	movzx	ecx, byte ptr [rsp + 14]
	movzx	eax, byte ptr [rsp + 15]
	mov	edx, ecx
	xor	dl, al
	test	al, al
	mov	eax, 1329637067
	cmovne	eax, r15d
	test	cl, cl
	cmove	eax, r14d
	test	dl, dl
	cmovne	eax, r15d
	.p2align	4, 0x90
.LBB146_1:                              
	cmp	eax, 731447245
	jg	.LBB146_5

	cmp	eax, -1304651433
	je	.LBB146_8

	cmp	eax, -24710727
	jne	.LBB146_1

	mov	rdi, rbx
	call	strlen
	mov	qword ptr [rsp + 16], rax
	mov	eax, ebp
	jmp	.LBB146_1
	.p2align	4, 0x90
.LBB146_5:                              
	cmp	eax, 731447246
	je	.LBB146_9

	cmp	eax, 1329637067
	jne	.LBB146_1

	mov	eax, -24710727
	jmp	.LBB146_1
.LBB146_9:
	mov	rax, qword ptr [rsp + 16]
	add	rsp, 24
	pop	rbx
	pop	r14
	pop	r15
	pop	rbp
	ret
.Lfunc_end146:
	.size	_ZNSt11char_traitsIcE6lengthEPKc, .Lfunc_end146-_ZNSt11char_traitsIcE6lengthEPKc

	.section	.text._ZN9__gnu_cxx14__alloc_traitsISaIcEE8max_sizeERKS1_,"axG",@progbits,_ZN9__gnu_cxx14__alloc_traitsISaIcEE8max_sizeERKS1_,comdat
	.weak	_ZN9__gnu_cxx14__alloc_traitsISaIcEE8max_sizeERKS1_ 
	.p2align	4, 0x90
	.type	_ZN9__gnu_cxx14__alloc_traitsISaIcEE8max_sizeERKS1_,@function
_ZN9__gnu_cxx14__alloc_traitsISaIcEE8max_sizeERKS1_: 

	push	rbp
	push	r15
	push	r14
	push	r12
	push	rbx
	sub	rsp, 16
	mov	rbp, rdi
	mov	eax, dword ptr [rip + x.275]
	lea	ecx, [rax - 1]
	imul	ecx, eax
	mov	eax, ecx
	xor	eax, -2
	test	eax, ecx
	sete	byte ptr [rsp + 6]
	mov	eax, dword ptr [rip + y.276]
	cmp	eax, 10
	setl	byte ptr [rsp + 7]
	mov	ecx, -2047244694
	mov	r15d, -1592096405
	mov	r14d, 729244798
	mov	r12d, -360016453
	jmp	.LBB147_1
.LBB147_8:                              
	movzx	eax, byte ptr [rsp + 6]
	movzx	ecx, byte ptr [rsp + 7]
	mov	edx, eax
	xor	dl, cl
	test	cl, cl
	mov	ecx, 729244798
	cmovne	ecx, r15d
	test	al, al
	cmove	ecx, r14d
	test	dl, dl
	cmovne	ecx, r15d
	.p2align	4, 0x90
.LBB147_1:                              
	cmp	ecx, -360016454
	jg	.LBB147_5

	cmp	ecx, -2047244694
	je	.LBB147_8

	cmp	ecx, -1592096405
	jne	.LBB147_1

	mov	rdi, rbp
	call	_ZNK9__gnu_cxx13new_allocatorIcE8max_sizeEv
	mov	ecx, dword ptr [rip + x.275]
	mov	edx, dword ptr [rip + y.276]
	lea	esi, [rcx - 1]
	imul	esi, ecx
	not	esi
	or	esi, -2
	cmp	esi, -1
	sete	cl
	cmp	edx, 10
	setl	bl
	xor	bl, cl
	mov	edi, 729244798
	cmovne	edi, r12d
	cmp	esi, -1
	mov	ecx, edi
	cmove	ecx, r12d
	cmp	edx, 10
	mov	qword ptr [rsp + 8], rax
	cmovge	ecx, edi
	jmp	.LBB147_1
	.p2align	4, 0x90
.LBB147_5:                              
	cmp	ecx, -360016453
	je	.LBB147_9

	cmp	ecx, 729244798
	jne	.LBB147_1

	mov	rdi, rbp
	call	_ZNK9__gnu_cxx13new_allocatorIcE8max_sizeEv
	mov	ecx, -1592096405
	jmp	.LBB147_1
.LBB147_9:
	mov	rax, qword ptr [rsp + 8]
	add	rsp, 16
	pop	rbx
	pop	r12
	pop	r14
	pop	r15
	pop	rbp
	ret
.Lfunc_end147:
	.size	_ZN9__gnu_cxx14__alloc_traitsISaIcEE8max_sizeERKS1_, .Lfunc_end147-_ZN9__gnu_cxx14__alloc_traitsISaIcEE8max_sizeERKS1_

	.section	.text._ZNK9__gnu_cxx13new_allocatorIcE8max_sizeEv,"axG",@progbits,_ZNK9__gnu_cxx13new_allocatorIcE8max_sizeEv,comdat
	.weak	_ZNK9__gnu_cxx13new_allocatorIcE8max_sizeEv 
	.p2align	4, 0x90
	.type	_ZNK9__gnu_cxx13new_allocatorIcE8max_sizeEv,@function
