	.text
	.intel_syntax noprefix
	.file	"/mnt/c/Users/Adam/Developer/CryptoFunctionDetection/crypto_implementations/botan/src/lib/block/des/des.cpp"
	.globl	_ZNK5Botan3DES9encrypt_nEPKhPhm 
	.p2align	4, 0x90
	.type	_ZNK5Botan3DES9encrypt_nEPKhPhm,@function
_ZNK5Botan3DES9encrypt_nEPKhPhm:        
	.cfi_startproc

	push	rbp
.Lcfi0:
	.cfi_def_cfa_offset 16
.Lcfi1:
	.cfi_offset rbp, -16
	mov	rbp, rsp
.Lcfi2:
	.cfi_def_cfa_register rbp
	push	r15
	push	r14
	push	r13
	push	r12
	push	rbx
	sub	rsp, 200
.Lcfi3:
	.cfi_offset rbx, -56
.Lcfi4:
	.cfi_offset r12, -48
.Lcfi5:
	.cfi_offset r13, -40
.Lcfi6:
	.cfi_offset r14, -32
.Lcfi7:
	.cfi_offset r15, -24
	mov	qword ptr [rbp - 64], rdi
	mov	qword ptr [rbp - 72], rsi
	mov	qword ptr [rbp - 80], rdx
	mov	qword ptr [rbp - 88], rcx
	mov	rcx, qword ptr [rbp - 64]
	mov	qword ptr [rbp - 56], rcx
	mov	rcx, qword ptr [rbp - 56]
	mov	rdx, qword ptr [rbp - 56]
	add	rdx, 8
	mov	rdi, rdx
	mov	qword ptr [rbp - 128], rcx 
	call	_ZNKSt6vectorIjN5Botan16secure_allocatorIjEEE5emptyEv
	and	al, 1
	movzx	r8d, al
	cmp	r8d, 0
	sete	al
	and	al, 1
	movzx	esi, al
	mov	rdi, qword ptr [rbp - 128] 
	call	_ZNK5Botan18SymmetricAlgorithm14verify_key_setEb
	mov	dword ptr [rbp - 116], -777074437
.LBB0_1:                                
	mov	eax, dword ptr [rbp - 116]
	mov	ecx, eax
	sub	ecx, -2029606791
	mov	dword ptr [rbp - 132], eax 
	mov	dword ptr [rbp - 136], ecx 
	je	.LBB0_9
	jmp	.LBB0_28
.LBB0_28:                               
	mov	eax, dword ptr [rbp - 132] 
	sub	eax, -1854659319
	mov	dword ptr [rbp - 140], eax 
	je	.LBB0_21
	jmp	.LBB0_29
.LBB0_29:                               
	mov	eax, dword ptr [rbp - 132] 
	sub	eax, -1649519612
	mov	dword ptr [rbp - 144], eax 
	je	.LBB0_15
	jmp	.LBB0_30
.LBB0_30:                               
	mov	eax, dword ptr [rbp - 132] 
	sub	eax, -1384737009
	mov	dword ptr [rbp - 148], eax 
	je	.LBB0_14
	jmp	.LBB0_31
.LBB0_31:                               
	mov	eax, dword ptr [rbp - 132] 
	sub	eax, -1327767029
	mov	dword ptr [rbp - 152], eax 
	je	.LBB0_23
	jmp	.LBB0_32
.LBB0_32:                               
	mov	eax, dword ptr [rbp - 132] 
	sub	eax, -1165761107
	mov	dword ptr [rbp - 156], eax 
	je	.LBB0_8
	jmp	.LBB0_33
.LBB0_33:                               
	mov	eax, dword ptr [rbp - 132] 
	sub	eax, -1048096394
	mov	dword ptr [rbp - 160], eax 
	je	.LBB0_10
	jmp	.LBB0_34
.LBB0_34:                               
	mov	eax, dword ptr [rbp - 132] 
	sub	eax, -919243952
	mov	dword ptr [rbp - 164], eax 
	je	.LBB0_20
	jmp	.LBB0_35
.LBB0_35:                               
	mov	eax, dword ptr [rbp - 132] 
	sub	eax, -777074437
	mov	dword ptr [rbp - 168], eax 
	je	.LBB0_3
	jmp	.LBB0_36
.LBB0_36:                               
	mov	eax, dword ptr [rbp - 132] 
	sub	eax, -432798126
	mov	dword ptr [rbp - 172], eax 
	je	.LBB0_13
	jmp	.LBB0_37
.LBB0_37:                               
	mov	eax, dword ptr [rbp - 132] 
	sub	eax, -244533819
	mov	dword ptr [rbp - 176], eax 
	je	.LBB0_4
	jmp	.LBB0_38
.LBB0_38:                               
	mov	eax, dword ptr [rbp - 132] 
	sub	eax, -59017201
	mov	dword ptr [rbp - 180], eax 
	je	.LBB0_17
	jmp	.LBB0_39
.LBB0_39:                               
	mov	eax, dword ptr [rbp - 132] 
	sub	eax, 136664005
	mov	dword ptr [rbp - 184], eax 
	je	.LBB0_19
	jmp	.LBB0_40
.LBB0_40:                               
	mov	eax, dword ptr [rbp - 132] 
	sub	eax, 168188061
	mov	dword ptr [rbp - 188], eax 
	je	.LBB0_6
	jmp	.LBB0_41
.LBB0_41:                               
	mov	eax, dword ptr [rbp - 132] 
	sub	eax, 565197166
	mov	dword ptr [rbp - 192], eax 
	je	.LBB0_24
	jmp	.LBB0_42
.LBB0_42:                               
	mov	eax, dword ptr [rbp - 132] 
	sub	eax, 584633156
	mov	dword ptr [rbp - 196], eax 
	je	.LBB0_12
	jmp	.LBB0_43
.LBB0_43:                               
	mov	eax, dword ptr [rbp - 132] 
	sub	eax, 1106248845
	mov	dword ptr [rbp - 200], eax 
	je	.LBB0_25
	jmp	.LBB0_44
.LBB0_44:                               
	mov	eax, dword ptr [rbp - 132] 
	sub	eax, 1146223871
	mov	dword ptr [rbp - 204], eax 
	je	.LBB0_5
	jmp	.LBB0_45
.LBB0_45:                               
	mov	eax, dword ptr [rbp - 132] 
	sub	eax, 1241035026
	mov	dword ptr [rbp - 208], eax 
	je	.LBB0_22
	jmp	.LBB0_46
.LBB0_46:                               
	mov	eax, dword ptr [rbp - 132] 
	sub	eax, 1266222177
	mov	dword ptr [rbp - 212], eax 
	je	.LBB0_18
	jmp	.LBB0_47
.LBB0_47:                               
	mov	eax, dword ptr [rbp - 132] 
	sub	eax, 1725924819
	mov	dword ptr [rbp - 216], eax 
	je	.LBB0_7
	jmp	.LBB0_48
.LBB0_48:                               
	mov	eax, dword ptr [rbp - 132] 
	sub	eax, 1887898395
	mov	dword ptr [rbp - 220], eax 
	je	.LBB0_16
	jmp	.LBB0_49
.LBB0_49:                               
	mov	eax, dword ptr [rbp - 132] 
	sub	eax, 2104304908
	mov	dword ptr [rbp - 224], eax 
	je	.LBB0_11
	jmp	.LBB0_50
.LBB0_50:                               
	mov	eax, dword ptr [rbp - 132] 
	sub	eax, 2131644909
	mov	dword ptr [rbp - 228], eax 
	je	.LBB0_26
	jmp	.LBB0_2
.LBB0_2:                                
	jmp	.LBB0_27
.LBB0_3:                                
	mov	eax, 2440307977
	mov	ecx, 4050433477
	xor	edx, edx
	mov	esi, dword ptr [x]
	mov	edi, dword ptr [y]
	sub	edx, 1
	mov	r8d, esi
	add	r8d, edx
	imul	esi, r8d
	and	esi, 1
	cmp	esi, 0
	sete	r9b
	cmp	edi, 10
	setl	r10b
	mov	r11b, r9b
	and	r11b, r10b
	xor	r9b, r10b
	or	r11b, r9b
	test	r11b, 1
	cmovne	eax, ecx
	mov	dword ptr [rbp - 116], eax
	jmp	.LBB0_27
.LBB0_4:                                
	mov	eax, 2440307977
	mov	ecx, 1146223871
	cmp	qword ptr [rbp - 88], 2
	setae	dl
	and	dl, 1
	mov	byte ptr [rbp - 42], dl
	mov	esi, dword ptr [x]
	mov	edi, dword ptr [y]
	mov	r8d, esi
	add	r8d, 568754399
	sub	r8d, 1
	sub	r8d, 568754399
	imul	esi, r8d
	and	esi, 1
	cmp	esi, 0
	sete	dl
	cmp	edi, 10
	setl	r9b
	mov	r10b, dl
	and	r10b, r9b
	xor	dl, r9b
	or	r10b, dl
	test	r10b, 1
	cmovne	eax, ecx
	mov	dword ptr [rbp - 116], eax
	jmp	.LBB0_27
.LBB0_5:                                
	mov	eax, 2265360505
	mov	ecx, 168188061
	mov	dl, byte ptr [rbp - 42]
	test	dl, 1
	cmovne	eax, ecx
	mov	dword ptr [rbp - 116], eax
	jmp	.LBB0_27
.LBB0_6:                                
	mov	eax, 1241035026
	mov	ecx, 1725924819
	mov	dl, 1
	mov	esi, dword ptr [x]
	mov	edi, dword ptr [y]
	mov	r8d, esi
	sub	r8d, -827409286
	sub	r8d, 1
	add	r8d, -827409286
	imul	esi, r8d
	and	esi, 1
	cmp	esi, 0
	sete	r9b
	cmp	edi, 10
	setl	r10b
	mov	r11b, r9b
	xor	r11b, -1
	mov	bl, r10b
	xor	bl, -1
	xor	dl, 0
	mov	r14b, r11b
	and	r14b, 0
	and	r9b, dl
	mov	r15b, bl
	and	r15b, 0
	and	r10b, dl
	or	r14b, r9b
	or	r15b, r10b
	xor	r14b, r15b
	or	r11b, bl
	xor	r11b, -1
	or	dl, 0
	and	r11b, dl
	or	r14b, r11b
	test	r14b, 1
	cmovne	eax, ecx
	mov	dword ptr [rbp - 116], eax
	jmp	.LBB0_27
.LBB0_7:                                
	xor	eax, eax
	mov	esi, eax
	mov	rdi, qword ptr [rbp - 72]
	call	_ZN5Botan7load_beIjEET_PKhm
	mov	ecx, 1
	mov	esi, ecx
	mov	dword ptr [rbp - 92], eax
	mov	rdi, qword ptr [rbp - 72]
	call	_ZN5Botan7load_beIjEET_PKhm
	mov	ecx, 2
	mov	esi, ecx
	mov	dword ptr [rbp - 96], eax
	mov	rdi, qword ptr [rbp - 72]
	call	_ZN5Botan7load_beIjEET_PKhm
	mov	ecx, 3
	mov	esi, ecx
	mov	dword ptr [rbp - 100], eax
	mov	rdi, qword ptr [rbp - 72]
	call	_ZN5Botan7load_beIjEET_PKhm
	lea	rdi, [rbp - 92]
	lea	rsi, [rbp - 96]
	mov	dword ptr [rbp - 104], eax
	call	_ZN5Botan12_GLOBAL__N_16des_IPERjS1_
	lea	rdi, [rbp - 100]
	lea	rsi, [rbp - 104]
	call	_ZN5Botan12_GLOBAL__N_16des_IPERjS1_
	mov	rsi, qword ptr [rbp - 56]
	add	rsi, 8
	mov	rdi, rsi
	call	_ZNKSt6vectorIjN5Botan16secure_allocatorIjEEE4dataEv
	lea	rdi, [rbp - 92]
	lea	rsi, [rbp - 96]
	lea	rdx, [rbp - 100]
	lea	rcx, [rbp - 104]
	mov	r8, rax
	call	_ZN5Botan12_GLOBAL__N_114des_encrypt_x2ERjS1_S1_S1_PKj
	lea	rdi, [rbp - 92]
	lea	rsi, [rbp - 96]
	call	_ZN5Botan12_GLOBAL__N_16des_FPERjS1_
	lea	rdi, [rbp - 100]
	lea	rsi, [rbp - 104]
	call	_ZN5Botan12_GLOBAL__N_16des_FPERjS1_
	mov	rdi, qword ptr [rbp - 80]
	mov	esi, dword ptr [rbp - 96]
	mov	edx, dword ptr [rbp - 92]
	mov	ecx, dword ptr [rbp - 104]
	mov	r8d, dword ptr [rbp - 100]
	call	_ZN5Botan8store_beIjEEvPhT_S2_S2_S2_
	mov	ecx, 1241035026
	mov	edx, 3129206189
	xor	esi, esi
	xor	r8d, r8d
	mov	eax, r8d
	mov	rdi, qword ptr [rbp - 72]
	add	rdi, 16
	mov	qword ptr [rbp - 72], rdi
	mov	rdi, qword ptr [rbp - 80]
	add	rdi, 16
	mov	qword ptr [rbp - 80], rdi
	mov	rdi, qword ptr [rbp - 88]
	sub	rax, 2
	add	rdi, rax
	mov	qword ptr [rbp - 88], rdi
	mov	r8d, dword ptr [x]
	mov	r9d, dword ptr [y]
	sub	esi, 1
	mov	r10d, r8d
	add	r10d, esi
	imul	r8d, r10d
	and	r8d, 1
	cmp	r8d, 0
	sete	r11b
	cmp	r9d, 10
	setl	bl
	mov	r14b, r11b
	and	r14b, bl
	xor	r11b, bl
	or	r14b, r11b
	test	r14b, 1
	cmovne	ecx, edx
	mov	dword ptr [rbp - 116], ecx
	jmp	.LBB0_27
.LBB0_8:                                
	mov	dword ptr [rbp - 116], -777074437
	jmp	.LBB0_27
.LBB0_9:                                
	mov	eax, 2967200267
	mov	ecx, 3246870902
	mov	edx, dword ptr [x]
	mov	esi, dword ptr [y]
	mov	edi, edx
	sub	edi, -464998923
	sub	edi, 1
	add	edi, -464998923
	imul	edx, edi
	and	edx, 1
	cmp	edx, 0
	sete	r8b
	cmp	esi, 10
	setl	r9b
	mov	r10b, r8b
	and	r10b, r9b
	xor	r8b, r9b
	or	r10b, r8b
	test	r10b, 1
	cmovne	eax, ecx
	mov	dword ptr [rbp - 116], eax
	jmp	.LBB0_27
.LBB0_10:                               
	mov	eax, 2967200267
	mov	ecx, 2104304908
	mov	edx, dword ptr [x]
	mov	esi, dword ptr [y]
	mov	edi, edx
	add	edi, -141608985
	sub	edi, 1
	sub	edi, -141608985
	imul	edx, edi
	and	edx, 1
	cmp	edx, 0
	sete	r8b
	cmp	esi, 10
	setl	r9b
	mov	r10b, r8b
	and	r10b, r9b
	xor	r8b, r9b
	or	r10b, r8b
	test	r10b, 1
	cmovne	eax, ecx
	mov	dword ptr [rbp - 116], eax
	jmp	.LBB0_27
.LBB0_11:                               
	mov	dword ptr [rbp - 116], 584633156
	jmp	.LBB0_27
.LBB0_12:                               
	mov	eax, 565197166
	mov	ecx, 3862169170
	mov	edx, dword ptr [x]
	mov	esi, dword ptr [y]
	mov	edi, edx
	sub	edi, 858764038
	sub	edi, 1
	add	edi, 858764038
	imul	edx, edi
	and	edx, 1
	cmp	edx, 0
	sete	r8b
	cmp	esi, 10
	setl	r9b
	mov	r10b, r8b
	and	r10b, r9b
	xor	r8b, r9b
	or	r10b, r8b
	test	r10b, 1
	cmovne	eax, ecx
	mov	dword ptr [rbp - 116], eax
	jmp	.LBB0_27
.LBB0_13:                               
	mov	eax, 565197166
	mov	ecx, 2910230287
	mov	dl, 1
	xor	esi, esi
	cmp	qword ptr [rbp - 88], 0
	seta	dil
	and	dil, 1
	mov	byte ptr [rbp - 41], dil
	mov	r8d, dword ptr [x]
	mov	r9d, dword ptr [y]
	sub	esi, 1
	mov	r10d, r8d
	add	r10d, esi
	imul	r8d, r10d
	and	r8d, 1
	cmp	r8d, 0
	sete	dil
	cmp	r9d, 10
	setl	r11b
	mov	bl, dil
	xor	bl, -1
	mov	r14b, r11b
	xor	r14b, -1
	xor	dl, 0
	mov	r15b, bl
	and	r15b, 0
	and	dil, dl
	mov	r12b, r14b
	and	r12b, 0
	and	r11b, dl
	or	r15b, dil
	or	r12b, r11b
	xor	r15b, r12b
	or	bl, r14b
	xor	bl, -1
	or	dl, 0
	and	bl, dl
	or	r15b, bl
	test	r15b, 1
	cmovne	eax, ecx
	mov	dword ptr [rbp - 116], eax
	jmp	.LBB0_27
.LBB0_14:                               
	mov	eax, 1266222177
	mov	ecx, 2645447684
	mov	dl, byte ptr [rbp - 41]
	test	dl, 1
	cmovne	eax, ecx
	mov	dword ptr [rbp - 116], eax
	jmp	.LBB0_27
.LBB0_15:                               
	mov	eax, 1106248845
	mov	ecx, 1887898395
	xor	edx, edx
	mov	esi, dword ptr [x]
	mov	edi, dword ptr [y]
	sub	edx, 1
	mov	r8d, esi
	add	r8d, edx
	imul	esi, r8d
	and	esi, 1
	cmp	esi, 0
	sete	r9b
	cmp	edi, 10
	setl	r10b
	mov	r11b, r9b
	and	r11b, r10b
	xor	r9b, r10b
	or	r11b, r9b
	test	r11b, 1
	cmovne	eax, ecx
	mov	dword ptr [rbp - 116], eax
	jmp	.LBB0_27
.LBB0_16:                               
	xor	eax, eax
	mov	esi, eax
	mov	rdi, qword ptr [rbp - 72]
	call	_ZN5Botan7load_beIjEET_PKhm
	mov	ecx, 1
	mov	esi, ecx
	mov	dword ptr [rbp - 108], eax
	mov	rdi, qword ptr [rbp - 72]
	call	_ZN5Botan7load_beIjEET_PKhm
	lea	rdi, [rbp - 108]
	lea	rsi, [rbp - 112]
	mov	dword ptr [rbp - 112], eax
	call	_ZN5Botan12_GLOBAL__N_16des_IPERjS1_
	mov	rsi, qword ptr [rbp - 56]
	add	rsi, 8
	mov	rdi, rsi
	call	_ZNKSt6vectorIjN5Botan16secure_allocatorIjEEE4dataEv
	lea	rdi, [rbp - 108]
	lea	rsi, [rbp - 112]
	mov	rdx, rax
	call	_ZN5Botan12_GLOBAL__N_111des_encryptERjS1_PKj
	lea	rdi, [rbp - 108]
	lea	rsi, [rbp - 112]
	call	_ZN5Botan12_GLOBAL__N_16des_FPERjS1_
	mov	rdi, qword ptr [rbp - 80]
	mov	esi, dword ptr [rbp - 112]
	mov	edx, dword ptr [rbp - 108]
	call	_ZN5Botan8store_beIjEEvPhT_S2_
	mov	ecx, 1106248845
	mov	edx, 4235950095
	mov	r8b, 1
	xor	esi, esi
	movabs	rax, 5033787830266905123
	mov	rdi, qword ptr [rbp - 72]
	add	rdi, 8
	mov	qword ptr [rbp - 72], rdi
	mov	rdi, qword ptr [rbp - 80]
	add	rdi, 8
	mov	qword ptr [rbp - 80], rdi
	mov	rdi, qword ptr [rbp - 88]
	sub	rdi, rax
	sub	rdi, 1
	add	rdi, rax
	mov	qword ptr [rbp - 88], rdi
	mov	r9d, dword ptr [x]
	mov	r10d, dword ptr [y]
	sub	esi, 1
	mov	r11d, r9d
	add	r11d, esi
	imul	r9d, r11d
	and	r9d, 1
	cmp	r9d, 0
	sete	bl
	cmp	r10d, 10
	setl	r14b
	mov	r15b, bl
	xor	r15b, -1
	mov	r12b, r14b
	xor	r12b, -1
	xor	r8b, 1
	mov	r13b, r15b
	and	r13b, -1
	and	bl, r8b
	mov	al, r12b
	and	al, -1
	and	r14b, r8b
	or	r13b, bl
	or	al, r14b
	xor	r13b, al
	or	r15b, r12b
	xor	r15b, -1
	or	r8b, 1
	and	r15b, r8b
	or	r13b, r15b
	test	r13b, 1
	cmovne	ecx, edx
	mov	dword ptr [rbp - 116], ecx
	jmp	.LBB0_27
.LBB0_17:                               
	mov	dword ptr [rbp - 116], 584633156
	jmp	.LBB0_27
.LBB0_18:                               
	mov	eax, 2131644909
	mov	ecx, 136664005
	mov	dl, 1
	xor	esi, esi
	mov	edi, dword ptr [x]
	mov	r8d, dword ptr [y]
	sub	esi, 1
	mov	r9d, edi
	add	r9d, esi
	imul	edi, r9d
	and	edi, 1
	cmp	edi, 0
	sete	r10b
	cmp	r8d, 10
	setl	r11b
	mov	bl, r10b
	xor	bl, -1
	mov	r14b, r11b
	xor	r14b, -1
	xor	dl, 1
	mov	r15b, bl
	and	r15b, -1
	and	r10b, dl
	mov	r12b, r14b
	and	r12b, -1
	and	r11b, dl
	or	r15b, r10b
	or	r12b, r11b
	xor	r15b, r12b
	or	bl, r14b
	xor	bl, -1
	or	dl, 1
	and	bl, dl
	or	r15b, bl
	test	r15b, 1
	cmovne	eax, ecx
	mov	dword ptr [rbp - 116], eax
	jmp	.LBB0_27
.LBB0_19:                               
	mov	eax, 2131644909
	mov	ecx, 3375723344
	mov	dl, 1
	mov	esi, dword ptr [x]
	mov	edi, dword ptr [y]
	mov	r8d, esi
	sub	r8d, 184300373
	sub	r8d, 1
	add	r8d, 184300373
	imul	esi, r8d
	and	esi, 1
	cmp	esi, 0
	sete	r9b
	cmp	edi, 10
	setl	r10b
	mov	r11b, r9b
	xor	r11b, -1
	mov	bl, r10b
	xor	bl, -1
	xor	dl, 1
	mov	r14b, r11b
	and	r14b, -1
	and	r9b, dl
	mov	r15b, bl
	and	r15b, -1
	and	r10b, dl
	or	r14b, r9b
	or	r15b, r10b
	xor	r14b, r15b
	or	r11b, bl
	xor	r11b, -1
	or	dl, 1
	and	r11b, dl
	or	r14b, r11b
	test	r14b, 1
	cmovne	eax, ecx
	mov	dword ptr [rbp - 116], eax
	jmp	.LBB0_27
.LBB0_20:
	add	rsp, 200
	pop	rbx
	pop	r12
	pop	r13
	pop	r14
	pop	r15
	pop	rbp
	ret
.LBB0_21:                               
	mov	dword ptr [rbp - 116], -244533819
	jmp	.LBB0_27
.LBB0_22:                               
	xor	eax, eax
	mov	esi, eax
	mov	rdi, qword ptr [rbp - 72]
	call	_ZN5Botan7load_beIjEET_PKhm
	mov	ecx, 1
	mov	esi, ecx
	mov	dword ptr [rbp - 92], eax
	mov	rdi, qword ptr [rbp - 72]
	call	_ZN5Botan7load_beIjEET_PKhm
	mov	ecx, 2
	mov	esi, ecx
	mov	dword ptr [rbp - 96], eax
	mov	rdi, qword ptr [rbp - 72]
	call	_ZN5Botan7load_beIjEET_PKhm
	mov	ecx, 3
	mov	esi, ecx
	mov	dword ptr [rbp - 100], eax
	mov	rdi, qword ptr [rbp - 72]
	call	_ZN5Botan7load_beIjEET_PKhm
	lea	rdi, [rbp - 92]
	lea	rsi, [rbp - 96]
	mov	dword ptr [rbp - 104], eax
	call	_ZN5Botan12_GLOBAL__N_16des_IPERjS1_
	lea	rdi, [rbp - 100]
	lea	rsi, [rbp - 104]
	call	_ZN5Botan12_GLOBAL__N_16des_IPERjS1_
	mov	rsi, qword ptr [rbp - 56]
	add	rsi, 8
	mov	rdi, rsi
	call	_ZNKSt6vectorIjN5Botan16secure_allocatorIjEEE4dataEv
	lea	rdi, [rbp - 92]
	lea	rsi, [rbp - 96]
	lea	rdx, [rbp - 100]
	lea	rcx, [rbp - 104]
	mov	r8, rax
	call	_ZN5Botan12_GLOBAL__N_114des_encrypt_x2ERjS1_S1_S1_PKj
	lea	rdi, [rbp - 92]
	lea	rsi, [rbp - 96]
	call	_ZN5Botan12_GLOBAL__N_16des_FPERjS1_
	lea	rdi, [rbp - 100]
	lea	rsi, [rbp - 104]
	call	_ZN5Botan12_GLOBAL__N_16des_FPERjS1_
	mov	rdi, qword ptr [rbp - 80]
	mov	esi, dword ptr [rbp - 96]
	mov	edx, dword ptr [rbp - 92]
	mov	ecx, dword ptr [rbp - 104]
	mov	r8d, dword ptr [rbp - 100]
	call	_ZN5Botan8store_beIjEEvPhT_S2_S2_S2_
	movabs	rax, -2018123016007631600
	mov	rdi, qword ptr [rbp - 72]
	add	rdi, 16
	mov	qword ptr [rbp - 72], rdi
	mov	rdi, qword ptr [rbp - 80]
	add	rdi, 16
	mov	qword ptr [rbp - 80], rdi
	mov	rdi, qword ptr [rbp - 88]
	sub	rdi, rax
	sub	rdi, 2
	add	rdi, rax
	mov	qword ptr [rbp - 88], rdi
	mov	dword ptr [rbp - 116], 1725924819
	jmp	.LBB0_27
.LBB0_23:                               
	mov	dword ptr [rbp - 116], -1048096394
	jmp	.LBB0_27
.LBB0_24:                               
	mov	dword ptr [rbp - 116], -432798126
	jmp	.LBB0_27
.LBB0_25:                               
	xor	eax, eax
	mov	esi, eax
	mov	rdi, qword ptr [rbp - 72]
	call	_ZN5Botan7load_beIjEET_PKhm
	mov	ecx, 1
	mov	esi, ecx
	mov	dword ptr [rbp - 108], eax
	mov	rdi, qword ptr [rbp - 72]
	call	_ZN5Botan7load_beIjEET_PKhm
	lea	rdi, [rbp - 108]
	lea	rsi, [rbp - 112]
	mov	dword ptr [rbp - 112], eax
	call	_ZN5Botan12_GLOBAL__N_16des_IPERjS1_
	mov	rsi, qword ptr [rbp - 56]
	add	rsi, 8
	mov	rdi, rsi
	call	_ZNKSt6vectorIjN5Botan16secure_allocatorIjEEE4dataEv
	lea	rdi, [rbp - 108]
	lea	rsi, [rbp - 112]
	mov	rdx, rax
	call	_ZN5Botan12_GLOBAL__N_111des_encryptERjS1_PKj
	lea	rdi, [rbp - 108]
	lea	rsi, [rbp - 112]
	call	_ZN5Botan12_GLOBAL__N_16des_FPERjS1_
	mov	rdi, qword ptr [rbp - 80]
	mov	esi, dword ptr [rbp - 112]
	mov	edx, dword ptr [rbp - 108]
	call	_ZN5Botan8store_beIjEEvPhT_S2_
	xor	ecx, ecx
	mov	eax, ecx
	mov	rdi, qword ptr [rbp - 72]
	add	rdi, 8
	mov	qword ptr [rbp - 72], rdi
	mov	rdi, qword ptr [rbp - 80]
	add	rdi, 8
	mov	qword ptr [rbp - 80], rdi
	mov	rdi, qword ptr [rbp - 88]
	sub	rax, 1
	add	rdi, rax
	mov	qword ptr [rbp - 88], rdi
	mov	dword ptr [rbp - 116], 1887898395
	jmp	.LBB0_27
.LBB0_26:                               
	mov	dword ptr [rbp - 116], 136664005
.LBB0_27:                               
	jmp	.LBB0_1
.Lfunc_end0:
	.size	_ZNK5Botan3DES9encrypt_nEPKhPhm, .Lfunc_end0-_ZNK5Botan3DES9encrypt_nEPKhPhm
	.cfi_endproc

	.section	.text._ZNK5Botan18SymmetricAlgorithm14verify_key_setEb,"axG",@progbits,_ZNK5Botan18SymmetricAlgorithm14verify_key_setEb,comdat
	.weak	_ZNK5Botan18SymmetricAlgorithm14verify_key_setEb 
	.p2align	4, 0x90
	.type	_ZNK5Botan18SymmetricAlgorithm14verify_key_setEb,@function
_ZNK5Botan18SymmetricAlgorithm14verify_key_setEb: 
	.cfi_startproc

	push	rbp
.Lcfi8:
	.cfi_def_cfa_offset 16
.Lcfi9:
	.cfi_offset rbp, -16
	mov	rbp, rsp
.Lcfi10:
	.cfi_def_cfa_register rbp
	sub	rsp, 48
	mov	al, sil
	mov	qword ptr [rbp - 24], rdi
	and	al, 1
	mov	byte ptr [rbp - 25], al
	mov	rdi, qword ptr [rbp - 24]
	mov	qword ptr [rbp - 16], rdi
	mov	al, byte ptr [rbp - 25]
	and	al, 1
	movzx	esi, al
	mov	dword ptr [rbp - 4], esi
	mov	dword ptr [rbp - 32], -323214667
.LBB1_1:                                
	mov	eax, dword ptr [rbp - 32]
	mov	ecx, eax
	sub	ecx, -754748289
	mov	dword ptr [rbp - 36], eax 
	mov	dword ptr [rbp - 40], ecx 
	je	.LBB1_4
	jmp	.LBB1_7
.LBB1_7:                                
	mov	eax, dword ptr [rbp - 36] 
	sub	eax, -323214667
	mov	dword ptr [rbp - 44], eax 
	je	.LBB1_3
	jmp	.LBB1_8
.LBB1_8:                                
	mov	eax, dword ptr [rbp - 36] 
	sub	eax, -265170454
	mov	dword ptr [rbp - 48], eax 
	je	.LBB1_5
	jmp	.LBB1_2
.LBB1_2:                                
	jmp	.LBB1_6
.LBB1_3:                                
	mov	eax, 4029796842
	mov	ecx, 3540219007
	mov	edx, dword ptr [rbp - 4]
	cmp	edx, 0
	cmove	eax, ecx
	mov	dword ptr [rbp - 32], eax
	jmp	.LBB1_6
.LBB1_4:                                
	mov	rdi, qword ptr [rbp - 16]
	call	_ZNK5Botan18SymmetricAlgorithm23throw_key_not_set_errorEv
	mov	dword ptr [rbp - 32], -265170454
	jmp	.LBB1_6
.LBB1_5:
	add	rsp, 48
	pop	rbp
	ret
.LBB1_6:                                
	jmp	.LBB1_1
.Lfunc_end1:
	.size	_ZNK5Botan18SymmetricAlgorithm14verify_key_setEb, .Lfunc_end1-_ZNK5Botan18SymmetricAlgorithm14verify_key_setEb
	.cfi_endproc

	.section	.text._ZNKSt6vectorIjN5Botan16secure_allocatorIjEEE5emptyEv,"axG",@progbits,_ZNKSt6vectorIjN5Botan16secure_allocatorIjEEE5emptyEv,comdat
	.weak	_ZNKSt6vectorIjN5Botan16secure_allocatorIjEEE5emptyEv 
	.p2align	4, 0x90
	.type	_ZNKSt6vectorIjN5Botan16secure_allocatorIjEEE5emptyEv,@function
_ZNKSt6vectorIjN5Botan16secure_allocatorIjEEE5emptyEv: 

	push	rbp
	mov	rbp, rsp
	sub	rsp, 32
	mov	qword ptr [rbp - 8], rdi
	mov	rdi, qword ptr [rbp - 8]
	mov	qword ptr [rbp - 32], rdi 
	call	_ZNKSt6vectorIjN5Botan16secure_allocatorIjEEE5beginEv
	mov	qword ptr [rbp - 16], rax
	mov	rdi, qword ptr [rbp - 32] 
	call	_ZNKSt6vectorIjN5Botan16secure_allocatorIjEEE3endEv
	lea	rdi, [rbp - 16]
	lea	rsi, [rbp - 24]
	mov	qword ptr [rbp - 24], rax
	call	_ZN9__gnu_cxxeqIPKjSt6vectorIjN5Botan16secure_allocatorIjEEEEEbRKNS_17__normal_iteratorIT_T0_EESD_
	and	al, 1
	movzx	eax, al
	add	rsp, 32
	pop	rbp
	ret
.Lfunc_end2:
	.size	_ZNKSt6vectorIjN5Botan16secure_allocatorIjEEE5emptyEv, .Lfunc_end2-_ZNKSt6vectorIjN5Botan16secure_allocatorIjEEE5emptyEv

	.section	.text._ZN5Botan7load_beIjEET_PKhm,"axG",@progbits,_ZN5Botan7load_beIjEET_PKhm,comdat
	.weak	_ZN5Botan7load_beIjEET_PKhm 
	.p2align	4, 0x90
	.type	_ZN5Botan7load_beIjEET_PKhm,@function
_ZN5Botan7load_beIjEET_PKhm:            
	.cfi_startproc

	push	rbp
.Lcfi11:
	.cfi_def_cfa_offset 16
.Lcfi12:
	.cfi_offset rbp, -16
	mov	rbp, rsp
.Lcfi13:
	.cfi_def_cfa_register rbp
	sub	rsp, 32
	lea	rax, [rbp - 20]
	mov	qword ptr [rbp - 8], rdi
	mov	qword ptr [rbp - 16], rsi
	mov	rsi, qword ptr [rbp - 16]
	shl	rsi, 2
	add	rsi, qword ptr [rbp - 8]
	mov	qword ptr [rbp - 8], rsi
	mov	dword ptr [rbp - 20], 0
	mov	rsi, qword ptr [rbp - 8]
	mov	rdi, rax
	call	_ZN5Botan13typecast_copyIjEEvRT_PKh
	mov	edi, dword ptr [rbp - 20]
	call	_ZN5Botan13reverse_bytesEj
	add	rsp, 32
	pop	rbp
	ret
.Lfunc_end3:
	.size	_ZN5Botan7load_beIjEET_PKhm, .Lfunc_end3-_ZN5Botan7load_beIjEET_PKhm
	.cfi_endproc

	.text
	.p2align	4, 0x90         
	.type	_ZN5Botan12_GLOBAL__N_16des_IPERjS1_,@function
_ZN5Botan12_GLOBAL__N_16des_IPERjS1_:   
	.cfi_startproc

	push	rbp
.Lcfi14:
	.cfi_def_cfa_offset 16
.Lcfi15:
	.cfi_offset rbp, -16
	mov	rbp, rsp
.Lcfi16:
	.cfi_def_cfa_register rbp
	sub	rsp, 32
	mov	qword ptr [rbp - 8], rdi
	mov	qword ptr [rbp - 16], rsi
	mov	rsi, qword ptr [rbp - 16]
	mov	edi, dword ptr [rsi]
	call	_ZN5Botan4rotlILm4EjEET0_S1_
	mov	edi, 4294967295
	mov	rsi, qword ptr [rbp - 16]
	mov	dword ptr [rsi], eax
	mov	rsi, qword ptr [rbp - 8]
	mov	eax, dword ptr [rsi]
	mov	rsi, qword ptr [rbp - 16]
	mov	ecx, dword ptr [rsi]
	mov	edx, eax
	xor	edx, -1
	mov	r8d, ecx
	and	r8d, edx
	xor	ecx, -1
	and	eax, ecx
	or	r8d, eax
	xor	r8d, -1
	mov	eax, edi
	xor	eax, 4042322160
	xor	edi, 708718470
	or	r8d, eax
	or	edi, 708718470
	xor	r8d, -1
	and	r8d, edi
	mov	dword ptr [rbp - 20], r8d
	mov	eax, dword ptr [rbp - 20]
	mov	rsi, qword ptr [rbp - 8]
	mov	ecx, dword ptr [rsi]
	mov	edx, ecx
	xor	edx, -1
	mov	edi, eax
	and	edi, edx
	xor	eax, -1
	and	ecx, eax
	or	edi, ecx
	mov	dword ptr [rsi], edi
	mov	rsi, qword ptr [rbp - 16]
	mov	eax, dword ptr [rsi]
	mov	ecx, dword ptr [rbp - 20]
	mov	edx, eax
	xor	edx, -1
	mov	edi, ecx
	and	edi, edx
	xor	ecx, -1
	and	eax, ecx
	or	edi, eax
	call	_ZN5Botan4rotrILm20EjEET0_S1_
	mov	ecx, 4294967295
	mov	rsi, qword ptr [rbp - 16]
	mov	dword ptr [rsi], eax
	mov	rsi, qword ptr [rbp - 8]
	mov	eax, dword ptr [rsi]
	mov	rsi, qword ptr [rbp - 16]
	mov	edx, dword ptr [rsi]
	mov	edi, eax
	xor	edi, -1
	mov	r8d, edx
	and	r8d, edi
	xor	edx, -1
	and	eax, edx
	or	r8d, eax
	mov	eax, ecx
	xor	eax, 4294901760
	mov	edx, r8d
	xor	edx, eax
	and	edx, r8d
	mov	dword ptr [rbp - 20], edx
	mov	eax, dword ptr [rbp - 20]
	mov	rsi, qword ptr [rbp - 8]
	mov	edx, dword ptr [rsi]
	mov	edi, edx
	xor	edi, -1
	and	edi, 915142983
	xor	ecx, 915142983
	and	edx, ecx
	mov	r8d, eax
	xor	r8d, -1
	and	r8d, 915142983
	and	eax, ecx
	or	edi, edx
	or	r8d, eax
	xor	edi, r8d
	mov	dword ptr [rsi], edi
	mov	rsi, qword ptr [rbp - 16]
	mov	eax, dword ptr [rsi]
	mov	ecx, dword ptr [rbp - 20]
	mov	edx, eax
	xor	edx, -1
	mov	edi, ecx
	and	edi, edx
	xor	ecx, -1
	and	eax, ecx
	or	edi, eax
	call	_ZN5Botan4rotrILm18EjEET0_S1_
	mov	ecx, 4294967295
	mov	rsi, qword ptr [rbp - 16]
	mov	dword ptr [rsi], eax
	mov	rsi, qword ptr [rbp - 8]
	mov	eax, dword ptr [rsi]
	mov	rsi, qword ptr [rbp - 16]
	mov	edx, dword ptr [rsi]
	mov	edi, eax
	xor	edi, -1
	mov	r8d, edx
	and	r8d, edi
	xor	edx, -1
	and	eax, edx
	or	r8d, eax
	xor	r8d, -1
	mov	eax, ecx
	xor	eax, 858993459
	mov	edx, ecx
	xor	edx, 2303024775
	or	r8d, eax
	or	edx, 2303024775
	xor	r8d, -1
	and	r8d, edx
	mov	dword ptr [rbp - 20], r8d
	mov	eax, dword ptr [rbp - 20]
	mov	rsi, qword ptr [rbp - 8]
	mov	edx, dword ptr [rsi]
	mov	edi, edx
	xor	edi, -1
	and	edi, 2392720223
	xor	ecx, 2392720223
	and	edx, ecx
	mov	r8d, eax
	xor	r8d, -1
	and	r8d, -1902247073
	and	eax, ecx
	or	edi, edx
	or	r8d, eax
	xor	edi, r8d
	mov	dword ptr [rsi], edi
	mov	rsi, qword ptr [rbp - 16]
	mov	eax, dword ptr [rsi]
	mov	ecx, dword ptr [rbp - 20]
	mov	edx, eax
	xor	edx, -1
	mov	edi, ecx
	and	edi, edx
	xor	ecx, -1
	and	eax, ecx
	or	edi, eax
	call	_ZN5Botan4rotrILm6EjEET0_S1_
	mov	ecx, 4294967295
	mov	rsi, qword ptr [rbp - 16]
	mov	dword ptr [rsi], eax
	mov	rsi, qword ptr [rbp - 8]
	mov	eax, dword ptr [rsi]
	mov	rsi, qword ptr [rbp - 16]
	mov	edx, dword ptr [rsi]
	mov	edi, eax
	xor	edi, -1
	and	edi, 537861839
	mov	r8d, ecx
	xor	r8d, 537861839
	and	eax, r8d
	mov	r9d, edx
	xor	r9d, -1
	and	r9d, 537861839
	and	edx, r8d
	or	edi, eax
	or	r9d, edx
	xor	edi, r9d
	xor	edi, -1
	mov	eax, ecx
	xor	eax, 16711935
	mov	edx, ecx
	xor	edx, 2371376025
	or	edi, eax
	or	edx, 2371376025
	xor	edi, -1
	and	edi, edx
	mov	dword ptr [rbp - 20], edi
	mov	eax, dword ptr [rbp - 20]
	mov	rsi, qword ptr [rbp - 8]
	mov	edx, dword ptr [rsi]
	mov	edi, edx
	xor	edi, -1
	mov	r8d, eax
	and	r8d, edi
	xor	eax, -1
	and	edx, eax
	or	r8d, edx
	mov	dword ptr [rsi], r8d
	mov	rsi, qword ptr [rbp - 16]
	mov	eax, dword ptr [rsi]
	mov	edx, dword ptr [rbp - 20]
	mov	edi, eax
	xor	edi, -1
	and	edi, 150743730
	xor	ecx, 150743730
	and	eax, ecx
	mov	r8d, edx
	xor	r8d, -1
	and	r8d, 150743730
	and	edx, ecx
	or	edi, eax
	or	r8d, edx
	xor	edi, r8d
	call	_ZN5Botan4rotlILm9EjEET0_S1_
	mov	ecx, 4294967295
	mov	rsi, qword ptr [rbp - 16]
	mov	dword ptr [rsi], eax
	mov	rsi, qword ptr [rbp - 8]
	mov	eax, dword ptr [rsi]
	mov	rsi, qword ptr [rbp - 16]
	mov	edx, dword ptr [rsi]
	mov	edi, eax
	xor	edi, -1
	and	edi, 2292876294
	mov	r8d, ecx
	xor	r8d, 2292876294
	and	eax, r8d
	mov	r9d, edx
	xor	r9d, -1
	and	r9d, -2002091002
	and	edx, r8d
	or	edi, eax
	or	r9d, edx
	xor	edi, r9d
	mov	eax, ecx
	xor	eax, 2863311530
	mov	edx, edi
	xor	edx, eax
	and	edx, edi
	mov	dword ptr [rbp - 20], edx
	mov	rsi, qword ptr [rbp - 8]
	mov	eax, dword ptr [rsi]
	mov	edx, dword ptr [rbp - 20]
	mov	edi, eax
	xor	edi, -1
	and	edi, 3391507701
	xor	ecx, 3391507701
	and	eax, ecx
	mov	r8d, edx
	xor	r8d, -1
	and	r8d, -903459595
	and	edx, ecx
	or	edi, eax
	or	r8d, edx
	xor	edi, r8d
	call	_ZN5Botan4rotlILm1EjEET0_S1_
	mov	ecx, 4294967295
	mov	rsi, qword ptr [rbp - 8]
	mov	dword ptr [rsi], eax
	mov	eax, dword ptr [rbp - 20]
	mov	rsi, qword ptr [rbp - 16]
	mov	edx, dword ptr [rsi]
	mov	edi, edx
	xor	edi, -1
	and	edi, 3120850103
	xor	ecx, 3120850103
	and	edx, ecx
	mov	r8d, eax
	xor	r8d, -1
	and	r8d, -1174117193
	and	eax, ecx
	or	edi, edx
	or	r8d, eax
	xor	edi, r8d
	mov	dword ptr [rsi], edi
	add	rsp, 32
	pop	rbp
	ret
.Lfunc_end4:
	.size	_ZN5Botan12_GLOBAL__N_16des_IPERjS1_, .Lfunc_end4-_ZN5Botan12_GLOBAL__N_16des_IPERjS1_
	.cfi_endproc

	.p2align	4, 0x90         
	.type	_ZN5Botan12_GLOBAL__N_114des_encrypt_x2ERjS1_S1_S1_PKj,@function
_ZN5Botan12_GLOBAL__N_114des_encrypt_x2ERjS1_S1_S1_PKj: 
	.cfi_startproc

	push	rbp
.Lcfi17:
	.cfi_def_cfa_offset 16
.Lcfi18:
	.cfi_offset rbp, -16
	mov	rbp, rsp
.Lcfi19:
	.cfi_def_cfa_register rbp
	push	r15
	push	r14
	push	rbx
	sub	rsp, 104
.Lcfi20:
	.cfi_offset rbx, -40
.Lcfi21:
	.cfi_offset r14, -32
.Lcfi22:
	.cfi_offset r15, -24
	mov	qword ptr [rbp - 32], rdi
	mov	qword ptr [rbp - 40], rsi
	mov	qword ptr [rbp - 48], rdx
	mov	qword ptr [rbp - 56], rcx
	mov	qword ptr [rbp - 64], r8
	mov	rcx, qword ptr [rbp - 32]
	mov	eax, dword ptr [rcx]
	mov	dword ptr [rbp - 68], eax
	mov	rcx, qword ptr [rbp - 40]
	mov	eax, dword ptr [rcx]
	mov	dword ptr [rbp - 72], eax
	mov	rcx, qword ptr [rbp - 48]
	mov	eax, dword ptr [rcx]
	mov	dword ptr [rbp - 76], eax
	mov	rcx, qword ptr [rbp - 56]
	mov	eax, dword ptr [rcx]
	mov	dword ptr [rbp - 80], eax
	mov	qword ptr [rbp - 88], 0
	mov	dword ptr [rbp - 92], -1274691201
.LBB5_1:                                
	mov	eax, dword ptr [rbp - 92]
	mov	ecx, eax
	sub	ecx, -1776825599
	mov	dword ptr [rbp - 96], eax 
	mov	dword ptr [rbp - 100], ecx 
	je	.LBB5_6
	jmp	.LBB5_11
.LBB5_11:                               
	mov	eax, dword ptr [rbp - 96] 
	sub	eax, -1274691201
	mov	dword ptr [rbp - 104], eax 
	je	.LBB5_3
	jmp	.LBB5_12
.LBB5_12:                               
	mov	eax, dword ptr [rbp - 96] 
	sub	eax, -671361092
	mov	dword ptr [rbp - 108], eax 
	je	.LBB5_4
	jmp	.LBB5_13
.LBB5_13:                               
	mov	eax, dword ptr [rbp - 96] 
	sub	eax, 633214494
	mov	dword ptr [rbp - 112], eax 
	je	.LBB5_9
	jmp	.LBB5_14
.LBB5_14:                               
	mov	eax, dword ptr [rbp - 96] 
	sub	eax, 967536619
	mov	dword ptr [rbp - 116], eax 
	je	.LBB5_5
	jmp	.LBB5_15
.LBB5_15:                               
	mov	eax, dword ptr [rbp - 96] 
	sub	eax, 1991389138
	mov	dword ptr [rbp - 120], eax 
	je	.LBB5_7
	jmp	.LBB5_16
.LBB5_16:                               
	mov	eax, dword ptr [rbp - 96] 
	sub	eax, 2125924441
	mov	dword ptr [rbp - 124], eax 
	je	.LBB5_8
	jmp	.LBB5_2
.LBB5_2:                                
	jmp	.LBB5_10
.LBB5_3:                                
	mov	eax, 2518141697
	mov	ecx, 3623606204
	cmp	qword ptr [rbp - 88], 16
	cmovne	eax, ecx
	mov	dword ptr [rbp - 92], eax
	jmp	.LBB5_10
.LBB5_4:                                
	mov	edi, dword ptr [rbp - 72]
	call	_ZN5Botan4rotrILm4EjEET0_S1_
	mov	edi, 4294967295
	xor	ecx, ecx
	mov	edx, ecx
	mov	rsi, qword ptr [rbp - 64]
	mov	r8, qword ptr [rbp - 88]
	shl	r8, 1
	mov	ecx, dword ptr [rsi + 4*r8]
	mov	r9d, eax
	xor	r9d, -1
	and	r9d, 3827851587
	mov	r10d, edi
	xor	r10d, 3827851587
	and	eax, r10d
	mov	r11d, ecx
	xor	r11d, -1
	and	r11d, -467115709
	and	ecx, r10d
	or	r9d, eax
	or	r11d, ecx
	xor	r9d, r11d
	mov	eax, dword ptr [rbp - 72]
	mov	rsi, qword ptr [rbp - 64]
	mov	r8, qword ptr [rbp - 88]
	shl	r8, 1
	sub	rdx, 1
	sub	r8, rdx
	mov	ecx, dword ptr [rsi + 4*r8]
	mov	r10d, eax
	xor	r10d, -1
	and	r10d, 2693078385
	xor	edi, 2693078385
	and	eax, edi
	mov	r11d, ecx
	xor	r11d, -1
	and	r11d, -1601888911
	and	ecx, edi
	or	r10d, eax
	or	r11d, ecx
	xor	r10d, r11d
	mov	edi, r9d
	mov	esi, r10d
	call	_ZN5Botan12_GLOBAL__N_15spboxEjj
	mov	ecx, 4294967295
	mov	esi, dword ptr [rbp - 68]
	mov	edi, esi
	xor	edi, -1
	and	edi, 2524746419
	xor	ecx, 2524746419
	and	esi, ecx
	mov	r9d, eax
	xor	r9d, -1
	and	r9d, -1770220877
	and	eax, ecx
	or	edi, esi
	or	r9d, eax
	xor	edi, r9d
	mov	dword ptr [rbp - 68], edi
	mov	edi, dword ptr [rbp - 80]
	call	_ZN5Botan4rotrILm4EjEET0_S1_
	xor	ecx, ecx
	mov	edx, ecx
	mov	r8, qword ptr [rbp - 64]
	mov	rbx, qword ptr [rbp - 88]
	shl	rbx, 1
	mov	ecx, dword ptr [r8 + 4*rbx]
	mov	esi, eax
	xor	esi, -1
	mov	edi, ecx
	and	edi, esi
	xor	ecx, -1
	and	eax, ecx
	or	edi, eax
	mov	eax, dword ptr [rbp - 80]
	mov	r8, qword ptr [rbp - 64]
	mov	rbx, qword ptr [rbp - 88]
	shl	rbx, 1
	mov	r14, rdx
	sub	r14, rbx
	mov	rbx, rdx
	sub	rbx, 1
	add	r14, rbx
	sub	rdx, r14
	mov	ecx, dword ptr [r8 + 4*rdx]
	mov	esi, eax
	xor	esi, -1
	mov	r9d, ecx
	and	r9d, esi
	xor	ecx, -1
	and	eax, ecx
	or	r9d, eax
	mov	esi, r9d
	call	_ZN5Botan12_GLOBAL__N_15spboxEjj
	mov	ecx, dword ptr [rbp - 76]
	mov	esi, ecx
	xor	esi, -1
	mov	edi, eax
	and	edi, esi
	xor	eax, -1
	and	ecx, eax
	or	edi, ecx
	mov	dword ptr [rbp - 76], edi
	mov	edi, dword ptr [rbp - 68]
	call	_ZN5Botan4rotrILm4EjEET0_S1_
	movabs	rdx, 3687477762783284159
	mov	ecx, 4294967295
	xor	esi, esi
	mov	r8d, esi
	mov	rbx, qword ptr [rbp - 64]
	mov	r14, qword ptr [rbp - 88]
	shl	r14, 1
	mov	r15, r8
	sub	r15, r14
	mov	r14, r8
	sub	r14, 2
	add	r15, r14
	sub	r8, r15
	mov	esi, dword ptr [rbx + 4*r8]
	mov	edi, eax
	xor	edi, -1
	and	edi, 440358832
	xor	ecx, 440358832
	and	eax, ecx
	mov	r9d, esi
	xor	r9d, -1
	and	r9d, 440358832
	and	esi, ecx
	or	edi, eax
	or	r9d, esi
	xor	edi, r9d
	mov	eax, dword ptr [rbp - 68]
	mov	r8, qword ptr [rbp - 64]
	mov	rbx, qword ptr [rbp - 88]
	shl	rbx, 1
	sub	rbx, rdx
	add	rbx, 3
	add	rbx, rdx
	shl	rbx, 2
	add	r8, rbx
	mov	ecx, dword ptr [r8]
	mov	esi, eax
	xor	esi, -1
	mov	r9d, ecx
	and	r9d, esi
	xor	ecx, -1
	and	eax, ecx
	or	r9d, eax
	mov	esi, r9d
	call	_ZN5Botan12_GLOBAL__N_15spboxEjj
	mov	ecx, 4294967295
	mov	esi, dword ptr [rbp - 72]
	mov	edi, esi
	xor	edi, -1
	and	edi, 26639911
	xor	ecx, 26639911
	and	esi, ecx
	mov	r9d, eax
	xor	r9d, -1
	and	r9d, 26639911
	and	eax, ecx
	or	edi, esi
	or	r9d, eax
	xor	edi, r9d
	mov	dword ptr [rbp - 72], edi
	mov	edi, dword ptr [rbp - 76]
	call	_ZN5Botan4rotrILm4EjEET0_S1_
	xor	ecx, ecx
	mov	edx, ecx
	mov	ecx, 4294967295
	movabs	r8, -8373815382358220196
	mov	rbx, qword ptr [rbp - 64]
	mov	r14, qword ptr [rbp - 88]
	shl	r14, 1
	sub	r14, r8
	add	r14, 2
	add	r14, r8
	shl	r14, 2
	add	rbx, r14
	mov	esi, dword ptr [rbx]
	mov	edi, eax
	xor	edi, -1
	and	edi, 1631180087
	xor	ecx, 1631180087
	and	eax, ecx
	mov	r9d, esi
	xor	r9d, -1
	and	r9d, 1631180087
	and	esi, ecx
	or	edi, eax
	or	r9d, esi
	xor	edi, r9d
	mov	eax, dword ptr [rbp - 76]
	mov	r8, qword ptr [rbp - 64]
	mov	rbx, qword ptr [rbp - 88]
	shl	rbx, 1
	sub	rdx, 3
	sub	rbx, rdx
	mov	ecx, dword ptr [r8 + 4*rbx]
	mov	esi, eax
	xor	esi, -1
	mov	r9d, ecx
	and	r9d, esi
	xor	ecx, -1
	and	eax, ecx
	or	r9d, eax
	mov	esi, r9d
	call	_ZN5Botan12_GLOBAL__N_15spboxEjj
	mov	ecx, dword ptr [rbp - 80]
	mov	esi, ecx
	xor	esi, -1
	mov	edi, eax
	and	edi, esi
	xor	eax, -1
	and	ecx, eax
	or	edi, ecx
	mov	dword ptr [rbp - 80], edi
	mov	dword ptr [rbp - 92], 967536619
	jmp	.LBB5_10
.LBB5_5:                                
	xor	eax, eax
	mov	ecx, eax
	mov	rdx, qword ptr [rbp - 88]
	sub	rcx, 2
	sub	rdx, rcx
	mov	qword ptr [rbp - 88], rdx
	mov	dword ptr [rbp - 92], -1274691201
	jmp	.LBB5_10
.LBB5_6:                                
	mov	eax, 633214494
	mov	ecx, 1991389138
	mov	edx, dword ptr [x.17]
	mov	esi, dword ptr [y.18]
	mov	edi, edx
	add	edi, 1442379458
	sub	edi, 1
	sub	edi, 1442379458
	imul	edx, edi
	and	edx, 1
	cmp	edx, 0
	sete	r8b
	cmp	esi, 10
	setl	r9b
	mov	r10b, r8b
	and	r10b, r9b
	xor	r8b, r9b
	or	r10b, r8b
	test	r10b, 1
	cmovne	eax, ecx
	mov	dword ptr [rbp - 92], eax
	jmp	.LBB5_10
.LBB5_7:                                
	mov	eax, 633214494
	mov	ecx, 2125924441
	mov	edx, dword ptr [rbp - 68]
	mov	rsi, qword ptr [rbp - 32]
	mov	dword ptr [rsi], edx
	mov	edx, dword ptr [rbp - 72]
	mov	rsi, qword ptr [rbp - 40]
	mov	dword ptr [rsi], edx
	mov	edx, dword ptr [rbp - 76]
	mov	rsi, qword ptr [rbp - 48]
	mov	dword ptr [rsi], edx
	mov	edx, dword ptr [rbp - 80]
	mov	rsi, qword ptr [rbp - 56]
	mov	dword ptr [rsi], edx
	mov	edx, dword ptr [x.17]
	mov	edi, dword ptr [y.18]
	mov	r8d, edx
	sub	r8d, -113504315
	sub	r8d, 1
	add	r8d, -113504315
	imul	edx, r8d
	and	edx, 1
	cmp	edx, 0
	sete	r9b
	cmp	edi, 10
	setl	r10b
	mov	r11b, r9b
	and	r11b, r10b
	xor	r9b, r10b
	or	r11b, r9b
	test	r11b, 1
	cmovne	eax, ecx
	mov	dword ptr [rbp - 92], eax
	jmp	.LBB5_10
.LBB5_8:
	add	rsp, 104
	pop	rbx
	pop	r14
	pop	r15
	pop	rbp
	ret
.LBB5_9:                                
	mov	eax, dword ptr [rbp - 68]
	mov	rcx, qword ptr [rbp - 32]
	mov	dword ptr [rcx], eax
	mov	eax, dword ptr [rbp - 72]
	mov	rcx, qword ptr [rbp - 40]
	mov	dword ptr [rcx], eax
	mov	eax, dword ptr [rbp - 76]
	mov	rcx, qword ptr [rbp - 48]
	mov	dword ptr [rcx], eax
	mov	eax, dword ptr [rbp - 80]
	mov	rcx, qword ptr [rbp - 56]
	mov	dword ptr [rcx], eax
	mov	dword ptr [rbp - 92], 1991389138
.LBB5_10:                               
	jmp	.LBB5_1
.Lfunc_end5:
	.size	_ZN5Botan12_GLOBAL__N_114des_encrypt_x2ERjS1_S1_S1_PKj, .Lfunc_end5-_ZN5Botan12_GLOBAL__N_114des_encrypt_x2ERjS1_S1_S1_PKj
	.cfi_endproc

	.section	.text._ZNKSt6vectorIjN5Botan16secure_allocatorIjEEE4dataEv,"axG",@progbits,_ZNKSt6vectorIjN5Botan16secure_allocatorIjEEE4dataEv,comdat
	.weak	_ZNKSt6vectorIjN5Botan16secure_allocatorIjEEE4dataEv 
	.p2align	4, 0x90
	.type	_ZNKSt6vectorIjN5Botan16secure_allocatorIjEEE4dataEv,@function
_ZNKSt6vectorIjN5Botan16secure_allocatorIjEEE4dataEv: 

	push	rbp
	mov	rbp, rsp
	push	r15
	push	r14
	push	r13
	push	r12
	push	rbx
	sub	rsp, 56
	mov	eax, dword ptr [x.19]
	mov	ecx, dword ptr [y.20]
	mov	edx, eax
	sub	edx, 523701236
	sub	edx, 1
	add	edx, 523701236
	imul	eax, edx
	and	eax, 1
	cmp	eax, 0
	sete	sil
	and	sil, 1
	mov	byte ptr [rbp - 50], sil
	cmp	ecx, 10
	setl	sil
	and	sil, 1
	mov	byte ptr [rbp - 49], sil
	mov	dword ptr [rbp - 56], 1390245913
	mov	qword ptr [rbp - 64], rdi 
.LBB6_1:                                
	mov	eax, dword ptr [rbp - 56]
	mov	ecx, eax
	sub	ecx, -1017788957
	mov	dword ptr [rbp - 68], eax 
	mov	dword ptr [rbp - 72], ecx 
	je	.LBB6_5
	jmp	.LBB6_8
.LBB6_8:                                
	mov	eax, dword ptr [rbp - 68] 
	sub	eax, 37954192
	mov	dword ptr [rbp - 76], eax 
	je	.LBB6_4
	jmp	.LBB6_9
.LBB6_9:                                
	mov	eax, dword ptr [rbp - 68] 
	sub	eax, 799822897
	mov	dword ptr [rbp - 80], eax 
	je	.LBB6_6
	jmp	.LBB6_10
.LBB6_10:                               
	mov	eax, dword ptr [rbp - 68] 
	sub	eax, 1390245913
	mov	dword ptr [rbp - 84], eax 
	je	.LBB6_3
	jmp	.LBB6_2
.LBB6_2:                                
	jmp	.LBB6_7
.LBB6_3:                                
	mov	eax, 799822897
	mov	ecx, 37954192
	mov	dl, 1
	mov	sil, byte ptr [rbp - 50]
	mov	dil, byte ptr [rbp - 49]
	mov	r8b, sil
	xor	r8b, -1
	mov	r9b, dil
	xor	r9b, -1
	xor	dl, 1
	mov	r10b, r8b
	and	r10b, -1
	and	sil, dl
	mov	r11b, r9b
	and	r11b, -1
	and	dil, dl
	or	r10b, sil
	or	r11b, dil
	xor	r10b, r11b
	or	r8b, r9b
	xor	r8b, -1
	or	dl, 1
	and	r8b, dl
	or	r10b, r8b
	test	r10b, 1
	cmovne	eax, ecx
	mov	dword ptr [rbp - 56], eax
	jmp	.LBB6_7
.LBB6_4:                                
	mov	rax, rsp
	add	rax, -16
	mov	rsp, rax
	mov	rcx, qword ptr [rbp - 64] 
	mov	qword ptr [rax], rcx
	mov	rax, qword ptr [rax]
	mov	rsi, qword ptr [rax]
	mov	rdi, rax
	call	_ZNKSt6vectorIjN5Botan16secure_allocatorIjEEE11_M_data_ptrIjEEPT_S6_
	mov	edx, 799822897
	mov	r8d, 3277178339
	mov	r9b, 1
	xor	r10d, r10d
	mov	qword ptr [rbp - 48], rax
	mov	r11d, dword ptr [x.19]
	mov	ebx, dword ptr [y.20]
	sub	r10d, 1
	mov	r14d, r11d
	add	r14d, r10d
	imul	r11d, r14d
	and	r11d, 1
	cmp	r11d, 0
	sete	r15b
	cmp	ebx, 10
	setl	r12b
	mov	r13b, r15b
	xor	r13b, -1
	mov	al, r12b
	xor	al, -1
	xor	r9b, 1
	mov	cl, r13b
	and	cl, -1
	and	r15b, r9b
	mov	sil, al
	and	sil, -1
	and	r12b, r9b
	or	cl, r15b
	or	sil, r12b
	xor	cl, sil
	or	r13b, al
	xor	r13b, -1
	or	r9b, 1
	and	r13b, r9b
	or	cl, r13b
	test	cl, 1
	cmovne	edx, r8d
	mov	dword ptr [rbp - 56], edx
	jmp	.LBB6_7
.LBB6_5:
	mov	rax, qword ptr [rbp - 48]
	lea	rsp, [rbp - 40]
	pop	rbx
	pop	r12
	pop	r13
	pop	r14
	pop	r15
	pop	rbp
	ret
.LBB6_6:                                
	mov	rax, rsp
	add	rax, -16
	mov	rsp, rax
	mov	rcx, qword ptr [rbp - 64] 
	mov	qword ptr [rax], rcx
	mov	rax, qword ptr [rax]
	mov	rsi, qword ptr [rax]
	mov	rdi, rax
	call	_ZNKSt6vectorIjN5Botan16secure_allocatorIjEEE11_M_data_ptrIjEEPT_S6_
	mov	dword ptr [rbp - 56], 37954192
	mov	qword ptr [rbp - 96], rax 
.LBB6_7:                                
	jmp	.LBB6_1
.Lfunc_end6:
	.size	_ZNKSt6vectorIjN5Botan16secure_allocatorIjEEE4dataEv, .Lfunc_end6-_ZNKSt6vectorIjN5Botan16secure_allocatorIjEEE4dataEv

	.text
	.p2align	4, 0x90         
	.type	_ZN5Botan12_GLOBAL__N_16des_FPERjS1_,@function
_ZN5Botan12_GLOBAL__N_16des_FPERjS1_:   
	.cfi_startproc

	push	rbp
.Lcfi23:
	.cfi_def_cfa_offset 16
.Lcfi24:
	.cfi_offset rbp, -16
	mov	rbp, rsp
.Lcfi25:
	.cfi_def_cfa_register rbp
	push	r15
	push	r14
	push	r12
	push	rbx
	sub	rsp, 96
.Lcfi26:
	.cfi_offset rbx, -48
.Lcfi27:
	.cfi_offset r12, -40
.Lcfi28:
	.cfi_offset r14, -32
.Lcfi29:
	.cfi_offset r15, -24
	mov	eax, dword ptr [x.21]
	mov	ecx, dword ptr [y.22]
	mov	edx, eax
	sub	edx, -1684666716
	sub	edx, 1
	add	edx, -1684666716
	imul	eax, edx
	and	eax, 1
	cmp	eax, 0
	sete	r8b
	and	r8b, 1
	mov	byte ptr [rbp - 34], r8b
	cmp	ecx, 10
	setl	r8b
	and	r8b, 1
	mov	byte ptr [rbp - 33], r8b
	mov	dword ptr [rbp - 40], -252952823
	mov	qword ptr [rbp - 48], rdi 
	mov	qword ptr [rbp - 56], rsi 
.LBB7_1:                                
	mov	eax, dword ptr [rbp - 40]
	mov	ecx, eax
	sub	ecx, -2062207827
	mov	dword ptr [rbp - 60], eax 
	mov	dword ptr [rbp - 64], ecx 
	je	.LBB7_5
	jmp	.LBB7_8
.LBB7_8:                                
	mov	eax, dword ptr [rbp - 60] 
	sub	eax, -452465523
	mov	dword ptr [rbp - 68], eax 
	je	.LBB7_4
	jmp	.LBB7_9
.LBB7_9:                                
	mov	eax, dword ptr [rbp - 60] 
	sub	eax, -252952823
	mov	dword ptr [rbp - 72], eax 
	je	.LBB7_3
	jmp	.LBB7_10
.LBB7_10:                               
	mov	eax, dword ptr [rbp - 60] 
	sub	eax, 276454025
	mov	dword ptr [rbp - 76], eax 
	je	.LBB7_6
	jmp	.LBB7_2
.LBB7_2:                                
	jmp	.LBB7_7
.LBB7_3:                                
	mov	eax, 276454025
	mov	ecx, 3842501773
	mov	dl, byte ptr [rbp - 34]
	mov	sil, byte ptr [rbp - 33]
	mov	dil, dl
	and	dil, sil
	xor	dl, sil
	or	dil, dl
	test	dil, 1
	cmovne	eax, ecx
	mov	dword ptr [rbp - 40], eax
	jmp	.LBB7_7
.LBB7_4:                                
	mov	rax, rsp
	add	rax, -16
	mov	rsp, rax
	mov	rcx, rsp
	add	rcx, -16
	mov	rsp, rcx
	mov	rdx, rsp
	add	rdx, -16
	mov	rsp, rdx
	mov	rsi, qword ptr [rbp - 48] 
	mov	qword ptr [rax], rsi
	mov	rdi, qword ptr [rbp - 56] 
	mov	qword ptr [rcx], rdi
	mov	r8, qword ptr [rcx]
	mov	edi, dword ptr [r8]
	mov	qword ptr [rbp - 88], rax 
	mov	qword ptr [rbp - 96], rcx 
	mov	qword ptr [rbp - 104], rdx 
	call	_ZN5Botan4rotrILm1EjEET0_S1_
	mov	edi, 4294967295
	mov	rcx, qword ptr [rbp - 96] 
	mov	rdx, qword ptr [rcx]
	mov	dword ptr [rdx], eax
	mov	rdx, qword ptr [rbp - 88] 
	mov	rsi, qword ptr [rdx]
	mov	eax, dword ptr [rsi]
	mov	rsi, qword ptr [rcx]
	mov	r9d, dword ptr [rsi]
	mov	r10d, eax
	xor	r10d, -1
	and	r10d, 1007864280
	mov	r11d, edi
	xor	r11d, 1007864280
	and	eax, r11d
	mov	ebx, r9d
	xor	ebx, -1
	and	ebx, 1007864280
	and	r9d, r11d
	or	r10d, eax
	or	ebx, r9d
	xor	r10d, ebx
	mov	eax, edi
	xor	eax, 2863311530
	mov	r9d, r10d
	xor	r9d, eax
	and	r9d, r10d
	mov	rsi, qword ptr [rbp - 104] 
	mov	dword ptr [rsi], r9d
	mov	eax, dword ptr [rsi]
	mov	r8, qword ptr [rcx]
	mov	r9d, dword ptr [r8]
	mov	r10d, r9d
	xor	r10d, -1
	and	r10d, 3142631514
	xor	edi, 3142631514
	and	r9d, edi
	mov	r11d, eax
	xor	r11d, -1
	and	r11d, -1152335782
	and	eax, edi
	or	r10d, r9d
	or	r11d, eax
	xor	r10d, r11d
	mov	dword ptr [r8], r10d
	mov	r8, qword ptr [rdx]
	mov	eax, dword ptr [r8]
	mov	edi, dword ptr [rsi]
	mov	r9d, eax
	xor	r9d, -1
	mov	r10d, edi
	and	r10d, r9d
	xor	edi, -1
	and	eax, edi
	or	r10d, eax
	mov	edi, r10d
	call	_ZN5Botan4rotrILm9EjEET0_S1_
	mov	edi, 4294967295
	mov	rcx, qword ptr [rbp - 88] 
	mov	rdx, qword ptr [rcx]
	mov	dword ptr [rdx], eax
	mov	rdx, qword ptr [rcx]
	mov	eax, dword ptr [rdx]
	mov	rdx, qword ptr [rbp - 96] 
	mov	rsi, qword ptr [rdx]
	mov	r9d, dword ptr [rsi]
	mov	r10d, eax
	xor	r10d, -1
	and	r10d, 1637113306
	mov	r11d, edi
	xor	r11d, 1637113306
	and	eax, r11d
	mov	ebx, r9d
	xor	ebx, -1
	and	ebx, 1637113306
	and	r9d, r11d
	or	r10d, eax
	or	ebx, r9d
	xor	r10d, ebx
	xor	r10d, -1
	mov	eax, edi
	xor	eax, 16711935
	mov	r9d, edi
	xor	r9d, 4246344963
	or	r10d, eax
	or	r9d, 4246344963
	xor	r10d, -1
	and	r10d, r9d
	mov	rsi, qword ptr [rbp - 104] 
	mov	dword ptr [rsi], r10d
	mov	eax, dword ptr [rsi]
	mov	r8, qword ptr [rdx]
	mov	r9d, dword ptr [r8]
	mov	r10d, r9d
	xor	r10d, -1
	and	r10d, 2425744570
	xor	edi, 2425744570
	and	r9d, edi
	mov	r11d, eax
	xor	r11d, -1
	and	r11d, -1869222726
	and	eax, edi
	or	r10d, r9d
	or	r11d, eax
	xor	r10d, r11d
	mov	dword ptr [r8], r10d
	mov	r8, qword ptr [rcx]
	mov	eax, dword ptr [r8]
	mov	edi, dword ptr [rsi]
	mov	r9d, eax
	xor	r9d, -1
	mov	r10d, edi
	and	r10d, r9d
	xor	edi, -1
	and	eax, edi
	or	r10d, eax
	mov	edi, r10d
	call	_ZN5Botan4rotlILm6EjEET0_S1_
	mov	edi, 4294967295
	mov	rcx, qword ptr [rbp - 88] 
	mov	rdx, qword ptr [rcx]
	mov	dword ptr [rdx], eax
	mov	rdx, qword ptr [rcx]
	mov	eax, dword ptr [rdx]
	mov	rdx, qword ptr [rbp - 96] 
	mov	rsi, qword ptr [rdx]
	mov	r9d, dword ptr [rsi]
	mov	r10d, eax
	xor	r10d, -1
	and	r10d, 893003293
	mov	r11d, edi
	xor	r11d, 893003293
	and	eax, r11d
	mov	ebx, r9d
	xor	ebx, -1
	and	ebx, 893003293
	and	r9d, r11d
	or	r10d, eax
	or	ebx, r9d
	xor	r10d, ebx
	xor	r10d, -1
	mov	eax, edi
	xor	eax, 858993459
	xor	edi, 2259425707
	or	r10d, eax
	or	edi, 2259425707
	xor	r10d, -1
	and	r10d, edi
	mov	rsi, qword ptr [rbp - 104] 
	mov	dword ptr [rsi], r10d
	mov	eax, dword ptr [rsi]
	mov	r8, qword ptr [rdx]
	mov	edi, dword ptr [r8]
	mov	r9d, edi
	xor	r9d, -1
	mov	r10d, eax
	and	r10d, r9d
	xor	eax, -1
	and	edi, eax
	or	r10d, edi
	mov	dword ptr [r8], r10d
	mov	r8, qword ptr [rcx]
	mov	eax, dword ptr [r8]
	mov	edi, dword ptr [rsi]
	mov	r9d, eax
	xor	r9d, -1
	mov	r10d, edi
	and	r10d, r9d
	xor	edi, -1
	and	eax, edi
	or	r10d, eax
	mov	edi, r10d
	call	_ZN5Botan4rotlILm18EjEET0_S1_
	mov	edi, 4294967295
	mov	rcx, qword ptr [rbp - 88] 
	mov	rdx, qword ptr [rcx]
	mov	dword ptr [rdx], eax
	mov	rdx, qword ptr [rcx]
	mov	eax, dword ptr [rdx]
	mov	rdx, qword ptr [rbp - 96] 
	mov	rsi, qword ptr [rdx]
	mov	r9d, dword ptr [rsi]
	mov	r10d, eax
	xor	r10d, -1
	mov	r11d, r9d
	and	r11d, r10d
	xor	r9d, -1
	and	eax, r9d
	or	r11d, eax
	xor	r11d, -1
	mov	eax, edi
	xor	eax, 4294901760
	mov	r9d, edi
	xor	r9d, 208410987
	or	r11d, eax
	or	r9d, 208410987
	xor	r11d, -1
	and	r11d, r9d
	mov	rsi, qword ptr [rbp - 104] 
	mov	dword ptr [rsi], r11d
	mov	eax, dword ptr [rsi]
	mov	r8, qword ptr [rdx]
	mov	r9d, dword ptr [r8]
	mov	r10d, r9d
	xor	r10d, -1
	and	r10d, 1337399480
	xor	edi, 1337399480
	and	r9d, edi
	mov	r11d, eax
	xor	r11d, -1
	and	r11d, 1337399480
	and	eax, edi
	or	r10d, r9d
	or	r11d, eax
	xor	r10d, r11d
	mov	dword ptr [r8], r10d
	mov	r8, qword ptr [rcx]
	mov	eax, dword ptr [r8]
	mov	edi, dword ptr [rsi]
	mov	r9d, eax
	xor	r9d, -1
	mov	r10d, edi
	and	r10d, r9d
	xor	edi, -1
	and	eax, edi
	or	r10d, eax
	mov	edi, r10d
	call	_ZN5Botan4rotlILm20EjEET0_S1_
	mov	edi, 4294967295
	mov	rcx, qword ptr [rbp - 88] 
	mov	rdx, qword ptr [rcx]
	mov	dword ptr [rdx], eax
	mov	rdx, qword ptr [rcx]
	mov	eax, dword ptr [rdx]
	mov	rdx, qword ptr [rbp - 96] 
	mov	rsi, qword ptr [rdx]
	mov	r9d, dword ptr [rsi]
	mov	r10d, eax
	xor	r10d, -1
	mov	r11d, r9d
	and	r11d, r10d
	xor	r9d, -1
	and	eax, r9d
	or	r11d, eax
	mov	eax, edi
	xor	eax, 4042322160
	mov	r9d, r11d
	xor	r9d, eax
	and	r9d, r11d
	mov	rsi, qword ptr [rbp - 104] 
	mov	dword ptr [rsi], r9d
	mov	eax, dword ptr [rsi]
	mov	r8, qword ptr [rdx]
	mov	r9d, dword ptr [r8]
	mov	r10d, r9d
	xor	r10d, -1
	and	r10d, 2851353160
	mov	r11d, edi
	xor	r11d, 2851353160
	and	r9d, r11d
	mov	ebx, eax
	xor	ebx, -1
	and	ebx, -1443614136
	and	eax, r11d
	or	r10d, r9d
	or	ebx, eax
	xor	r10d, ebx
	mov	dword ptr [r8], r10d
	mov	r8, qword ptr [rcx]
	mov	eax, dword ptr [r8]
	mov	r9d, dword ptr [rsi]
	mov	r10d, eax
	xor	r10d, -1
	and	r10d, 2108111056
	xor	edi, 2108111056
	and	eax, edi
	mov	r11d, r9d
	xor	r11d, -1
	and	r11d, 2108111056
	and	r9d, edi
	or	r10d, eax
	or	r11d, r9d
	xor	r10d, r11d
	mov	edi, r10d
	call	_ZN5Botan4rotrILm4EjEET0_S1_
	mov	edi, 276454025
	mov	r9d, 2232759469
	xor	r10d, r10d
	mov	rcx, qword ptr [rbp - 88] 
	mov	rdx, qword ptr [rcx]
	mov	dword ptr [rdx], eax
	mov	eax, dword ptr [x.21]
	mov	r11d, dword ptr [y.22]
	sub	r10d, 1
	mov	ebx, eax
	add	ebx, r10d
	imul	eax, ebx
	and	eax, 1
	cmp	eax, 0
	sete	r14b
	cmp	r11d, 10
	setl	r15b
	mov	r12b, r14b
	and	r12b, r15b
	xor	r14b, r15b
	or	r12b, r14b
	test	r12b, 1
	cmovne	edi, r9d
	mov	dword ptr [rbp - 40], edi
	jmp	.LBB7_7
.LBB7_5:
	lea	rsp, [rbp - 32]
	pop	rbx
	pop	r12
	pop	r14
	pop	r15
	pop	rbp
	ret
.LBB7_6:                                
	mov	rax, rsp
	add	rax, -16
	mov	rsp, rax
	mov	rcx, rsp
	add	rcx, -16
	mov	rsp, rcx
	mov	rdx, rsp
	add	rdx, -16
	mov	rsp, rdx
	mov	rsi, qword ptr [rbp - 48] 
	mov	qword ptr [rax], rsi
	mov	rdi, qword ptr [rbp - 56] 
	mov	qword ptr [rcx], rdi
	mov	r8, qword ptr [rcx]
	mov	edi, dword ptr [r8]
	mov	qword ptr [rbp - 112], rax 
	mov	qword ptr [rbp - 120], rcx 
	mov	qword ptr [rbp - 128], rdx 
	call	_ZN5Botan4rotrILm1EjEET0_S1_
	mov	edi, 4294967295
	mov	rcx, qword ptr [rbp - 120] 
	mov	rdx, qword ptr [rcx]
	mov	dword ptr [rdx], eax
	mov	rdx, qword ptr [rbp - 112] 
	mov	rsi, qword ptr [rdx]
	mov	eax, dword ptr [rsi]
	mov	rsi, qword ptr [rcx]
	mov	r9d, dword ptr [rsi]
	mov	r10d, eax
	xor	r10d, -1
	mov	r11d, r9d
	and	r11d, r10d
	xor	r9d, -1
	and	eax, r9d
	or	r11d, eax
	mov	eax, edi
	xor	eax, 2863311530
	mov	r9d, r11d
	xor	r9d, eax
	and	r9d, r11d
	mov	rsi, qword ptr [rbp - 128] 
	mov	dword ptr [rsi], r9d
	mov	eax, dword ptr [rsi]
	mov	r8, qword ptr [rcx]
	mov	r9d, dword ptr [r8]
	mov	r10d, r9d
	xor	r10d, -1
	and	r10d, 1041853554
	mov	r11d, edi
	xor	r11d, 1041853554
	and	r9d, r11d
	mov	ebx, eax
	xor	ebx, -1
	and	ebx, 1041853554
	and	eax, r11d
	or	r10d, r9d
	or	ebx, eax
	xor	r10d, ebx
	mov	dword ptr [r8], r10d
	mov	r8, qword ptr [rdx]
	mov	eax, dword ptr [r8]
	mov	r9d, dword ptr [rsi]
	mov	r10d, eax
	xor	r10d, -1
	and	r10d, 1468480511
	xor	edi, 1468480511
	and	eax, edi
	mov	r11d, r9d
	xor	r11d, -1
	and	r11d, 1468480511
	and	r9d, edi
	or	r10d, eax
	or	r11d, r9d
	xor	r10d, r11d
	mov	edi, r10d
	call	_ZN5Botan4rotrILm9EjEET0_S1_
	mov	edi, 4294967295
	mov	rcx, qword ptr [rbp - 112] 
	mov	rdx, qword ptr [rcx]
	mov	dword ptr [rdx], eax
	mov	rdx, qword ptr [rcx]
	mov	eax, dword ptr [rdx]
	mov	rdx, qword ptr [rbp - 120] 
	mov	rsi, qword ptr [rdx]
	mov	r9d, dword ptr [rsi]
	mov	r10d, eax
	xor	r10d, -1
	mov	r11d, r9d
	and	r11d, r10d
	xor	r9d, -1
	and	eax, r9d
	or	r11d, eax
	mov	eax, edi
	xor	eax, 16711935
	mov	r9d, r11d
	xor	r9d, eax
	and	r9d, r11d
	mov	rsi, qword ptr [rbp - 128] 
	mov	dword ptr [rsi], r9d
	mov	eax, dword ptr [rsi]
	mov	r8, qword ptr [rdx]
	mov	r9d, dword ptr [r8]
	mov	r10d, r9d
	xor	r10d, -1
	mov	r11d, eax
	and	r11d, r10d
	xor	eax, -1
	and	r9d, eax
	or	r11d, r9d
	mov	dword ptr [r8], r11d
	mov	r8, qword ptr [rcx]
	mov	eax, dword ptr [r8]
	mov	r9d, dword ptr [rsi]
	mov	r10d, eax
	xor	r10d, -1
	and	r10d, 3511521198
	xor	edi, 3511521198
	and	eax, edi
	mov	r11d, r9d
	xor	r11d, -1
	and	r11d, -783446098
	and	r9d, edi
	or	r10d, eax
	or	r11d, r9d
	xor	r10d, r11d
	mov	edi, r10d
	call	_ZN5Botan4rotlILm6EjEET0_S1_
	mov	edi, 4294967295
	mov	rcx, qword ptr [rbp - 112] 
	mov	rdx, qword ptr [rcx]
	mov	dword ptr [rdx], eax
	mov	rdx, qword ptr [rcx]
	mov	eax, dword ptr [rdx]
	mov	rdx, qword ptr [rbp - 120] 
	mov	rsi, qword ptr [rdx]
	mov	r9d, dword ptr [rsi]
	mov	r10d, eax
	xor	r10d, -1
	and	r10d, 3506984555
	mov	r11d, edi
	xor	r11d, 3506984555
	and	eax, r11d
	mov	ebx, r9d
	xor	ebx, -1
	and	ebx, -787982741
	and	r9d, r11d
	or	r10d, eax
	or	ebx, r9d
	xor	r10d, ebx
	xor	r10d, -1
	mov	eax, edi
	xor	eax, 858993459
	mov	r9d, edi
	xor	r9d, 1085231372
	or	r10d, eax
	or	r9d, 1085231372
	xor	r10d, -1
	and	r10d, r9d
	mov	rsi, qword ptr [rbp - 128] 
	mov	dword ptr [rsi], r10d
	mov	eax, dword ptr [rsi]
	mov	r8, qword ptr [rdx]
	mov	r9d, dword ptr [r8]
	mov	r10d, r9d
	xor	r10d, -1
	and	r10d, 1653822268
	mov	r11d, edi
	xor	r11d, 1653822268
	and	r9d, r11d
	mov	ebx, eax
	xor	ebx, -1
	and	ebx, 1653822268
	and	eax, r11d
	or	r10d, r9d
	or	ebx, eax
	xor	r10d, ebx
	mov	dword ptr [r8], r10d
	mov	r8, qword ptr [rcx]
	mov	eax, dword ptr [r8]
	mov	r9d, dword ptr [rsi]
	mov	r10d, eax
	xor	r10d, -1
	and	r10d, 3373051511
	xor	edi, 3373051511
	and	eax, edi
	mov	r11d, r9d
	xor	r11d, -1
	and	r11d, -921915785
	and	r9d, edi
	or	r10d, eax
	or	r11d, r9d
	xor	r10d, r11d
	mov	edi, r10d
	call	_ZN5Botan4rotlILm18EjEET0_S1_
	mov	edi, 4294967295
	mov	rcx, qword ptr [rbp - 112] 
	mov	rdx, qword ptr [rcx]
	mov	dword ptr [rdx], eax
	mov	rdx, qword ptr [rcx]
	mov	eax, dword ptr [rdx]
	mov	rdx, qword ptr [rbp - 120] 
	mov	rsi, qword ptr [rdx]
	mov	r9d, dword ptr [rsi]
	mov	r10d, eax
	xor	r10d, -1
	and	r10d, 1990476572
	mov	r11d, edi
	xor	r11d, 1990476572
	and	eax, r11d
	mov	ebx, r9d
	xor	ebx, -1
	and	ebx, 1990476572
	and	r9d, r11d
	or	r10d, eax
	or	ebx, r9d
	xor	r10d, ebx
	xor	r10d, -1
	mov	eax, edi
	xor	eax, 4294901760
	mov	r9d, edi
	xor	r9d, 708760690
	or	r10d, eax
	or	r9d, 708760690
	xor	r10d, -1
	and	r10d, r9d
	mov	rsi, qword ptr [rbp - 128] 
	mov	dword ptr [rsi], r10d
	mov	eax, dword ptr [rsi]
	mov	r8, qword ptr [rdx]
	mov	r9d, dword ptr [r8]
	mov	r10d, r9d
	xor	r10d, -1
	mov	r11d, eax
	and	r11d, r10d
	xor	eax, -1
	and	r9d, eax
	or	r11d, r9d
	mov	dword ptr [r8], r11d
	mov	r8, qword ptr [rcx]
	mov	eax, dword ptr [r8]
	mov	r9d, dword ptr [rsi]
	mov	r10d, eax
	xor	r10d, -1
	and	r10d, 739834265
	xor	edi, 739834265
	and	eax, edi
	mov	r11d, r9d
	xor	r11d, -1
	and	r11d, 739834265
	and	r9d, edi
	or	r10d, eax
	or	r11d, r9d
	xor	r10d, r11d
	mov	edi, r10d
	call	_ZN5Botan4rotlILm20EjEET0_S1_
	mov	edi, 4294967295
	mov	rcx, qword ptr [rbp - 112] 
	mov	rdx, qword ptr [rcx]
	mov	dword ptr [rdx], eax
	mov	rdx, qword ptr [rcx]
	mov	eax, dword ptr [rdx]
	mov	rdx, qword ptr [rbp - 120] 
	mov	rsi, qword ptr [rdx]
	mov	r9d, dword ptr [rsi]
	mov	r10d, eax
	xor	r10d, -1
	and	r10d, 938984452
	mov	r11d, edi
	xor	r11d, 938984452
	and	eax, r11d
	mov	ebx, r9d
	xor	ebx, -1
	and	ebx, 938984452
	and	r9d, r11d
	or	r10d, eax
	or	ebx, r9d
	xor	r10d, ebx
	xor	r10d, -1
	mov	eax, edi
	xor	eax, 4042322160
	mov	r9d, edi
	xor	r9d, 2918218855
	or	r10d, eax
	or	r9d, 2918218855
	xor	r10d, -1
	and	r10d, r9d
	mov	rsi, qword ptr [rbp - 128] 
	mov	dword ptr [rsi], r10d
	mov	eax, dword ptr [rsi]
	mov	r8, qword ptr [rdx]
	mov	r9d, dword ptr [r8]
	mov	r10d, r9d
	xor	r10d, -1
	and	r10d, 2654900894
	xor	edi, 2654900894
	and	r9d, edi
	mov	r11d, eax
	xor	r11d, -1
	and	r11d, -1640066402
	and	eax, edi
	or	r10d, r9d
	or	r11d, eax
	xor	r10d, r11d
	mov	dword ptr [r8], r10d
	mov	r8, qword ptr [rcx]
	mov	eax, dword ptr [r8]
	mov	edi, dword ptr [rsi]
	mov	r9d, eax
	xor	r9d, -1
	mov	r10d, edi
	and	r10d, r9d
	xor	edi, -1
	and	eax, edi
	or	r10d, eax
	mov	edi, r10d
	call	_ZN5Botan4rotrILm4EjEET0_S1_
	mov	rcx, qword ptr [rbp - 112] 
	mov	rdx, qword ptr [rcx]
	mov	dword ptr [rdx], eax
	mov	dword ptr [rbp - 40], -452465523
.LBB7_7:                                
	jmp	.LBB7_1
.Lfunc_end7:
	.size	_ZN5Botan12_GLOBAL__N_16des_FPERjS1_, .Lfunc_end7-_ZN5Botan12_GLOBAL__N_16des_FPERjS1_
	.cfi_endproc

	.section	.text._ZN5Botan8store_beIjEEvPhT_S2_S2_S2_,"axG",@progbits,_ZN5Botan8store_beIjEEvPhT_S2_S2_S2_,comdat
	.weak	_ZN5Botan8store_beIjEEvPhT_S2_S2_S2_ 
	.p2align	4, 0x90
	.type	_ZN5Botan8store_beIjEEvPhT_S2_S2_S2_,@function
_ZN5Botan8store_beIjEEvPhT_S2_S2_S2_:   
	.cfi_startproc

	push	rbp
.Lcfi30:
	.cfi_def_cfa_offset 16
.Lcfi31:
	.cfi_offset rbp, -16
	mov	rbp, rsp
.Lcfi32:
	.cfi_def_cfa_register rbp
	push	r15
	push	r14
	push	r13
	push	r12
	push	rbx
	sub	rsp, 120
.Lcfi33:
	.cfi_offset rbx, -56
.Lcfi34:
	.cfi_offset r12, -48
.Lcfi35:
	.cfi_offset r13, -40
.Lcfi36:
	.cfi_offset r14, -32
.Lcfi37:
	.cfi_offset r15, -24
	mov	eax, dword ptr [x.23]
	mov	r9d, dword ptr [y.24]
	mov	r10d, eax
	add	r10d, 85395345
	sub	r10d, 1
	sub	r10d, 85395345
	imul	eax, r10d
	and	eax, 1
	cmp	eax, 0
	sete	r11b
	and	r11b, 1
	mov	byte ptr [rbp - 42], r11b
	cmp	r9d, 10
	setl	r11b
	and	r11b, 1
	mov	byte ptr [rbp - 41], r11b
	mov	dword ptr [rbp - 48], -502216393
	mov	dword ptr [rbp - 52], ecx 
	mov	dword ptr [rbp - 56], edx 
	mov	dword ptr [rbp - 60], esi 
	mov	qword ptr [rbp - 72], rdi 
	mov	dword ptr [rbp - 76], r8d 
.LBB8_1:                                
	mov	eax, dword ptr [rbp - 48]
	mov	ecx, eax
	sub	ecx, -502216393
	mov	dword ptr [rbp - 80], eax 
	mov	dword ptr [rbp - 84], ecx 
	je	.LBB8_3
	jmp	.LBB8_8
.LBB8_8:                                
	mov	eax, dword ptr [rbp - 80] 
	sub	eax, 484398263
	mov	dword ptr [rbp - 88], eax 
	je	.LBB8_5
	jmp	.LBB8_9
.LBB8_9:                                
	mov	eax, dword ptr [rbp - 80] 
	sub	eax, 753573703
	mov	dword ptr [rbp - 92], eax 
	je	.LBB8_6
	jmp	.LBB8_10
.LBB8_10:                               
	mov	eax, dword ptr [rbp - 80] 
	sub	eax, 951534874
	mov	dword ptr [rbp - 96], eax 
	je	.LBB8_4
	jmp	.LBB8_2
.LBB8_2:                                
	jmp	.LBB8_7
.LBB8_3:                                
	mov	eax, 753573703
	mov	ecx, 951534874
	mov	dl, byte ptr [rbp - 42]
	mov	sil, byte ptr [rbp - 41]
	mov	dil, dl
	and	dil, sil
	xor	dl, sil
	or	dil, dl
	test	dil, 1
	cmovne	eax, ecx
	mov	dword ptr [rbp - 48], eax
	jmp	.LBB8_7
.LBB8_4:                                
	mov	rax, rsp
	add	rax, -16
	mov	rsp, rax
	mov	rcx, rsp
	add	rcx, -16
	mov	rsp, rcx
	mov	rdx, rsp
	add	rdx, -16
	mov	rsp, rdx
	mov	rsi, rsp
	add	rsi, -16
	mov	rsp, rsi
	mov	rdi, rsp
	add	rdi, -16
	mov	rsp, rdi
	mov	r8, qword ptr [rbp - 72] 
	mov	qword ptr [rax], r8
	mov	r9d, dword ptr [rbp - 60] 
	mov	dword ptr [rcx], r9d
	mov	r10d, dword ptr [rbp - 56] 
	mov	dword ptr [rdx], r10d
	mov	r11d, dword ptr [rbp - 52] 
	mov	dword ptr [rsi], r11d
	mov	ebx, dword ptr [rbp - 76] 
	mov	dword ptr [rdi], ebx
	mov	r14d, dword ptr [rcx]
	mov	rcx, qword ptr [rax]
	mov	qword ptr [rbp - 104], rdi 
	mov	edi, r14d
	mov	qword ptr [rbp - 112], rsi 
	mov	rsi, rcx
	mov	qword ptr [rbp - 120], rax 
	mov	qword ptr [rbp - 128], rdx 
	call	_ZN5Botan8store_beEjPh
	mov	rax, qword ptr [rbp - 128] 
	mov	edi, dword ptr [rax]
	mov	rcx, qword ptr [rbp - 120] 
	mov	rdx, qword ptr [rcx]
	add	rdx, 4
	mov	rsi, rdx
	call	_ZN5Botan8store_beEjPh
	mov	rax, qword ptr [rbp - 112] 
	mov	edi, dword ptr [rax]
	mov	rcx, qword ptr [rbp - 120] 
	mov	rdx, qword ptr [rcx]
	add	rdx, 8
	mov	rsi, rdx
	call	_ZN5Botan8store_beEjPh
	mov	rax, qword ptr [rbp - 104] 
	mov	edi, dword ptr [rax]
	mov	rcx, qword ptr [rbp - 120] 
	mov	rdx, qword ptr [rcx]
	add	rdx, 12
	mov	rsi, rdx
	call	_ZN5Botan8store_beEjPh
	mov	edi, 753573703
	mov	r9d, 484398263
	mov	r15b, 1
	xor	r10d, r10d
	mov	r11d, dword ptr [x.23]
	mov	ebx, dword ptr [y.24]
	sub	r10d, 1
	mov	r14d, r11d
	add	r14d, r10d
	imul	r11d, r14d
	and	r11d, 1
	cmp	r11d, 0
	sete	r12b
	cmp	ebx, 10
	setl	r13b
	mov	al, r12b
	xor	al, -1
	mov	cl, r13b
	xor	cl, -1
	xor	r15b, 0
	mov	dl, al
	and	dl, 0
	and	r12b, r15b
	mov	sil, cl
	and	sil, 0
	and	r13b, r15b
	or	dl, r12b
	or	sil, r13b
	xor	dl, sil
	or	al, cl
	xor	al, -1
	or	r15b, 0
	and	al, r15b
	or	dl, al
	test	dl, 1
	cmovne	edi, r9d
	mov	dword ptr [rbp - 48], edi
	jmp	.LBB8_7
.LBB8_5:
	lea	rsp, [rbp - 40]
	pop	rbx
	pop	r12
	pop	r13
	pop	r14
	pop	r15
	pop	rbp
	ret
.LBB8_6:                                
	mov	rax, rsp
	add	rax, -16
	mov	rsp, rax
	mov	rcx, rsp
	add	rcx, -16
	mov	rsp, rcx
	mov	rdx, rsp
	add	rdx, -16
	mov	rsp, rdx
	mov	rsi, rsp
	add	rsi, -16
	mov	rsp, rsi
	mov	rdi, rsp
	add	rdi, -16
	mov	rsp, rdi
	mov	r8, qword ptr [rbp - 72] 
	mov	qword ptr [rax], r8
	mov	r9d, dword ptr [rbp - 60] 
	mov	dword ptr [rcx], r9d
	mov	r10d, dword ptr [rbp - 56] 
	mov	dword ptr [rdx], r10d
	mov	r11d, dword ptr [rbp - 52] 
	mov	dword ptr [rsi], r11d
	mov	ebx, dword ptr [rbp - 76] 
	mov	dword ptr [rdi], ebx
	mov	r14d, dword ptr [rcx]
	mov	rcx, qword ptr [rax]
	mov	qword ptr [rbp - 136], rdi 
	mov	edi, r14d
	mov	qword ptr [rbp - 144], rsi 
	mov	rsi, rcx
	mov	qword ptr [rbp - 152], rax 
	mov	qword ptr [rbp - 160], rdx 
	call	_ZN5Botan8store_beEjPh
	mov	rax, qword ptr [rbp - 160] 
	mov	edi, dword ptr [rax]
	mov	rcx, qword ptr [rbp - 152] 
	mov	rdx, qword ptr [rcx]
	add	rdx, 4
	mov	rsi, rdx
	call	_ZN5Botan8store_beEjPh
	mov	rax, qword ptr [rbp - 144] 
	mov	edi, dword ptr [rax]
	mov	rcx, qword ptr [rbp - 152] 
	mov	rdx, qword ptr [rcx]
	add	rdx, 8
	mov	rsi, rdx
	call	_ZN5Botan8store_beEjPh
	mov	rax, qword ptr [rbp - 136] 
	mov	edi, dword ptr [rax]
	mov	rcx, qword ptr [rbp - 152] 
	mov	rdx, qword ptr [rcx]
	add	rdx, 12
	mov	rsi, rdx
	call	_ZN5Botan8store_beEjPh
	mov	dword ptr [rbp - 48], 951534874
.LBB8_7:                                
	jmp	.LBB8_1
.Lfunc_end8:
	.size	_ZN5Botan8store_beIjEEvPhT_S2_S2_S2_, .Lfunc_end8-_ZN5Botan8store_beIjEEvPhT_S2_S2_S2_
	.cfi_endproc

	.text
	.p2align	4, 0x90         
	.type	_ZN5Botan12_GLOBAL__N_111des_encryptERjS1_PKj,@function
_ZN5Botan12_GLOBAL__N_111des_encryptERjS1_PKj: 

	push	rbp
	mov	rbp, rsp
	push	r15
	push	r14
	push	r13
	push	r12
	push	rbx
	sub	rsp, 136
	mov	eax, dword ptr [x.25]
	mov	ecx, dword ptr [y.26]
	mov	r8d, eax
	add	r8d, 405079344
	sub	r8d, 1
	sub	r8d, 405079344
	imul	eax, r8d
	and	eax, 1
	cmp	eax, 0
	sete	r9b
	and	r9b, 1
	mov	byte ptr [rbp - 90], r9b
	cmp	ecx, 10
	setl	r9b
	and	r9b, 1
	mov	byte ptr [rbp - 89], r9b
	mov	dword ptr [rbp - 96], -1917167343
	mov	qword ptr [rbp - 104], rsi 
	mov	qword ptr [rbp - 112], rdi 
	mov	qword ptr [rbp - 120], rdx 
.LBB9_1:                                
	mov	eax, dword ptr [rbp - 96]
	mov	ecx, eax
	sub	ecx, -1917167343
	mov	dword ptr [rbp - 124], eax 
	mov	dword ptr [rbp - 128], ecx 
	je	.LBB9_3
	jmp	.LBB9_15
.LBB9_15:                               
	mov	eax, dword ptr [rbp - 124] 
	sub	eax, -1323822414
	mov	dword ptr [rbp - 132], eax 
	je	.LBB9_5
	jmp	.LBB9_16
.LBB9_16:                               
	mov	eax, dword ptr [rbp - 124] 
	sub	eax, -1167048102
	mov	dword ptr [rbp - 136], eax 
	je	.LBB9_10
	jmp	.LBB9_17
.LBB9_17:                               
	mov	eax, dword ptr [rbp - 124] 
	sub	eax, 99836654
	mov	dword ptr [rbp - 140], eax 
	je	.LBB9_7
	jmp	.LBB9_18
.LBB9_18:                               
	mov	eax, dword ptr [rbp - 124] 
	sub	eax, 448060708
	mov	dword ptr [rbp - 144], eax 
	je	.LBB9_6
	jmp	.LBB9_19
.LBB9_19:                               
	mov	eax, dword ptr [rbp - 124] 
	sub	eax, 530347583
	mov	dword ptr [rbp - 148], eax 
	je	.LBB9_11
	jmp	.LBB9_20
.LBB9_20:                               
	mov	eax, dword ptr [rbp - 124] 
	sub	eax, 777412022
	mov	dword ptr [rbp - 152], eax 
	je	.LBB9_4
	jmp	.LBB9_21
.LBB9_21:                               
	mov	eax, dword ptr [rbp - 124] 
	sub	eax, 1317615105
	mov	dword ptr [rbp - 156], eax 
	je	.LBB9_12
	jmp	.LBB9_22
.LBB9_22:                               
	mov	eax, dword ptr [rbp - 124] 
	sub	eax, 1499445623
	mov	dword ptr [rbp - 160], eax 
	je	.LBB9_8
	jmp	.LBB9_23
.LBB9_23:                               
	mov	eax, dword ptr [rbp - 124] 
	sub	eax, 1618603472
	mov	dword ptr [rbp - 164], eax 
	je	.LBB9_13
	jmp	.LBB9_24
.LBB9_24:                               
	mov	eax, dword ptr [rbp - 124] 
	sub	eax, 2050485392
	mov	dword ptr [rbp - 168], eax 
	je	.LBB9_9
	jmp	.LBB9_2
.LBB9_2:                                
	jmp	.LBB9_14
.LBB9_3:                                
	mov	eax, 1317615105
	mov	ecx, 777412022
	mov	dl, 1
	mov	sil, byte ptr [rbp - 90]
	mov	dil, byte ptr [rbp - 89]
	mov	r8b, sil
	xor	r8b, -1
	mov	r9b, dil
	xor	r9b, -1
	xor	dl, 1
	mov	r10b, r8b
	and	r10b, -1
	and	sil, dl
	mov	r11b, r9b
	and	r11b, -1
	and	dil, dl
	or	r10b, sil
	or	r11b, dil
	xor	r10b, r11b
	or	r8b, r9b
	xor	r8b, -1
	or	dl, 1
	and	r8b, dl
	or	r10b, r8b
	test	r10b, 1
	cmovne	eax, ecx
	mov	dword ptr [rbp - 96], eax
	jmp	.LBB9_14
.LBB9_4:                                
	mov	eax, 1317615105
	mov	ecx, 2971144882
	mov	dl, 1
	xor	esi, esi
	mov	rdi, rsp
	add	rdi, -16
	mov	rsp, rdi
	mov	qword ptr [rbp - 88], rdi
	mov	rdi, rsp
	add	rdi, -16
	mov	rsp, rdi
	mov	qword ptr [rbp - 80], rdi
	mov	rdi, rsp
	add	rdi, -16
	mov	rsp, rdi
	mov	qword ptr [rbp - 72], rdi
	mov	rdi, rsp
	add	rdi, -16
	mov	rsp, rdi
	mov	qword ptr [rbp - 64], rdi
	mov	rdi, rsp
	add	rdi, -16
	mov	rsp, rdi
	mov	qword ptr [rbp - 56], rdi
	mov	rdi, rsp
	add	rdi, -16
	mov	rsp, rdi
	mov	qword ptr [rbp - 48], rdi
	mov	rdi, qword ptr [rbp - 88]
	mov	r8, qword ptr [rbp - 112] 
	mov	qword ptr [rdi], r8
	mov	rdi, qword ptr [rbp - 80]
	mov	r9, qword ptr [rbp - 104] 
	mov	qword ptr [rdi], r9
	mov	rdi, qword ptr [rbp - 72]
	mov	r10, qword ptr [rbp - 120] 
	mov	qword ptr [rdi], r10
	mov	rdi, qword ptr [rbp - 88]
	mov	rdi, qword ptr [rdi]
	mov	r11d, dword ptr [rdi]
	mov	rdi, qword ptr [rbp - 64]
	mov	dword ptr [rdi], r11d
	mov	rdi, qword ptr [rbp - 80]
	mov	rdi, qword ptr [rdi]
	mov	r11d, dword ptr [rdi]
	mov	rdi, qword ptr [rbp - 56]
	mov	dword ptr [rdi], r11d
	mov	rdi, qword ptr [rbp - 48]
	mov	qword ptr [rdi], 0
	mov	r11d, dword ptr [x.25]
	mov	ebx, dword ptr [y.26]
	sub	esi, 1
	mov	r14d, r11d
	add	r14d, esi
	imul	r11d, r14d
	and	r11d, 1
	cmp	r11d, 0
	sete	r15b
	cmp	ebx, 10
	setl	r12b
	mov	r13b, r15b
	xor	r13b, -1
	mov	sil, r12b
	xor	sil, -1
	xor	dl, 1
	mov	dil, r13b
	and	dil, -1
	and	r15b, dl
	mov	r8b, sil
	and	r8b, -1
	and	r12b, dl
	or	dil, r15b
	or	r8b, r12b
	xor	dil, r8b
	or	r13b, sil
	xor	r13b, -1
	or	dl, 1
	and	r13b, dl
	or	dil, r13b
	test	dil, 1
	cmovne	eax, ecx
	mov	dword ptr [rbp - 96], eax
	jmp	.LBB9_14
.LBB9_5:                                
	mov	dword ptr [rbp - 96], 448060708
	jmp	.LBB9_14
.LBB9_6:                                
	mov	eax, 2050485392
	mov	ecx, 99836654
	mov	rdx, qword ptr [rbp - 48]
	cmp	qword ptr [rdx], 16
	cmovne	eax, ecx
	mov	dword ptr [rbp - 96], eax
	jmp	.LBB9_14
.LBB9_7:                                
	mov	rax, qword ptr [rbp - 56]
	mov	edi, dword ptr [rax]
	call	_ZN5Botan4rotrILm4EjEET0_S1_
	mov	edi, 4294967295
	movabs	rcx, -8393511016656469211
	mov	rdx, qword ptr [rbp - 72]
	mov	rdx, qword ptr [rdx]
	mov	rsi, qword ptr [rbp - 48]
	mov	rsi, qword ptr [rsi]
	shl	rsi, 1
	mov	r8d, dword ptr [rdx + 4*rsi]
	mov	r9d, eax
	xor	r9d, -1
	and	r9d, 2837975512
	mov	r10d, edi
	xor	r10d, 2837975512
	and	eax, r10d
	mov	r11d, r8d
	xor	r11d, -1
	and	r11d, -1456991784
	and	r8d, r10d
	or	r9d, eax
	or	r11d, r8d
	xor	r9d, r11d
	mov	rdx, qword ptr [rbp - 56]
	mov	eax, dword ptr [rdx]
	mov	rdx, qword ptr [rbp - 72]
	mov	rdx, qword ptr [rdx]
	mov	rsi, qword ptr [rbp - 48]
	mov	rsi, qword ptr [rsi]
	shl	rsi, 1
	sub	rsi, rcx
	add	rsi, 1
	add	rsi, rcx
	shl	rsi, 2
	add	rdx, rsi
	mov	r8d, dword ptr [rdx]
	mov	r10d, eax
	xor	r10d, -1
	and	r10d, 2385606609
	xor	edi, 2385606609
	and	eax, edi
	mov	r11d, r8d
	xor	r11d, -1
	and	r11d, -1909360687
	and	r8d, edi
	or	r10d, eax
	or	r11d, r8d
	xor	r10d, r11d
	mov	edi, r9d
	mov	esi, r10d
	call	_ZN5Botan12_GLOBAL__N_15spboxEjj
	mov	esi, 4294967295
	mov	rcx, qword ptr [rbp - 64]
	mov	edi, dword ptr [rcx]
	mov	r8d, edi
	xor	r8d, -1
	and	r8d, 1931321604
	xor	esi, 1931321604
	and	edi, esi
	mov	r9d, eax
	xor	r9d, -1
	and	r9d, 1931321604
	and	eax, esi
	or	r8d, edi
	or	r9d, eax
	xor	r8d, r9d
	mov	rcx, qword ptr [rbp - 64]
	mov	dword ptr [rcx], r8d
	mov	rcx, qword ptr [rbp - 64]
	mov	edi, dword ptr [rcx]
	call	_ZN5Botan4rotrILm4EjEET0_S1_
	xor	esi, esi
	mov	ecx, esi
	mov	rdx, qword ptr [rbp - 72]
	mov	rdx, qword ptr [rdx]
	mov	rbx, qword ptr [rbp - 48]
	mov	rbx, qword ptr [rbx]
	shl	rbx, 1
	mov	r14, rcx
	sub	r14, 2
	sub	rbx, r14
	mov	esi, dword ptr [rdx + 4*rbx]
	mov	edi, eax
	xor	edi, -1
	mov	r8d, esi
	and	r8d, edi
	xor	esi, -1
	and	eax, esi
	or	r8d, eax
	mov	rdx, qword ptr [rbp - 64]
	mov	eax, dword ptr [rdx]
	mov	rdx, qword ptr [rbp - 72]
	mov	rdx, qword ptr [rdx]
	mov	rbx, qword ptr [rbp - 48]
	mov	rbx, qword ptr [rbx]
	shl	rbx, 1
	mov	r14, rcx
	sub	r14, rbx
	mov	rbx, rcx
	sub	rbx, 3
	add	r14, rbx
	sub	rcx, r14
	mov	esi, dword ptr [rdx + 4*rcx]
	mov	edi, eax
	xor	edi, -1
	mov	r9d, esi
	and	r9d, edi
	xor	esi, -1
	and	eax, esi
	or	r9d, eax
	mov	edi, r8d
	mov	esi, r9d
	call	_ZN5Botan12_GLOBAL__N_15spboxEjj
	mov	esi, 4294967295
	mov	rcx, qword ptr [rbp - 56]
	mov	edi, dword ptr [rcx]
	mov	r8d, edi
	xor	r8d, -1
	and	r8d, 3890932907
	xor	esi, 3890932907
	and	edi, esi
	mov	r9d, eax
	xor	r9d, -1
	and	r9d, -404034389
	and	eax, esi
	or	r8d, edi
	or	r9d, eax
	xor	r8d, r9d
	mov	rcx, qword ptr [rbp - 56]
	mov	dword ptr [rcx], r8d
	mov	dword ptr [rbp - 96], 1499445623
	jmp	.LBB9_14
.LBB9_8:                                
	xor	eax, eax
	mov	ecx, eax
	mov	rdx, qword ptr [rbp - 48]
	mov	rdx, qword ptr [rdx]
	mov	rsi, rcx
	sub	rsi, rdx
	mov	rdx, rcx
	sub	rdx, 2
	add	rsi, rdx
	sub	rcx, rsi
	mov	rdx, qword ptr [rbp - 48]
	mov	qword ptr [rdx], rcx
	mov	dword ptr [rbp - 96], 448060708
	jmp	.LBB9_14
.LBB9_9:                                
	mov	eax, 1618603472
	mov	ecx, 3127919194
	xor	edx, edx
	mov	esi, dword ptr [x.25]
	mov	edi, dword ptr [y.26]
	sub	edx, 1
	mov	r8d, esi
	add	r8d, edx
	imul	esi, r8d
	and	esi, 1
	cmp	esi, 0
	sete	r9b
	cmp	edi, 10
	setl	r10b
	mov	r11b, r9b
	and	r11b, r10b
	xor	r9b, r10b
	or	r11b, r9b
	test	r11b, 1
	cmovne	eax, ecx
	mov	dword ptr [rbp - 96], eax
	jmp	.LBB9_14
.LBB9_10:                               
	mov	eax, 1618603472
	mov	ecx, 530347583
	mov	rdx, qword ptr [rbp - 64]
	mov	esi, dword ptr [rdx]
	mov	rdx, qword ptr [rbp - 88]
	mov	rdx, qword ptr [rdx]
	mov	dword ptr [rdx], esi
	mov	rdx, qword ptr [rbp - 56]
	mov	esi, dword ptr [rdx]
	mov	rdx, qword ptr [rbp - 80]
	mov	rdx, qword ptr [rdx]
	mov	dword ptr [rdx], esi
	mov	esi, dword ptr [x.25]
	mov	edi, dword ptr [y.26]
	mov	r8d, esi
	sub	r8d, 112424209
	sub	r8d, 1
	add	r8d, 112424209
	imul	esi, r8d
	and	esi, 1
	cmp	esi, 0
	sete	r9b
	cmp	edi, 10
	setl	r10b
	mov	r11b, r9b
	and	r11b, r10b
	xor	r9b, r10b
	or	r11b, r9b
	test	r11b, 1
	cmovne	eax, ecx
	mov	dword ptr [rbp - 96], eax
	jmp	.LBB9_14
.LBB9_11:
	lea	rsp, [rbp - 40]
	pop	rbx
	pop	r12
	pop	r13
	pop	r14
	pop	r15
	pop	rbp
	ret
.LBB9_12:                               
	mov	rax, rsp
	add	rax, -16
	mov	rsp, rax
	mov	rcx, rsp
	add	rcx, -16
	mov	rsp, rcx
	mov	rdx, rsp
	add	rdx, -16
	mov	rsp, rdx
	mov	rsi, rsp
	add	rsi, -16
	mov	rsp, rsi
	mov	rdi, rsp
	add	rdi, -16
	mov	rsp, rdi
	mov	r8, rsp
	add	r8, -16
	mov	rsp, r8
	mov	r9, qword ptr [rbp - 112] 
	mov	qword ptr [rax], r9
	mov	r10, qword ptr [rbp - 104] 
	mov	qword ptr [rcx], r10
	mov	r11, qword ptr [rbp - 120] 
	mov	qword ptr [rdx], r11
	mov	rax, qword ptr [rax]
	mov	ebx, dword ptr [rax]
	mov	dword ptr [rsi], ebx
	mov	rax, qword ptr [rcx]
	mov	ebx, dword ptr [rax]
	mov	dword ptr [rdi], ebx
	mov	qword ptr [r8], 0
	mov	dword ptr [rbp - 96], 777412022
	jmp	.LBB9_14
.LBB9_13:                               
	mov	rax, qword ptr [rbp - 64]
	mov	ecx, dword ptr [rax]
	mov	rax, qword ptr [rbp - 88]
	mov	rax, qword ptr [rax]
	mov	dword ptr [rax], ecx
	mov	rax, qword ptr [rbp - 56]
	mov	ecx, dword ptr [rax]
	mov	rax, qword ptr [rbp - 80]
	mov	rax, qword ptr [rax]
	mov	dword ptr [rax], ecx
	mov	dword ptr [rbp - 96], -1167048102
.LBB9_14:                               
	jmp	.LBB9_1
.Lfunc_end9:
	.size	_ZN5Botan12_GLOBAL__N_111des_encryptERjS1_PKj, .Lfunc_end9-_ZN5Botan12_GLOBAL__N_111des_encryptERjS1_PKj

	.section	.text._ZN5Botan8store_beIjEEvPhT_S2_,"axG",@progbits,_ZN5Botan8store_beIjEEvPhT_S2_,comdat
	.weak	_ZN5Botan8store_beIjEEvPhT_S2_ 
	.p2align	4, 0x90
	.type	_ZN5Botan8store_beIjEEvPhT_S2_,@function
_ZN5Botan8store_beIjEEvPhT_S2_:         
	.cfi_startproc

	push	rbp
.Lcfi38:
	.cfi_def_cfa_offset 16
.Lcfi39:
	.cfi_offset rbp, -16
	mov	rbp, rsp
.Lcfi40:
	.cfi_def_cfa_register rbp
	push	r15
	push	r14
	push	rbx
	sub	rsp, 88
.Lcfi41:
	.cfi_offset rbx, -40
.Lcfi42:
	.cfi_offset r14, -32
.Lcfi43:
	.cfi_offset r15, -24
	mov	eax, dword ptr [x.27]
	mov	ecx, dword ptr [y.28]
	mov	r8d, eax
	add	r8d, 1029157762
	sub	r8d, 1
	sub	r8d, 1029157762
	imul	eax, r8d
	and	eax, 1
	cmp	eax, 0
	sete	r9b
	and	r9b, 1
	mov	byte ptr [rbp - 26], r9b
	cmp	ecx, 10
	setl	r9b
	and	r9b, 1
	mov	byte ptr [rbp - 25], r9b
	mov	dword ptr [rbp - 32], -736933589
	mov	dword ptr [rbp - 36], esi 
	mov	qword ptr [rbp - 48], rdi 
	mov	dword ptr [rbp - 52], edx 
.LBB10_1:                               
	mov	eax, dword ptr [rbp - 32]
	mov	ecx, eax
	sub	ecx, -736933589
	mov	dword ptr [rbp - 56], eax 
	mov	dword ptr [rbp - 60], ecx 
	je	.LBB10_3
	jmp	.LBB10_8
.LBB10_8:                               
	mov	eax, dword ptr [rbp - 56] 
	sub	eax, 64346501
	mov	dword ptr [rbp - 64], eax 
	je	.LBB10_6
	jmp	.LBB10_9
.LBB10_9:                               
	mov	eax, dword ptr [rbp - 56] 
	sub	eax, 1047681448
	mov	dword ptr [rbp - 68], eax 
	je	.LBB10_4
	jmp	.LBB10_10
.LBB10_10:                              
	mov	eax, dword ptr [rbp - 56] 
	sub	eax, 1786556422
	mov	dword ptr [rbp - 72], eax 
	je	.LBB10_5
	jmp	.LBB10_2
.LBB10_2:                               
	jmp	.LBB10_7
.LBB10_3:                               
	mov	eax, 64346501
	mov	ecx, 1047681448
	mov	dl, byte ptr [rbp - 26]
	mov	sil, byte ptr [rbp - 25]
	mov	dil, dl
	and	dil, sil
	xor	dl, sil
	or	dil, dl
	test	dil, 1
	cmovne	eax, ecx
	mov	dword ptr [rbp - 32], eax
	jmp	.LBB10_7
.LBB10_4:                               
	mov	rax, rsp
	add	rax, -16
	mov	rsp, rax
	mov	rcx, rsp
	add	rcx, -16
	mov	rsp, rcx
	mov	rdx, rsp
	add	rdx, -16
	mov	rsp, rdx
	mov	rsi, qword ptr [rbp - 48] 
	mov	qword ptr [rax], rsi
	mov	edi, dword ptr [rbp - 36] 
	mov	dword ptr [rcx], edi
	mov	r8d, dword ptr [rbp - 52] 
	mov	dword ptr [rdx], r8d
	mov	edi, dword ptr [rcx]
	mov	rsi, qword ptr [rax]
	mov	qword ptr [rbp - 80], rax 
	mov	qword ptr [rbp - 88], rdx 
	call	_ZN5Botan8store_beEjPh
	mov	rax, qword ptr [rbp - 88] 
	mov	edi, dword ptr [rax]
	mov	rcx, qword ptr [rbp - 80] 
	mov	rdx, qword ptr [rcx]
	add	rdx, 4
	mov	rsi, rdx
	call	_ZN5Botan8store_beEjPh
	mov	edi, 64346501
	mov	r8d, 1786556422
	mov	r9d, dword ptr [x.27]
	mov	r10d, dword ptr [y.28]
	mov	r11d, r9d
	add	r11d, 391541030
	sub	r11d, 1
	sub	r11d, 391541030
	imul	r9d, r11d
	and	r9d, 1
	cmp	r9d, 0
	sete	bl
	cmp	r10d, 10
	setl	r14b
	mov	r15b, bl
	and	r15b, r14b
	xor	bl, r14b
	or	r15b, bl
	test	r15b, 1
	cmovne	edi, r8d
	mov	dword ptr [rbp - 32], edi
	jmp	.LBB10_7
.LBB10_5:
	lea	rsp, [rbp - 24]
	pop	rbx
	pop	r14
	pop	r15
	pop	rbp
	ret
.LBB10_6:                               
	mov	rax, rsp
	add	rax, -16
	mov	rsp, rax
	mov	rcx, rsp
	add	rcx, -16
	mov	rsp, rcx
	mov	rdx, rsp
	add	rdx, -16
	mov	rsp, rdx
	mov	rsi, qword ptr [rbp - 48] 
	mov	qword ptr [rax], rsi
	mov	edi, dword ptr [rbp - 36] 
	mov	dword ptr [rcx], edi
	mov	r8d, dword ptr [rbp - 52] 
	mov	dword ptr [rdx], r8d
	mov	edi, dword ptr [rcx]
	mov	rsi, qword ptr [rax]
	mov	qword ptr [rbp - 96], rax 
	mov	qword ptr [rbp - 104], rdx 
	call	_ZN5Botan8store_beEjPh
	mov	rax, qword ptr [rbp - 104] 
	mov	edi, dword ptr [rax]
	mov	rcx, qword ptr [rbp - 96] 
	mov	rdx, qword ptr [rcx]
	add	rdx, 4
	mov	rsi, rdx
	call	_ZN5Botan8store_beEjPh
	mov	dword ptr [rbp - 32], 1047681448
.LBB10_7:                               
	jmp	.LBB10_1
.Lfunc_end10:
	.size	_ZN5Botan8store_beIjEEvPhT_S2_, .Lfunc_end10-_ZN5Botan8store_beIjEEvPhT_S2_
	.cfi_endproc

	.text
	.globl	_ZNK5Botan3DES9decrypt_nEPKhPhm 
	.p2align	4, 0x90
	.type	_ZNK5Botan3DES9decrypt_nEPKhPhm,@function
_ZNK5Botan3DES9decrypt_nEPKhPhm:        
	.cfi_startproc

	push	rbp
.Lcfi44:
	.cfi_def_cfa_offset 16
.Lcfi45:
	.cfi_offset rbp, -16
	mov	rbp, rsp
.Lcfi46:
	.cfi_def_cfa_register rbp
	push	r15
	push	r14
	push	r12
	push	rbx
	sub	rsp, 240
.Lcfi47:
	.cfi_offset rbx, -48
.Lcfi48:
	.cfi_offset r12, -40
.Lcfi49:
	.cfi_offset r14, -32
.Lcfi50:
	.cfi_offset r15, -24
	xor	eax, eax
	mov	r8d, dword ptr [x.29]
	mov	r9d, dword ptr [y.30]
	sub	eax, 1
	mov	r10d, r8d
	add	r10d, eax
	imul	r8d, r10d
	and	r8d, 1
	cmp	r8d, 0
	sete	r11b
	and	r11b, 1
	mov	byte ptr [rbp - 122], r11b
	cmp	r9d, 10
	setl	r11b
	and	r11b, 1
	mov	byte ptr [rbp - 121], r11b
	mov	dword ptr [rbp - 128], 575579867
	mov	qword ptr [rbp - 136], rdx 
	mov	qword ptr [rbp - 144], rsi 
	mov	qword ptr [rbp - 152], rdi 
	mov	qword ptr [rbp - 160], rcx 
.LBB11_1:                               
	mov	eax, dword ptr [rbp - 128]
	mov	ecx, eax
	sub	ecx, -2057624942
	mov	dword ptr [rbp - 164], eax 
	mov	dword ptr [rbp - 168], ecx 
	je	.LBB11_16
	jmp	.LBB11_20
.LBB11_20:                              
	mov	eax, dword ptr [rbp - 164] 
	sub	eax, -1966575277
	mov	dword ptr [rbp - 172], eax 
	je	.LBB11_11
	jmp	.LBB11_21
.LBB11_21:                              
	mov	eax, dword ptr [rbp - 164] 
	sub	eax, -1839628867
	mov	dword ptr [rbp - 176], eax 
	je	.LBB11_9
	jmp	.LBB11_22
.LBB11_22:                              
	mov	eax, dword ptr [rbp - 164] 
	sub	eax, -1762322936
	mov	dword ptr [rbp - 180], eax 
	je	.LBB11_14
	jmp	.LBB11_23
.LBB11_23:                              
	mov	eax, dword ptr [rbp - 164] 
	sub	eax, -1664181853
	mov	dword ptr [rbp - 184], eax 
	je	.LBB11_13
	jmp	.LBB11_24
.LBB11_24:                              
	mov	eax, dword ptr [rbp - 164] 
	sub	eax, -982679637
	mov	dword ptr [rbp - 188], eax 
	je	.LBB11_18
	jmp	.LBB11_25
.LBB11_25:                              
	mov	eax, dword ptr [rbp - 164] 
	sub	eax, -864678017
	mov	dword ptr [rbp - 192], eax 
	je	.LBB11_8
	jmp	.LBB11_26
.LBB11_26:                              
	mov	eax, dword ptr [rbp - 164] 
	sub	eax, 268646005
	mov	dword ptr [rbp - 196], eax 
	je	.LBB11_5
	jmp	.LBB11_27
.LBB11_27:                              
	mov	eax, dword ptr [rbp - 164] 
	sub	eax, 575579867
	mov	dword ptr [rbp - 200], eax 
	je	.LBB11_3
	jmp	.LBB11_28
.LBB11_28:                              
	mov	eax, dword ptr [rbp - 164] 
	sub	eax, 663587494
	mov	dword ptr [rbp - 204], eax 
	je	.LBB11_7
	jmp	.LBB11_29
.LBB11_29:                              
	mov	eax, dword ptr [rbp - 164] 
	sub	eax, 1108335505
	mov	dword ptr [rbp - 208], eax 
	je	.LBB11_4
	jmp	.LBB11_30
.LBB11_30:                              
	mov	eax, dword ptr [rbp - 164] 
	sub	eax, 1131126784
	mov	dword ptr [rbp - 212], eax 
	je	.LBB11_17
	jmp	.LBB11_31
.LBB11_31:                              
	mov	eax, dword ptr [rbp - 164] 
	sub	eax, 1332738615
	mov	dword ptr [rbp - 216], eax 
	je	.LBB11_15
	jmp	.LBB11_32
.LBB11_32:                              
	mov	eax, dword ptr [rbp - 164] 
	sub	eax, 1575299407
	mov	dword ptr [rbp - 220], eax 
	je	.LBB11_10
	jmp	.LBB11_33
.LBB11_33:                              
	mov	eax, dword ptr [rbp - 164] 
	sub	eax, 1746596872
	mov	dword ptr [rbp - 224], eax 
	je	.LBB11_12
	jmp	.LBB11_34
.LBB11_34:                              
	mov	eax, dword ptr [rbp - 164] 
	sub	eax, 2140949477
	mov	dword ptr [rbp - 228], eax 
	je	.LBB11_6
	jmp	.LBB11_2
.LBB11_2:                               
	jmp	.LBB11_19
.LBB11_3:                               
	mov	eax, 2237342354
	mov	ecx, 1108335505
	mov	dl, byte ptr [rbp - 122]
	mov	sil, byte ptr [rbp - 121]
	mov	dil, dl
	and	dil, sil
	xor	dl, sil
	or	dil, dl
	test	dil, 1
	cmovne	eax, ecx
	mov	dword ptr [rbp - 128], eax
	jmp	.LBB11_19
.LBB11_4:                               
	mov	rax, rsp
	add	rax, -16
	mov	rsp, rax
	mov	rcx, rsp
	add	rcx, -16
	mov	rsp, rcx
	mov	qword ptr [rbp - 120], rcx
	mov	rcx, rsp
	add	rcx, -16
	mov	rsp, rcx
	mov	qword ptr [rbp - 112], rcx
	mov	rcx, rsp
	add	rcx, -16
	mov	rsp, rcx
	mov	qword ptr [rbp - 104], rcx
	mov	rcx, rsp
	add	rcx, -16
	mov	rsp, rcx
	mov	qword ptr [rbp - 96], rcx
	mov	rcx, rsp
	add	rcx, -16
	mov	rsp, rcx
	mov	qword ptr [rbp - 88], rcx
	mov	rcx, rsp
	add	rcx, -16
	mov	rsp, rcx
	mov	qword ptr [rbp - 80], rcx
	mov	rcx, rsp
	add	rcx, -16
	mov	rsp, rcx
	mov	qword ptr [rbp - 72], rcx
	mov	rcx, rsp
	add	rcx, -16
	mov	rsp, rcx
	mov	qword ptr [rbp - 64], rcx
	mov	rcx, rsp
	add	rcx, -16
	mov	rsp, rcx
	mov	qword ptr [rbp - 56], rcx
	mov	rcx, qword ptr [rbp - 152] 
	mov	qword ptr [rax], rcx
	mov	rdx, qword ptr [rbp - 120]
	mov	rsi, qword ptr [rbp - 144] 
	mov	qword ptr [rdx], rsi
	mov	rdx, qword ptr [rbp - 112]
	mov	rdi, qword ptr [rbp - 136] 
	mov	qword ptr [rdx], rdi
	mov	rdx, qword ptr [rbp - 104]
	mov	r8, qword ptr [rbp - 160] 
	mov	qword ptr [rdx], r8
	mov	rax, qword ptr [rax]
	mov	qword ptr [rbp - 48], rax
	mov	rax, qword ptr [rbp - 48]
	mov	rdx, qword ptr [rbp - 48]
	add	rdx, 8
	mov	rdi, rdx
	mov	qword ptr [rbp - 240], rax 
	call	_ZNKSt6vectorIjN5Botan16secure_allocatorIjEEE5emptyEv
	and	al, 1
	movzx	r9d, al
	cmp	r9d, 0
	sete	al
	and	al, 1
	movzx	esi, al
	mov	rdi, qword ptr [rbp - 240] 
	call	_ZNK5Botan18SymmetricAlgorithm14verify_key_setEb
	mov	esi, 2237342354
	mov	r9d, 268646005
	mov	r10d, dword ptr [x.29]
	mov	r11d, dword ptr [y.30]
	mov	ebx, r10d
	sub	ebx, 824755166
	sub	ebx, 1
	add	ebx, 824755166
	imul	r10d, ebx
	and	r10d, 1
	cmp	r10d, 0
	sete	al
	cmp	r11d, 10
	setl	r14b
	mov	r15b, al
	and	r15b, r14b
	xor	al, r14b
	or	r15b, al
	test	r15b, 1
	cmovne	esi, r9d
	mov	dword ptr [rbp - 128], esi
	jmp	.LBB11_19
.LBB11_5:                               
	mov	dword ptr [rbp - 128], 2140949477
	jmp	.LBB11_19
.LBB11_6:                               
	mov	eax, 1131126784
	mov	ecx, 663587494
	mov	dl, 1
	mov	esi, dword ptr [x.29]
	mov	edi, dword ptr [y.30]
	mov	r8d, esi
	sub	r8d, 1853949788
	sub	r8d, 1
	add	r8d, 1853949788
	imul	esi, r8d
	and	esi, 1
	cmp	esi, 0
	sete	r9b
	cmp	edi, 10
	setl	r10b
	mov	r11b, r9b
	xor	r11b, -1
	mov	bl, r10b
	xor	bl, -1
	xor	dl, 1
	mov	r14b, r11b
	and	r14b, -1
	and	r9b, dl
	mov	r15b, bl
	and	r15b, -1
	and	r10b, dl
	or	r14b, r9b
	or	r15b, r10b
	xor	r14b, r15b
	or	r11b, bl
	xor	r11b, -1
	or	dl, 1
	and	r11b, dl
	or	r14b, r11b
	test	r14b, 1
	cmovne	eax, ecx
	mov	dword ptr [rbp - 128], eax
	jmp	.LBB11_19
.LBB11_7:                               
	mov	eax, 1131126784
	mov	ecx, 3430289279
	mov	dl, 1
	mov	rsi, qword ptr [rbp - 104]
	cmp	qword ptr [rsi], 2
	setae	dil
	and	dil, 1
	mov	byte ptr [rbp - 34], dil
	mov	r8d, dword ptr [x.29]
	mov	r9d, dword ptr [y.30]
	mov	r10d, r8d
	add	r10d, 1268103110
	sub	r10d, 1
	sub	r10d, 1268103110
	imul	r8d, r10d
	and	r8d, 1
	cmp	r8d, 0
	sete	dil
	cmp	r9d, 10
	setl	r11b
	mov	bl, dil
	xor	bl, -1
	mov	r14b, r11b
	xor	r14b, -1
	xor	dl, 1
	mov	r15b, bl
	and	r15b, -1
	and	dil, dl
	mov	r12b, r14b
	and	r12b, -1
	and	r11b, dl
	or	r15b, dil
	or	r12b, r11b
	xor	r15b, r12b
	or	bl, r14b
	xor	bl, -1
	or	dl, 1
	and	bl, dl
	or	r15b, bl
	test	r15b, 1
	cmovne	eax, ecx
	mov	dword ptr [rbp - 128], eax
	jmp	.LBB11_19
.LBB11_8:                               
	mov	eax, 1575299407
	mov	ecx, 2455338429
	mov	dl, byte ptr [rbp - 34]
	test	dl, 1
	cmovne	eax, ecx
	mov	dword ptr [rbp - 128], eax
	jmp	.LBB11_19
.LBB11_9:                               
	xor	eax, eax
	mov	esi, eax
	mov	rcx, qword ptr [rbp - 120]
	mov	rdi, qword ptr [rcx]
	call	_ZN5Botan7load_beIjEET_PKhm
	mov	edx, 1
	mov	esi, edx
	mov	rcx, qword ptr [rbp - 96]
	mov	dword ptr [rcx], eax
	mov	rcx, qword ptr [rbp - 120]
	mov	rdi, qword ptr [rcx]
	call	_ZN5Botan7load_beIjEET_PKhm
	mov	edx, 2
	mov	esi, edx
	mov	rcx, qword ptr [rbp - 88]
	mov	dword ptr [rcx], eax
	mov	rcx, qword ptr [rbp - 120]
	mov	rdi, qword ptr [rcx]
	call	_ZN5Botan7load_beIjEET_PKhm
	mov	edx, 3
	mov	esi, edx
	mov	rcx, qword ptr [rbp - 80]
	mov	dword ptr [rcx], eax
	mov	rcx, qword ptr [rbp - 120]
	mov	rdi, qword ptr [rcx]
	call	_ZN5Botan7load_beIjEET_PKhm
	mov	rcx, qword ptr [rbp - 72]
	mov	dword ptr [rcx], eax
	mov	rdi, qword ptr [rbp - 96]
	mov	rsi, qword ptr [rbp - 88]
	call	_ZN5Botan12_GLOBAL__N_16des_IPERjS1_
	mov	rdi, qword ptr [rbp - 80]
	mov	rsi, qword ptr [rbp - 72]
	call	_ZN5Botan12_GLOBAL__N_16des_IPERjS1_
	mov	rcx, qword ptr [rbp - 48]
	add	rcx, 8
	mov	rdi, rcx
	call	_ZNKSt6vectorIjN5Botan16secure_allocatorIjEEE4dataEv
	mov	rdi, qword ptr [rbp - 96]
	mov	rsi, qword ptr [rbp - 88]
	mov	rdx, qword ptr [rbp - 80]
	mov	rcx, qword ptr [rbp - 72]
	mov	r8, rax
	call	_ZN5Botan12_GLOBAL__N_114des_decrypt_x2ERjS1_S1_S1_PKj
	mov	rdi, qword ptr [rbp - 96]
	mov	rsi, qword ptr [rbp - 88]
	call	_ZN5Botan12_GLOBAL__N_16des_FPERjS1_
	mov	rdi, qword ptr [rbp - 80]
	mov	rsi, qword ptr [rbp - 72]
	call	_ZN5Botan12_GLOBAL__N_16des_FPERjS1_
	mov	rax, qword ptr [rbp - 112]
	mov	rdi, qword ptr [rax]
	mov	rax, qword ptr [rbp - 88]
	mov	esi, dword ptr [rax]
	mov	rax, qword ptr [rbp - 96]
	mov	edx, dword ptr [rax]
	mov	rax, qword ptr [rbp - 72]
	mov	ecx, dword ptr [rax]
	mov	rax, qword ptr [rbp - 80]
	mov	r8d, dword ptr [rax]
	call	_ZN5Botan8store_beIjEEvPhT_S2_S2_S2_
	xor	ecx, ecx
	mov	eax, ecx
	mov	rdi, qword ptr [rbp - 120]
	mov	rdi, qword ptr [rdi]
	add	rdi, 16
	mov	r9, qword ptr [rbp - 120]
	mov	qword ptr [r9], rdi
	mov	rdi, qword ptr [rbp - 112]
	mov	rdi, qword ptr [rdi]
	add	rdi, 16
	mov	r9, qword ptr [rbp - 112]
	mov	qword ptr [r9], rdi
	mov	rdi, qword ptr [rbp - 104]
	mov	rdi, qword ptr [rdi]
	sub	rax, 2
	add	rdi, rax
	mov	rax, qword ptr [rbp - 104]
	mov	qword ptr [rax], rdi
	mov	dword ptr [rbp - 128], 2140949477
	jmp	.LBB11_19
.LBB11_10:                              
	mov	dword ptr [rbp - 128], -1966575277
	jmp	.LBB11_19
.LBB11_11:                              
	mov	eax, 3312287659
	mov	ecx, 1746596872
	xor	edx, edx
	mov	esi, dword ptr [x.29]
	mov	edi, dword ptr [y.30]
	sub	edx, 1
	mov	r8d, esi
	add	r8d, edx
	imul	esi, r8d
	and	esi, 1
	cmp	esi, 0
	sete	r9b
	cmp	edi, 10
	setl	r10b
	mov	r11b, r9b
	and	r11b, r10b
	xor	r9b, r10b
	or	r11b, r9b
	test	r11b, 1
	cmovne	eax, ecx
	mov	dword ptr [rbp - 128], eax
	jmp	.LBB11_19
.LBB11_12:                              
	mov	eax, 3312287659
	mov	ecx, 2630785443
	mov	dl, 1
	mov	rsi, qword ptr [rbp - 104]
	cmp	qword ptr [rsi], 0
	seta	dil
	and	dil, 1
	mov	byte ptr [rbp - 33], dil
	mov	r8d, dword ptr [x.29]
	mov	r9d, dword ptr [y.30]
	mov	r10d, r8d
	sub	r10d, -2055396648
	sub	r10d, 1
	add	r10d, -2055396648
	imul	r8d, r10d
	and	r8d, 1
	cmp	r8d, 0
	sete	dil
	cmp	r9d, 10
	setl	r11b
	mov	bl, dil
	xor	bl, -1
	mov	r14b, r11b
	xor	r14b, -1
	xor	dl, 1
	mov	r15b, bl
	and	r15b, -1
	and	dil, dl
	mov	r12b, r14b
	and	r12b, -1
	and	r11b, dl
	or	r15b, dil
	or	r12b, r11b
	xor	r15b, r12b
	or	bl, r14b
	xor	bl, -1
	or	dl, 1
	and	bl, dl
	or	r15b, bl
	test	r15b, 1
	cmovne	eax, ecx
	mov	dword ptr [rbp - 128], eax
	jmp	.LBB11_19
.LBB11_13:                              
	mov	eax, 1332738615
	mov	ecx, 2532644360
	mov	dl, byte ptr [rbp - 33]
	test	dl, 1
	cmovne	eax, ecx
	mov	dword ptr [rbp - 128], eax
	jmp	.LBB11_19
.LBB11_14:                              
	xor	eax, eax
	mov	esi, eax
	mov	rcx, qword ptr [rbp - 120]
	mov	rdi, qword ptr [rcx]
	call	_ZN5Botan7load_beIjEET_PKhm
	mov	edx, 1
	mov	esi, edx
	mov	rcx, qword ptr [rbp - 64]
	mov	dword ptr [rcx], eax
	mov	rcx, qword ptr [rbp - 120]
	mov	rdi, qword ptr [rcx]
	call	_ZN5Botan7load_beIjEET_PKhm
	mov	rcx, qword ptr [rbp - 56]
	mov	dword ptr [rcx], eax
	mov	rdi, qword ptr [rbp - 64]
	mov	rsi, qword ptr [rbp - 56]
	call	_ZN5Botan12_GLOBAL__N_16des_IPERjS1_
	mov	rcx, qword ptr [rbp - 48]
	add	rcx, 8
	mov	rdi, rcx
	call	_ZNKSt6vectorIjN5Botan16secure_allocatorIjEEE4dataEv
	mov	rdi, qword ptr [rbp - 64]
	mov	rsi, qword ptr [rbp - 56]
	mov	rdx, rax
	call	_ZN5Botan12_GLOBAL__N_111des_decryptERjS1_PKj
	mov	rdi, qword ptr [rbp - 64]
	mov	rsi, qword ptr [rbp - 56]
	call	_ZN5Botan12_GLOBAL__N_16des_FPERjS1_
	mov	rax, qword ptr [rbp - 112]
	mov	rdi, qword ptr [rax]
	mov	rax, qword ptr [rbp - 56]
	mov	esi, dword ptr [rax]
	mov	rax, qword ptr [rbp - 64]
	mov	edx, dword ptr [rax]
	call	_ZN5Botan8store_beIjEEvPhT_S2_
	movabs	rax, 6962023272659477839
	mov	rcx, qword ptr [rbp - 120]
	mov	rcx, qword ptr [rcx]
	add	rcx, 8
	mov	rdi, qword ptr [rbp - 120]
	mov	qword ptr [rdi], rcx
	mov	rcx, qword ptr [rbp - 112]
	mov	rcx, qword ptr [rcx]
	add	rcx, 8
	mov	rdi, qword ptr [rbp - 112]
	mov	qword ptr [rdi], rcx
	mov	rcx, qword ptr [rbp - 104]
	mov	rcx, qword ptr [rcx]
	add	rcx, rax
	sub	rcx, 1
	sub	rcx, rax
	mov	rax, qword ptr [rbp - 104]
	mov	qword ptr [rax], rcx
	mov	dword ptr [rbp - 128], -1966575277
	jmp	.LBB11_19
.LBB11_15:
	lea	rsp, [rbp - 32]
	pop	rbx
	pop	r12
	pop	r14
	pop	r15
	pop	rbp
	ret
.LBB11_16:                              
	mov	rax, rsp
	add	rax, -16
	mov	rsp, rax
	mov	rcx, rsp
	add	rcx, -16
	mov	rsp, rcx
	mov	rdx, rsp
	add	rdx, -16
	mov	rsp, rdx
	mov	rsi, rsp
	add	rsi, -16
	mov	rsp, rsi
	mov	rdi, qword ptr [rbp - 152] 
	mov	qword ptr [rax], rdi
	mov	r8, qword ptr [rbp - 144] 
	mov	qword ptr [rcx], r8
	mov	rcx, qword ptr [rbp - 136] 
	mov	qword ptr [rdx], rcx
	mov	rdx, qword ptr [rbp - 160] 
	mov	qword ptr [rsi], rdx
	mov	rax, qword ptr [rax]
	mov	rsi, rax
	add	rax, 8
	mov	rdi, rax
	mov	qword ptr [rbp - 248], rsi 
	call	_ZNKSt6vectorIjN5Botan16secure_allocatorIjEEE5emptyEv
	and	al, 1
	movzx	r9d, al
	cmp	r9d, 0
	sete	al
	and	al, 1
	movzx	esi, al
	mov	rdi, qword ptr [rbp - 248] 
	call	_ZNK5Botan18SymmetricAlgorithm14verify_key_setEb
	mov	dword ptr [rbp - 128], 1108335505
	jmp	.LBB11_19
.LBB11_17:                              
	mov	rax, qword ptr [rbp - 104]
	mov	dword ptr [rbp - 128], 663587494
	mov	qword ptr [rbp - 256], rax 
	jmp	.LBB11_19
.LBB11_18:                              
	mov	rax, qword ptr [rbp - 104]
	mov	dword ptr [rbp - 128], 1746596872
	mov	qword ptr [rbp - 264], rax 
.LBB11_19:                              
	jmp	.LBB11_1
.Lfunc_end11:
	.size	_ZNK5Botan3DES9decrypt_nEPKhPhm, .Lfunc_end11-_ZNK5Botan3DES9decrypt_nEPKhPhm
	.cfi_endproc

	.p2align	4, 0x90         
	.type	_ZN5Botan12_GLOBAL__N_114des_decrypt_x2ERjS1_S1_S1_PKj,@function
_ZN5Botan12_GLOBAL__N_114des_decrypt_x2ERjS1_S1_S1_PKj: 

	push	rbp
	mov	rbp, rsp
	push	r15
	push	r14
	push	r13
	push	r12
	push	rbx
	sub	rsp, 200
	xor	eax, eax
	mov	r9d, dword ptr [x.31]
	mov	r10d, dword ptr [y.32]
	sub	eax, 1
	mov	r11d, r9d
	add	r11d, eax
	imul	r9d, r11d
	and	r9d, 1
	cmp	r9d, 0
	sete	bl
	and	bl, 1
	mov	byte ptr [rbp - 122], bl
	cmp	r10d, 10
	setl	bl
	and	bl, 1
	mov	byte ptr [rbp - 121], bl
	mov	dword ptr [rbp - 128], 2135730799
	mov	qword ptr [rbp - 136], rcx 
	mov	qword ptr [rbp - 144], rdx 
	mov	qword ptr [rbp - 152], rsi 
	mov	qword ptr [rbp - 160], rdi 
	mov	qword ptr [rbp - 168], r8 
.LBB12_1:                               
	mov	eax, dword ptr [rbp - 128]
	mov	ecx, eax
	sub	ecx, -2122311994
	mov	dword ptr [rbp - 172], eax 
	mov	dword ptr [rbp - 176], ecx 
	je	.LBB12_9
	jmp	.LBB12_18
.LBB12_18:                              
	mov	eax, dword ptr [rbp - 172] 
	sub	eax, -1694799236
	mov	dword ptr [rbp - 180], eax 
	je	.LBB12_16
	jmp	.LBB12_19
.LBB12_19:                              
	mov	eax, dword ptr [rbp - 172] 
	sub	eax, -1515695189
	mov	dword ptr [rbp - 184], eax 
	je	.LBB12_14
	jmp	.LBB12_20
.LBB12_20:                              
	mov	eax, dword ptr [rbp - 172] 
	sub	eax, -1442849984
	mov	dword ptr [rbp - 188], eax 
	je	.LBB12_8
	jmp	.LBB12_21
.LBB12_21:                              
	mov	eax, dword ptr [rbp - 172] 
	sub	eax, -1209708936
	mov	dword ptr [rbp - 192], eax 
	je	.LBB12_10
	jmp	.LBB12_22
.LBB12_22:                              
	mov	eax, dword ptr [rbp - 172] 
	sub	eax, -1084454441
	mov	dword ptr [rbp - 196], eax 
	je	.LBB12_15
	jmp	.LBB12_23
.LBB12_23:                              
	mov	eax, dword ptr [rbp - 172] 
	sub	eax, 232440927
	mov	dword ptr [rbp - 200], eax 
	je	.LBB12_5
	jmp	.LBB12_24
.LBB12_24:                              
	mov	eax, dword ptr [rbp - 172] 
	sub	eax, 405194711
	mov	dword ptr [rbp - 204], eax 
	je	.LBB12_6
	jmp	.LBB12_25
.LBB12_25:                              
	mov	eax, dword ptr [rbp - 172] 
	sub	eax, 635242943
	mov	dword ptr [rbp - 208], eax 
	je	.LBB12_12
	jmp	.LBB12_26
.LBB12_26:                              
	mov	eax, dword ptr [rbp - 172] 
	sub	eax, 1159626074
	mov	dword ptr [rbp - 212], eax 
	je	.LBB12_4
	jmp	.LBB12_27
.LBB12_27:                              
	mov	eax, dword ptr [rbp - 172] 
	sub	eax, 1161514332
	mov	dword ptr [rbp - 216], eax 
	je	.LBB12_7
	jmp	.LBB12_28
.LBB12_28:                              
	mov	eax, dword ptr [rbp - 172] 
	sub	eax, 1302580646
	mov	dword ptr [rbp - 220], eax 
	je	.LBB12_11
	jmp	.LBB12_29
.LBB12_29:                              
	mov	eax, dword ptr [rbp - 172] 
	sub	eax, 1729889689
	mov	dword ptr [rbp - 224], eax 
	je	.LBB12_13
	jmp	.LBB12_30
.LBB12_30:                              
	mov	eax, dword ptr [rbp - 172] 
	sub	eax, 2135730799
	mov	dword ptr [rbp - 228], eax 
	je	.LBB12_3
	jmp	.LBB12_2
.LBB12_2:                               
	jmp	.LBB12_17
.LBB12_3:                               
	mov	eax, 2779272107
	mov	ecx, 1159626074
	mov	dl, byte ptr [rbp - 122]
	mov	sil, byte ptr [rbp - 121]
	mov	dil, dl
	and	dil, sil
	xor	dl, sil
	or	dil, dl
	test	dil, 1
	cmovne	eax, ecx
	mov	dword ptr [rbp - 128], eax
	jmp	.LBB12_17
.LBB12_4:                               
	mov	eax, 2779272107
	mov	ecx, 232440927
	mov	rdx, rsp
	add	rdx, -16
	mov	rsp, rdx
	mov	qword ptr [rbp - 120], rdx
	mov	rdx, rsp
	add	rdx, -16
	mov	rsp, rdx
	mov	qword ptr [rbp - 112], rdx
	mov	rdx, rsp
	add	rdx, -16
	mov	rsp, rdx
	mov	qword ptr [rbp - 104], rdx
	mov	rdx, rsp
	add	rdx, -16
	mov	rsp, rdx
	mov	qword ptr [rbp - 96], rdx
	mov	rdx, rsp
	add	rdx, -16
	mov	rsp, rdx
	mov	qword ptr [rbp - 88], rdx
	mov	rdx, rsp
	add	rdx, -16
	mov	rsp, rdx
	mov	qword ptr [rbp - 80], rdx
	mov	rdx, rsp
	add	rdx, -16
	mov	rsp, rdx
	mov	qword ptr [rbp - 72], rdx
	mov	rdx, rsp
	add	rdx, -16
	mov	rsp, rdx
	mov	qword ptr [rbp - 64], rdx
	mov	rdx, rsp
	add	rdx, -16
	mov	rsp, rdx
	mov	qword ptr [rbp - 56], rdx
	mov	rdx, rsp
	add	rdx, -16
	mov	rsp, rdx
	mov	qword ptr [rbp - 48], rdx
	mov	rdx, qword ptr [rbp - 120]
	mov	rsi, qword ptr [rbp - 160] 
	mov	qword ptr [rdx], rsi
	mov	rdx, qword ptr [rbp - 112]
	mov	rdi, qword ptr [rbp - 152] 
	mov	qword ptr [rdx], rdi
	mov	rdx, qword ptr [rbp - 104]
	mov	r8, qword ptr [rbp - 144] 
	mov	qword ptr [rdx], r8
	mov	rdx, qword ptr [rbp - 96]
	mov	r9, qword ptr [rbp - 136] 
	mov	qword ptr [rdx], r9
	mov	rdx, qword ptr [rbp - 88]
	mov	r10, qword ptr [rbp - 168] 
	mov	qword ptr [rdx], r10
	mov	rdx, qword ptr [rbp - 120]
	mov	rdx, qword ptr [rdx]
	mov	r11d, dword ptr [rdx]
	mov	rdx, qword ptr [rbp - 80]
	mov	dword ptr [rdx], r11d
	mov	rdx, qword ptr [rbp - 112]
	mov	rdx, qword ptr [rdx]
	mov	r11d, dword ptr [rdx]
	mov	rdx, qword ptr [rbp - 72]
	mov	dword ptr [rdx], r11d
	mov	rdx, qword ptr [rbp - 104]
	mov	rdx, qword ptr [rdx]
	mov	r11d, dword ptr [rdx]
	mov	rdx, qword ptr [rbp - 64]
	mov	dword ptr [rdx], r11d
	mov	rdx, qword ptr [rbp - 96]
	mov	rdx, qword ptr [rdx]
	mov	r11d, dword ptr [rdx]
	mov	rdx, qword ptr [rbp - 56]
	mov	dword ptr [rdx], r11d
	mov	rdx, qword ptr [rbp - 48]
	mov	qword ptr [rdx], 16
	mov	r11d, dword ptr [x.31]
	mov	ebx, dword ptr [y.32]
	mov	r14d, r11d
	sub	r14d, -2084687234
	sub	r14d, 1
	add	r14d, -2084687234
	imul	r11d, r14d
	and	r11d, 1
	cmp	r11d, 0
	sete	r15b
	cmp	ebx, 10
	setl	r12b
	mov	r13b, r15b
	and	r13b, r12b
	xor	r15b, r12b
	or	r13b, r15b
	test	r13b, 1
	cmovne	eax, ecx
	mov	dword ptr [rbp - 128], eax
	jmp	.LBB12_17
.LBB12_5:                               
	mov	dword ptr [rbp - 128], 405194711
	jmp	.LBB12_17
.LBB12_6:                               
	mov	eax, 1729889689
	mov	ecx, 1161514332
	mov	rdx, qword ptr [rbp - 48]
	cmp	qword ptr [rdx], 0
	cmovne	eax, ecx
	mov	dword ptr [rbp - 128], eax
	jmp	.LBB12_17
.LBB12_7:                               
	mov	eax, 3210512855
	mov	ecx, 2852117312
	mov	edx, dword ptr [x.31]
	mov	esi, dword ptr [y.32]
	mov	edi, edx
	add	edi, 262538262
	sub	edi, 1
	sub	edi, 262538262
	imul	edx, edi
	and	edx, 1
	cmp	edx, 0
	sete	r8b
	cmp	esi, 10
	setl	r9b
	mov	r10b, r8b
	and	r10b, r9b
	xor	r8b, r9b
	or	r10b, r8b
	test	r10b, 1
	cmovne	eax, ecx
	mov	dword ptr [rbp - 128], eax
	jmp	.LBB12_17
.LBB12_8:                               
	mov	rax, qword ptr [rbp - 72]
	mov	edi, dword ptr [rax]
	call	_ZN5Botan4rotrILm4EjEET0_S1_
	mov	edi, 4294967295
	movabs	rcx, 5607465605323279723
	movabs	rdx, -4113172851799627227
	mov	rsi, qword ptr [rbp - 88]
	mov	rsi, qword ptr [rsi]
	mov	r8, qword ptr [rbp - 48]
	mov	r8, qword ptr [r8]
	shl	r8, 1
	add	r8, rdx
	sub	r8, 2
	sub	r8, rdx
	mov	r9d, dword ptr [rsi + 4*r8]
	mov	r10d, eax
	xor	r10d, -1
	and	r10d, 3055863103
	mov	r11d, edi
	xor	r11d, 3055863103
	and	eax, r11d
	mov	ebx, r9d
	xor	ebx, -1
	and	ebx, -1239104193
	and	r9d, r11d
	or	r10d, eax
	or	ebx, r9d
	xor	r10d, ebx
	mov	rdx, qword ptr [rbp - 72]
	mov	eax, dword ptr [rdx]
	mov	rdx, qword ptr [rbp - 88]
	mov	rdx, qword ptr [rdx]
	mov	rsi, qword ptr [rbp - 48]
	mov	rsi, qword ptr [rsi]
	shl	rsi, 1
	add	rsi, rcx
	sub	rsi, 1
	sub	rsi, rcx
	mov	r9d, dword ptr [rdx + 4*rsi]
	mov	r11d, eax
	xor	r11d, -1
	and	r11d, 549290443
	xor	edi, 549290443
	and	eax, edi
	mov	ebx, r9d
	xor	ebx, -1
	and	ebx, 549290443
	and	r9d, edi
	or	r11d, eax
	or	ebx, r9d
	xor	r11d, ebx
	mov	edi, r10d
	mov	esi, r11d
	call	_ZN5Botan12_GLOBAL__N_15spboxEjj
	mov	rcx, qword ptr [rbp - 80]
	mov	esi, dword ptr [rcx]
	mov	edi, esi
	xor	edi, -1
	mov	r9d, eax
	and	r9d, edi
	xor	eax, -1
	and	esi, eax
	or	r9d, esi
	mov	rcx, qword ptr [rbp - 80]
	mov	dword ptr [rcx], r9d
	mov	rcx, qword ptr [rbp - 56]
	mov	edi, dword ptr [rcx]
	call	_ZN5Botan4rotrILm4EjEET0_S1_
	mov	esi, 4294967295
	movabs	rcx, 8288286645047279761
	movabs	rdx, -105466337317173257
	mov	r8, qword ptr [rbp - 88]
	mov	r8, qword ptr [r8]
	mov	r14, qword ptr [rbp - 48]
	mov	r14, qword ptr [r14]
	shl	r14, 1
	sub	r14, rdx
	sub	r14, 2
	add	r14, rdx
	shl	r14, 2
	add	r8, r14
	mov	edi, dword ptr [r8]
	mov	r9d, eax
	xor	r9d, -1
	and	r9d, 2479574962
	mov	r10d, esi
	xor	r10d, 2479574962
	and	eax, r10d
	mov	r11d, edi
	xor	r11d, -1
	and	r11d, -1815392334
	and	edi, r10d
	or	r9d, eax
	or	r11d, edi
	xor	r9d, r11d
	mov	rdx, qword ptr [rbp - 56]
	mov	eax, dword ptr [rdx]
	mov	rdx, qword ptr [rbp - 88]
	mov	rdx, qword ptr [rdx]
	mov	r8, qword ptr [rbp - 48]
	mov	r8, qword ptr [r8]
	shl	r8, 1
	add	r8, rcx
	sub	r8, 1
	sub	r8, rcx
	mov	edi, dword ptr [rdx + 4*r8]
	mov	r10d, eax
	xor	r10d, -1
	and	r10d, 821043938
	xor	esi, 821043938
	and	eax, esi
	mov	r11d, edi
	xor	r11d, -1
	and	r11d, 821043938
	and	edi, esi
	or	r10d, eax
	or	r11d, edi
	xor	r10d, r11d
	mov	edi, r9d
	mov	esi, r10d
	call	_ZN5Botan12_GLOBAL__N_15spboxEjj
	mov	esi, 4294967295
	mov	rcx, qword ptr [rbp - 64]
	mov	edi, dword ptr [rcx]
	mov	r9d, edi
	xor	r9d, -1
	and	r9d, 2685279320
	xor	esi, 2685279320
	and	edi, esi
	mov	r10d, eax
	xor	r10d, -1
	and	r10d, -1609687976
	and	eax, esi
	or	r9d, edi
	or	r10d, eax
	xor	r9d, r10d
	mov	rcx, qword ptr [rbp - 64]
	mov	dword ptr [rcx], r9d
	mov	rcx, qword ptr [rbp - 80]
	mov	edi, dword ptr [rcx]
	call	_ZN5Botan4rotrILm4EjEET0_S1_
	movabs	rcx, 5296763954566890351
	mov	esi, 4294967295
	movabs	rdx, 5360106997379417329
	mov	r8, qword ptr [rbp - 88]
	mov	r8, qword ptr [r8]
	mov	r14, qword ptr [rbp - 48]
	mov	r14, qword ptr [r14]
	shl	r14, 1
	sub	r14, rdx
	sub	r14, 4
	add	r14, rdx
	shl	r14, 2
	add	r8, r14
	mov	edi, dword ptr [r8]
	mov	r9d, eax
	xor	r9d, -1
	and	r9d, 492229966
	xor	esi, 492229966
	and	eax, esi
	mov	r10d, edi
	xor	r10d, -1
	and	r10d, 492229966
	and	edi, esi
	or	r9d, eax
	or	r10d, edi
	xor	r9d, r10d
	mov	rdx, qword ptr [rbp - 80]
	mov	eax, dword ptr [rdx]
	mov	rdx, qword ptr [rbp - 88]
	mov	rdx, qword ptr [rdx]
	mov	r8, qword ptr [rbp - 48]
	mov	r8, qword ptr [r8]
	shl	r8, 1
	add	r8, rcx
	sub	r8, 3
	sub	r8, rcx
	mov	esi, dword ptr [rdx + 4*r8]
	mov	edi, eax
	xor	edi, -1
	mov	r10d, esi
	and	r10d, edi
	xor	esi, -1
	and	eax, esi
	or	r10d, eax
	mov	edi, r9d
	mov	esi, r10d
	call	_ZN5Botan12_GLOBAL__N_15spboxEjj
	mov	esi, 4294967295
	mov	rcx, qword ptr [rbp - 72]
	mov	edi, dword ptr [rcx]
	mov	r9d, edi
	xor	r9d, -1
	and	r9d, 3409469010
	xor	esi, 3409469010
	and	edi, esi
	mov	r10d, eax
	xor	r10d, -1
	and	r10d, -885498286
	and	eax, esi
	or	r9d, edi
	or	r10d, eax
	xor	r9d, r10d
	mov	rcx, qword ptr [rbp - 72]
	mov	dword ptr [rcx], r9d
	mov	rcx, qword ptr [rbp - 64]
	mov	edi, dword ptr [rcx]
	call	_ZN5Botan4rotrILm4EjEET0_S1_
	movabs	rcx, -4206790462390099642
	mov	esi, 4294967295
	xor	edi, edi
	mov	edx, edi
	mov	r8, qword ptr [rbp - 88]
	mov	r8, qword ptr [r8]
	mov	r14, qword ptr [rbp - 48]
	mov	r14, qword ptr [r14]
	shl	r14, 1
	sub	rdx, 4
	add	r14, rdx
	mov	edi, dword ptr [r8 + 4*r14]
	mov	r9d, eax
	xor	r9d, -1
	and	r9d, 2133928419
	xor	esi, 2133928419
	and	eax, esi
	mov	r10d, edi
	xor	r10d, -1
	and	r10d, 2133928419
	and	edi, esi
	or	r9d, eax
	or	r10d, edi
	xor	r9d, r10d
	mov	rdx, qword ptr [rbp - 64]
	mov	eax, dword ptr [rdx]
	mov	rdx, qword ptr [rbp - 88]
	mov	rdx, qword ptr [rdx]
	mov	r8, qword ptr [rbp - 48]
	mov	r8, qword ptr [r8]
	shl	r8, 1
	add	r8, rcx
	sub	r8, 3
	sub	r8, rcx
	mov	esi, dword ptr [rdx + 4*r8]
	mov	edi, eax
	xor	edi, -1
	mov	r10d, esi
	and	r10d, edi
	xor	esi, -1
	and	eax, esi
	or	r10d, eax
	mov	edi, r9d
	mov	esi, r10d
	call	_ZN5Botan12_GLOBAL__N_15spboxEjj
	mov	esi, 3210512855
	mov	edi, 2172655302
	mov	rcx, qword ptr [rbp - 56]
	mov	r9d, dword ptr [rcx]
	mov	r10d, r9d
	xor	r10d, -1
	mov	r11d, eax
	and	r11d, r10d
	xor	eax, -1
	and	r9d, eax
	or	r11d, r9d
	mov	rcx, qword ptr [rbp - 56]
	mov	dword ptr [rcx], r11d
	mov	eax, dword ptr [x.31]
	mov	r9d, dword ptr [y.32]
	mov	r10d, eax
	add	r10d, 66764293
	sub	r10d, 1
	sub	r10d, 66764293
	imul	eax, r10d
	and	eax, 1
	cmp	eax, 0
	sete	r15b
	cmp	r9d, 10
	setl	r12b
	mov	r13b, r15b
	and	r13b, r12b
	xor	r15b, r12b
	or	r13b, r15b
	test	r13b, 1
	cmovne	esi, edi
	mov	dword ptr [rbp - 128], esi
	jmp	.LBB12_17
.LBB12_9:                               
	mov	dword ptr [rbp - 128], -1209708936
	jmp	.LBB12_17
.LBB12_10:                              
	mov	eax, 2600168060
	mov	ecx, 1302580646
	mov	dl, 1
	xor	esi, esi
	mov	edi, dword ptr [x.31]
	mov	r8d, dword ptr [y.32]
	sub	esi, 1
	mov	r9d, edi
	add	r9d, esi
	imul	edi, r9d
	and	edi, 1
	cmp	edi, 0
	sete	r10b
	cmp	r8d, 10
	setl	r11b
	mov	bl, r10b
	xor	bl, -1
	mov	r14b, r11b
	xor	r14b, -1
	xor	dl, 1
	mov	r15b, bl
	and	r15b, -1
	and	r10b, dl
	mov	r12b, r14b
	and	r12b, -1
	and	r11b, dl
	or	r15b, r10b
	or	r12b, r11b
	xor	r15b, r12b
	or	bl, r14b
	xor	bl, -1
	or	dl, 1
	and	bl, dl
	or	r15b, bl
	test	r15b, 1
	cmovne	eax, ecx
	mov	dword ptr [rbp - 128], eax
	jmp	.LBB12_17
.LBB12_11:                              
	mov	eax, 2600168060
	mov	ecx, 635242943
	mov	dl, 1
	xor	esi, esi
	movabs	rdi, 5269803646265482923
	mov	r8, qword ptr [rbp - 48]
	mov	r8, qword ptr [r8]
	sub	r8, rdi
	sub	r8, 2
	add	r8, rdi
	mov	rdi, qword ptr [rbp - 48]
	mov	qword ptr [rdi], r8
	mov	r9d, dword ptr [x.31]
	mov	r10d, dword ptr [y.32]
	sub	esi, 1
	mov	r11d, r9d
	add	r11d, esi
	imul	r9d, r11d
	and	r9d, 1
	cmp	r9d, 0
	sete	bl
	cmp	r10d, 10
	setl	r14b
	mov	r15b, bl
	xor	r15b, -1
	mov	r12b, r14b
	xor	r12b, -1
	xor	dl, 0
	mov	r13b, r15b
	and	r13b, 0
	and	bl, dl
	mov	sil, r12b
	and	sil, 0
	and	r14b, dl
	or	r13b, bl
	or	sil, r14b
	xor	r13b, sil
	or	r15b, r12b
	xor	r15b, -1
	or	dl, 0
	and	r15b, dl
	or	r13b, r15b
	test	r13b, 1
	cmovne	eax, ecx
	mov	dword ptr [rbp - 128], eax
	jmp	.LBB12_17
.LBB12_12:                              
	mov	dword ptr [rbp - 128], 405194711
	jmp	.LBB12_17
.LBB12_13:
	mov	rax, qword ptr [rbp - 80]
	mov	ecx, dword ptr [rax]
	mov	rax, qword ptr [rbp - 120]
	mov	rax, qword ptr [rax]
	mov	dword ptr [rax], ecx
	mov	rax, qword ptr [rbp - 72]
	mov	ecx, dword ptr [rax]
	mov	rax, qword ptr [rbp - 112]
	mov	rax, qword ptr [rax]
	mov	dword ptr [rax], ecx
	mov	rax, qword ptr [rbp - 64]
	mov	ecx, dword ptr [rax]
	mov	rax, qword ptr [rbp - 104]
	mov	rax, qword ptr [rax]
	mov	dword ptr [rax], ecx
	mov	rax, qword ptr [rbp - 56]
	mov	ecx, dword ptr [rax]
	mov	rax, qword ptr [rbp - 96]
	mov	rax, qword ptr [rax]
	mov	dword ptr [rax], ecx
	lea	rsp, [rbp - 40]
	pop	rbx
	pop	r12
	pop	r13
	pop	r14
	pop	r15
	pop	rbp
	ret
.LBB12_14:                              
	mov	rax, rsp
	add	rax, -16
	mov	rsp, rax
	mov	rcx, rsp
	add	rcx, -16
	mov	rsp, rcx
	mov	rdx, rsp
	add	rdx, -16
	mov	rsp, rdx
	mov	rsi, rsp
	add	rsi, -16
	mov	rsp, rsi
	mov	rdi, rsp
	add	rdi, -16
	mov	rsp, rdi
	mov	r8, rsp
	add	r8, -16
	mov	rsp, r8
	mov	r9, rsp
	add	r9, -16
	mov	rsp, r9
	mov	r10, rsp
	add	r10, -16
	mov	rsp, r10
	mov	r11, rsp
	add	r11, -16
	mov	rsp, r11
	mov	rbx, rsp
	add	rbx, -16
	mov	rsp, rbx
	mov	r14, qword ptr [rbp - 160] 
	mov	qword ptr [rax], r14
	mov	r15, qword ptr [rbp - 152] 
	mov	qword ptr [rcx], r15
	mov	r12, qword ptr [rbp - 144] 
	mov	qword ptr [rdx], r12
	mov	r13, qword ptr [rbp - 136] 
	mov	qword ptr [rsi], r13
	mov	r14, qword ptr [rbp - 168] 
	mov	qword ptr [rdi], r14
	mov	rax, qword ptr [rax]
	mov	edi, dword ptr [rax]
	mov	dword ptr [r8], edi
	mov	rax, qword ptr [rcx]
	mov	edi, dword ptr [rax]
	mov	dword ptr [r9], edi
	mov	rax, qword ptr [rdx]
	mov	edi, dword ptr [rax]
	mov	dword ptr [r10], edi
	mov	rax, qword ptr [rsi]
	mov	edi, dword ptr [rax]
	mov	dword ptr [r11], edi
	mov	qword ptr [rbx], 16
	mov	dword ptr [rbp - 128], 1159626074
	jmp	.LBB12_17
.LBB12_15:                              
	mov	rax, qword ptr [rbp - 72]
	mov	edi, dword ptr [rax]
	call	_ZN5Botan4rotrILm4EjEET0_S1_
	movabs	rcx, -6675606202223173904
	mov	edi, 4294967295
	movabs	rdx, 5302510747137544315
	mov	rsi, qword ptr [rbp - 88]
	mov	rsi, qword ptr [rsi]
	mov	r8, qword ptr [rbp - 48]
	mov	r8, qword ptr [r8]
	shl	r8, 1
	add	r8, rdx
	sub	r8, 2
	sub	r8, rdx
	mov	r9d, dword ptr [rsi + 4*r8]
	mov	r10d, eax
	xor	r10d, -1
	and	r10d, 844435248
	xor	edi, 844435248
	and	eax, edi
	mov	r11d, r9d
	xor	r11d, -1
	and	r11d, 844435248
	and	r9d, edi
	or	r10d, eax
	or	r11d, r9d
	xor	r10d, r11d
	mov	rdx, qword ptr [rbp - 72]
	mov	eax, dword ptr [rdx]
	mov	rdx, qword ptr [rbp - 88]
	mov	rdx, qword ptr [rdx]
	mov	rsi, qword ptr [rbp - 48]
	mov	rsi, qword ptr [rsi]
	shl	rsi, 1
	add	rsi, rcx
	sub	rsi, 1
	sub	rsi, rcx
	mov	edi, dword ptr [rdx + 4*rsi]
	mov	r9d, eax
	xor	r9d, -1
	mov	r11d, edi
	and	r11d, r9d
	xor	edi, -1
	and	eax, edi
	or	r11d, eax
	mov	edi, r10d
	mov	esi, r11d
	call	_ZN5Botan12_GLOBAL__N_15spboxEjj
	mov	rcx, qword ptr [rbp - 80]
	mov	esi, dword ptr [rcx]
	mov	edi, esi
	xor	edi, -1
	mov	r9d, eax
	and	r9d, edi
	xor	eax, -1
	and	esi, eax
	or	r9d, esi
	mov	rcx, qword ptr [rbp - 80]
	mov	dword ptr [rcx], r9d
	mov	rcx, qword ptr [rbp - 56]
	mov	edi, dword ptr [rcx]
	call	_ZN5Botan4rotrILm4EjEET0_S1_
	mov	esi, 4294967295
	movabs	rcx, -6480421399247906841
	xor	edi, edi
	mov	edx, edi
	mov	r8, qword ptr [rbp - 88]
	mov	r8, qword ptr [r8]
	mov	rbx, qword ptr [rbp - 48]
	mov	rbx, qword ptr [rbx]
	shl	rbx, 1
	sub	rdx, 2
	add	rbx, rdx
	mov	edi, dword ptr [r8 + 4*rbx]
	mov	r9d, eax
	xor	r9d, -1
	mov	r10d, edi
	and	r10d, r9d
	xor	edi, -1
	and	eax, edi
	or	r10d, eax
	mov	rdx, qword ptr [rbp - 56]
	mov	eax, dword ptr [rdx]
	mov	rdx, qword ptr [rbp - 88]
	mov	rdx, qword ptr [rdx]
	mov	r8, qword ptr [rbp - 48]
	mov	r8, qword ptr [r8]
	shl	r8, 1
	sub	r8, rcx
	sub	r8, 1
	add	r8, rcx
	shl	r8, 2
	add	rdx, r8
	mov	edi, dword ptr [rdx]
	mov	r9d, eax
	xor	r9d, -1
	and	r9d, 2179438804
	xor	esi, 2179438804
	and	eax, esi
	mov	r11d, edi
	xor	r11d, -1
	and	r11d, -2115528492
	and	edi, esi
	or	r9d, eax
	or	r11d, edi
	xor	r9d, r11d
	mov	edi, r10d
	mov	esi, r9d
	call	_ZN5Botan12_GLOBAL__N_15spboxEjj
	mov	esi, 4294967295
	mov	rcx, qword ptr [rbp - 64]
	mov	edi, dword ptr [rcx]
	mov	r9d, edi
	xor	r9d, -1
	and	r9d, 1215132190
	xor	esi, 1215132190
	and	edi, esi
	mov	r10d, eax
	xor	r10d, -1
	and	r10d, 1215132190
	and	eax, esi
	or	r9d, edi
	or	r10d, eax
	xor	r9d, r10d
	mov	rcx, qword ptr [rbp - 64]
	mov	dword ptr [rcx], r9d
	mov	rcx, qword ptr [rbp - 80]
	mov	edi, dword ptr [rcx]
	call	_ZN5Botan4rotrILm4EjEET0_S1_
	mov	esi, 4294967295
	movabs	rcx, 8536021700372000785
	xor	edi, edi
	mov	edx, edi
	mov	r8, qword ptr [rbp - 88]
	mov	r8, qword ptr [r8]
	mov	rbx, qword ptr [rbp - 48]
	mov	rbx, qword ptr [rbx]
	shl	rbx, 1
	sub	rdx, 4
	add	rbx, rdx
	mov	edi, dword ptr [r8 + 4*rbx]
	mov	r9d, eax
	xor	r9d, -1
	mov	r10d, edi
	and	r10d, r9d
	xor	edi, -1
	and	eax, edi
	or	r10d, eax
	mov	rdx, qword ptr [rbp - 80]
	mov	eax, dword ptr [rdx]
	mov	rdx, qword ptr [rbp - 88]
	mov	rdx, qword ptr [rdx]
	mov	r8, qword ptr [rbp - 48]
	mov	r8, qword ptr [r8]
	shl	r8, 1
	add	r8, rcx
	sub	r8, 3
	sub	r8, rcx
	mov	edi, dword ptr [rdx + 4*r8]
	mov	r9d, eax
	xor	r9d, -1
	and	r9d, 1220191714
	xor	esi, 1220191714
	and	eax, esi
	mov	r11d, edi
	xor	r11d, -1
	and	r11d, 1220191714
	and	edi, esi
	or	r9d, eax
	or	r11d, edi
	xor	r9d, r11d
	mov	edi, r10d
	mov	esi, r9d
	call	_ZN5Botan12_GLOBAL__N_15spboxEjj
	mov	rcx, qword ptr [rbp - 72]
	mov	esi, dword ptr [rcx]
	mov	edi, esi
	xor	edi, -1
	mov	r9d, eax
	and	r9d, edi
	xor	eax, -1
	and	esi, eax
	or	r9d, esi
	mov	rcx, qword ptr [rbp - 72]
	mov	dword ptr [rcx], r9d
	mov	rcx, qword ptr [rbp - 64]
	mov	edi, dword ptr [rcx]
	call	_ZN5Botan4rotrILm4EjEET0_S1_
	movabs	rcx, -7961942319516741611
	mov	esi, 4294967295
	movabs	rdx, -708518019641460629
	mov	r8, qword ptr [rbp - 88]
	mov	r8, qword ptr [r8]
	mov	rbx, qword ptr [rbp - 48]
	mov	rbx, qword ptr [rbx]
	shl	rbx, 1
	sub	rbx, rdx
	sub	rbx, 4
	add	rbx, rdx
	shl	rbx, 2
	add	r8, rbx
	mov	edi, dword ptr [r8]
	mov	r9d, eax
	xor	r9d, -1
	and	r9d, 155206678
	xor	esi, 155206678
	and	eax, esi
	mov	r10d, edi
	xor	r10d, -1
	and	r10d, 155206678
	and	edi, esi
	or	r9d, eax
	or	r10d, edi
	xor	r9d, r10d
	mov	rdx, qword ptr [rbp - 64]
	mov	eax, dword ptr [rdx]
	mov	rdx, qword ptr [rbp - 88]
	mov	rdx, qword ptr [rdx]
	mov	r8, qword ptr [rbp - 48]
	mov	r8, qword ptr [r8]
	shl	r8, 1
	add	r8, rcx
	sub	r8, 3
	sub	r8, rcx
	mov	esi, dword ptr [rdx + 4*r8]
	mov	edi, eax
	xor	edi, -1
	mov	r10d, esi
	and	r10d, edi
	xor	esi, -1
	and	eax, esi
	or	r10d, eax
	mov	edi, r9d
	mov	esi, r10d
	call	_ZN5Botan12_GLOBAL__N_15spboxEjj
	mov	rcx, qword ptr [rbp - 56]
	mov	esi, dword ptr [rcx]
	mov	edi, esi
	xor	edi, -1
	mov	r9d, eax
	and	r9d, edi
	xor	eax, -1
	and	esi, eax
	or	r9d, esi
	mov	rcx, qword ptr [rbp - 56]
	mov	dword ptr [rcx], r9d
	mov	dword ptr [rbp - 128], -1442849984
	jmp	.LBB12_17
.LBB12_16:                              
	movabs	rax, -91902258644247255
	mov	rcx, qword ptr [rbp - 48]
	mov	rcx, qword ptr [rcx]
	sub	rcx, rax
	sub	rcx, 2
	add	rcx, rax
	mov	rax, qword ptr [rbp - 48]
	mov	qword ptr [rax], rcx
	mov	dword ptr [rbp - 128], 1302580646
.LBB12_17:                              
	jmp	.LBB12_1
.Lfunc_end12:
	.size	_ZN5Botan12_GLOBAL__N_114des_decrypt_x2ERjS1_S1_S1_PKj, .Lfunc_end12-_ZN5Botan12_GLOBAL__N_114des_decrypt_x2ERjS1_S1_S1_PKj

	.p2align	4, 0x90         
	.type	_ZN5Botan12_GLOBAL__N_111des_decryptERjS1_PKj,@function
_ZN5Botan12_GLOBAL__N_111des_decryptERjS1_PKj: 

	push	rbp
	mov	rbp, rsp
	push	r14
	push	rbx
	sub	rsp, 64
	mov	qword ptr [rbp - 24], rdi
	mov	qword ptr [rbp - 32], rsi
	mov	qword ptr [rbp - 40], rdx
	mov	rdx, qword ptr [rbp - 24]
	mov	eax, dword ptr [rdx]
	mov	dword ptr [rbp - 44], eax
	mov	rdx, qword ptr [rbp - 32]
	mov	eax, dword ptr [rdx]
	mov	dword ptr [rbp - 48], eax
	mov	qword ptr [rbp - 56], 16
	mov	dword ptr [rbp - 60], -897520107
.LBB13_1:                               
	mov	eax, dword ptr [rbp - 60]
	mov	ecx, eax
	sub	ecx, -897520107
	mov	dword ptr [rbp - 64], eax 
	mov	dword ptr [rbp - 68], ecx 
	je	.LBB13_3
	jmp	.LBB13_8
.LBB13_8:                               
	mov	eax, dword ptr [rbp - 64] 
	sub	eax, -890075346
	mov	dword ptr [rbp - 72], eax 
	je	.LBB13_6
	jmp	.LBB13_9
.LBB13_9:                               
	mov	eax, dword ptr [rbp - 64] 
	sub	eax, 1062420734
	mov	dword ptr [rbp - 76], eax 
	je	.LBB13_5
	jmp	.LBB13_10
.LBB13_10:                              
	mov	eax, dword ptr [rbp - 64] 
	sub	eax, 2144487491
	mov	dword ptr [rbp - 80], eax 
	je	.LBB13_4
	jmp	.LBB13_2
.LBB13_2:                               
	jmp	.LBB13_7
.LBB13_3:                               
	mov	eax, 3404891950
	mov	ecx, 2144487491
	cmp	qword ptr [rbp - 56], 0
	cmovne	eax, ecx
	mov	dword ptr [rbp - 60], eax
	jmp	.LBB13_7
.LBB13_4:                               
	mov	edi, dword ptr [rbp - 48]
	call	_ZN5Botan4rotrILm4EjEET0_S1_
	mov	edi, 4294967295
	movabs	rcx, -4464440595658697769
	movabs	rdx, -7055056883678687124
	mov	rsi, qword ptr [rbp - 40]
	mov	r8, qword ptr [rbp - 56]
	shl	r8, 1
	sub	r8, rdx
	sub	r8, 2
	add	r8, rdx
	shl	r8, 2
	add	rsi, r8
	mov	r9d, dword ptr [rsi]
	mov	r10d, eax
	xor	r10d, -1
	and	r10d, 2485015189
	mov	r11d, edi
	xor	r11d, 2485015189
	and	eax, r11d
	mov	ebx, r9d
	xor	ebx, -1
	and	ebx, -1809952107
	and	r9d, r11d
	or	r10d, eax
	or	ebx, r9d
	xor	r10d, ebx
	mov	eax, dword ptr [rbp - 48]
	mov	rdx, qword ptr [rbp - 40]
	mov	rsi, qword ptr [rbp - 56]
	shl	rsi, 1
	sub	rsi, rcx
	sub	rsi, 1
	add	rsi, rcx
	shl	rsi, 2
	add	rdx, rsi
	mov	r9d, dword ptr [rdx]
	mov	r11d, eax
	xor	r11d, -1
	and	r11d, 349398580
	xor	edi, 349398580
	and	eax, edi
	mov	ebx, r9d
	xor	ebx, -1
	and	ebx, 349398580
	and	r9d, edi
	or	r11d, eax
	or	ebx, r9d
	xor	r11d, ebx
	mov	edi, r10d
	mov	esi, r11d
	call	_ZN5Botan12_GLOBAL__N_15spboxEjj
	mov	esi, 4294967295
	mov	edi, dword ptr [rbp - 44]
	mov	r9d, edi
	xor	r9d, -1
	and	r9d, 3856165865
	xor	esi, 3856165865
	and	edi, esi
	mov	r10d, eax
	xor	r10d, -1
	and	r10d, -438801431
	and	eax, esi
	or	r9d, edi
	or	r10d, eax
	xor	r9d, r10d
	mov	dword ptr [rbp - 44], r9d
	mov	edi, dword ptr [rbp - 44]
	call	_ZN5Botan4rotrILm4EjEET0_S1_
	movabs	rcx, 8110946753861408690
	mov	esi, 4294967295
	movabs	rdx, 1644954712608148204
	mov	r8, qword ptr [rbp - 40]
	mov	r14, qword ptr [rbp - 56]
	shl	r14, 1
	add	r14, rdx
	sub	r14, 4
	sub	r14, rdx
	mov	edi, dword ptr [r8 + 4*r14]
	mov	r9d, eax
	xor	r9d, -1
	and	r9d, 1777801101
	xor	esi, 1777801101
	and	eax, esi
	mov	r10d, edi
	xor	r10d, -1
	and	r10d, 1777801101
	and	edi, esi
	or	r9d, eax
	or	r10d, edi
	xor	r9d, r10d
	mov	eax, dword ptr [rbp - 44]
	mov	rdx, qword ptr [rbp - 40]
	mov	r8, qword ptr [rbp - 56]
	shl	r8, 1
	add	r8, rcx
	sub	r8, 3
	sub	r8, rcx
	mov	esi, dword ptr [rdx + 4*r8]
	mov	edi, eax
	xor	edi, -1
	mov	r10d, esi
	and	r10d, edi
	xor	esi, -1
	and	eax, esi
	or	r10d, eax
	mov	edi, r9d
	mov	esi, r10d
	call	_ZN5Botan12_GLOBAL__N_15spboxEjj
	mov	esi, dword ptr [rbp - 48]
	mov	edi, esi
	xor	edi, -1
	mov	r9d, eax
	and	r9d, edi
	xor	eax, -1
	and	esi, eax
	or	r9d, esi
	mov	dword ptr [rbp - 48], r9d
	mov	dword ptr [rbp - 60], 1062420734
	jmp	.LBB13_7
.LBB13_5:                               
	movabs	rax, 2414352685609130795
	mov	rcx, qword ptr [rbp - 56]
	add	rcx, rax
	sub	rcx, 2
	sub	rcx, rax
	mov	qword ptr [rbp - 56], rcx
	mov	dword ptr [rbp - 60], -897520107
	jmp	.LBB13_7
.LBB13_6:
	mov	eax, dword ptr [rbp - 44]
	mov	rcx, qword ptr [rbp - 24]
	mov	dword ptr [rcx], eax
	mov	eax, dword ptr [rbp - 48]
	mov	rcx, qword ptr [rbp - 32]
	mov	dword ptr [rcx], eax
	add	rsp, 64
	pop	rbx
	pop	r14
	pop	rbp
	ret
.LBB13_7:                               
	jmp	.LBB13_1
.Lfunc_end13:
	.size	_ZN5Botan12_GLOBAL__N_111des_decryptERjS1_PKj, .Lfunc_end13-_ZN5Botan12_GLOBAL__N_111des_decryptERjS1_PKj

	.globl	_ZN5Botan3DES12key_scheduleEPKhm 
	.p2align	4, 0x90
	.type	_ZN5Botan3DES12key_scheduleEPKhm,@function
_ZN5Botan3DES12key_scheduleEPKhm:       
	.cfi_startproc

	push	rbp
.Lcfi51:
	.cfi_def_cfa_offset 16
.Lcfi52:
	.cfi_offset rbp, -16
	mov	rbp, rsp
.Lcfi53:
	.cfi_def_cfa_register rbp
	sub	rsp, 32
	mov	eax, 32
	mov	ecx, eax
	mov	qword ptr [rbp - 8], rdi
	mov	qword ptr [rbp - 16], rsi
	mov	qword ptr [rbp - 24], rdx
	mov	rdx, qword ptr [rbp - 8]
	mov	rsi, rdx
	add	rsi, 8
	mov	rdi, rsi
	mov	rsi, rcx
	mov	qword ptr [rbp - 32], rdx 
	call	_ZNSt6vectorIjN5Botan16secure_allocatorIjEEE6resizeEm
	mov	rcx, qword ptr [rbp - 32] 
	add	rcx, 8
	mov	rdi, rcx
	call	_ZNSt6vectorIjN5Botan16secure_allocatorIjEEE4dataEv
	mov	rsi, qword ptr [rbp - 16]
	mov	rdi, rax
	call	_ZN5Botan12_GLOBAL__N_116des_key_scheduleEPjPKh
	add	rsp, 32
	pop	rbp
	ret
.Lfunc_end14:
	.size	_ZN5Botan3DES12key_scheduleEPKhm, .Lfunc_end14-_ZN5Botan3DES12key_scheduleEPKhm
	.cfi_endproc

	.section	.text._ZNSt6vectorIjN5Botan16secure_allocatorIjEEE6resizeEm,"axG",@progbits,_ZNSt6vectorIjN5Botan16secure_allocatorIjEEE6resizeEm,comdat
	.weak	_ZNSt6vectorIjN5Botan16secure_allocatorIjEEE6resizeEm 
	.p2align	4, 0x90
	.type	_ZNSt6vectorIjN5Botan16secure_allocatorIjEEE6resizeEm,@function
_ZNSt6vectorIjN5Botan16secure_allocatorIjEEE6resizeEm: 
	.cfi_startproc

	push	rbp
.Lcfi54:
	.cfi_def_cfa_offset 16
.Lcfi55:
	.cfi_offset rbp, -16
	mov	rbp, rsp
.Lcfi56:
	.cfi_def_cfa_register rbp
	push	r14
	push	rbx
	sub	rsp, 128
.Lcfi57:
	.cfi_offset rbx, -32
.Lcfi58:
	.cfi_offset r14, -24
	mov	qword ptr [rbp - 56], rdi
	mov	qword ptr [rbp - 64], rsi
	mov	rsi, qword ptr [rbp - 56]
	mov	qword ptr [rbp - 48], rsi
	mov	rsi, qword ptr [rbp - 64]
	mov	qword ptr [rbp - 40], rsi
	mov	rdi, qword ptr [rbp - 48]
	call	_ZNKSt6vectorIjN5Botan16secure_allocatorIjEEE4sizeEv
	mov	qword ptr [rbp - 32], rax
	mov	dword ptr [rbp - 68], 1300170859
.LBB15_1:                               
	mov	eax, dword ptr [rbp - 68]
	mov	ecx, eax
	sub	ecx, -2061873385
	mov	dword ptr [rbp - 72], eax 
	mov	dword ptr [rbp - 76], ecx 
	je	.LBB15_10
	jmp	.LBB15_13
.LBB15_13:                              
	mov	eax, dword ptr [rbp - 72] 
	sub	eax, -1586132985
	mov	dword ptr [rbp - 80], eax 
	je	.LBB15_8
	jmp	.LBB15_14
.LBB15_14:                              
	mov	eax, dword ptr [rbp - 72] 
	sub	eax, -914687433
	mov	dword ptr [rbp - 84], eax 
	je	.LBB15_9
	jmp	.LBB15_15
.LBB15_15:                              
	mov	eax, dword ptr [rbp - 72] 
	sub	eax, -752417780
	mov	dword ptr [rbp - 88], eax 
	je	.LBB15_6
	jmp	.LBB15_16
.LBB15_16:                              
	mov	eax, dword ptr [rbp - 72] 
	sub	eax, 967391431
	mov	dword ptr [rbp - 92], eax 
	je	.LBB15_5
	jmp	.LBB15_17
.LBB15_17:                              
	mov	eax, dword ptr [rbp - 72] 
	sub	eax, 1032390433
	mov	dword ptr [rbp - 96], eax 
	je	.LBB15_11
	jmp	.LBB15_18
.LBB15_18:                              
	mov	eax, dword ptr [rbp - 72] 
	sub	eax, 1229913464
	mov	dword ptr [rbp - 100], eax 
	je	.LBB15_7
	jmp	.LBB15_19
.LBB15_19:                              
	mov	eax, dword ptr [rbp - 72] 
	sub	eax, 1300170859
	mov	dword ptr [rbp - 104], eax 
	je	.LBB15_3
	jmp	.LBB15_20
.LBB15_20:                              
	mov	eax, dword ptr [rbp - 72] 
	sub	eax, 2100202924
	mov	dword ptr [rbp - 108], eax 
	je	.LBB15_4
	jmp	.LBB15_2
.LBB15_2:                               
	jmp	.LBB15_12
.LBB15_3:                               
	mov	eax, 967391431
	mov	ecx, 2100202924
	mov	rdx, qword ptr [rbp - 40]
	mov	rsi, qword ptr [rbp - 32]
	cmp	rdx, rsi
	cmova	eax, ecx
	mov	dword ptr [rbp - 68], eax
	jmp	.LBB15_12
.LBB15_4:                               
	mov	rax, qword ptr [rbp - 64]
	mov	rdi, qword ptr [rbp - 48]
	mov	qword ptr [rbp - 120], rax 
	call	_ZNKSt6vectorIjN5Botan16secure_allocatorIjEEE4sizeEv
	movabs	rdi, 1374706299922663122
	mov	rcx, qword ptr [rbp - 120] 
	sub	rcx, rdi
	sub	rcx, rax
	add	rcx, rdi
	mov	rdi, qword ptr [rbp - 48]
	mov	rsi, rcx
	call	_ZNSt6vectorIjN5Botan16secure_allocatorIjEEE17_M_default_appendEm
	mov	dword ptr [rbp - 68], -2061873385
	jmp	.LBB15_12
.LBB15_5:                               
	mov	eax, 1032390433
	mov	ecx, 3542549516
	mov	edx, dword ptr [x.37]
	mov	esi, dword ptr [y.38]
	mov	edi, edx
	sub	edi, -1800276197
	sub	edi, 1
	add	edi, -1800276197
	imul	edx, edi
	and	edx, 1
	cmp	edx, 0
	sete	r8b
	cmp	esi, 10
	setl	r9b
	mov	r10b, r8b
	and	r10b, r9b
	xor	r8b, r9b
	or	r10b, r8b
	test	r10b, 1
	cmovne	eax, ecx
	mov	dword ptr [rbp - 68], eax
	jmp	.LBB15_12
.LBB15_6:                               
	mov	rax, qword ptr [rbp - 64]
	mov	rdi, qword ptr [rbp - 48]
	mov	qword ptr [rbp - 128], rax 
	call	_ZNKSt6vectorIjN5Botan16secure_allocatorIjEEE4sizeEv
	mov	ecx, 1032390433
	mov	edx, 1229913464
	xor	esi, esi
	mov	rdi, qword ptr [rbp - 128] 
	cmp	rdi, rax
	setb	r8b
	and	r8b, 1
	mov	byte ptr [rbp - 17], r8b
	mov	r9d, dword ptr [x.37]
	mov	r10d, dword ptr [y.38]
	sub	esi, 1
	mov	r11d, r9d
	add	r11d, esi
	imul	r9d, r11d
	and	r9d, 1
	cmp	r9d, 0
	sete	r8b
	cmp	r10d, 10
	setl	bl
	mov	r14b, r8b
	and	r14b, bl
	xor	r8b, bl
	or	r14b, r8b
	test	r14b, 1
	cmovne	ecx, edx
	mov	dword ptr [rbp - 68], ecx
	jmp	.LBB15_12
.LBB15_7:                               
	mov	eax, 3380279863
	mov	ecx, 2708834311
	mov	dl, byte ptr [rbp - 17]
	test	dl, 1
	cmovne	eax, ecx
	mov	dword ptr [rbp - 68], eax
	jmp	.LBB15_12
.LBB15_8:                               
	mov	rax, qword ptr [rbp - 48]
	mov	rax, qword ptr [rax]
	mov	rcx, qword ptr [rbp - 64]
	shl	rcx, 2
	add	rax, rcx
	mov	rdi, qword ptr [rbp - 48]
	mov	rsi, rax
	call	_ZNSt6vectorIjN5Botan16secure_allocatorIjEEE15_M_erase_at_endEPj
	mov	dword ptr [rbp - 68], -914687433
	jmp	.LBB15_12
.LBB15_9:                               
	mov	dword ptr [rbp - 68], -2061873385
	jmp	.LBB15_12
.LBB15_10:
	add	rsp, 128
	pop	rbx
	pop	r14
	pop	rbp
	ret
.LBB15_11:                              
	mov	rdi, qword ptr [rbp - 48]
	call	_ZNKSt6vectorIjN5Botan16secure_allocatorIjEEE4sizeEv
	mov	dword ptr [rbp - 68], -752417780
	mov	qword ptr [rbp - 136], rax 
.LBB15_12:                              
	jmp	.LBB15_1
.Lfunc_end15:
	.size	_ZNSt6vectorIjN5Botan16secure_allocatorIjEEE6resizeEm, .Lfunc_end15-_ZNSt6vectorIjN5Botan16secure_allocatorIjEEE6resizeEm
	.cfi_endproc

	.text
	.p2align	4, 0x90         
	.type	_ZN5Botan12_GLOBAL__N_116des_key_scheduleEPjPKh,@function
_ZN5Botan12_GLOBAL__N_116des_key_scheduleEPjPKh: 

	push	rbp
	mov	rbp, rsp
	push	r14
	push	rbx
	mov	eax, 4294967295
	mov	qword ptr [rbp - 24], rdi
	mov	qword ptr [rbp - 32], rsi
	mov	rsi, qword ptr [rbp - 32]
	movzx	ecx, byte ptr [rsi + 7]
	mov	edx, eax
	xor	edx, 128
	mov	r8d, ecx
	xor	r8d, edx
	and	r8d, ecx
	shl	r8d, 20
	mov	rsi, qword ptr [rbp - 32]
	movzx	ecx, byte ptr [rsi + 6]
	xor	ecx, -1
	mov	edx, eax
	xor	edx, 128
	mov	r9d, eax
	xor	r9d, 3112176758
	or	ecx, edx
	or	r9d, 3112176758
	xor	ecx, -1
	and	ecx, r9d
	shl	ecx, 19
	mov	edx, r8d
	xor	edx, -1
	mov	r9d, ecx
	xor	r9d, -1
	mov	r10d, eax
	xor	r10d, 3390877078
	mov	r11d, edx
	and	r11d, -904090218
	and	r8d, r10d
	mov	ebx, r9d
	and	ebx, -904090218
	and	ecx, r10d
	or	r11d, r8d
	or	ebx, ecx
	xor	r11d, ebx
	or	edx, r9d
	xor	edx, -1
	or	r10d, 3390877078
	and	edx, r10d
	or	r11d, edx
	mov	rsi, qword ptr [rbp - 32]
	movzx	ecx, byte ptr [rsi + 5]
	mov	edx, eax
	xor	edx, 128
	mov	r8d, ecx
	xor	r8d, edx
	and	r8d, ecx
	shl	r8d, 18
	mov	ecx, r11d
	and	ecx, r8d
	xor	r11d, r8d
	or	ecx, r11d
	mov	rsi, qword ptr [rbp - 32]
	movzx	edx, byte ptr [rsi + 4]
	xor	edx, -1
	mov	r8d, eax
	xor	r8d, 128
	mov	r9d, eax
	xor	r9d, 1208064291
	or	edx, r8d
	or	r9d, 1208064291
	xor	edx, -1
	and	edx, r9d
	shl	edx, 17
	mov	r8d, ecx
	xor	r8d, -1
	mov	r9d, edx
	xor	r9d, -1
	mov	r10d, eax
	xor	r10d, 2540567048
	mov	r11d, r8d
	and	r11d, -1754400248
	and	ecx, r10d
	mov	ebx, r9d
	and	ebx, -1754400248
	and	edx, r10d
	or	r11d, ecx
	or	ebx, edx
	xor	r11d, ebx
	or	r8d, r9d
	xor	r8d, -1
	or	r10d, 2540567048
	and	r8d, r10d
	or	r11d, r8d
	mov	rsi, qword ptr [rbp - 32]
	movzx	ecx, byte ptr [rsi + 3]
	mov	edx, eax
	xor	edx, 128
	mov	r8d, ecx
	xor	r8d, edx
	and	r8d, ecx
	shl	r8d, 16
	mov	ecx, r11d
	and	ecx, r8d
	xor	r11d, r8d
	or	ecx, r11d
	mov	rsi, qword ptr [rbp - 32]
	movzx	edx, byte ptr [rsi + 2]
	mov	r8d, eax
	xor	r8d, 128
	mov	r9d, edx
	xor	r9d, r8d
	and	r9d, edx
	shl	r9d, 15
	mov	edx, ecx
	and	edx, r9d
	xor	ecx, r9d
	or	edx, ecx
	mov	rsi, qword ptr [rbp - 32]
	movzx	ecx, byte ptr [rsi + 1]
	mov	r8d, eax
	xor	r8d, 128
	mov	r9d, ecx
	xor	r9d, r8d
	and	r9d, ecx
	shl	r9d, 14
	mov	ecx, edx
	and	ecx, r9d
	xor	edx, r9d
	or	ecx, edx
	mov	rsi, qword ptr [rbp - 32]
	movzx	edx, byte ptr [rsi]
	xor	edx, -1
	mov	r8d, eax
	xor	r8d, 128
	mov	r9d, eax
	xor	r9d, 2340697035
	or	edx, r8d
	or	r9d, 2340697035
	xor	edx, -1
	and	edx, r9d
	shl	edx, 13
	mov	r8d, ecx
	xor	r8d, -1
	mov	r9d, edx
	xor	r9d, -1
	mov	r10d, eax
	xor	r10d, 1103090590
	mov	r11d, r8d
	and	r11d, 1103090590
	and	ecx, r10d
	mov	ebx, r9d
	and	ebx, 1103090590
	and	edx, r10d
	or	r11d, ecx
	or	ebx, edx
	xor	r11d, ebx
	or	r8d, r9d
	xor	r8d, -1
	or	r10d, 1103090590
	and	r8d, r10d
	or	r11d, r8d
	mov	rsi, qword ptr [rbp - 32]
	movzx	ecx, byte ptr [rsi + 7]
	xor	ecx, -1
	mov	edx, eax
	xor	edx, 64
	mov	r8d, eax
	xor	r8d, 3200908935
	or	ecx, edx
	or	r8d, 3200908935
	xor	ecx, -1
	and	ecx, r8d
	shl	ecx, 13
	mov	edx, r11d
	xor	edx, -1
	mov	r8d, ecx
	xor	r8d, -1
	mov	r9d, eax
	xor	r9d, 4241642737
	mov	r10d, edx
	and	r10d, -53324559
	and	r11d, r9d
	mov	ebx, r8d
	and	ebx, -53324559
	and	ecx, r9d
	or	r10d, r11d
	or	ebx, ecx
	xor	r10d, ebx
	or	edx, r8d
	xor	edx, -1
	or	r9d, 4241642737
	and	edx, r9d
	or	r10d, edx
	mov	rsi, qword ptr [rbp - 32]
	movzx	ecx, byte ptr [rsi + 6]
	xor	ecx, -1
	mov	edx, eax
	xor	edx, 64
	mov	r8d, eax
	xor	r8d, 1193976701
	or	ecx, edx
	or	r8d, 1193976701
	xor	ecx, -1
	and	ecx, r8d
	shl	ecx, 12
	mov	edx, r10d
	and	edx, ecx
	xor	r10d, ecx
	or	edx, r10d
	mov	rsi, qword ptr [rbp - 32]
	movzx	ecx, byte ptr [rsi + 5]
	mov	r8d, eax
	xor	r8d, 64
	mov	r9d, ecx
	xor	r9d, r8d
	and	r9d, ecx
	shl	r9d, 11
	mov	ecx, edx
	xor	ecx, -1
	mov	r8d, r9d
	xor	r8d, -1
	mov	r10d, eax
	xor	r10d, 3294879757
	mov	r11d, ecx
	and	r11d, -1000087539
	and	edx, r10d
	mov	ebx, r8d
	and	ebx, -1000087539
	and	r9d, r10d
	or	r11d, edx
	or	ebx, r9d
	xor	r11d, ebx
	or	ecx, r8d
	xor	ecx, -1
	or	r10d, 3294879757
	and	ecx, r10d
	or	r11d, ecx
	mov	rsi, qword ptr [rbp - 32]
	movzx	ecx, byte ptr [rsi + 4]
	mov	edx, eax
	xor	edx, 64
	mov	r8d, ecx
	xor	r8d, edx
	and	r8d, ecx
	shl	r8d, 10
	mov	ecx, r11d
	and	ecx, r8d
	xor	r11d, r8d
	or	ecx, r11d
	mov	rsi, qword ptr [rbp - 32]
	movzx	edx, byte ptr [rsi + 3]
	mov	r8d, eax
	xor	r8d, 64
	mov	r9d, edx
	xor	r9d, r8d
	and	r9d, edx
	shl	r9d, 9
	mov	edx, ecx
	and	edx, r9d
	xor	ecx, r9d
	or	edx, ecx
	mov	rsi, qword ptr [rbp - 32]
	movzx	ecx, byte ptr [rsi + 2]
	mov	r8d, eax
	xor	r8d, 64
	mov	r9d, ecx
	xor	r9d, r8d
	and	r9d, ecx
	shl	r9d, 8
	mov	ecx, edx
	xor	ecx, -1
	mov	r8d, r9d
	xor	r8d, -1
	mov	r10d, eax
	xor	r10d, 1349800176
	mov	r11d, ecx
	and	r11d, 1349800176
	and	edx, r10d
	mov	ebx, r8d
	and	ebx, 1349800176
	and	r9d, r10d
	or	r11d, edx
	or	ebx, r9d
	xor	r11d, ebx
	or	ecx, r8d
	xor	ecx, -1
	or	r10d, 1349800176
	and	ecx, r10d
	or	r11d, ecx
	mov	rsi, qword ptr [rbp - 32]
	movzx	ecx, byte ptr [rsi + 1]
	mov	edx, eax
	xor	edx, 64
	mov	r8d, ecx
	xor	r8d, edx
	and	r8d, ecx
	shl	r8d, 7
	mov	ecx, r11d
	xor	ecx, -1
	mov	edx, r8d
	xor	edx, -1
	mov	r9d, eax
	xor	r9d, 563186104
	mov	r10d, ecx
	and	r10d, 563186104
	and	r11d, r9d
	mov	ebx, edx
	and	ebx, 563186104
	and	r8d, r9d
	or	r10d, r11d
	or	ebx, r8d
	xor	r10d, ebx
	or	ecx, edx
	xor	ecx, -1
	or	r9d, 563186104
	and	ecx, r9d
	or	r10d, ecx
	mov	rsi, qword ptr [rbp - 32]
	movzx	ecx, byte ptr [rsi]
	xor	ecx, -1
	mov	edx, eax
	xor	edx, 64
	mov	r8d, eax
	xor	r8d, 1749644661
	or	ecx, edx
	or	r8d, 1749644661
	xor	ecx, -1
	and	ecx, r8d
	shl	ecx, 6
	mov	edx, r10d
	xor	edx, -1
	mov	r8d, ecx
	xor	r8d, -1
	mov	r9d, eax
	xor	r9d, 1105360750
	mov	r11d, edx
	and	r11d, 1105360750
	and	r10d, r9d
	mov	ebx, r8d
	and	ebx, 1105360750
	and	ecx, r9d
	or	r11d, r10d
	or	ebx, ecx
	xor	r11d, ebx
	or	edx, r8d
	xor	edx, -1
	or	r9d, 1105360750
	and	edx, r9d
	or	r11d, edx
	mov	rsi, qword ptr [rbp - 32]
	movzx	ecx, byte ptr [rsi + 7]
	mov	edx, eax
	xor	edx, 32
	mov	r8d, ecx
	xor	r8d, edx
	and	r8d, ecx
	shl	r8d, 6
	mov	ecx, r11d
	xor	ecx, -1
	mov	edx, r8d
	xor	edx, -1
	mov	r9d, eax
	xor	r9d, 2676212601
	mov	r10d, ecx
	and	r10d, -1618754695
	and	r11d, r9d
	mov	ebx, edx
	and	ebx, -1618754695
	and	r8d, r9d
	or	r10d, r11d
	or	ebx, r8d
	xor	r10d, ebx
	or	ecx, edx
	xor	ecx, -1
	or	r9d, 2676212601
	and	ecx, r9d
	or	r10d, ecx
	mov	rsi, qword ptr [rbp - 32]
	movzx	ecx, byte ptr [rsi + 6]
	mov	edx, eax
	xor	edx, 32
	mov	r8d, ecx
	xor	r8d, edx
	and	r8d, ecx
	shl	r8d, 5
	mov	ecx, r10d
	and	ecx, r8d
	xor	r10d, r8d
	or	ecx, r10d
	mov	rsi, qword ptr [rbp - 32]
	movzx	edx, byte ptr [rsi + 5]
	mov	r8d, eax
	xor	r8d, 32
	mov	r9d, edx
	xor	r9d, r8d
	and	r9d, edx
	shl	r9d, 4
	mov	edx, ecx
	xor	edx, -1
	mov	r8d, r9d
	xor	r8d, -1
	mov	r10d, eax
	xor	r10d, 3065329879
	mov	r11d, edx
	and	r11d, -1229637417
	and	ecx, r10d
	mov	ebx, r8d
	and	ebx, -1229637417
	and	r9d, r10d
	or	r11d, ecx
	or	ebx, r9d
	xor	r11d, ebx
	or	edx, r8d
	xor	edx, -1
	or	r10d, 3065329879
	and	edx, r10d
	or	r11d, edx
	mov	rsi, qword ptr [rbp - 32]
	movzx	ecx, byte ptr [rsi + 4]
	xor	ecx, -1
	mov	edx, eax
	xor	edx, 32
	mov	r8d, eax
	xor	r8d, 4165518480
	or	ecx, edx
	or	r8d, 4165518480
	xor	ecx, -1
	and	ecx, r8d
	shl	ecx, 3
	mov	edx, r11d
	xor	edx, -1
	mov	r8d, ecx
	xor	r8d, -1
	mov	r9d, eax
	xor	r9d, 2456266595
	mov	r10d, edx
	and	r10d, -1838700701
	and	r11d, r9d
	mov	ebx, r8d
	and	ebx, -1838700701
	and	ecx, r9d
	or	r10d, r11d
	or	ebx, ecx
	xor	r10d, ebx
	or	edx, r8d
	xor	edx, -1
	or	r9d, 2456266595
	and	edx, r9d
	or	r10d, edx
	mov	rsi, qword ptr [rbp - 32]
	movzx	ecx, byte ptr [rsi + 3]
	xor	ecx, -1
	mov	edx, eax
	xor	edx, 32
	mov	r8d, eax
	xor	r8d, 1075962597
	or	ecx, edx
	or	r8d, 1075962597
	xor	ecx, -1
	and	ecx, r8d
	shl	ecx, 2
	mov	edx, r10d
	and	edx, ecx
	xor	r10d, ecx
	or	edx, r10d
	mov	rsi, qword ptr [rbp - 32]
	movzx	ecx, byte ptr [rsi + 2]
	xor	ecx, -1
	mov	r8d, eax
	xor	r8d, 32
	mov	r9d, eax
	xor	r9d, 2280847728
	or	ecx, r8d
	or	r9d, 2280847728
	xor	ecx, -1
	and	ecx, r9d
	shl	ecx, 1
	mov	r8d, edx
	and	r8d, ecx
	xor	edx, ecx
	or	r8d, edx
	mov	rsi, qword ptr [rbp - 32]
	movzx	ecx, byte ptr [rsi + 1]
	xor	ecx, -1
	mov	edx, eax
	xor	edx, 32
	mov	r9d, eax
	xor	r9d, 1312289423
	or	ecx, edx
	or	r9d, 1312289423
	xor	ecx, -1
	and	ecx, r9d
	mov	edx, r8d
	xor	edx, -1
	mov	r9d, ecx
	xor	r9d, -1
	mov	r10d, eax
	xor	r10d, 1692237622
	mov	r11d, edx
	and	r11d, 1692237622
	and	r8d, r10d
	mov	ebx, r9d
	and	ebx, 1692237622
	and	ecx, r10d
	or	r11d, r8d
	or	ebx, ecx
	xor	r11d, ebx
	or	edx, r9d
	xor	edx, -1
	or	r10d, 1692237622
	and	edx, r10d
	or	r11d, edx
	mov	rsi, qword ptr [rbp - 32]
	movzx	ecx, byte ptr [rsi]
	mov	edx, eax
	xor	edx, 32
	mov	r8d, ecx
	xor	r8d, edx
	and	r8d, ecx
	sar	r8d, 1
	mov	ecx, r11d
	xor	ecx, -1
	mov	edx, r8d
	xor	edx, -1
	mov	r9d, eax
	xor	r9d, 3482730825
	mov	r10d, ecx
	and	r10d, -812236471
	and	r11d, r9d
	mov	ebx, edx
	and	ebx, -812236471
	and	r8d, r9d
	or	r10d, r11d
	or	ebx, r8d
	xor	r10d, ebx
	or	ecx, edx
	xor	ecx, -1
	or	r9d, 3482730825
	and	ecx, r9d
	or	r10d, ecx
	mov	rsi, qword ptr [rbp - 32]
	movzx	ecx, byte ptr [rsi + 7]
	mov	edx, eax
	xor	edx, 16
	mov	r8d, ecx
	xor	r8d, edx
	and	r8d, ecx
	sar	r8d, 1
	mov	ecx, r10d
	and	ecx, r8d
	xor	r10d, r8d
	or	ecx, r10d
	mov	rsi, qword ptr [rbp - 32]
	movzx	edx, byte ptr [rsi + 6]
	mov	r8d, eax
	xor	r8d, 16
	mov	r9d, edx
	xor	r9d, r8d
	and	r9d, edx
	sar	r9d, 2
	mov	edx, ecx
	and	edx, r9d
	xor	ecx, r9d
	or	edx, ecx
	mov	rsi, qword ptr [rbp - 32]
	movzx	ecx, byte ptr [rsi + 5]
	mov	r8d, eax
	xor	r8d, 16
	mov	r9d, ecx
	xor	r9d, r8d
	and	r9d, ecx
	sar	r9d, 3
	mov	ecx, edx
	and	ecx, r9d
	xor	edx, r9d
	or	ecx, edx
	mov	rsi, qword ptr [rbp - 32]
	movzx	edx, byte ptr [rsi + 4]
	xor	edx, -1
	mov	r8d, eax
	xor	r8d, 16
	mov	r9d, eax
	xor	r9d, 249901543
	or	edx, r8d
	or	r9d, 249901543
	xor	edx, -1
	and	edx, r9d
	sar	edx, 4
	mov	r8d, ecx
	and	r8d, edx
	xor	ecx, edx
	or	r8d, ecx
	mov	dword ptr [rbp - 36], r8d
	mov	rsi, qword ptr [rbp - 32]
	movzx	ecx, byte ptr [rsi + 7]
	xor	ecx, -1
	mov	edx, eax
	xor	edx, 2
	mov	r8d, eax
	xor	r8d, 3898706123
	or	ecx, edx
	or	r8d, 3898706123
	xor	ecx, -1
	and	ecx, r8d
	shl	ecx, 26
	mov	rsi, qword ptr [rbp - 32]
	movzx	edx, byte ptr [rsi + 6]
	xor	edx, -1
	mov	r8d, eax
	xor	r8d, 2
	mov	r9d, eax
	xor	r9d, 3198587136
	or	edx, r8d
	or	r9d, 3198587136
	xor	edx, -1
	and	edx, r9d
	shl	edx, 25
	mov	r8d, ecx
	xor	r8d, -1
	mov	r9d, edx
	xor	r9d, -1
	mov	r10d, eax
	xor	r10d, 1246162903
	mov	r11d, r8d
	and	r11d, 1246162903
	and	ecx, r10d
	mov	ebx, r9d
	and	ebx, 1246162903
	and	edx, r10d
	or	r11d, ecx
	or	ebx, edx
	xor	r11d, ebx
	or	r8d, r9d
	xor	r8d, -1
	or	r10d, 1246162903
	and	r8d, r10d
	or	r11d, r8d
	mov	rsi, qword ptr [rbp - 32]
	movzx	ecx, byte ptr [rsi + 5]
	xor	ecx, -1
	mov	edx, eax
	xor	edx, 2
	mov	r8d, eax
	xor	r8d, 3628813345
	or	ecx, edx
	or	r8d, 3628813345
	xor	ecx, -1
	and	ecx, r8d
	shl	ecx, 24
	mov	edx, r11d
	and	edx, ecx
	xor	r11d, ecx
	or	edx, r11d
	mov	rsi, qword ptr [rbp - 32]
	movzx	ecx, byte ptr [rsi + 4]
	xor	ecx, -1
	mov	r8d, eax
	xor	r8d, 2
	mov	r9d, eax
	xor	r9d, 4174643313
	or	ecx, r8d
	or	r9d, 4174643313
	xor	ecx, -1
	and	ecx, r9d
	shl	ecx, 23
	mov	r8d, edx
	and	r8d, ecx
	xor	edx, ecx
	or	r8d, edx
	mov	rsi, qword ptr [rbp - 32]
	movzx	ecx, byte ptr [rsi + 3]
	mov	edx, eax
	xor	edx, 2
	mov	r9d, ecx
	xor	r9d, edx
	and	r9d, ecx
	shl	r9d, 22
	mov	ecx, r8d
	xor	ecx, -1
	mov	edx, r9d
	xor	edx, -1
	mov	r10d, eax
	xor	r10d, 1820094472
	mov	r11d, ecx
	and	r11d, 1820094472
	and	r8d, r10d
	mov	ebx, edx
	and	ebx, 1820094472
	and	r9d, r10d
	or	r11d, r8d
	or	ebx, r9d
	xor	r11d, ebx
	or	ecx, edx
	xor	ecx, -1
	or	r10d, 1820094472
	and	ecx, r10d
	or	r11d, ecx
	mov	rsi, qword ptr [rbp - 32]
	movzx	ecx, byte ptr [rsi + 2]
	mov	edx, eax
	xor	edx, 2
	mov	r8d, ecx
	xor	r8d, edx
	and	r8d, ecx
	shl	r8d, 21
	mov	ecx, r11d
	and	ecx, r8d
	xor	r11d, r8d
	or	ecx, r11d
	mov	rsi, qword ptr [rbp - 32]
	movzx	edx, byte ptr [rsi + 1]
	xor	edx, -1
	mov	r8d, eax
	xor	r8d, 2
	mov	r9d, eax
	xor	r9d, 1655010077
	or	edx, r8d
	or	r9d, 1655010077
	xor	edx, -1
	and	edx, r9d
	shl	edx, 20
	mov	r8d, ecx
	xor	r8d, -1
	mov	r9d, edx
	xor	r9d, -1
	mov	r10d, eax
	xor	r10d, 3080084383
	mov	r11d, r8d
	and	r11d, -1214882913
	and	ecx, r10d
	mov	ebx, r9d
	and	ebx, -1214882913
	and	edx, r10d
	or	r11d, ecx
	or	ebx, edx
	xor	r11d, ebx
	or	r8d, r9d
	xor	r8d, -1
	or	r10d, 3080084383
	and	r8d, r10d
	or	r11d, r8d
	mov	rsi, qword ptr [rbp - 32]
	movzx	ecx, byte ptr [rsi]
	xor	ecx, -1
	mov	edx, eax
	xor	edx, 2
	mov	r8d, eax
	xor	r8d, 2097495177
	or	ecx, edx
	or	r8d, 2097495177
	xor	ecx, -1
	and	ecx, r8d
	shl	ecx, 19
	mov	edx, r11d
	and	edx, ecx
	xor	r11d, ecx
	or	edx, r11d
	mov	rsi, qword ptr [rbp - 32]
	movzx	ecx, byte ptr [rsi + 7]
	mov	r8d, eax
	xor	r8d, 4
	mov	r9d, ecx
	xor	r9d, r8d
	and	r9d, ecx
	shl	r9d, 17
	mov	ecx, edx
	and	ecx, r9d
	xor	edx, r9d
	or	ecx, edx
	mov	rsi, qword ptr [rbp - 32]
	movzx	edx, byte ptr [rsi + 6]
	xor	edx, -1
	mov	r8d, eax
	xor	r8d, 4
	mov	r9d, eax
	xor	r9d, 1585783262
	or	edx, r8d
	or	r9d, 1585783262
	xor	edx, -1
	and	edx, r9d
	shl	edx, 16
	mov	r8d, ecx
	xor	r8d, -1
	mov	r9d, edx
	xor	r9d, -1
	mov	r10d, eax
	xor	r10d, 2225537272
	mov	r11d, r8d
	and	r11d, -2069430024
	and	ecx, r10d
	mov	ebx, r9d
	and	ebx, -2069430024
	and	edx, r10d
	or	r11d, ecx
	or	ebx, edx
	xor	r11d, ebx
	or	r8d, r9d
	xor	r8d, -1
	or	r10d, 2225537272
	and	r8d, r10d
	or	r11d, r8d
	mov	rsi, qword ptr [rbp - 32]
	movzx	ecx, byte ptr [rsi + 5]
	xor	ecx, -1
	mov	edx, eax
	xor	edx, 4
	mov	r8d, eax
	xor	r8d, 234367236
	or	ecx, edx
	or	r8d, 234367236
	xor	ecx, -1
	and	ecx, r8d
	shl	ecx, 15
	mov	edx, r11d
	xor	edx, -1
	mov	r8d, ecx
	xor	r8d, -1
	mov	r9d, eax
	xor	r9d, 3067546686
	mov	r10d, edx
	and	r10d, -1227420610
	and	r11d, r9d
	mov	ebx, r8d
	and	ebx, -1227420610
	and	ecx, r9d
	or	r10d, r11d
	or	ebx, ecx
	xor	r10d, ebx
	or	edx, r8d
	xor	edx, -1
	or	r9d, 3067546686
	and	edx, r9d
	or	r10d, edx
	mov	rsi, qword ptr [rbp - 32]
	movzx	ecx, byte ptr [rsi + 4]
	mov	edx, eax
	xor	edx, 4
	mov	r8d, ecx
	xor	r8d, edx
	and	r8d, ecx
	shl	r8d, 14
	mov	ecx, r10d
	xor	ecx, -1
	mov	edx, r8d
	xor	edx, -1
	mov	r9d, eax
	xor	r9d, 3795953557
	mov	r11d, ecx
	and	r11d, -499013739
	and	r10d, r9d
	mov	ebx, edx
	and	ebx, -499013739
	and	r8d, r9d
	or	r11d, r10d
	or	ebx, r8d
	xor	r11d, ebx
	or	ecx, edx
	xor	ecx, -1
	or	r9d, 3795953557
	and	ecx, r9d
	or	r11d, ecx
	mov	rsi, qword ptr [rbp - 32]
	movzx	ecx, byte ptr [rsi + 3]
	mov	edx, eax
	xor	edx, 4
	mov	r8d, ecx
	xor	r8d, edx
	and	r8d, ecx
	shl	r8d, 13
	mov	ecx, r11d
	xor	ecx, -1
	mov	edx, r8d
	xor	edx, -1
	mov	r9d, eax
	xor	r9d, 962553799
	mov	r10d, ecx
	and	r10d, 962553799
	and	r11d, r9d
	mov	ebx, edx
	and	ebx, 962553799
	and	r8d, r9d
	or	r10d, r11d
	or	ebx, r8d
	xor	r10d, ebx
	or	ecx, edx
	xor	ecx, -1
	or	r9d, 962553799
	and	ecx, r9d
	or	r10d, ecx
	mov	rsi, qword ptr [rbp - 32]
	movzx	ecx, byte ptr [rsi + 2]
	mov	edx, eax
	xor	edx, 4
	mov	r8d, ecx
	xor	r8d, edx
	and	r8d, ecx
	shl	r8d, 12
	mov	ecx, r10d
	xor	ecx, -1
	mov	edx, r8d
	xor	edx, -1
	mov	r9d, eax
	xor	r9d, 34114360
	mov	r11d, ecx
	and	r11d, 34114360
	and	r10d, r9d
	mov	ebx, edx
	and	ebx, 34114360
	and	r8d, r9d
	or	r11d, r10d
	or	ebx, r8d
	xor	r11d, ebx
	or	ecx, edx
	xor	ecx, -1
	or	r9d, 34114360
	and	ecx, r9d
	or	r11d, ecx
	mov	rsi, qword ptr [rbp - 32]
	movzx	ecx, byte ptr [rsi + 1]
	xor	ecx, -1
	mov	edx, eax
	xor	edx, 4
	mov	r8d, eax
	xor	r8d, 1868360531
	or	ecx, edx
	or	r8d, 1868360531
	xor	ecx, -1
	and	ecx, r8d
	shl	ecx, 11
	mov	edx, r11d
	and	edx, ecx
	xor	r11d, ecx
	or	edx, r11d
	mov	rsi, qword ptr [rbp - 32]
	movzx	ecx, byte ptr [rsi]
	mov	r8d, eax
	xor	r8d, 4
	mov	r9d, ecx
	xor	r9d, r8d
	and	r9d, ecx
	shl	r9d, 10
	mov	ecx, edx
	xor	ecx, -1
	mov	r8d, r9d
	xor	r8d, -1
	mov	r10d, eax
	xor	r10d, 103945421
	mov	r11d, ecx
	and	r11d, 103945421
	and	edx, r10d
	mov	ebx, r8d
	and	ebx, 103945421
	and	r9d, r10d
	or	r11d, edx
	or	ebx, r9d
	xor	r11d, ebx
	or	ecx, r8d
	xor	ecx, -1
	or	r10d, 103945421
	and	ecx, r10d
	or	r11d, ecx
	mov	rsi, qword ptr [rbp - 32]
	movzx	ecx, byte ptr [rsi + 7]
	xor	ecx, -1
	mov	edx, eax
	xor	edx, 8
	mov	r8d, eax
	xor	r8d, 2402170661
	or	ecx, edx
	or	r8d, 2402170661
	xor	ecx, -1
	and	ecx, r8d
	shl	ecx, 8
	mov	edx, r11d
	and	edx, ecx
	xor	r11d, ecx
	or	edx, r11d
	mov	rsi, qword ptr [rbp - 32]
	movzx	ecx, byte ptr [rsi + 6]
	xor	ecx, -1
	mov	r8d, eax
	xor	r8d, 8
	mov	r9d, eax
	xor	r9d, 2476975250
	or	ecx, r8d
	or	r9d, 2476975250
	xor	ecx, -1
	and	ecx, r9d
	shl	ecx, 7
	mov	r8d, edx
	xor	r8d, -1
	mov	r9d, ecx
	xor	r9d, -1
	mov	r10d, eax
	xor	r10d, 525287939
	mov	r11d, r8d
	and	r11d, 525287939
	and	edx, r10d
	mov	ebx, r9d
	and	ebx, 525287939
	and	ecx, r10d
	or	r11d, edx
	or	ebx, ecx
	xor	r11d, ebx
	or	r8d, r9d
	xor	r8d, -1
	or	r10d, 525287939
	and	r8d, r10d
	or	r11d, r8d
	mov	rsi, qword ptr [rbp - 32]
	movzx	ecx, byte ptr [rsi + 5]
	xor	ecx, -1
	mov	edx, eax
	xor	edx, 8
	mov	r8d, eax
	xor	r8d, 3315918842
	or	ecx, edx
	or	r8d, 3315918842
	xor	ecx, -1
	and	ecx, r8d
	shl	ecx, 6
	mov	edx, r11d
	xor	edx, -1
	mov	r8d, ecx
	xor	r8d, -1
	mov	r9d, eax
	xor	r9d, 3613065074
	mov	r10d, edx
	and	r10d, -681902222
	and	r11d, r9d
	mov	ebx, r8d
	and	ebx, -681902222
	and	ecx, r9d
	or	r10d, r11d
	or	ebx, ecx
	xor	r10d, ebx
	or	edx, r8d
	xor	edx, -1
	or	r9d, 3613065074
	and	edx, r9d
	or	r10d, edx
	mov	rsi, qword ptr [rbp - 32]
	movzx	ecx, byte ptr [rsi + 4]
	xor	ecx, -1
	mov	edx, eax
	xor	edx, 8
	mov	r8d, eax
	xor	r8d, 4240429252
	or	ecx, edx
	or	r8d, 4240429252
	xor	ecx, -1
	and	ecx, r8d
	shl	ecx, 5
	mov	edx, r10d
	xor	edx, -1
	mov	r8d, ecx
	xor	r8d, -1
	mov	r9d, eax
	xor	r9d, 4238998803
	mov	r11d, edx
	and	r11d, -55968493
	and	r10d, r9d
	mov	ebx, r8d
	and	ebx, -55968493
	and	ecx, r9d
	or	r11d, r10d
	or	ebx, ecx
	xor	r11d, ebx
	or	edx, r8d
	xor	edx, -1
	or	r9d, 4238998803
	and	edx, r9d
	or	r11d, edx
	mov	rsi, qword ptr [rbp - 32]
	movzx	ecx, byte ptr [rsi + 3]
	xor	ecx, -1
	mov	edx, eax
	xor	edx, 8
	mov	r8d, eax
	xor	r8d, 3847399430
	or	ecx, edx
	or	r8d, 3847399430
	xor	ecx, -1
	and	ecx, r8d
	shl	ecx, 4
	mov	edx, r11d
	and	edx, ecx
	xor	r11d, ecx
	or	edx, r11d
	mov	rsi, qword ptr [rbp - 32]
	movzx	ecx, byte ptr [rsi + 2]
	mov	r8d, eax
	xor	r8d, 8
	mov	r9d, ecx
	xor	r9d, r8d
	and	r9d, ecx
	shl	r9d, 3
	mov	ecx, edx
	xor	ecx, -1
	mov	r8d, r9d
	xor	r8d, -1
	mov	r10d, eax
	xor	r10d, 2060065564
	mov	r11d, ecx
	and	r11d, 2060065564
	and	edx, r10d
	mov	ebx, r8d
	and	ebx, 2060065564
	and	r9d, r10d
	or	r11d, edx
	or	ebx, r9d
	xor	r11d, ebx
	or	ecx, r8d
	xor	ecx, -1
	or	r10d, 2060065564
	and	ecx, r10d
	or	r11d, ecx
	mov	rsi, qword ptr [rbp - 32]
	movzx	ecx, byte ptr [rsi + 1]
	xor	ecx, -1
	mov	edx, eax
	xor	edx, 8
	mov	r8d, eax
	xor	r8d, 4252533717
	or	ecx, edx
	or	r8d, 4252533717
	xor	ecx, -1
	and	ecx, r8d
	shl	ecx, 2
	mov	edx, r11d
	and	edx, ecx
	xor	r11d, ecx
	or	edx, r11d
	mov	rsi, qword ptr [rbp - 32]
	movzx	ecx, byte ptr [rsi]
	mov	r8d, eax
	xor	r8d, 8
	mov	r9d, ecx
	xor	r9d, r8d
	and	r9d, ecx
	shl	r9d, 1
	mov	ecx, edx
	xor	ecx, -1
	mov	r8d, r9d
	xor	r8d, -1
	mov	r10d, eax
	xor	r10d, 1700631340
	mov	r11d, ecx
	and	r11d, 1700631340
	and	edx, r10d
	mov	ebx, r8d
	and	ebx, 1700631340
	and	r9d, r10d
	or	r11d, edx
	or	ebx, r9d
	xor	r11d, ebx
	or	ecx, r8d
	xor	ecx, -1
	or	r10d, 1700631340
	and	ecx, r10d
	or	r11d, ecx
	mov	rsi, qword ptr [rbp - 32]
	movzx	ecx, byte ptr [rsi + 3]
	xor	ecx, -1
	mov	edx, eax
	xor	edx, 16
	mov	r8d, eax
	xor	r8d, 2015625550
	or	ecx, edx
	or	r8d, 2015625550
	xor	ecx, -1
	and	ecx, r8d
	sar	ecx, 1
	mov	edx, r11d
	and	edx, ecx
	xor	r11d, ecx
	or	edx, r11d
	mov	rsi, qword ptr [rbp - 32]
	movzx	ecx, byte ptr [rsi + 2]
	mov	r8d, eax
	xor	r8d, 16
	mov	r9d, ecx
	xor	r9d, r8d
	and	r9d, ecx
	sar	r9d, 2
	mov	ecx, edx
	xor	ecx, -1
	mov	r8d, r9d
	xor	r8d, -1
	mov	r10d, eax
	xor	r10d, 722558764
	mov	r11d, ecx
	and	r11d, 722558764
	and	edx, r10d
	mov	ebx, r8d
	and	ebx, 722558764
	and	r9d, r10d
	or	r11d, edx
	or	ebx, r9d
	xor	r11d, ebx
	or	ecx, r8d
	xor	ecx, -1
	or	r10d, 722558764
	and	ecx, r10d
	or	r11d, ecx
	mov	rsi, qword ptr [rbp - 32]
	movzx	ecx, byte ptr [rsi + 1]
	xor	ecx, -1
	mov	edx, eax
	xor	edx, 16
	mov	r8d, eax
	xor	r8d, 1069857398
	or	ecx, edx
	or	r8d, 1069857398
	xor	ecx, -1
	and	ecx, r8d
	sar	ecx, 3
	mov	edx, r11d
	and	edx, ecx
	xor	r11d, ecx
	or	edx, r11d
	mov	rsi, qword ptr [rbp - 32]
	movzx	ecx, byte ptr [rsi]
	xor	ecx, -1
	mov	r8d, eax
	xor	r8d, 16
	xor	eax, 3778985612
	or	ecx, r8d
	or	eax, 3778985612
	xor	ecx, -1
	and	ecx, eax
	sar	ecx, 4
	mov	eax, edx
	and	eax, ecx
	xor	edx, ecx
	or	eax, edx
	mov	dword ptr [rbp - 40], eax
	mov	qword ptr [rbp - 48], 0
	mov	dword ptr [rbp - 52], 1184707048
.LBB16_1:                               
	mov	eax, dword ptr [rbp - 52]
	mov	ecx, eax
	sub	ecx, -1738373375
	mov	dword ptr [rbp - 56], eax 
	mov	dword ptr [rbp - 60], ecx 
	je	.LBB16_6
	jmp	.LBB16_8
.LBB16_8:                               
	mov	eax, dword ptr [rbp - 56] 
	sub	eax, -1143885747
	mov	dword ptr [rbp - 64], eax 
	je	.LBB16_4
	jmp	.LBB16_9
.LBB16_9:                               
	mov	eax, dword ptr [rbp - 56] 
	sub	eax, -837706987
	mov	dword ptr [rbp - 68], eax 
	je	.LBB16_5
	jmp	.LBB16_10
.LBB16_10:                              
	mov	eax, dword ptr [rbp - 56] 
	sub	eax, 1184707048
	mov	dword ptr [rbp - 72], eax 
	je	.LBB16_3
	jmp	.LBB16_2
.LBB16_2:                               
	jmp	.LBB16_7
.LBB16_3:                               
	mov	eax, 2556593921
	mov	ecx, 3151081549
	cmp	qword ptr [rbp - 48], 16
	cmovne	eax, ecx
	mov	dword ptr [rbp - 52], eax
	jmp	.LBB16_7
.LBB16_4:                               
	movabs	rax, 1025894950109328645
	mov	ecx, 4294967295
	xor	edx, edx
	mov	esi, 28
	mov	edi, dword ptr [rbp - 36]
	mov	r8, qword ptr [rbp - 48]
	movzx	r9d, byte ptr [r8 + _ZZN5Botan12_GLOBAL__N_116des_key_scheduleEPjPKhE3ROT]
	mov	dword ptr [rbp - 76], ecx 
	mov	ecx, r9d

	shl	edi, cl
	mov	r9d, dword ptr [rbp - 36]
	mov	r8, qword ptr [rbp - 48]
	movzx	r10d, byte ptr [r8 + _ZZN5Botan12_GLOBAL__N_116des_key_scheduleEPjPKhE3ROT]
	sub	esi, 1008367239
	sub	esi, r10d
	add	esi, 1008367239
	mov	ecx, esi

	shr	r9d, cl
	mov	esi, edi
	and	esi, r9d
	xor	edi, r9d
	or	esi, edi
	xor	esi, -1
	mov	edi, dword ptr [rbp - 76] 
	xor	edi, 268435455
	mov	r9d, dword ptr [rbp - 76] 
	xor	r9d, 858079175
	or	esi, edi
	or	r9d, 858079175
	xor	esi, -1
	and	esi, r9d
	mov	dword ptr [rbp - 36], esi
	mov	esi, dword ptr [rbp - 40]
	mov	r8, qword ptr [rbp - 48]
	movzx	ecx, byte ptr [r8 + _ZZN5Botan12_GLOBAL__N_116des_key_scheduleEPjPKhE3ROT]

	shl	esi, cl
	mov	edi, dword ptr [rbp - 40]
	mov	r8, qword ptr [rbp - 48]
	movzx	r9d, byte ptr [r8 + _ZZN5Botan12_GLOBAL__N_116des_key_scheduleEPjPKhE3ROT]
	sub	edx, r9d
	add	edx, 28
	mov	ecx, edx

	shr	edi, cl
	mov	edx, esi
	and	edx, edi
	xor	esi, edi
	or	edx, esi
	mov	esi, dword ptr [rbp - 76] 
	xor	esi, 268435455
	mov	edi, edx
	xor	edi, esi
	and	edi, edx
	mov	dword ptr [rbp - 40], edi
	mov	edx, dword ptr [rbp - 36]
	xor	edx, -1
	mov	esi, dword ptr [rbp - 76] 
	xor	esi, 16
	mov	edi, dword ptr [rbp - 76] 
	xor	edi, 1322871588
	or	edx, esi
	or	edi, 1322871588
	xor	edx, -1
	and	edx, edi
	shl	edx, 22
	mov	esi, dword ptr [rbp - 36]
	mov	edi, dword ptr [rbp - 76] 
	xor	edi, 2048
	mov	r9d, esi
	xor	r9d, edi
	and	r9d, esi
	shl	r9d, 17
	mov	esi, edx
	and	esi, r9d
	xor	edx, r9d
	or	esi, edx
	mov	edx, dword ptr [rbp - 36]
	xor	edx, -1
	mov	edi, dword ptr [rbp - 76] 
	xor	edi, 32
	mov	r9d, dword ptr [rbp - 76] 
	xor	r9d, 944806218
	or	edx, edi
	or	r9d, 944806218
	xor	edx, -1
	and	edx, r9d
	shl	edx, 16
	mov	edi, esi
	xor	edi, -1
	mov	r9d, edx
	xor	r9d, -1
	mov	r10d, dword ptr [rbp - 76] 
	xor	r10d, 1687739229
	mov	r11d, edi
	and	r11d, 1687739229
	and	esi, r10d
	mov	ebx, r9d
	and	ebx, 1687739229
	and	edx, r10d
	or	r11d, esi
	or	ebx, edx
	xor	r11d, ebx
	or	edi, r9d
	xor	edi, -1
	or	r10d, 1687739229
	and	edi, r10d
	or	r11d, edi
	mov	edx, dword ptr [rbp - 36]
	xor	edx, -1
	mov	esi, dword ptr [rbp - 76] 
	xor	esi, 16388
	mov	edi, dword ptr [rbp - 76] 
	xor	edi, 3699127578
	or	edx, esi
	or	edi, 3699127578
	xor	edx, -1
	and	edx, edi
	shl	edx, 15
	mov	esi, r11d
	xor	esi, -1
	mov	edi, edx
	xor	edi, -1
	mov	r9d, dword ptr [rbp - 76] 
	xor	r9d, 2368441753
	mov	r10d, esi
	and	r10d, -1926525543
	and	r11d, r9d
	mov	ebx, edi
	and	ebx, -1926525543
	and	edx, r9d
	or	r10d, r11d
	or	ebx, edx
	xor	r10d, ebx
	or	esi, edi
	xor	esi, -1
	or	r9d, 2368441753
	and	esi, r9d
	or	r10d, esi
	mov	edx, dword ptr [rbp - 36]
	xor	edx, -1
	mov	esi, dword ptr [rbp - 76] 
	xor	esi, 512
	mov	edi, dword ptr [rbp - 76] 
	xor	edi, 2338171225
	or	edx, esi
	or	edi, 2338171225
	xor	edx, -1
	and	edx, edi
	shl	edx, 11
	mov	esi, r10d
	and	esi, edx
	xor	r10d, edx
	or	esi, r10d
	mov	edx, dword ptr [rbp - 36]
	xor	edx, -1
	mov	edi, dword ptr [rbp - 76] 
	xor	edi, 131072
	mov	r9d, dword ptr [rbp - 76] 
	xor	r9d, 3279998323
	or	edx, edi
	or	r9d, 3279998323
	xor	edx, -1
	and	edx, r9d
	shl	edx, 10
	mov	edi, esi
	xor	edi, -1
	mov	r9d, edx
	xor	r9d, -1
	mov	r10d, dword ptr [rbp - 76] 
	xor	r10d, 912341386
	mov	r11d, edi
	and	r11d, 912341386
	and	esi, r10d
	mov	ebx, r9d
	and	ebx, 912341386
	and	edx, r10d
	or	r11d, esi
	or	ebx, edx
	xor	r11d, ebx
	or	edi, r9d
	xor	edi, -1
	or	r10d, 912341386
	and	edi, r10d
	or	r11d, edi
	mov	edx, dword ptr [rbp - 36]
	mov	esi, dword ptr [rbp - 76] 
	xor	esi, 16777216
	mov	edi, edx
	xor	edi, esi
	and	edi, edx
	shr	edi, 6
	mov	edx, r11d
	and	edx, edi
	xor	r11d, edi
	or	edx, r11d
	mov	esi, dword ptr [rbp - 36]
	mov	edi, dword ptr [rbp - 76] 
	xor	edi, 1048576
	mov	r9d, esi
	xor	r9d, edi
	and	r9d, esi
	shr	r9d, 4
	mov	esi, edx
	xor	esi, -1
	mov	edi, r9d
	xor	edi, -1
	mov	r10d, dword ptr [rbp - 76] 
	xor	r10d, 3332551294
	mov	r11d, esi
	and	r11d, -962416002
	and	edx, r10d
	mov	ebx, edi
	and	ebx, -962416002
	and	r9d, r10d
	or	r11d, edx
	or	ebx, r9d
	xor	r11d, ebx
	or	esi, edi
	xor	esi, -1
	or	r10d, 3332551294
	and	esi, r10d
	or	r11d, esi
	mov	edx, dword ptr [rbp - 36]
	xor	edx, -1
	mov	esi, dword ptr [rbp - 76] 
	xor	esi, 65536
	mov	edi, dword ptr [rbp - 76] 
	xor	edi, 456840142
	or	edx, esi
	or	edi, 456840142
	xor	edx, -1
	and	edx, edi
	shl	edx, 3
	mov	esi, r11d
	and	esi, edx
	xor	r11d, edx
	or	esi, r11d
	mov	edx, dword ptr [rbp - 36]
	xor	edx, -1
	mov	edi, dword ptr [rbp - 76] 
	xor	edi, 134217728
	mov	r9d, dword ptr [rbp - 76] 
	xor	r9d, 3127831172
	or	edx, edi
	or	r9d, 3127831172
	xor	edx, -1
	and	edx, r9d
	shr	edx, 2
	mov	edi, esi
	xor	edi, -1
	mov	r9d, edx
	xor	r9d, -1
	mov	r10d, dword ptr [rbp - 76] 
	xor	r10d, 274672140
	mov	r11d, edi
	and	r11d, 274672140
	and	esi, r10d
	mov	ebx, r9d
	and	ebx, 274672140
	and	edx, r10d
	or	r11d, esi
	or	ebx, edx
	xor	r11d, ebx
	or	edi, r9d
	xor	edi, -1
	or	r10d, 274672140
	and	edi, r10d
	or	r11d, edi
	mov	edx, dword ptr [rbp - 36]
	xor	edx, -1
	mov	esi, dword ptr [rbp - 76] 
	xor	esi, 8388608
	mov	edi, dword ptr [rbp - 76] 
	xor	edi, 77846509
	or	edx, esi
	or	edi, 77846509
	xor	edx, -1
	and	edx, edi
	shl	edx, 1
	mov	esi, r11d
	and	esi, edx
	xor	r11d, edx
	or	esi, r11d
	mov	edx, dword ptr [rbp - 40]
	mov	edi, dword ptr [rbp - 76] 
	xor	edi, 16
	mov	r9d, edx
	xor	r9d, edi
	and	r9d, edx
	shl	r9d, 8
	mov	edx, esi
	and	edx, r9d
	xor	esi, r9d
	or	edx, esi
	mov	esi, dword ptr [rbp - 40]
	mov	edi, dword ptr [rbp - 76] 
	xor	edi, 2
	mov	r9d, esi
	xor	r9d, edi
	and	r9d, esi
	shl	r9d, 7
	mov	esi, edx
	xor	esi, -1
	mov	edi, r9d
	xor	edi, -1
	mov	r10d, dword ptr [rbp - 76] 
	xor	r10d, 2314551565
	mov	r11d, esi
	and	r11d, -1980415731
	and	edx, r10d
	mov	ebx, edi
	and	ebx, -1980415731
	and	r9d, r10d
	or	r11d, edx
	or	ebx, r9d
	xor	r11d, ebx
	or	esi, edi
	xor	esi, -1
	or	r10d, 2314551565
	and	esi, r10d
	or	r11d, esi
	mov	edx, dword ptr [rbp - 40]
	xor	edx, -1
	mov	esi, dword ptr [rbp - 76] 
	xor	esi, 1
	mov	edi, dword ptr [rbp - 76] 
	xor	edi, 2258263143
	or	edx, esi
	or	edi, 2258263143
	xor	edx, -1
	and	edx, edi
	shl	edx, 2
	mov	esi, r11d
	and	esi, edx
	xor	r11d, edx
	or	esi, r11d
	mov	edx, dword ptr [rbp - 40]
	xor	edx, -1
	mov	edi, dword ptr [rbp - 76] 
	xor	edi, 512
	mov	r9d, dword ptr [rbp - 76] 
	xor	r9d, 494394014
	or	edx, edi
	or	r9d, 494394014
	xor	edx, -1
	and	edx, r9d
	mov	edi, esi
	xor	edi, -1
	mov	r9d, edx
	xor	r9d, -1
	mov	r10d, dword ptr [rbp - 76] 
	xor	r10d, 3066779640
	mov	r11d, edi
	and	r11d, -1228187656
	and	esi, r10d
	mov	ebx, r9d
	and	ebx, -1228187656
	and	edx, r10d
	or	r11d, esi
	or	ebx, edx
	xor	r11d, ebx
	or	edi, r9d
	xor	edi, -1
	or	r10d, 3066779640
	and	edi, r10d
	or	r11d, edi
	mov	edx, dword ptr [rbp - 40]
	mov	esi, dword ptr [rbp - 76] 
	xor	esi, 32768
	mov	edi, edx
	xor	edi, esi
	and	edi, edx
	shr	edi, 2
	mov	edx, r11d
	xor	edx, -1
	mov	esi, edi
	xor	esi, -1
	mov	r9d, dword ptr [rbp - 76] 
	xor	r9d, 730514301
	mov	r10d, edx
	and	r10d, 730514301
	and	r11d, r9d
	mov	ebx, esi
	and	ebx, 730514301
	and	edi, r9d
	or	r10d, r11d
	or	ebx, edi
	xor	r10d, ebx
	or	edx, esi
	xor	edx, -1
	or	r9d, 730514301
	and	edx, r9d
	or	r10d, edx
	mov	edx, dword ptr [rbp - 40]
	xor	edx, -1
	mov	esi, dword ptr [rbp - 76] 
	xor	esi, 136
	mov	edi, dword ptr [rbp - 76] 
	xor	edi, 1100261205
	or	edx, esi
	or	edi, 1100261205
	xor	edx, -1
	and	edx, edi
	shr	edx, 3
	mov	esi, r10d
	xor	esi, -1
	mov	edi, edx
	xor	edi, -1
	mov	r9d, dword ptr [rbp - 76] 
	xor	r9d, 1137380851
	mov	r11d, esi
	and	r11d, 1137380851
	and	r10d, r9d
	mov	ebx, edi
	and	ebx, 1137380851
	and	edx, r9d
	or	r11d, r10d
	or	ebx, edx
	xor	r11d, ebx
	or	esi, edi
	xor	esi, -1
	or	r9d, 1137380851
	and	esi, r9d
	or	r11d, esi
	mov	edx, dword ptr [rbp - 40]
	xor	edx, -1
	mov	esi, dword ptr [rbp - 76] 
	xor	esi, 4096
	mov	edi, dword ptr [rbp - 76] 
	xor	edi, 3745398707
	or	edx, esi
	or	edi, 3745398707
	xor	edx, -1
	and	edx, edi
	shr	edx, 7
	mov	esi, r11d
	xor	esi, -1
	mov	edi, edx
	xor	edi, -1
	mov	r9d, dword ptr [rbp - 76] 
	xor	r9d, 1843149219
	mov	r10d, esi
	and	r10d, 1843149219
	and	r11d, r9d
	mov	ebx, edi
	and	ebx, 1843149219
	and	edx, r9d
	or	r10d, r11d
	or	ebx, edx
	xor	r10d, ebx
	or	esi, edi
	xor	esi, -1
	or	r9d, 1843149219
	and	esi, r9d
	or	r10d, esi
	mov	edx, dword ptr [rbp - 40]
	xor	edx, -1
	mov	esi, dword ptr [rbp - 76] 
	xor	esi, 524288
	mov	edi, dword ptr [rbp - 76] 
	xor	edi, 32258429
	or	edx, esi
	or	edi, 32258429
	xor	edx, -1
	and	edx, edi
	shr	edx, 9
	mov	esi, r10d
	and	esi, edx
	xor	r10d, edx
	or	esi, r10d
	mov	edx, dword ptr [rbp - 40]
	mov	edi, dword ptr [rbp - 76] 
	xor	edi, 33685504
	mov	r9d, edx
	xor	r9d, edi
	and	r9d, edx
	shr	r9d, 14
	mov	edx, esi
	and	edx, r9d
	xor	esi, r9d
	or	edx, esi
	mov	esi, dword ptr [rbp - 40]
	mov	edi, dword ptr [rbp - 76] 
	xor	edi, 4194304
	mov	r9d, esi
	xor	r9d, edi
	and	r9d, esi
	shr	r9d, 21
	mov	esi, edx
	and	esi, r9d
	xor	edx, r9d
	or	esi, edx
	mov	r8, qword ptr [rbp - 24]
	mov	r14, qword ptr [rbp - 48]
	shl	r14, 1
	mov	dword ptr [r8 + 4*r14], esi
	mov	edx, dword ptr [rbp - 36]
	xor	edx, -1
	mov	esi, dword ptr [rbp - 76] 
	xor	esi, 1
	mov	edi, dword ptr [rbp - 76] 
	xor	edi, 1379643319
	or	edx, esi
	or	edi, 1379643319
	xor	edx, -1
	and	edx, edi
	shl	edx, 28
	mov	esi, dword ptr [rbp - 36]
	xor	esi, -1
	mov	edi, dword ptr [rbp - 76] 
	xor	edi, 130
	mov	r9d, dword ptr [rbp - 76] 
	xor	r9d, 3162371575
	or	esi, edi
	or	r9d, 3162371575
	xor	esi, -1
	and	esi, r9d
	shl	esi, 18
	mov	edi, edx
	xor	edi, -1
	mov	r9d, esi
	xor	r9d, -1
	mov	r10d, dword ptr [rbp - 76] 
	xor	r10d, 561571577
	mov	r11d, edi
	and	r11d, 561571577
	and	edx, r10d
	mov	ebx, r9d
	and	ebx, 561571577
	and	esi, r10d
	or	r11d, edx
	or	ebx, esi
	xor	r11d, ebx
	or	edi, r9d
	xor	edi, -1
	or	r10d, 561571577
	and	edi, r10d
	or	r11d, edi
	mov	edx, dword ptr [rbp - 36]
	xor	edx, -1
	mov	esi, dword ptr [rbp - 76] 
	xor	esi, 8192
	mov	edi, dword ptr [rbp - 76] 
	xor	edi, 3254732949
	or	edx, esi
	or	edi, 3254732949
	xor	edx, -1
	and	edx, edi
	shl	edx, 14
	mov	esi, r11d
	xor	esi, -1
	mov	edi, edx
	xor	edi, -1
	mov	r9d, dword ptr [rbp - 76] 
	xor	r9d, 3311973806
	mov	r10d, esi
	and	r10d, -982993490
	and	r11d, r9d
	mov	ebx, edi
	and	ebx, -982993490
	and	edx, r9d
	or	r10d, r11d
	or	ebx, edx
	xor	r10d, ebx
	or	esi, edi
	xor	esi, -1
	or	r9d, 3311973806
	and	esi, r9d
	or	r10d, esi
	mov	edx, dword ptr [rbp - 36]
	xor	edx, -1
	mov	esi, dword ptr [rbp - 76] 
	xor	esi, 256
	mov	edi, dword ptr [rbp - 76] 
	xor	edi, 4107735691
	or	edx, esi
	or	edi, 4107735691
	xor	edx, -1
	and	edx, edi
	shl	edx, 10
	mov	esi, r10d
	xor	esi, -1
	mov	edi, edx
	xor	edi, -1
	mov	r9d, dword ptr [rbp - 76] 
	xor	r9d, 2915152343
	mov	r11d, esi
	and	r11d, -1379814953
	and	r10d, r9d
	mov	ebx, edi
	and	ebx, -1379814953
	and	edx, r9d
	or	r11d, r10d
	or	ebx, edx
	xor	r11d, ebx
	or	esi, edi
	xor	esi, -1
	or	r9d, 2915152343
	and	esi, r9d
	or	r11d, esi
	mov	edx, dword ptr [rbp - 36]
	mov	esi, dword ptr [rbp - 76] 
	xor	esi, 4096
	mov	edi, edx
	xor	edi, esi
	and	edi, edx
	shl	edi, 9
	mov	edx, r11d
	xor	edx, -1
	mov	esi, edi
	xor	esi, -1
	mov	r9d, dword ptr [rbp - 76] 
	xor	r9d, 178072992
	mov	r10d, edx
	and	r10d, 178072992
	and	r11d, r9d
	mov	ebx, esi
	and	ebx, 178072992
	and	edi, r9d
	or	r10d, r11d
	or	ebx, edi
	xor	r10d, ebx
	or	edx, esi
	xor	edx, -1
	or	r9d, 178072992
	and	edx, r9d
	or	r10d, edx
	mov	edx, dword ptr [rbp - 36]
	mov	esi, dword ptr [rbp - 76] 
	xor	esi, 262144
	mov	edi, edx
	xor	edi, esi
	and	edi, edx
	shl	edi, 6
	mov	edx, r10d
	xor	edx, -1
	mov	esi, edi
	xor	esi, -1
	mov	r9d, dword ptr [rbp - 76] 
	xor	r9d, 3796478386
	mov	r11d, edx
	and	r11d, -498488910
	and	r10d, r9d
	mov	ebx, esi
	and	ebx, -498488910
	and	edi, r9d
	or	r11d, r10d
	or	ebx, edi
	xor	r11d, ebx
	or	edx, esi
	xor	edx, -1
	or	r9d, 3796478386
	and	edx, r9d
	or	r11d, edx
	mov	edx, dword ptr [rbp - 36]
	mov	esi, dword ptr [rbp - 76] 
	xor	esi, 37748736
	mov	edi, edx
	xor	edi, esi
	and	edi, edx
	shl	edi, 4
	mov	edx, r11d
	xor	edx, -1
	mov	esi, edi
	xor	esi, -1
	mov	r9d, dword ptr [rbp - 76] 
	xor	r9d, 2253027481
	mov	r10d, edx
	and	r10d, -2041939815
	and	r11d, r9d
	mov	ebx, esi
	and	ebx, -2041939815
	and	edi, r9d
	or	r10d, r11d
	or	ebx, edi
	xor	r10d, ebx
	or	edx, esi
	xor	edx, -1
	or	r9d, 2253027481
	and	edx, r9d
	or	r10d, edx
	mov	edx, dword ptr [rbp - 36]
	xor	edx, -1
	mov	esi, dword ptr [rbp - 76] 
	xor	esi, 32768
	mov	edi, dword ptr [rbp - 76] 
	xor	edi, 2727295493
	or	edx, esi
	or	edi, 2727295493
	xor	edx, -1
	and	edx, edi
	shl	edx, 2
	mov	esi, r10d
	and	esi, edx
	xor	r10d, edx
	or	esi, r10d
	mov	edx, dword ptr [rbp - 36]
	xor	edx, -1
	mov	edi, dword ptr [rbp - 76] 
	xor	edi, 2097152
	mov	r9d, dword ptr [rbp - 76] 
	xor	r9d, 1315169775
	or	edx, edi
	or	r9d, 1315169775
	xor	edx, -1
	and	edx, r9d
	shr	edx, 1
	mov	edi, esi
	and	edi, edx
	xor	esi, edx
	or	edi, esi
	mov	edx, dword ptr [rbp - 36]
	xor	edx, -1
	mov	esi, dword ptr [rbp - 76] 
	xor	esi, 67108864
	mov	r9d, dword ptr [rbp - 76] 
	xor	r9d, 2798164188
	or	edx, esi
	or	r9d, 2798164188
	xor	edx, -1
	and	edx, r9d
	shr	edx, 10
	mov	esi, edi
	xor	esi, -1
	mov	r9d, edx
	xor	r9d, -1
	mov	r10d, dword ptr [rbp - 76] 
	xor	r10d, 1992238125
	mov	r11d, esi
	and	r11d, 1992238125
	and	edi, r10d
	mov	ebx, r9d
	and	ebx, 1992238125
	and	edx, r10d
	or	r11d, edi
	or	ebx, edx
	xor	r11d, ebx
	or	esi, r9d
	xor	esi, -1
	or	r10d, 1992238125
	and	esi, r10d
	or	r11d, esi
	mov	edx, dword ptr [rbp - 40]
	xor	edx, -1
	mov	esi, dword ptr [rbp - 76] 
	xor	esi, 32
	mov	edi, dword ptr [rbp - 76] 
	xor	edi, 3999797042
	or	edx, esi
	or	edi, 3999797042
	xor	edx, -1
	and	edx, edi
	shl	edx, 6
	mov	esi, r11d
	xor	esi, -1
	mov	edi, edx
	xor	edi, -1
	mov	r9d, dword ptr [rbp - 76] 
	xor	r9d, 2988772620
	mov	r10d, esi
	and	r10d, -1306194676
	and	r11d, r9d
	mov	ebx, edi
	and	ebx, -1306194676
	and	edx, r9d
	or	r10d, r11d
	or	ebx, edx
	xor	r10d, ebx
	or	esi, edi
	xor	esi, -1
	or	r9d, 2988772620
	and	esi, r9d
	or	r10d, esi
	mov	edx, dword ptr [rbp - 40]
	mov	esi, dword ptr [rbp - 76] 
	xor	esi, 256
	mov	edi, edx
	xor	edi, esi
	and	edi, edx
	mov	edx, r10d
	xor	edx, -1
	mov	esi, edi
	xor	esi, -1
	mov	r9d, dword ptr [rbp - 76] 
	xor	r9d, 2673515946
	mov	r11d, edx
	and	r11d, -1621451350
	and	r10d, r9d
	mov	ebx, esi
	and	ebx, -1621451350
	and	edi, r9d
	or	r11d, r10d
	or	ebx, edi
	xor	r11d, ebx
	or	edx, esi
	xor	edx, -1
	or	r9d, 2673515946
	and	edx, r9d
	or	r11d, edx
	mov	edx, dword ptr [rbp - 40]
	xor	edx, -1
	mov	esi, dword ptr [rbp - 76] 
	xor	esi, 2048
	mov	edi, dword ptr [rbp - 76] 
	xor	edi, 139488790
	or	edx, esi
	or	edi, 139488790
	xor	edx, -1
	and	edx, edi
	shr	edx, 1
	mov	esi, r11d
	and	esi, edx
	xor	r11d, edx
	or	esi, r11d
	mov	edx, dword ptr [rbp - 40]
	mov	edi, dword ptr [rbp - 76] 
	xor	edi, 64
	mov	r9d, edx
	xor	r9d, edi
	and	r9d, edx
	shr	r9d, 3
	mov	edx, esi
	and	edx, r9d
	xor	esi, r9d
	or	edx, esi
	mov	esi, dword ptr [rbp - 40]
	xor	esi, -1
	mov	edi, dword ptr [rbp - 76] 
	xor	edi, 65536
	mov	r9d, dword ptr [rbp - 76] 
	xor	r9d, 1234295207
	or	esi, edi
	or	r9d, 1234295207
	xor	esi, -1
	and	esi, r9d
	shr	esi, 4
	mov	edi, edx
	xor	edi, -1
	mov	r9d, esi
	xor	r9d, -1
	mov	r10d, dword ptr [rbp - 76] 
	xor	r10d, 3633680199
	mov	r11d, edi
	and	r11d, -661287097
	and	edx, r10d
	mov	ebx, r9d
	and	ebx, -661287097
	and	esi, r10d
	or	r11d, edx
	or	ebx, esi
	xor	r11d, ebx
	or	edi, r9d
	xor	edi, -1
	or	r10d, 3633680199
	and	edi, r10d
	or	r11d, edi
	mov	edx, dword ptr [rbp - 40]
	mov	esi, dword ptr [rbp - 76] 
	xor	esi, 1024
	mov	edi, edx
	xor	edi, esi
	and	edi, edx
	shr	edi, 5
	mov	edx, r11d
	xor	edx, -1
	mov	esi, edi
	xor	esi, -1
	mov	r9d, dword ptr [rbp - 76] 
	xor	r9d, 462080563
	mov	r10d, edx
	and	r10d, 462080563
	and	r11d, r9d
	mov	ebx, esi
	and	ebx, 462080563
	and	edi, r9d
	or	r10d, r11d
	or	ebx, edi
	xor	r10d, ebx
	or	edx, esi
	xor	edx, -1
	or	r9d, 462080563
	and	edx, r9d
	or	r10d, edx
	mov	edx, dword ptr [rbp - 40]
	mov	esi, dword ptr [rbp - 76] 
	xor	esi, 16384
	mov	edi, edx
	xor	edi, esi
	and	edi, edx
	shr	edi, 10
	mov	edx, r10d
	xor	edx, -1
	mov	esi, edi
	xor	esi, -1
	mov	r9d, dword ptr [rbp - 76] 
	xor	r9d, 3874251622
	mov	r11d, edx
	and	r11d, -420715674
	and	r10d, r9d
	mov	ebx, esi
	and	ebx, -420715674
	and	edi, r9d
	or	r11d, r10d
	or	ebx, edi
	xor	r11d, ebx
	or	edx, esi
	xor	edx, -1
	or	r9d, 3874251622
	and	edx, r9d
	or	r11d, edx
	mov	edx, dword ptr [rbp - 40]
	mov	esi, dword ptr [rbp - 76] 
	xor	esi, 67108864
	mov	edi, edx
	xor	edi, esi
	and	edi, edx
	shr	edi, 13
	mov	edx, r11d
	xor	edx, -1
	mov	esi, edi
	xor	esi, -1
	mov	r9d, dword ptr [rbp - 76] 
	xor	r9d, 3797245427
	mov	r10d, edx
	and	r10d, -497721869
	and	r11d, r9d
	mov	ebx, esi
	and	ebx, -497721869
	and	edi, r9d
	or	r10d, r11d
	or	ebx, edi
	xor	r10d, ebx
	or	edx, esi
	xor	edx, -1
	or	r9d, 3797245427
	and	edx, r9d
	or	r10d, edx
	mov	edx, dword ptr [rbp - 40]
	mov	esi, dword ptr [rbp - 76] 
	xor	esi, 8388608
	mov	edi, edx
	xor	edi, esi
	and	edi, edx
	shr	edi, 14
	mov	edx, r10d
	and	edx, edi
	xor	r10d, edi
	or	edx, r10d
	mov	esi, dword ptr [rbp - 40]
	xor	esi, -1
	mov	edi, dword ptr [rbp - 76] 
	xor	edi, 1048576
	mov	r9d, dword ptr [rbp - 76] 
	xor	r9d, 3040123084
	or	esi, edi
	or	r9d, 3040123084
	xor	esi, -1
	and	esi, r9d
	shr	esi, 18
	mov	edi, edx
	xor	edi, -1
	mov	r9d, esi
	xor	r9d, -1
	mov	r10d, dword ptr [rbp - 76] 
	xor	r10d, 1726034929
	mov	r11d, edi
	and	r11d, 1726034929
	and	edx, r10d
	mov	ebx, r9d
	and	ebx, 1726034929
	and	esi, r10d
	or	r11d, edx
	or	ebx, esi
	xor	r11d, ebx
	or	edi, r9d
	xor	edi, -1
	or	r10d, 1726034929
	and	edi, r10d
	or	r11d, edi
	mov	edx, dword ptr [rbp - 40]
	xor	edx, -1
	mov	esi, dword ptr [rbp - 76] 
	xor	esi, 16777216
	mov	edi, dword ptr [rbp - 76] 
	xor	edi, 2766884594
	or	edx, esi
	or	edi, 2766884594
	xor	edx, -1
	and	edx, edi
	shr	edx, 24
	mov	esi, r11d
	xor	esi, -1
	mov	edi, edx
	xor	edi, -1
	mov	r9d, dword ptr [rbp - 76] 
	xor	r9d, 2622500488
	mov	r10d, esi
	and	r10d, -1672466808
	and	r11d, r9d
	mov	ebx, edi
	and	ebx, -1672466808
	and	edx, r9d
	or	r10d, r11d
	or	ebx, edx
	xor	r10d, ebx
	or	esi, edi
	xor	esi, -1
	or	r9d, 2622500488
	and	esi, r9d
	or	r10d, esi
	mov	edx, dword ptr [rbp - 40]
	xor	edx, -1
	mov	esi, dword ptr [rbp - 76] 
	xor	esi, 134217728
	mov	edi, dword ptr [rbp - 76] 
	xor	edi, 855083624
	or	edx, esi
	or	edi, 855083624
	xor	edx, -1
	and	edx, edi
	shr	edx, 26
	mov	esi, r10d
	and	esi, edx
	xor	r10d, edx
	or	esi, r10d
	mov	r8, qword ptr [rbp - 24]
	mov	r14, qword ptr [rbp - 48]
	shl	r14, 1
	add	r14, rax
	add	r14, 1
	sub	r14, rax
	mov	dword ptr [r8 + 4*r14], esi
	mov	dword ptr [rbp - 52], -837706987
	jmp	.LBB16_7
.LBB16_5:                               
	xor	eax, eax
	mov	ecx, eax
	mov	rdx, qword ptr [rbp - 48]
	mov	rsi, rcx
	sub	rsi, rdx
	mov	rdx, rcx
	sub	rdx, 1
	add	rsi, rdx
	sub	rcx, rsi
	mov	qword ptr [rbp - 48], rcx
	mov	dword ptr [rbp - 52], 1184707048
	jmp	.LBB16_7
.LBB16_6:
	pop	rbx
	pop	r14
	pop	rbp
	ret
.LBB16_7:                               
	jmp	.LBB16_1
.Lfunc_end16:
	.size	_ZN5Botan12_GLOBAL__N_116des_key_scheduleEPjPKh, .Lfunc_end16-_ZN5Botan12_GLOBAL__N_116des_key_scheduleEPjPKh

	.section	.text._ZNSt6vectorIjN5Botan16secure_allocatorIjEEE4dataEv,"axG",@progbits,_ZNSt6vectorIjN5Botan16secure_allocatorIjEEE4dataEv,comdat
	.weak	_ZNSt6vectorIjN5Botan16secure_allocatorIjEEE4dataEv 
	.p2align	4, 0x90
	.type	_ZNSt6vectorIjN5Botan16secure_allocatorIjEEE4dataEv,@function
_ZNSt6vectorIjN5Botan16secure_allocatorIjEEE4dataEv: 

	push	rbp
	mov	rbp, rsp
	sub	rsp, 16
	mov	qword ptr [rbp - 8], rdi
	mov	rdi, qword ptr [rbp - 8]
	mov	rsi, qword ptr [rdi]
	call	_ZNKSt6vectorIjN5Botan16secure_allocatorIjEEE11_M_data_ptrIjEEPT_S6_
	add	rsp, 16
	pop	rbp
	ret
.Lfunc_end17:
	.size	_ZNSt6vectorIjN5Botan16secure_allocatorIjEEE4dataEv, .Lfunc_end17-_ZNSt6vectorIjN5Botan16secure_allocatorIjEEE4dataEv

	.text
	.globl	_ZN5Botan3DES5clearEv   
	.p2align	4, 0x90
	.type	_ZN5Botan3DES5clearEv,@function
_ZN5Botan3DES5clearEv:                  
	.cfi_startproc

	push	rbp
.Lcfi59:
	.cfi_def_cfa_offset 16
.Lcfi60:
	.cfi_offset rbp, -16
	mov	rbp, rsp
.Lcfi61:
	.cfi_def_cfa_register rbp
	sub	rsp, 16
	mov	qword ptr [rbp - 8], rdi
	mov	rdi, qword ptr [rbp - 8]
	add	rdi, 8
	call	_ZN5Botan3zapIjNS_16secure_allocatorIjEEEEvRSt6vectorIT_T0_E
	add	rsp, 16
	pop	rbp
	ret
.Lfunc_end18:
	.size	_ZN5Botan3DES5clearEv, .Lfunc_end18-_ZN5Botan3DES5clearEv
	.cfi_endproc

	.section	.text._ZN5Botan3zapIjNS_16secure_allocatorIjEEEEvRSt6vectorIT_T0_E,"axG",@progbits,_ZN5Botan3zapIjNS_16secure_allocatorIjEEEEvRSt6vectorIT_T0_E,comdat
	.weak	_ZN5Botan3zapIjNS_16secure_allocatorIjEEEEvRSt6vectorIT_T0_E 
	.p2align	4, 0x90
	.type	_ZN5Botan3zapIjNS_16secure_allocatorIjEEEEvRSt6vectorIT_T0_E,@function
_ZN5Botan3zapIjNS_16secure_allocatorIjEEEEvRSt6vectorIT_T0_E: 
	.cfi_startproc

	push	rbp
.Lcfi62:
	.cfi_def_cfa_offset 16
.Lcfi63:
	.cfi_offset rbp, -16
	mov	rbp, rsp
.Lcfi64:
	.cfi_def_cfa_register rbp
	push	r14
	push	rbx
	sub	rsp, 64
.Lcfi65:
	.cfi_offset rbx, -32
.Lcfi66:
	.cfi_offset r14, -24
	xor	eax, eax
	mov	ecx, dword ptr [x.45]
	mov	edx, dword ptr [y.46]
	sub	eax, 1
	mov	esi, ecx
	add	esi, eax
	imul	ecx, esi
	and	ecx, 1
	cmp	ecx, 0
	sete	r8b
	and	r8b, 1
	mov	byte ptr [rbp - 18], r8b
	cmp	edx, 10
	setl	r8b
	and	r8b, 1
	mov	byte ptr [rbp - 17], r8b
	mov	dword ptr [rbp - 24], -2060876187
	mov	qword ptr [rbp - 32], rdi 
.LBB19_1:                               
	mov	eax, dword ptr [rbp - 24]
	mov	ecx, eax
	sub	ecx, -2060876187
	mov	dword ptr [rbp - 36], eax 
	mov	dword ptr [rbp - 40], ecx 
	je	.LBB19_3
	jmp	.LBB19_8
.LBB19_8:                               
	mov	eax, dword ptr [rbp - 36] 
	sub	eax, -2003248390
	mov	dword ptr [rbp - 44], eax 
	je	.LBB19_4
	jmp	.LBB19_9
.LBB19_9:                               
	mov	eax, dword ptr [rbp - 36] 
	sub	eax, -586949449
	mov	dword ptr [rbp - 48], eax 
	je	.LBB19_6
	jmp	.LBB19_10
.LBB19_10:                              
	mov	eax, dword ptr [rbp - 36] 
	sub	eax, 1834163117
	mov	dword ptr [rbp - 52], eax 
	je	.LBB19_5
	jmp	.LBB19_2
.LBB19_2:                               
	jmp	.LBB19_7
.LBB19_3:                               
	mov	eax, 3708017847
	mov	ecx, 2291718906
	mov	dl, 1
	mov	sil, byte ptr [rbp - 18]
	mov	dil, byte ptr [rbp - 17]
	mov	r8b, sil
	xor	r8b, -1
	mov	r9b, dil
	xor	r9b, -1
	xor	dl, 0
	mov	r10b, r8b
	and	r10b, 0
	and	sil, dl
	mov	r11b, r9b
	and	r11b, 0
	and	dil, dl
	or	r10b, sil
	or	r11b, dil
	xor	r10b, r11b
	or	r8b, r9b
	xor	r8b, -1
	or	dl, 0
	and	r8b, dl
	or	r10b, r8b
	test	r10b, 1
	cmovne	eax, ecx
	mov	dword ptr [rbp - 24], eax
	jmp	.LBB19_7
.LBB19_4:                               
	mov	rax, rsp
	add	rax, -16
	mov	rsp, rax
	mov	rcx, qword ptr [rbp - 32] 
	mov	qword ptr [rax], rcx
	mov	rdi, qword ptr [rax]
	mov	qword ptr [rbp - 64], rax 
	call	_ZN5Botan7zeroiseIjNS_16secure_allocatorIjEEEEvRSt6vectorIT_T0_E
	mov	rax, qword ptr [rbp - 64] 
	mov	rdi, qword ptr [rax]
	call	_ZNSt6vectorIjN5Botan16secure_allocatorIjEEE5clearEv
	mov	rax, qword ptr [rbp - 64] 
	mov	rdi, qword ptr [rax]
	call	_ZNSt6vectorIjN5Botan16secure_allocatorIjEEE13shrink_to_fitEv
	mov	edx, 3708017847
	mov	esi, 1834163117
	mov	r8d, dword ptr [x.45]
	mov	r9d, dword ptr [y.46]
	mov	r10d, r8d
	add	r10d, -826571000
	sub	r10d, 1
	sub	r10d, -826571000
	imul	r8d, r10d
	and	r8d, 1
	cmp	r8d, 0
	sete	r11b
	cmp	r9d, 10
	setl	bl
	mov	r14b, r11b
	and	r14b, bl
	xor	r11b, bl
	or	r14b, r11b
	test	r14b, 1
	cmovne	edx, esi
	mov	dword ptr [rbp - 24], edx
	jmp	.LBB19_7
.LBB19_5:
	lea	rsp, [rbp - 16]
	pop	rbx
	pop	r14
	pop	rbp
	ret
.LBB19_6:                               
	mov	rax, rsp
	add	rax, -16
	mov	rsp, rax
	mov	rcx, qword ptr [rbp - 32] 
	mov	qword ptr [rax], rcx
	mov	rdi, qword ptr [rax]
	mov	qword ptr [rbp - 72], rax 
	call	_ZN5Botan7zeroiseIjNS_16secure_allocatorIjEEEEvRSt6vectorIT_T0_E
	mov	rax, qword ptr [rbp - 72] 
	mov	rdi, qword ptr [rax]
	call	_ZNSt6vectorIjN5Botan16secure_allocatorIjEEE5clearEv
	mov	rax, qword ptr [rbp - 72] 
	mov	rdi, qword ptr [rax]
	call	_ZNSt6vectorIjN5Botan16secure_allocatorIjEEE13shrink_to_fitEv
	mov	dword ptr [rbp - 24], -2003248390
.LBB19_7:                               
	jmp	.LBB19_1
.Lfunc_end19:
	.size	_ZN5Botan3zapIjNS_16secure_allocatorIjEEEEvRSt6vectorIT_T0_E, .Lfunc_end19-_ZN5Botan3zapIjNS_16secure_allocatorIjEEEEvRSt6vectorIT_T0_E
	.cfi_endproc

	.text
	.globl	_ZNK5Botan9TripleDES9encrypt_nEPKhPhm 
	.p2align	4, 0x90
	.type	_ZNK5Botan9TripleDES9encrypt_nEPKhPhm,@function
_ZNK5Botan9TripleDES9encrypt_nEPKhPhm:  
	.cfi_startproc

	push	rbp
.Lcfi67:
	.cfi_def_cfa_offset 16
.Lcfi68:
	.cfi_offset rbp, -16
	mov	rbp, rsp
.Lcfi69:
	.cfi_def_cfa_register rbp
	sub	rsp, 128
	mov	qword ptr [rbp - 16], rdi
	mov	qword ptr [rbp - 24], rsi
	mov	qword ptr [rbp - 32], rdx
	mov	qword ptr [rbp - 40], rcx
	mov	rcx, qword ptr [rbp - 16]
	mov	qword ptr [rbp - 8], rcx
	mov	rcx, qword ptr [rbp - 8]
	mov	rdx, qword ptr [rbp - 8]
	add	rdx, 8
	mov	rdi, rdx
	mov	qword ptr [rbp - 80], rcx 
	call	_ZNKSt6vectorIjN5Botan16secure_allocatorIjEEE5emptyEv
	and	al, 1
	movzx	r8d, al
	cmp	r8d, 0
	sete	al
	and	al, 1
	movzx	esi, al
	mov	rdi, qword ptr [rbp - 80] 
	call	_ZNK5Botan18SymmetricAlgorithm14verify_key_setEb
	mov	dword ptr [rbp - 68], -1743576786
.LBB20_1:                               
	mov	eax, dword ptr [rbp - 68]
	mov	ecx, eax
	sub	ecx, -2067134601
	mov	dword ptr [rbp - 84], eax 
	mov	dword ptr [rbp - 88], ecx 
	je	.LBB20_7
	jmp	.LBB20_13
.LBB20_13:                              
	mov	eax, dword ptr [rbp - 84] 
	sub	eax, -1744151247
	mov	dword ptr [rbp - 92], eax 
	je	.LBB20_10
	jmp	.LBB20_14
.LBB20_14:                              
	mov	eax, dword ptr [rbp - 84] 
	sub	eax, -1743576786
	mov	dword ptr [rbp - 96], eax 
	je	.LBB20_3
	jmp	.LBB20_15
.LBB20_15:                              
	mov	eax, dword ptr [rbp - 84] 
	sub	eax, -1457049606
	mov	dword ptr [rbp - 100], eax 
	je	.LBB20_9
	jmp	.LBB20_16
.LBB20_16:                              
	mov	eax, dword ptr [rbp - 84] 
	sub	eax, -665984546
	mov	dword ptr [rbp - 104], eax 
	je	.LBB20_11
	jmp	.LBB20_17
.LBB20_17:                              
	mov	eax, dword ptr [rbp - 84] 
	sub	eax, -246916101
	mov	dword ptr [rbp - 108], eax 
	je	.LBB20_4
	jmp	.LBB20_18
.LBB20_18:                              
	mov	eax, dword ptr [rbp - 84] 
	sub	eax, 342196153
	mov	dword ptr [rbp - 112], eax 
	je	.LBB20_6
	jmp	.LBB20_19
.LBB20_19:                              
	mov	eax, dword ptr [rbp - 84] 
	sub	eax, 689767552
	mov	dword ptr [rbp - 116], eax 
	je	.LBB20_5
	jmp	.LBB20_20
.LBB20_20:                              
	mov	eax, dword ptr [rbp - 84] 
	sub	eax, 1846013329
	mov	dword ptr [rbp - 120], eax 
	je	.LBB20_8
	jmp	.LBB20_2
.LBB20_2:                               
	jmp	.LBB20_12
.LBB20_3:                               
	mov	eax, 689767552
	mov	ecx, 4048051195
	cmp	qword ptr [rbp - 40], 2
	cmovae	eax, ecx
	mov	dword ptr [rbp - 68], eax
	jmp	.LBB20_12
.LBB20_4:                               
	xor	eax, eax
	mov	esi, eax
	mov	rdi, qword ptr [rbp - 24]
	call	_ZN5Botan7load_beIjEET_PKhm
	mov	ecx, 1
	mov	esi, ecx
	mov	dword ptr [rbp - 44], eax
	mov	rdi, qword ptr [rbp - 24]
	call	_ZN5Botan7load_beIjEET_PKhm
	mov	ecx, 2
	mov	esi, ecx
	mov	dword ptr [rbp - 48], eax
	mov	rdi, qword ptr [rbp - 24]
	call	_ZN5Botan7load_beIjEET_PKhm
	mov	ecx, 3
	mov	esi, ecx
	mov	dword ptr [rbp - 52], eax
	mov	rdi, qword ptr [rbp - 24]
	call	_ZN5Botan7load_beIjEET_PKhm
	lea	rdi, [rbp - 44]
	lea	rsi, [rbp - 48]
	mov	dword ptr [rbp - 56], eax
	call	_ZN5Botan12_GLOBAL__N_16des_IPERjS1_
	lea	rdi, [rbp - 52]
	lea	rsi, [rbp - 56]
	call	_ZN5Botan12_GLOBAL__N_16des_IPERjS1_
	xor	eax, eax
	mov	esi, eax
	mov	rdi, qword ptr [rbp - 8]
	add	rdi, 8
	call	_ZNKSt6vectorIjN5Botan16secure_allocatorIjEEEixEm
	lea	rdi, [rbp - 44]
	lea	rsi, [rbp - 48]
	lea	rdx, [rbp - 52]
	lea	rcx, [rbp - 56]
	mov	r8, rax
	call	_ZN5Botan12_GLOBAL__N_114des_encrypt_x2ERjS1_S1_S1_PKj
	mov	r9d, 32
	mov	esi, r9d
	mov	rax, qword ptr [rbp - 8]
	add	rax, 8
	mov	rdi, rax
	call	_ZNKSt6vectorIjN5Botan16secure_allocatorIjEEEixEm
	lea	rdi, [rbp - 48]
	lea	rsi, [rbp - 44]
	lea	rdx, [rbp - 56]
	lea	rcx, [rbp - 52]
	mov	r8, rax
	call	_ZN5Botan12_GLOBAL__N_114des_decrypt_x2ERjS1_S1_S1_PKj
	mov	r9d, 64
	mov	esi, r9d
	mov	rax, qword ptr [rbp - 8]
	add	rax, 8
	mov	rdi, rax
	call	_ZNKSt6vectorIjN5Botan16secure_allocatorIjEEEixEm
	lea	rdi, [rbp - 44]
	lea	rsi, [rbp - 48]
	lea	rdx, [rbp - 52]
	lea	rcx, [rbp - 56]
	mov	r8, rax
	call	_ZN5Botan12_GLOBAL__N_114des_encrypt_x2ERjS1_S1_S1_PKj
	lea	rdi, [rbp - 44]
	lea	rsi, [rbp - 48]
	call	_ZN5Botan12_GLOBAL__N_16des_FPERjS1_
	lea	rdi, [rbp - 52]
	lea	rsi, [rbp - 56]
	call	_ZN5Botan12_GLOBAL__N_16des_FPERjS1_
	mov	rdi, qword ptr [rbp - 32]
	mov	esi, dword ptr [rbp - 48]
	mov	edx, dword ptr [rbp - 44]
	mov	ecx, dword ptr [rbp - 56]
	mov	r8d, dword ptr [rbp - 52]
	call	_ZN5Botan8store_beIjEEvPhT_S2_S2_S2_
	movabs	rax, -4357731680287585135
	mov	rdi, qword ptr [rbp - 24]
	add	rdi, 16
	mov	qword ptr [rbp - 24], rdi
	mov	rdi, qword ptr [rbp - 32]
	add	rdi, 16
	mov	qword ptr [rbp - 32], rdi
	mov	rdi, qword ptr [rbp - 40]
	add	rdi, rax
	sub	rdi, 2
	sub	rdi, rax
	mov	qword ptr [rbp - 40], rdi
	mov	dword ptr [rbp - 68], -1743576786
	jmp	.LBB20_12
.LBB20_5:                               
	mov	dword ptr [rbp - 68], 342196153
	jmp	.LBB20_12
.LBB20_6:                               
	mov	eax, 1846013329
	mov	ecx, 2227832695
	cmp	qword ptr [rbp - 40], 0
	cmova	eax, ecx
	mov	dword ptr [rbp - 68], eax
	jmp	.LBB20_12
.LBB20_7:                               
	xor	eax, eax
	mov	esi, eax
	mov	rdi, qword ptr [rbp - 24]
	call	_ZN5Botan7load_beIjEET_PKhm
	mov	ecx, 1
	mov	esi, ecx
	mov	dword ptr [rbp - 60], eax
	mov	rdi, qword ptr [rbp - 24]
	call	_ZN5Botan7load_beIjEET_PKhm
	lea	rdi, [rbp - 60]
	lea	rsi, [rbp - 64]
	mov	dword ptr [rbp - 64], eax
	call	_ZN5Botan12_GLOBAL__N_16des_IPERjS1_
	xor	eax, eax
	mov	esi, eax
	mov	rdi, qword ptr [rbp - 8]
	add	rdi, 8
	call	_ZNKSt6vectorIjN5Botan16secure_allocatorIjEEEixEm
	lea	rdi, [rbp - 60]
	lea	rsi, [rbp - 64]
	mov	rdx, rax
	call	_ZN5Botan12_GLOBAL__N_111des_encryptERjS1_PKj
	mov	ecx, 32
	mov	esi, ecx
	mov	rax, qword ptr [rbp - 8]
	add	rax, 8
	mov	rdi, rax
	call	_ZNKSt6vectorIjN5Botan16secure_allocatorIjEEEixEm
	lea	rdi, [rbp - 64]
	lea	rsi, [rbp - 60]
	mov	rdx, rax
	call	_ZN5Botan12_GLOBAL__N_111des_decryptERjS1_PKj
	mov	ecx, 64
	mov	esi, ecx
	mov	rax, qword ptr [rbp - 8]
	add	rax, 8
	mov	rdi, rax
	call	_ZNKSt6vectorIjN5Botan16secure_allocatorIjEEEixEm
	lea	rdi, [rbp - 60]
	lea	rsi, [rbp - 64]
	mov	rdx, rax
	call	_ZN5Botan12_GLOBAL__N_111des_encryptERjS1_PKj
	lea	rdi, [rbp - 60]
	lea	rsi, [rbp - 64]
	call	_ZN5Botan12_GLOBAL__N_16des_FPERjS1_
	mov	rdi, qword ptr [rbp - 32]
	mov	esi, dword ptr [rbp - 64]
	mov	edx, dword ptr [rbp - 60]
	call	_ZN5Botan8store_beIjEEvPhT_S2_
	movabs	rax, 5111690812708850609
	mov	rdi, qword ptr [rbp - 24]
	add	rdi, 8
	mov	qword ptr [rbp - 24], rdi
	mov	rdi, qword ptr [rbp - 32]
	add	rdi, 8
	mov	qword ptr [rbp - 32], rdi
	mov	rdi, qword ptr [rbp - 40]
	add	rdi, rax
	sub	rdi, 1
	sub	rdi, rax
	mov	qword ptr [rbp - 40], rdi
	mov	dword ptr [rbp - 68], 342196153
	jmp	.LBB20_12
.LBB20_8:                               
	mov	eax, 3628982750
	mov	ecx, 2837917690
	xor	edx, edx
	mov	esi, dword ptr [x.47]
	mov	edi, dword ptr [y.48]
	sub	edx, 1
	mov	r8d, esi
	add	r8d, edx
	imul	esi, r8d
	and	esi, 1
	cmp	esi, 0
	sete	r9b
	cmp	edi, 10
	setl	r10b
	mov	r11b, r9b
	and	r11b, r10b
	xor	r9b, r10b
	or	r11b, r9b
	test	r11b, 1
	cmovne	eax, ecx
	mov	dword ptr [rbp - 68], eax
	jmp	.LBB20_12
.LBB20_9:                               
	mov	eax, 3628982750
	mov	ecx, 2550816049
	xor	edx, edx
	mov	esi, dword ptr [x.47]
	mov	edi, dword ptr [y.48]
	sub	edx, 1
	mov	r8d, esi
	add	r8d, edx
	imul	esi, r8d
	and	esi, 1
	cmp	esi, 0
	sete	r9b
	cmp	edi, 10
	setl	r10b
	mov	r11b, r9b
	and	r11b, r10b
	xor	r9b, r10b
	or	r11b, r9b
	test	r11b, 1
	cmovne	eax, ecx
	mov	dword ptr [rbp - 68], eax
	jmp	.LBB20_12
.LBB20_10:
	add	rsp, 128
	pop	rbp
	ret
.LBB20_11:                              
	mov	dword ptr [rbp - 68], -1457049606
.LBB20_12:                              
	jmp	.LBB20_1
.Lfunc_end20:
	.size	_ZNK5Botan9TripleDES9encrypt_nEPKhPhm, .Lfunc_end20-_ZNK5Botan9TripleDES9encrypt_nEPKhPhm
	.cfi_endproc

	.section	.text._ZNKSt6vectorIjN5Botan16secure_allocatorIjEEEixEm,"axG",@progbits,_ZNKSt6vectorIjN5Botan16secure_allocatorIjEEEixEm,comdat
	.weak	_ZNKSt6vectorIjN5Botan16secure_allocatorIjEEEixEm 
	.p2align	4, 0x90
	.type	_ZNKSt6vectorIjN5Botan16secure_allocatorIjEEEixEm,@function
_ZNKSt6vectorIjN5Botan16secure_allocatorIjEEEixEm: 

	push	rbp
	mov	rbp, rsp
	mov	qword ptr [rbp - 8], rdi
	mov	qword ptr [rbp - 16], rsi
	mov	rsi, qword ptr [rbp - 8]
	mov	rsi, qword ptr [rsi]
	mov	rdi, qword ptr [rbp - 16]
	shl	rdi, 2
	add	rsi, rdi
	mov	rax, rsi
	pop	rbp
	ret
.Lfunc_end21:
	.size	_ZNKSt6vectorIjN5Botan16secure_allocatorIjEEEixEm, .Lfunc_end21-_ZNKSt6vectorIjN5Botan16secure_allocatorIjEEEixEm

	.text
	.globl	_ZNK5Botan9TripleDES9decrypt_nEPKhPhm 
	.p2align	4, 0x90
	.type	_ZNK5Botan9TripleDES9decrypt_nEPKhPhm,@function
_ZNK5Botan9TripleDES9decrypt_nEPKhPhm:  
	.cfi_startproc

	push	rbp
.Lcfi70:
	.cfi_def_cfa_offset 16
.Lcfi71:
	.cfi_offset rbp, -16
	mov	rbp, rsp
.Lcfi72:
	.cfi_def_cfa_register rbp
	push	r15
	push	r14
	push	r13
	push	r12
	push	rbx
	sub	rsp, 216
.Lcfi73:
	.cfi_offset rbx, -56
.Lcfi74:
	.cfi_offset r12, -48
.Lcfi75:
	.cfi_offset r13, -40
.Lcfi76:
	.cfi_offset r14, -32
.Lcfi77:
	.cfi_offset r15, -24
	mov	eax, dword ptr [x.51]
	mov	r8d, dword ptr [y.52]
	mov	r9d, eax
	sub	r9d, -1995613371
	sub	r9d, 1
	add	r9d, -1995613371
	imul	eax, r9d
	and	eax, 1
	cmp	eax, 0
	sete	r10b
	and	r10b, 1
	mov	byte ptr [rbp - 122], r10b
	cmp	r8d, 10
	setl	r10b
	and	r10b, 1
	mov	byte ptr [rbp - 121], r10b
	mov	dword ptr [rbp - 128], -610520971
	mov	qword ptr [rbp - 136], rdx 
	mov	qword ptr [rbp - 144], rsi 
	mov	qword ptr [rbp - 152], rdi 
	mov	qword ptr [rbp - 160], rcx 
.LBB22_1:                               
	mov	eax, dword ptr [rbp - 128]
	mov	ecx, eax
	sub	ecx, -2017619254
	mov	dword ptr [rbp - 164], eax 
	mov	dword ptr [rbp - 168], ecx 
	je	.LBB22_13
	jmp	.LBB22_23
.LBB22_23:                              
	mov	eax, dword ptr [rbp - 164] 
	sub	eax, -1831572616
	mov	dword ptr [rbp - 172], eax 
	je	.LBB22_6
	jmp	.LBB22_24
.LBB22_24:                              
	mov	eax, dword ptr [rbp - 164] 
	sub	eax, -1619653617
	mov	dword ptr [rbp - 176], eax 
	je	.LBB22_12
	jmp	.LBB22_25
.LBB22_25:                              
	mov	eax, dword ptr [rbp - 164] 
	sub	eax, -1272250055
	mov	dword ptr [rbp - 180], eax 
	je	.LBB22_17
	jmp	.LBB22_26
.LBB22_26:                              
	mov	eax, dword ptr [rbp - 164] 
	sub	eax, -709918433
	mov	dword ptr [rbp - 184], eax 
	je	.LBB22_10
	jmp	.LBB22_27
.LBB22_27:                              
	mov	eax, dword ptr [rbp - 164] 
	sub	eax, -610520971
	mov	dword ptr [rbp - 188], eax 
	je	.LBB22_3
	jmp	.LBB22_28
.LBB22_28:                              
	mov	eax, dword ptr [rbp - 164] 
	sub	eax, -356622509
	mov	dword ptr [rbp - 192], eax 
	je	.LBB22_20
	jmp	.LBB22_29
.LBB22_29:                              
	mov	eax, dword ptr [rbp - 164] 
	sub	eax, -255660003
	mov	dword ptr [rbp - 196], eax 
	je	.LBB22_14
	jmp	.LBB22_30
.LBB22_30:                              
	mov	eax, dword ptr [rbp - 164] 
	sub	eax, -225923819
	mov	dword ptr [rbp - 200], eax 
	je	.LBB22_7
	jmp	.LBB22_31
.LBB22_31:                              
	mov	eax, dword ptr [rbp - 164] 
	sub	eax, -75427644
	mov	dword ptr [rbp - 204], eax 
	je	.LBB22_8
	jmp	.LBB22_32
.LBB22_32:                              
	mov	eax, dword ptr [rbp - 164] 
	sub	eax, 977046628
	mov	dword ptr [rbp - 208], eax 
	je	.LBB22_11
	jmp	.LBB22_33
.LBB22_33:                              
	mov	eax, dword ptr [rbp - 164] 
	sub	eax, 1094108114
	mov	dword ptr [rbp - 212], eax 
	je	.LBB22_5
	jmp	.LBB22_34
.LBB22_34:                              
	mov	eax, dword ptr [rbp - 164] 
	sub	eax, 1142913816
	mov	dword ptr [rbp - 216], eax 
	je	.LBB22_15
	jmp	.LBB22_35
.LBB22_35:                              
	mov	eax, dword ptr [rbp - 164] 
	sub	eax, 1150562662
	mov	dword ptr [rbp - 220], eax 
	je	.LBB22_19
	jmp	.LBB22_36
.LBB22_36:                              
	mov	eax, dword ptr [rbp - 164] 
	sub	eax, 1461817968
	mov	dword ptr [rbp - 224], eax 
	je	.LBB22_21
	jmp	.LBB22_37
.LBB22_37:                              
	mov	eax, dword ptr [rbp - 164] 
	sub	eax, 1646488726
	mov	dword ptr [rbp - 228], eax 
	je	.LBB22_4
	jmp	.LBB22_38
.LBB22_38:                              
	mov	eax, dword ptr [rbp - 164] 
	sub	eax, 1798962738
	mov	dword ptr [rbp - 232], eax 
	je	.LBB22_16
	jmp	.LBB22_39
.LBB22_39:                              
	mov	eax, dword ptr [rbp - 164] 
	sub	eax, 2076337933
	mov	dword ptr [rbp - 236], eax 
	je	.LBB22_18
	jmp	.LBB22_40
.LBB22_40:                              
	mov	eax, dword ptr [rbp - 164] 
	sub	eax, 2076439238
	mov	dword ptr [rbp - 240], eax 
	je	.LBB22_9
	jmp	.LBB22_2
.LBB22_2:                               
	jmp	.LBB22_22
.LBB22_3:                               
	mov	eax, 2076337933
	mov	ecx, 1646488726
	mov	dl, 1
	mov	sil, byte ptr [rbp - 122]
	mov	dil, byte ptr [rbp - 121]
	mov	r8b, sil
	xor	r8b, -1
	mov	r9b, dil
	xor	r9b, -1
	xor	dl, 1
	mov	r10b, r8b
	and	r10b, -1
	and	sil, dl
	mov	r11b, r9b
	and	r11b, -1
	and	dil, dl
	or	r10b, sil
	or	r11b, dil
	xor	r10b, r11b
	or	r8b, r9b
	xor	r8b, -1
	or	dl, 1
	and	r8b, dl
	or	r10b, r8b
	test	r10b, 1
	cmovne	eax, ecx
	mov	dword ptr [rbp - 128], eax
	jmp	.LBB22_22
.LBB22_4:                               
	mov	rax, rsp
	add	rax, -16
	mov	rsp, rax
	mov	rcx, rsp
	add	rcx, -16
	mov	rsp, rcx
	mov	qword ptr [rbp - 120], rcx
	mov	rcx, rsp
	add	rcx, -16
	mov	rsp, rcx
	mov	qword ptr [rbp - 112], rcx
	mov	rcx, rsp
	add	rcx, -16
	mov	rsp, rcx
	mov	qword ptr [rbp - 104], rcx
	mov	rcx, rsp
	add	rcx, -16
	mov	rsp, rcx
	mov	qword ptr [rbp - 96], rcx
	mov	rcx, rsp
	add	rcx, -16
	mov	rsp, rcx
	mov	qword ptr [rbp - 88], rcx
	mov	rcx, rsp
	add	rcx, -16
	mov	rsp, rcx
	mov	qword ptr [rbp - 80], rcx
	mov	rcx, rsp
	add	rcx, -16
	mov	rsp, rcx
	mov	qword ptr [rbp - 72], rcx
	mov	rcx, rsp
	add	rcx, -16
	mov	rsp, rcx
	mov	qword ptr [rbp - 64], rcx
	mov	rcx, rsp
	add	rcx, -16
	mov	rsp, rcx
	mov	qword ptr [rbp - 56], rcx
	mov	rcx, qword ptr [rbp - 152] 
	mov	qword ptr [rax], rcx
	mov	rdx, qword ptr [rbp - 120]
	mov	rsi, qword ptr [rbp - 144] 
	mov	qword ptr [rdx], rsi
	mov	rdx, qword ptr [rbp - 112]
	mov	rdi, qword ptr [rbp - 136] 
	mov	qword ptr [rdx], rdi
	mov	rdx, qword ptr [rbp - 104]
	mov	r8, qword ptr [rbp - 160] 
	mov	qword ptr [rdx], r8
	mov	rax, qword ptr [rax]
	mov	qword ptr [rbp - 48], rax
	mov	rax, qword ptr [rbp - 48]
	mov	rdx, qword ptr [rbp - 48]
	add	rdx, 8
	mov	rdi, rdx
	mov	qword ptr [rbp - 248], rax 
	call	_ZNKSt6vectorIjN5Botan16secure_allocatorIjEEE5emptyEv
	and	al, 1
	movzx	r9d, al
	cmp	r9d, 0
	sete	al
	and	al, 1
	movzx	esi, al
	mov	rdi, qword ptr [rbp - 248] 
	call	_ZNK5Botan18SymmetricAlgorithm14verify_key_setEb
	mov	esi, 2076337933
	mov	r9d, 1094108114
	mov	al, 1
	mov	r10d, dword ptr [x.51]
	mov	r11d, dword ptr [y.52]
	mov	ebx, r10d
	sub	ebx, 1013146426
	sub	ebx, 1
	add	ebx, 1013146426
	imul	r10d, ebx
	and	r10d, 1
	cmp	r10d, 0
	sete	r14b
	cmp	r11d, 10
	setl	r15b
	mov	r12b, r14b
	xor	r12b, -1
	mov	r13b, r15b
	xor	r13b, -1
	xor	al, 0
	mov	cl, r12b
	and	cl, 0
	and	r14b, al
	mov	dl, r13b
	and	dl, 0
	and	r15b, al
	or	cl, r14b
	or	dl, r15b
	xor	cl, dl
	or	r12b, r13b
	xor	r12b, -1
	or	al, 0
	and	r12b, al
	or	cl, r12b
	test	cl, 1
	cmovne	esi, r9d
	mov	dword ptr [rbp - 128], esi
	jmp	.LBB22_22
.LBB22_5:                               
	mov	dword ptr [rbp - 128], -1831572616
	jmp	.LBB22_22
.LBB22_6:                               
	mov	eax, 3585048863
	mov	ecx, 4069043477
	mov	rdx, qword ptr [rbp - 104]
	cmp	qword ptr [rdx], 2
	cmovae	eax, ecx
	mov	dword ptr [rbp - 128], eax
	jmp	.LBB22_22
.LBB22_7:                               
	mov	eax, 1150562662
	mov	ecx, 4219539652
	mov	edx, dword ptr [x.51]
	mov	esi, dword ptr [y.52]
	mov	edi, edx
	add	edi, 436298516
	sub	edi, 1
	sub	edi, 436298516
	imul	edx, edi
	and	edx, 1
	cmp	edx, 0
	sete	r8b
	cmp	esi, 10
	setl	r9b
	mov	r10b, r8b
	and	r10b, r9b
	xor	r8b, r9b
	or	r10b, r8b
	test	r10b, 1
	cmovne	eax, ecx
	mov	dword ptr [rbp - 128], eax
	jmp	.LBB22_22
.LBB22_8:                               
	xor	eax, eax
	mov	esi, eax
	mov	rcx, qword ptr [rbp - 120]
	mov	rdi, qword ptr [rcx]
	call	_ZN5Botan7load_beIjEET_PKhm
	mov	edx, 1
	mov	esi, edx
	mov	rcx, qword ptr [rbp - 96]
	mov	dword ptr [rcx], eax
	mov	rcx, qword ptr [rbp - 120]
	mov	rdi, qword ptr [rcx]
	call	_ZN5Botan7load_beIjEET_PKhm
	mov	edx, 2
	mov	esi, edx
	mov	rcx, qword ptr [rbp - 88]
	mov	dword ptr [rcx], eax
	mov	rcx, qword ptr [rbp - 120]
	mov	rdi, qword ptr [rcx]
	call	_ZN5Botan7load_beIjEET_PKhm
	mov	edx, 3
	mov	esi, edx
	mov	rcx, qword ptr [rbp - 80]
	mov	dword ptr [rcx], eax
	mov	rcx, qword ptr [rbp - 120]
	mov	rdi, qword ptr [rcx]
	call	_ZN5Botan7load_beIjEET_PKhm
	mov	rcx, qword ptr [rbp - 72]
	mov	dword ptr [rcx], eax
	mov	rdi, qword ptr [rbp - 96]
	mov	rsi, qword ptr [rbp - 88]
	call	_ZN5Botan12_GLOBAL__N_16des_IPERjS1_
	mov	rdi, qword ptr [rbp - 80]
	mov	rsi, qword ptr [rbp - 72]
	call	_ZN5Botan12_GLOBAL__N_16des_IPERjS1_
	mov	eax, 64
	mov	esi, eax
	mov	rcx, qword ptr [rbp - 48]
	add	rcx, 8
	mov	rdi, rcx
	call	_ZNKSt6vectorIjN5Botan16secure_allocatorIjEEEixEm
	mov	rdi, qword ptr [rbp - 96]
	mov	rsi, qword ptr [rbp - 88]
	mov	rdx, qword ptr [rbp - 80]
	mov	rcx, qword ptr [rbp - 72]
	mov	r8, rax
	call	_ZN5Botan12_GLOBAL__N_114des_decrypt_x2ERjS1_S1_S1_PKj
	mov	r9d, 32
	mov	esi, r9d
	mov	rax, qword ptr [rbp - 48]
	add	rax, 8
	mov	rdi, rax
	call	_ZNKSt6vectorIjN5Botan16secure_allocatorIjEEEixEm
	mov	rsi, qword ptr [rbp - 96]
	mov	rdi, qword ptr [rbp - 88]
	mov	rcx, qword ptr [rbp - 80]
	mov	rdx, qword ptr [rbp - 72]
	mov	r8, rax
	call	_ZN5Botan12_GLOBAL__N_114des_encrypt_x2ERjS1_S1_S1_PKj
	xor	r9d, r9d
	mov	esi, r9d
	mov	rax, qword ptr [rbp - 48]
	add	rax, 8
	mov	rdi, rax
	call	_ZNKSt6vectorIjN5Botan16secure_allocatorIjEEEixEm
	mov	rdi, qword ptr [rbp - 96]
	mov	rsi, qword ptr [rbp - 88]
	mov	rdx, qword ptr [rbp - 80]
	mov	rcx, qword ptr [rbp - 72]
	mov	r8, rax
	call	_ZN5Botan12_GLOBAL__N_114des_decrypt_x2ERjS1_S1_S1_PKj
	mov	rdi, qword ptr [rbp - 96]
	mov	rsi, qword ptr [rbp - 88]
	call	_ZN5Botan12_GLOBAL__N_16des_FPERjS1_
	mov	rdi, qword ptr [rbp - 80]
	mov	rsi, qword ptr [rbp - 72]
	call	_ZN5Botan12_GLOBAL__N_16des_FPERjS1_
	mov	rax, qword ptr [rbp - 112]
	mov	rdi, qword ptr [rax]
	mov	rax, qword ptr [rbp - 88]
	mov	esi, dword ptr [rax]
	mov	rax, qword ptr [rbp - 96]
	mov	edx, dword ptr [rax]
	mov	rax, qword ptr [rbp - 72]
	mov	ecx, dword ptr [rax]
	mov	rax, qword ptr [rbp - 80]
	mov	r8d, dword ptr [rax]
	call	_ZN5Botan8store_beIjEEvPhT_S2_S2_S2_
	mov	ecx, 1150562662
	mov	edx, 2076439238
	mov	r10b, 1
	movabs	rax, -5288122727801189863
	mov	rdi, qword ptr [rbp - 120]
	mov	rdi, qword ptr [rdi]
	add	rdi, 16
	mov	r11, qword ptr [rbp - 120]
	mov	qword ptr [r11], rdi
	mov	rdi, qword ptr [rbp - 112]
	mov	rdi, qword ptr [rdi]
	add	rdi, 16
	mov	r11, qword ptr [rbp - 112]
	mov	qword ptr [r11], rdi
	mov	rdi, qword ptr [rbp - 104]
	mov	rdi, qword ptr [rdi]
	sub	rdi, rax
	sub	rdi, 2
	add	rdi, rax
	mov	rax, qword ptr [rbp - 104]
	mov	qword ptr [rax], rdi
	mov	esi, dword ptr [x.51]
	mov	r8d, dword ptr [y.52]
	mov	r9d, esi
	add	r9d, -291314765
	sub	r9d, 1
	sub	r9d, -291314765
	imul	esi, r9d
	and	esi, 1
	cmp	esi, 0
	sete	bl
	cmp	r8d, 10
	setl	r14b
	mov	r15b, bl
	xor	r15b, -1
	mov	r12b, r14b
	xor	r12b, -1
	xor	r10b, 0
	mov	r13b, r15b
	and	r13b, 0
	and	bl, r10b
	mov	al, r12b
	and	al, 0
	and	r14b, r10b
	or	r13b, bl
	or	al, r14b
	xor	r13b, al
	or	r15b, r12b
	xor	r15b, -1
	or	r10b, 0
	and	r15b, r10b
	or	r13b, r15b
	test	r13b, 1
	cmovne	ecx, edx
	mov	dword ptr [rbp - 128], ecx
	jmp	.LBB22_22
.LBB22_9:                               
	mov	dword ptr [rbp - 128], -1831572616
	jmp	.LBB22_22
.LBB22_10:                              
	mov	eax, 3938344787
	mov	ecx, 977046628
	mov	edx, dword ptr [x.51]
	mov	esi, dword ptr [y.52]
	mov	edi, edx
	add	edi, 2077015806
	sub	edi, 1
	sub	edi, 2077015806
	imul	edx, edi
	and	edx, 1
	cmp	edx, 0
	sete	r8b
	cmp	esi, 10
	setl	r9b
	mov	r10b, r8b
	and	r10b, r9b
	xor	r8b, r9b
	or	r10b, r8b
	test	r10b, 1
	cmovne	eax, ecx
	mov	dword ptr [rbp - 128], eax
	jmp	.LBB22_22
.LBB22_11:                              
	mov	eax, 3938344787
	mov	ecx, 2675313679
	xor	edx, edx
	mov	esi, dword ptr [x.51]
	mov	edi, dword ptr [y.52]
	sub	edx, 1
	mov	r8d, esi
	add	r8d, edx
	imul	esi, r8d
	and	esi, 1
	cmp	esi, 0
	sete	r9b
	cmp	edi, 10
	setl	r10b
	mov	r11b, r9b
	and	r11b, r10b
	xor	r9b, r10b
	or	r11b, r9b
	test	r11b, 1
	cmovne	eax, ecx
	mov	dword ptr [rbp - 128], eax
	jmp	.LBB22_22
.LBB22_12:                              
	mov	dword ptr [rbp - 128], -2017619254
	jmp	.LBB22_22
.LBB22_13:                              
	mov	eax, 3022717241
	mov	ecx, 4039307293
	mov	rdx, qword ptr [rbp - 104]
	cmp	qword ptr [rdx], 0
	cmova	eax, ecx
	mov	dword ptr [rbp - 128], eax
	jmp	.LBB22_22
.LBB22_14:                              
	mov	eax, 1461817968
	mov	ecx, 1142913816
	mov	edx, dword ptr [x.51]
	mov	esi, dword ptr [y.52]
	mov	edi, edx
	add	edi, 1010009885
	sub	edi, 1
	sub	edi, 1010009885
	imul	edx, edi
	and	edx, 1
	cmp	edx, 0
	sete	r8b
	cmp	esi, 10
	setl	r9b
	mov	r10b, r8b
	and	r10b, r9b
	xor	r8b, r9b
	or	r10b, r8b
	test	r10b, 1
	cmovne	eax, ecx
	mov	dword ptr [rbp - 128], eax
	jmp	.LBB22_22
.LBB22_15:                              
	xor	eax, eax
	mov	esi, eax
	mov	rcx, qword ptr [rbp - 120]
	mov	rdi, qword ptr [rcx]
	call	_ZN5Botan7load_beIjEET_PKhm
	mov	edx, 1
	mov	esi, edx
	mov	rcx, qword ptr [rbp - 64]
	mov	dword ptr [rcx], eax
	mov	rcx, qword ptr [rbp - 120]
	mov	rdi, qword ptr [rcx]
	call	_ZN5Botan7load_beIjEET_PKhm
	mov	rcx, qword ptr [rbp - 56]
	mov	dword ptr [rcx], eax
	mov	rdi, qword ptr [rbp - 64]
	mov	rsi, qword ptr [rbp - 56]
	call	_ZN5Botan12_GLOBAL__N_16des_IPERjS1_
	mov	eax, 64
	mov	esi, eax
	mov	rcx, qword ptr [rbp - 48]
	add	rcx, 8
	mov	rdi, rcx
	call	_ZNKSt6vectorIjN5Botan16secure_allocatorIjEEEixEm
	mov	rdi, qword ptr [rbp - 64]
	mov	rsi, qword ptr [rbp - 56]
	mov	rdx, rax
	call	_ZN5Botan12_GLOBAL__N_111des_decryptERjS1_PKj
	mov	r8d, 32
	mov	esi, r8d
	mov	rax, qword ptr [rbp - 48]
	add	rax, 8
	mov	rdi, rax
	call	_ZNKSt6vectorIjN5Botan16secure_allocatorIjEEEixEm
	mov	rsi, qword ptr [rbp - 64]
	mov	rdi, qword ptr [rbp - 56]
	mov	rdx, rax
	call	_ZN5Botan12_GLOBAL__N_111des_encryptERjS1_PKj
	xor	r8d, r8d
	mov	esi, r8d
	mov	rax, qword ptr [rbp - 48]
	add	rax, 8
	mov	rdi, rax
	call	_ZNKSt6vectorIjN5Botan16secure_allocatorIjEEEixEm
	mov	rdi, qword ptr [rbp - 64]
	mov	rsi, qword ptr [rbp - 56]
	mov	rdx, rax
	call	_ZN5Botan12_GLOBAL__N_111des_decryptERjS1_PKj
	mov	rdi, qword ptr [rbp - 64]
	mov	rsi, qword ptr [rbp - 56]
	call	_ZN5Botan12_GLOBAL__N_16des_FPERjS1_
	mov	rax, qword ptr [rbp - 112]
	mov	rdi, qword ptr [rax]
	mov	rax, qword ptr [rbp - 56]
	mov	esi, dword ptr [rax]
	mov	rax, qword ptr [rbp - 64]
	mov	edx, dword ptr [rax]
	call	_ZN5Botan8store_beIjEEvPhT_S2_
	mov	edx, 1461817968
	mov	esi, 1798962738
	xor	r8d, r8d
	movabs	rax, 348402877325556338
	mov	rcx, qword ptr [rbp - 120]
	mov	rcx, qword ptr [rcx]
	add	rcx, 8
	mov	rdi, qword ptr [rbp - 120]
	mov	qword ptr [rdi], rcx
	mov	rcx, qword ptr [rbp - 112]
	mov	rcx, qword ptr [rcx]
	add	rcx, 8
	mov	rdi, qword ptr [rbp - 112]
	mov	qword ptr [rdi], rcx
	mov	rcx, qword ptr [rbp - 104]
	mov	rcx, qword ptr [rcx]
	add	rcx, rax
	sub	rcx, 1
	sub	rcx, rax
	mov	rax, qword ptr [rbp - 104]
	mov	qword ptr [rax], rcx
	mov	r9d, dword ptr [x.51]
	mov	r10d, dword ptr [y.52]
	sub	r8d, 1
	mov	r11d, r9d
	add	r11d, r8d
	imul	r9d, r11d
	and	r9d, 1
	cmp	r9d, 0
	sete	bl
	cmp	r10d, 10
	setl	r14b
	mov	r15b, bl
	and	r15b, r14b
	xor	bl, r14b
	or	r15b, bl
	test	r15b, 1
	cmovne	edx, esi
	mov	dword ptr [rbp - 128], edx
	jmp	.LBB22_22
.LBB22_16:                              
	mov	dword ptr [rbp - 128], -2017619254
	jmp	.LBB22_22
.LBB22_17:
	lea	rsp, [rbp - 40]
	pop	rbx
	pop	r12
	pop	r13
	pop	r14
	pop	r15
	pop	rbp
	ret
.LBB22_18:                              
	mov	rax, rsp
	add	rax, -16
	mov	rsp, rax
	mov	rcx, rsp
	add	rcx, -16
	mov	rsp, rcx
	mov	rdx, rsp
	add	rdx, -16
	mov	rsp, rdx
	mov	rsi, rsp
	add	rsi, -16
	mov	rsp, rsi
	mov	rdi, qword ptr [rbp - 152] 
	mov	qword ptr [rax], rdi
	mov	r8, qword ptr [rbp - 144] 
	mov	qword ptr [rcx], r8
	mov	rcx, qword ptr [rbp - 136] 
	mov	qword ptr [rdx], rcx
	mov	rdx, qword ptr [rbp - 160] 
	mov	qword ptr [rsi], rdx
	mov	rax, qword ptr [rax]
	mov	rsi, rax
	add	rax, 8
	mov	rdi, rax
	mov	qword ptr [rbp - 256], rsi 
	call	_ZNKSt6vectorIjN5Botan16secure_allocatorIjEEE5emptyEv
	and	al, 1
	movzx	r9d, al
	cmp	r9d, 0
	sete	al
	and	al, 1
	movzx	esi, al
	mov	rdi, qword ptr [rbp - 256] 
	call	_ZNK5Botan18SymmetricAlgorithm14verify_key_setEb
	mov	dword ptr [rbp - 128], 1646488726
	jmp	.LBB22_22
.LBB22_19:                              
	xor	eax, eax
	mov	esi, eax
	mov	rcx, qword ptr [rbp - 120]
	mov	rdi, qword ptr [rcx]
	call	_ZN5Botan7load_beIjEET_PKhm
	mov	edx, 1
	mov	esi, edx
	mov	rcx, qword ptr [rbp - 96]
	mov	dword ptr [rcx], eax
	mov	rcx, qword ptr [rbp - 120]
	mov	rdi, qword ptr [rcx]
	call	_ZN5Botan7load_beIjEET_PKhm
	mov	edx, 2
	mov	esi, edx
	mov	rcx, qword ptr [rbp - 88]
	mov	dword ptr [rcx], eax
	mov	rcx, qword ptr [rbp - 120]
	mov	rdi, qword ptr [rcx]
	call	_ZN5Botan7load_beIjEET_PKhm
	mov	edx, 3
	mov	esi, edx
	mov	rcx, qword ptr [rbp - 80]
	mov	dword ptr [rcx], eax
	mov	rcx, qword ptr [rbp - 120]
	mov	rdi, qword ptr [rcx]
	call	_ZN5Botan7load_beIjEET_PKhm
	mov	rcx, qword ptr [rbp - 72]
	mov	dword ptr [rcx], eax
	mov	rdi, qword ptr [rbp - 96]
	mov	rsi, qword ptr [rbp - 88]
	call	_ZN5Botan12_GLOBAL__N_16des_IPERjS1_
	mov	rdi, qword ptr [rbp - 80]
	mov	rsi, qword ptr [rbp - 72]
	call	_ZN5Botan12_GLOBAL__N_16des_IPERjS1_
	mov	eax, 64
	mov	esi, eax
	mov	rcx, qword ptr [rbp - 48]
	add	rcx, 8
	mov	rdi, rcx
	call	_ZNKSt6vectorIjN5Botan16secure_allocatorIjEEEixEm
	mov	rdi, qword ptr [rbp - 96]
	mov	rsi, qword ptr [rbp - 88]
	mov	rdx, qword ptr [rbp - 80]
	mov	rcx, qword ptr [rbp - 72]
	mov	r8, rax
	call	_ZN5Botan12_GLOBAL__N_114des_decrypt_x2ERjS1_S1_S1_PKj
	mov	r9d, 32
	mov	esi, r9d
	mov	rax, qword ptr [rbp - 48]
	add	rax, 8
	mov	rdi, rax
	call	_ZNKSt6vectorIjN5Botan16secure_allocatorIjEEEixEm
	mov	rsi, qword ptr [rbp - 96]
	mov	rdi, qword ptr [rbp - 88]
	mov	rcx, qword ptr [rbp - 80]
	mov	rdx, qword ptr [rbp - 72]
	mov	r8, rax
	call	_ZN5Botan12_GLOBAL__N_114des_encrypt_x2ERjS1_S1_S1_PKj
	xor	r9d, r9d
	mov	esi, r9d
	mov	rax, qword ptr [rbp - 48]
	add	rax, 8
	mov	rdi, rax
	call	_ZNKSt6vectorIjN5Botan16secure_allocatorIjEEEixEm
	mov	rdi, qword ptr [rbp - 96]
	mov	rsi, qword ptr [rbp - 88]
	mov	rdx, qword ptr [rbp - 80]
	mov	rcx, qword ptr [rbp - 72]
	mov	r8, rax
	call	_ZN5Botan12_GLOBAL__N_114des_decrypt_x2ERjS1_S1_S1_PKj
	mov	rdi, qword ptr [rbp - 96]
	mov	rsi, qword ptr [rbp - 88]
	call	_ZN5Botan12_GLOBAL__N_16des_FPERjS1_
	mov	rdi, qword ptr [rbp - 80]
	mov	rsi, qword ptr [rbp - 72]
	call	_ZN5Botan12_GLOBAL__N_16des_FPERjS1_
	mov	rax, qword ptr [rbp - 112]
	mov	rdi, qword ptr [rax]
	mov	rax, qword ptr [rbp - 88]
	mov	esi, dword ptr [rax]
	mov	rax, qword ptr [rbp - 96]
	mov	edx, dword ptr [rax]
	mov	rax, qword ptr [rbp - 72]
	mov	ecx, dword ptr [rax]
	mov	rax, qword ptr [rbp - 80]
	mov	r8d, dword ptr [rax]
	call	_ZN5Botan8store_beIjEEvPhT_S2_S2_S2_
	movabs	rax, 2376980085143774336
	mov	rdi, qword ptr [rbp - 120]
	mov	rdi, qword ptr [rdi]
	add	rdi, 16
	mov	r10, qword ptr [rbp - 120]
	mov	qword ptr [r10], rdi
	mov	rdi, qword ptr [rbp - 112]
	mov	rdi, qword ptr [rdi]
	add	rdi, 16
	mov	r10, qword ptr [rbp - 112]
	mov	qword ptr [r10], rdi
	mov	rdi, qword ptr [rbp - 104]
	mov	rdi, qword ptr [rdi]
	add	rdi, rax
	sub	rdi, 2
	sub	rdi, rax
	mov	rax, qword ptr [rbp - 104]
	mov	qword ptr [rax], rdi
	mov	dword ptr [rbp - 128], -75427644
	jmp	.LBB22_22
.LBB22_20:                              
	mov	dword ptr [rbp - 128], 977046628
	jmp	.LBB22_22
.LBB22_21:                              
	xor	eax, eax
	mov	esi, eax
	mov	rcx, qword ptr [rbp - 120]
	mov	rdi, qword ptr [rcx]
	call	_ZN5Botan7load_beIjEET_PKhm
	mov	edx, 1
	mov	esi, edx
	mov	rcx, qword ptr [rbp - 64]
	mov	dword ptr [rcx], eax
	mov	rcx, qword ptr [rbp - 120]
	mov	rdi, qword ptr [rcx]
	call	_ZN5Botan7load_beIjEET_PKhm
	mov	rcx, qword ptr [rbp - 56]
	mov	dword ptr [rcx], eax
	mov	rdi, qword ptr [rbp - 64]
	mov	rsi, qword ptr [rbp - 56]
	call	_ZN5Botan12_GLOBAL__N_16des_IPERjS1_
	mov	eax, 64
	mov	esi, eax
	mov	rcx, qword ptr [rbp - 48]
	add	rcx, 8
	mov	rdi, rcx
	call	_ZNKSt6vectorIjN5Botan16secure_allocatorIjEEEixEm
	mov	rdi, qword ptr [rbp - 64]
	mov	rsi, qword ptr [rbp - 56]
	mov	rdx, rax
	call	_ZN5Botan12_GLOBAL__N_111des_decryptERjS1_PKj
	mov	r8d, 32
	mov	esi, r8d
	mov	rax, qword ptr [rbp - 48]
	add	rax, 8
	mov	rdi, rax
	call	_ZNKSt6vectorIjN5Botan16secure_allocatorIjEEEixEm
	mov	rsi, qword ptr [rbp - 64]
	mov	rdi, qword ptr [rbp - 56]
	mov	rdx, rax
	call	_ZN5Botan12_GLOBAL__N_111des_encryptERjS1_PKj
	xor	r8d, r8d
	mov	esi, r8d
	mov	rax, qword ptr [rbp - 48]
	add	rax, 8
	mov	rdi, rax
	call	_ZNKSt6vectorIjN5Botan16secure_allocatorIjEEEixEm
	mov	rdi, qword ptr [rbp - 64]
	mov	rsi, qword ptr [rbp - 56]
	mov	rdx, rax
	call	_ZN5Botan12_GLOBAL__N_111des_decryptERjS1_PKj
	mov	rdi, qword ptr [rbp - 64]
	mov	rsi, qword ptr [rbp - 56]
	call	_ZN5Botan12_GLOBAL__N_16des_FPERjS1_
	mov	rax, qword ptr [rbp - 112]
	mov	rdi, qword ptr [rax]
	mov	rax, qword ptr [rbp - 56]
	mov	esi, dword ptr [rax]
	mov	rax, qword ptr [rbp - 64]
	mov	edx, dword ptr [rax]
	call	_ZN5Botan8store_beIjEEvPhT_S2_
	movabs	rax, -7732889883438394775
	mov	rcx, qword ptr [rbp - 120]
	mov	rcx, qword ptr [rcx]
	add	rcx, 8
	mov	rdi, qword ptr [rbp - 120]
	mov	qword ptr [rdi], rcx
	mov	rcx, qword ptr [rbp - 112]
	mov	rcx, qword ptr [rcx]
	add	rcx, 8
	mov	rdi, qword ptr [rbp - 112]
	mov	qword ptr [rdi], rcx
	mov	rcx, qword ptr [rbp - 104]
	mov	rcx, qword ptr [rcx]
	add	rcx, rax
	sub	rcx, 1
	sub	rcx, rax
	mov	rax, qword ptr [rbp - 104]
	mov	qword ptr [rax], rcx
	mov	dword ptr [rbp - 128], 1142913816
.LBB22_22:                              
	jmp	.LBB22_1
.Lfunc_end22:
	.size	_ZNK5Botan9TripleDES9decrypt_nEPKhPhm, .Lfunc_end22-_ZNK5Botan9TripleDES9decrypt_nEPKhPhm
	.cfi_endproc

	.globl	_ZN5Botan9TripleDES12key_scheduleEPKhm 
	.p2align	4, 0x90
	.type	_ZN5Botan9TripleDES12key_scheduleEPKhm,@function
_ZN5Botan9TripleDES12key_scheduleEPKhm: 
	.cfi_startproc

	push	rbp
.Lcfi78:
	.cfi_def_cfa_offset 16
.Lcfi79:
	.cfi_offset rbp, -16
	mov	rbp, rsp
.Lcfi80:
	.cfi_def_cfa_register rbp
	push	r15
	push	r14
	push	r13
	push	r12
	push	rbx
	sub	rsp, 104
.Lcfi81:
	.cfi_offset rbx, -56
.Lcfi82:
	.cfi_offset r12, -48
.Lcfi83:
	.cfi_offset r13, -40
.Lcfi84:
	.cfi_offset r14, -32
.Lcfi85:
	.cfi_offset r15, -24
	mov	eax, 96
	mov	ecx, eax
	mov	qword ptr [rbp - 64], rdi
	mov	qword ptr [rbp - 72], rsi
	mov	qword ptr [rbp - 80], rdx
	mov	rdx, qword ptr [rbp - 64]
	mov	qword ptr [rbp - 56], rdx
	mov	rdx, qword ptr [rbp - 56]
	add	rdx, 8
	mov	rdi, rdx
	mov	rsi, rcx
	call	_ZNSt6vectorIjN5Botan16secure_allocatorIjEEE6resizeEm
	xor	eax, eax
	mov	esi, eax
	mov	rcx, qword ptr [rbp - 56]
	add	rcx, 8
	mov	rdi, rcx
	call	_ZNSt6vectorIjN5Botan16secure_allocatorIjEEEixEm
	mov	rsi, qword ptr [rbp - 72]
	mov	rdi, rax
	call	_ZN5Botan12_GLOBAL__N_116des_key_scheduleEPjPKh
	mov	r8d, 32
	mov	esi, r8d
	mov	rax, qword ptr [rbp - 56]
	add	rax, 8
	mov	rdi, rax
	call	_ZNSt6vectorIjN5Botan16secure_allocatorIjEEEixEm
	mov	rcx, qword ptr [rbp - 72]
	add	rcx, 8
	mov	rdi, rax
	mov	rsi, rcx
	call	_ZN5Botan12_GLOBAL__N_116des_key_scheduleEPjPKh
	mov	rax, qword ptr [rbp - 80]
	mov	qword ptr [rbp - 48], rax
	mov	dword ptr [rbp - 84], -873579030
.LBB23_1:                               
	mov	eax, dword ptr [rbp - 84]
	mov	ecx, eax
	sub	ecx, -1335882875
	mov	dword ptr [rbp - 88], eax 
	mov	dword ptr [rbp - 92], ecx 
	je	.LBB23_11
	jmp	.LBB23_14
.LBB23_14:                              
	mov	eax, dword ptr [rbp - 88] 
	sub	eax, -1159077028
	mov	dword ptr [rbp - 96], eax 
	je	.LBB23_9
	jmp	.LBB23_15
.LBB23_15:                              
	mov	eax, dword ptr [rbp - 88] 
	sub	eax, -993898114
	mov	dword ptr [rbp - 100], eax 
	je	.LBB23_10
	jmp	.LBB23_16
.LBB23_16:                              
	mov	eax, dword ptr [rbp - 88] 
	sub	eax, -873579030
	mov	dword ptr [rbp - 104], eax 
	je	.LBB23_3
	jmp	.LBB23_17
.LBB23_17:                              
	mov	eax, dword ptr [rbp - 88] 
	sub	eax, -841799418
	mov	dword ptr [rbp - 108], eax 
	je	.LBB23_7
	jmp	.LBB23_18
.LBB23_18:                              
	mov	eax, dword ptr [rbp - 88] 
	sub	eax, -315823336
	mov	dword ptr [rbp - 112], eax 
	je	.LBB23_6
	jmp	.LBB23_19
.LBB23_19:                              
	mov	eax, dword ptr [rbp - 88] 
	sub	eax, 603288965
	mov	dword ptr [rbp - 116], eax 
	je	.LBB23_5
	jmp	.LBB23_20
.LBB23_20:                              
	mov	eax, dword ptr [rbp - 88] 
	sub	eax, 833770832
	mov	dword ptr [rbp - 120], eax 
	je	.LBB23_12
	jmp	.LBB23_21
.LBB23_21:                              
	mov	eax, dword ptr [rbp - 88] 
	sub	eax, 1195816153
	mov	dword ptr [rbp - 124], eax 
	je	.LBB23_4
	jmp	.LBB23_22
.LBB23_22:                              
	mov	eax, dword ptr [rbp - 88] 
	sub	eax, 1323502619
	mov	dword ptr [rbp - 128], eax 
	je	.LBB23_8
	jmp	.LBB23_2
.LBB23_2:                               
	jmp	.LBB23_13
.LBB23_3:                               
	mov	eax, 3453167878
	mov	ecx, 1195816153
	mov	rdx, qword ptr [rbp - 48]
	cmp	rdx, 24
	cmove	eax, ecx
	mov	dword ptr [rbp - 84], eax
	jmp	.LBB23_13
.LBB23_4:                               
	mov	eax, 2959084421
	mov	ecx, 603288965
	mov	dl, 1
	xor	esi, esi
	mov	edi, dword ptr [x.53]
	mov	r8d, dword ptr [y.54]
	sub	esi, 1
	mov	r9d, edi
	add	r9d, esi
	imul	edi, r9d
	and	edi, 1
	cmp	edi, 0
	sete	r10b
	cmp	r8d, 10
	setl	r11b
	mov	bl, r10b
	xor	bl, -1
	mov	r14b, r11b
	xor	r14b, -1
	xor	dl, 1
	mov	r15b, bl
	and	r15b, -1
	and	r10b, dl
	mov	r12b, r14b
	and	r12b, -1
	and	r11b, dl
	or	r15b, r10b
	or	r12b, r11b
	xor	r15b, r12b
	or	bl, r14b
	xor	bl, -1
	or	dl, 1
	and	bl, dl
	or	r15b, bl
	test	r15b, 1
	cmovne	eax, ecx
	mov	dword ptr [rbp - 84], eax
	jmp	.LBB23_13
.LBB23_5:                               
	mov	eax, 64
	mov	esi, eax
	mov	rcx, qword ptr [rbp - 56]
	add	rcx, 8
	mov	rdi, rcx
	call	_ZNSt6vectorIjN5Botan16secure_allocatorIjEEEixEm
	mov	rcx, qword ptr [rbp - 72]
	add	rcx, 16
	mov	rdi, rax
	mov	rsi, rcx
	call	_ZN5Botan12_GLOBAL__N_116des_key_scheduleEPjPKh
	mov	edx, 2959084421
	mov	r8d, 3979143960
	mov	r9b, 1
	xor	r10d, r10d
	mov	r11d, dword ptr [x.53]
	mov	ebx, dword ptr [y.54]
	sub	r10d, 1
	mov	r14d, r11d
	add	r14d, r10d
	imul	r11d, r14d
	and	r11d, 1
	cmp	r11d, 0
	sete	r15b
	cmp	ebx, 10
	setl	r12b
	mov	r13b, r15b
	xor	r13b, -1
	mov	al, r12b
	xor	al, -1
	xor	r9b, 1
	mov	cl, r13b
	and	cl, -1
	and	r15b, r9b
	mov	sil, al
	and	sil, -1
	and	r12b, r9b
	or	cl, r15b
	or	sil, r12b
	xor	cl, sil
	or	r13b, al
	xor	r13b, -1
	or	r9b, 1
	and	r13b, r9b
	or	cl, r13b
	test	cl, 1
	cmovne	edx, r8d
	mov	dword ptr [rbp - 84], edx
	jmp	.LBB23_13
.LBB23_6:                               
	mov	dword ptr [rbp - 84], -993898114
	jmp	.LBB23_13
.LBB23_7:                               
	mov	eax, 833770832
	mov	ecx, 1323502619
	mov	dl, 1
	mov	esi, dword ptr [x.53]
	mov	edi, dword ptr [y.54]
	mov	r8d, esi
	add	r8d, 1469272784
	sub	r8d, 1
	sub	r8d, 1469272784
	imul	esi, r8d
	and	esi, 1
	cmp	esi, 0
	sete	r9b
	cmp	edi, 10
	setl	r10b
	mov	r11b, r9b
	xor	r11b, -1
	mov	bl, r10b
	xor	bl, -1
	xor	dl, 0
	mov	r14b, r11b
	and	r14b, 0
	and	r9b, dl
	mov	r15b, bl
	and	r15b, 0
	and	r10b, dl
	or	r14b, r9b
	or	r15b, r10b
	xor	r14b, r15b
	or	r11b, bl
	xor	r11b, -1
	or	dl, 0
	and	r11b, dl
	or	r14b, r11b
	test	r14b, 1
	cmovne	eax, ecx
	mov	dword ptr [rbp - 84], eax
	jmp	.LBB23_13
.LBB23_8:                               
	mov	eax, 64
	mov	esi, eax
	mov	rcx, qword ptr [rbp - 56]
	add	rcx, 8
	mov	rdi, rcx
	call	_ZNSt6vectorIjN5Botan16secure_allocatorIjEEEixEm
	xor	edx, edx
	mov	esi, edx
	mov	rcx, qword ptr [rbp - 56]
	add	rcx, 8
	mov	rdi, rcx
	mov	qword ptr [rbp - 136], rax 
	call	_ZNSt6vectorIjN5Botan16secure_allocatorIjEEEixEm
	mov	edx, 32

	mov	rdi, qword ptr [rbp - 136] 
	mov	rsi, rax
	call	_ZN5Botan8copy_memIjEEvPT_PKS1_m
	mov	r8d, 833770832
	mov	r9d, 3135890268
	mov	r10d, dword ptr [x.53]
	mov	r11d, dword ptr [y.54]
	mov	ebx, r10d
	sub	ebx, -1076505951
	sub	ebx, 1
	add	ebx, -1076505951
	imul	r10d, ebx
	and	r10d, 1
	cmp	r10d, 0
	sete	r14b
	cmp	r11d, 10
	setl	r15b
	mov	r12b, r14b
	and	r12b, r15b
	xor	r14b, r15b
	or	r12b, r14b
	test	r12b, 1
	cmovne	r8d, r9d
	mov	dword ptr [rbp - 84], r8d
	jmp	.LBB23_13
.LBB23_9:                               
	mov	dword ptr [rbp - 84], -993898114
	jmp	.LBB23_13
.LBB23_10:
	add	rsp, 104
	pop	rbx
	pop	r12
	pop	r13
	pop	r14
	pop	r15
	pop	rbp
	ret
.LBB23_11:                              
	mov	eax, 64
	mov	esi, eax
	mov	rcx, qword ptr [rbp - 56]
	add	rcx, 8
	mov	rdi, rcx
	call	_ZNSt6vectorIjN5Botan16secure_allocatorIjEEEixEm
	mov	rcx, qword ptr [rbp - 72]
	add	rcx, 16
	mov	rdi, rax
	mov	rsi, rcx
	call	_ZN5Botan12_GLOBAL__N_116des_key_scheduleEPjPKh
	mov	dword ptr [rbp - 84], 603288965
	jmp	.LBB23_13
.LBB23_12:                              
	mov	eax, 64
	mov	esi, eax
	mov	rcx, qword ptr [rbp - 56]
	add	rcx, 8
	mov	rdi, rcx
	call	_ZNSt6vectorIjN5Botan16secure_allocatorIjEEEixEm
	xor	edx, edx
	mov	esi, edx
	mov	rcx, qword ptr [rbp - 56]
	add	rcx, 8
	mov	rdi, rcx
	mov	qword ptr [rbp - 144], rax 
	call	_ZNSt6vectorIjN5Botan16secure_allocatorIjEEEixEm
	mov	edx, 32

	mov	rdi, qword ptr [rbp - 144] 
	mov	rsi, rax
	call	_ZN5Botan8copy_memIjEEvPT_PKS1_m
	mov	dword ptr [rbp - 84], 1323502619
.LBB23_13:                              
	jmp	.LBB23_1
.Lfunc_end23:
	.size	_ZN5Botan9TripleDES12key_scheduleEPKhm, .Lfunc_end23-_ZN5Botan9TripleDES12key_scheduleEPKhm
	.cfi_endproc

	.section	.text._ZNSt6vectorIjN5Botan16secure_allocatorIjEEEixEm,"axG",@progbits,_ZNSt6vectorIjN5Botan16secure_allocatorIjEEEixEm,comdat
	.weak	_ZNSt6vectorIjN5Botan16secure_allocatorIjEEEixEm 
	.p2align	4, 0x90
	.type	_ZNSt6vectorIjN5Botan16secure_allocatorIjEEEixEm,@function
_ZNSt6vectorIjN5Botan16secure_allocatorIjEEEixEm: 

	push	rbp
	mov	rbp, rsp
	mov	qword ptr [rbp - 8], rdi
	mov	qword ptr [rbp - 16], rsi
	mov	rsi, qword ptr [rbp - 8]
	mov	rsi, qword ptr [rsi]
	mov	rdi, qword ptr [rbp - 16]
	shl	rdi, 2
	add	rsi, rdi
	mov	rax, rsi
	pop	rbp
	ret
.Lfunc_end24:
	.size	_ZNSt6vectorIjN5Botan16secure_allocatorIjEEEixEm, .Lfunc_end24-_ZNSt6vectorIjN5Botan16secure_allocatorIjEEEixEm

	.section	.text._ZN5Botan8copy_memIjEEvPT_PKS1_m,"axG",@progbits,_ZN5Botan8copy_memIjEEvPT_PKS1_m,comdat
	.weak	_ZN5Botan8copy_memIjEEvPT_PKS1_m 
	.p2align	4, 0x90
	.type	_ZN5Botan8copy_memIjEEvPT_PKS1_m,@function
_ZN5Botan8copy_memIjEEvPT_PKS1_m:       
	.cfi_startproc

	push	rbp
.Lcfi86:
	.cfi_def_cfa_offset 16
.Lcfi87:
	.cfi_offset rbp, -16
	mov	rbp, rsp
.Lcfi88:
	.cfi_def_cfa_register rbp
	push	r15
	push	r14
	push	r13
	push	r12
	push	rbx
	sub	rsp, 216
.Lcfi89:
	.cfi_offset rbx, -56
.Lcfi90:
	.cfi_offset r12, -48
.Lcfi91:
	.cfi_offset r13, -40
.Lcfi92:
	.cfi_offset r14, -32
.Lcfi93:
	.cfi_offset r15, -24
	mov	eax, dword ptr [x.57]
	mov	ecx, dword ptr [y.58]
	mov	r8d, eax
	add	r8d, -611794637
	sub	r8d, 1
	sub	r8d, -611794637
	imul	eax, r8d
	and	eax, 1
	cmp	eax, 0
	sete	r9b
	and	r9b, 1
	mov	byte ptr [rbp - 74], r9b
	cmp	ecx, 10
	setl	r9b
	and	r9b, 1
	mov	byte ptr [rbp - 73], r9b
	mov	dword ptr [rbp - 80], 910209752
	mov	qword ptr [rbp - 88], rsi 
	mov	qword ptr [rbp - 96], rdi 
	mov	qword ptr [rbp - 104], rdx 
.LBB25_1:                               
	mov	eax, dword ptr [rbp - 80]
	mov	ecx, eax
	sub	ecx, -1842272489
	mov	dword ptr [rbp - 108], eax 
	mov	dword ptr [rbp - 112], ecx 
	je	.LBB25_18
	jmp	.LBB25_27
.LBB25_27:                              
	mov	eax, dword ptr [rbp - 108] 
	sub	eax, -1707380179
	mov	dword ptr [rbp - 116], eax 
	je	.LBB25_11
	jmp	.LBB25_28
.LBB25_28:                              
	mov	eax, dword ptr [rbp - 108] 
	sub	eax, -1535610106
	mov	dword ptr [rbp - 120], eax 
	je	.LBB25_23
	jmp	.LBB25_29
.LBB25_29:                              
	mov	eax, dword ptr [rbp - 108] 
	sub	eax, -1529436363
	mov	dword ptr [rbp - 124], eax 
	je	.LBB25_16
	jmp	.LBB25_30
.LBB25_30:                              
	mov	eax, dword ptr [rbp - 108] 
	sub	eax, -1343626368
	mov	dword ptr [rbp - 128], eax 
	je	.LBB25_9
	jmp	.LBB25_31
.LBB25_31:                              
	mov	eax, dword ptr [rbp - 108] 
	sub	eax, -1329788306
	mov	dword ptr [rbp - 132], eax 
	je	.LBB25_20
	jmp	.LBB25_32
.LBB25_32:                              
	mov	eax, dword ptr [rbp - 108] 
	sub	eax, -1254392402
	mov	dword ptr [rbp - 136], eax 
	je	.LBB25_24
	jmp	.LBB25_33
.LBB25_33:                              
	mov	eax, dword ptr [rbp - 108] 
	sub	eax, -1225831997
	mov	dword ptr [rbp - 140], eax 
	je	.LBB25_10
	jmp	.LBB25_34
.LBB25_34:                              
	mov	eax, dword ptr [rbp - 108] 
	sub	eax, -1177329286
	mov	dword ptr [rbp - 144], eax 
	je	.LBB25_7
	jmp	.LBB25_35
.LBB25_35:                              
	mov	eax, dword ptr [rbp - 108] 
	sub	eax, -998320675
	mov	dword ptr [rbp - 148], eax 
	je	.LBB25_17
	jmp	.LBB25_36
.LBB25_36:                              
	mov	eax, dword ptr [rbp - 108] 
	sub	eax, -911509077
	mov	dword ptr [rbp - 152], eax 
	je	.LBB25_21
	jmp	.LBB25_37
.LBB25_37:                              
	mov	eax, dword ptr [rbp - 108] 
	sub	eax, -884155958
	mov	dword ptr [rbp - 156], eax 
	je	.LBB25_19
	jmp	.LBB25_38
.LBB25_38:                              
	mov	eax, dword ptr [rbp - 108] 
	sub	eax, -781425987
	mov	dword ptr [rbp - 160], eax 
	je	.LBB25_4
	jmp	.LBB25_39
.LBB25_39:                              
	mov	eax, dword ptr [rbp - 108] 
	sub	eax, -705578962
	mov	dword ptr [rbp - 164], eax 
	je	.LBB25_5
	jmp	.LBB25_40
.LBB25_40:                              
	mov	eax, dword ptr [rbp - 108] 
	sub	eax, -525630161
	mov	dword ptr [rbp - 168], eax 
	je	.LBB25_6
	jmp	.LBB25_41
.LBB25_41:                              
	mov	eax, dword ptr [rbp - 108] 
	sub	eax, -325048432
	mov	dword ptr [rbp - 172], eax 
	je	.LBB25_22
	jmp	.LBB25_42
.LBB25_42:                              
	mov	eax, dword ptr [rbp - 108] 
	sub	eax, -271414122
	mov	dword ptr [rbp - 176], eax 
	je	.LBB25_13
	jmp	.LBB25_43
.LBB25_43:                              
	mov	eax, dword ptr [rbp - 108] 
	sub	eax, -127497283
	mov	dword ptr [rbp - 180], eax 
	je	.LBB25_8
	jmp	.LBB25_44
.LBB25_44:                              
	mov	eax, dword ptr [rbp - 108] 
	sub	eax, 18177594
	mov	dword ptr [rbp - 184], eax 
	je	.LBB25_12
	jmp	.LBB25_45
.LBB25_45:                              
	mov	eax, dword ptr [rbp - 108] 
	sub	eax, 72100117
	mov	dword ptr [rbp - 188], eax 
	je	.LBB25_15
	jmp	.LBB25_46
.LBB25_46:                              
	mov	eax, dword ptr [rbp - 108] 
	sub	eax, 910209752
	mov	dword ptr [rbp - 192], eax 
	je	.LBB25_3
	jmp	.LBB25_47
.LBB25_47:                              
	mov	eax, dword ptr [rbp - 108] 
	sub	eax, 1015559899
	mov	dword ptr [rbp - 196], eax 
	je	.LBB25_25
	jmp	.LBB25_48
.LBB25_48:                              
	mov	eax, dword ptr [rbp - 108] 
	sub	eax, 2133755849
	mov	dword ptr [rbp - 200], eax 
	je	.LBB25_14
	jmp	.LBB25_2
.LBB25_2:                               
	jmp	.LBB25_26
.LBB25_3:                               
	mov	eax, 3969918864
	mov	ecx, 3513541309
	mov	dl, 1
	mov	sil, byte ptr [rbp - 74]
	mov	dil, byte ptr [rbp - 73]
	mov	r8b, sil
	xor	r8b, -1
	mov	r9b, dil
	xor	r9b, -1
	xor	dl, 0
	mov	r10b, r8b
	and	r10b, 0
	and	sil, dl
	mov	r11b, r9b
	and	r11b, 0
	and	dil, dl
	or	r10b, sil
	or	r11b, dil
	xor	r10b, r11b
	or	r8b, r9b
	xor	r8b, -1
	or	dl, 0
	and	r8b, dl
	or	r10b, r8b
	test	r10b, 1
	cmovne	eax, ecx
	mov	dword ptr [rbp - 80], eax
	jmp	.LBB25_26
.LBB25_4:                               
	mov	eax, 3969918864
	mov	ecx, 3589388334
	xor	edx, edx
	mov	rsi, rsp
	add	rsi, -16
	mov	rsp, rsi
	mov	qword ptr [rbp - 72], rsi
	mov	rsi, rsp
	add	rsi, -16
	mov	rsp, rsi
	mov	qword ptr [rbp - 64], rsi
	mov	rsi, rsp
	add	rsi, -16
	mov	rsp, rsi
	mov	qword ptr [rbp - 56], rsi
	mov	rsi, qword ptr [rbp - 72]
	mov	rdi, qword ptr [rbp - 96] 
	mov	qword ptr [rsi], rdi
	mov	rsi, qword ptr [rbp - 64]
	mov	r8, qword ptr [rbp - 88] 
	mov	qword ptr [rsi], r8
	mov	rsi, qword ptr [rbp - 56]
	mov	r9, qword ptr [rbp - 104] 
	mov	qword ptr [rsi], r9
	mov	r10d, dword ptr [x.57]
	mov	r11d, dword ptr [y.58]
	sub	edx, 1
	mov	ebx, r10d
	add	ebx, edx
	imul	r10d, ebx
	and	r10d, 1
	cmp	r10d, 0
	sete	r14b
	cmp	r11d, 10
	setl	r15b
	mov	r12b, r14b
	and	r12b, r15b
	xor	r14b, r15b
	or	r12b, r14b
	test	r12b, 1
	cmovne	eax, ecx
	mov	dword ptr [rbp - 80], eax
	jmp	.LBB25_26
.LBB25_5:                               
	mov	dword ptr [rbp - 80], -525630161
	jmp	.LBB25_26
.LBB25_6:                               
	mov	eax, 18177594
	mov	ecx, 3117638010
	mov	rdx, qword ptr [rbp - 56]
	cmp	qword ptr [rdx], 0
	cmova	eax, ecx
	mov	dword ptr [rbp - 80], eax
	jmp	.LBB25_26
.LBB25_7:                               
	mov	eax, 2587587117
	mov	ecx, 4167470013
	mov	rdx, qword ptr [rbp - 64]
	cmp	qword ptr [rdx], 0
	cmovne	eax, ecx
	mov	dword ptr [rbp - 80], eax
	jmp	.LBB25_26
.LBB25_8:                               
	mov	eax, 2759357190
	mov	ecx, 2951340928
	mov	dl, 1
	xor	esi, esi
	mov	edi, dword ptr [x.57]
	mov	r8d, dword ptr [y.58]
	sub	esi, 1
	mov	r9d, edi
	add	r9d, esi
	imul	edi, r9d
	and	edi, 1
	cmp	edi, 0
	sete	r10b
	cmp	r8d, 10
	setl	r11b
	mov	bl, r10b
	xor	bl, -1
	mov	r14b, r11b
	xor	r14b, -1
	xor	dl, 0
	mov	r15b, bl
	and	r15b, 0
	and	r10b, dl
	mov	r12b, r14b
	and	r12b, 0
	and	r11b, dl
	or	r15b, r10b
	or	r12b, r11b
	xor	r15b, r12b
	or	bl, r14b
	xor	bl, -1
	or	dl, 0
	and	bl, dl
	or	r15b, bl
	test	r15b, 1
	cmovne	eax, ecx
	mov	dword ptr [rbp - 80], eax
	jmp	.LBB25_26
.LBB25_9:                               
	mov	eax, 2759357190
	mov	ecx, 3069135299
	mov	dl, 1
	mov	rsi, qword ptr [rbp - 72]
	cmp	qword ptr [rsi], 0
	setne	dil
	and	dil, 1
	mov	byte ptr [rbp - 42], dil
	mov	r8d, dword ptr [x.57]
	mov	r9d, dword ptr [y.58]
	mov	r10d, r8d
	add	r10d, -670740373
	sub	r10d, 1
	sub	r10d, -670740373
	imul	r8d, r10d
	and	r8d, 1
	cmp	r8d, 0
	sete	dil
	cmp	r9d, 10
	setl	r11b
	mov	bl, dil
	xor	bl, -1
	mov	r14b, r11b
	xor	r14b, -1
	xor	dl, 0
	mov	r15b, bl
	and	r15b, 0
	and	dil, dl
	mov	r12b, r14b
	and	r12b, 0
	and	r11b, dl
	or	r15b, dil
	or	r12b, r11b
	xor	r15b, r12b
	or	bl, r14b
	xor	bl, -1
	or	dl, 0
	and	bl, dl
	or	r15b, bl
	test	r15b, 1
	cmovne	eax, ecx
	mov	dword ptr [rbp - 80], eax
	jmp	.LBB25_26
.LBB25_10:                              
	mov	eax, 2587587117
	mov	ecx, 18177594
	mov	dl, byte ptr [rbp - 42]
	test	dl, 1
	cmovne	eax, ecx
	mov	dword ptr [rbp - 80], eax
	jmp	.LBB25_26
.LBB25_11:
	movabs	rdi, .L.str
	movabs	rsi, .L.str.1
	movabs	rdx, .L__func__._ZN5Botan8copy_memIjEEvPT_PKS1_m
	movabs	rcx, .L.str.2
	mov	r8d, 130
	call	_ZN5Botan17assertion_failureEPKcS1_S1_S1_i
.LBB25_12:                              
	mov	dword ptr [rbp - 80], -271414122
	jmp	.LBB25_26
.LBB25_13:                              
	mov	eax, 3040574894
	mov	ecx, 2133755849
	mov	edx, dword ptr [x.57]
	mov	esi, dword ptr [y.58]
	mov	edi, edx
	sub	edi, -1578081786
	sub	edi, 1
	add	edi, -1578081786
	imul	edx, edi
	and	edx, 1
	cmp	edx, 0
	sete	r8b
	cmp	esi, 10
	setl	r9b
	mov	r10b, r8b
	and	r10b, r9b
	xor	r8b, r9b
	or	r10b, r8b
	test	r10b, 1
	cmovne	eax, ecx
	mov	dword ptr [rbp - 80], eax
	jmp	.LBB25_26
.LBB25_14:                              
	mov	eax, 3040574894
	mov	ecx, 72100117
	mov	dl, 1
	mov	rsi, qword ptr [rbp - 64]
	cmp	qword ptr [rsi], 0
	setne	dil
	and	dil, 1
	mov	byte ptr [rbp - 41], dil
	mov	r8d, dword ptr [x.57]
	mov	r9d, dword ptr [y.58]
	mov	r10d, r8d
	add	r10d, -454427210
	sub	r10d, 1
	sub	r10d, -454427210
	imul	r8d, r10d
	and	r8d, 1
	cmp	r8d, 0
	sete	dil
	cmp	r9d, 10
	setl	r11b
	mov	bl, dil
	xor	bl, -1
	mov	r14b, r11b
	xor	r14b, -1
	xor	dl, 0
	mov	r15b, bl
	and	r15b, 0
	and	dil, dl
	mov	r12b, r14b
	and	r12b, 0
	and	r11b, dl
	or	r15b, dil
	or	r12b, r11b
	xor	r15b, r12b
	or	bl, r14b
	xor	bl, -1
	or	dl, 0
	and	bl, dl
	or	r15b, bl
	test	r15b, 1
	cmovne	eax, ecx
	mov	dword ptr [rbp - 80], eax
	jmp	.LBB25_26
.LBB25_15:                              
	mov	eax, 3383458219
	mov	ecx, 2765530933
	mov	dl, byte ptr [rbp - 41]
	test	dl, 1
	cmovne	eax, ecx
	mov	dword ptr [rbp - 80], eax
	jmp	.LBB25_26
.LBB25_16:                              
	mov	eax, 3383458219
	mov	ecx, 3296646621
	mov	rdx, qword ptr [rbp - 72]
	cmp	qword ptr [rdx], 0
	cmovne	eax, ecx
	mov	dword ptr [rbp - 80], eax
	jmp	.LBB25_26
.LBB25_17:                              
	mov	eax, 3383458219
	mov	ecx, 2452694807
	mov	rdx, qword ptr [rbp - 56]
	cmp	qword ptr [rdx], 0
	cmova	eax, ecx
	mov	dword ptr [rbp - 80], eax
	jmp	.LBB25_26
.LBB25_18:                              
	mov	eax, 1015559899
	mov	ecx, 3410811338
	mov	edx, dword ptr [x.57]
	mov	esi, dword ptr [y.58]
	mov	edi, edx
	sub	edi, 152219273
	sub	edi, 1
	add	edi, 152219273
	imul	edx, edi
	and	edx, 1
	cmp	edx, 0
	sete	r8b
	cmp	esi, 10
	setl	r9b
	mov	r10b, r8b
	and	r10b, r9b
	xor	r8b, r9b
	or	r10b, r8b
	test	r10b, 1
	cmovne	eax, ecx
	mov	dword ptr [rbp - 80], eax
	jmp	.LBB25_26
.LBB25_19:                              
	mov	eax, 1015559899
	mov	ecx, 2965178990
	mov	dl, 1
	mov	rsi, qword ptr [rbp - 72]
	mov	rsi, qword ptr [rsi]
	mov	rdi, qword ptr [rbp - 64]
	mov	rdi, qword ptr [rdi]
	mov	r8, qword ptr [rbp - 56]
	mov	r8, qword ptr [r8]
	shl	r8, 2
	mov	qword ptr [rbp - 208], rdi 
	mov	rdi, rsi
	mov	rsi, qword ptr [rbp - 208] 
	mov	byte ptr [rbp - 209], dl 
	mov	rdx, r8
	mov	dword ptr [rbp - 216], eax 
	mov	dword ptr [rbp - 220], ecx 
	call	memmove
	mov	ecx, dword ptr [x.57]
	mov	r9d, dword ptr [y.58]
	mov	r10d, ecx
	add	r10d, -1684258226
	sub	r10d, 1
	sub	r10d, -1684258226
	imul	ecx, r10d
	and	ecx, 1
	cmp	ecx, 0
	sete	r11b
	cmp	r9d, 10
	setl	bl
	mov	r14b, r11b
	xor	r14b, -1
	mov	r15b, bl
	xor	r15b, -1
	mov	r12b, byte ptr [rbp - 209] 
	xor	r12b, 0
	mov	r13b, r14b
	and	r13b, 0
	and	r11b, r12b
	mov	cl, r15b
	and	cl, 0
	and	bl, r12b
	or	r13b, r11b
	or	cl, bl
	xor	r13b, cl
	or	r14b, r15b
	xor	r14b, -1
	or	r12b, 0
	and	r14b, r12b
	or	r13b, r14b
	test	r13b, 1
	mov	r9d, dword ptr [rbp - 216] 
	mov	r10d, dword ptr [rbp - 220] 
	cmovne	r9d, r10d
	mov	dword ptr [rbp - 80], r9d
	mov	qword ptr [rbp - 232], rax 
	jmp	.LBB25_26
.LBB25_20:                              
	mov	dword ptr [rbp - 80], -911509077
	jmp	.LBB25_26
.LBB25_21:
	lea	rsp, [rbp - 40]
	pop	rbx
	pop	r12
	pop	r13
	pop	r14
	pop	r15
	pop	rbp
	ret
.LBB25_22:                              
	mov	rax, rsp
	add	rax, -16
	mov	rsp, rax
	mov	rcx, rsp
	add	rcx, -16
	mov	rsp, rcx
	mov	rdx, rsp
	add	rdx, -16
	mov	rsp, rdx
	mov	rsi, qword ptr [rbp - 96] 
	mov	qword ptr [rax], rsi
	mov	rax, qword ptr [rbp - 88] 
	mov	qword ptr [rcx], rax
	mov	rcx, qword ptr [rbp - 104] 
	mov	qword ptr [rdx], rcx
	mov	dword ptr [rbp - 80], -781425987
	jmp	.LBB25_26
.LBB25_23:                              
	mov	rax, qword ptr [rbp - 72]
	mov	dword ptr [rbp - 80], -1343626368
	mov	qword ptr [rbp - 240], rax 
	jmp	.LBB25_26
.LBB25_24:                              
	mov	rax, qword ptr [rbp - 64]
	mov	dword ptr [rbp - 80], 2133755849
	mov	qword ptr [rbp - 248], rax 
	jmp	.LBB25_26
.LBB25_25:                              
	mov	rax, qword ptr [rbp - 72]
	mov	rax, qword ptr [rax]
	mov	rcx, qword ptr [rbp - 64]
	mov	rcx, qword ptr [rcx]
	mov	rdx, qword ptr [rbp - 56]
	mov	rdx, qword ptr [rdx]
	shl	rdx, 2
	mov	rdi, rax
	mov	rsi, rcx
	call	memmove
	mov	dword ptr [rbp - 80], -884155958
	mov	qword ptr [rbp - 256], rax 
.LBB25_26:                              
	jmp	.LBB25_1
.Lfunc_end25:
	.size	_ZN5Botan8copy_memIjEEvPT_PKS1_m, .Lfunc_end25-_ZN5Botan8copy_memIjEEvPT_PKS1_m
	.cfi_endproc

	.text
	.globl	_ZN5Botan9TripleDES5clearEv 
	.p2align	4, 0x90
	.type	_ZN5Botan9TripleDES5clearEv,@function
_ZN5Botan9TripleDES5clearEv:            
	.cfi_startproc

	push	rbp
.Lcfi94:
	.cfi_def_cfa_offset 16
.Lcfi95:
	.cfi_offset rbp, -16
	mov	rbp, rsp
.Lcfi96:
	.cfi_def_cfa_register rbp
	push	r15
	push	r14
	push	r13
	push	r12
	push	rbx
	sub	rsp, 40
.Lcfi97:
	.cfi_offset rbx, -56
.Lcfi98:
	.cfi_offset r12, -48
.Lcfi99:
	.cfi_offset r13, -40
.Lcfi100:
	.cfi_offset r14, -32
.Lcfi101:
	.cfi_offset r15, -24
	mov	eax, dword ptr [x.59]
	mov	ecx, dword ptr [y.60]
	mov	edx, eax
	add	edx, 1856145994
	sub	edx, 1
	sub	edx, 1856145994
	imul	eax, edx
	and	eax, 1
	cmp	eax, 0
	sete	sil
	and	sil, 1
	mov	byte ptr [rbp - 42], sil
	cmp	ecx, 10
	setl	sil
	and	sil, 1
	mov	byte ptr [rbp - 41], sil
	mov	dword ptr [rbp - 48], -191042165
	mov	qword ptr [rbp - 56], rdi 
.LBB26_1:                               
	mov	eax, dword ptr [rbp - 48]
	mov	ecx, eax
	sub	ecx, -1816026264
	mov	dword ptr [rbp - 60], eax 
	mov	dword ptr [rbp - 64], ecx 
	je	.LBB26_5
	jmp	.LBB26_8
.LBB26_8:                               
	mov	eax, dword ptr [rbp - 60] 
	sub	eax, -267149350
	mov	dword ptr [rbp - 68], eax 
	je	.LBB26_6
	jmp	.LBB26_9
.LBB26_9:                               
	mov	eax, dword ptr [rbp - 60] 
	sub	eax, -191042165
	mov	dword ptr [rbp - 72], eax 
	je	.LBB26_3
	jmp	.LBB26_10
.LBB26_10:                              
	mov	eax, dword ptr [rbp - 60] 
	sub	eax, 207455490
	mov	dword ptr [rbp - 76], eax 
	je	.LBB26_4
	jmp	.LBB26_2
.LBB26_2:                               
	jmp	.LBB26_7
.LBB26_3:                               
	mov	eax, 4027817946
	mov	ecx, 207455490
	mov	dl, byte ptr [rbp - 42]
	mov	sil, byte ptr [rbp - 41]
	mov	dil, dl
	and	dil, sil
	xor	dl, sil
	or	dil, dl
	test	dil, 1
	cmovne	eax, ecx
	mov	dword ptr [rbp - 48], eax
	jmp	.LBB26_7
.LBB26_4:                               
	mov	rax, rsp
	add	rax, -16
	mov	rsp, rax
	mov	rcx, qword ptr [rbp - 56] 
	mov	qword ptr [rax], rcx
	mov	rax, qword ptr [rax]
	add	rax, 8
	mov	rdi, rax
	call	_ZN5Botan3zapIjNS_16secure_allocatorIjEEEEvRSt6vectorIT_T0_E
	mov	edx, 4027817946
	mov	esi, 2478941032
	mov	r8b, 1
	mov	r9d, dword ptr [x.59]
	mov	r10d, dword ptr [y.60]
	mov	r11d, r9d
	add	r11d, -2055388807
	sub	r11d, 1
	sub	r11d, -2055388807
	imul	r9d, r11d
	and	r9d, 1
	cmp	r9d, 0
	sete	bl
	cmp	r10d, 10
	setl	r14b
	mov	r15b, bl
	xor	r15b, -1
	mov	r12b, r14b
	xor	r12b, -1
	xor	r8b, 1
	mov	r13b, r15b
	and	r13b, -1
	and	bl, r8b
	mov	al, r12b
	and	al, -1
	and	r14b, r8b
	or	r13b, bl
	or	al, r14b
	xor	r13b, al
	or	r15b, r12b
	xor	r15b, -1
	or	r8b, 1
	and	r15b, r8b
	or	r13b, r15b
	test	r13b, 1
	cmovne	edx, esi
	mov	dword ptr [rbp - 48], edx
	jmp	.LBB26_7
.LBB26_5:
	lea	rsp, [rbp - 40]
	pop	rbx
	pop	r12
	pop	r13
	pop	r14
	pop	r15
	pop	rbp
	ret
.LBB26_6:                               
	mov	rax, rsp
	add	rax, -16
	mov	rsp, rax
	mov	rcx, qword ptr [rbp - 56] 
	mov	qword ptr [rax], rcx
	mov	rax, qword ptr [rax]
	add	rax, 8
	mov	rdi, rax
	call	_ZN5Botan3zapIjNS_16secure_allocatorIjEEEEvRSt6vectorIT_T0_E
	mov	dword ptr [rbp - 48], 207455490
.LBB26_7:                               
	jmp	.LBB26_1
.Lfunc_end26:
	.size	_ZN5Botan9TripleDES5clearEv, .Lfunc_end26-_ZN5Botan9TripleDES5clearEv
	.cfi_endproc

	.section	.text._ZN5Botan3DESD2Ev,"axG",@progbits,_ZN5Botan3DESD2Ev,comdat
	.weak	_ZN5Botan3DESD2Ev       
	.p2align	4, 0x90
	.type	_ZN5Botan3DESD2Ev,@function
_ZN5Botan3DESD2Ev:                      

	push	rbp
	mov	rbp, rsp
	sub	rsp, 16
	movabs	rax, _ZTVN5Botan3DESE
	add	rax, 16
	mov	qword ptr [rbp - 8], rdi
	mov	rdi, qword ptr [rbp - 8]
	mov	qword ptr [rdi], rax
	mov	rax, rdi
	add	rax, 8
	mov	qword ptr [rbp - 16], rdi 
	mov	rdi, rax
	call	_ZNSt6vectorIjN5Botan16secure_allocatorIjEEED2Ev
	mov	rax, qword ptr [rbp - 16] 
	mov	rdi, rax
	call	_ZN5Botan25Block_Cipher_Fixed_ParamsILm8ELm8ELm0ELm1ENS_11BlockCipherEED2Ev
	add	rsp, 16
	pop	rbp
	ret
.Lfunc_end27:
	.size	_ZN5Botan3DESD2Ev, .Lfunc_end27-_ZN5Botan3DESD2Ev

	.section	.text._ZN5Botan3DESD0Ev,"axG",@progbits,_ZN5Botan3DESD0Ev,comdat
	.weak	_ZN5Botan3DESD0Ev       
	.p2align	4, 0x90
	.type	_ZN5Botan3DESD0Ev,@function
_ZN5Botan3DESD0Ev:                      

	push	rbp
	mov	rbp, rsp
	sub	rsp, 16
	mov	qword ptr [rbp - 8], rdi
	mov	rdi, qword ptr [rbp - 8]
	mov	qword ptr [rbp - 16], rdi 
	call	_ZN5Botan3DESD2Ev
	mov	rdi, qword ptr [rbp - 16] 
	call	_ZdlPv
	add	rsp, 16
	pop	rbp
	ret
.Lfunc_end28:
	.size	_ZN5Botan3DESD0Ev, .Lfunc_end28-_ZN5Botan3DESD0Ev

	.section	.text._ZNK5Botan25Block_Cipher_Fixed_ParamsILm8ELm8ELm0ELm1ENS_11BlockCipherEE8key_specEv,"axG",@progbits,_ZNK5Botan25Block_Cipher_Fixed_ParamsILm8ELm8ELm0ELm1ENS_11BlockCipherEE8key_specEv,comdat
	.weak	_ZNK5Botan25Block_Cipher_Fixed_ParamsILm8ELm8ELm0ELm1ENS_11BlockCipherEE8key_specEv 
	.p2align	4, 0x90
	.type	_ZNK5Botan25Block_Cipher_Fixed_ParamsILm8ELm8ELm0ELm1ENS_11BlockCipherEE8key_specEv,@function
_ZNK5Botan25Block_Cipher_Fixed_ParamsILm8ELm8ELm0ELm1ENS_11BlockCipherEE8key_specEv: 
	.cfi_startproc

	push	rbp
.Lcfi102:
	.cfi_def_cfa_offset 16
.Lcfi103:
	.cfi_offset rbp, -16
	mov	rbp, rsp
.Lcfi104:
	.cfi_def_cfa_register rbp
	push	r15
	push	r14
	push	r13
	push	r12
	push	rbx
	sub	rsp, 56
.Lcfi105:
	.cfi_offset rbx, -56
.Lcfi106:
	.cfi_offset r12, -48
.Lcfi107:
	.cfi_offset r13, -40
.Lcfi108:
	.cfi_offset r14, -32
.Lcfi109:
	.cfi_offset r15, -24
	mov	rax, rdi
	mov	ecx, dword ptr [x.65]
	mov	edx, dword ptr [y.66]
	mov	r8d, ecx
	sub	r8d, 1177233716
	sub	r8d, 1
	add	r8d, 1177233716
	imul	ecx, r8d
	and	ecx, 1
	cmp	ecx, 0
	sete	r9b
	and	r9b, 1
	mov	byte ptr [rbp - 42], r9b
	cmp	edx, 10
	setl	r9b
	and	r9b, 1
	mov	byte ptr [rbp - 41], r9b
	mov	dword ptr [rbp - 48], 1311365433
	mov	qword ptr [rbp - 56], rax 
	mov	qword ptr [rbp - 64], rsi 
	mov	qword ptr [rbp - 72], rdi 
.LBB29_1:                               
	mov	eax, dword ptr [rbp - 48]
	mov	ecx, eax
	sub	ecx, -1768455691
	mov	dword ptr [rbp - 76], eax 
	mov	dword ptr [rbp - 80], ecx 
	je	.LBB29_6
	jmp	.LBB29_8
.LBB29_8:                               
	mov	eax, dword ptr [rbp - 76] 
	sub	eax, -1527203181
	mov	dword ptr [rbp - 84], eax 
	je	.LBB29_5
	jmp	.LBB29_9
.LBB29_9:                               
	mov	eax, dword ptr [rbp - 76] 
	sub	eax, 609754181
	mov	dword ptr [rbp - 88], eax 
	je	.LBB29_4
	jmp	.LBB29_10
.LBB29_10:                              
	mov	eax, dword ptr [rbp - 76] 
	sub	eax, 1311365433
	mov	dword ptr [rbp - 92], eax 
	je	.LBB29_3
	jmp	.LBB29_2
.LBB29_2:                               
	jmp	.LBB29_7
.LBB29_3:                               
	mov	eax, 2526511605
	mov	ecx, 609754181
	mov	dl, byte ptr [rbp - 42]
	mov	sil, byte ptr [rbp - 41]
	mov	dil, dl
	and	dil, sil
	xor	dl, sil
	or	dil, dl
	test	dil, 1
	cmovne	eax, ecx
	mov	dword ptr [rbp - 48], eax
	jmp	.LBB29_7
.LBB29_4:                               
	mov	eax, 8
	mov	esi, eax
	xor	eax, eax
	mov	edx, eax
	mov	eax, 1
	mov	ecx, eax
	mov	rdi, rsp
	add	rdi, -16
	mov	rsp, rdi
	mov	r8, qword ptr [rbp - 64] 
	mov	qword ptr [rdi], r8
	mov	rdi, qword ptr [rbp - 72] 
	call	_ZN5Botan24Key_Length_SpecificationC2Emmm
	mov	eax, 2526511605
	mov	r9d, 2767764115
	xor	r10d, r10d
	mov	r11d, dword ptr [x.65]
	mov	ebx, dword ptr [y.66]
	sub	r10d, 1
	mov	r14d, r11d
	add	r14d, r10d
	imul	r11d, r14d
	and	r11d, 1
	cmp	r11d, 0
	sete	r15b
	cmp	ebx, 10
	setl	r12b
	mov	r13b, r15b
	and	r13b, r12b
	xor	r15b, r12b
	or	r13b, r15b
	test	r13b, 1
	cmovne	eax, r9d
	mov	dword ptr [rbp - 48], eax
	jmp	.LBB29_7
.LBB29_5:
	mov	rax, qword ptr [rbp - 56] 
	lea	rsp, [rbp - 40]
	pop	rbx
	pop	r12
	pop	r13
	pop	r14
	pop	r15
	pop	rbp
	ret
.LBB29_6:                               
	mov	eax, 8
	mov	esi, eax
	xor	eax, eax
	mov	edx, eax
	mov	eax, 1
	mov	ecx, eax
	mov	rdi, rsp
	add	rdi, -16
	mov	rsp, rdi
	mov	r8, qword ptr [rbp - 64] 
	mov	qword ptr [rdi], r8
	mov	rdi, qword ptr [rbp - 72] 
	call	_ZN5Botan24Key_Length_SpecificationC2Emmm
	mov	dword ptr [rbp - 48], 609754181
.LBB29_7:                               
	jmp	.LBB29_1
.Lfunc_end29:
	.size	_ZNK5Botan25Block_Cipher_Fixed_ParamsILm8ELm8ELm0ELm1ENS_11BlockCipherEE8key_specEv, .Lfunc_end29-_ZNK5Botan25Block_Cipher_Fixed_ParamsILm8ELm8ELm0ELm1ENS_11BlockCipherEE8key_specEv
	.cfi_endproc

	.section	.text._ZNK5Botan3DES4nameB5cxx11Ev,"axG",@progbits,_ZNK5Botan3DES4nameB5cxx11Ev,comdat
	.weak	_ZNK5Botan3DES4nameB5cxx11Ev 
	.p2align	4, 0x90
	.type	_ZNK5Botan3DES4nameB5cxx11Ev,@function
_ZNK5Botan3DES4nameB5cxx11Ev:           
.Lfunc_begin0:
	.cfi_startproc
	.cfi_personality 3, __gxx_personality_v0
	.cfi_lsda 3, .Lexception0

	push	rbp
.Lcfi110:
	.cfi_def_cfa_offset 16
.Lcfi111:
	.cfi_offset rbp, -16
	mov	rbp, rsp
.Lcfi112:
	.cfi_def_cfa_register rbp
	sub	rsp, 64
	mov	rax, rdi
	mov	qword ptr [rbp - 8], rsi
	lea	rsi, [rbp - 16]
	mov	qword ptr [rbp - 40], rdi 
	mov	rdi, rsi
	mov	qword ptr [rbp - 48], rax 
	mov	qword ptr [rbp - 56], rsi 
	call	_ZNSaIcEC1Ev
.Ltmp0:
	mov	ecx, .L.str.3
	mov	esi, ecx
	mov	rdi, qword ptr [rbp - 40] 
	mov	rdx, qword ptr [rbp - 56] 
	call	_ZNSt7__cxx1112basic_stringIcSt11char_traitsIcESaIcEEC2EPKcRKS3_
.Ltmp1:
	jmp	.LBB30_1
.LBB30_1:
	lea	rdi, [rbp - 16]
	call	_ZNSaIcED1Ev
	mov	rax, qword ptr [rbp - 48] 
	add	rsp, 64
	pop	rbp
	ret
.LBB30_2:
.Ltmp2:
	lea	rdi, [rbp - 16]
	mov	ecx, edx
	mov	qword ptr [rbp - 24], rax
	mov	dword ptr [rbp - 28], ecx
	call	_ZNSaIcED1Ev

	mov	rdi, qword ptr [rbp - 24]
	call	_Unwind_Resume
.Lfunc_end30:
	.size	_ZNK5Botan3DES4nameB5cxx11Ev, .Lfunc_end30-_ZNK5Botan3DES4nameB5cxx11Ev
	.cfi_endproc
	.section	.gcc_except_table,"a",@progbits
	.p2align	2
GCC_except_table30:
.Lexception0:
	.byte	255                     
	.byte	3                       
	.asciz	"\234"                  
	.byte	3                       
	.byte	26                      
	.long	.Ltmp0-.Lfunc_begin0    
	.long	.Ltmp1-.Ltmp0           
	.long	.Ltmp2-.Lfunc_begin0    
	.byte	0                       
	.long	.Ltmp1-.Lfunc_begin0    
	.long	.Lfunc_end30-.Ltmp1     
	.long	0                       
	.byte	0                       
	.p2align	2

	.section	.text._ZNK5Botan25Block_Cipher_Fixed_ParamsILm8ELm8ELm0ELm1ENS_11BlockCipherEE10block_sizeEv,"axG",@progbits,_ZNK5Botan25Block_Cipher_Fixed_ParamsILm8ELm8ELm0ELm1ENS_11BlockCipherEE10block_sizeEv,comdat
	.weak	_ZNK5Botan25Block_Cipher_Fixed_ParamsILm8ELm8ELm0ELm1ENS_11BlockCipherEE10block_sizeEv 
	.p2align	4, 0x90
	.type	_ZNK5Botan25Block_Cipher_Fixed_ParamsILm8ELm8ELm0ELm1ENS_11BlockCipherEE10block_sizeEv,@function
_ZNK5Botan25Block_Cipher_Fixed_ParamsILm8ELm8ELm0ELm1ENS_11BlockCipherEE10block_sizeEv: 

	push	rbp
	mov	rbp, rsp
	push	r15
	push	r14
	push	r13
	push	r12
	push	rbx
	sub	rsp, 40
	mov	eax, dword ptr [x.67]
	mov	ecx, dword ptr [y.68]
	mov	edx, eax
	sub	edx, 2080474834
	sub	edx, 1
	add	edx, 2080474834
	imul	eax, edx
	and	eax, 1
	cmp	eax, 0
	sete	sil
	and	sil, 1
	mov	byte ptr [rbp - 42], sil
	cmp	ecx, 10
	setl	sil
	and	sil, 1
	mov	byte ptr [rbp - 41], sil
	mov	dword ptr [rbp - 48], -1456671512
	mov	qword ptr [rbp - 56], rdi 
.LBB31_1:                               
	mov	eax, dword ptr [rbp - 48]
	mov	ecx, eax
	sub	ecx, -1456671512
	mov	dword ptr [rbp - 60], eax 
	mov	dword ptr [rbp - 64], ecx 
	je	.LBB31_3
	jmp	.LBB31_8
.LBB31_8:                               
	mov	eax, dword ptr [rbp - 60] 
	sub	eax, -649129849
	mov	dword ptr [rbp - 68], eax 
	je	.LBB31_6
	jmp	.LBB31_9
.LBB31_9:                               
	mov	eax, dword ptr [rbp - 60] 
	sub	eax, 415125302
	mov	dword ptr [rbp - 72], eax 
	je	.LBB31_4
	jmp	.LBB31_10
.LBB31_10:                              
	mov	eax, dword ptr [rbp - 60] 
	sub	eax, 477852688
	mov	dword ptr [rbp - 76], eax 
	je	.LBB31_5
	jmp	.LBB31_2
.LBB31_2:                               
	jmp	.LBB31_7
.LBB31_3:                               
	mov	eax, 3645837447
	mov	ecx, 415125302
	mov	dl, byte ptr [rbp - 42]
	mov	sil, byte ptr [rbp - 41]
	mov	dil, dl
	and	dil, sil
	xor	dl, sil
	or	dil, dl
	test	dil, 1
	cmovne	eax, ecx
	mov	dword ptr [rbp - 48], eax
	jmp	.LBB31_7
.LBB31_4:                               
	mov	eax, 3645837447
	mov	ecx, 477852688
	mov	dl, 1
	xor	esi, esi
	mov	rdi, rsp
	add	rdi, -16
	mov	rsp, rdi
	mov	r8, qword ptr [rbp - 56] 
	mov	qword ptr [rdi], r8
	mov	r9d, dword ptr [x.67]
	mov	r10d, dword ptr [y.68]
	sub	esi, 1
	mov	r11d, r9d
	add	r11d, esi
	imul	r9d, r11d
	and	r9d, 1
	cmp	r9d, 0
	sete	bl
	cmp	r10d, 10
	setl	r14b
	mov	r15b, bl
	xor	r15b, -1
	mov	r12b, r14b
	xor	r12b, -1
	xor	dl, 1
	mov	r13b, r15b
	and	r13b, -1
	and	bl, dl
	mov	sil, r12b
	and	sil, -1
	and	r14b, dl
	or	r13b, bl
	or	sil, r14b
	xor	r13b, sil
	or	r15b, r12b
	xor	r15b, -1
	or	dl, 1
	and	r15b, dl
	or	r13b, r15b
	test	r13b, 1
	cmovne	eax, ecx
	mov	dword ptr [rbp - 48], eax
	jmp	.LBB31_7
.LBB31_5:
	mov	eax, 8

	lea	rsp, [rbp - 40]
	pop	rbx
	pop	r12
	pop	r13
	pop	r14
	pop	r15
	pop	rbp
	ret
.LBB31_6:                               
	mov	rax, rsp
	add	rax, -16
	mov	rsp, rax
	mov	rcx, qword ptr [rbp - 56] 
	mov	qword ptr [rax], rcx
	mov	dword ptr [rbp - 48], 415125302
.LBB31_7:                               
	jmp	.LBB31_1
.Lfunc_end31:
	.size	_ZNK5Botan25Block_Cipher_Fixed_ParamsILm8ELm8ELm0ELm1ENS_11BlockCipherEE10block_sizeEv, .Lfunc_end31-_ZNK5Botan25Block_Cipher_Fixed_ParamsILm8ELm8ELm0ELm1ENS_11BlockCipherEE10block_sizeEv

	.section	.text._ZNK5Botan11BlockCipher11parallelismEv,"axG",@progbits,_ZNK5Botan11BlockCipher11parallelismEv,comdat
	.weak	_ZNK5Botan11BlockCipher11parallelismEv 
	.p2align	4, 0x90
	.type	_ZNK5Botan11BlockCipher11parallelismEv,@function
_ZNK5Botan11BlockCipher11parallelismEv: 

	push	rbp
	mov	rbp, rsp
	mov	eax, 1

	mov	qword ptr [rbp - 8], rdi
	pop	rbp
	ret
.Lfunc_end32:
	.size	_ZNK5Botan11BlockCipher11parallelismEv, .Lfunc_end32-_ZNK5Botan11BlockCipher11parallelismEv

	.section	.text._ZNK5Botan11BlockCipher8providerB5cxx11Ev,"axG",@progbits,_ZNK5Botan11BlockCipher8providerB5cxx11Ev,comdat
	.weak	_ZNK5Botan11BlockCipher8providerB5cxx11Ev 
	.p2align	4, 0x90
	.type	_ZNK5Botan11BlockCipher8providerB5cxx11Ev,@function
_ZNK5Botan11BlockCipher8providerB5cxx11Ev: 
.Lfunc_begin1:
	.cfi_startproc
	.cfi_personality 3, __gxx_personality_v0
	.cfi_lsda 3, .Lexception1

	push	rbp
.Lcfi113:
	.cfi_def_cfa_offset 16
.Lcfi114:
	.cfi_offset rbp, -16
	mov	rbp, rsp
.Lcfi115:
	.cfi_def_cfa_register rbp
	sub	rsp, 64
	mov	rax, rdi
	mov	qword ptr [rbp - 8], rsi
	lea	rsi, [rbp - 16]
	mov	qword ptr [rbp - 40], rdi 
	mov	rdi, rsi
	mov	qword ptr [rbp - 48], rax 
	mov	qword ptr [rbp - 56], rsi 
	call	_ZNSaIcEC1Ev
.Ltmp3:
	mov	ecx, .L.str.6
	mov	esi, ecx
	mov	rdi, qword ptr [rbp - 40] 
	mov	rdx, qword ptr [rbp - 56] 
	call	_ZNSt7__cxx1112basic_stringIcSt11char_traitsIcESaIcEEC2EPKcRKS3_
.Ltmp4:
	jmp	.LBB33_1
.LBB33_1:
	lea	rdi, [rbp - 16]
	call	_ZNSaIcED1Ev
	mov	rax, qword ptr [rbp - 48] 
	add	rsp, 64
	pop	rbp
	ret
.LBB33_2:
.Ltmp5:
	lea	rdi, [rbp - 16]
	mov	ecx, edx
	mov	qword ptr [rbp - 24], rax
	mov	dword ptr [rbp - 28], ecx
	call	_ZNSaIcED1Ev

	mov	rdi, qword ptr [rbp - 24]
	call	_Unwind_Resume
.Lfunc_end33:
	.size	_ZNK5Botan11BlockCipher8providerB5cxx11Ev, .Lfunc_end33-_ZNK5Botan11BlockCipher8providerB5cxx11Ev
	.cfi_endproc
	.section	.gcc_except_table,"a",@progbits
	.p2align	2
GCC_except_table33:
.Lexception1:
	.byte	255                     
	.byte	3                       
	.asciz	"\234"                  
	.byte	3                       
	.byte	26                      
	.long	.Ltmp3-.Lfunc_begin1    
	.long	.Ltmp4-.Ltmp3           
	.long	.Ltmp5-.Lfunc_begin1    
	.byte	0                       
	.long	.Ltmp4-.Lfunc_begin1    
	.long	.Lfunc_end33-.Ltmp4     
	.long	0                       
	.byte	0                       
	.p2align	2

	.section	.text._ZNK5Botan25Block_Cipher_Fixed_ParamsILm8ELm8ELm0ELm1ENS_11BlockCipherEE13encrypt_n_xexEPhPKhm,"axG",@progbits,_ZNK5Botan25Block_Cipher_Fixed_ParamsILm8ELm8ELm0ELm1ENS_11BlockCipherEE13encrypt_n_xexEPhPKhm,comdat
	.weak	_ZNK5Botan25Block_Cipher_Fixed_ParamsILm8ELm8ELm0ELm1ENS_11BlockCipherEE13encrypt_n_xexEPhPKhm 
	.p2align	4, 0x90
	.type	_ZNK5Botan25Block_Cipher_Fixed_ParamsILm8ELm8ELm0ELm1ENS_11BlockCipherEE13encrypt_n_xexEPhPKhm,@function
_ZNK5Botan25Block_Cipher_Fixed_ParamsILm8ELm8ELm0ELm1ENS_11BlockCipherEE13encrypt_n_xexEPhPKhm: 
	.cfi_startproc

	push	rbp
.Lcfi116:
	.cfi_def_cfa_offset 16
.Lcfi117:
	.cfi_offset rbp, -16
	mov	rbp, rsp
.Lcfi118:
	.cfi_def_cfa_register rbp
	push	r15
	push	r14
	push	r13
	push	r12
	push	rbx
	sub	rsp, 152
.Lcfi119:
	.cfi_offset rbx, -56
.Lcfi120:
	.cfi_offset r12, -48
.Lcfi121:
	.cfi_offset r13, -40
.Lcfi122:
	.cfi_offset r14, -32
.Lcfi123:
	.cfi_offset r15, -24
	mov	eax, dword ptr [x.71]
	mov	r8d, dword ptr [y.72]
	mov	r9d, eax
	sub	r9d, -279955689
	sub	r9d, 1
	add	r9d, -279955689
	imul	eax, r9d
	and	eax, 1
	cmp	eax, 0
	sete	r10b
	and	r10b, 1
	mov	byte ptr [rbp - 42], r10b
	cmp	r8d, 10
	setl	r10b
	and	r10b, 1
	mov	byte ptr [rbp - 41], r10b
	mov	dword ptr [rbp - 48], -789521442
	mov	qword ptr [rbp - 56], rdx 
	mov	qword ptr [rbp - 64], rsi 
	mov	qword ptr [rbp - 72], rdi 
	mov	qword ptr [rbp - 80], rcx 
.LBB34_1:                               
	mov	eax, dword ptr [rbp - 48]
	mov	ecx, eax
	sub	ecx, -789521442
	mov	dword ptr [rbp - 84], eax 
	mov	dword ptr [rbp - 88], ecx 
	je	.LBB34_3
	jmp	.LBB34_8
.LBB34_8:                               
	mov	eax, dword ptr [rbp - 84] 
	sub	eax, 481850497
	mov	dword ptr [rbp - 92], eax 
	je	.LBB34_6
	jmp	.LBB34_9
.LBB34_9:                               
	mov	eax, dword ptr [rbp - 84] 
	sub	eax, 1281748583
	mov	dword ptr [rbp - 96], eax 
	je	.LBB34_4
	jmp	.LBB34_10
.LBB34_10:                              
	mov	eax, dword ptr [rbp - 84] 
	sub	eax, 2137908126
	mov	dword ptr [rbp - 100], eax 
	je	.LBB34_5
	jmp	.LBB34_2
.LBB34_2:                               
	jmp	.LBB34_7
.LBB34_3:                               
	mov	eax, 481850497
	mov	ecx, 1281748583
	mov	dl, byte ptr [rbp - 42]
	mov	sil, byte ptr [rbp - 41]
	mov	dil, dl
	and	dil, sil
	xor	dl, sil
	or	dil, dl
	test	dil, 1
	cmovne	eax, ecx
	mov	dword ptr [rbp - 48], eax
	jmp	.LBB34_7
.LBB34_4:                               
	mov	rax, rsp
	add	rax, -16
	mov	rsp, rax
	mov	rcx, rsp
	add	rcx, -16
	mov	rsp, rcx
	mov	rdx, rsp
	add	rdx, -16
	mov	rsp, rdx
	mov	rsi, rsp
	add	rsi, -16
	mov	rsp, rsi
	mov	rdi, qword ptr [rbp - 72] 
	mov	qword ptr [rax], rdi
	mov	r8, qword ptr [rbp - 64] 
	mov	qword ptr [rcx], r8
	mov	r9, qword ptr [rbp - 56] 
	mov	qword ptr [rdx], r9
	mov	r10, qword ptr [rbp - 80] 
	mov	qword ptr [rsi], r10
	mov	rax, qword ptr [rax]
	mov	rdi, qword ptr [rcx]
	mov	r11, qword ptr [rdx]
	mov	rbx, qword ptr [rsi]
	shl	rbx, 3
	mov	qword ptr [rbp - 112], rsi 
	mov	rsi, r11
	mov	qword ptr [rbp - 120], rdx 
	mov	rdx, rbx
	mov	qword ptr [rbp - 128], rcx 
	mov	qword ptr [rbp - 136], rax 
	call	_ZN5Botan7xor_bufEPhPKhm
	mov	rax, qword ptr [rbp - 136] 
	mov	rcx, qword ptr [rbp - 136] 
	mov	rdx, qword ptr [rcx]
	mov	rdx, qword ptr [rdx + 72]
	mov	rsi, qword ptr [rbp - 128] 
	mov	rsi, qword ptr [rsi]
	mov	rdi, qword ptr [rbp - 128] 
	mov	r8, qword ptr [rdi]
	mov	r9, qword ptr [rbp - 112] 
	mov	rcx, qword ptr [r9]
	mov	rdi, rax
	mov	qword ptr [rbp - 144], rdx 
	mov	rdx, r8
	mov	rax, qword ptr [rbp - 144] 
	call	rax
	mov	rax, qword ptr [rbp - 128] 
	mov	rdi, qword ptr [rax]
	mov	rcx, qword ptr [rbp - 120] 
	mov	rsi, qword ptr [rcx]
	mov	rdx, qword ptr [rbp - 112] 
	mov	r8, qword ptr [rdx]
	shl	r8, 3
	mov	rdx, r8
	call	_ZN5Botan7xor_bufEPhPKhm
	mov	r14d, 481850497
	mov	r15d, 2137908126
	mov	r12d, dword ptr [x.71]
	mov	r13d, dword ptr [y.72]
	mov	esi, r12d
	add	esi, 1795331726
	sub	esi, 1
	sub	esi, 1795331726
	imul	r12d, esi
	and	r12d, 1
	cmp	r12d, 0
	sete	al
	cmp	r13d, 10
	setl	cl
	mov	dl, al
	and	dl, cl
	xor	al, cl
	or	dl, al
	test	dl, 1
	cmovne	r14d, r15d
	mov	dword ptr [rbp - 48], r14d
	jmp	.LBB34_7
.LBB34_5:
	lea	rsp, [rbp - 40]
	pop	rbx
	pop	r12
	pop	r13
	pop	r14
	pop	r15
	pop	rbp
	ret
.LBB34_6:                               
	mov	rax, rsp
	add	rax, -16
	mov	rsp, rax
	mov	rcx, rsp
	add	rcx, -16
	mov	rsp, rcx
	mov	rdx, rsp
	add	rdx, -16
	mov	rsp, rdx
	mov	rsi, rsp
	add	rsi, -16
	mov	rsp, rsi
	mov	rdi, qword ptr [rbp - 72] 
	mov	qword ptr [rax], rdi
	mov	r8, qword ptr [rbp - 64] 
	mov	qword ptr [rcx], r8
	mov	r9, qword ptr [rbp - 56] 
	mov	qword ptr [rdx], r9
	mov	r10, qword ptr [rbp - 80] 
	mov	qword ptr [rsi], r10
	mov	rax, qword ptr [rax]
	mov	rdi, qword ptr [rcx]
	mov	r11, qword ptr [rdx]
	mov	rbx, qword ptr [rsi]
	shl	rbx, 3
	mov	qword ptr [rbp - 152], rsi 
	mov	rsi, r11
	mov	qword ptr [rbp - 160], rdx 
	mov	rdx, rbx
	mov	qword ptr [rbp - 168], rcx 
	mov	qword ptr [rbp - 176], rax 
	call	_ZN5Botan7xor_bufEPhPKhm
	mov	rax, qword ptr [rbp - 176] 
	mov	rcx, qword ptr [rbp - 176] 
	mov	rdx, qword ptr [rcx]
	mov	rdx, qword ptr [rdx + 72]
	mov	rsi, qword ptr [rbp - 168] 
	mov	rsi, qword ptr [rsi]
	mov	rdi, qword ptr [rbp - 168] 
	mov	r8, qword ptr [rdi]
	mov	r9, qword ptr [rbp - 152] 
	mov	rcx, qword ptr [r9]
	mov	rdi, rax
	mov	qword ptr [rbp - 184], rdx 
	mov	rdx, r8
	mov	rax, qword ptr [rbp - 184] 
	call	rax
	mov	rax, qword ptr [rbp - 168] 
	mov	rdi, qword ptr [rax]
	mov	rcx, qword ptr [rbp - 160] 
	mov	rsi, qword ptr [rcx]
	mov	rdx, qword ptr [rbp - 152] 
	mov	r8, qword ptr [rdx]
	shl	r8, 3
	mov	rdx, r8
	call	_ZN5Botan7xor_bufEPhPKhm
	mov	dword ptr [rbp - 48], 1281748583
.LBB34_7:                               
	jmp	.LBB34_1
.Lfunc_end34:
	.size	_ZNK5Botan25Block_Cipher_Fixed_ParamsILm8ELm8ELm0ELm1ENS_11BlockCipherEE13encrypt_n_xexEPhPKhm, .Lfunc_end34-_ZNK5Botan25Block_Cipher_Fixed_ParamsILm8ELm8ELm0ELm1ENS_11BlockCipherEE13encrypt_n_xexEPhPKhm
	.cfi_endproc

	.section	.text._ZNK5Botan25Block_Cipher_Fixed_ParamsILm8ELm8ELm0ELm1ENS_11BlockCipherEE13decrypt_n_xexEPhPKhm,"axG",@progbits,_ZNK5Botan25Block_Cipher_Fixed_ParamsILm8ELm8ELm0ELm1ENS_11BlockCipherEE13decrypt_n_xexEPhPKhm,comdat
	.weak	_ZNK5Botan25Block_Cipher_Fixed_ParamsILm8ELm8ELm0ELm1ENS_11BlockCipherEE13decrypt_n_xexEPhPKhm 
	.p2align	4, 0x90
	.type	_ZNK5Botan25Block_Cipher_Fixed_ParamsILm8ELm8ELm0ELm1ENS_11BlockCipherEE13decrypt_n_xexEPhPKhm,@function
_ZNK5Botan25Block_Cipher_Fixed_ParamsILm8ELm8ELm0ELm1ENS_11BlockCipherEE13decrypt_n_xexEPhPKhm: 
	.cfi_startproc

	push	rbp
.Lcfi124:
	.cfi_def_cfa_offset 16
.Lcfi125:
	.cfi_offset rbp, -16
	mov	rbp, rsp
.Lcfi126:
	.cfi_def_cfa_register rbp
	sub	rsp, 64
	mov	qword ptr [rbp - 8], rdi
	mov	qword ptr [rbp - 16], rsi
	mov	qword ptr [rbp - 24], rdx
	mov	qword ptr [rbp - 32], rcx
	mov	rcx, qword ptr [rbp - 8]
	mov	rdi, qword ptr [rbp - 16]
	mov	rsi, qword ptr [rbp - 24]
	mov	rdx, qword ptr [rbp - 32]
	shl	rdx, 3
	mov	qword ptr [rbp - 40], rcx 
	call	_ZN5Botan7xor_bufEPhPKhm
	mov	rcx, qword ptr [rbp - 40] 
	mov	rdx, qword ptr [rbp - 40] 
	mov	rsi, qword ptr [rdx]
	mov	rsi, qword ptr [rsi + 80]
	mov	rdi, qword ptr [rbp - 16]
	mov	rdx, qword ptr [rbp - 16]
	mov	rax, qword ptr [rbp - 32]
	mov	qword ptr [rbp - 48], rdi 
	mov	rdi, rcx
	mov	rcx, qword ptr [rbp - 48] 
	mov	qword ptr [rbp - 56], rsi 
	mov	rsi, rcx
	mov	rcx, rax
	mov	rax, qword ptr [rbp - 56] 
	call	rax
	mov	rdi, qword ptr [rbp - 16]
	mov	rsi, qword ptr [rbp - 24]
	mov	rax, qword ptr [rbp - 32]
	shl	rax, 3
	mov	rdx, rax
	call	_ZN5Botan7xor_bufEPhPKhm
	add	rsp, 64
	pop	rbp
	ret
.Lfunc_end35:
	.size	_ZNK5Botan25Block_Cipher_Fixed_ParamsILm8ELm8ELm0ELm1ENS_11BlockCipherEE13decrypt_n_xexEPhPKhm, .Lfunc_end35-_ZNK5Botan25Block_Cipher_Fixed_ParamsILm8ELm8ELm0ELm1ENS_11BlockCipherEE13decrypt_n_xexEPhPKhm
	.cfi_endproc

	.section	.text._ZNK5Botan3DES10new_objectEv,"axG",@progbits,_ZNK5Botan3DES10new_objectEv,comdat
	.weak	_ZNK5Botan3DES10new_objectEv 
	.p2align	4, 0x90
	.type	_ZNK5Botan3DES10new_objectEv,@function
_ZNK5Botan3DES10new_objectEv:           
	.cfi_startproc

	push	rbp
.Lcfi127:
	.cfi_def_cfa_offset 16
.Lcfi128:
	.cfi_offset rbp, -16
	mov	rbp, rsp
.Lcfi129:
	.cfi_def_cfa_register rbp
	sub	rsp, 32
	mov	rax, rdi
	lea	rcx, [rbp - 16]
	mov	qword ptr [rbp - 8], rsi
	mov	qword ptr [rbp - 24], rdi 
	mov	rdi, rcx
	mov	qword ptr [rbp - 32], rax 
	call	_ZSt11make_uniqueIN5Botan3DESEJEENSt9_MakeUniqIT_E15__single_objectEDpOT0_
	lea	rsi, [rbp - 16]
	mov	rdi, qword ptr [rbp - 24] 
	call	_ZNSt10unique_ptrIN5Botan11BlockCipherESt14default_deleteIS1_EEC2INS0_3DESES2_IS6_EvEEOS_IT_T0_E
	lea	rdi, [rbp - 16]
	call	_ZNSt10unique_ptrIN5Botan3DESESt14default_deleteIS1_EED2Ev
	mov	rax, qword ptr [rbp - 32] 
	add	rsp, 32
	pop	rbp
	ret
.Lfunc_end36:
	.size	_ZNK5Botan3DES10new_objectEv, .Lfunc_end36-_ZNK5Botan3DES10new_objectEv
	.cfi_endproc

	.section	.text._ZN5Botan9TripleDESD2Ev,"axG",@progbits,_ZN5Botan9TripleDESD2Ev,comdat
	.weak	_ZN5Botan9TripleDESD2Ev 
	.p2align	4, 0x90
	.type	_ZN5Botan9TripleDESD2Ev,@function
_ZN5Botan9TripleDESD2Ev:                

	push	rbp
	mov	rbp, rsp
	push	r15
	push	r14
	push	r12
	push	rbx
	sub	rsp, 64
	xor	eax, eax
	mov	ecx, dword ptr [x.77]
	mov	edx, dword ptr [y.78]
	sub	eax, 1
	mov	esi, ecx
	add	esi, eax
	imul	ecx, esi
	and	ecx, 1
	cmp	ecx, 0
	sete	r8b
	and	r8b, 1
	mov	byte ptr [rbp - 34], r8b
	cmp	edx, 10
	setl	r8b
	and	r8b, 1
	mov	byte ptr [rbp - 33], r8b
	mov	dword ptr [rbp - 40], -72164578
	mov	qword ptr [rbp - 48], rdi 
.LBB37_1:                               
	mov	eax, dword ptr [rbp - 40]
	mov	ecx, eax
	sub	ecx, -1469348543
	mov	dword ptr [rbp - 52], eax 
	mov	dword ptr [rbp - 56], ecx 
	je	.LBB37_6
	jmp	.LBB37_8
.LBB37_8:                               
	mov	eax, dword ptr [rbp - 52] 
	sub	eax, -879768847
	mov	dword ptr [rbp - 60], eax 
	je	.LBB37_4
	jmp	.LBB37_9
.LBB37_9:                               
	mov	eax, dword ptr [rbp - 52] 
	sub	eax, -72164578
	mov	dword ptr [rbp - 64], eax 
	je	.LBB37_3
	jmp	.LBB37_10
.LBB37_10:                              
	mov	eax, dword ptr [rbp - 52] 
	sub	eax, -30357683
	mov	dword ptr [rbp - 68], eax 
	je	.LBB37_5
	jmp	.LBB37_2
.LBB37_2:                               
	jmp	.LBB37_7
.LBB37_3:                               
	mov	eax, 2825618753
	mov	ecx, 3415198449
	mov	dl, 1
	mov	sil, byte ptr [rbp - 34]
	mov	dil, byte ptr [rbp - 33]
	mov	r8b, sil
	xor	r8b, -1
	mov	r9b, dil
	xor	r9b, -1
	xor	dl, 1
	mov	r10b, r8b
	and	r10b, -1
	and	sil, dl
	mov	r11b, r9b
	and	r11b, -1
	and	dil, dl
	or	r10b, sil
	or	r11b, dil
	xor	r10b, r11b
	or	r8b, r9b
	xor	r8b, -1
	or	dl, 1
	and	r8b, dl
	or	r10b, r8b
	test	r10b, 1
	cmovne	eax, ecx
	mov	dword ptr [rbp - 40], eax
	jmp	.LBB37_7
.LBB37_4:                               
	movabs	rax, _ZTVN5Botan9TripleDESE
	add	rax, 16
	mov	rcx, rsp
	add	rcx, -16
	mov	rsp, rcx
	mov	rdx, qword ptr [rbp - 48] 
	mov	qword ptr [rcx], rdx
	mov	rcx, qword ptr [rcx]
	mov	qword ptr [rcx], rax
	mov	rax, rcx
	add	rax, 8
	mov	rdi, rax
	mov	qword ptr [rbp - 80], rcx 
	call	_ZNSt6vectorIjN5Botan16secure_allocatorIjEEED2Ev
	mov	rax, qword ptr [rbp - 80] 
	mov	rdi, rax
	call	_ZN5Botan25Block_Cipher_Fixed_ParamsILm8ELm16ELm24ELm8ENS_11BlockCipherEED2Ev
	mov	esi, 2825618753
	mov	r8d, 4264609613
	xor	r9d, r9d
	mov	r10d, dword ptr [x.77]
	mov	r11d, dword ptr [y.78]
	sub	r9d, 1
	mov	ebx, r10d
	add	ebx, r9d
	imul	r10d, ebx
	and	r10d, 1
	cmp	r10d, 0
	sete	r14b
	cmp	r11d, 10
	setl	r15b
	mov	r12b, r14b
	and	r12b, r15b
	xor	r14b, r15b
	or	r12b, r14b
	test	r12b, 1
	cmovne	esi, r8d
	mov	dword ptr [rbp - 40], esi
	jmp	.LBB37_7
.LBB37_5:
	lea	rsp, [rbp - 32]
	pop	rbx
	pop	r12
	pop	r14
	pop	r15
	pop	rbp
	ret
.LBB37_6:                               
	movabs	rax, _ZTVN5Botan9TripleDESE
	add	rax, 16
	mov	rcx, rsp
	add	rcx, -16
	mov	rsp, rcx
	mov	rdx, qword ptr [rbp - 48] 
	mov	qword ptr [rcx], rdx
	mov	rcx, qword ptr [rcx]
	mov	qword ptr [rcx], rax
	mov	rax, rcx
	add	rax, 8
	mov	rdi, rax
	mov	qword ptr [rbp - 88], rcx 
	call	_ZNSt6vectorIjN5Botan16secure_allocatorIjEEED2Ev
	mov	rax, qword ptr [rbp - 88] 
	mov	rdi, rax
	call	_ZN5Botan25Block_Cipher_Fixed_ParamsILm8ELm16ELm24ELm8ENS_11BlockCipherEED2Ev
	mov	dword ptr [rbp - 40], -879768847
.LBB37_7:                               
	jmp	.LBB37_1
.Lfunc_end37:
	.size	_ZN5Botan9TripleDESD2Ev, .Lfunc_end37-_ZN5Botan9TripleDESD2Ev

	.section	.text._ZN5Botan9TripleDESD0Ev,"axG",@progbits,_ZN5Botan9TripleDESD0Ev,comdat
	.weak	_ZN5Botan9TripleDESD0Ev 
	.p2align	4, 0x90
	.type	_ZN5Botan9TripleDESD0Ev,@function
_ZN5Botan9TripleDESD0Ev:                

	push	rbp
	mov	rbp, rsp
	sub	rsp, 16
	mov	qword ptr [rbp - 8], rdi
	mov	rdi, qword ptr [rbp - 8]
	mov	qword ptr [rbp - 16], rdi 
	call	_ZN5Botan9TripleDESD2Ev
	mov	rdi, qword ptr [rbp - 16] 
	call	_ZdlPv
	add	rsp, 16
	pop	rbp
	ret
.Lfunc_end38:
	.size	_ZN5Botan9TripleDESD0Ev, .Lfunc_end38-_ZN5Botan9TripleDESD0Ev

	.section	.text._ZNK5Botan25Block_Cipher_Fixed_ParamsILm8ELm16ELm24ELm8ENS_11BlockCipherEE8key_specEv,"axG",@progbits,_ZNK5Botan25Block_Cipher_Fixed_ParamsILm8ELm16ELm24ELm8ENS_11BlockCipherEE8key_specEv,comdat
	.weak	_ZNK5Botan25Block_Cipher_Fixed_ParamsILm8ELm16ELm24ELm8ENS_11BlockCipherEE8key_specEv 
	.p2align	4, 0x90
	.type	_ZNK5Botan25Block_Cipher_Fixed_ParamsILm8ELm16ELm24ELm8ENS_11BlockCipherEE8key_specEv,@function
_ZNK5Botan25Block_Cipher_Fixed_ParamsILm8ELm16ELm24ELm8ENS_11BlockCipherEE8key_specEv: 
	.cfi_startproc

	push	rbp
.Lcfi130:
	.cfi_def_cfa_offset 16
.Lcfi131:
	.cfi_offset rbp, -16
	mov	rbp, rsp
.Lcfi132:
	.cfi_def_cfa_register rbp
	push	r15
	push	r14
	push	r13
	push	r12
	push	rbx
	sub	rsp, 56
.Lcfi133:
	.cfi_offset rbx, -56
.Lcfi134:
	.cfi_offset r12, -48
.Lcfi135:
	.cfi_offset r13, -40
.Lcfi136:
	.cfi_offset r14, -32
.Lcfi137:
	.cfi_offset r15, -24
	mov	rax, rdi
	mov	ecx, dword ptr [x.81]
	mov	edx, dword ptr [y.82]
	mov	r8d, ecx
	sub	r8d, -1184497650
	sub	r8d, 1
	add	r8d, -1184497650
	imul	ecx, r8d
	and	ecx, 1
	cmp	ecx, 0
	sete	r9b
	and	r9b, 1
	mov	byte ptr [rbp - 42], r9b
	cmp	edx, 10
	setl	r9b
	and	r9b, 1
	mov	byte ptr [rbp - 41], r9b
	mov	dword ptr [rbp - 48], -1697608773
	mov	qword ptr [rbp - 56], rax 
	mov	qword ptr [rbp - 64], rsi 
	mov	qword ptr [rbp - 72], rdi 
.LBB39_1:                               
	mov	eax, dword ptr [rbp - 48]
	mov	ecx, eax
	sub	ecx, -1697608773
	mov	dword ptr [rbp - 76], eax 
	mov	dword ptr [rbp - 80], ecx 
	je	.LBB39_3
	jmp	.LBB39_8
.LBB39_8:                               
	mov	eax, dword ptr [rbp - 76] 
	sub	eax, 606709355
	mov	dword ptr [rbp - 84], eax 
	je	.LBB39_5
	jmp	.LBB39_9
.LBB39_9:                               
	mov	eax, dword ptr [rbp - 76] 
	sub	eax, 726198150
	mov	dword ptr [rbp - 88], eax 
	je	.LBB39_6
	jmp	.LBB39_10
.LBB39_10:                              
	mov	eax, dword ptr [rbp - 76] 
	sub	eax, 1529748407
	mov	dword ptr [rbp - 92], eax 
	je	.LBB39_4
	jmp	.LBB39_2
.LBB39_2:                               
	jmp	.LBB39_7
.LBB39_3:                               
	mov	eax, 726198150
	mov	ecx, 1529748407
	mov	dl, byte ptr [rbp - 42]
	mov	sil, byte ptr [rbp - 41]
	mov	dil, dl
	and	dil, sil
	xor	dl, sil
	or	dil, dl
	test	dil, 1
	cmovne	eax, ecx
	mov	dword ptr [rbp - 48], eax
	jmp	.LBB39_7
.LBB39_4:                               
	mov	eax, 16
	mov	esi, eax
	mov	eax, 24
	mov	edx, eax
	mov	eax, 8
	mov	ecx, eax
	mov	rdi, rsp
	add	rdi, -16
	mov	rsp, rdi
	mov	r8, qword ptr [rbp - 64] 
	mov	qword ptr [rdi], r8
	mov	rdi, qword ptr [rbp - 72] 
	call	_ZN5Botan24Key_Length_SpecificationC2Emmm
	mov	eax, 726198150
	mov	r9d, 606709355
	mov	r10b, 1
	xor	r11d, r11d
	mov	ebx, dword ptr [x.81]
	mov	r14d, dword ptr [y.82]
	sub	r11d, 1
	mov	r15d, ebx
	add	r15d, r11d
	imul	ebx, r15d
	and	ebx, 1
	cmp	ebx, 0
	sete	r12b
	cmp	r14d, 10
	setl	r13b
	mov	cl, r12b
	xor	cl, -1
	mov	dl, r13b
	xor	dl, -1
	xor	r10b, 0
	mov	sil, cl
	and	sil, 0
	and	r12b, r10b
	mov	dil, dl
	and	dil, 0
	and	r13b, r10b
	or	sil, r12b
	or	dil, r13b
	xor	sil, dil
	or	cl, dl
	xor	cl, -1
	or	r10b, 0
	and	cl, r10b
	or	sil, cl
	test	sil, 1
	cmovne	eax, r9d
	mov	dword ptr [rbp - 48], eax
	jmp	.LBB39_7
.LBB39_5:
	mov	rax, qword ptr [rbp - 56] 
	lea	rsp, [rbp - 40]
	pop	rbx
	pop	r12
	pop	r13
	pop	r14
	pop	r15
	pop	rbp
	ret
.LBB39_6:                               
	mov	eax, 16
	mov	esi, eax
	mov	eax, 24
	mov	edx, eax
	mov	eax, 8
	mov	ecx, eax
	mov	rdi, rsp
	add	rdi, -16
	mov	rsp, rdi
	mov	r8, qword ptr [rbp - 64] 
	mov	qword ptr [rdi], r8
	mov	rdi, qword ptr [rbp - 72] 
	call	_ZN5Botan24Key_Length_SpecificationC2Emmm
	mov	dword ptr [rbp - 48], 1529748407
.LBB39_7:                               
	jmp	.LBB39_1
.Lfunc_end39:
	.size	_ZNK5Botan25Block_Cipher_Fixed_ParamsILm8ELm16ELm24ELm8ENS_11BlockCipherEE8key_specEv, .Lfunc_end39-_ZNK5Botan25Block_Cipher_Fixed_ParamsILm8ELm16ELm24ELm8ENS_11BlockCipherEE8key_specEv
	.cfi_endproc

	.section	.text._ZNK5Botan9TripleDES4nameB5cxx11Ev,"axG",@progbits,_ZNK5Botan9TripleDES4nameB5cxx11Ev,comdat
	.weak	_ZNK5Botan9TripleDES4nameB5cxx11Ev 
	.p2align	4, 0x90
	.type	_ZNK5Botan9TripleDES4nameB5cxx11Ev,@function
_ZNK5Botan9TripleDES4nameB5cxx11Ev:     
.Lfunc_begin2:
	.cfi_startproc
	.cfi_personality 3, __gxx_personality_v0
	.cfi_lsda 3, .Lexception2

	push	rbp
.Lcfi138:
	.cfi_def_cfa_offset 16
.Lcfi139:
	.cfi_offset rbp, -16
	mov	rbp, rsp
.Lcfi140:
	.cfi_def_cfa_register rbp
	sub	rsp, 64
	mov	rax, rdi
	mov	qword ptr [rbp - 8], rsi
	lea	rsi, [rbp - 16]
	mov	qword ptr [rbp - 40], rdi 
	mov	rdi, rsi
	mov	qword ptr [rbp - 48], rax 
	mov	qword ptr [rbp - 56], rsi 
	call	_ZNSaIcEC1Ev
.Ltmp6:
	mov	ecx, .L.str.7
	mov	esi, ecx
	mov	rdi, qword ptr [rbp - 40] 
	mov	rdx, qword ptr [rbp - 56] 
	call	_ZNSt7__cxx1112basic_stringIcSt11char_traitsIcESaIcEEC2EPKcRKS3_
.Ltmp7:
	jmp	.LBB40_1
.LBB40_1:
	lea	rdi, [rbp - 16]
	call	_ZNSaIcED1Ev
	mov	rax, qword ptr [rbp - 48] 
	add	rsp, 64
	pop	rbp
	ret
.LBB40_2:
.Ltmp8:
	lea	rdi, [rbp - 16]
	mov	ecx, edx
	mov	qword ptr [rbp - 24], rax
	mov	dword ptr [rbp - 28], ecx
	call	_ZNSaIcED1Ev

	mov	rdi, qword ptr [rbp - 24]
	call	_Unwind_Resume
.Lfunc_end40:
	.size	_ZNK5Botan9TripleDES4nameB5cxx11Ev, .Lfunc_end40-_ZNK5Botan9TripleDES4nameB5cxx11Ev
	.cfi_endproc
	.section	.gcc_except_table,"a",@progbits
	.p2align	2
GCC_except_table40:
.Lexception2:
	.byte	255                     
	.byte	3                       
	.asciz	"\234"                  
	.byte	3                       
	.byte	26                      
	.long	.Ltmp6-.Lfunc_begin2    
	.long	.Ltmp7-.Ltmp6           
	.long	.Ltmp8-.Lfunc_begin2    
	.byte	0                       
	.long	.Ltmp7-.Lfunc_begin2    
	.long	.Lfunc_end40-.Ltmp7     
	.long	0                       
	.byte	0                       
	.p2align	2

