	.text
	.intel_syntax noprefix
	.file	"/mnt/c/Users/Adam/Developer/CryptoFunctionDetection/crypto_implementations/cryptopp/des.cpp"
	.globl	_ZN8CryptoPP3DES4Base15UncheckedSetKeyEPKhjRKNS_14NameValuePairsE 
	.p2align	4, 0x90
	.type	_ZN8CryptoPP3DES4Base15UncheckedSetKeyEPKhjRKNS_14NameValuePairsE,@function
_ZN8CryptoPP3DES4Base15UncheckedSetKeyEPKhjRKNS_14NameValuePairsE: 
	.cfi_startproc

	push	rbp
.Lcfi0:
	.cfi_def_cfa_offset 16
.Lcfi1:
	.cfi_offset rbp, -16
	mov	rbp, rsp
.Lcfi2:
	.cfi_def_cfa_register rbp
	sub	rsp, 64
	mov	qword ptr [rbp - 8], rdi
	mov	qword ptr [rbp - 16], rsi
	mov	dword ptr [rbp - 20], edx
	mov	qword ptr [rbp - 32], rcx
	mov	rcx, qword ptr [rbp - 8]
	mov	rsi, rcx
	mov	edx, dword ptr [rbp - 20]
	mov	edi, edx
	mov	qword ptr [rbp - 40], rdi 
	mov	rdi, rsi
	mov	rsi, qword ptr [rbp - 40] 
	mov	qword ptr [rbp - 48], rcx 
	call	_ZNK8CryptoPP21SimpleKeyingInterface20AssertValidKeyLengthEm
	mov	rcx, qword ptr [rbp - 48] 
	add	rcx, 16
	mov	rsi, qword ptr [rbp - 48] 
	add	rsi, 8
	mov	rdi, rsi
	mov	qword ptr [rbp - 56], rcx 
	call	_ZNK8CryptoPP19BlockTransformation18GetCipherDirectionEv
	mov	rdx, qword ptr [rbp - 16]
	mov	rdi, qword ptr [rbp - 56] 
	mov	esi, eax
	call	_ZN8CryptoPP6RawDES9RawSetKeyENS_9CipherDirEPKh
	add	rsp, 64
	pop	rbp
	ret
.Lfunc_end0:
	.size	_ZN8CryptoPP3DES4Base15UncheckedSetKeyEPKhjRKNS_14NameValuePairsE, .Lfunc_end0-_ZN8CryptoPP3DES4Base15UncheckedSetKeyEPKhjRKNS_14NameValuePairsE
	.cfi_endproc

	.section	.text._ZNK8CryptoPP21SimpleKeyingInterface20AssertValidKeyLengthEm,"axG",@progbits,_ZNK8CryptoPP21SimpleKeyingInterface20AssertValidKeyLengthEm,comdat
	.weak	_ZNK8CryptoPP21SimpleKeyingInterface20AssertValidKeyLengthEm 
	.p2align	4, 0x90
	.type	_ZNK8CryptoPP21SimpleKeyingInterface20AssertValidKeyLengthEm,@function
_ZNK8CryptoPP21SimpleKeyingInterface20AssertValidKeyLengthEm: 

	push	rbp
	mov	rbp, rsp
	mov	qword ptr [rbp - 8], rdi
	mov	qword ptr [rbp - 16], rsi
	pop	rbp
	ret
.Lfunc_end1:
	.size	_ZNK8CryptoPP21SimpleKeyingInterface20AssertValidKeyLengthEm, .Lfunc_end1-_ZNK8CryptoPP21SimpleKeyingInterface20AssertValidKeyLengthEm

	.text
	.globl	_ZN8CryptoPP6RawDES9RawSetKeyENS_9CipherDirEPKh 
	.p2align	4, 0x90
	.type	_ZN8CryptoPP6RawDES9RawSetKeyENS_9CipherDirEPKh,@function
_ZN8CryptoPP6RawDES9RawSetKeyENS_9CipherDirEPKh: 
.Lfunc_begin0:
	.cfi_startproc
	.cfi_personality 3, __gxx_personality_v0
	.cfi_lsda 3, .Lexception0

	push	rbp
.Lcfi3:
	.cfi_def_cfa_offset 16
.Lcfi4:
	.cfi_offset rbp, -16
	mov	rbp, rsp
.Lcfi5:
	.cfi_def_cfa_register rbp
	sub	rsp, 240
	mov	qword ptr [rbp - 8], rdi
	mov	dword ptr [rbp - 12], esi
	mov	qword ptr [rbp - 24], rdx
	mov	rdx, qword ptr [rbp - 8]
	mov	esi, 120

	lea	rdi, [rbp - 56]
	mov	qword ptr [rbp - 120], rdi 
	mov	qword ptr [rbp - 128], rdx 
	call	_ZN8CryptoPP8SecBlockIhNS_20AllocatorWithCleanupIhLb0EEEEC2Em
.Ltmp0:
	mov	rdi, qword ptr [rbp - 120] 
	call	_ZN8CryptoPP8SecBlockIhNS_20AllocatorWithCleanupIhLb0EEEEcvPhEv
.Ltmp1:
	mov	qword ptr [rbp - 136], rax 
	jmp	.LBB2_1
.LBB2_1:
	mov	rax, qword ptr [rbp - 136] 
	mov	qword ptr [rbp - 64], rax
	mov	rcx, qword ptr [rbp - 64]
	add	rcx, 56
	mov	qword ptr [rbp - 88], rcx
	mov	rcx, qword ptr [rbp - 88]
	add	rcx, 56
	mov	qword ptr [rbp - 96], rcx
	mov	dword ptr [rbp - 104], 0
.LBB2_2:                                
	cmp	dword ptr [rbp - 104], 56
	jge	.LBB2_6

	xor	eax, eax
	mov	ecx, 1
	mov	edx, 4294967295
	movsxd	rsi, dword ptr [rbp - 104]
	movzx	edi, byte ptr [rsi + _ZN8CryptoPP12_GLOBAL__N_1L3pc1E]
	mov	r8d, eax
	sub	r8d, 1
	add	edi, r8d
	mov	dword ptr [rbp - 108], edi
	mov	edi, dword ptr [rbp - 108]
	xor	edi, -1
	mov	r8d, edx
	xor	r8d, 7
	xor	edx, 3333039680
	or	edi, r8d
	or	edx, 3333039680
	xor	edi, -1
	and	edi, edx
	mov	dword ptr [rbp - 112], edi
	mov	rsi, qword ptr [rbp - 24]
	mov	edx, dword ptr [rbp - 108]
	sar	edx, 3
	movsxd	r9, edx
	movzx	edx, byte ptr [rsi + r9]
	movsxd	rsi, dword ptr [rbp - 112]
	mov	edi, dword ptr [4*rsi + _ZN8CryptoPP12_GLOBAL__N_1L7bytebitE]
	xor	edi, -1
	mov	r8d, edx
	xor	r8d, edi
	and	r8d, edx
	cmp	r8d, 0
	cmovne	eax, ecx
	mov	r10b, al
	mov	rsi, qword ptr [rbp - 64]
	movsxd	r9, dword ptr [rbp - 104]
	mov	byte ptr [rsi + r9], r10b

	mov	eax, dword ptr [rbp - 104]
	add	eax, 967781202
	add	eax, 1
	sub	eax, 967781202
	mov	dword ptr [rbp - 104], eax
	jmp	.LBB2_2
.LBB2_5:
.Ltmp18:
	mov	ecx, edx
	mov	qword ptr [rbp - 72], rax
	mov	dword ptr [rbp - 76], ecx
.Ltmp19:
	lea	rdi, [rbp - 56]
	call	_ZN8CryptoPP8SecBlockIhNS_20AllocatorWithCleanupIhLb0EEEED2Ev
.Ltmp20:
	jmp	.LBB2_38
.LBB2_6:
	mov	dword ptr [rbp - 100], 0
.LBB2_7:                                


	cmp	dword ptr [rbp - 100], 16
	jge	.LBB2_25

	xor	esi, esi
	mov	eax, 8
	mov	edx, eax
	mov	rdi, qword ptr [rbp - 96]
	call	memset
	mov	dword ptr [rbp - 104], 0
.LBB2_9:                                

	cmp	dword ptr [rbp - 104], 56
	jge	.LBB2_15

	mov	eax, 56
	mov	ecx, 28
	xor	edx, edx
	mov	rsi, qword ptr [rbp - 64]
	mov	edi, dword ptr [rbp - 104]
	movsxd	r8, dword ptr [rbp - 100]
	movzx	r9d, byte ptr [r8 + _ZN8CryptoPP12_GLOBAL__N_1L6totrotE]
	sub	edx, r9d
	sub	edi, edx
	mov	dword ptr [rbp - 108], edi
	mov	edx, dword ptr [rbp - 104]
	cmp	edx, 28
	cmovl	eax, ecx
	cmp	edi, eax
	mov	qword ptr [rbp - 144], rsi 
	jge	.LBB2_12

	mov	eax, dword ptr [rbp - 108]
	mov	dword ptr [rbp - 148], eax 
	jmp	.LBB2_13
.LBB2_12:                               
	mov	eax, dword ptr [rbp - 108]
	sub	eax, -2100434088
	sub	eax, 28
	add	eax, -2100434088
	mov	dword ptr [rbp - 148], eax 
.LBB2_13:                               
	mov	eax, dword ptr [rbp - 148] 
	movsxd	rcx, eax
	mov	rdx, qword ptr [rbp - 144] 
	mov	sil, byte ptr [rdx + rcx]
	mov	rcx, qword ptr [rbp - 88]
	movsxd	rdi, dword ptr [rbp - 104]
	mov	byte ptr [rcx + rdi], sil

	xor	eax, eax
	mov	ecx, dword ptr [rbp - 104]
	mov	edx, eax
	sub	edx, ecx
	mov	ecx, eax
	sub	ecx, 1
	add	edx, ecx
	sub	eax, edx
	mov	dword ptr [rbp - 104], eax
	jmp	.LBB2_9
.LBB2_15:                               
	mov	dword ptr [rbp - 104], 0
.LBB2_16:                               

	cmp	dword ptr [rbp - 104], 48
	jge	.LBB2_21

	mov	rax, qword ptr [rbp - 88]
	movsxd	rcx, dword ptr [rbp - 104]
	movzx	edx, byte ptr [rcx + _ZN8CryptoPP12_GLOBAL__N_1L3pc2E]
	add	edx, -537018902
	sub	edx, 1
	sub	edx, -537018902
	movsxd	rcx, edx
	cmp	byte ptr [rax + rcx], 0
	je	.LBB2_19

	mov	eax, 6
	mov	ecx, dword ptr [rbp - 104]
	mov	dword ptr [rbp - 152], eax 
	mov	eax, ecx
	cdq
	mov	ecx, dword ptr [rbp - 152] 
	idiv	ecx
	mov	dword ptr [rbp - 108], edx
	movsxd	rsi, dword ptr [rbp - 108]
	mov	edx, dword ptr [4*rsi + _ZN8CryptoPP12_GLOBAL__N_1L7bytebitE]
	sar	edx, 2
	mov	rsi, qword ptr [rbp - 96]
	mov	edi, dword ptr [rbp - 104]
	mov	eax, edi
	mov	dword ptr [rbp - 156], edx 
	cdq
	idiv	ecx
	movsxd	r8, eax
	movzx	eax, byte ptr [rsi + r8]
	mov	edi, eax
	mov	r9d, dword ptr [rbp - 156] 
	and	edi, r9d
	xor	eax, r9d
	or	edi, eax
	mov	r10b, dil
	mov	byte ptr [rsi + r8], r10b
.LBB2_19:                               
	jmp	.LBB2_20
.LBB2_20:                               
	xor	eax, eax
	mov	ecx, dword ptr [rbp - 104]
	sub	eax, 1
	sub	ecx, eax
	mov	dword ptr [rbp - 104], ecx
	jmp	.LBB2_16
.LBB2_21:                               
	mov	rax, qword ptr [rbp - 96]
	movzx	ecx, byte ptr [rax]
	shl	ecx, 24
	movzx	edx, byte ptr [rax + 2]
	shl	edx, 16
	mov	esi, ecx
	not	esi
	mov	edi, edx
	not	edi
	and	esi, -1071094300
	and	ecx, 1056964608
	and	edi, -1071094300
	and	edx, 14090240
	or	esi, ecx
	or	edi, edx
	xor	esi, edi
	movzx	ecx, byte ptr [rax + 4]
	shl	ecx, 8
	or	esi, ecx
	movzx	ecx, byte ptr [rax + 6]
	mov	edx, esi
	not	edx
	mov	edi, ecx
	not	edi
	mov	r8d, edx
	and	r8d, -2140408687
	and	esi, 2140408576
	mov	r9d, edi
	and	r9d, -2140408687
	and	ecx, 110
	or	r8d, esi
	or	r9d, ecx
	xor	r8d, r9d
	or	edx, edi
	not	edx
	or	r8d, edx
.Ltmp14:
	mov	rdi, qword ptr [rbp - 128] 
	mov	dword ptr [rbp - 160], r8d 
	call	_ZN8CryptoPP8SecBlockIjNS_29FixedSizeAllocatorWithCleanupIjLm32ENS_13NullAllocatorIjEELb0EEEEcvPjEv
.Ltmp15:
	mov	qword ptr [rbp - 168], rax 
	jmp	.LBB2_22
.LBB2_22:                               
	mov	eax, dword ptr [rbp - 100]
	add	eax, eax
	movsxd	rcx, eax
	mov	rdx, qword ptr [rbp - 168] 
	mov	eax, dword ptr [rbp - 160] 
	mov	dword ptr [rdx + 4*rcx], eax
	mov	rcx, qword ptr [rbp - 96]
	movzx	esi, byte ptr [rcx + 1]
	shl	esi, 24
	movzx	edi, byte ptr [rcx + 3]
	shl	edi, 16
	mov	r8d, esi
	not	r8d
	mov	r9d, edi
	not	r9d
	and	r8d, -713676894
	and	esi, 704643072
	and	r9d, -713676894
	and	edi, 8978432
	or	r8d, esi
	or	r9d, edi
	xor	r8d, r9d
	movzx	esi, byte ptr [rcx + 5]
	shl	esi, 8
	or	r8d, esi
	movzx	esi, byte ptr [rcx + 7]
	mov	edi, r8d
	and	edi, esi
	xor	r8d, esi
	or	edi, r8d
.Ltmp16:
	mov	rcx, qword ptr [rbp - 128] 
	mov	dword ptr [rbp - 172], edi 
	mov	rdi, rcx
	call	_ZN8CryptoPP8SecBlockIjNS_29FixedSizeAllocatorWithCleanupIjLm32ENS_13NullAllocatorIjEELb0EEEEcvPjEv
.Ltmp17:
	mov	qword ptr [rbp - 184], rax 
	jmp	.LBB2_23
.LBB2_23:                               
	mov	eax, dword ptr [rbp - 100]
	shl	eax, 1
	sub	eax, 442894627
	add	eax, 1
	add	eax, 442894627
	movsxd	rcx, eax
	mov	rdx, qword ptr [rbp - 184] 
	mov	eax, dword ptr [rbp - 172] 
	mov	dword ptr [rdx + 4*rcx], eax

	xor	eax, eax
	mov	ecx, dword ptr [rbp - 100]
	sub	eax, 1
	sub	ecx, eax
	mov	dword ptr [rbp - 100], ecx
	jmp	.LBB2_7
.LBB2_25:
	cmp	dword ptr [rbp - 12], 1
	jne	.LBB2_37

	mov	dword ptr [rbp - 100], 0
.LBB2_27:                               
	cmp	dword ptr [rbp - 100], 16
	jge	.LBB2_36

.Ltmp2:
	mov	rdi, qword ptr [rbp - 128] 
	call	_ZN8CryptoPP8SecBlockIjNS_29FixedSizeAllocatorWithCleanupIjLm32ENS_13NullAllocatorIjEELb0EEEEcvPjEv
.Ltmp3:
	mov	qword ptr [rbp - 192], rax 
	jmp	.LBB2_29
.LBB2_29:                               
	movsxd	rax, dword ptr [rbp - 100]
	mov	rcx, qword ptr [rbp - 192] 
	lea	rdi, [rcx + 4*rax]
.Ltmp4:
	mov	rax, qword ptr [rbp - 128] 
	mov	qword ptr [rbp - 200], rdi 
	mov	rdi, rax
	call	_ZN8CryptoPP8SecBlockIjNS_29FixedSizeAllocatorWithCleanupIjLm32ENS_13NullAllocatorIjEELb0EEEEcvPjEv
.Ltmp5:
	mov	qword ptr [rbp - 208], rax 
	jmp	.LBB2_30
.LBB2_30:                               
	mov	eax, dword ptr [rbp - 100]
	mov	ecx, 30
	sub	ecx, eax
	movsxd	rdx, ecx
	mov	rsi, qword ptr [rbp - 208] 
	lea	rsi, [rsi + 4*rdx]
.Ltmp6:
	mov	rdi, qword ptr [rbp - 200] 
	call	_ZSt4swapIjEvRT_S1_
.Ltmp7:
	jmp	.LBB2_31
.LBB2_31:                               
.Ltmp8:
	mov	rdi, qword ptr [rbp - 128] 
	call	_ZN8CryptoPP8SecBlockIjNS_29FixedSizeAllocatorWithCleanupIjLm32ENS_13NullAllocatorIjEELb0EEEEcvPjEv
.Ltmp9:
	mov	qword ptr [rbp - 216], rax 
	jmp	.LBB2_32
.LBB2_32:                               
	mov	eax, dword ptr [rbp - 100]
	inc	eax
	movsxd	rcx, eax
	mov	rdx, qword ptr [rbp - 216] 
	lea	rdi, [rdx + 4*rcx]
.Ltmp10:
	mov	rcx, qword ptr [rbp - 128] 
	mov	qword ptr [rbp - 224], rdi 
	mov	rdi, rcx
	call	_ZN8CryptoPP8SecBlockIjNS_29FixedSizeAllocatorWithCleanupIjLm32ENS_13NullAllocatorIjEELb0EEEEcvPjEv
.Ltmp11:
	mov	qword ptr [rbp - 232], rax 
	jmp	.LBB2_33
.LBB2_33:                               
	mov	eax, dword ptr [rbp - 100]
	mov	ecx, 31
	sub	ecx, eax
	movsxd	rdx, ecx
	mov	rsi, qword ptr [rbp - 232] 
	lea	rsi, [rsi + 4*rdx]
.Ltmp12:
	mov	rdi, qword ptr [rbp - 224] 
	call	_ZSt4swapIjEvRT_S1_
.Ltmp13:
	jmp	.LBB2_34
.LBB2_34:                               
	jmp	.LBB2_35
.LBB2_35:                               
	xor	eax, eax
	mov	ecx, dword ptr [rbp - 100]
	sub	eax, 2
	sub	ecx, eax
	mov	dword ptr [rbp - 100], ecx
	jmp	.LBB2_27
.LBB2_36:
	jmp	.LBB2_37
.LBB2_37:
	lea	rdi, [rbp - 56]
	call	_ZN8CryptoPP8SecBlockIhNS_20AllocatorWithCleanupIhLb0EEEED2Ev
	add	rsp, 240
	pop	rbp
	ret
.LBB2_38:
	jmp	.LBB2_39
.LBB2_39:
	mov	rdi, qword ptr [rbp - 72]
	call	_Unwind_Resume
.LBB2_40:
.Ltmp21:
	mov	ecx, edx
	mov	rdi, rax
	mov	dword ptr [rbp - 236], ecx 
	call	__clang_call_terminate
.Lfunc_end2:
	.size	_ZN8CryptoPP6RawDES9RawSetKeyENS_9CipherDirEPKh, .Lfunc_end2-_ZN8CryptoPP6RawDES9RawSetKeyENS_9CipherDirEPKh
	.cfi_endproc
	.section	.gcc_except_table,"a",@progbits
	.p2align	2
GCC_except_table2:
.Lexception0:
	.byte	255                     
	.byte	3                       
	.asciz	"\326\200\200"          
	.byte	3                       
	.byte	78                      
	.long	.Lfunc_begin0-.Lfunc_begin0 
	.long	.Ltmp0-.Lfunc_begin0    
	.long	0                       
	.byte	0                       
	.long	.Ltmp0-.Lfunc_begin0    
	.long	.Ltmp1-.Ltmp0           
	.long	.Ltmp18-.Lfunc_begin0   
	.byte	0                       
	.long	.Ltmp19-.Lfunc_begin0   
	.long	.Ltmp20-.Ltmp19         
	.long	.Ltmp21-.Lfunc_begin0   
	.byte	1                       
	.long	.Ltmp20-.Lfunc_begin0   
	.long	.Ltmp14-.Ltmp20         
	.long	0                       
	.byte	0                       
	.long	.Ltmp14-.Lfunc_begin0   
	.long	.Ltmp13-.Ltmp14         
	.long	.Ltmp18-.Lfunc_begin0   
	.byte	0                       
	.long	.Ltmp13-.Lfunc_begin0   
	.long	.Lfunc_end2-.Ltmp13     
	.long	0                       
	.byte	0                       
	.byte	1                       

	.byte	0                       

	.long	0                       
	.p2align	2

	.section	.text._ZNK8CryptoPP19BlockTransformation18GetCipherDirectionEv,"axG",@progbits,_ZNK8CryptoPP19BlockTransformation18GetCipherDirectionEv,comdat
	.weak	_ZNK8CryptoPP19BlockTransformation18GetCipherDirectionEv 
	.p2align	4, 0x90
	.type	_ZNK8CryptoPP19BlockTransformation18GetCipherDirectionEv,@function
_ZNK8CryptoPP19BlockTransformation18GetCipherDirectionEv: 
	.cfi_startproc

	push	rbp
.Lcfi6:
	.cfi_def_cfa_offset 16
.Lcfi7:
	.cfi_offset rbp, -16
	mov	rbp, rsp
.Lcfi8:
	.cfi_def_cfa_register rbp
	sub	rsp, 16
	mov	qword ptr [rbp - 8], rdi
	mov	rdi, qword ptr [rbp - 8]
	mov	rax, qword ptr [rdi]
	call	qword ptr [rax + 72]
	mov	ecx, 1
	xor	edx, edx
	test	al, 1
	cmovne	ecx, edx
	mov	eax, ecx
	add	rsp, 16
	pop	rbp
	ret
.Lfunc_end3:
	.size	_ZNK8CryptoPP19BlockTransformation18GetCipherDirectionEv, .Lfunc_end3-_ZNK8CryptoPP19BlockTransformation18GetCipherDirectionEv
	.cfi_endproc

	.section	.text._ZN8CryptoPP8SecBlockIhNS_20AllocatorWithCleanupIhLb0EEEEC2Em,"axG",@progbits,_ZN8CryptoPP8SecBlockIhNS_20AllocatorWithCleanupIhLb0EEEEC2Em,comdat
	.weak	_ZN8CryptoPP8SecBlockIhNS_20AllocatorWithCleanupIhLb0EEEEC2Em 
	.p2align	4, 0x90
	.type	_ZN8CryptoPP8SecBlockIhNS_20AllocatorWithCleanupIhLb0EEEEC2Em,@function
_ZN8CryptoPP8SecBlockIhNS_20AllocatorWithCleanupIhLb0EEEEC2Em: 
	.cfi_startproc

	push	rbp
.Lcfi9:
	.cfi_def_cfa_offset 16
.Lcfi10:
	.cfi_offset rbp, -16
	mov	rbp, rsp
.Lcfi11:
	.cfi_def_cfa_register rbp
	sub	rsp, 32
	xor	eax, eax
	mov	edx, eax
	mov	qword ptr [rbp - 8], rdi
	mov	qword ptr [rbp - 16], rsi
	mov	rsi, qword ptr [rbp - 8]
	mov	qword ptr [rsi + 8], -1
	mov	rdi, qword ptr [rbp - 16]
	mov	qword ptr [rsi + 16], rdi
	mov	rdi, qword ptr [rbp - 16]
	mov	qword ptr [rbp - 24], rdi 
	mov	rdi, rsi
	mov	rcx, qword ptr [rbp - 24] 
	mov	qword ptr [rbp - 32], rsi 
	mov	rsi, rcx
	call	_ZN8CryptoPP20AllocatorWithCleanupIhLb0EE8allocateEmPKv
	mov	rcx, qword ptr [rbp - 32] 
	mov	qword ptr [rcx + 24], rax
	add	rsp, 32
	pop	rbp
	ret
.Lfunc_end4:
	.size	_ZN8CryptoPP8SecBlockIhNS_20AllocatorWithCleanupIhLb0EEEEC2Em, .Lfunc_end4-_ZN8CryptoPP8SecBlockIhNS_20AllocatorWithCleanupIhLb0EEEEC2Em
	.cfi_endproc

	.section	.text._ZN8CryptoPP8SecBlockIhNS_20AllocatorWithCleanupIhLb0EEEEcvPhEv,"axG",@progbits,_ZN8CryptoPP8SecBlockIhNS_20AllocatorWithCleanupIhLb0EEEEcvPhEv,comdat
	.weak	_ZN8CryptoPP8SecBlockIhNS_20AllocatorWithCleanupIhLb0EEEEcvPhEv 
	.p2align	4, 0x90
	.type	_ZN8CryptoPP8SecBlockIhNS_20AllocatorWithCleanupIhLb0EEEEcvPhEv,@function
_ZN8CryptoPP8SecBlockIhNS_20AllocatorWithCleanupIhLb0EEEEcvPhEv: 

	push	rbp
	mov	rbp, rsp
	push	rbx
	sub	rsp, 56
	mov	eax, dword ptr [x.15]
	mov	ecx, dword ptr [y.16]
	mov	edx, eax
	add	edx, -1306968779
	sub	edx, 1
	sub	edx, -1306968779
	imul	eax, edx
	and	eax, 1
	cmp	eax, 0
	sete	sil
	and	sil, 1
	mov	byte ptr [rbp - 18], sil
	cmp	ecx, 10
	setl	sil
	and	sil, 1
	mov	byte ptr [rbp - 17], sil
	mov	dword ptr [rbp - 24], 533006963
	mov	qword ptr [rbp - 32], rdi 
.LBB5_1:                                
	mov	eax, dword ptr [rbp - 24]
	mov	ecx, eax
	sub	ecx, -1931987928
	mov	dword ptr [rbp - 36], eax 
	mov	dword ptr [rbp - 40], ecx 
	je	.LBB5_5
	jmp	.LBB5_8
.LBB5_8:                                
	mov	eax, dword ptr [rbp - 36] 
	sub	eax, 261945902
	mov	dword ptr [rbp - 44], eax 
	je	.LBB5_6
	jmp	.LBB5_9
.LBB5_9:                                
	mov	eax, dword ptr [rbp - 36] 
	sub	eax, 278617972
	mov	dword ptr [rbp - 48], eax 
	je	.LBB5_4
	jmp	.LBB5_10
.LBB5_10:                               
	mov	eax, dword ptr [rbp - 36] 
	sub	eax, 533006963
	mov	dword ptr [rbp - 52], eax 
	je	.LBB5_3
	jmp	.LBB5_2
.LBB5_2:                                
	jmp	.LBB5_7
.LBB5_3:                                
	mov	eax, 261945902
	mov	ecx, 278617972
	mov	dl, 1
	mov	sil, byte ptr [rbp - 18]
	mov	dil, byte ptr [rbp - 17]
	mov	r8b, sil
	xor	r8b, -1
	mov	r9b, dil
	xor	r9b, -1
	xor	dl, 0
	mov	r10b, r8b
	and	r10b, 0
	and	sil, dl
	mov	r11b, r9b
	and	r11b, 0
	and	dil, dl
	or	r10b, sil
	or	r11b, dil
	xor	r10b, r11b
	or	r8b, r9b
	xor	r8b, -1
	or	dl, 0
	and	r8b, dl
	or	r10b, r8b
	test	r10b, 1
	cmovne	eax, ecx
	mov	dword ptr [rbp - 24], eax
	jmp	.LBB5_7
.LBB5_4:                                
	mov	eax, 261945902
	mov	ecx, 2362979368
	mov	rdx, rsp
	add	rdx, -16
	mov	rsp, rdx
	mov	rsi, qword ptr [rbp - 32] 
	mov	qword ptr [rdx], rsi
	mov	rdx, qword ptr [rdx]
	mov	rdx, qword ptr [rdx + 24]
	mov	qword ptr [rbp - 16], rdx
	mov	edi, dword ptr [x.15]
	mov	r8d, dword ptr [y.16]
	mov	r9d, edi
	add	r9d, 1025595367
	sub	r9d, 1
	sub	r9d, 1025595367
	imul	edi, r9d
	and	edi, 1
	cmp	edi, 0
	sete	r10b
	cmp	r8d, 10
	setl	r11b
	mov	bl, r10b
	and	bl, r11b
	xor	r10b, r11b
	or	bl, r10b
	test	bl, 1
	cmovne	eax, ecx
	mov	dword ptr [rbp - 24], eax
	jmp	.LBB5_7
.LBB5_5:
	mov	rax, qword ptr [rbp - 16]
	lea	rsp, [rbp - 8]
	pop	rbx
	pop	rbp
	ret
.LBB5_6:                                
	mov	rax, rsp
	add	rax, -16
	mov	rsp, rax
	mov	rcx, qword ptr [rbp - 32] 
	mov	qword ptr [rax], rcx
	mov	dword ptr [rbp - 24], 278617972
.LBB5_7:                                
	jmp	.LBB5_1
.Lfunc_end5:
	.size	_ZN8CryptoPP8SecBlockIhNS_20AllocatorWithCleanupIhLb0EEEEcvPhEv, .Lfunc_end5-_ZN8CryptoPP8SecBlockIhNS_20AllocatorWithCleanupIhLb0EEEEcvPhEv

	.section	.text._ZN8CryptoPP8SecBlockIjNS_29FixedSizeAllocatorWithCleanupIjLm32ENS_13NullAllocatorIjEELb0EEEEcvPjEv,"axG",@progbits,_ZN8CryptoPP8SecBlockIjNS_29FixedSizeAllocatorWithCleanupIjLm32ENS_13NullAllocatorIjEELb0EEEEcvPjEv,comdat
	.weak	_ZN8CryptoPP8SecBlockIjNS_29FixedSizeAllocatorWithCleanupIjLm32ENS_13NullAllocatorIjEELb0EEEEcvPjEv 
	.p2align	4, 0x90
	.type	_ZN8CryptoPP8SecBlockIjNS_29FixedSizeAllocatorWithCleanupIjLm32ENS_13NullAllocatorIjEELb0EEEEcvPjEv,@function
_ZN8CryptoPP8SecBlockIjNS_29FixedSizeAllocatorWithCleanupIjLm32ENS_13NullAllocatorIjEELb0EEEEcvPjEv: 

	push	rbp
	mov	rbp, rsp
	mov	qword ptr [rbp - 8], rdi
	mov	rdi, qword ptr [rbp - 8]
	mov	rax, qword ptr [rdi + 152]
	pop	rbp
	ret
.Lfunc_end6:
	.size	_ZN8CryptoPP8SecBlockIjNS_29FixedSizeAllocatorWithCleanupIjLm32ENS_13NullAllocatorIjEELb0EEEEcvPjEv, .Lfunc_end6-_ZN8CryptoPP8SecBlockIjNS_29FixedSizeAllocatorWithCleanupIjLm32ENS_13NullAllocatorIjEELb0EEEEcvPjEv

	.section	.text._ZSt4swapIjEvRT_S1_,"axG",@progbits,_ZSt4swapIjEvRT_S1_,comdat
	.weak	_ZSt4swapIjEvRT_S1_     
	.p2align	4, 0x90
	.type	_ZSt4swapIjEvRT_S1_,@function
_ZSt4swapIjEvRT_S1_:                    

	push	rbp
	mov	rbp, rsp
	push	r15
	push	r14
	push	r13
	push	r12
	push	rbx
	sub	rsp, 56
	xor	eax, eax
	mov	ecx, dword ptr [x.19]
	mov	edx, dword ptr [y.20]
	sub	eax, 1
	mov	r8d, ecx
	add	r8d, eax
	imul	ecx, r8d
	and	ecx, 1
	cmp	ecx, 0
	sete	r9b
	and	r9b, 1
	mov	byte ptr [rbp - 42], r9b
	cmp	edx, 10
	setl	r9b
	and	r9b, 1
	mov	byte ptr [rbp - 41], r9b
	mov	dword ptr [rbp - 48], 1586768659
	mov	qword ptr [rbp - 56], rdi 
	mov	qword ptr [rbp - 64], rsi 
.LBB7_1:                                
	mov	eax, dword ptr [rbp - 48]
	mov	ecx, eax
	sub	ecx, 164894770
	mov	dword ptr [rbp - 68], eax 
	mov	dword ptr [rbp - 72], ecx 
	je	.LBB7_5
	jmp	.LBB7_8
.LBB7_8:                                
	mov	eax, dword ptr [rbp - 68] 
	sub	eax, 371146255
	mov	dword ptr [rbp - 76], eax 
	je	.LBB7_6
	jmp	.LBB7_9
.LBB7_9:                                
	mov	eax, dword ptr [rbp - 68] 
	sub	eax, 763630539
	mov	dword ptr [rbp - 80], eax 
	je	.LBB7_4
	jmp	.LBB7_10
.LBB7_10:                               
	mov	eax, dword ptr [rbp - 68] 
	sub	eax, 1586768659
	mov	dword ptr [rbp - 84], eax 
	je	.LBB7_3
	jmp	.LBB7_2
.LBB7_2:                                
	jmp	.LBB7_7
.LBB7_3:                                
	mov	eax, 371146255
	mov	ecx, 763630539
	mov	dl, 1
	mov	sil, byte ptr [rbp - 42]
	mov	dil, byte ptr [rbp - 41]
	mov	r8b, sil
	xor	r8b, -1
	mov	r9b, dil
	xor	r9b, -1
	xor	dl, 1
	mov	r10b, r8b
	and	r10b, -1
	and	sil, dl
	mov	r11b, r9b
	and	r11b, -1
	and	dil, dl
	or	r10b, sil
	or	r11b, dil
	xor	r10b, r11b
	or	r8b, r9b
	xor	r8b, -1
	or	dl, 1
	and	r8b, dl
	or	r10b, r8b
	test	r10b, 1
	cmovne	eax, ecx
	mov	dword ptr [rbp - 48], eax
	jmp	.LBB7_7
.LBB7_4:                                
	mov	eax, 371146255
	mov	ecx, 164894770
	mov	dl, 1
	xor	esi, esi
	mov	rdi, rsp
	add	rdi, -16
	mov	rsp, rdi
	mov	r8, rsp
	add	r8, -16
	mov	rsp, r8
	mov	r9, rsp
	add	r9, -16
	mov	rsp, r9
	mov	r10, qword ptr [rbp - 56] 
	mov	qword ptr [rdi], r10
	mov	r11, qword ptr [rbp - 64] 
	mov	qword ptr [r8], r11
	mov	rbx, qword ptr [rdi]
	mov	r14d, dword ptr [rbx]
	mov	dword ptr [r9], r14d
	mov	rbx, qword ptr [r8]
	mov	r14d, dword ptr [rbx]
	mov	rdi, qword ptr [rdi]
	mov	dword ptr [rdi], r14d
	mov	r14d, dword ptr [r9]
	mov	rdi, qword ptr [r8]
	mov	dword ptr [rdi], r14d
	mov	r14d, dword ptr [x.19]
	mov	r15d, dword ptr [y.20]
	sub	esi, 1
	mov	r12d, r14d
	add	r12d, esi
	imul	r14d, r12d
	and	r14d, 1
	cmp	r14d, 0
	sete	r13b
	cmp	r15d, 10
	setl	sil
	mov	dil, r13b
	xor	dil, -1
	mov	r8b, sil
	xor	r8b, -1
	xor	dl, 1
	mov	r9b, dil
	and	r9b, -1
	and	r13b, dl
	mov	r10b, r8b
	and	r10b, -1
	and	sil, dl
	or	r9b, r13b
	or	r10b, sil
	xor	r9b, r10b
	or	dil, r8b
	xor	dil, -1
	or	dl, 1
	and	dil, dl
	or	r9b, dil
	test	r9b, 1
	cmovne	eax, ecx
	mov	dword ptr [rbp - 48], eax
	jmp	.LBB7_7
.LBB7_5:
	lea	rsp, [rbp - 40]
	pop	rbx
	pop	r12
	pop	r13
	pop	r14
	pop	r15
	pop	rbp
	ret
.LBB7_6:                                
	mov	rax, rsp
	add	rax, -16
	mov	rsp, rax
	mov	rcx, rsp
	add	rcx, -16
	mov	rsp, rcx
	mov	rdx, rsp
	add	rdx, -16
	mov	rsp, rdx
	mov	rsi, qword ptr [rbp - 56] 
	mov	qword ptr [rax], rsi
	mov	rdi, qword ptr [rbp - 64] 
	mov	qword ptr [rcx], rdi
	mov	r8, qword ptr [rax]
	mov	r9d, dword ptr [r8]
	mov	dword ptr [rdx], r9d
	mov	r8, qword ptr [rcx]
	mov	r9d, dword ptr [r8]
	mov	rax, qword ptr [rax]
	mov	dword ptr [rax], r9d
	mov	r9d, dword ptr [rdx]
	mov	rax, qword ptr [rcx]
	mov	dword ptr [rax], r9d
	mov	dword ptr [rbp - 48], 763630539
.LBB7_7:                                
	jmp	.LBB7_1
.Lfunc_end7:
	.size	_ZSt4swapIjEvRT_S1_, .Lfunc_end7-_ZSt4swapIjEvRT_S1_

	.section	.text._ZN8CryptoPP8SecBlockIhNS_20AllocatorWithCleanupIhLb0EEEED2Ev,"axG",@progbits,_ZN8CryptoPP8SecBlockIhNS_20AllocatorWithCleanupIhLb0EEEED2Ev,comdat
	.weak	_ZN8CryptoPP8SecBlockIhNS_20AllocatorWithCleanupIhLb0EEEED2Ev 
	.p2align	4, 0x90
	.type	_ZN8CryptoPP8SecBlockIhNS_20AllocatorWithCleanupIhLb0EEEED2Ev,@function
_ZN8CryptoPP8SecBlockIhNS_20AllocatorWithCleanupIhLb0EEEED2Ev: 
	.cfi_startproc

	push	rbp
.Lcfi12:
	.cfi_def_cfa_offset 16
.Lcfi13:
	.cfi_offset rbp, -16
	mov	rbp, rsp
.Lcfi14:
	.cfi_def_cfa_register rbp
	sub	rsp, 32
	mov	qword ptr [rbp - 8], rdi
	mov	rdi, qword ptr [rbp - 8]
	mov	rsi, qword ptr [rdi + 24]
	mov	rax, rdi
	add	rax, 16
	mov	rcx, rdi
	add	rcx, 8
	mov	qword ptr [rbp - 16], rdi 
	mov	rdi, rax
	mov	qword ptr [rbp - 24], rsi 
	mov	rsi, rcx
	call	_ZN8CryptoPP6STDMINImEERKT_S3_S3_
	mov	rdx, qword ptr [rax]
	mov	rdi, qword ptr [rbp - 16] 
	mov	rsi, qword ptr [rbp - 24] 
	call	_ZN8CryptoPP20AllocatorWithCleanupIhLb0EE10deallocateEPvm
	add	rsp, 32
	pop	rbp
	ret
.Lfunc_end8:
	.size	_ZN8CryptoPP8SecBlockIhNS_20AllocatorWithCleanupIhLb0EEEED2Ev, .Lfunc_end8-_ZN8CryptoPP8SecBlockIhNS_20AllocatorWithCleanupIhLb0EEEED2Ev
	.cfi_endproc

	.section	.text.__clang_call_terminate,"axG",@progbits,__clang_call_terminate,comdat
	.hidden	__clang_call_terminate  
	.weak	__clang_call_terminate
	.p2align	4, 0x90
	.type	__clang_call_terminate,@function
__clang_call_terminate:                 

	push	rbp
	push	r15
	push	r14
	push	r12
	push	rbx
	sub	rsp, 64
	xor	eax, eax
	mov	ecx, dword ptr [x.23]
	mov	edx, dword ptr [y.24]
	sub	eax, 1
	mov	esi, ecx
	add	esi, eax
	imul	ecx, esi
	and	ecx, 1
	cmp	ecx, 0
	sete	r8b
	and	r8b, 1
	mov	byte ptr [rsp + 62], r8b
	cmp	edx, 10
	setl	r8b
	and	r8b, 1
	mov	byte ptr [rsp + 63], r8b
	mov	dword ptr [rsp + 56], -1213039732
	mov	qword ptr [rsp + 48], rdi 
.LBB9_1:                                
	mov	eax, dword ptr [rsp + 56]
	mov	ecx, eax
	sub	ecx, -1333288707
	mov	dword ptr [rsp + 44], eax 
	mov	dword ptr [rsp + 40], ecx 
	je	.LBB9_4
	jmp	.LBB9_8
.LBB9_8:                                
	mov	eax, dword ptr [rsp + 44] 
	sub	eax, -1213039732
	mov	dword ptr [rsp + 36], eax 
	je	.LBB9_3
	jmp	.LBB9_9
.LBB9_9:                                
	mov	eax, dword ptr [rsp + 44] 
	sub	eax, -933399689
	mov	dword ptr [rsp + 32], eax 
	je	.LBB9_5
	jmp	.LBB9_10
.LBB9_10:                               
	mov	eax, dword ptr [rsp + 44] 
	sub	eax, 1078253211
	mov	dword ptr [rsp + 28], eax 
	je	.LBB9_6
	jmp	.LBB9_2
.LBB9_2:                                
	jmp	.LBB9_7
.LBB9_3:                                
	mov	eax, 1078253211
	mov	ecx, 2961678589
	mov	dl, byte ptr [rsp + 62]
	mov	sil, byte ptr [rsp + 63]
	mov	dil, dl
	and	dil, sil
	xor	dl, sil
	or	dil, dl
	test	dil, 1
	cmovne	eax, ecx
	mov	dword ptr [rsp + 56], eax
	jmp	.LBB9_7
.LBB9_4:                                
	mov	rdi, qword ptr [rsp + 48] 
	call	__cxa_begin_catch
	mov	qword ptr [rsp + 16], rax 
	call	_ZSt9terminatev
	mov	ecx, 1078253211
	mov	edx, 3361567607
	mov	sil, 1
	mov	r8d, dword ptr [x.23]
	mov	r9d, dword ptr [y.24]
	mov	r10d, r8d
	sub	r10d, 1668516510
	sub	r10d, 1
	add	r10d, 1668516510
	imul	r8d, r10d
	and	r8d, 1
	cmp	r8d, 0
	sete	r11b
	cmp	r9d, 10
	setl	bl
	mov	bpl, r11b
	xor	bpl, -1
	mov	r14b, bl
	xor	r14b, -1
	xor	sil, 1
	mov	r15b, bpl
	and	r15b, -1
	and	r11b, sil
	mov	r12b, r14b
	and	r12b, -1
	and	bl, sil
	or	r15b, r11b
	or	r12b, bl
	xor	r15b, r12b
	or	bpl, r14b
	xor	bpl, -1
	or	sil, 1
	and	bpl, sil
	or	r15b, bpl
	test	r15b, 1
	cmovne	ecx, edx
	mov	dword ptr [rsp + 56], ecx
	jmp	.LBB9_7
.LBB9_5:
.LBB9_6:                                
	mov	rdi, qword ptr [rsp + 48] 
	call	__cxa_begin_catch
	mov	qword ptr [rsp + 8], rax 
	call	_ZSt9terminatev
	mov	dword ptr [rsp + 56], -1333288707
.LBB9_7:                                
	jmp	.LBB9_1
.Lfunc_end9:
	.size	__clang_call_terminate, .Lfunc_end9-__clang_call_terminate

	.text
	.globl	_ZNK8CryptoPP6RawDES15RawProcessBlockERjS1_ 
	.p2align	4, 0x90
	.type	_ZNK8CryptoPP6RawDES15RawProcessBlockERjS1_,@function
_ZNK8CryptoPP6RawDES15RawProcessBlockERjS1_: 
	.cfi_startproc

	push	rbp
.Lcfi15:
	.cfi_def_cfa_offset 16
.Lcfi16:
	.cfi_offset rbp, -16
	mov	rbp, rsp
.Lcfi17:
	.cfi_def_cfa_register rbp
	push	r15
	push	r14
	push	r12
	push	rbx
	sub	rsp, 144
.Lcfi18:
	.cfi_offset rbx, -48
.Lcfi19:
	.cfi_offset r12, -40
.Lcfi20:
	.cfi_offset r14, -32
.Lcfi21:
	.cfi_offset r15, -24
	mov	eax, dword ptr [x.25]
	mov	ecx, dword ptr [y.26]
	mov	r8d, eax
	add	r8d, -1256928135
	sub	r8d, 1
	sub	r8d, -1256928135
	imul	eax, r8d
	and	eax, 1
	cmp	eax, 0
	sete	r9b
	and	r9b, 1
	mov	byte ptr [rbp - 90], r9b
	cmp	ecx, 10
	setl	r9b
	and	r9b, 1
	mov	byte ptr [rbp - 89], r9b
	mov	dword ptr [rbp - 96], -864200721
	mov	qword ptr [rbp - 104], rsi 
	mov	qword ptr [rbp - 112], rdi 
	mov	qword ptr [rbp - 120], rdx 
.LBB10_1:                               
	mov	eax, dword ptr [rbp - 96]
	mov	ecx, eax
	sub	ecx, -1873370490
	mov	dword ptr [rbp - 124], eax 
	mov	dword ptr [rbp - 128], ecx 
	je	.LBB10_9
	jmp	.LBB10_12
.LBB10_12:                              
	mov	eax, dword ptr [rbp - 124] 
	sub	eax, -1149743960
	mov	dword ptr [rbp - 132], eax 
	je	.LBB10_4
	jmp	.LBB10_13
.LBB10_13:                              
	mov	eax, dword ptr [rbp - 124] 
	sub	eax, -1146939814
	mov	dword ptr [rbp - 136], eax 
	je	.LBB10_7
	jmp	.LBB10_14
.LBB10_14:                              
	mov	eax, dword ptr [rbp - 124] 
	sub	eax, -864200721
	mov	dword ptr [rbp - 140], eax 
	je	.LBB10_3
	jmp	.LBB10_15
.LBB10_15:                              
	mov	eax, dword ptr [rbp - 124] 
	sub	eax, -733992430
	mov	dword ptr [rbp - 144], eax 
	je	.LBB10_5
	jmp	.LBB10_16
.LBB10_16:                              
	mov	eax, dword ptr [rbp - 124] 
	sub	eax, -444094243
	mov	dword ptr [rbp - 148], eax 
	je	.LBB10_6
	jmp	.LBB10_17
.LBB10_17:                              
	mov	eax, dword ptr [rbp - 124] 
	sub	eax, -179801380
	mov	dword ptr [rbp - 152], eax 
	je	.LBB10_8
	jmp	.LBB10_18
.LBB10_18:                              
	mov	eax, dword ptr [rbp - 124] 
	sub	eax, 1300874066
	mov	dword ptr [rbp - 156], eax 
	je	.LBB10_10
	jmp	.LBB10_2
.LBB10_2:                               
	jmp	.LBB10_11
.LBB10_3:                               
	mov	eax, 1300874066
	mov	ecx, 3145223336
	mov	dl, 1
	mov	sil, byte ptr [rbp - 90]
	mov	dil, byte ptr [rbp - 89]
	mov	r8b, sil
	xor	r8b, -1
	mov	r9b, dil
	xor	r9b, -1
	xor	dl, 0
	mov	r10b, r8b
	and	r10b, 0
	and	sil, dl
	mov	r11b, r9b
	and	r11b, 0
	and	dil, dl
	or	r10b, sil
	or	r11b, dil
	xor	r10b, r11b
	or	r8b, r9b
	xor	r8b, -1
	or	dl, 0
	and	r8b, dl
	or	r10b, r8b
	test	r10b, 1
	cmovne	eax, ecx
	mov	dword ptr [rbp - 96], eax
	jmp	.LBB10_11
.LBB10_4:                               
	mov	rax, rsp
	add	rax, -16
	mov	rsp, rax
	mov	rcx, rsp
	add	rcx, -16
	mov	rsp, rcx
	mov	qword ptr [rbp - 88], rcx
	mov	rcx, rsp
	add	rcx, -16
	mov	rsp, rcx
	mov	qword ptr [rbp - 80], rcx
	mov	rcx, rsp
	add	rcx, -16
	mov	rsp, rcx
	mov	qword ptr [rbp - 72], rcx
	mov	rcx, rsp
	add	rcx, -16
	mov	rsp, rcx
	mov	qword ptr [rbp - 64], rcx
	mov	rcx, rsp
	add	rcx, -16
	mov	rsp, rcx
	mov	qword ptr [rbp - 56], rcx
	mov	rcx, rsp
	add	rcx, -16
	mov	rsp, rcx
	mov	qword ptr [rbp - 48], rcx
	mov	rcx, rsp
	add	rcx, -16
	mov	rsp, rcx
	mov	qword ptr [rbp - 40], rcx
	mov	rcx, qword ptr [rbp - 112] 
	mov	qword ptr [rax], rcx
	mov	rdx, qword ptr [rbp - 88]
	mov	rsi, qword ptr [rbp - 104] 
	mov	qword ptr [rdx], rsi
	mov	rdx, qword ptr [rbp - 80]
	mov	rdi, qword ptr [rbp - 120] 
	mov	qword ptr [rdx], rdi
	mov	rax, qword ptr [rax]
	mov	rdx, qword ptr [rbp - 88]
	mov	rdx, qword ptr [rdx]
	mov	r8d, dword ptr [rdx]
	mov	rdx, qword ptr [rbp - 72]
	mov	dword ptr [rdx], r8d
	mov	rdx, qword ptr [rbp - 80]
	mov	rdx, qword ptr [rdx]
	mov	r8d, dword ptr [rdx]
	mov	rdx, qword ptr [rbp - 64]
	mov	dword ptr [rdx], r8d
	mov	rdi, rax
	call	_ZNK8CryptoPP8SecBlockIjNS_29FixedSizeAllocatorWithCleanupIjLm32ENS_13NullAllocatorIjEELb0EEEEcvPKjEv
	mov	r8d, 1300874066
	mov	r9d, 3560974866
	mov	rcx, qword ptr [rbp - 56]
	mov	qword ptr [rcx], rax
	mov	rax, qword ptr [rbp - 48]
	mov	dword ptr [rax], 0
	mov	r10d, dword ptr [x.25]
	mov	r11d, dword ptr [y.26]
	mov	ebx, r10d
	add	ebx, 260195268
	sub	ebx, 1
	sub	ebx, 260195268
	imul	r10d, ebx
	and	r10d, 1
	cmp	r10d, 0
	sete	r14b
	cmp	r11d, 10
	setl	r15b
	mov	r12b, r14b
	and	r12b, r15b
	xor	r14b, r15b
	or	r12b, r14b
	test	r12b, 1
	cmovne	r8d, r9d
	mov	dword ptr [rbp - 96], r8d
	jmp	.LBB10_11
.LBB10_5:                               
	mov	dword ptr [rbp - 96], -444094243
	jmp	.LBB10_11
.LBB10_6:                               
	mov	eax, 2421596806
	mov	ecx, 3148027482
	mov	rdx, qword ptr [rbp - 48]
	cmp	dword ptr [rdx], 8
	cmovb	eax, ecx
	mov	dword ptr [rbp - 96], eax
	jmp	.LBB10_11
.LBB10_7:                               
	mov	rax, qword ptr [rbp - 64]
	mov	edi, dword ptr [rax]
	call	_ZN8CryptoPP12rotrConstantILj4EjEET0_S1_
	mov	edi, 4294967295
	xor	ecx, ecx
	mov	rdx, qword ptr [rbp - 56]
	mov	rdx, qword ptr [rdx]
	mov	rsi, qword ptr [rbp - 48]
	mov	r8d, dword ptr [rsi]
	shl	r8d, 2
	mov	r9d, ecx
	sub	r9d, r8d
	mov	r8d, ecx
	sub	r8d, 0
	add	r9d, r8d
	sub	ecx, r9d
	mov	ecx, ecx
	mov	esi, ecx
	mov	ecx, dword ptr [rdx + 4*rsi]
	mov	r8d, eax
	xor	r8d, -1
	mov	r9d, ecx
	and	r9d, r8d
	xor	ecx, -1
	and	eax, ecx
	or	r9d, eax
	mov	rdx, qword ptr [rbp - 40]
	mov	dword ptr [rdx], r9d
	mov	rdx, qword ptr [rbp - 40]
	mov	eax, dword ptr [rdx]
	xor	eax, -1
	mov	ecx, edi
	xor	ecx, 63
	mov	r8d, edi
	xor	r8d, 3563816406
	or	eax, ecx
	or	r8d, 3563816406
	xor	eax, -1
	and	eax, r8d
	mov	eax, eax
	mov	edx, eax
	mov	eax, dword ptr [4*rdx + _ZN8CryptoPP6RawDES5SpboxE+1536]
	mov	rdx, qword ptr [rbp - 40]
	mov	ecx, dword ptr [rdx]
	shr	ecx, 8
	xor	ecx, -1
	mov	r8d, edi
	xor	r8d, 63
	mov	r9d, edi
	xor	r9d, 1201945626
	or	ecx, r8d
	or	r9d, 1201945626
	xor	ecx, -1
	and	ecx, r9d
	mov	ecx, ecx
	mov	edx, ecx
	mov	ecx, dword ptr [4*rdx + _ZN8CryptoPP6RawDES5SpboxE+1024]
	mov	r8d, eax
	xor	r8d, -1
	and	r8d, 2879723824
	mov	r9d, edi
	xor	r9d, 2879723824
	and	eax, r9d
	mov	r10d, ecx
	xor	r10d, -1
	and	r10d, -1415243472
	and	ecx, r9d
	or	r8d, eax
	or	r10d, ecx
	xor	r8d, r10d
	mov	rdx, qword ptr [rbp - 40]
	mov	eax, dword ptr [rdx]
	shr	eax, 16
	mov	ecx, edi
	xor	ecx, 63
	mov	r9d, eax
	xor	r9d, ecx
	and	r9d, eax
	mov	eax, r9d
	mov	edx, eax
	mov	eax, dword ptr [4*rdx + _ZN8CryptoPP6RawDES5SpboxE+512]
	mov	ecx, r8d
	xor	ecx, -1
	mov	r9d, eax
	and	r9d, ecx
	xor	eax, -1
	and	r8d, eax
	or	r9d, r8d
	mov	rdx, qword ptr [rbp - 40]
	mov	eax, dword ptr [rdx]
	shr	eax, 24
	xor	eax, -1
	mov	ecx, edi
	xor	ecx, 63
	mov	r8d, edi
	xor	r8d, 1011340711
	or	eax, ecx
	or	r8d, 1011340711
	xor	eax, -1
	and	eax, r8d
	mov	eax, eax
	mov	edx, eax
	mov	eax, dword ptr [4*rdx + _ZN8CryptoPP6RawDES5SpboxE]
	mov	ecx, r9d
	xor	ecx, -1
	and	ecx, 241230784
	mov	r8d, edi
	xor	r8d, 241230784
	and	r9d, r8d
	mov	r10d, eax
	xor	r10d, -1
	and	r10d, 241230784
	and	eax, r8d
	or	ecx, r9d
	or	r10d, eax
	xor	ecx, r10d
	mov	rdx, qword ptr [rbp - 72]
	mov	eax, dword ptr [rdx]
	mov	r8d, eax
	xor	r8d, -1
	and	r8d, 3586462912
	mov	r9d, edi
	xor	r9d, 3586462912
	and	eax, r9d
	mov	r10d, ecx
	xor	r10d, -1
	and	r10d, -708504384
	and	ecx, r9d
	or	r8d, eax
	or	r10d, ecx
	xor	r8d, r10d
	mov	rdx, qword ptr [rbp - 72]
	mov	dword ptr [rdx], r8d
	mov	rdx, qword ptr [rbp - 64]
	mov	eax, dword ptr [rdx]
	mov	rdx, qword ptr [rbp - 56]
	mov	rdx, qword ptr [rdx]
	mov	rsi, qword ptr [rbp - 48]
	mov	ecx, dword ptr [rsi]
	shl	ecx, 2
	add	ecx, 1701101991
	add	ecx, 1
	sub	ecx, 1701101991
	mov	ecx, ecx
	mov	esi, ecx
	mov	ecx, dword ptr [rdx + 4*rsi]
	mov	r8d, eax
	xor	r8d, -1
	and	r8d, 883837738
	mov	r9d, edi
	xor	r9d, 883837738
	and	eax, r9d
	mov	r10d, ecx
	xor	r10d, -1
	and	r10d, 883837738
	and	ecx, r9d
	or	r8d, eax
	or	r10d, ecx
	xor	r8d, r10d
	mov	rdx, qword ptr [rbp - 40]
	mov	dword ptr [rdx], r8d
	mov	rdx, qword ptr [rbp - 40]
	mov	eax, dword ptr [rdx]
	mov	ecx, edi
	xor	ecx, 63
	mov	r8d, eax
	xor	r8d, ecx
	and	r8d, eax
	mov	eax, r8d
	mov	edx, eax
	mov	eax, dword ptr [4*rdx + _ZN8CryptoPP6RawDES5SpboxE+1792]
	mov	rdx, qword ptr [rbp - 40]
	mov	ecx, dword ptr [rdx]
	shr	ecx, 8
	mov	r8d, edi
	xor	r8d, 63
	mov	r9d, ecx
	xor	r9d, r8d
	and	r9d, ecx
	mov	ecx, r9d
	mov	edx, ecx
	mov	ecx, dword ptr [4*rdx + _ZN8CryptoPP6RawDES5SpboxE+1280]
	mov	r8d, eax
	xor	r8d, -1
	and	r8d, 4291893149
	mov	r9d, edi
	xor	r9d, 4291893149
	and	eax, r9d
	mov	r10d, ecx
	xor	r10d, -1
	and	r10d, -3074147
	and	ecx, r9d
	or	r8d, eax
	or	r10d, ecx
	xor	r8d, r10d
	mov	rdx, qword ptr [rbp - 40]
	mov	eax, dword ptr [rdx]
	shr	eax, 16
	xor	eax, -1
	mov	ecx, edi
	xor	ecx, 63
	mov	r9d, edi
	xor	r9d, 3466152713
	or	eax, ecx
	or	r9d, 3466152713
	xor	eax, -1
	and	eax, r9d
	mov	eax, eax
	mov	edx, eax
	mov	eax, dword ptr [4*rdx + _ZN8CryptoPP6RawDES5SpboxE+768]
	mov	ecx, r8d
	xor	ecx, -1
	and	ecx, 2529293161
	mov	r9d, edi
	xor	r9d, 2529293161
	and	r8d, r9d
	mov	r10d, eax
	xor	r10d, -1
	and	r10d, -1765674135
	and	eax, r9d
	or	ecx, r8d
	or	r10d, eax
	xor	ecx, r10d
	mov	rdx, qword ptr [rbp - 40]
	mov	eax, dword ptr [rdx]
	shr	eax, 24
	xor	eax, -1
	mov	r8d, edi
	xor	r8d, 63
	mov	r9d, edi
	xor	r9d, 2197575731
	or	eax, r8d
	or	r9d, 2197575731
	xor	eax, -1
	and	eax, r9d
	mov	eax, eax
	mov	edx, eax
	mov	eax, dword ptr [4*rdx + _ZN8CryptoPP6RawDES5SpboxE+256]
	mov	r8d, ecx
	xor	r8d, -1
	mov	r9d, eax
	and	r9d, r8d
	xor	eax, -1
	and	ecx, eax
	or	r9d, ecx
	mov	rdx, qword ptr [rbp - 72]
	mov	eax, dword ptr [rdx]
	mov	ecx, eax
	xor	ecx, -1
	and	ecx, 4294535046
	xor	edi, 4294535046
	and	eax, edi
	mov	r8d, r9d
	xor	r8d, -1
	and	r8d, -432250
	and	r9d, edi
	or	ecx, eax
	or	r8d, r9d
	xor	ecx, r8d
	mov	rdx, qword ptr [rbp - 72]
	mov	dword ptr [rdx], ecx
	mov	rdx, qword ptr [rbp - 72]
	mov	edi, dword ptr [rdx]
	call	_ZN8CryptoPP12rotrConstantILj4EjEET0_S1_
	mov	ecx, 4294967295
	xor	edi, edi
	mov	rdx, qword ptr [rbp - 56]
	mov	rdx, qword ptr [rdx]
	mov	rsi, qword ptr [rbp - 48]
	mov	r8d, dword ptr [rsi]
	shl	r8d, 2
	sub	edi, 2
	sub	r8d, edi
	mov	edi, r8d
	mov	esi, edi
	mov	edi, dword ptr [rdx + 4*rsi]
	mov	r8d, eax
	xor	r8d, -1
	and	r8d, 3052337883
	mov	r9d, ecx
	xor	r9d, 3052337883
	and	eax, r9d
	mov	r10d, edi
	xor	r10d, -1
	and	r10d, -1242629413
	and	edi, r9d
	or	r8d, eax
	or	r10d, edi
	xor	r8d, r10d
	mov	rdx, qword ptr [rbp - 40]
	mov	dword ptr [rdx], r8d
	mov	rdx, qword ptr [rbp - 40]
	mov	eax, dword ptr [rdx]
	mov	edi, ecx
	xor	edi, 63
	mov	r8d, eax
	xor	r8d, edi
	and	r8d, eax
	mov	eax, r8d
	mov	edx, eax
	mov	eax, dword ptr [4*rdx + _ZN8CryptoPP6RawDES5SpboxE+1536]
	mov	rdx, qword ptr [rbp - 40]
	mov	edi, dword ptr [rdx]
	shr	edi, 8
	mov	r8d, ecx
	xor	r8d, 63
	mov	r9d, edi
	xor	r9d, r8d
	and	r9d, edi
	mov	edi, r9d
	mov	edx, edi
	mov	edi, dword ptr [4*rdx + _ZN8CryptoPP6RawDES5SpboxE+1024]
	mov	r8d, eax
	xor	r8d, -1
	and	r8d, 3334068328
	mov	r9d, ecx
	xor	r9d, 3334068328
	and	eax, r9d
	mov	r10d, edi
	xor	r10d, -1
	and	r10d, -960898968
	and	edi, r9d
	or	r8d, eax
	or	r10d, edi
	xor	r8d, r10d
	mov	rdx, qword ptr [rbp - 40]
	mov	eax, dword ptr [rdx]
	shr	eax, 16
	mov	edi, ecx
	xor	edi, 63
	mov	r9d, eax
	xor	r9d, edi
	and	r9d, eax
	mov	eax, r9d
	mov	edx, eax
	mov	eax, dword ptr [4*rdx + _ZN8CryptoPP6RawDES5SpboxE+512]
	mov	edi, r8d
	xor	edi, -1
	and	edi, 1394946899
	mov	r9d, ecx
	xor	r9d, 1394946899
	and	r8d, r9d
	mov	r10d, eax
	xor	r10d, -1
	and	r10d, 1394946899
	and	eax, r9d
	or	edi, r8d
	or	r10d, eax
	xor	edi, r10d
	mov	rdx, qword ptr [rbp - 40]
	mov	eax, dword ptr [rdx]
	shr	eax, 24
	xor	eax, -1
	mov	r8d, ecx
	xor	r8d, 63
	mov	r9d, ecx
	xor	r9d, 154902872
	or	eax, r8d
	or	r9d, 154902872
	xor	eax, -1
	and	eax, r9d
	mov	eax, eax
	mov	edx, eax
	mov	eax, dword ptr [4*rdx + _ZN8CryptoPP6RawDES5SpboxE]
	mov	r8d, edi
	xor	r8d, -1
	mov	r9d, eax
	and	r9d, r8d
	xor	eax, -1
	and	edi, eax
	or	r9d, edi
	mov	rdx, qword ptr [rbp - 64]
	mov	eax, dword ptr [rdx]
	mov	edi, eax
	xor	edi, -1
	and	edi, 2075756222
	mov	r8d, ecx
	xor	r8d, 2075756222
	and	eax, r8d
	mov	r10d, r9d
	xor	r10d, -1
	and	r10d, 2075756222
	and	r9d, r8d
	or	edi, eax
	or	r10d, r9d
	xor	edi, r10d
	mov	rdx, qword ptr [rbp - 64]
	mov	dword ptr [rdx], edi
	mov	rdx, qword ptr [rbp - 72]
	mov	eax, dword ptr [rdx]
	mov	rdx, qword ptr [rbp - 56]
	mov	rdx, qword ptr [rdx]
	mov	rsi, qword ptr [rbp - 48]
	mov	edi, dword ptr [rsi]
	shl	edi, 2
	sub	edi, 1242114663
	add	edi, 3
	add	edi, 1242114663
	mov	edi, edi
	mov	esi, edi
	mov	edi, dword ptr [rdx + 4*rsi]
	mov	r8d, eax
	xor	r8d, -1
	and	r8d, 4212869428
	mov	r9d, ecx
	xor	r9d, 4212869428
	and	eax, r9d
	mov	r10d, edi
	xor	r10d, -1
	and	r10d, -82097868
	and	edi, r9d
	or	r8d, eax
	or	r10d, edi
	xor	r8d, r10d
	mov	rdx, qword ptr [rbp - 40]
	mov	dword ptr [rdx], r8d
	mov	rdx, qword ptr [rbp - 40]
	mov	eax, dword ptr [rdx]
	xor	eax, -1
	mov	edi, ecx
	xor	edi, 63
	mov	r8d, ecx
	xor	r8d, 2667276303
	or	eax, edi
	or	r8d, 2667276303
	xor	eax, -1
	and	eax, r8d
	mov	eax, eax
	mov	edx, eax
	mov	eax, dword ptr [4*rdx + _ZN8CryptoPP6RawDES5SpboxE+1792]
	mov	rdx, qword ptr [rbp - 40]
	mov	edi, dword ptr [rdx]
	shr	edi, 8
	xor	edi, -1
	mov	r8d, ecx
	xor	r8d, 63
	mov	r9d, ecx
	xor	r9d, 2535228900
	or	edi, r8d
	or	r9d, 2535228900
	xor	edi, -1
	and	edi, r9d
	mov	edi, edi
	mov	edx, edi
	mov	edi, dword ptr [4*rdx + _ZN8CryptoPP6RawDES5SpboxE+1280]
	mov	r8d, eax
	xor	r8d, -1
	mov	r9d, edi
	and	r9d, r8d
	xor	edi, -1
	and	eax, edi
	or	r9d, eax
	mov	rdx, qword ptr [rbp - 40]
	mov	eax, dword ptr [rdx]
	shr	eax, 16
	mov	edi, ecx
	xor	edi, 63
	mov	r8d, eax
	xor	r8d, edi
	and	r8d, eax
	mov	eax, r8d
	mov	edx, eax
	mov	eax, dword ptr [4*rdx + _ZN8CryptoPP6RawDES5SpboxE+768]
	mov	edi, r9d
	xor	edi, -1
	mov	r8d, eax
	and	r8d, edi
	xor	eax, -1
	and	r9d, eax
	or	r8d, r9d
	mov	rdx, qword ptr [rbp - 40]
	mov	eax, dword ptr [rdx]
	shr	eax, 24
	mov	edi, ecx
	xor	edi, 63
	mov	r9d, eax
	xor	r9d, edi
	and	r9d, eax
	mov	eax, r9d
	mov	edx, eax
	mov	eax, dword ptr [4*rdx + _ZN8CryptoPP6RawDES5SpboxE+256]
	mov	edi, r8d
	xor	edi, -1
	mov	r9d, eax
	and	r9d, edi
	xor	eax, -1
	and	r8d, eax
	or	r9d, r8d
	mov	rdx, qword ptr [rbp - 64]
	mov	eax, dword ptr [rdx]
	mov	edi, eax
	xor	edi, -1
	and	edi, 1190459877
	xor	ecx, 1190459877
	and	eax, ecx
	mov	r8d, r9d
	xor	r8d, -1
	and	r8d, 1190459877
	and	r9d, ecx
	or	edi, eax
	or	r8d, r9d
	xor	edi, r8d
	mov	rdx, qword ptr [rbp - 64]
	mov	dword ptr [rdx], edi
	mov	dword ptr [rbp - 96], -179801380
	jmp	.LBB10_11
.LBB10_8:                               
	xor	eax, eax
	mov	rcx, qword ptr [rbp - 48]
	mov	edx, dword ptr [rcx]
	mov	esi, eax
	sub	esi, edx
	mov	edx, eax
	sub	edx, 1
	add	esi, edx
	sub	eax, esi
	mov	rcx, qword ptr [rbp - 48]
	mov	dword ptr [rcx], eax
	mov	dword ptr [rbp - 96], -444094243
	jmp	.LBB10_11
.LBB10_9:
	mov	rax, qword ptr [rbp - 72]
	mov	ecx, dword ptr [rax]
	mov	rax, qword ptr [rbp - 88]
	mov	rax, qword ptr [rax]
	mov	dword ptr [rax], ecx
	mov	rax, qword ptr [rbp - 64]
	mov	ecx, dword ptr [rax]
	mov	rax, qword ptr [rbp - 80]
	mov	rax, qword ptr [rax]
	mov	dword ptr [rax], ecx
	lea	rsp, [rbp - 32]
	pop	rbx
	pop	r12
	pop	r14
	pop	r15
	pop	rbp
	ret
.LBB10_10:                              
	mov	rax, rsp
	add	rax, -16
	mov	rsp, rax
	mov	rcx, rsp
	add	rcx, -16
	mov	rsp, rcx
	mov	rdx, rsp
	add	rdx, -16
	mov	rsp, rdx
	mov	rsi, rsp
	add	rsi, -16
	mov	rsp, rsi
	mov	rdi, rsp
	add	rdi, -16
	mov	rsp, rdi
	mov	r8, rsp
	add	r8, -16
	mov	rsp, r8
	mov	r9, rsp
	add	r9, -16
	mov	rsp, r9
	mov	r10, qword ptr [rbp - 112] 
	mov	qword ptr [rax], r10
	mov	r11, qword ptr [rbp - 104] 
	mov	qword ptr [rcx], r11
	mov	rbx, qword ptr [rbp - 120] 
	mov	qword ptr [rdx], rbx
	mov	rax, qword ptr [rax]
	mov	rcx, qword ptr [rcx]
	mov	r14d, dword ptr [rcx]
	mov	dword ptr [rsi], r14d
	mov	rcx, qword ptr [rdx]
	mov	r14d, dword ptr [rcx]
	mov	dword ptr [rdi], r14d
	mov	rdi, rax
	mov	qword ptr [rbp - 168], r8 
	mov	qword ptr [rbp - 176], r9 
	call	_ZNK8CryptoPP8SecBlockIjNS_29FixedSizeAllocatorWithCleanupIjLm32ENS_13NullAllocatorIjEELb0EEEEcvPKjEv
	mov	rcx, qword ptr [rbp - 168] 
	mov	qword ptr [rcx], rax
	mov	rax, qword ptr [rbp - 176] 
	mov	dword ptr [rax], 0
	mov	dword ptr [rbp - 96], -1149743960
.LBB10_11:                              
	jmp	.LBB10_1
.Lfunc_end10:
	.size	_ZNK8CryptoPP6RawDES15RawProcessBlockERjS1_, .Lfunc_end10-_ZNK8CryptoPP6RawDES15RawProcessBlockERjS1_
	.cfi_endproc

	.section	.text._ZNK8CryptoPP8SecBlockIjNS_29FixedSizeAllocatorWithCleanupIjLm32ENS_13NullAllocatorIjEELb0EEEEcvPKjEv,"axG",@progbits,_ZNK8CryptoPP8SecBlockIjNS_29FixedSizeAllocatorWithCleanupIjLm32ENS_13NullAllocatorIjEELb0EEEEcvPKjEv,comdat
	.weak	_ZNK8CryptoPP8SecBlockIjNS_29FixedSizeAllocatorWithCleanupIjLm32ENS_13NullAllocatorIjEELb0EEEEcvPKjEv 
	.p2align	4, 0x90
	.type	_ZNK8CryptoPP8SecBlockIjNS_29FixedSizeAllocatorWithCleanupIjLm32ENS_13NullAllocatorIjEELb0EEEEcvPKjEv,@function
_ZNK8CryptoPP8SecBlockIjNS_29FixedSizeAllocatorWithCleanupIjLm32ENS_13NullAllocatorIjEELb0EEEEcvPKjEv: 

	push	rbp
	mov	rbp, rsp
	push	rbx
	sub	rsp, 56
	mov	eax, dword ptr [x.27]
	mov	ecx, dword ptr [y.28]
	mov	edx, eax
	sub	edx, -1036940840
	sub	edx, 1
	add	edx, -1036940840
	imul	eax, edx
	and	eax, 1
	cmp	eax, 0
	sete	sil
	and	sil, 1
	mov	byte ptr [rbp - 18], sil
	cmp	ecx, 10
	setl	sil
	and	sil, 1
	mov	byte ptr [rbp - 17], sil
	mov	dword ptr [rbp - 24], -1309085698
	mov	qword ptr [rbp - 32], rdi 
.LBB11_1:                               
	mov	eax, dword ptr [rbp - 24]
	mov	ecx, eax
	sub	ecx, -1309085698
	mov	dword ptr [rbp - 36], eax 
	mov	dword ptr [rbp - 40], ecx 
	je	.LBB11_3
	jmp	.LBB11_8
.LBB11_8:                               
	mov	eax, dword ptr [rbp - 36] 
	sub	eax, -821712349
	mov	dword ptr [rbp - 44], eax 
	je	.LBB11_6
	jmp	.LBB11_9
.LBB11_9:                               
	mov	eax, dword ptr [rbp - 36] 
	sub	eax, 1395891960
	mov	dword ptr [rbp - 48], eax 
	je	.LBB11_4
	jmp	.LBB11_10
.LBB11_10:                              
	mov	eax, dword ptr [rbp - 36] 
	sub	eax, 2053700073
	mov	dword ptr [rbp - 52], eax 
	je	.LBB11_5
	jmp	.LBB11_2
.LBB11_2:                               
	jmp	.LBB11_7
.LBB11_3:                               
	mov	eax, 3473254947
	mov	ecx, 1395891960
	mov	dl, byte ptr [rbp - 18]
	mov	sil, byte ptr [rbp - 17]
	mov	dil, dl
	and	dil, sil
	xor	dl, sil
	or	dil, dl
	test	dil, 1
	cmovne	eax, ecx
	mov	dword ptr [rbp - 24], eax
	jmp	.LBB11_7
.LBB11_4:                               
	mov	eax, 3473254947
	mov	ecx, 2053700073
	mov	rdx, rsp
	add	rdx, -16
	mov	rsp, rdx
	mov	rsi, qword ptr [rbp - 32] 
	mov	qword ptr [rdx], rsi
	mov	rdx, qword ptr [rdx]
	mov	rdx, qword ptr [rdx + 152]
	mov	qword ptr [rbp - 16], rdx
	mov	edi, dword ptr [x.27]
	mov	r8d, dword ptr [y.28]
	mov	r9d, edi
	sub	r9d, -296936231
	sub	r9d, 1
	add	r9d, -296936231
	imul	edi, r9d
	and	edi, 1
	cmp	edi, 0
	sete	r10b
	cmp	r8d, 10
	setl	r11b
	mov	bl, r10b
	and	bl, r11b
	xor	r10b, r11b
	or	bl, r10b
	test	bl, 1
	cmovne	eax, ecx
	mov	dword ptr [rbp - 24], eax
	jmp	.LBB11_7
.LBB11_5:
	mov	rax, qword ptr [rbp - 16]
	lea	rsp, [rbp - 8]
	pop	rbx
	pop	rbp
	ret
.LBB11_6:                               
	mov	rax, rsp
	add	rax, -16
	mov	rsp, rax
	mov	rcx, qword ptr [rbp - 32] 
	mov	qword ptr [rax], rcx
	mov	dword ptr [rbp - 24], 1395891960
.LBB11_7:                               
	jmp	.LBB11_1
.Lfunc_end11:
	.size	_ZNK8CryptoPP8SecBlockIjNS_29FixedSizeAllocatorWithCleanupIjLm32ENS_13NullAllocatorIjEELb0EEEEcvPKjEv, .Lfunc_end11-_ZNK8CryptoPP8SecBlockIjNS_29FixedSizeAllocatorWithCleanupIjLm32ENS_13NullAllocatorIjEELb0EEEEcvPKjEv

	.section	.text._ZN8CryptoPP12rotrConstantILj4EjEET0_S1_,"axG",@progbits,_ZN8CryptoPP12rotrConstantILj4EjEET0_S1_,comdat
	.weak	_ZN8CryptoPP12rotrConstantILj4EjEET0_S1_ 
	.p2align	4, 0x90
	.type	_ZN8CryptoPP12rotrConstantILj4EjEET0_S1_,@function
_ZN8CryptoPP12rotrConstantILj4EjEET0_S1_: 

	push	rbp
	mov	rbp, rsp
	push	r15
	push	r14
	push	r13
	push	r12
	push	rbx
	sub	rsp, 40
	mov	eax, dword ptr [x.29]
	mov	ecx, dword ptr [y.30]
	mov	edx, eax
	sub	edx, -102527382
	sub	edx, 1
	add	edx, -102527382
	imul	eax, edx
	and	eax, 1
	cmp	eax, 0
	sete	sil
	and	sil, 1
	mov	byte ptr [rbp - 46], sil
	cmp	ecx, 10
	setl	sil
	and	sil, 1
	mov	byte ptr [rbp - 45], sil
	mov	dword ptr [rbp - 52], 428559144
	mov	dword ptr [rbp - 56], edi 
.LBB12_1:                               
	mov	eax, dword ptr [rbp - 52]
	mov	ecx, eax
	sub	ecx, -68024695
	mov	dword ptr [rbp - 60], eax 
	mov	dword ptr [rbp - 64], ecx 
	je	.LBB12_5
	jmp	.LBB12_8
.LBB12_8:                               
	mov	eax, dword ptr [rbp - 60] 
	sub	eax, 428559144
	mov	dword ptr [rbp - 68], eax 
	je	.LBB12_3
	jmp	.LBB12_9
.LBB12_9:                               
	mov	eax, dword ptr [rbp - 60] 
	sub	eax, 1200485094
	mov	dword ptr [rbp - 72], eax 
	je	.LBB12_6
	jmp	.LBB12_10
.LBB12_10:                              
	mov	eax, dword ptr [rbp - 60] 
	sub	eax, 1357632833
	mov	dword ptr [rbp - 76], eax 
	je	.LBB12_4
	jmp	.LBB12_2
.LBB12_2:                               
	jmp	.LBB12_7
.LBB12_3:                               
	mov	eax, 1200485094
	mov	ecx, 1357632833
	mov	dl, 1
	mov	sil, byte ptr [rbp - 46]
	mov	dil, byte ptr [rbp - 45]
	mov	r8b, sil
	xor	r8b, -1
	mov	r9b, dil
	xor	r9b, -1
	xor	dl, 1
	mov	r10b, r8b
	and	r10b, -1
	and	sil, dl
	mov	r11b, r9b
	and	r11b, -1
	and	dil, dl
	or	r10b, sil
	or	r11b, dil
	xor	r10b, r11b
	or	r8b, r9b
	xor	r8b, -1
	or	dl, 1
	and	r8b, dl
	or	r10b, r8b
	test	r10b, 1
	cmovne	eax, ecx
	mov	dword ptr [rbp - 52], eax
	jmp	.LBB12_7
.LBB12_4:                               
	mov	eax, 1200485094
	mov	ecx, 4226942601
	mov	edx, 4294967295
	mov	rsi, rsp
	add	rsi, -16
	mov	rsp, rsi
	mov	edi, dword ptr [rbp - 56] 
	mov	dword ptr [rsi], edi
	mov	r8d, dword ptr [rsi]
	shr	r8d, 4
	mov	r9d, dword ptr [rsi]
	shl	r9d, 28
	mov	r10d, r8d
	xor	r10d, -1
	mov	r11d, r9d
	xor	r11d, -1
	xor	edx, 799855053
	mov	ebx, r10d
	and	ebx, 799855053
	and	r8d, edx
	mov	r14d, r11d
	and	r14d, 799855053
	and	r9d, edx
	or	ebx, r8d
	or	r14d, r9d
	xor	ebx, r14d
	or	r10d, r11d
	xor	r10d, -1
	or	edx, 799855053
	and	r10d, edx
	or	ebx, r10d
	mov	dword ptr [rbp - 44], ebx
	mov	edx, dword ptr [x.29]
	mov	r8d, dword ptr [y.30]
	mov	r9d, edx
	add	r9d, -1971807785
	sub	r9d, 1
	sub	r9d, -1971807785
	imul	edx, r9d
	and	edx, 1
	cmp	edx, 0
	sete	r15b
	cmp	r8d, 10
	setl	r12b
	mov	r13b, r15b
	and	r13b, r12b
	xor	r15b, r12b
	or	r13b, r15b
	test	r13b, 1
	cmovne	eax, ecx
	mov	dword ptr [rbp - 52], eax
	jmp	.LBB12_7
.LBB12_5:
	mov	eax, dword ptr [rbp - 44]
	lea	rsp, [rbp - 40]
	pop	rbx
	pop	r12
	pop	r13
	pop	r14
	pop	r15
	pop	rbp
	ret
.LBB12_6:                               
	mov	rax, rsp
	add	rax, -16
	mov	rsp, rax
	mov	ecx, dword ptr [rbp - 56] 
	mov	dword ptr [rax], ecx
	mov	dword ptr [rbp - 52], 1357632833
.LBB12_7:                               
	jmp	.LBB12_1
.Lfunc_end12:
	.size	_ZN8CryptoPP12rotrConstantILj4EjEET0_S1_, .Lfunc_end12-_ZN8CryptoPP12rotrConstantILj4EjEET0_S1_

	.text
	.globl	_ZN8CryptoPP8DES_EDE24Base15UncheckedSetKeyEPKhjRKNS_14NameValuePairsE 
	.p2align	4, 0x90
	.type	_ZN8CryptoPP8DES_EDE24Base15UncheckedSetKeyEPKhjRKNS_14NameValuePairsE,@function
_ZN8CryptoPP8DES_EDE24Base15UncheckedSetKeyEPKhjRKNS_14NameValuePairsE: 
	.cfi_startproc

	push	rbp
.Lcfi22:
	.cfi_def_cfa_offset 16
.Lcfi23:
	.cfi_offset rbp, -16
	mov	rbp, rsp
.Lcfi24:
	.cfi_def_cfa_register rbp
	sub	rsp, 64
	mov	qword ptr [rbp - 8], rdi
	mov	qword ptr [rbp - 16], rsi
	mov	dword ptr [rbp - 20], edx
	mov	qword ptr [rbp - 32], rcx
	mov	rcx, qword ptr [rbp - 8]
	mov	rsi, rcx
	mov	edx, dword ptr [rbp - 20]
	mov	edi, edx
	mov	qword ptr [rbp - 40], rdi 
	mov	rdi, rsi
	mov	rsi, qword ptr [rbp - 40] 
	mov	qword ptr [rbp - 48], rcx 
	call	_ZNK8CryptoPP21SimpleKeyingInterface20AssertValidKeyLengthEm
	mov	rcx, qword ptr [rbp - 48] 
	add	rcx, 16
	mov	rsi, qword ptr [rbp - 48] 
	add	rsi, 8
	mov	rdi, rsi
	mov	qword ptr [rbp - 56], rcx 
	call	_ZNK8CryptoPP19BlockTransformation18GetCipherDirectionEv
	mov	rdx, qword ptr [rbp - 16]
	mov	rdi, qword ptr [rbp - 56] 
	mov	esi, eax
	call	_ZN8CryptoPP6RawDES9RawSetKeyENS_9CipherDirEPKh
	mov	rcx, qword ptr [rbp - 48] 
	add	rcx, 176
	mov	rdx, qword ptr [rbp - 48] 
	add	rdx, 8
	mov	rdi, rdx
	mov	qword ptr [rbp - 64], rcx 
	call	_ZNK8CryptoPP19BlockTransformation18GetCipherDirectionEv
	mov	edi, eax
	call	_ZN8CryptoPP16ReverseCipherDirENS_9CipherDirE
	mov	rcx, qword ptr [rbp - 16]
	add	rcx, 8
	mov	rdi, qword ptr [rbp - 64] 
	mov	esi, eax
	mov	rdx, rcx
	call	_ZN8CryptoPP6RawDES9RawSetKeyENS_9CipherDirEPKh
	add	rsp, 64
	pop	rbp
	ret
.Lfunc_end13:
	.size	_ZN8CryptoPP8DES_EDE24Base15UncheckedSetKeyEPKhjRKNS_14NameValuePairsE, .Lfunc_end13-_ZN8CryptoPP8DES_EDE24Base15UncheckedSetKeyEPKhjRKNS_14NameValuePairsE
	.cfi_endproc

	.section	.text._ZN8CryptoPP16ReverseCipherDirENS_9CipherDirE,"axG",@progbits,_ZN8CryptoPP16ReverseCipherDirENS_9CipherDirE,comdat
	.weak	_ZN8CryptoPP16ReverseCipherDirENS_9CipherDirE 
	.p2align	4, 0x90
	.type	_ZN8CryptoPP16ReverseCipherDirENS_9CipherDirE,@function
_ZN8CryptoPP16ReverseCipherDirENS_9CipherDirE: 

	push	rbp
	mov	rbp, rsp
	xor	eax, eax
	mov	ecx, 1
	mov	dword ptr [rbp - 4], edi
	mov	edi, dword ptr [rbp - 4]
	cmp	edi, 0
	cmove	eax, ecx
	pop	rbp
	ret
.Lfunc_end14:
	.size	_ZN8CryptoPP16ReverseCipherDirENS_9CipherDirE, .Lfunc_end14-_ZN8CryptoPP16ReverseCipherDirENS_9CipherDirE

	.text
	.globl	_ZNK8CryptoPP8DES_EDE24Base18ProcessAndXorBlockEPKhS3_Ph 
	.p2align	4, 0x90
	.type	_ZNK8CryptoPP8DES_EDE24Base18ProcessAndXorBlockEPKhS3_Ph,@function
_ZNK8CryptoPP8DES_EDE24Base18ProcessAndXorBlockEPKhS3_Ph: 
	.cfi_startproc

	push	rbp
.Lcfi25:
	.cfi_def_cfa_offset 16
.Lcfi26:
	.cfi_offset rbp, -16
	mov	rbp, rsp
.Lcfi27:
	.cfi_def_cfa_register rbp
	sub	rsp, 96
	mov	qword ptr [rbp - 8], rdi
	mov	qword ptr [rbp - 16], rsi
	mov	qword ptr [rbp - 24], rdx
	mov	qword ptr [rbp - 32], rcx
	mov	rcx, qword ptr [rbp - 8]
	mov	rdi, qword ptr [rbp - 16]
	mov	qword ptr [rbp - 72], rcx 
	call	_ZN8CryptoPP14BlockGetAndPutIjNS_10EnumToTypeINS_9ByteOrderELi1EEELb0ELb0EE3GetEPKv
	lea	rdi, [rbp - 48]
	lea	rsi, [rbp - 36]
	mov	qword ptr [rbp - 48], rax
	call	_ZN8CryptoPP8GetBlockIjNS_10EnumToTypeINS_9ByteOrderELi1EEELb0EEclIjEERS4_RT_
	lea	rsi, [rbp - 40]
	mov	rdi, rax
	call	_ZN8CryptoPP8GetBlockIjNS_10EnumToTypeINS_9ByteOrderELi1EEELb0EEclIjEERS4_RT_
	lea	rdi, [rbp - 36]
	lea	rsi, [rbp - 40]
	mov	qword ptr [rbp - 80], rax 
	call	_ZN8CryptoPPL5IPERMERjS0_
	lea	rsi, [rbp - 36]
	lea	rdx, [rbp - 40]
	mov	rax, qword ptr [rbp - 72] 
	add	rax, 16
	mov	rdi, rax
	call	_ZNK8CryptoPP6RawDES15RawProcessBlockERjS1_
	lea	rsi, [rbp - 40]
	lea	rdx, [rbp - 36]
	mov	rax, qword ptr [rbp - 72] 
	add	rax, 176
	mov	rdi, rax
	call	_ZNK8CryptoPP6RawDES15RawProcessBlockERjS1_
	lea	rsi, [rbp - 36]
	lea	rdx, [rbp - 40]
	mov	rax, qword ptr [rbp - 72] 
	add	rax, 16
	mov	rdi, rax
	call	_ZNK8CryptoPP6RawDES15RawProcessBlockERjS1_
	lea	rdi, [rbp - 36]
	lea	rsi, [rbp - 40]
	call	_ZN8CryptoPPL5FPERMERjS0_
	lea	rdi, [rbp - 64]
	mov	rsi, qword ptr [rbp - 24]
	mov	rdx, qword ptr [rbp - 32]
	call	_ZN8CryptoPP8PutBlockIjNS_10EnumToTypeINS_9ByteOrderELi1EEELb0EEC2EPKvPv
	lea	rdi, [rbp - 64]
	mov	esi, dword ptr [rbp - 40]
	call	_ZN8CryptoPP8PutBlockIjNS_10EnumToTypeINS_9ByteOrderELi1EEELb0EEclIjEERS4_T_
	mov	esi, dword ptr [rbp - 36]
	mov	rdi, rax
	call	_ZN8CryptoPP8PutBlockIjNS_10EnumToTypeINS_9ByteOrderELi1EEELb0EEclIjEERS4_T_
	mov	qword ptr [rbp - 88], rax 
	add	rsp, 96
	pop	rbp
	ret
.Lfunc_end15:
	.size	_ZNK8CryptoPP8DES_EDE24Base18ProcessAndXorBlockEPKhS3_Ph, .Lfunc_end15-_ZNK8CryptoPP8DES_EDE24Base18ProcessAndXorBlockEPKhS3_Ph
	.cfi_endproc

	.section	.text._ZN8CryptoPP14BlockGetAndPutIjNS_10EnumToTypeINS_9ByteOrderELi1EEELb0ELb0EE3GetEPKv,"axG",@progbits,_ZN8CryptoPP14BlockGetAndPutIjNS_10EnumToTypeINS_9ByteOrderELi1EEELb0ELb0EE3GetEPKv,comdat
	.weak	_ZN8CryptoPP14BlockGetAndPutIjNS_10EnumToTypeINS_9ByteOrderELi1EEELb0ELb0EE3GetEPKv 
	.p2align	4, 0x90
	.type	_ZN8CryptoPP14BlockGetAndPutIjNS_10EnumToTypeINS_9ByteOrderELi1EEELb0ELb0EE3GetEPKv,@function
_ZN8CryptoPP14BlockGetAndPutIjNS_10EnumToTypeINS_9ByteOrderELi1EEELb0ELb0EE3GetEPKv: 
	.cfi_startproc

	push	rbp
.Lcfi28:
	.cfi_def_cfa_offset 16
.Lcfi29:
	.cfi_offset rbp, -16
	mov	rbp, rsp
.Lcfi30:
	.cfi_def_cfa_register rbp
	sub	rsp, 16
	lea	rax, [rbp - 8]
	mov	qword ptr [rbp - 16], rdi
	mov	rsi, qword ptr [rbp - 16]
	mov	rdi, rax
	call	_ZN8CryptoPP8GetBlockIjNS_10EnumToTypeINS_9ByteOrderELi1EEELb0EEC2EPKv
	mov	rax, qword ptr [rbp - 8]
	add	rsp, 16
	pop	rbp
	ret
.Lfunc_end16:
	.size	_ZN8CryptoPP14BlockGetAndPutIjNS_10EnumToTypeINS_9ByteOrderELi1EEELb0ELb0EE3GetEPKv, .Lfunc_end16-_ZN8CryptoPP14BlockGetAndPutIjNS_10EnumToTypeINS_9ByteOrderELi1EEELb0ELb0EE3GetEPKv
	.cfi_endproc

	.section	.text._ZN8CryptoPP8GetBlockIjNS_10EnumToTypeINS_9ByteOrderELi1EEELb0EEclIjEERS4_RT_,"axG",@progbits,_ZN8CryptoPP8GetBlockIjNS_10EnumToTypeINS_9ByteOrderELi1EEELb0EEclIjEERS4_RT_,comdat
	.weak	_ZN8CryptoPP8GetBlockIjNS_10EnumToTypeINS_9ByteOrderELi1EEELb0EEclIjEERS4_RT_ 
	.p2align	4, 0x90
	.type	_ZN8CryptoPP8GetBlockIjNS_10EnumToTypeINS_9ByteOrderELi1EEELb0EEclIjEERS4_RT_,@function
_ZN8CryptoPP8GetBlockIjNS_10EnumToTypeINS_9ByteOrderELi1EEELb0EEclIjEERS4_RT_: 
	.cfi_startproc

	push	rbp
.Lcfi31:
	.cfi_def_cfa_offset 16
.Lcfi32:
	.cfi_offset rbp, -16
	mov	rbp, rsp
.Lcfi33:
	.cfi_def_cfa_register rbp
	push	r15
	push	r14
	push	rbx
	sub	rsp, 88
.Lcfi34:
	.cfi_offset rbx, -40
.Lcfi35:
	.cfi_offset r14, -32
.Lcfi36:
	.cfi_offset r15, -24
	mov	eax, dword ptr [x.39]
	mov	ecx, dword ptr [y.40]
	mov	edx, eax
	sub	edx, 1641946504
	sub	edx, 1
	add	edx, 1641946504
	imul	eax, edx
	and	eax, 1
	cmp	eax, 0
	sete	r8b
	and	r8b, 1
	mov	byte ptr [rbp - 34], r8b
	cmp	ecx, 10
	setl	r8b
	and	r8b, 1
	mov	byte ptr [rbp - 33], r8b
	mov	dword ptr [rbp - 40], -1190102721
	mov	qword ptr [rbp - 48], rdi 
	mov	qword ptr [rbp - 56], rsi 
.LBB17_1:                               
	mov	eax, dword ptr [rbp - 40]
	mov	ecx, eax
	sub	ecx, -1190102721
	mov	dword ptr [rbp - 60], eax 
	mov	dword ptr [rbp - 64], ecx 
	je	.LBB17_3
	jmp	.LBB17_8
.LBB17_8:                               
	mov	eax, dword ptr [rbp - 60] 
	sub	eax, -1168127253
	mov	dword ptr [rbp - 68], eax 
	je	.LBB17_5
	jmp	.LBB17_9
.LBB17_9:                               
	mov	eax, dword ptr [rbp - 60] 
	sub	eax, -238595392
	mov	dword ptr [rbp - 72], eax 
	je	.LBB17_6
	jmp	.LBB17_10
.LBB17_10:                              
	mov	eax, dword ptr [rbp - 60] 
	sub	eax, 1450449545
	mov	dword ptr [rbp - 76], eax 
	je	.LBB17_4
	jmp	.LBB17_2
.LBB17_2:                               
	jmp	.LBB17_7
.LBB17_3:                               
	mov	eax, 4056371904
	mov	ecx, 1450449545
	mov	dl, 1
	mov	sil, byte ptr [rbp - 34]
	mov	dil, byte ptr [rbp - 33]
	mov	r8b, sil
	xor	r8b, -1
	mov	r9b, dil
	xor	r9b, -1
	xor	dl, 1
	mov	r10b, r8b
	and	r10b, -1
	and	sil, dl
	mov	r11b, r9b
	and	r11b, -1
	and	dil, dl
	or	r10b, sil
	or	r11b, dil
	xor	r10b, r11b
	or	r8b, r9b
	xor	r8b, -1
	or	dl, 1
	and	r8b, dl
	or	r10b, r8b
	test	r10b, 1
	cmovne	eax, ecx
	mov	dword ptr [rbp - 40], eax
	jmp	.LBB17_7
.LBB17_4:                               
	mov	rax, rsp
	add	rax, -16
	mov	rsp, rax
	mov	rcx, rsp
	add	rcx, -16
	mov	rsp, rcx
	mov	rdx, qword ptr [rbp - 48] 
	mov	qword ptr [rax], rdx
	mov	rsi, qword ptr [rbp - 56] 
	mov	qword ptr [rcx], rsi
	mov	rax, qword ptr [rax]
	mov	qword ptr [rbp - 32], rax
	mov	qword ptr [rbp - 88], rcx 
	call	_ZN8CryptoPP10EnumToTypeINS_9ByteOrderELi1EE6ToEnumEv
	xor	edi, edi
	mov	rcx, qword ptr [rbp - 32]
	mov	rdx, qword ptr [rcx]
	mov	esi, eax
	call	_ZN8CryptoPP7GetWordIjEET_bNS_9ByteOrderEPKh
	mov	esi, 4056371904
	mov	edi, 3126840043
	xor	r8d, r8d
	mov	rcx, qword ptr [rbp - 88] 
	mov	rdx, qword ptr [rcx]
	mov	dword ptr [rdx], eax
	mov	rdx, qword ptr [rbp - 32]
	mov	r9, qword ptr [rdx]
	add	r9, 4
	mov	qword ptr [rdx], r9
	mov	eax, dword ptr [x.39]
	mov	r10d, dword ptr [y.40]
	sub	r8d, 1
	mov	r11d, eax
	add	r11d, r8d
	imul	eax, r11d
	and	eax, 1
	cmp	eax, 0
	sete	bl
	cmp	r10d, 10
	setl	r14b
	mov	r15b, bl
	and	r15b, r14b
	xor	bl, r14b
	or	r15b, bl
	test	r15b, 1
	cmovne	esi, edi
	mov	dword ptr [rbp - 40], esi
	jmp	.LBB17_7
.LBB17_5:
	mov	rax, qword ptr [rbp - 32]
	lea	rsp, [rbp - 24]
	pop	rbx
	pop	r14
	pop	r15
	pop	rbp
	ret
.LBB17_6:                               
	mov	rax, rsp
	add	rax, -16
	mov	rsp, rax
	mov	rcx, rsp
	add	rcx, -16
	mov	rsp, rcx
	mov	rdx, qword ptr [rbp - 48] 
	mov	qword ptr [rax], rdx
	mov	rsi, qword ptr [rbp - 56] 
	mov	qword ptr [rcx], rsi
	mov	rax, qword ptr [rax]
	mov	qword ptr [rbp - 96], rcx 
	mov	qword ptr [rbp - 104], rax 
	call	_ZN8CryptoPP10EnumToTypeINS_9ByteOrderELi1EE6ToEnumEv
	xor	edi, edi
	mov	rcx, qword ptr [rbp - 104] 
	mov	rdx, qword ptr [rcx]
	mov	esi, eax
	call	_ZN8CryptoPP7GetWordIjEET_bNS_9ByteOrderEPKh
	mov	rcx, qword ptr [rbp - 96] 
	mov	rdx, qword ptr [rcx]
	mov	dword ptr [rdx], eax
	mov	rdx, qword ptr [rbp - 104] 
	mov	r8, qword ptr [rdx]
	add	r8, 4
	mov	qword ptr [rdx], r8
	mov	dword ptr [rbp - 40], 1450449545
.LBB17_7:                               
	jmp	.LBB17_1
.Lfunc_end17:
	.size	_ZN8CryptoPP8GetBlockIjNS_10EnumToTypeINS_9ByteOrderELi1EEELb0EEclIjEERS4_RT_, .Lfunc_end17-_ZN8CryptoPP8GetBlockIjNS_10EnumToTypeINS_9ByteOrderELi1EEELb0EEclIjEERS4_RT_
	.cfi_endproc

	.text
	.p2align	4, 0x90         
	.type	_ZN8CryptoPPL5IPERMERjS0_,@function
_ZN8CryptoPPL5IPERMERjS0_:              
	.cfi_startproc

	push	rbp
.Lcfi37:
	.cfi_def_cfa_offset 16
.Lcfi38:
	.cfi_offset rbp, -16
	mov	rbp, rsp
.Lcfi39:
	.cfi_def_cfa_register rbp
	sub	rsp, 32
	mov	qword ptr [rbp - 8], rdi
	mov	qword ptr [rbp - 16], rsi
	mov	rsi, qword ptr [rbp - 16]
	mov	edi, dword ptr [rsi]
	call	_ZN8CryptoPP12rotlConstantILj4EjEET0_S1_
	mov	edi, 4294967295
	mov	rsi, qword ptr [rbp - 16]
	mov	dword ptr [rsi], eax
	mov	rsi, qword ptr [rbp - 8]
	mov	eax, dword ptr [rsi]
	mov	rsi, qword ptr [rbp - 16]
	mov	ecx, dword ptr [rsi]
	mov	edx, eax
	xor	edx, -1
	and	edx, 3883281640
	mov	r8d, edi
	xor	r8d, 3883281640
	and	eax, r8d
	mov	r9d, ecx
	xor	r9d, -1
	and	r9d, -411685656
	and	ecx, r8d
	or	edx, eax
	or	r9d, ecx
	xor	edx, r9d
	xor	edi, 4042322160
	mov	eax, edx
	xor	eax, edi
	and	eax, edx
	mov	dword ptr [rbp - 20], eax
	mov	eax, dword ptr [rbp - 20]
	mov	rsi, qword ptr [rbp - 8]
	mov	ecx, dword ptr [rsi]
	mov	edx, ecx
	xor	edx, -1
	mov	edi, eax
	and	edi, edx
	xor	eax, -1
	and	ecx, eax
	or	edi, ecx
	mov	dword ptr [rsi], edi
	mov	rsi, qword ptr [rbp - 16]
	mov	eax, dword ptr [rsi]
	mov	ecx, dword ptr [rbp - 20]
	mov	edx, eax
	xor	edx, -1
	mov	edi, ecx
	and	edi, edx
	xor	ecx, -1
	and	eax, ecx
	or	edi, eax
	call	_ZN8CryptoPP12rotrConstantILj20EjEET0_S1_
	mov	ecx, 4294967295
	mov	rsi, qword ptr [rbp - 16]
	mov	dword ptr [rsi], eax
	mov	rsi, qword ptr [rbp - 8]
	mov	eax, dword ptr [rsi]
	mov	rsi, qword ptr [rbp - 16]
	mov	edx, dword ptr [rsi]
	mov	edi, eax
	xor	edi, -1
	mov	r8d, edx
	and	r8d, edi
	xor	edx, -1
	and	eax, edx
	or	r8d, eax
	xor	r8d, -1
	mov	eax, ecx
	xor	eax, 4294901760
	mov	edx, ecx
	xor	edx, 2768155665
	or	r8d, eax
	or	edx, 2768155665
	xor	r8d, -1
	and	r8d, edx
	mov	dword ptr [rbp - 20], r8d
	mov	eax, dword ptr [rbp - 20]
	mov	rsi, qword ptr [rbp - 8]
	mov	edx, dword ptr [rsi]
	mov	edi, edx
	xor	edi, -1
	and	edi, 1006271986
	xor	ecx, 1006271986
	and	edx, ecx
	mov	r8d, eax
	xor	r8d, -1
	and	r8d, 1006271986
	and	eax, ecx
	or	edi, edx
	or	r8d, eax
	xor	edi, r8d
	mov	dword ptr [rsi], edi
	mov	rsi, qword ptr [rbp - 16]
	mov	eax, dword ptr [rsi]
	mov	ecx, dword ptr [rbp - 20]
	mov	edx, eax
	xor	edx, -1
	mov	edi, ecx
	and	edi, edx
	xor	ecx, -1
	and	eax, ecx
	or	edi, eax
	call	_ZN8CryptoPP12rotrConstantILj18EjEET0_S1_
	mov	ecx, 4294967295
	mov	rsi, qword ptr [rbp - 16]
	mov	dword ptr [rsi], eax
	mov	rsi, qword ptr [rbp - 8]
	mov	eax, dword ptr [rsi]
	mov	rsi, qword ptr [rbp - 16]
	mov	edx, dword ptr [rsi]
	mov	edi, eax
	xor	edi, -1
	and	edi, 2498801532
	mov	r8d, ecx
	xor	r8d, 2498801532
	and	eax, r8d
	mov	r9d, edx
	xor	r9d, -1
	and	r9d, -1796165764
	and	edx, r8d
	or	edi, eax
	or	r9d, edx
	xor	edi, r9d
	xor	edi, -1
	mov	eax, ecx
	xor	eax, 858993459
	mov	edx, ecx
	xor	edx, 1085659284
	or	edi, eax
	or	edx, 1085659284
	xor	edi, -1
	and	edi, edx
	mov	dword ptr [rbp - 20], edi
	mov	eax, dword ptr [rbp - 20]
	mov	rsi, qword ptr [rbp - 8]
	mov	edx, dword ptr [rsi]
	mov	edi, edx
	xor	edi, -1
	mov	r8d, eax
	and	r8d, edi
	xor	eax, -1
	and	edx, eax
	or	r8d, edx
	mov	dword ptr [rsi], r8d
	mov	rsi, qword ptr [rbp - 16]
	mov	eax, dword ptr [rsi]
	mov	edx, dword ptr [rbp - 20]
	mov	edi, eax
	xor	edi, -1
	and	edi, 2247092222
	xor	ecx, 2247092222
	and	eax, ecx
	mov	r8d, edx
	xor	r8d, -1
	and	r8d, -2047875074
	and	edx, ecx
	or	edi, eax
	or	r8d, edx
	xor	edi, r8d
	call	_ZN8CryptoPP12rotrConstantILj6EjEET0_S1_
	mov	ecx, 4294967295
	mov	rsi, qword ptr [rbp - 16]
	mov	dword ptr [rsi], eax
	mov	rsi, qword ptr [rbp - 8]
	mov	eax, dword ptr [rsi]
	mov	rsi, qword ptr [rbp - 16]
	mov	edx, dword ptr [rsi]
	mov	edi, eax
	xor	edi, -1
	mov	r8d, edx
	and	r8d, edi
	xor	edx, -1
	and	eax, edx
	or	r8d, eax
	xor	ecx, 16711935
	mov	eax, r8d
	xor	eax, ecx
	and	eax, r8d
	mov	dword ptr [rbp - 20], eax
	mov	eax, dword ptr [rbp - 20]
	mov	rsi, qword ptr [rbp - 8]
	mov	ecx, dword ptr [rsi]
	mov	edx, ecx
	xor	edx, -1
	mov	edi, eax
	and	edi, edx
	xor	eax, -1
	and	ecx, eax
	or	edi, ecx
	mov	dword ptr [rsi], edi
	mov	rsi, qword ptr [rbp - 16]
	mov	eax, dword ptr [rsi]
	mov	ecx, dword ptr [rbp - 20]
	mov	edx, eax
	xor	edx, -1
	mov	edi, ecx
	and	edi, edx
	xor	ecx, -1
	and	eax, ecx
	or	edi, eax
	call	_ZN8CryptoPP12rotlConstantILj9EjEET0_S1_
	mov	ecx, 4294967295
	mov	rsi, qword ptr [rbp - 16]
	mov	dword ptr [rsi], eax
	mov	rsi, qword ptr [rbp - 8]
	mov	eax, dword ptr [rsi]
	mov	rsi, qword ptr [rbp - 16]
	mov	edx, dword ptr [rsi]
	mov	edi, eax
	xor	edi, -1
	and	edi, 762629941
	mov	r8d, ecx
	xor	r8d, 762629941
	and	eax, r8d
	mov	r9d, edx
	xor	r9d, -1
	and	r9d, 762629941
	and	edx, r8d
	or	edi, eax
	or	r9d, edx
	xor	edi, r9d
	xor	edi, -1
	mov	eax, ecx
	xor	eax, 2863311530
	mov	edx, ecx
	xor	edx, 493075926
	or	edi, eax
	or	edx, 493075926
	xor	edi, -1
	and	edi, edx
	mov	dword ptr [rbp - 20], edi
	mov	rsi, qword ptr [rbp - 8]
	mov	eax, dword ptr [rsi]
	mov	edx, dword ptr [rbp - 20]
	mov	edi, eax
	xor	edi, -1
	and	edi, 3597722837
	xor	ecx, 3597722837
	and	eax, ecx
	mov	r8d, edx
	xor	r8d, -1
	and	r8d, -697244459
	and	edx, ecx
	or	edi, eax
	or	r8d, edx
	xor	edi, r8d
	call	_ZN8CryptoPP12rotlConstantILj1EjEET0_S1_
	mov	rsi, qword ptr [rbp - 8]
	mov	dword ptr [rsi], eax
	mov	eax, dword ptr [rbp - 20]
	mov	rsi, qword ptr [rbp - 16]
	mov	ecx, dword ptr [rsi]
	mov	edx, ecx
	xor	edx, -1
	mov	edi, eax
	and	edi, edx
	xor	eax, -1
	and	ecx, eax
	or	edi, ecx
	mov	dword ptr [rsi], edi
	add	rsp, 32
	pop	rbp
	ret
.Lfunc_end18:
	.size	_ZN8CryptoPPL5IPERMERjS0_, .Lfunc_end18-_ZN8CryptoPPL5IPERMERjS0_
	.cfi_endproc

	.p2align	4, 0x90         
	.type	_ZN8CryptoPPL5FPERMERjS0_,@function
_ZN8CryptoPPL5FPERMERjS0_:              
	.cfi_startproc

	push	rbp
.Lcfi40:
	.cfi_def_cfa_offset 16
.Lcfi41:
	.cfi_offset rbp, -16
	mov	rbp, rsp
.Lcfi42:
	.cfi_def_cfa_register rbp
	sub	rsp, 32
	mov	qword ptr [rbp - 8], rdi
	mov	qword ptr [rbp - 16], rsi
	mov	rsi, qword ptr [rbp - 16]
	mov	edi, dword ptr [rsi]
	call	_ZN8CryptoPP12rotrConstantILj1EjEET0_S1_
	mov	edi, 4294967295
	mov	rsi, qword ptr [rbp - 16]
	mov	dword ptr [rsi], eax
	mov	rsi, qword ptr [rbp - 8]
	mov	eax, dword ptr [rsi]
	mov	rsi, qword ptr [rbp - 16]
	mov	ecx, dword ptr [rsi]
	mov	edx, eax
	xor	edx, -1
	mov	r8d, ecx
	and	r8d, edx
	xor	ecx, -1
	and	eax, ecx
	or	r8d, eax
	mov	eax, edi
	xor	eax, 2863311530
	mov	ecx, r8d
	xor	ecx, eax
	and	ecx, r8d
	mov	dword ptr [rbp - 20], ecx
	mov	eax, dword ptr [rbp - 20]
	mov	rsi, qword ptr [rbp - 16]
	mov	ecx, dword ptr [rsi]
	mov	edx, ecx
	xor	edx, -1
	mov	r8d, eax
	and	r8d, edx
	xor	eax, -1
	and	ecx, eax
	or	r8d, ecx
	mov	dword ptr [rsi], r8d
	mov	rsi, qword ptr [rbp - 8]
	mov	eax, dword ptr [rsi]
	mov	ecx, dword ptr [rbp - 20]
	mov	edx, eax
	xor	edx, -1
	and	edx, 834823106
	xor	edi, 834823106
	and	eax, edi
	mov	r8d, ecx
	xor	r8d, -1
	and	r8d, 834823106
	and	ecx, edi
	or	edx, eax
	or	r8d, ecx
	xor	edx, r8d
	mov	edi, edx
	call	_ZN8CryptoPP12rotrConstantILj9EjEET0_S1_
	mov	ecx, 4294967295
	mov	rsi, qword ptr [rbp - 8]
	mov	dword ptr [rsi], eax
	mov	rsi, qword ptr [rbp - 8]
	mov	eax, dword ptr [rsi]
	mov	rsi, qword ptr [rbp - 16]
	mov	edx, dword ptr [rsi]
	mov	edi, eax
	xor	edi, -1
	and	edi, 591698044
	mov	r8d, ecx
	xor	r8d, 591698044
	and	eax, r8d
	mov	r9d, edx
	xor	r9d, -1
	and	r9d, 591698044
	and	edx, r8d
	or	edi, eax
	or	r9d, edx
	xor	edi, r9d
	xor	edi, -1
	mov	eax, ecx
	xor	eax, 16711935
	mov	edx, ecx
	xor	edx, 482120381
	or	edi, eax
	or	edx, 482120381
	xor	edi, -1
	and	edi, edx
	mov	dword ptr [rbp - 20], edi
	mov	eax, dword ptr [rbp - 20]
	mov	rsi, qword ptr [rbp - 16]
	mov	edx, dword ptr [rsi]
	mov	edi, edx
	xor	edi, -1
	and	edi, 3339705445
	xor	ecx, 3339705445
	and	edx, ecx
	mov	r8d, eax
	xor	r8d, -1
	and	r8d, -955261851
	and	eax, ecx
	or	edi, edx
	or	r8d, eax
	xor	edi, r8d
	mov	dword ptr [rsi], edi
	mov	rsi, qword ptr [rbp - 8]
	mov	eax, dword ptr [rsi]
	mov	ecx, dword ptr [rbp - 20]
	mov	edx, eax
	xor	edx, -1
	mov	edi, ecx
	and	edi, edx
	xor	ecx, -1
	and	eax, ecx
	or	edi, eax
	call	_ZN8CryptoPP12rotlConstantILj6EjEET0_S1_
	mov	ecx, 4294967295
	mov	rsi, qword ptr [rbp - 8]
	mov	dword ptr [rsi], eax
	mov	rsi, qword ptr [rbp - 8]
	mov	eax, dword ptr [rsi]
	mov	rsi, qword ptr [rbp - 16]
	mov	edx, dword ptr [rsi]
	mov	edi, eax
	xor	edi, -1
	mov	r8d, edx
	and	r8d, edi
	xor	edx, -1
	and	eax, edx
	or	r8d, eax
	xor	r8d, -1
	mov	eax, ecx
	xor	eax, 858993459
	mov	edx, ecx
	xor	edx, 1918069231
	or	r8d, eax
	or	edx, 1918069231
	xor	r8d, -1
	and	r8d, edx
	mov	dword ptr [rbp - 20], r8d
	mov	eax, dword ptr [rbp - 20]
	mov	rsi, qword ptr [rbp - 16]
	mov	edx, dword ptr [rsi]
	mov	edi, edx
	xor	edi, -1
	and	edi, 3835464805
	xor	ecx, 3835464805
	and	edx, ecx
	mov	r8d, eax
	xor	r8d, -1
	and	r8d, -459502491
	and	eax, ecx
	or	edi, edx
	or	r8d, eax
	xor	edi, r8d
	mov	dword ptr [rsi], edi
	mov	rsi, qword ptr [rbp - 8]
	mov	eax, dword ptr [rsi]
	mov	ecx, dword ptr [rbp - 20]
	mov	edx, eax
	xor	edx, -1
	mov	edi, ecx
	and	edi, edx
	xor	ecx, -1
	and	eax, ecx
	or	edi, eax
	call	_ZN8CryptoPP12rotlConstantILj18EjEET0_S1_
	mov	ecx, 4294967295
	mov	rsi, qword ptr [rbp - 8]
	mov	dword ptr [rsi], eax
	mov	rsi, qword ptr [rbp - 8]
	mov	eax, dword ptr [rsi]
	mov	rsi, qword ptr [rbp - 16]
	mov	edx, dword ptr [rsi]
	mov	edi, eax
	xor	edi, -1
	mov	r8d, edx
	and	r8d, edi
	xor	edx, -1
	and	eax, edx
	or	r8d, eax
	mov	eax, ecx
	xor	eax, 4294901760
	mov	edx, r8d
	xor	edx, eax
	and	edx, r8d
	mov	dword ptr [rbp - 20], edx
	mov	eax, dword ptr [rbp - 20]
	mov	rsi, qword ptr [rbp - 16]
	mov	edx, dword ptr [rsi]
	mov	edi, edx
	xor	edi, -1
	and	edi, 3634280535
	xor	ecx, 3634280535
	and	edx, ecx
	mov	r8d, eax
	xor	r8d, -1
	and	r8d, -660686761
	and	eax, ecx
	or	edi, edx
	or	r8d, eax
	xor	edi, r8d
	mov	dword ptr [rsi], edi
	mov	rsi, qword ptr [rbp - 8]
	mov	eax, dword ptr [rsi]
	mov	ecx, dword ptr [rbp - 20]
	mov	edx, eax
	xor	edx, -1
	mov	edi, ecx
	and	edi, edx
	xor	ecx, -1
	and	eax, ecx
	or	edi, eax
	call	_ZN8CryptoPP12rotlConstantILj20EjEET0_S1_
	mov	ecx, 4294967295
	mov	rsi, qword ptr [rbp - 8]
	mov	dword ptr [rsi], eax
	mov	rsi, qword ptr [rbp - 8]
	mov	eax, dword ptr [rsi]
	mov	rsi, qword ptr [rbp - 16]
	mov	edx, dword ptr [rsi]
	mov	edi, eax
	xor	edi, -1
	mov	r8d, edx
	and	r8d, edi
	xor	edx, -1
	and	eax, edx
	or	r8d, eax
	mov	eax, ecx
	xor	eax, 4042322160
	mov	edx, r8d
	xor	edx, eax
	and	edx, r8d
	mov	dword ptr [rbp - 20], edx
	mov	eax, dword ptr [rbp - 20]
	mov	rsi, qword ptr [rbp - 16]
	mov	edx, dword ptr [rsi]
	mov	edi, edx
	xor	edi, -1
	mov	r8d, eax
	and	r8d, edi
	xor	eax, -1
	and	edx, eax
	or	r8d, edx
	mov	dword ptr [rsi], r8d
	mov	rsi, qword ptr [rbp - 8]
	mov	eax, dword ptr [rsi]
	mov	edx, dword ptr [rbp - 20]
	mov	edi, eax
	xor	edi, -1
	and	edi, 3980209757
	xor	ecx, 3980209757
	and	eax, ecx
	mov	r8d, edx
	xor	r8d, -1
	and	r8d, -314757539
	and	edx, ecx
	or	edi, eax
	or	r8d, edx
	xor	edi, r8d
	call	_ZN8CryptoPP12rotrConstantILj4EjEET0_S1_
	mov	rsi, qword ptr [rbp - 8]
	mov	dword ptr [rsi], eax
	add	rsp, 32
	pop	rbp
	ret
.Lfunc_end19:
	.size	_ZN8CryptoPPL5FPERMERjS0_, .Lfunc_end19-_ZN8CryptoPPL5FPERMERjS0_
	.cfi_endproc

	.section	.text._ZN8CryptoPP8PutBlockIjNS_10EnumToTypeINS_9ByteOrderELi1EEELb0EEC2EPKvPv,"axG",@progbits,_ZN8CryptoPP8PutBlockIjNS_10EnumToTypeINS_9ByteOrderELi1EEELb0EEC2EPKvPv,comdat
	.weak	_ZN8CryptoPP8PutBlockIjNS_10EnumToTypeINS_9ByteOrderELi1EEELb0EEC2EPKvPv 
	.p2align	4, 0x90
	.type	_ZN8CryptoPP8PutBlockIjNS_10EnumToTypeINS_9ByteOrderELi1EEELb0EEC2EPKvPv,@function
_ZN8CryptoPP8PutBlockIjNS_10EnumToTypeINS_9ByteOrderELi1EEELb0EEC2EPKvPv: 

	push	rbp
	mov	rbp, rsp
	mov	qword ptr [rbp - 8], rdi
	mov	qword ptr [rbp - 16], rsi
	mov	qword ptr [rbp - 24], rdx
	mov	rdx, qword ptr [rbp - 8]
	mov	rsi, qword ptr [rbp - 16]
	mov	qword ptr [rdx], rsi
	mov	rsi, qword ptr [rbp - 24]
	mov	qword ptr [rdx + 8], rsi
	pop	rbp
	ret
.Lfunc_end20:
	.size	_ZN8CryptoPP8PutBlockIjNS_10EnumToTypeINS_9ByteOrderELi1EEELb0EEC2EPKvPv, .Lfunc_end20-_ZN8CryptoPP8PutBlockIjNS_10EnumToTypeINS_9ByteOrderELi1EEELb0EEC2EPKvPv

	.section	.text._ZN8CryptoPP8PutBlockIjNS_10EnumToTypeINS_9ByteOrderELi1EEELb0EEclIjEERS4_T_,"axG",@progbits,_ZN8CryptoPP8PutBlockIjNS_10EnumToTypeINS_9ByteOrderELi1EEELb0EEclIjEERS4_T_,comdat
	.weak	_ZN8CryptoPP8PutBlockIjNS_10EnumToTypeINS_9ByteOrderELi1EEELb0EEclIjEERS4_T_ 
	.p2align	4, 0x90
	.type	_ZN8CryptoPP8PutBlockIjNS_10EnumToTypeINS_9ByteOrderELi1EEELb0EEclIjEERS4_T_,@function
_ZN8CryptoPP8PutBlockIjNS_10EnumToTypeINS_9ByteOrderELi1EEELb0EEclIjEERS4_T_: 
	.cfi_startproc

	push	rbp
.Lcfi43:
	.cfi_def_cfa_offset 16
.Lcfi44:
	.cfi_offset rbp, -16
	mov	rbp, rsp
.Lcfi45:
	.cfi_def_cfa_register rbp
	sub	rsp, 48
	mov	qword ptr [rbp - 24], rdi
	mov	dword ptr [rbp - 28], esi
	mov	rdi, qword ptr [rbp - 24]
	mov	qword ptr [rbp - 16], rdi
	call	_ZN8CryptoPP10EnumToTypeINS_9ByteOrderELi1EE6ToEnumEv
	xor	edi, edi
	mov	rcx, qword ptr [rbp - 16]
	mov	rdx, qword ptr [rcx + 8]
	mov	ecx, dword ptr [rbp - 28]
	mov	r8, qword ptr [rbp - 16]
	mov	r8, qword ptr [r8]
	mov	esi, eax
	call	_ZN8CryptoPP7PutWordIjEEvbNS_9ByteOrderEPhT_PKh
	mov	rdx, qword ptr [rbp - 16]
	mov	r8, qword ptr [rdx + 8]
	add	r8, 4
	mov	qword ptr [rdx + 8], r8
	mov	rdx, qword ptr [rbp - 16]
	mov	rdx, qword ptr [rdx]
	mov	qword ptr [rbp - 8], rdx
	mov	dword ptr [rbp - 32], -713150839
.LBB21_1:                               
	mov	eax, dword ptr [rbp - 32]
	mov	ecx, eax
	sub	ecx, -713150839
	mov	dword ptr [rbp - 36], eax 
	mov	dword ptr [rbp - 40], ecx 
	je	.LBB21_3
	jmp	.LBB21_7
.LBB21_7:                               
	mov	eax, dword ptr [rbp - 36] 
	sub	eax, 92747308
	mov	dword ptr [rbp - 44], eax 
	je	.LBB21_5
	jmp	.LBB21_8
.LBB21_8:                               
	mov	eax, dword ptr [rbp - 36] 
	sub	eax, 1824924945
	mov	dword ptr [rbp - 48], eax 
	je	.LBB21_4
	jmp	.LBB21_2
.LBB21_2:                               
	jmp	.LBB21_6
.LBB21_3:                               
	mov	eax, 92747308
	mov	ecx, 1824924945
	mov	rdx, qword ptr [rbp - 8]
	cmp	rdx, 0
	cmovne	eax, ecx
	mov	dword ptr [rbp - 32], eax
	jmp	.LBB21_6
.LBB21_4:                               
	mov	rax, qword ptr [rbp - 16]
	mov	rcx, qword ptr [rax]
	add	rcx, 4
	mov	qword ptr [rax], rcx
	mov	dword ptr [rbp - 32], 92747308
	jmp	.LBB21_6
.LBB21_5:
	mov	rax, qword ptr [rbp - 16]
	add	rsp, 48
	pop	rbp
	ret
.LBB21_6:                               
	jmp	.LBB21_1
.Lfunc_end21:
	.size	_ZN8CryptoPP8PutBlockIjNS_10EnumToTypeINS_9ByteOrderELi1EEELb0EEclIjEERS4_T_, .Lfunc_end21-_ZN8CryptoPP8PutBlockIjNS_10EnumToTypeINS_9ByteOrderELi1EEELb0EEclIjEERS4_T_
	.cfi_endproc

	.text
	.globl	_ZThn8_NK8CryptoPP8DES_EDE24Base18ProcessAndXorBlockEPKhS3_Ph 
	.p2align	4, 0x90
	.type	_ZThn8_NK8CryptoPP8DES_EDE24Base18ProcessAndXorBlockEPKhS3_Ph,@function
_ZThn8_NK8CryptoPP8DES_EDE24Base18ProcessAndXorBlockEPKhS3_Ph: 
	.cfi_startproc

	push	rbp
.Lcfi46:
	.cfi_def_cfa_offset 16
.Lcfi47:
	.cfi_offset rbp, -16
	mov	rbp, rsp
.Lcfi48:
	.cfi_def_cfa_register rbp
	mov	qword ptr [rbp - 8], rdi
	mov	qword ptr [rbp - 16], rsi
	mov	qword ptr [rbp - 24], rdx
	mov	qword ptr [rbp - 32], rcx
	mov	rcx, qword ptr [rbp - 8]
	add	rcx, -8
	mov	rsi, qword ptr [rbp - 16]
	mov	rdx, qword ptr [rbp - 24]
	mov	rdi, qword ptr [rbp - 32]
	mov	qword ptr [rbp - 40], rdi 
	mov	rdi, rcx
	mov	rcx, qword ptr [rbp - 40] 
	pop	rbp
	jmp	_ZNK8CryptoPP8DES_EDE24Base18ProcessAndXorBlockEPKhS3_Ph 
.Lfunc_end22:
	.size	_ZThn8_NK8CryptoPP8DES_EDE24Base18ProcessAndXorBlockEPKhS3_Ph, .Lfunc_end22-_ZThn8_NK8CryptoPP8DES_EDE24Base18ProcessAndXorBlockEPKhS3_Ph
	.cfi_endproc

	.globl	_ZN8CryptoPP8DES_EDE34Base15UncheckedSetKeyEPKhjRKNS_14NameValuePairsE 
	.p2align	4, 0x90
	.type	_ZN8CryptoPP8DES_EDE34Base15UncheckedSetKeyEPKhjRKNS_14NameValuePairsE,@function
_ZN8CryptoPP8DES_EDE34Base15UncheckedSetKeyEPKhjRKNS_14NameValuePairsE: 
	.cfi_startproc

	push	rbp
.Lcfi49:
	.cfi_def_cfa_offset 16
.Lcfi50:
	.cfi_offset rbp, -16
	mov	rbp, rsp
.Lcfi51:
	.cfi_def_cfa_register rbp
	push	r15
	push	r14
	push	r13
	push	r12
	push	rbx
	sub	rsp, 216
.Lcfi52:
	.cfi_offset rbx, -56
.Lcfi53:
	.cfi_offset r12, -48
.Lcfi54:
	.cfi_offset r13, -40
.Lcfi55:
	.cfi_offset r14, -32
.Lcfi56:
	.cfi_offset r15, -24
	mov	eax, dword ptr [x.51]
	mov	r8d, dword ptr [y.52]
	mov	r9d, eax
	add	r9d, -1284108842
	sub	r9d, 1
	sub	r9d, -1284108842
	imul	eax, r9d
	and	eax, 1
	cmp	eax, 0
	sete	r10b
	and	r10b, 1
	mov	byte ptr [rbp - 42], r10b
	cmp	r8d, 10
	setl	r10b
	and	r10b, 1
	mov	byte ptr [rbp - 41], r10b
	mov	dword ptr [rbp - 48], -1127196769
	mov	dword ptr [rbp - 52], edx 
	mov	qword ptr [rbp - 64], rsi 
	mov	qword ptr [rbp - 72], rdi 
	mov	qword ptr [rbp - 80], rcx 
.LBB23_1:                               
	mov	eax, dword ptr [rbp - 48]
	mov	ecx, eax
	sub	ecx, -1127196769
	mov	dword ptr [rbp - 84], eax 
	mov	dword ptr [rbp - 88], ecx 
	je	.LBB23_3
	jmp	.LBB23_8
.LBB23_8:                               
	mov	eax, dword ptr [rbp - 84] 
	sub	eax, -536427670
	mov	dword ptr [rbp - 92], eax 
	je	.LBB23_6
	jmp	.LBB23_9
.LBB23_9:                               
	mov	eax, dword ptr [rbp - 84] 
	sub	eax, -46518653
	mov	dword ptr [rbp - 96], eax 
	je	.LBB23_5
	jmp	.LBB23_10
.LBB23_10:                              
	mov	eax, dword ptr [rbp - 84] 
	sub	eax, 1073779793
	mov	dword ptr [rbp - 100], eax 
	je	.LBB23_4
	jmp	.LBB23_2
.LBB23_2:                               
	jmp	.LBB23_7
.LBB23_3:                               
	mov	eax, 3758539626
	mov	ecx, 1073779793
	mov	dl, byte ptr [rbp - 42]
	mov	sil, byte ptr [rbp - 41]
	mov	dil, dl
	and	dil, sil
	xor	dl, sil
	or	dil, dl
	test	dil, 1
	cmovne	eax, ecx
	mov	dword ptr [rbp - 48], eax
	jmp	.LBB23_7
.LBB23_4:                               
	mov	rax, rsp
	add	rax, -16
	mov	rsp, rax
	mov	rcx, rsp
	add	rcx, -16
	mov	rsp, rcx
	mov	rdx, rsp
	add	rdx, -16
	mov	rsp, rdx
	mov	rsi, rsp
	add	rsi, -16
	mov	rsp, rsi
	mov	rdi, qword ptr [rbp - 72] 
	mov	qword ptr [rax], rdi
	mov	r8, qword ptr [rbp - 64] 
	mov	qword ptr [rcx], r8
	mov	r9d, dword ptr [rbp - 52] 
	mov	dword ptr [rdx], r9d
	mov	r10, qword ptr [rbp - 80] 
	mov	qword ptr [rsi], r10
	mov	rax, qword ptr [rax]
	mov	rsi, rax
	mov	r11d, dword ptr [rdx]
	mov	edx, r11d
	mov	rdi, rsi
	mov	rsi, rdx
	mov	qword ptr [rbp - 112], rcx 
	mov	qword ptr [rbp - 120], rax 
	call	_ZNK8CryptoPP21SimpleKeyingInterface20AssertValidKeyLengthEm
	mov	rax, qword ptr [rbp - 120] 
	add	rax, 16
	mov	rcx, qword ptr [rbp - 120] 
	add	rcx, 8
	mov	rdi, rcx
	mov	qword ptr [rbp - 128], rax 
	call	_ZNK8CryptoPP19BlockTransformation18GetCipherDirectionEv
	mov	rcx, qword ptr [rbp - 112] 
	mov	rdx, qword ptr [rcx]
	mov	rsi, qword ptr [rbp - 120] 
	add	rsi, 8
	mov	rdi, qword ptr [rbp - 120] 
	mov	r8, qword ptr [rdi + 8]
	mov	rdi, rsi
	mov	dword ptr [rbp - 132], eax 
	mov	qword ptr [rbp - 144], rdx 
	call	qword ptr [r8 + 72]
	mov	r9d, 16
	xor	r11d, r11d
	test	al, 1
	cmovne	r9d, r11d
	movsxd	rcx, r9d
	mov	rdx, qword ptr [rbp - 144] 
	add	rdx, rcx
	mov	rdi, qword ptr [rbp - 128] 
	mov	esi, dword ptr [rbp - 132] 
	call	_ZN8CryptoPP6RawDES9RawSetKeyENS_9CipherDirEPKh
	mov	rcx, qword ptr [rbp - 120] 
	add	rcx, 176
	mov	rdx, qword ptr [rbp - 120] 
	add	rdx, 8
	mov	rdi, rdx
	mov	qword ptr [rbp - 152], rcx 
	call	_ZNK8CryptoPP19BlockTransformation18GetCipherDirectionEv
	mov	edi, eax
	call	_ZN8CryptoPP16ReverseCipherDirENS_9CipherDirE
	mov	rcx, qword ptr [rbp - 112] 
	mov	rdx, qword ptr [rcx]
	add	rdx, 8
	mov	rdi, qword ptr [rbp - 152] 
	mov	esi, eax
	call	_ZN8CryptoPP6RawDES9RawSetKeyENS_9CipherDirEPKh
	mov	rcx, qword ptr [rbp - 120] 
	add	rcx, 336
	mov	rdx, qword ptr [rbp - 120] 
	add	rdx, 8
	mov	rdi, rdx
	mov	qword ptr [rbp - 160], rcx 
	call	_ZNK8CryptoPP19BlockTransformation18GetCipherDirectionEv
	mov	rcx, qword ptr [rbp - 112] 
	mov	rdx, qword ptr [rcx]
	mov	rdi, qword ptr [rbp - 120] 
	add	rdi, 8
	mov	r8, qword ptr [rbp - 120] 
	mov	r10, qword ptr [r8 + 8]
	mov	dword ptr [rbp - 164], eax 
	mov	qword ptr [rbp - 176], rdx 
	call	qword ptr [r10 + 72]
	xor	esi, esi
	mov	r9d, 16
	test	al, 1
	cmovne	esi, r9d
	movsxd	rcx, esi
	mov	rdx, qword ptr [rbp - 176] 
	add	rdx, rcx
	mov	rdi, qword ptr [rbp - 160] 
	mov	esi, dword ptr [rbp - 164] 
	call	_ZN8CryptoPP6RawDES9RawSetKeyENS_9CipherDirEPKh
	mov	esi, 3758539626
	mov	r9d, 4248448643
	xor	r11d, r11d
	mov	ebx, dword ptr [x.51]
	mov	r14d, dword ptr [y.52]
	sub	r11d, 1
	mov	r15d, ebx
	add	r15d, r11d
	imul	ebx, r15d
	and	ebx, 1
	cmp	ebx, 0
	sete	al
	cmp	r14d, 10
	setl	r12b
	mov	r13b, al
	and	r13b, r12b
	xor	al, r12b
	or	r13b, al
	test	r13b, 1
	cmovne	esi, r9d
	mov	dword ptr [rbp - 48], esi
	jmp	.LBB23_7
.LBB23_5:
	lea	rsp, [rbp - 40]
	pop	rbx
	pop	r12
	pop	r13
	pop	r14
	pop	r15
	pop	rbp
	ret
.LBB23_6:                               
	mov	rax, rsp
	add	rax, -16
	mov	rsp, rax
	mov	rcx, rsp
	add	rcx, -16
	mov	rsp, rcx
	mov	rdx, rsp
	add	rdx, -16
	mov	rsp, rdx
	mov	rsi, rsp
	add	rsi, -16
	mov	rsp, rsi
	mov	rdi, qword ptr [rbp - 72] 
	mov	qword ptr [rax], rdi
	mov	r8, qword ptr [rbp - 64] 
	mov	qword ptr [rcx], r8
	mov	r9d, dword ptr [rbp - 52] 
	mov	dword ptr [rdx], r9d
	mov	r10, qword ptr [rbp - 80] 
	mov	qword ptr [rsi], r10
	mov	rax, qword ptr [rax]
	mov	rsi, rax
	mov	r11d, dword ptr [rdx]
	mov	edx, r11d
	mov	rdi, rsi
	mov	rsi, rdx
	mov	qword ptr [rbp - 184], rcx 
	mov	qword ptr [rbp - 192], rax 
	call	_ZNK8CryptoPP21SimpleKeyingInterface20AssertValidKeyLengthEm
	mov	rax, qword ptr [rbp - 192] 
	add	rax, 16
	mov	rcx, qword ptr [rbp - 192] 
	add	rcx, 8
	mov	rdi, rcx
	mov	qword ptr [rbp - 200], rax 
	call	_ZNK8CryptoPP19BlockTransformation18GetCipherDirectionEv
	mov	rcx, qword ptr [rbp - 184] 
	mov	rdx, qword ptr [rcx]
	mov	rsi, qword ptr [rbp - 192] 
	add	rsi, 8
	mov	rdi, qword ptr [rbp - 192] 
	mov	r8, qword ptr [rdi + 8]
	mov	rdi, rsi
	mov	dword ptr [rbp - 204], eax 
	mov	qword ptr [rbp - 216], rdx 
	call	qword ptr [r8 + 72]
	mov	r9d, 16
	xor	r11d, r11d
	test	al, 1
	cmovne	r9d, r11d
	movsxd	rcx, r9d
	mov	rdx, qword ptr [rbp - 216] 
	add	rdx, rcx
	mov	rdi, qword ptr [rbp - 200] 
	mov	esi, dword ptr [rbp - 204] 
	call	_ZN8CryptoPP6RawDES9RawSetKeyENS_9CipherDirEPKh
	mov	rcx, qword ptr [rbp - 192] 
	add	rcx, 176
	mov	rdx, qword ptr [rbp - 192] 
	add	rdx, 8
	mov	rdi, rdx
	mov	qword ptr [rbp - 224], rcx 
	call	_ZNK8CryptoPP19BlockTransformation18GetCipherDirectionEv
	mov	edi, eax
	call	_ZN8CryptoPP16ReverseCipherDirENS_9CipherDirE
	mov	rcx, qword ptr [rbp - 184] 
	mov	rdx, qword ptr [rcx]
	add	rdx, 8
	mov	rdi, qword ptr [rbp - 224] 
	mov	esi, eax
	call	_ZN8CryptoPP6RawDES9RawSetKeyENS_9CipherDirEPKh
	mov	rcx, qword ptr [rbp - 192] 
	add	rcx, 336
	mov	rdx, qword ptr [rbp - 192] 
	add	rdx, 8
	mov	rdi, rdx
	mov	qword ptr [rbp - 232], rcx 
	call	_ZNK8CryptoPP19BlockTransformation18GetCipherDirectionEv
	mov	rcx, qword ptr [rbp - 184] 
	mov	rdx, qword ptr [rcx]
	mov	rdi, qword ptr [rbp - 192] 
	add	rdi, 8
	mov	r8, qword ptr [rbp - 192] 
	mov	r10, qword ptr [r8 + 8]
	mov	dword ptr [rbp - 236], eax 
	mov	qword ptr [rbp - 248], rdx 
	call	qword ptr [r10 + 72]
	xor	esi, esi
	mov	r9d, 16
	test	al, 1
	cmovne	esi, r9d
	movsxd	rcx, esi
	mov	rdx, qword ptr [rbp - 248] 
	add	rdx, rcx
	mov	rdi, qword ptr [rbp - 232] 
	mov	esi, dword ptr [rbp - 236] 
	call	_ZN8CryptoPP6RawDES9RawSetKeyENS_9CipherDirEPKh
	mov	dword ptr [rbp - 48], 1073779793
.LBB23_7:                               
	jmp	.LBB23_1
.Lfunc_end23:
	.size	_ZN8CryptoPP8DES_EDE34Base15UncheckedSetKeyEPKhjRKNS_14NameValuePairsE, .Lfunc_end23-_ZN8CryptoPP8DES_EDE34Base15UncheckedSetKeyEPKhjRKNS_14NameValuePairsE
	.cfi_endproc

	.globl	_ZNK8CryptoPP8DES_EDE34Base18ProcessAndXorBlockEPKhS3_Ph 
	.p2align	4, 0x90
	.type	_ZNK8CryptoPP8DES_EDE34Base18ProcessAndXorBlockEPKhS3_Ph,@function
_ZNK8CryptoPP8DES_EDE34Base18ProcessAndXorBlockEPKhS3_Ph: 
	.cfi_startproc

	push	rbp
.Lcfi57:
	.cfi_def_cfa_offset 16
.Lcfi58:
	.cfi_offset rbp, -16
	mov	rbp, rsp
.Lcfi59:
	.cfi_def_cfa_register rbp
	sub	rsp, 96
	mov	qword ptr [rbp - 8], rdi
	mov	qword ptr [rbp - 16], rsi
	mov	qword ptr [rbp - 24], rdx
	mov	qword ptr [rbp - 32], rcx
	mov	rcx, qword ptr [rbp - 8]
	mov	rdi, qword ptr [rbp - 16]
	mov	qword ptr [rbp - 72], rcx 
	call	_ZN8CryptoPP14BlockGetAndPutIjNS_10EnumToTypeINS_9ByteOrderELi1EEELb0ELb0EE3GetEPKv
	lea	rdi, [rbp - 48]
	lea	rsi, [rbp - 36]
	mov	qword ptr [rbp - 48], rax
	call	_ZN8CryptoPP8GetBlockIjNS_10EnumToTypeINS_9ByteOrderELi1EEELb0EEclIjEERS4_RT_
	lea	rsi, [rbp - 40]
	mov	rdi, rax
	call	_ZN8CryptoPP8GetBlockIjNS_10EnumToTypeINS_9ByteOrderELi1EEELb0EEclIjEERS4_RT_
	lea	rdi, [rbp - 36]
	lea	rsi, [rbp - 40]
	mov	qword ptr [rbp - 80], rax 
	call	_ZN8CryptoPPL5IPERMERjS0_
	lea	rsi, [rbp - 36]
	lea	rdx, [rbp - 40]
	mov	rax, qword ptr [rbp - 72] 
	add	rax, 16
	mov	rdi, rax
	call	_ZNK8CryptoPP6RawDES15RawProcessBlockERjS1_
	lea	rsi, [rbp - 40]
	lea	rdx, [rbp - 36]
	mov	rax, qword ptr [rbp - 72] 
	add	rax, 176
	mov	rdi, rax
	call	_ZNK8CryptoPP6RawDES15RawProcessBlockERjS1_
	lea	rsi, [rbp - 36]
	lea	rdx, [rbp - 40]
	mov	rax, qword ptr [rbp - 72] 
	add	rax, 336
	mov	rdi, rax
	call	_ZNK8CryptoPP6RawDES15RawProcessBlockERjS1_
	lea	rdi, [rbp - 36]
	lea	rsi, [rbp - 40]
	call	_ZN8CryptoPPL5FPERMERjS0_
	lea	rdi, [rbp - 64]
	mov	rsi, qword ptr [rbp - 24]
	mov	rdx, qword ptr [rbp - 32]
	call	_ZN8CryptoPP8PutBlockIjNS_10EnumToTypeINS_9ByteOrderELi1EEELb0EEC2EPKvPv
	lea	rdi, [rbp - 64]
	mov	esi, dword ptr [rbp - 40]
	call	_ZN8CryptoPP8PutBlockIjNS_10EnumToTypeINS_9ByteOrderELi1EEELb0EEclIjEERS4_T_
	mov	esi, dword ptr [rbp - 36]
	mov	rdi, rax
	call	_ZN8CryptoPP8PutBlockIjNS_10EnumToTypeINS_9ByteOrderELi1EEELb0EEclIjEERS4_T_
	mov	qword ptr [rbp - 88], rax 
	add	rsp, 96
	pop	rbp
	ret
.Lfunc_end24:
	.size	_ZNK8CryptoPP8DES_EDE34Base18ProcessAndXorBlockEPKhS3_Ph, .Lfunc_end24-_ZNK8CryptoPP8DES_EDE34Base18ProcessAndXorBlockEPKhS3_Ph
	.cfi_endproc

	.globl	_ZThn8_NK8CryptoPP8DES_EDE34Base18ProcessAndXorBlockEPKhS3_Ph 
	.p2align	4, 0x90
	.type	_ZThn8_NK8CryptoPP8DES_EDE34Base18ProcessAndXorBlockEPKhS3_Ph,@function
_ZThn8_NK8CryptoPP8DES_EDE34Base18ProcessAndXorBlockEPKhS3_Ph: 
	.cfi_startproc

	push	rbp
.Lcfi60:
	.cfi_def_cfa_offset 16
.Lcfi61:
	.cfi_offset rbp, -16
	mov	rbp, rsp
.Lcfi62:
	.cfi_def_cfa_register rbp
	mov	qword ptr [rbp - 8], rdi
	mov	qword ptr [rbp - 16], rsi
	mov	qword ptr [rbp - 24], rdx
	mov	qword ptr [rbp - 32], rcx
	mov	rcx, qword ptr [rbp - 8]
	add	rcx, -8
	mov	rsi, qword ptr [rbp - 16]
	mov	rdx, qword ptr [rbp - 24]
	mov	rdi, qword ptr [rbp - 32]
	mov	qword ptr [rbp - 40], rdi 
	mov	rdi, rcx
	mov	rcx, qword ptr [rbp - 40] 
	pop	rbp
	jmp	_ZNK8CryptoPP8DES_EDE34Base18ProcessAndXorBlockEPKhS3_Ph 
.Lfunc_end25:
	.size	_ZThn8_NK8CryptoPP8DES_EDE34Base18ProcessAndXorBlockEPKhS3_Ph, .Lfunc_end25-_ZThn8_NK8CryptoPP8DES_EDE34Base18ProcessAndXorBlockEPKhS3_Ph
	.cfi_endproc

	.globl	_ZN8CryptoPP3DES18CheckKeyParityBitsEPKh 
	.p2align	4, 0x90
	.type	_ZN8CryptoPP3DES18CheckKeyParityBitsEPKh,@function
_ZN8CryptoPP3DES18CheckKeyParityBitsEPKh: 
	.cfi_startproc

	push	rbp
.Lcfi63:
	.cfi_def_cfa_offset 16
.Lcfi64:
	.cfi_offset rbp, -16
	mov	rbp, rsp
.Lcfi65:
	.cfi_def_cfa_register rbp
	push	r15
	push	r14
	push	r12
	push	rbx
	sub	rsp, 112
.Lcfi66:
	.cfi_offset rbx, -48
.Lcfi67:
	.cfi_offset r12, -40
.Lcfi68:
	.cfi_offset r14, -32
.Lcfi69:
	.cfi_offset r15, -24
	mov	eax, dword ptr [x.57]
	mov	ecx, dword ptr [y.58]
	mov	edx, eax
	sub	edx, 245175078
	sub	edx, 1
	add	edx, 245175078
	imul	eax, edx
	and	eax, 1
	cmp	eax, 0
	sete	sil
	and	sil, 1
	mov	byte ptr [rbp - 58], sil
	cmp	ecx, 10
	setl	sil
	and	sil, 1
	mov	byte ptr [rbp - 57], sil
	mov	dword ptr [rbp - 64], 1844781836
	mov	qword ptr [rbp - 72], rdi 
.LBB26_1:                               
	mov	eax, dword ptr [rbp - 64]
	mov	ecx, eax
	sub	ecx, -1959502104
	mov	dword ptr [rbp - 76], eax 
	mov	dword ptr [rbp - 80], ecx 
	je	.LBB26_13
	jmp	.LBB26_21
.LBB26_21:                              
	mov	eax, dword ptr [rbp - 76] 
	sub	eax, -1845681190
	mov	dword ptr [rbp - 84], eax 
	je	.LBB26_12
	jmp	.LBB26_22
.LBB26_22:                              
	mov	eax, dword ptr [rbp - 76] 
	sub	eax, -1595501842
	mov	dword ptr [rbp - 88], eax 
	je	.LBB26_7
	jmp	.LBB26_23
.LBB26_23:                              
	mov	eax, dword ptr [rbp - 76] 
	sub	eax, -1523672429
	mov	dword ptr [rbp - 92], eax 
	je	.LBB26_17
	jmp	.LBB26_24
.LBB26_24:                              
	mov	eax, dword ptr [rbp - 76] 
	sub	eax, -918053712
	mov	dword ptr [rbp - 96], eax 
	je	.LBB26_16
	jmp	.LBB26_25
.LBB26_25:                              
	mov	eax, dword ptr [rbp - 76] 
	sub	eax, -910249007
	mov	dword ptr [rbp - 100], eax 
	je	.LBB26_4
	jmp	.LBB26_26
.LBB26_26:                              
	mov	eax, dword ptr [rbp - 76] 
	sub	eax, -901092951
	mov	dword ptr [rbp - 104], eax 
	je	.LBB26_9
	jmp	.LBB26_27
.LBB26_27:                              
	mov	eax, dword ptr [rbp - 76] 
	sub	eax, -749730898
	mov	dword ptr [rbp - 108], eax 
	je	.LBB26_15
	jmp	.LBB26_28
.LBB26_28:                              
	mov	eax, dword ptr [rbp - 76] 
	sub	eax, -433930797
	mov	dword ptr [rbp - 112], eax 
	je	.LBB26_8
	jmp	.LBB26_29
.LBB26_29:                              
	mov	eax, dword ptr [rbp - 76] 
	sub	eax, -371602368
	mov	dword ptr [rbp - 116], eax 
	je	.LBB26_5
	jmp	.LBB26_30
.LBB26_30:                              
	mov	eax, dword ptr [rbp - 76] 
	sub	eax, 132136395
	mov	dword ptr [rbp - 120], eax 
	je	.LBB26_6
	jmp	.LBB26_31
.LBB26_31:                              
	mov	eax, dword ptr [rbp - 76] 
	sub	eax, 602655290
	mov	dword ptr [rbp - 124], eax 
	je	.LBB26_19
	jmp	.LBB26_32
.LBB26_32:                              
	mov	eax, dword ptr [rbp - 76] 
	sub	eax, 878919687
	mov	dword ptr [rbp - 128], eax 
	je	.LBB26_11
	jmp	.LBB26_33
.LBB26_33:                              
	mov	eax, dword ptr [rbp - 76] 
	sub	eax, 1499224383
	mov	dword ptr [rbp - 132], eax 
	je	.LBB26_14
	jmp	.LBB26_34
.LBB26_34:                              
	mov	eax, dword ptr [rbp - 76] 
	sub	eax, 1595675868
	mov	dword ptr [rbp - 136], eax 
	je	.LBB26_18
	jmp	.LBB26_35
.LBB26_35:                              
	mov	eax, dword ptr [rbp - 76] 
	sub	eax, 1844781836
	mov	dword ptr [rbp - 140], eax 
	je	.LBB26_3
	jmp	.LBB26_36
.LBB26_36:                              
	mov	eax, dword ptr [rbp - 76] 
	sub	eax, 2126891462
	mov	dword ptr [rbp - 144], eax 
	je	.LBB26_10
	jmp	.LBB26_2
.LBB26_2:                               
	jmp	.LBB26_20
.LBB26_3:                               
	mov	eax, 2771294867
	mov	ecx, 3384718289
	mov	dl, 1
	mov	sil, byte ptr [rbp - 58]
	mov	dil, byte ptr [rbp - 57]
	mov	r8b, sil
	xor	r8b, -1
	mov	r9b, dil
	xor	r9b, -1
	xor	dl, 1
	mov	r10b, r8b
	and	r10b, -1
	and	sil, dl
	mov	r11b, r9b
	and	r11b, -1
	and	dil, dl
	or	r10b, sil
	or	r11b, dil
	xor	r10b, r11b
	or	r8b, r9b
	xor	r8b, -1
	or	dl, 1
	and	r8b, dl
	or	r10b, r8b
	test	r10b, 1
	cmovne	eax, ecx
	mov	dword ptr [rbp - 64], eax
	jmp	.LBB26_20
.LBB26_4:                               
	mov	eax, 2771294867
	mov	ecx, 3923364928
	mov	rdx, rsp
	add	rdx, -16
	mov	rsp, rdx
	mov	qword ptr [rbp - 56], rdx
	mov	rdx, rsp
	add	rdx, -16
	mov	rsp, rdx
	mov	qword ptr [rbp - 48], rdx
	mov	rdx, rsp
	add	rdx, -16
	mov	rsp, rdx
	mov	qword ptr [rbp - 40], rdx
	mov	rdx, qword ptr [rbp - 48]
	mov	rsi, qword ptr [rbp - 72] 
	mov	qword ptr [rdx], rsi
	mov	rdx, qword ptr [rbp - 40]
	mov	dword ptr [rdx], 0
	mov	edi, dword ptr [x.57]
	mov	r8d, dword ptr [y.58]
	mov	r9d, edi
	add	r9d, 2057574228
	sub	r9d, 1
	sub	r9d, 2057574228
	imul	edi, r9d
	and	edi, 1
	cmp	edi, 0
	sete	r10b
	cmp	r8d, 10
	setl	r11b
	mov	bl, r10b
	and	bl, r11b
	xor	r10b, r11b
	or	bl, r10b
	test	bl, 1
	cmovne	eax, ecx
	mov	dword ptr [rbp - 64], eax
	jmp	.LBB26_20
.LBB26_5:                               
	mov	dword ptr [rbp - 64], 132136395
	jmp	.LBB26_20
.LBB26_6:                               
	mov	eax, 2335465192
	mov	ecx, 2699465454
	mov	rdx, qword ptr [rbp - 40]
	cmp	dword ptr [rdx], 8
	cmovb	eax, ecx
	mov	dword ptr [rbp - 64], eax
	jmp	.LBB26_20
.LBB26_7:                               
	mov	rax, qword ptr [rbp - 48]
	mov	rax, qword ptr [rax]
	mov	rcx, qword ptr [rbp - 40]
	mov	edx, dword ptr [rcx]
	mov	ecx, edx
	movzx	edi, byte ptr [rax + rcx]
	call	_ZN8CryptoPPL11CheckParityEh
	mov	edx, 3861036499
	mov	edi, 3393874345
	test	al, 1
	cmovne	edx, edi
	mov	dword ptr [rbp - 64], edx
	jmp	.LBB26_20
.LBB26_8:                               
	mov	rax, qword ptr [rbp - 56]
	mov	byte ptr [rax], 0
	mov	dword ptr [rbp - 64], -918053712
	jmp	.LBB26_20
.LBB26_9:                               
	mov	dword ptr [rbp - 64], 2126891462
	jmp	.LBB26_20
.LBB26_10:                              
	mov	eax, 1595675868
	mov	ecx, 878919687
	xor	edx, edx
	mov	esi, dword ptr [x.57]
	mov	edi, dword ptr [y.58]
	sub	edx, 1
	mov	r8d, esi
	add	r8d, edx
	imul	esi, r8d
	and	esi, 1
	cmp	esi, 0
	sete	r9b
	cmp	edi, 10
	setl	r10b
	mov	r11b, r9b
	and	r11b, r10b
	xor	r9b, r10b
	or	r11b, r9b
	test	r11b, 1
	cmovne	eax, ecx
	mov	dword ptr [rbp - 64], eax
	jmp	.LBB26_20
.LBB26_11:                              
	mov	eax, 1595675868
	mov	ecx, 2449286106
	mov	dl, 1
	xor	esi, esi
	mov	rdi, qword ptr [rbp - 40]
	mov	r8d, dword ptr [rdi]
	sub	esi, 1
	sub	r8d, esi
	mov	rdi, qword ptr [rbp - 40]
	mov	dword ptr [rdi], r8d
	mov	esi, dword ptr [x.57]
	mov	r8d, dword ptr [y.58]
	mov	r9d, esi
	add	r9d, 1423547139
	sub	r9d, 1
	sub	r9d, 1423547139
	imul	esi, r9d
	and	esi, 1
	cmp	esi, 0
	sete	r10b
	cmp	r8d, 10
	setl	r11b
	mov	bl, r10b
	xor	bl, -1
	mov	r14b, r11b
	xor	r14b, -1
	xor	dl, 0
	mov	r15b, bl
	and	r15b, 0
	and	r10b, dl
	mov	r12b, r14b
	and	r12b, 0
	and	r11b, dl
	or	r15b, r10b
	or	r12b, r11b
	xor	r15b, r12b
	or	bl, r14b
	xor	bl, -1
	or	dl, 0
	and	bl, dl
	or	r15b, bl
	test	r15b, 1
	cmovne	eax, ecx
	mov	dword ptr [rbp - 64], eax
	jmp	.LBB26_20
.LBB26_12:                              
	mov	dword ptr [rbp - 64], 132136395
	jmp	.LBB26_20
.LBB26_13:                              
	mov	eax, 602655290
	mov	ecx, 1499224383
	mov	edx, dword ptr [x.57]
	mov	esi, dword ptr [y.58]
	mov	edi, edx
	add	edi, -2089101159
	sub	edi, 1
	sub	edi, -2089101159
	imul	edx, edi
	and	edx, 1
	cmp	edx, 0
	sete	r8b
	cmp	esi, 10
	setl	r9b
	mov	r10b, r8b
	and	r10b, r9b
	xor	r8b, r9b
	or	r10b, r8b
	test	r10b, 1
	cmovne	eax, ecx
	mov	dword ptr [rbp - 64], eax
	jmp	.LBB26_20
.LBB26_14:                              
	mov	eax, 602655290
	mov	ecx, 3545236398
	mov	dl, 1
	mov	rsi, qword ptr [rbp - 56]
	mov	byte ptr [rsi], 1
	mov	edi, dword ptr [x.57]
	mov	r8d, dword ptr [y.58]
	mov	r9d, edi
	sub	r9d, -1935939207
	sub	r9d, 1
	add	r9d, -1935939207
	imul	edi, r9d
	and	edi, 1
	cmp	edi, 0
	sete	r10b
	cmp	r8d, 10
	setl	r11b
	mov	bl, r10b
	xor	bl, -1
	mov	r14b, r11b
	xor	r14b, -1
	xor	dl, 1
	mov	r15b, bl
	and	r15b, -1
	and	r10b, dl
	mov	r12b, r14b
	and	r12b, -1
	and	r11b, dl
	or	r15b, r10b
	or	r12b, r11b
	xor	r15b, r12b
	or	bl, r14b
	xor	bl, -1
	or	dl, 1
	and	bl, dl
	or	r15b, bl
	test	r15b, 1
	cmovne	eax, ecx
	mov	dword ptr [rbp - 64], eax
	jmp	.LBB26_20
.LBB26_15:                              
	mov	dword ptr [rbp - 64], -918053712
	jmp	.LBB26_20
.LBB26_16:
	mov	rax, qword ptr [rbp - 56]
	mov	cl, byte ptr [rax]
	and	cl, 1
	movzx	eax, cl
	lea	rsp, [rbp - 32]
	pop	rbx
	pop	r12
	pop	r14
	pop	r15
	pop	rbp
	ret
.LBB26_17:                              
	mov	rax, rsp
	add	rax, -16
	mov	rsp, rax
	mov	rax, rsp
	add	rax, -16
	mov	rsp, rax
	mov	rcx, rsp
	add	rcx, -16
	mov	rsp, rcx
	mov	rdx, qword ptr [rbp - 72] 
	mov	qword ptr [rax], rdx
	mov	dword ptr [rcx], 0
	mov	dword ptr [rbp - 64], -910249007
	jmp	.LBB26_20
.LBB26_18:                              
	xor	eax, eax
	mov	rcx, qword ptr [rbp - 40]
	mov	edx, dword ptr [rcx]
	sub	eax, 1
	sub	edx, eax
	mov	rcx, qword ptr [rbp - 40]
	mov	dword ptr [rcx], edx
	mov	dword ptr [rbp - 64], 878919687
	jmp	.LBB26_20
.LBB26_19:                              
	mov	rax, qword ptr [rbp - 56]
	mov	byte ptr [rax], 1
	mov	dword ptr [rbp - 64], 1499224383
.LBB26_20:                              
	jmp	.LBB26_1
.Lfunc_end26:
	.size	_ZN8CryptoPP3DES18CheckKeyParityBitsEPKh, .Lfunc_end26-_ZN8CryptoPP3DES18CheckKeyParityBitsEPKh
	.cfi_endproc

	.p2align	4, 0x90         
	.type	_ZN8CryptoPPL11CheckParityEh,@function
_ZN8CryptoPPL11CheckParityEh:           

	push	rbp
	mov	rbp, rsp
	mov	al, dil
	mov	edi, 4294967295
	mov	byte ptr [rbp - 1], al
	movzx	ecx, byte ptr [rbp - 1]
	movzx	edx, byte ptr [rbp - 1]
	sar	edx, 4
	mov	esi, ecx
	xor	esi, -1
	mov	r8d, edx
	and	r8d, esi
	xor	edx, -1
	and	ecx, edx
	or	r8d, ecx
	mov	dword ptr [rbp - 8], r8d
	mov	ecx, dword ptr [rbp - 8]
	mov	edx, dword ptr [rbp - 8]
	shr	edx, 1
	mov	esi, ecx
	xor	esi, -1
	mov	r8d, edx
	and	r8d, esi
	xor	edx, -1
	and	ecx, edx
	or	r8d, ecx
	mov	ecx, dword ptr [rbp - 8]
	shr	ecx, 2
	mov	edx, r8d
	xor	edx, -1
	and	edx, 976012617
	mov	esi, edi
	xor	esi, 976012617
	and	r8d, esi
	mov	r9d, ecx
	xor	r9d, -1
	and	r9d, 976012617
	and	ecx, esi
	or	edx, r8d
	or	r9d, ecx
	xor	edx, r9d
	mov	ecx, dword ptr [rbp - 8]
	shr	ecx, 3
	mov	esi, edx
	xor	esi, -1
	and	esi, 354847333
	mov	r8d, edi
	xor	r8d, 354847333
	and	edx, r8d
	mov	r9d, ecx
	xor	r9d, -1
	and	r9d, 354847333
	and	ecx, r8d
	or	esi, edx
	or	r9d, ecx
	xor	esi, r9d
	xor	edi, 1
	mov	ecx, esi
	xor	ecx, edi
	and	ecx, esi
	cmp	ecx, 1
	sete	al
	and	al, 1
	movzx	eax, al
	pop	rbp
	ret
.Lfunc_end27:
	.size	_ZN8CryptoPPL11CheckParityEh, .Lfunc_end27-_ZN8CryptoPPL11CheckParityEh

	.globl	_ZN8CryptoPP3DES20CorrectKeyParityBitsEPh 
	.p2align	4, 0x90
	.type	_ZN8CryptoPP3DES20CorrectKeyParityBitsEPh,@function
_ZN8CryptoPP3DES20CorrectKeyParityBitsEPh: 
	.cfi_startproc

	push	rbp
.Lcfi70:
	.cfi_def_cfa_offset 16
.Lcfi71:
	.cfi_offset rbp, -16
	mov	rbp, rsp
.Lcfi72:
	.cfi_def_cfa_register rbp
	sub	rsp, 48
	mov	qword ptr [rbp - 8], rdi
	mov	dword ptr [rbp - 12], 0
	mov	dword ptr [rbp - 16], -476123502
.LBB28_1:                               
	mov	eax, dword ptr [rbp - 16]
	mov	ecx, eax
	sub	ecx, -1467454587
	mov	dword ptr [rbp - 20], eax 
	mov	dword ptr [rbp - 24], ecx 
	je	.LBB28_4
	jmp	.LBB28_10
.LBB28_10:                              
	mov	eax, dword ptr [rbp - 20] 
	sub	eax, -476123502
	mov	dword ptr [rbp - 28], eax 
	je	.LBB28_3
	jmp	.LBB28_11
.LBB28_11:                              
	mov	eax, dword ptr [rbp - 20] 
	sub	eax, -82747873
	mov	dword ptr [rbp - 32], eax 
	je	.LBB28_6
	jmp	.LBB28_12
.LBB28_12:                              
	mov	eax, dword ptr [rbp - 20] 
	sub	eax, 178857654
	mov	dword ptr [rbp - 36], eax 
	je	.LBB28_5
	jmp	.LBB28_13
.LBB28_13:                              
	mov	eax, dword ptr [rbp - 20] 
	sub	eax, 290176285
	mov	dword ptr [rbp - 40], eax 
	je	.LBB28_7
	jmp	.LBB28_14
.LBB28_14:                              
	mov	eax, dword ptr [rbp - 20] 
	sub	eax, 1430426006
	mov	dword ptr [rbp - 44], eax 
	je	.LBB28_8
	jmp	.LBB28_2
.LBB28_2:                               
	jmp	.LBB28_9
.LBB28_3:                               
	mov	eax, 1430426006
	mov	ecx, 2827512709
	cmp	dword ptr [rbp - 12], 8
	cmovb	eax, ecx
	mov	dword ptr [rbp - 16], eax
	jmp	.LBB28_9
.LBB28_4:                               
	mov	rax, qword ptr [rbp - 8]
	mov	ecx, dword ptr [rbp - 12]
	mov	edx, ecx
	movzx	edi, byte ptr [rax + rdx]
	call	_ZN8CryptoPPL11CheckParityEh
	mov	ecx, 178857654
	mov	edi, 4212219423
	test	al, 1
	cmovne	ecx, edi
	mov	dword ptr [rbp - 16], ecx
	jmp	.LBB28_9
.LBB28_5:                               
	mov	eax, 4294967295
	mov	rcx, qword ptr [rbp - 8]
	mov	edx, dword ptr [rbp - 12]
	mov	esi, edx
	movzx	edx, byte ptr [rcx + rsi]
	mov	edi, edx
	xor	edi, -1
	and	edi, 1
	xor	eax, 1
	and	edx, eax
	or	edi, edx
	mov	r8b, dil
	mov	byte ptr [rcx + rsi], r8b
	mov	dword ptr [rbp - 16], -82747873
	jmp	.LBB28_9
.LBB28_6:                               
	mov	dword ptr [rbp - 16], 290176285
	jmp	.LBB28_9
.LBB28_7:                               
	xor	eax, eax
	mov	ecx, dword ptr [rbp - 12]
	sub	eax, 1
	sub	ecx, eax
	mov	dword ptr [rbp - 12], ecx
	mov	dword ptr [rbp - 16], -476123502
	jmp	.LBB28_9
.LBB28_8:
	add	rsp, 48
	pop	rbp
	ret
.LBB28_9:                               
	jmp	.LBB28_1
.Lfunc_end28:
	.size	_ZN8CryptoPP3DES20CorrectKeyParityBitsEPh, .Lfunc_end28-_ZN8CryptoPP3DES20CorrectKeyParityBitsEPh
	.cfi_endproc

	.globl	_ZNK8CryptoPP3DES4Base18ProcessAndXorBlockEPKhS3_Ph 
	.p2align	4, 0x90
	.type	_ZNK8CryptoPP3DES4Base18ProcessAndXorBlockEPKhS3_Ph,@function
_ZNK8CryptoPP3DES4Base18ProcessAndXorBlockEPKhS3_Ph: 
	.cfi_startproc

	push	rbp
.Lcfi73:
	.cfi_def_cfa_offset 16
.Lcfi74:
	.cfi_offset rbp, -16
	mov	rbp, rsp
.Lcfi75:
	.cfi_def_cfa_register rbp
	sub	rsp, 96
	mov	qword ptr [rbp - 8], rdi
	mov	qword ptr [rbp - 16], rsi
	mov	qword ptr [rbp - 24], rdx
	mov	qword ptr [rbp - 32], rcx
	mov	rcx, qword ptr [rbp - 8]
	mov	rdi, qword ptr [rbp - 16]
	mov	qword ptr [rbp - 72], rcx 
	call	_ZN8CryptoPP14BlockGetAndPutIjNS_10EnumToTypeINS_9ByteOrderELi1EEELb0ELb0EE3GetEPKv
	lea	rdi, [rbp - 48]
	lea	rsi, [rbp - 36]
	mov	qword ptr [rbp - 48], rax
	call	_ZN8CryptoPP8GetBlockIjNS_10EnumToTypeINS_9ByteOrderELi1EEELb0EEclIjEERS4_RT_
	lea	rsi, [rbp - 40]
	mov	rdi, rax
	call	_ZN8CryptoPP8GetBlockIjNS_10EnumToTypeINS_9ByteOrderELi1EEELb0EEclIjEERS4_RT_
	lea	rdi, [rbp - 36]
	lea	rsi, [rbp - 40]
	mov	qword ptr [rbp - 80], rax 
	call	_ZN8CryptoPPL5IPERMERjS0_
	lea	rsi, [rbp - 36]
	lea	rdx, [rbp - 40]
	mov	rax, qword ptr [rbp - 72] 
	add	rax, 16
	mov	rdi, rax
	call	_ZNK8CryptoPP6RawDES15RawProcessBlockERjS1_
	lea	rdi, [rbp - 36]
	lea	rsi, [rbp - 40]
	call	_ZN8CryptoPPL5FPERMERjS0_
	lea	rdi, [rbp - 64]
	mov	rsi, qword ptr [rbp - 24]
	mov	rdx, qword ptr [rbp - 32]
	call	_ZN8CryptoPP8PutBlockIjNS_10EnumToTypeINS_9ByteOrderELi1EEELb0EEC2EPKvPv
	lea	rdi, [rbp - 64]
	mov	esi, dword ptr [rbp - 40]
	call	_ZN8CryptoPP8PutBlockIjNS_10EnumToTypeINS_9ByteOrderELi1EEELb0EEclIjEERS4_T_
	mov	esi, dword ptr [rbp - 36]
	mov	rdi, rax
	call	_ZN8CryptoPP8PutBlockIjNS_10EnumToTypeINS_9ByteOrderELi1EEELb0EEclIjEERS4_T_
	mov	qword ptr [rbp - 88], rax 
	add	rsp, 96
	pop	rbp
	ret
.Lfunc_end29:
	.size	_ZNK8CryptoPP3DES4Base18ProcessAndXorBlockEPKhS3_Ph, .Lfunc_end29-_ZNK8CryptoPP3DES4Base18ProcessAndXorBlockEPKhS3_Ph
	.cfi_endproc

	.globl	_ZThn8_NK8CryptoPP3DES4Base18ProcessAndXorBlockEPKhS3_Ph 
	.p2align	4, 0x90
	.type	_ZThn8_NK8CryptoPP3DES4Base18ProcessAndXorBlockEPKhS3_Ph,@function
_ZThn8_NK8CryptoPP3DES4Base18ProcessAndXorBlockEPKhS3_Ph: 
	.cfi_startproc

	push	rbp
.Lcfi76:
	.cfi_def_cfa_offset 16
.Lcfi77:
	.cfi_offset rbp, -16
	mov	rbp, rsp
.Lcfi78:
	.cfi_def_cfa_register rbp
	push	r15
	push	r14
	push	r13
	push	r12
	push	rbx
	sub	rsp, 88
.Lcfi79:
	.cfi_offset rbx, -56
.Lcfi80:
	.cfi_offset r12, -48
.Lcfi81:
	.cfi_offset r13, -40
.Lcfi82:
	.cfi_offset r14, -32
.Lcfi83:
	.cfi_offset r15, -24
	mov	eax, dword ptr [x.65]
	mov	r8d, dword ptr [y.66]
	mov	r9d, eax
	add	r9d, -1273414916
	sub	r9d, 1
	sub	r9d, -1273414916
	imul	eax, r9d
	and	eax, 1
	cmp	eax, 0
	sete	r10b
	and	r10b, 1
	mov	byte ptr [rbp - 42], r10b
	cmp	r8d, 10
	setl	r10b
	and	r10b, 1
	mov	byte ptr [rbp - 41], r10b
	mov	dword ptr [rbp - 48], 618565950
	mov	qword ptr [rbp - 56], rdx 
	mov	qword ptr [rbp - 64], rsi 
	mov	qword ptr [rbp - 72], rdi 
	mov	qword ptr [rbp - 80], rcx 
.LBB30_1:                               
	mov	eax, dword ptr [rbp - 48]
	mov	ecx, eax
	sub	ecx, -1545805189
	mov	dword ptr [rbp - 84], eax 
	mov	dword ptr [rbp - 88], ecx 
	je	.LBB30_6
	jmp	.LBB30_8
.LBB30_8:                               
	mov	eax, dword ptr [rbp - 84] 
	sub	eax, -903977512
	mov	dword ptr [rbp - 92], eax 
	je	.LBB30_4
	jmp	.LBB30_9
.LBB30_9:                               
	mov	eax, dword ptr [rbp - 84] 
	sub	eax, -860745144
	mov	dword ptr [rbp - 96], eax 
	je	.LBB30_5
	jmp	.LBB30_10
.LBB30_10:                              
	mov	eax, dword ptr [rbp - 84] 
	sub	eax, 618565950
	mov	dword ptr [rbp - 100], eax 
	je	.LBB30_3
	jmp	.LBB30_2
.LBB30_2:                               
	jmp	.LBB30_7
.LBB30_3:                               
	mov	eax, 2749162107
	mov	ecx, 3390989784
	mov	dl, byte ptr [rbp - 42]
	mov	sil, byte ptr [rbp - 41]
	mov	dil, dl
	and	dil, sil
	xor	dl, sil
	or	dil, dl
	test	dil, 1
	cmovne	eax, ecx
	mov	dword ptr [rbp - 48], eax
	jmp	.LBB30_7
.LBB30_4:                               
	mov	rax, rsp
	add	rax, -16
	mov	rsp, rax
	mov	rcx, rsp
	add	rcx, -16
	mov	rsp, rcx
	mov	rdx, rsp
	add	rdx, -16
	mov	rsp, rdx
	mov	rsi, rsp
	add	rsi, -16
	mov	rsp, rsi
	mov	rdi, qword ptr [rbp - 72] 
	mov	qword ptr [rax], rdi
	mov	r8, qword ptr [rbp - 64] 
	mov	qword ptr [rcx], r8
	mov	r9, qword ptr [rbp - 56] 
	mov	qword ptr [rdx], r9
	mov	r10, qword ptr [rbp - 80] 
	mov	qword ptr [rsi], r10
	mov	rax, qword ptr [rax]
	add	rax, -8
	mov	rcx, qword ptr [rcx]
	mov	rdx, qword ptr [rdx]
	mov	rsi, qword ptr [rsi]
	mov	rdi, rax
	mov	qword ptr [rbp - 112], rsi 
	mov	rsi, rcx
	mov	rcx, qword ptr [rbp - 112] 
	call	_ZNK8CryptoPP3DES4Base18ProcessAndXorBlockEPKhS3_Ph
	mov	r11d, 2749162107
	mov	ebx, 3434222152
	mov	r14b, 1
	xor	r15d, r15d
	mov	r12d, dword ptr [x.65]
	mov	r13d, dword ptr [y.66]
	sub	r15d, 1
	mov	esi, r12d
	add	esi, r15d
	imul	r12d, esi
	and	r12d, 1
	cmp	r12d, 0
	sete	al
	cmp	r13d, 10
	setl	cl
	mov	dl, al
	xor	dl, -1
	mov	sil, cl
	xor	sil, -1
	xor	r14b, 0
	mov	dil, dl
	and	dil, 0
	and	al, r14b
	mov	r8b, sil
	and	r8b, 0
	and	cl, r14b
	or	dil, al
	or	r8b, cl
	xor	dil, r8b
	or	dl, sil
	xor	dl, -1
	or	r14b, 0
	and	dl, r14b
	or	dil, dl
	test	dil, 1
	cmovne	r11d, ebx
	mov	dword ptr [rbp - 48], r11d
	jmp	.LBB30_7
.LBB30_5:
	lea	rsp, [rbp - 40]
	pop	rbx
	pop	r12
	pop	r13
	pop	r14
	pop	r15
	pop	rbp
	ret
.LBB30_6:                               
	mov	rax, rsp
	add	rax, -16
	mov	rsp, rax
	mov	rcx, rsp
	add	rcx, -16
	mov	rsp, rcx
	mov	rdx, rsp
	add	rdx, -16
	mov	rsp, rdx
	mov	rsi, rsp
	add	rsi, -16
	mov	rsp, rsi
	mov	rdi, qword ptr [rbp - 72] 
	mov	qword ptr [rax], rdi
	mov	r8, qword ptr [rbp - 64] 
	mov	qword ptr [rcx], r8
	mov	r9, qword ptr [rbp - 56] 
	mov	qword ptr [rdx], r9
	mov	r10, qword ptr [rbp - 80] 
	mov	qword ptr [rsi], r10
	mov	rax, qword ptr [rax]
	add	rax, -8
	mov	rcx, qword ptr [rcx]
	mov	rdx, qword ptr [rdx]
	mov	rsi, qword ptr [rsi]
	mov	rdi, rax
	mov	qword ptr [rbp - 120], rsi 
	mov	rsi, rcx
	mov	rcx, qword ptr [rbp - 120] 
	call	_ZNK8CryptoPP3DES4Base18ProcessAndXorBlockEPKhS3_Ph
	mov	dword ptr [rbp - 48], -903977512
.LBB30_7:                               
	jmp	.LBB30_1
.Lfunc_end30:
	.size	_ZThn8_NK8CryptoPP3DES4Base18ProcessAndXorBlockEPKhS3_Ph, .Lfunc_end30-_ZThn8_NK8CryptoPP3DES4Base18ProcessAndXorBlockEPKhS3_Ph
	.cfi_endproc

	.globl	_ZN8CryptoPP8DES_XEX34Base15UncheckedSetKeyEPKhjRKNS_14NameValuePairsE 
	.p2align	4, 0x90
	.type	_ZN8CryptoPP8DES_XEX34Base15UncheckedSetKeyEPKhjRKNS_14NameValuePairsE,@function
_ZN8CryptoPP8DES_XEX34Base15UncheckedSetKeyEPKhjRKNS_14NameValuePairsE: 
.Lfunc_begin1:
	.cfi_startproc
	.cfi_personality 3, __gxx_personality_v0
	.cfi_lsda 3, .Lexception1

	push	rbp
.Lcfi84:
	.cfi_def_cfa_offset 16
.Lcfi85:
	.cfi_offset rbp, -16
	mov	rbp, rsp
.Lcfi86:
	.cfi_def_cfa_register rbp
	sub	rsp, 128
	mov	qword ptr [rbp - 8], rdi
	mov	qword ptr [rbp - 16], rsi
	mov	dword ptr [rbp - 20], edx
	mov	qword ptr [rbp - 32], rcx
	mov	rcx, qword ptr [rbp - 8]
	mov	rsi, rcx
	mov	edx, dword ptr [rbp - 20]
	mov	edi, edx
	mov	qword ptr [rbp - 56], rdi 
	mov	rdi, rsi
	mov	rsi, qword ptr [rbp - 56] 
	mov	qword ptr [rbp - 64], rcx 
	call	_ZNK8CryptoPP21SimpleKeyingInterface20AssertValidKeyLengthEm
	mov	rcx, qword ptr [rbp - 64] 
	add	rcx, 96
	mov	rdi, rcx
	call	_ZN8CryptoPP10member_ptrINS_16BlockCipherFinalILNS_9CipherDirE0ENS_3DES4BaseEEEE3getEv
	cmp	rax, 0
	jne	.LBB31_4

	mov	rax, qword ptr [rbp - 64] 
	add	rax, 96
	mov	ecx, 176
	mov	edi, ecx
	mov	qword ptr [rbp - 72], rax 
	call	_Znwm
	mov	rdi, rax
	mov	rdx, rax
.Ltmp22:
	mov	qword ptr [rbp - 80], rdi 
	mov	rdi, rax
	mov	qword ptr [rbp - 88], rdx 
	call	_ZN8CryptoPP16BlockCipherFinalILNS_9CipherDirE0ENS_3DES4BaseEEC2Ev
.Ltmp23:
	jmp	.LBB31_2
.LBB31_2:
	mov	rdi, qword ptr [rbp - 72] 
	mov	rsi, qword ptr [rbp - 88] 
	call	_ZN8CryptoPP10member_ptrINS_16BlockCipherFinalILNS_9CipherDirE0ENS_3DES4BaseEEEE5resetEPS5_
	jmp	.LBB31_4
.LBB31_3:
.Ltmp24:
	mov	ecx, edx
	mov	qword ptr [rbp - 40], rax
	mov	dword ptr [rbp - 44], ecx
	mov	rdi, qword ptr [rbp - 80] 
	call	_ZdlPv
	jmp	.LBB31_5
.LBB31_4:
	mov	rax, qword ptr [rbp - 64] 
	add	rax, 16
	mov	rdi, rax
	call	_ZN8CryptoPP8SecBlockIhNS_29FixedSizeAllocatorWithCleanupIhLm8ENS_13NullAllocatorIhEELb0EEEEcvPvEv
	mov	rdi, qword ptr [rbp - 16]
	mov	rcx, qword ptr [rbp - 64] 
	add	rcx, 8
	mov	rdx, qword ptr [rbp - 64] 
	mov	rsi, qword ptr [rdx + 8]
	mov	qword ptr [rbp - 96], rdi 
	mov	rdi, rcx
	mov	qword ptr [rbp - 104], rax 
	call	qword ptr [rsi + 72]
	mov	r8d, 16
	xor	r9d, r9d
	test	al, 1
	cmovne	r8d, r9d
	movsxd	rcx, r8d
	mov	rdx, qword ptr [rbp - 96] 
	mov	rcx, qword ptr [rdx + rcx]
	mov	rsi, qword ptr [rbp - 104] 
	mov	qword ptr [rsi], rcx
	mov	rcx, qword ptr [rbp - 64] 
	add	rcx, 96
	mov	rdi, rcx
	call	_ZN8CryptoPP10member_ptrINS_16BlockCipherFinalILNS_9CipherDirE0ENS_3DES4BaseEEEEptEv
	add	rax, 16
	mov	rcx, qword ptr [rbp - 64] 
	add	rcx, 8
	mov	rdi, rcx
	mov	qword ptr [rbp - 112], rax 
	call	_ZNK8CryptoPP19BlockTransformation18GetCipherDirectionEv
	mov	rcx, qword ptr [rbp - 16]
	add	rcx, 8
	mov	rdi, qword ptr [rbp - 112] 
	mov	esi, eax
	mov	rdx, rcx
	call	_ZN8CryptoPP6RawDES9RawSetKeyENS_9CipherDirEPKh
	mov	rcx, qword ptr [rbp - 64] 
	add	rcx, 56
	mov	rdi, rcx
	call	_ZN8CryptoPP8SecBlockIhNS_29FixedSizeAllocatorWithCleanupIhLm8ENS_13NullAllocatorIhEELb0EEEEcvPvEv
	mov	rcx, qword ptr [rbp - 16]
	mov	rdx, qword ptr [rbp - 64] 
	add	rdx, 8
	mov	rdi, qword ptr [rbp - 64] 
	mov	r10, qword ptr [rdi + 8]
	mov	rdi, rdx
	mov	qword ptr [rbp - 120], rax 
	mov	qword ptr [rbp - 128], rcx 
	call	qword ptr [r10 + 72]
	xor	esi, esi
	mov	r8d, 16
	test	al, 1
	cmovne	esi, r8d
	movsxd	rcx, esi
	mov	rdx, qword ptr [rbp - 128] 
	mov	rcx, qword ptr [rdx + rcx]
	mov	rdi, qword ptr [rbp - 120] 
	mov	qword ptr [rdi], rcx
	add	rsp, 128
	pop	rbp
	ret
.LBB31_5:
	mov	rdi, qword ptr [rbp - 40]
	call	_Unwind_Resume
.Lfunc_end31:
	.size	_ZN8CryptoPP8DES_XEX34Base15UncheckedSetKeyEPKhjRKNS_14NameValuePairsE, .Lfunc_end31-_ZN8CryptoPP8DES_XEX34Base15UncheckedSetKeyEPKhjRKNS_14NameValuePairsE
	.cfi_endproc
	.section	.gcc_except_table,"a",@progbits
	.p2align	2
GCC_except_table31:
.Lexception1:
	.byte	255                     
	.byte	3                       
	.byte	41                      
	.byte	3                       
	.byte	39                      
	.long	.Lfunc_begin1-.Lfunc_begin1 
	.long	.Ltmp22-.Lfunc_begin1   
	.long	0                       
	.byte	0                       
	.long	.Ltmp22-.Lfunc_begin1   
	.long	.Ltmp23-.Ltmp22         
	.long	.Ltmp24-.Lfunc_begin1   
	.byte	0                       
	.long	.Ltmp23-.Lfunc_begin1   
	.long	.Lfunc_end31-.Ltmp23    
	.long	0                       
	.byte	0                       
	.p2align	2

	.section	.text._ZN8CryptoPP10member_ptrINS_16BlockCipherFinalILNS_9CipherDirE0ENS_3DES4BaseEEEE3getEv,"axG",@progbits,_ZN8CryptoPP10member_ptrINS_16BlockCipherFinalILNS_9CipherDirE0ENS_3DES4BaseEEEE3getEv,comdat
	.weak	_ZN8CryptoPP10member_ptrINS_16BlockCipherFinalILNS_9CipherDirE0ENS_3DES4BaseEEEE3getEv 
	.p2align	4, 0x90
	.type	_ZN8CryptoPP10member_ptrINS_16BlockCipherFinalILNS_9CipherDirE0ENS_3DES4BaseEEEE3getEv,@function
_ZN8CryptoPP10member_ptrINS_16BlockCipherFinalILNS_9CipherDirE0ENS_3DES4BaseEEEE3getEv: 

	push	rbp
	mov	rbp, rsp
	push	r15
	push	r14
	push	r13
	push	r12
	push	rbx
	sub	rsp, 56
	mov	eax, dword ptr [x.67]
	mov	ecx, dword ptr [y.68]
	mov	edx, eax
	add	edx, -1866099847
	sub	edx, 1
	sub	edx, -1866099847
	imul	eax, edx
	and	eax, 1
	cmp	eax, 0
	sete	sil
	and	sil, 1
	mov	byte ptr [rbp - 50], sil
	cmp	ecx, 10
	setl	sil
	and	sil, 1
	mov	byte ptr [rbp - 49], sil
	mov	dword ptr [rbp - 56], 1206200312
	mov	qword ptr [rbp - 64], rdi 
.LBB32_1:                               
	mov	eax, dword ptr [rbp - 56]
	mov	ecx, eax
	sub	ecx, -1672981734
	mov	dword ptr [rbp - 68], eax 
	mov	dword ptr [rbp - 72], ecx 
	je	.LBB32_4
	jmp	.LBB32_8
.LBB32_8:                               
	mov	eax, dword ptr [rbp - 68] 
	sub	eax, -1456307802
	mov	dword ptr [rbp - 76], eax 
	je	.LBB32_5
	jmp	.LBB32_9
.LBB32_9:                               
	mov	eax, dword ptr [rbp - 68] 
	sub	eax, 1206200312
	mov	dword ptr [rbp - 80], eax 
	je	.LBB32_3
	jmp	.LBB32_10
.LBB32_10:                              
	mov	eax, dword ptr [rbp - 68] 
	sub	eax, 1475920683
	mov	dword ptr [rbp - 84], eax 
	je	.LBB32_6
	jmp	.LBB32_2
.LBB32_2:                               
	jmp	.LBB32_7
.LBB32_3:                               
	mov	eax, 1475920683
	mov	ecx, 2621985562
	mov	dl, 1
	mov	sil, byte ptr [rbp - 50]
	mov	dil, byte ptr [rbp - 49]
	mov	r8b, sil
	xor	r8b, -1
	mov	r9b, dil
	xor	r9b, -1
	xor	dl, 0
	mov	r10b, r8b
	and	r10b, 0
	and	sil, dl
	mov	r11b, r9b
	and	r11b, 0
	and	dil, dl
	or	r10b, sil
	or	r11b, dil
	xor	r10b, r11b
	or	r8b, r9b
	xor	r8b, -1
	or	dl, 0
	and	r8b, dl
	or	r10b, r8b
	test	r10b, 1
	cmovne	eax, ecx
	mov	dword ptr [rbp - 56], eax
	jmp	.LBB32_7
.LBB32_4:                               
	mov	eax, 1475920683
	mov	ecx, 2838659494
	mov	dl, 1
	mov	rsi, rsp
	add	rsi, -16
	mov	rsp, rsi
	mov	rdi, qword ptr [rbp - 64] 
	mov	qword ptr [rsi], rdi
	mov	rsi, qword ptr [rsi]
	mov	rsi, qword ptr [rsi]
	mov	qword ptr [rbp - 48], rsi
	mov	r8d, dword ptr [x.67]
	mov	r9d, dword ptr [y.68]
	mov	r10d, r8d
	add	r10d, 1015202927
	sub	r10d, 1
	sub	r10d, 1015202927
	imul	r8d, r10d
	and	r8d, 1
	cmp	r8d, 0
	sete	r11b
	cmp	r9d, 10
	setl	bl
	mov	r14b, r11b
	xor	r14b, -1
	mov	r15b, bl
	xor	r15b, -1
	xor	dl, 0
	mov	r12b, r14b
	and	r12b, 0
	and	r11b, dl
	mov	r13b, r15b
	and	r13b, 0
	and	bl, dl
	or	r12b, r11b
	or	r13b, bl
	xor	r12b, r13b
	or	r14b, r15b
	xor	r14b, -1
	or	dl, 0
	and	r14b, dl
	or	r12b, r14b
	test	r12b, 1
	cmovne	eax, ecx
	mov	dword ptr [rbp - 56], eax
	jmp	.LBB32_7
.LBB32_5:
	mov	rax, qword ptr [rbp - 48]
	lea	rsp, [rbp - 40]
	pop	rbx
	pop	r12
	pop	r13
	pop	r14
	pop	r15
	pop	rbp
	ret
.LBB32_6:                               
	mov	rax, rsp
	add	rax, -16
	mov	rsp, rax
	mov	rcx, qword ptr [rbp - 64] 
	mov	qword ptr [rax], rcx
	mov	dword ptr [rbp - 56], -1672981734
.LBB32_7:                               
	jmp	.LBB32_1
.Lfunc_end32:
	.size	_ZN8CryptoPP10member_ptrINS_16BlockCipherFinalILNS_9CipherDirE0ENS_3DES4BaseEEEE3getEv, .Lfunc_end32-_ZN8CryptoPP10member_ptrINS_16BlockCipherFinalILNS_9CipherDirE0ENS_3DES4BaseEEEE3getEv

	.section	.text._ZN8CryptoPP10member_ptrINS_16BlockCipherFinalILNS_9CipherDirE0ENS_3DES4BaseEEEE5resetEPS5_,"axG",@progbits,_ZN8CryptoPP10member_ptrINS_16BlockCipherFinalILNS_9CipherDirE0ENS_3DES4BaseEEEE5resetEPS5_,comdat
	.weak	_ZN8CryptoPP10member_ptrINS_16BlockCipherFinalILNS_9CipherDirE0ENS_3DES4BaseEEEE5resetEPS5_ 
	.p2align	4, 0x90
	.type	_ZN8CryptoPP10member_ptrINS_16BlockCipherFinalILNS_9CipherDirE0ENS_3DES4BaseEEEE5resetEPS5_,@function
_ZN8CryptoPP10member_ptrINS_16BlockCipherFinalILNS_9CipherDirE0ENS_3DES4BaseEEEE5resetEPS5_: 
	.cfi_startproc

	push	rbp
.Lcfi87:
	.cfi_def_cfa_offset 16
.Lcfi88:
	.cfi_offset rbp, -16
	mov	rbp, rsp
.Lcfi89:
	.cfi_def_cfa_register rbp
	sub	rsp, 64
	mov	qword ptr [rbp - 24], rdi
	mov	qword ptr [rbp - 32], rsi
	mov	rsi, qword ptr [rbp - 24]
	mov	qword ptr [rbp - 16], rsi
	mov	rsi, qword ptr [rbp - 16]
	mov	rsi, qword ptr [rsi]
	mov	qword ptr [rbp - 8], rsi
	mov	dword ptr [rbp - 36], -1614279567
.LBB33_1:                               
	mov	eax, dword ptr [rbp - 36]
	mov	ecx, eax
	sub	ecx, -1614279567
	mov	dword ptr [rbp - 40], eax 
	mov	dword ptr [rbp - 44], ecx 
	je	.LBB33_3
	jmp	.LBB33_7
.LBB33_7:                               
	mov	eax, dword ptr [rbp - 40] 
	sub	eax, -435131559
	mov	dword ptr [rbp - 48], eax 
	je	.LBB33_5
	jmp	.LBB33_8
.LBB33_8:                               
	mov	eax, dword ptr [rbp - 40] 
	sub	eax, -10620586
	mov	dword ptr [rbp - 52], eax 
	je	.LBB33_4
	jmp	.LBB33_2
.LBB33_2:                               
	jmp	.LBB33_6
.LBB33_3:                               
	mov	eax, 4284346710
	mov	ecx, 3859835737
	mov	rdx, qword ptr [rbp - 8]
	cmp	rdx, 0
	cmove	eax, ecx
	mov	dword ptr [rbp - 36], eax
	jmp	.LBB33_6
.LBB33_4:                               
	mov	rax, qword ptr [rbp - 8]
	mov	rax, qword ptr [rax]
	mov	rax, qword ptr [rax + 8]
	mov	rdi, qword ptr [rbp - 8]
	call	rax
	mov	dword ptr [rbp - 36], -435131559
	jmp	.LBB33_6
.LBB33_5:
	mov	rax, qword ptr [rbp - 32]
	mov	rcx, qword ptr [rbp - 16]
	mov	qword ptr [rcx], rax
	add	rsp, 64
	pop	rbp
	ret
.LBB33_6:                               
	jmp	.LBB33_1
.Lfunc_end33:
	.size	_ZN8CryptoPP10member_ptrINS_16BlockCipherFinalILNS_9CipherDirE0ENS_3DES4BaseEEEE5resetEPS5_, .Lfunc_end33-_ZN8CryptoPP10member_ptrINS_16BlockCipherFinalILNS_9CipherDirE0ENS_3DES4BaseEEEE5resetEPS5_
	.cfi_endproc

	.section	.text._ZN8CryptoPP16BlockCipherFinalILNS_9CipherDirE0ENS_3DES4BaseEEC2Ev,"axG",@progbits,_ZN8CryptoPP16BlockCipherFinalILNS_9CipherDirE0ENS_3DES4BaseEEC2Ev,comdat
	.weak	_ZN8CryptoPP16BlockCipherFinalILNS_9CipherDirE0ENS_3DES4BaseEEC2Ev 
	.p2align	4, 0x90
	.type	_ZN8CryptoPP16BlockCipherFinalILNS_9CipherDirE0ENS_3DES4BaseEEC2Ev,@function
_ZN8CryptoPP16BlockCipherFinalILNS_9CipherDirE0ENS_3DES4BaseEEC2Ev: 
	.cfi_startproc

	push	rbp
.Lcfi90:
	.cfi_def_cfa_offset 16
.Lcfi91:
	.cfi_offset rbp, -16
	mov	rbp, rsp
.Lcfi92:
	.cfi_def_cfa_register rbp
	sub	rsp, 16
	mov	qword ptr [rbp - 8], rdi
	mov	rdi, qword ptr [rbp - 8]
	mov	rax, rdi
	mov	qword ptr [rbp - 16], rdi 
	mov	rdi, rax
	call	_ZN8CryptoPP12ClonableImplINS_16BlockCipherFinalILNS_9CipherDirE0ENS_3DES4BaseEEES4_EC2Ev
	movabs	rax, _ZTVN8CryptoPP16BlockCipherFinalILNS_9CipherDirE0ENS_3DES4BaseEEE
	mov	rdi, rax
	add	rdi, 200
	add	rax, 16
	mov	rcx, qword ptr [rbp - 16] 
	mov	qword ptr [rcx], rax
	mov	qword ptr [rcx + 8], rdi
	add	rsp, 16
	pop	rbp
	ret
.Lfunc_end34:
	.size	_ZN8CryptoPP16BlockCipherFinalILNS_9CipherDirE0ENS_3DES4BaseEEC2Ev, .Lfunc_end34-_ZN8CryptoPP16BlockCipherFinalILNS_9CipherDirE0ENS_3DES4BaseEEC2Ev
	.cfi_endproc

	.section	.text._ZN8CryptoPP8SecBlockIhNS_29FixedSizeAllocatorWithCleanupIhLm8ENS_13NullAllocatorIhEELb0EEEEcvPvEv,"axG",@progbits,_ZN8CryptoPP8SecBlockIhNS_29FixedSizeAllocatorWithCleanupIhLm8ENS_13NullAllocatorIhEELb0EEEEcvPvEv,comdat
	.weak	_ZN8CryptoPP8SecBlockIhNS_29FixedSizeAllocatorWithCleanupIhLm8ENS_13NullAllocatorIhEELb0EEEEcvPvEv 
	.p2align	4, 0x90
	.type	_ZN8CryptoPP8SecBlockIhNS_29FixedSizeAllocatorWithCleanupIhLm8ENS_13NullAllocatorIhEELb0EEEEcvPvEv,@function
_ZN8CryptoPP8SecBlockIhNS_29FixedSizeAllocatorWithCleanupIhLm8ENS_13NullAllocatorIhEELb0EEEEcvPvEv: 

	push	rbp
	mov	rbp, rsp
	push	r14
	push	rbx
	sub	rsp, 48
	mov	eax, dword ptr [x.73]
	mov	ecx, dword ptr [y.74]
	mov	edx, eax
	sub	edx, 864001144
	sub	edx, 1
	add	edx, 864001144
	imul	eax, edx
	and	eax, 1
	cmp	eax, 0
	sete	sil
	and	sil, 1
	mov	byte ptr [rbp - 26], sil
	cmp	ecx, 10
	setl	sil
	and	sil, 1
	mov	byte ptr [rbp - 25], sil
	mov	dword ptr [rbp - 32], 1924919385
	mov	qword ptr [rbp - 40], rdi 
.LBB35_1:                               
	mov	eax, dword ptr [rbp - 32]
	mov	ecx, eax
	sub	ecx, -884330879
	mov	dword ptr [rbp - 44], eax 
	mov	dword ptr [rbp - 48], ecx 
	je	.LBB35_4
	jmp	.LBB35_8
.LBB35_8:                               
	mov	eax, dword ptr [rbp - 44] 
	sub	eax, -547926215
	mov	dword ptr [rbp - 52], eax 
	je	.LBB35_5
	jmp	.LBB35_9
.LBB35_9:                               
	mov	eax, dword ptr [rbp - 44] 
	sub	eax, 1628568611
	mov	dword ptr [rbp - 56], eax 
	je	.LBB35_6
	jmp	.LBB35_10
.LBB35_10:                              
	mov	eax, dword ptr [rbp - 44] 
	sub	eax, 1924919385
	mov	dword ptr [rbp - 60], eax 
	je	.LBB35_3
	jmp	.LBB35_2
.LBB35_2:                               
	jmp	.LBB35_7
.LBB35_3:                               
	mov	eax, 1628568611
	mov	ecx, 3410636417
	mov	dl, 1
	mov	sil, byte ptr [rbp - 26]
	mov	dil, byte ptr [rbp - 25]
	mov	r8b, sil
	xor	r8b, -1
	mov	r9b, dil
	xor	r9b, -1
	xor	dl, 1
	mov	r10b, r8b
	and	r10b, -1
	and	sil, dl
	mov	r11b, r9b
	and	r11b, -1
	and	dil, dl
	or	r10b, sil
	or	r11b, dil
	xor	r10b, r11b
	or	r8b, r9b
	xor	r8b, -1
	or	dl, 1
	and	r8b, dl
	or	r10b, r8b
	test	r10b, 1
	cmovne	eax, ecx
	mov	dword ptr [rbp - 32], eax
	jmp	.LBB35_7
.LBB35_4:                               
	mov	eax, 1628568611
	mov	ecx, 3747041081
	xor	edx, edx
	mov	rsi, rsp
	add	rsi, -16
	mov	rsp, rsi
	mov	rdi, qword ptr [rbp - 40] 
	mov	qword ptr [rsi], rdi
	mov	rsi, qword ptr [rsi]
	mov	rsi, qword ptr [rsi + 32]
	mov	qword ptr [rbp - 24], rsi
	mov	r8d, dword ptr [x.73]
	mov	r9d, dword ptr [y.74]
	sub	edx, 1
	mov	r10d, r8d
	add	r10d, edx
	imul	r8d, r10d
	and	r8d, 1
	cmp	r8d, 0
	sete	r11b
	cmp	r9d, 10
	setl	bl
	mov	r14b, r11b
	and	r14b, bl
	xor	r11b, bl
	or	r14b, r11b
	test	r14b, 1
	cmovne	eax, ecx
	mov	dword ptr [rbp - 32], eax
	jmp	.LBB35_7
.LBB35_5:
	mov	rax, qword ptr [rbp - 24]
	lea	rsp, [rbp - 16]
	pop	rbx
	pop	r14
	pop	rbp
	ret
.LBB35_6:                               
	mov	rax, rsp
	add	rax, -16
	mov	rsp, rax
	mov	rcx, qword ptr [rbp - 40] 
	mov	qword ptr [rax], rcx
	mov	dword ptr [rbp - 32], -884330879
.LBB35_7:                               
	jmp	.LBB35_1
.Lfunc_end35:
	.size	_ZN8CryptoPP8SecBlockIhNS_29FixedSizeAllocatorWithCleanupIhLm8ENS_13NullAllocatorIhEELb0EEEEcvPvEv, .Lfunc_end35-_ZN8CryptoPP8SecBlockIhNS_29FixedSizeAllocatorWithCleanupIhLm8ENS_13NullAllocatorIhEELb0EEEEcvPvEv

	.section	.text._ZN8CryptoPP10member_ptrINS_16BlockCipherFinalILNS_9CipherDirE0ENS_3DES4BaseEEEEptEv,"axG",@progbits,_ZN8CryptoPP10member_ptrINS_16BlockCipherFinalILNS_9CipherDirE0ENS_3DES4BaseEEEEptEv,comdat
	.weak	_ZN8CryptoPP10member_ptrINS_16BlockCipherFinalILNS_9CipherDirE0ENS_3DES4BaseEEEEptEv 
	.p2align	4, 0x90
	.type	_ZN8CryptoPP10member_ptrINS_16BlockCipherFinalILNS_9CipherDirE0ENS_3DES4BaseEEEEptEv,@function
_ZN8CryptoPP10member_ptrINS_16BlockCipherFinalILNS_9CipherDirE0ENS_3DES4BaseEEEEptEv: 

	push	rbp
	mov	rbp, rsp
	mov	qword ptr [rbp - 8], rdi
	mov	rdi, qword ptr [rbp - 8]
	mov	rax, qword ptr [rdi]
	pop	rbp
	ret
.Lfunc_end36:
	.size	_ZN8CryptoPP10member_ptrINS_16BlockCipherFinalILNS_9CipherDirE0ENS_3DES4BaseEEEEptEv, .Lfunc_end36-_ZN8CryptoPP10member_ptrINS_16BlockCipherFinalILNS_9CipherDirE0ENS_3DES4BaseEEEEptEv

	.text
	.globl	_ZNK8CryptoPP8DES_XEX34Base18ProcessAndXorBlockEPKhS3_Ph 
	.p2align	4, 0x90
	.type	_ZNK8CryptoPP8DES_XEX34Base18ProcessAndXorBlockEPKhS3_Ph,@function
_ZNK8CryptoPP8DES_XEX34Base18ProcessAndXorBlockEPKhS3_Ph: 
	.cfi_startproc

	push	rbp
.Lcfi93:
	.cfi_def_cfa_offset 16
.Lcfi94:
	.cfi_offset rbp, -16
	mov	rbp, rsp
.Lcfi95:
	.cfi_def_cfa_register rbp
	sub	rsp, 80
	mov	qword ptr [rbp - 8], rdi
	mov	qword ptr [rbp - 16], rsi
	mov	qword ptr [rbp - 24], rdx
	mov	qword ptr [rbp - 32], rcx
	mov	rcx, qword ptr [rbp - 8]
	mov	rdi, qword ptr [rbp - 32]
	mov	rsi, qword ptr [rbp - 16]
	mov	rdx, rcx
	add	rdx, 16
	mov	qword ptr [rbp - 40], rdi 
	mov	rdi, rdx
	mov	qword ptr [rbp - 48], rcx 
	mov	qword ptr [rbp - 56], rsi 
	call	_ZNK8CryptoPP8SecBlockIhNS_29FixedSizeAllocatorWithCleanupIhLm8ENS_13NullAllocatorIhEELb0EEEEcvPKhEv
	mov	r8d, 8
	mov	ecx, r8d
	mov	rdi, qword ptr [rbp - 40] 
	mov	rsi, qword ptr [rbp - 56] 
	mov	rdx, rax
	call	_ZN8CryptoPP6xorbufEPhPKhS2_m
	mov	rax, qword ptr [rbp - 48] 
	add	rax, 96
	mov	rdi, rax
	call	_ZNK8CryptoPP10member_ptrINS_16BlockCipherFinalILNS_9CipherDirE0ENS_3DES4BaseEEEEptEv
	mov	rcx, rax
	mov	rax, qword ptr [rax]
	mov	rax, qword ptr [rax + 144]
	mov	rsi, qword ptr [rbp - 32]
	mov	rdx, qword ptr [rbp - 24]
	mov	rdi, qword ptr [rbp - 32]
	mov	qword ptr [rbp - 64], rdi 
	mov	rdi, rcx
	mov	rcx, qword ptr [rbp - 64] 
	call	rax
	mov	rdi, qword ptr [rbp - 32]
	mov	rax, qword ptr [rbp - 48] 
	add	rax, 56
	mov	qword ptr [rbp - 72], rdi 
	mov	rdi, rax
	call	_ZNK8CryptoPP8SecBlockIhNS_29FixedSizeAllocatorWithCleanupIhLm8ENS_13NullAllocatorIhEELb0EEEEcvPKhEv
	mov	r8d, 8
	mov	edx, r8d
	mov	rdi, qword ptr [rbp - 72] 
	mov	rsi, rax
	call	_ZN8CryptoPP6xorbufEPhPKhm
	add	rsp, 80
	pop	rbp
	ret
.Lfunc_end37:
	.size	_ZNK8CryptoPP8DES_XEX34Base18ProcessAndXorBlockEPKhS3_Ph, .Lfunc_end37-_ZNK8CryptoPP8DES_XEX34Base18ProcessAndXorBlockEPKhS3_Ph
	.cfi_endproc

	.section	.text._ZNK8CryptoPP8SecBlockIhNS_29FixedSizeAllocatorWithCleanupIhLm8ENS_13NullAllocatorIhEELb0EEEEcvPKhEv,"axG",@progbits,_ZNK8CryptoPP8SecBlockIhNS_29FixedSizeAllocatorWithCleanupIhLm8ENS_13NullAllocatorIhEELb0EEEEcvPKhEv,comdat
	.weak	_ZNK8CryptoPP8SecBlockIhNS_29FixedSizeAllocatorWithCleanupIhLm8ENS_13NullAllocatorIhEELb0EEEEcvPKhEv 
	.p2align	4, 0x90
	.type	_ZNK8CryptoPP8SecBlockIhNS_29FixedSizeAllocatorWithCleanupIhLm8ENS_13NullAllocatorIhEELb0EEEEcvPKhEv,@function
_ZNK8CryptoPP8SecBlockIhNS_29FixedSizeAllocatorWithCleanupIhLm8ENS_13NullAllocatorIhEELb0EEEEcvPKhEv: 

	push	rbp
	mov	rbp, rsp
	mov	qword ptr [rbp - 8], rdi
	mov	rdi, qword ptr [rbp - 8]
	mov	rax, qword ptr [rdi + 32]
	pop	rbp
	ret
.Lfunc_end38:
	.size	_ZNK8CryptoPP8SecBlockIhNS_29FixedSizeAllocatorWithCleanupIhLm8ENS_13NullAllocatorIhEELb0EEEEcvPKhEv, .Lfunc_end38-_ZNK8CryptoPP8SecBlockIhNS_29FixedSizeAllocatorWithCleanupIhLm8ENS_13NullAllocatorIhEELb0EEEEcvPKhEv

	.section	.text._ZNK8CryptoPP10member_ptrINS_16BlockCipherFinalILNS_9CipherDirE0ENS_3DES4BaseEEEEptEv,"axG",@progbits,_ZNK8CryptoPP10member_ptrINS_16BlockCipherFinalILNS_9CipherDirE0ENS_3DES4BaseEEEEptEv,comdat
	.weak	_ZNK8CryptoPP10member_ptrINS_16BlockCipherFinalILNS_9CipherDirE0ENS_3DES4BaseEEEEptEv 
	.p2align	4, 0x90
	.type	_ZNK8CryptoPP10member_ptrINS_16BlockCipherFinalILNS_9CipherDirE0ENS_3DES4BaseEEEEptEv,@function
_ZNK8CryptoPP10member_ptrINS_16BlockCipherFinalILNS_9CipherDirE0ENS_3DES4BaseEEEEptEv: 

	push	rbp
	mov	rbp, rsp
	mov	qword ptr [rbp - 8], rdi
	mov	rdi, qword ptr [rbp - 8]
	mov	rax, qword ptr [rdi]
	pop	rbp
	ret
.Lfunc_end39:
	.size	_ZNK8CryptoPP10member_ptrINS_16BlockCipherFinalILNS_9CipherDirE0ENS_3DES4BaseEEEEptEv, .Lfunc_end39-_ZNK8CryptoPP10member_ptrINS_16BlockCipherFinalILNS_9CipherDirE0ENS_3DES4BaseEEEEptEv

	.text
	.globl	_ZThn8_NK8CryptoPP8DES_XEX34Base18ProcessAndXorBlockEPKhS3_Ph 
	.p2align	4, 0x90
	.type	_ZThn8_NK8CryptoPP8DES_XEX34Base18ProcessAndXorBlockEPKhS3_Ph,@function
_ZThn8_NK8CryptoPP8DES_XEX34Base18ProcessAndXorBlockEPKhS3_Ph: 
	.cfi_startproc

	push	rbp
.Lcfi96:
	.cfi_def_cfa_offset 16
.Lcfi97:
	.cfi_offset rbp, -16
	mov	rbp, rsp
.Lcfi98:
	.cfi_def_cfa_register rbp
	mov	qword ptr [rbp - 8], rdi
	mov	qword ptr [rbp - 16], rsi
	mov	qword ptr [rbp - 24], rdx
	mov	qword ptr [rbp - 32], rcx
	mov	rcx, qword ptr [rbp - 8]
	add	rcx, -8
	mov	rsi, qword ptr [rbp - 16]
	mov	rdx, qword ptr [rbp - 24]
	mov	rdi, qword ptr [rbp - 32]
	mov	qword ptr [rbp - 40], rdi 
	mov	rdi, rcx
	mov	rcx, qword ptr [rbp - 40] 
	pop	rbp
	jmp	_ZNK8CryptoPP8DES_XEX34Base18ProcessAndXorBlockEPKhS3_Ph 
.Lfunc_end40:
	.size	_ZThn8_NK8CryptoPP8DES_XEX34Base18ProcessAndXorBlockEPKhS3_Ph, .Lfunc_end40-_ZThn8_NK8CryptoPP8DES_XEX34Base18ProcessAndXorBlockEPKhS3_Ph
	.cfi_endproc

	.section	.text._ZN8CryptoPP3DES4BaseD2Ev,"axG",@progbits,_ZN8CryptoPP3DES4BaseD2Ev,comdat
	.weak	_ZN8CryptoPP3DES4BaseD2Ev 
	.p2align	4, 0x90
	.type	_ZN8CryptoPP3DES4BaseD2Ev,@function
_ZN8CryptoPP3DES4BaseD2Ev:              
.Lfunc_begin2:
	.cfi_startproc
	.cfi_personality 3, __gxx_personality_v0
	.cfi_lsda 3, .Lexception2

	push	rbp
.Lcfi99:
	.cfi_def_cfa_offset 16
.Lcfi100:
	.cfi_offset rbp, -16
	mov	rbp, rsp
.Lcfi101:
	.cfi_def_cfa_register rbp
	sub	rsp, 48
	mov	qword ptr [rbp - 8], rdi
	mov	rdi, qword ptr [rbp - 8]
	mov	rax, rdi
	add	rax, 16
.Ltmp25:
	mov	qword ptr [rbp - 32], rdi 
	mov	rdi, rax
	call	_ZN8CryptoPP6RawDESD2Ev
.Ltmp26:
	jmp	.LBB41_1
.LBB41_1:
	mov	rax, qword ptr [rbp - 32] 
	mov	rdi, rax
	call	_ZN8CryptoPP15BlockCipherImplINS_8DES_InfoENS_11BlockCipherEED2Ev
	add	rsp, 48
	pop	rbp
	ret
.LBB41_2:
.Ltmp27:
	mov	ecx, edx
	mov	qword ptr [rbp - 16], rax
	mov	dword ptr [rbp - 20], ecx
.Ltmp28:
	mov	rdi, qword ptr [rbp - 32] 
	call	_ZN8CryptoPP15BlockCipherImplINS_8DES_InfoENS_11BlockCipherEED2Ev
.Ltmp29:
	jmp	.LBB41_3
.LBB41_3:
	jmp	.LBB41_4
.LBB41_4:
	mov	rdi, qword ptr [rbp - 16]
	call	_Unwind_Resume
.LBB41_5:
.Ltmp30:
	mov	ecx, edx
	mov	rdi, rax
	mov	dword ptr [rbp - 36], ecx 
	call	__clang_call_terminate
.Lfunc_end41:
	.size	_ZN8CryptoPP3DES4BaseD2Ev, .Lfunc_end41-_ZN8CryptoPP3DES4BaseD2Ev
	.cfi_endproc
	.section	.gcc_except_table,"a",@progbits
	.p2align	2
GCC_except_table41:
.Lexception2:
	.byte	255                     
	.byte	3                       
	.asciz	"\274"                  
	.byte	3                       
	.byte	52                      
	.long	.Ltmp25-.Lfunc_begin2   
	.long	.Ltmp26-.Ltmp25         
	.long	.Ltmp27-.Lfunc_begin2   
	.byte	0                       
	.long	.Ltmp26-.Lfunc_begin2   
	.long	.Ltmp28-.Ltmp26         
	.long	0                       
	.byte	0                       
	.long	.Ltmp28-.Lfunc_begin2   
	.long	.Ltmp29-.Ltmp28         
	.long	.Ltmp30-.Lfunc_begin2   
	.byte	1                       
	.long	.Ltmp29-.Lfunc_begin2   
	.long	.Lfunc_end41-.Ltmp29    
	.long	0                       
	.byte	0                       
	.byte	1                       

	.byte	0                       

	.long	0                       
	.p2align	2

	.section	.text._ZN8CryptoPP3DES4BaseD0Ev,"axG",@progbits,_ZN8CryptoPP3DES4BaseD0Ev,comdat
	.weak	_ZN8CryptoPP3DES4BaseD0Ev 
	.p2align	4, 0x90
	.type	_ZN8CryptoPP3DES4BaseD0Ev,@function
_ZN8CryptoPP3DES4BaseD0Ev:              

	push	rbp
	mov	rbp, rsp
	mov	qword ptr [rbp - 8], rdi
	ud2
	mov	dword ptr [rbp - 12], 1196538102
.LBB42_1:                               
	mov	eax, dword ptr [rbp - 12]
	mov	ecx, eax
	sub	ecx, -959755903
	mov	dword ptr [rbp - 16], eax 
	mov	dword ptr [rbp - 20], ecx 
	je	.LBB42_4
	jmp	.LBB42_8
.LBB42_8:                               
	mov	eax, dword ptr [rbp - 16] 
	sub	eax, 314073093
	mov	dword ptr [rbp - 24], eax 
	je	.LBB42_5
	jmp	.LBB42_9
.LBB42_9:                               
	mov	eax, dword ptr [rbp - 16] 
	sub	eax, 1196538102
	mov	dword ptr [rbp - 28], eax 
	je	.LBB42_3
	jmp	.LBB42_10
.LBB42_10:                              
	mov	eax, dword ptr [rbp - 16] 
	sub	eax, 2013930826
	mov	dword ptr [rbp - 32], eax 
	je	.LBB42_6
	jmp	.LBB42_2
.LBB42_2:                               
	jmp	.LBB42_7
.LBB42_3:                               
	mov	eax, 2013930826
	mov	ecx, 3335211393
	xor	edx, edx
	mov	esi, dword ptr [x.85]
	mov	edi, dword ptr [y.86]
	sub	edx, 1
	mov	r8d, esi
	add	r8d, edx
	imul	esi, r8d
	and	esi, 1
	cmp	esi, 0
	sete	r9b
	cmp	edi, 10
	setl	r10b
	mov	r11b, r9b
	and	r11b, r10b
	xor	r9b, r10b
	or	r11b, r9b
	test	r11b, 1
	cmovne	eax, ecx
	mov	dword ptr [rbp - 12], eax
	jmp	.LBB42_7
.LBB42_4:                               
	mov	eax, 2013930826
	mov	ecx, 314073093
	xor	edx, edx
	mov	esi, dword ptr [x.85]
	mov	edi, dword ptr [y.86]
	sub	edx, 1
	mov	r8d, esi
	add	r8d, edx
	imul	esi, r8d
	and	esi, 1
	cmp	esi, 0
	sete	r9b
	cmp	edi, 10
	setl	r10b
	mov	r11b, r9b
	and	r11b, r10b
	xor	r9b, r10b
	or	r11b, r9b
	test	r11b, 1
	cmovne	eax, ecx
	mov	dword ptr [rbp - 12], eax
	jmp	.LBB42_7
.LBB42_5:
	pop	rbp
	ret
.LBB42_6:                               
	mov	dword ptr [rbp - 12], -959755903
.LBB42_7:                               
	jmp	.LBB42_1
.Lfunc_end42:
	.size	_ZN8CryptoPP3DES4BaseD0Ev, .Lfunc_end42-_ZN8CryptoPP3DES4BaseD0Ev

	.section	.text._ZNK8CryptoPP25SimpleKeyingInterfaceImplINS_8TwoBasesINS_11BlockCipherENS_8DES_InfoEEES4_E12MinKeyLengthEv,"axG",@progbits,_ZNK8CryptoPP25SimpleKeyingInterfaceImplINS_8TwoBasesINS_11BlockCipherENS_8DES_InfoEEES4_E12MinKeyLengthEv,comdat
	.weak	_ZNK8CryptoPP25SimpleKeyingInterfaceImplINS_8TwoBasesINS_11BlockCipherENS_8DES_InfoEEES4_E12MinKeyLengthEv 
	.p2align	4, 0x90
	.type	_ZNK8CryptoPP25SimpleKeyingInterfaceImplINS_8TwoBasesINS_11BlockCipherENS_8DES_InfoEEES4_E12MinKeyLengthEv,@function
_ZNK8CryptoPP25SimpleKeyingInterfaceImplINS_8TwoBasesINS_11BlockCipherENS_8DES_InfoEEES4_E12MinKeyLengthEv: 

	push	rbp
	mov	rbp, rsp
	mov	eax, 8

	mov	qword ptr [rbp - 8], rdi
	pop	rbp
	ret
.Lfunc_end43:
	.size	_ZNK8CryptoPP25SimpleKeyingInterfaceImplINS_8TwoBasesINS_11BlockCipherENS_8DES_InfoEEES4_E12MinKeyLengthEv, .Lfunc_end43-_ZNK8CryptoPP25SimpleKeyingInterfaceImplINS_8TwoBasesINS_11BlockCipherENS_8DES_InfoEEES4_E12MinKeyLengthEv

	.section	.text._ZNK8CryptoPP25SimpleKeyingInterfaceImplINS_8TwoBasesINS_11BlockCipherENS_8DES_InfoEEES4_E12MaxKeyLengthEv,"axG",@progbits,_ZNK8CryptoPP25SimpleKeyingInterfaceImplINS_8TwoBasesINS_11BlockCipherENS_8DES_InfoEEES4_E12MaxKeyLengthEv,comdat
	.weak	_ZNK8CryptoPP25SimpleKeyingInterfaceImplINS_8TwoBasesINS_11BlockCipherENS_8DES_InfoEEES4_E12MaxKeyLengthEv 
	.p2align	4, 0x90
	.type	_ZNK8CryptoPP25SimpleKeyingInterfaceImplINS_8TwoBasesINS_11BlockCipherENS_8DES_InfoEEES4_E12MaxKeyLengthEv,@function
_ZNK8CryptoPP25SimpleKeyingInterfaceImplINS_8TwoBasesINS_11BlockCipherENS_8DES_InfoEEES4_E12MaxKeyLengthEv: 

	push	rbp
	mov	rbp, rsp
	mov	eax, 8

	mov	qword ptr [rbp - 8], rdi
	pop	rbp
	ret
.Lfunc_end44:
	.size	_ZNK8CryptoPP25SimpleKeyingInterfaceImplINS_8TwoBasesINS_11BlockCipherENS_8DES_InfoEEES4_E12MaxKeyLengthEv, .Lfunc_end44-_ZNK8CryptoPP25SimpleKeyingInterfaceImplINS_8TwoBasesINS_11BlockCipherENS_8DES_InfoEEES4_E12MaxKeyLengthEv

	.section	.text._ZNK8CryptoPP25SimpleKeyingInterfaceImplINS_8TwoBasesINS_11BlockCipherENS_8DES_InfoEEES4_E16DefaultKeyLengthEv,"axG",@progbits,_ZNK8CryptoPP25SimpleKeyingInterfaceImplINS_8TwoBasesINS_11BlockCipherENS_8DES_InfoEEES4_E16DefaultKeyLengthEv,comdat
	.weak	_ZNK8CryptoPP25SimpleKeyingInterfaceImplINS_8TwoBasesINS_11BlockCipherENS_8DES_InfoEEES4_E16DefaultKeyLengthEv 
	.p2align	4, 0x90
	.type	_ZNK8CryptoPP25SimpleKeyingInterfaceImplINS_8TwoBasesINS_11BlockCipherENS_8DES_InfoEEES4_E16DefaultKeyLengthEv,@function
_ZNK8CryptoPP25SimpleKeyingInterfaceImplINS_8TwoBasesINS_11BlockCipherENS_8DES_InfoEEES4_E16DefaultKeyLengthEv: 

	push	rbp
	mov	rbp, rsp
	push	r15
	push	r14
	push	r13
	push	r12
	push	rbx
	sub	rsp, 40
	mov	eax, dword ptr [x.91]
	mov	ecx, dword ptr [y.92]
	mov	edx, eax
	sub	edx, -1935302334
	sub	edx, 1
	add	edx, -1935302334
	imul	eax, edx
	and	eax, 1
	cmp	eax, 0
	sete	sil
	and	sil, 1
	mov	byte ptr [rbp - 42], sil
	cmp	ecx, 10
	setl	sil
	and	sil, 1
	mov	byte ptr [rbp - 41], sil
	mov	dword ptr [rbp - 48], -648621058
	mov	qword ptr [rbp - 56], rdi 
.LBB45_1:                               
	mov	eax, dword ptr [rbp - 48]
	mov	ecx, eax
	sub	ecx, -977030705
	mov	dword ptr [rbp - 60], eax 
	mov	dword ptr [rbp - 64], ecx 
	je	.LBB45_4
	jmp	.LBB45_8
.LBB45_8:                               
	mov	eax, dword ptr [rbp - 60] 
	sub	eax, -648621058
	mov	dword ptr [rbp - 68], eax 
	je	.LBB45_3
	jmp	.LBB45_9
.LBB45_9:                               
	mov	eax, dword ptr [rbp - 60] 
	sub	eax, 53227264
	mov	dword ptr [rbp - 72], eax 
	je	.LBB45_6
	jmp	.LBB45_10
.LBB45_10:                              
	mov	eax, dword ptr [rbp - 60] 
	sub	eax, 1157837501
	mov	dword ptr [rbp - 76], eax 
	je	.LBB45_5
	jmp	.LBB45_2
.LBB45_2:                               
	jmp	.LBB45_7
.LBB45_3:                               
	mov	eax, 53227264
	mov	ecx, 3317936591
	mov	dl, byte ptr [rbp - 42]
	mov	sil, byte ptr [rbp - 41]
	mov	dil, dl
	and	dil, sil
	xor	dl, sil
	or	dil, dl
	test	dil, 1
	cmovne	eax, ecx
	mov	dword ptr [rbp - 48], eax
	jmp	.LBB45_7
.LBB45_4:                               
	mov	eax, 53227264
	mov	ecx, 1157837501
	mov	dl, 1
	mov	rsi, rsp
	add	rsi, -16
	mov	rsp, rsi
	mov	rdi, qword ptr [rbp - 56] 
	mov	qword ptr [rsi], rdi
	mov	r8d, dword ptr [x.91]
	mov	r9d, dword ptr [y.92]
	mov	r10d, r8d
	sub	r10d, -861535686
	sub	r10d, 1
	add	r10d, -861535686
	imul	r8d, r10d
	and	r8d, 1
	cmp	r8d, 0
	sete	r11b
	cmp	r9d, 10
	setl	bl
	mov	r14b, r11b
	xor	r14b, -1
	mov	r15b, bl
	xor	r15b, -1
	xor	dl, 0
	mov	r12b, r14b
	and	r12b, 0
	and	r11b, dl
	mov	r13b, r15b
	and	r13b, 0
	and	bl, dl
	or	r12b, r11b
	or	r13b, bl
	xor	r12b, r13b
	or	r14b, r15b
	xor	r14b, -1
	or	dl, 0
	and	r14b, dl
	or	r12b, r14b
	test	r12b, 1
	cmovne	eax, ecx
	mov	dword ptr [rbp - 48], eax
	jmp	.LBB45_7
.LBB45_5:
	mov	eax, 8

	lea	rsp, [rbp - 40]
	pop	rbx
	pop	r12
	pop	r13
	pop	r14
	pop	r15
	pop	rbp
	ret
.LBB45_6:                               
	mov	rax, rsp
	add	rax, -16
	mov	rsp, rax
	mov	rcx, qword ptr [rbp - 56] 
	mov	qword ptr [rax], rcx
	mov	dword ptr [rbp - 48], -977030705
.LBB45_7:                               
	jmp	.LBB45_1
.Lfunc_end45:
	.size	_ZNK8CryptoPP25SimpleKeyingInterfaceImplINS_8TwoBasesINS_11BlockCipherENS_8DES_InfoEEES4_E16DefaultKeyLengthEv, .Lfunc_end45-_ZNK8CryptoPP25SimpleKeyingInterfaceImplINS_8TwoBasesINS_11BlockCipherENS_8DES_InfoEEES4_E16DefaultKeyLengthEv

	.section	.text._ZNK8CryptoPP25SimpleKeyingInterfaceImplINS_8TwoBasesINS_11BlockCipherENS_8DES_InfoEEES4_E17GetValidKeyLengthEm,"axG",@progbits,_ZNK8CryptoPP25SimpleKeyingInterfaceImplINS_8TwoBasesINS_11BlockCipherENS_8DES_InfoEEES4_E17GetValidKeyLengthEm,comdat
	.weak	_ZNK8CryptoPP25SimpleKeyingInterfaceImplINS_8TwoBasesINS_11BlockCipherENS_8DES_InfoEEES4_E17GetValidKeyLengthEm 
	.p2align	4, 0x90
	.type	_ZNK8CryptoPP25SimpleKeyingInterfaceImplINS_8TwoBasesINS_11BlockCipherENS_8DES_InfoEEES4_E17GetValidKeyLengthEm,@function
_ZNK8CryptoPP25SimpleKeyingInterfaceImplINS_8TwoBasesINS_11BlockCipherENS_8DES_InfoEEES4_E17GetValidKeyLengthEm: 
	.cfi_startproc

	push	rbp
.Lcfi102:
	.cfi_def_cfa_offset 16
.Lcfi103:
	.cfi_offset rbp, -16
	mov	rbp, rsp
.Lcfi104:
	.cfi_def_cfa_register rbp
	sub	rsp, 16
	mov	qword ptr [rbp - 8], rdi
	mov	qword ptr [rbp - 16], rsi
	mov	rdi, qword ptr [rbp - 16]
	call	_ZN8CryptoPP14FixedKeyLengthILj8ELj4ELj0EE23StaticGetValidKeyLengthEm
	add	rsp, 16
	pop	rbp
	ret
.Lfunc_end46:
	.size	_ZNK8CryptoPP25SimpleKeyingInterfaceImplINS_8TwoBasesINS_11BlockCipherENS_8DES_InfoEEES4_E17GetValidKeyLengthEm, .Lfunc_end46-_ZNK8CryptoPP25SimpleKeyingInterfaceImplINS_8TwoBasesINS_11BlockCipherENS_8DES_InfoEEES4_E17GetValidKeyLengthEm
	.cfi_endproc

	.section	.text._ZNK8CryptoPP21SimpleKeyingInterface16IsValidKeyLengthEm,"axG",@progbits,_ZNK8CryptoPP21SimpleKeyingInterface16IsValidKeyLengthEm,comdat
	.weak	_ZNK8CryptoPP21SimpleKeyingInterface16IsValidKeyLengthEm 
	.p2align	4, 0x90
	.type	_ZNK8CryptoPP21SimpleKeyingInterface16IsValidKeyLengthEm,@function
_ZNK8CryptoPP21SimpleKeyingInterface16IsValidKeyLengthEm: 
	.cfi_startproc

	push	rbp
.Lcfi105:
	.cfi_def_cfa_offset 16
.Lcfi106:
	.cfi_offset rbp, -16
	mov	rbp, rsp
.Lcfi107:
	.cfi_def_cfa_register rbp
	sub	rsp, 32
	mov	qword ptr [rbp - 8], rdi
	mov	qword ptr [rbp - 16], rsi
	mov	rsi, qword ptr [rbp - 8]
	mov	rdi, qword ptr [rbp - 16]
	mov	rax, qword ptr [rsi]
	mov	rax, qword ptr [rax + 40]
	mov	rcx, qword ptr [rbp - 16]
	mov	qword ptr [rbp - 24], rdi 
	mov	rdi, rsi
	mov	rsi, rcx
	call	rax
	mov	rcx, qword ptr [rbp - 24] 
	cmp	rcx, rax
	sete	dl
	and	dl, 1
	movzx	eax, dl
	add	rsp, 32
	pop	rbp
	ret
.Lfunc_end47:
	.size	_ZNK8CryptoPP21SimpleKeyingInterface16IsValidKeyLengthEm, .Lfunc_end47-_ZNK8CryptoPP21SimpleKeyingInterface16IsValidKeyLengthEm
	.cfi_endproc

	.section	.text._ZNK8CryptoPP25SimpleKeyingInterfaceImplINS_8TwoBasesINS_11BlockCipherENS_8DES_InfoEEES4_E13IVRequirementEv,"axG",@progbits,_ZNK8CryptoPP25SimpleKeyingInterfaceImplINS_8TwoBasesINS_11BlockCipherENS_8DES_InfoEEES4_E13IVRequirementEv,comdat
	.weak	_ZNK8CryptoPP25SimpleKeyingInterfaceImplINS_8TwoBasesINS_11BlockCipherENS_8DES_InfoEEES4_E13IVRequirementEv 
	.p2align	4, 0x90
	.type	_ZNK8CryptoPP25SimpleKeyingInterfaceImplINS_8TwoBasesINS_11BlockCipherENS_8DES_InfoEEES4_E13IVRequirementEv,@function
_ZNK8CryptoPP25SimpleKeyingInterfaceImplINS_8TwoBasesINS_11BlockCipherENS_8DES_InfoEEES4_E13IVRequirementEv: 

	push	rbp
	mov	rbp, rsp
	mov	eax, 4
	mov	qword ptr [rbp - 8], rdi
	pop	rbp
	ret
.Lfunc_end48:
	.size	_ZNK8CryptoPP25SimpleKeyingInterfaceImplINS_8TwoBasesINS_11BlockCipherENS_8DES_InfoEEES4_E13IVRequirementEv, .Lfunc_end48-_ZNK8CryptoPP25SimpleKeyingInterfaceImplINS_8TwoBasesINS_11BlockCipherENS_8DES_InfoEEES4_E13IVRequirementEv

	.section	.text._ZNK8CryptoPP25SimpleKeyingInterfaceImplINS_8TwoBasesINS_11BlockCipherENS_8DES_InfoEEES4_E6IVSizeEv,"axG",@progbits,_ZNK8CryptoPP25SimpleKeyingInterfaceImplINS_8TwoBasesINS_11BlockCipherENS_8DES_InfoEEES4_E6IVSizeEv,comdat
	.weak	_ZNK8CryptoPP25SimpleKeyingInterfaceImplINS_8TwoBasesINS_11BlockCipherENS_8DES_InfoEEES4_E6IVSizeEv 
	.p2align	4, 0x90
	.type	_ZNK8CryptoPP25SimpleKeyingInterfaceImplINS_8TwoBasesINS_11BlockCipherENS_8DES_InfoEEES4_E6IVSizeEv,@function
_ZNK8CryptoPP25SimpleKeyingInterfaceImplINS_8TwoBasesINS_11BlockCipherENS_8DES_InfoEEES4_E6IVSizeEv: 

	push	rbp
	mov	rbp, rsp
	xor	eax, eax
	mov	qword ptr [rbp - 8], rdi
	pop	rbp
	ret
.Lfunc_end49:
	.size	_ZNK8CryptoPP25SimpleKeyingInterfaceImplINS_8TwoBasesINS_11BlockCipherENS_8DES_InfoEEES4_E6IVSizeEv, .Lfunc_end49-_ZNK8CryptoPP25SimpleKeyingInterfaceImplINS_8TwoBasesINS_11BlockCipherENS_8DES_InfoEEES4_E6IVSizeEv

	.section	.text._ZNK8CryptoPP21SimpleKeyingInterface11MinIVLengthEv,"axG",@progbits,_ZNK8CryptoPP21SimpleKeyingInterface11MinIVLengthEv,comdat
	.weak	_ZNK8CryptoPP21SimpleKeyingInterface11MinIVLengthEv 
	.p2align	4, 0x90
	.type	_ZNK8CryptoPP21SimpleKeyingInterface11MinIVLengthEv,@function
_ZNK8CryptoPP21SimpleKeyingInterface11MinIVLengthEv: 
	.cfi_startproc

	push	rbp
.Lcfi108:
	.cfi_def_cfa_offset 16
.Lcfi109:
	.cfi_offset rbp, -16
	mov	rbp, rsp
.Lcfi110:
	.cfi_def_cfa_register rbp
	push	r15
	push	r14
	push	r13
	push	r12
	push	rbx
	sub	rsp, 56
.Lcfi111:
	.cfi_offset rbx, -56
.Lcfi112:
	.cfi_offset r12, -48
.Lcfi113:
	.cfi_offset r13, -40
.Lcfi114:
	.cfi_offset r14, -32
.Lcfi115:
	.cfi_offset r15, -24
	xor	eax, eax
	mov	ecx, dword ptr [x.101]
	mov	edx, dword ptr [y.102]
	sub	eax, 1
	mov	esi, ecx
	add	esi, eax
	imul	ecx, esi
	and	ecx, 1
	cmp	ecx, 0
	sete	r8b
	and	r8b, 1
	mov	byte ptr [rbp - 46], r8b
	cmp	edx, 10
	setl	r8b
	and	r8b, 1
	mov	byte ptr [rbp - 45], r8b
	mov	dword ptr [rbp - 52], -938746791
	mov	qword ptr [rbp - 64], rdi 
.LBB50_1:                               
	mov	eax, dword ptr [rbp - 52]
	mov	ecx, eax
	sub	ecx, -938746791
	mov	dword ptr [rbp - 68], eax 
	mov	dword ptr [rbp - 72], ecx 
	je	.LBB50_3
	jmp	.LBB50_8
.LBB50_8:                               
	mov	eax, dword ptr [rbp - 68] 
	sub	eax, -924658423
	mov	dword ptr [rbp - 76], eax 
	je	.LBB50_6
	jmp	.LBB50_9
.LBB50_9:                               
	mov	eax, dword ptr [rbp - 68] 
	sub	eax, -686628567
	mov	dword ptr [rbp - 80], eax 
	je	.LBB50_4
	jmp	.LBB50_10
.LBB50_10:                              
	mov	eax, dword ptr [rbp - 68] 
	sub	eax, 1269996269
	mov	dword ptr [rbp - 84], eax 
	je	.LBB50_5
	jmp	.LBB50_2
.LBB50_2:                               
	jmp	.LBB50_7
.LBB50_3:                               
	mov	eax, 3370308873
	mov	ecx, 3608338729
	mov	dl, 1
	mov	sil, byte ptr [rbp - 46]
	mov	dil, byte ptr [rbp - 45]
	mov	r8b, sil
	xor	r8b, -1
	mov	r9b, dil
	xor	r9b, -1
	xor	dl, 0
	mov	r10b, r8b
	and	r10b, 0
	and	sil, dl
	mov	r11b, r9b
	and	r11b, 0
	and	dil, dl
	or	r10b, sil
	or	r11b, dil
	xor	r10b, r11b
	or	r8b, r9b
	xor	r8b, -1
	or	dl, 0
	and	r8b, dl
	or	r10b, r8b
	test	r10b, 1
	cmovne	eax, ecx
	mov	dword ptr [rbp - 52], eax
	jmp	.LBB50_7
.LBB50_4:                               
	mov	rax, rsp
	add	rax, -16
	mov	rsp, rax
	mov	rcx, qword ptr [rbp - 64] 
	mov	qword ptr [rax], rcx
	mov	rax, qword ptr [rax]
	mov	rdx, qword ptr [rax]
	mov	rdi, rax
	call	qword ptr [rdx + 72]
	mov	esi, 3370308873
	mov	r8d, 1269996269
	mov	r9b, 1
	xor	r10d, r10d
	mov	dword ptr [rbp - 44], eax
	mov	eax, dword ptr [x.101]
	mov	r11d, dword ptr [y.102]
	sub	r10d, 1
	mov	ebx, eax
	add	ebx, r10d
	imul	eax, ebx
	and	eax, 1
	cmp	eax, 0
	sete	r14b
	cmp	r11d, 10
	setl	r15b
	mov	r12b, r14b
	xor	r12b, -1
	mov	r13b, r15b
	xor	r13b, -1
	xor	r9b, 1
	mov	al, r12b
	and	al, -1
	and	r14b, r9b
	mov	cl, r13b
	and	cl, -1
	and	r15b, r9b
	or	al, r14b
	or	cl, r15b
	xor	al, cl
	or	r12b, r13b
	xor	r12b, -1
	or	r9b, 1
	and	r12b, r9b
	or	al, r12b
	test	al, 1
	cmovne	esi, r8d
	mov	dword ptr [rbp - 52], esi
	jmp	.LBB50_7
.LBB50_5:
	mov	eax, dword ptr [rbp - 44]
	lea	rsp, [rbp - 40]
	pop	rbx
	pop	r12
	pop	r13
	pop	r14
	pop	r15
	pop	rbp
	ret
.LBB50_6:                               
	mov	rax, rsp
	add	rax, -16
	mov	rsp, rax
	mov	rcx, qword ptr [rbp - 64] 
	mov	qword ptr [rax], rcx
	mov	rax, qword ptr [rax]
	mov	rdx, qword ptr [rax]
	mov	rdi, rax
	call	qword ptr [rdx + 72]
	mov	dword ptr [rbp - 52], -686628567
	mov	dword ptr [rbp - 88], eax 
.LBB50_7:                               
	jmp	.LBB50_1
.Lfunc_end50:
	.size	_ZNK8CryptoPP21SimpleKeyingInterface11MinIVLengthEv, .Lfunc_end50-_ZNK8CryptoPP21SimpleKeyingInterface11MinIVLengthEv
	.cfi_endproc

	.section	.text._ZNK8CryptoPP21SimpleKeyingInterface11MaxIVLengthEv,"axG",@progbits,_ZNK8CryptoPP21SimpleKeyingInterface11MaxIVLengthEv,comdat
	.weak	_ZNK8CryptoPP21SimpleKeyingInterface11MaxIVLengthEv 
	.p2align	4, 0x90
	.type	_ZNK8CryptoPP21SimpleKeyingInterface11MaxIVLengthEv,@function
_ZNK8CryptoPP21SimpleKeyingInterface11MaxIVLengthEv: 
	.cfi_startproc

	push	rbp
.Lcfi116:
	.cfi_def_cfa_offset 16
.Lcfi117:
	.cfi_offset rbp, -16
	mov	rbp, rsp
.Lcfi118:
	.cfi_def_cfa_register rbp
	sub	rsp, 16
	mov	qword ptr [rbp - 8], rdi
	mov	rdi, qword ptr [rbp - 8]
	mov	rax, qword ptr [rdi]
	call	qword ptr [rax + 72]
	add	rsp, 16
	pop	rbp
	ret
.Lfunc_end51:
	.size	_ZNK8CryptoPP21SimpleKeyingInterface11MaxIVLengthEv, .Lfunc_end51-_ZNK8CryptoPP21SimpleKeyingInterface11MaxIVLengthEv
	.cfi_endproc

	.section	.text._ZN8CryptoPP21SimpleKeyingInterface13ResynchronizeEPKhi,"axG",@progbits,_ZN8CryptoPP21SimpleKeyingInterface13ResynchronizeEPKhi,comdat
	.weak	_ZN8CryptoPP21SimpleKeyingInterface13ResynchronizeEPKhi 
	.p2align	4, 0x90
	.type	_ZN8CryptoPP21SimpleKeyingInterface13ResynchronizeEPKhi,@function
_ZN8CryptoPP21SimpleKeyingInterface13ResynchronizeEPKhi: 
.Lfunc_begin3:
	.cfi_startproc
	.cfi_personality 3, __gxx_personality_v0
	.cfi_lsda 3, .Lexception3

	push	rbp
.Lcfi119:
	.cfi_def_cfa_offset 16
.Lcfi120:
	.cfi_offset rbp, -16
	mov	rbp, rsp
.Lcfi121:
	.cfi_def_cfa_register rbp
	sub	rsp, 144
	mov	qword ptr [rbp - 8], rdi
	mov	qword ptr [rbp - 16], rsi
	mov	dword ptr [rbp - 20], edx
	mov	rsi, qword ptr [rbp - 8]
	mov	edx, 48
	mov	edi, edx
	mov	qword ptr [rbp - 112], rsi 
	call	__cxa_allocate_exception
	mov	rsi, rax
	mov	byte ptr [rbp - 101], 1
	mov	rdi, qword ptr [rbp - 112] 
	mov	rcx, qword ptr [rdi]
	mov	rcx, qword ptr [rcx + 112]
.Ltmp31:
	mov	qword ptr [rbp - 120], rsi 
	mov	qword ptr [rbp - 128], rax 
	call	rcx
.Ltmp32:
	mov	qword ptr [rbp - 136], rax 
	jmp	.LBB52_1
.LBB52_1:
	mov	rax, qword ptr [rbp - 136] 
	mov	rcx, qword ptr [rax]
	mov	rcx, qword ptr [rcx + 24]
.Ltmp33:
	lea	rdi, [rbp - 88]
	mov	rsi, rax
	call	rcx
.Ltmp34:
	jmp	.LBB52_2
.LBB52_2:
.Ltmp36:
	mov	eax, .L.str
	mov	edx, eax
	lea	rdi, [rbp - 56]
	lea	rsi, [rbp - 88]
	call	_ZStplIcSt11char_traitsIcESaIcEENSt7__cxx1112basic_stringIT_T0_T1_EERKS8_PKS5_
.Ltmp37:
	jmp	.LBB52_3
.LBB52_3:
.Ltmp39:
	lea	rsi, [rbp - 56]
	mov	rdi, qword ptr [rbp - 128] 
	call	_ZN8CryptoPP14NotImplementedC2ERKNSt7__cxx1112basic_stringIcSt11char_traitsIcESaIcEEE
.Ltmp40:
	jmp	.LBB52_4
.LBB52_4:
	mov	byte ptr [rbp - 101], 0
.Ltmp41:
	mov	eax, _ZTIN8CryptoPP14NotImplementedE
	mov	esi, eax
	mov	eax, _ZN8CryptoPP14NotImplementedD2Ev
	mov	edx, eax
	mov	rdi, qword ptr [rbp - 120] 
	call	__cxa_throw
.Ltmp42:
	jmp	.LBB52_16
.LBB52_5:
.Ltmp35:
	mov	ecx, edx
	mov	qword ptr [rbp - 96], rax
	mov	dword ptr [rbp - 100], ecx
	jmp	.LBB52_11
.LBB52_6:
.Ltmp38:
	mov	ecx, edx
	mov	qword ptr [rbp - 96], rax
	mov	dword ptr [rbp - 100], ecx
	jmp	.LBB52_9
.LBB52_7:
.Ltmp43:
	mov	ecx, edx
	mov	qword ptr [rbp - 96], rax
	mov	dword ptr [rbp - 100], ecx
.Ltmp44:
	lea	rdi, [rbp - 56]
	call	_ZNSt7__cxx1112basic_stringIcSt11char_traitsIcESaIcEED1Ev
.Ltmp45:
	jmp	.LBB52_8
.LBB52_8:
	jmp	.LBB52_9
.LBB52_9:
.Ltmp46:
	lea	rdi, [rbp - 88]
	call	_ZNSt7__cxx1112basic_stringIcSt11char_traitsIcESaIcEED1Ev
.Ltmp47:
	jmp	.LBB52_10
.LBB52_10:
	jmp	.LBB52_11
.LBB52_11:
	test	byte ptr [rbp - 101], 1
	jne	.LBB52_12
	jmp	.LBB52_13
.LBB52_12:
	mov	rdi, qword ptr [rbp - 120] 
	call	__cxa_free_exception
.LBB52_13:
	jmp	.LBB52_14
.LBB52_14:
	mov	rdi, qword ptr [rbp - 96]
	call	_Unwind_Resume
.LBB52_15:
.Ltmp48:
	mov	ecx, edx
	mov	rdi, rax
	mov	dword ptr [rbp - 140], ecx 
	call	__clang_call_terminate
.LBB52_16:
.Lfunc_end52:
	.size	_ZN8CryptoPP21SimpleKeyingInterface13ResynchronizeEPKhi, .Lfunc_end52-_ZN8CryptoPP21SimpleKeyingInterface13ResynchronizeEPKhi
	.cfi_endproc
	.section	.gcc_except_table,"a",@progbits
	.p2align	2
GCC_except_table52:
.Lexception3:
	.byte	255                     
	.byte	3                       
	.asciz	"\326\200\200"          
	.byte	3                       
	.byte	78                      
	.long	.Lfunc_begin3-.Lfunc_begin3 
	.long	.Ltmp31-.Lfunc_begin3   
	.long	0                       
	.byte	0                       
	.long	.Ltmp31-.Lfunc_begin3   
	.long	.Ltmp34-.Ltmp31         
	.long	.Ltmp35-.Lfunc_begin3   
	.byte	0                       
	.long	.Ltmp36-.Lfunc_begin3   
	.long	.Ltmp37-.Ltmp36         
	.long	.Ltmp38-.Lfunc_begin3   
	.byte	0                       
	.long	.Ltmp39-.Lfunc_begin3   
	.long	.Ltmp42-.Ltmp39         
	.long	.Ltmp43-.Lfunc_begin3   
	.byte	0                       
	.long	.Ltmp44-.Lfunc_begin3   
	.long	.Ltmp47-.Ltmp44         
	.long	.Ltmp48-.Lfunc_begin3   
	.byte	1                       
	.long	.Ltmp47-.Lfunc_begin3   
	.long	.Lfunc_end52-.Ltmp47    
	.long	0                       
	.byte	0                       
	.byte	1                       

	.byte	0                       

	.long	0                       
	.p2align	2

	.section	.text._ZNK8CryptoPP11BlockCipher12GetAlgorithmEv,"axG",@progbits,_ZNK8CryptoPP11BlockCipher12GetAlgorithmEv,comdat
	.weak	_ZNK8CryptoPP11BlockCipher12GetAlgorithmEv 
	.p2align	4, 0x90
	.type	_ZNK8CryptoPP11BlockCipher12GetAlgorithmEv,@function
_ZNK8CryptoPP11BlockCipher12GetAlgorithmEv: 

	push	rbp
	mov	rbp, rsp
	push	r15
	push	r14
	push	r13
	push	r12
	push	rbx
	sub	rsp, 56
	mov	eax, dword ptr [x.105]
	mov	ecx, dword ptr [y.106]
	mov	edx, eax
	sub	edx, 164456928
	sub	edx, 1
	add	edx, 164456928
	imul	eax, edx
	and	eax, 1
	cmp	eax, 0
	sete	sil
	and	sil, 1
	mov	byte ptr [rbp - 50], sil
	cmp	ecx, 10
	setl	sil
	and	sil, 1
	mov	byte ptr [rbp - 49], sil
	mov	dword ptr [rbp - 56], -1995753005
	mov	qword ptr [rbp - 64], rdi 
.LBB53_1:                               
	mov	eax, dword ptr [rbp - 56]
	mov	ecx, eax
	sub	ecx, -1995753005
	mov	dword ptr [rbp - 68], eax 
	mov	dword ptr [rbp - 72], ecx 
	je	.LBB53_3
	jmp	.LBB53_8
.LBB53_8:                               
	mov	eax, dword ptr [rbp - 68] 
	sub	eax, -782285838
	mov	dword ptr [rbp - 76], eax 
	je	.LBB53_6
	jmp	.LBB53_9
.LBB53_9:                               
	mov	eax, dword ptr [rbp - 68] 
	sub	eax, -374652672
	mov	dword ptr [rbp - 80], eax 
	je	.LBB53_5
	jmp	.LBB53_10
.LBB53_10:                              
	mov	eax, dword ptr [rbp - 68] 
	sub	eax, 1269518175
	mov	dword ptr [rbp - 84], eax 
	je	.LBB53_4
	jmp	.LBB53_2
.LBB53_2:                               
	jmp	.LBB53_7
.LBB53_3:                               
	mov	eax, 3512681458
	mov	ecx, 1269518175
	mov	dl, byte ptr [rbp - 50]
	mov	sil, byte ptr [rbp - 49]
	mov	dil, dl
	and	dil, sil
	xor	dl, sil
	or	dil, dl
	test	dil, 1
	cmovne	eax, ecx
	mov	dword ptr [rbp - 56], eax
	jmp	.LBB53_7
.LBB53_4:                               
	mov	eax, 3512681458
	mov	ecx, 3920314624
	mov	dl, 1
	xor	esi, esi
	mov	rdi, rsp
	add	rdi, -16
	mov	rsp, rdi
	mov	r8, qword ptr [rbp - 64] 
	mov	qword ptr [rdi], r8
	mov	rdi, qword ptr [rdi]
	add	rdi, 8
	mov	qword ptr [rbp - 48], rdi
	mov	r9d, dword ptr [x.105]
	mov	r10d, dword ptr [y.106]
	sub	esi, 1
	mov	r11d, r9d
	add	r11d, esi
	imul	r9d, r11d
	and	r9d, 1
	cmp	r9d, 0
	sete	bl
	cmp	r10d, 10
	setl	r14b
	mov	r15b, bl
	xor	r15b, -1
	mov	r12b, r14b
	xor	r12b, -1
	xor	dl, 0
	mov	r13b, r15b
	and	r13b, 0
	and	bl, dl
	mov	sil, r12b
	and	sil, 0
	and	r14b, dl
	or	r13b, bl
	or	sil, r14b
	xor	r13b, sil
	or	r15b, r12b
	xor	r15b, -1
	or	dl, 0
	and	r15b, dl
	or	r13b, r15b
	test	r13b, 1
	cmovne	eax, ecx
	mov	dword ptr [rbp - 56], eax
	jmp	.LBB53_7
.LBB53_5:
	mov	rax, qword ptr [rbp - 48]
	lea	rsp, [rbp - 40]
	pop	rbx
	pop	r12
	pop	r13
	pop	r14
	pop	r15
	pop	rbp
	ret
.LBB53_6:                               
	mov	rax, rsp
	add	rax, -16
	mov	rsp, rax
	mov	rcx, qword ptr [rbp - 64] 
	mov	qword ptr [rax], rcx
	mov	dword ptr [rbp - 56], 1269518175
.LBB53_7:                               
	jmp	.LBB53_1
.Lfunc_end53:
	.size	_ZNK8CryptoPP11BlockCipher12GetAlgorithmEv, .Lfunc_end53-_ZNK8CryptoPP11BlockCipher12GetAlgorithmEv

	.section	.text._ZNK8CryptoPP13AlgorithmImplINS_25SimpleKeyingInterfaceImplINS_8TwoBasesINS_11BlockCipherENS_8DES_InfoEEES5_EES6_E13AlgorithmNameB5cxx11Ev,"axG",@progbits,_ZNK8CryptoPP13AlgorithmImplINS_25SimpleKeyingInterfaceImplINS_8TwoBasesINS_11BlockCipherENS_8DES_InfoEEES5_EES6_E13AlgorithmNameB5cxx11Ev,comdat
	.weak	_ZNK8CryptoPP13AlgorithmImplINS_25SimpleKeyingInterfaceImplINS_8TwoBasesINS_11BlockCipherENS_8DES_InfoEEES5_EES6_E13AlgorithmNameB5cxx11Ev 
	.p2align	4, 0x90
	.type	_ZNK8CryptoPP13AlgorithmImplINS_25SimpleKeyingInterfaceImplINS_8TwoBasesINS_11BlockCipherENS_8DES_InfoEEES5_EES6_E13AlgorithmNameB5cxx11Ev,@function
_ZNK8CryptoPP13AlgorithmImplINS_25SimpleKeyingInterfaceImplINS_8TwoBasesINS_11BlockCipherENS_8DES_InfoEEES5_EES6_E13AlgorithmNameB5cxx11Ev: 
.Lfunc_begin4:
	.cfi_startproc
	.cfi_personality 3, __gxx_personality_v0
	.cfi_lsda 3, .Lexception4

	push	rbp
.Lcfi122:
	.cfi_def_cfa_offset 16
.Lcfi123:
	.cfi_offset rbp, -16
	mov	rbp, rsp
.Lcfi124:
	.cfi_def_cfa_register rbp
	sub	rsp, 64
	mov	rax, rdi
	mov	qword ptr [rbp - 8], rsi
	mov	qword ptr [rbp - 40], rax 
	mov	qword ptr [rbp - 48], rdi 
	call	_ZN8CryptoPP8DES_Info19StaticAlgorithmNameEv
	lea	rsi, [rbp - 16]
	mov	rdi, rsi
	mov	qword ptr [rbp - 56], rax 
	mov	qword ptr [rbp - 64], rsi 
	call	_ZNSaIcEC1Ev
.Ltmp49:
	mov	rdi, qword ptr [rbp - 48] 
	mov	rsi, qword ptr [rbp - 56] 
	mov	rdx, qword ptr [rbp - 64] 
	call	_ZNSt7__cxx1112basic_stringIcSt11char_traitsIcESaIcEEC1EPKcRKS3_
.Ltmp50:
	jmp	.LBB54_1
.LBB54_1:
	lea	rdi, [rbp - 16]
	call	_ZNSaIcED1Ev
	mov	rax, qword ptr [rbp - 40] 
	add	rsp, 64
	pop	rbp
	ret
.LBB54_2:
.Ltmp51:
	lea	rdi, [rbp - 16]
	mov	ecx, edx
	mov	qword ptr [rbp - 24], rax
	mov	dword ptr [rbp - 28], ecx
	call	_ZNSaIcED1Ev

	mov	rdi, qword ptr [rbp - 24]
	call	_Unwind_Resume
.Lfunc_end54:
	.size	_ZNK8CryptoPP13AlgorithmImplINS_25SimpleKeyingInterfaceImplINS_8TwoBasesINS_11BlockCipherENS_8DES_InfoEEES5_EES6_E13AlgorithmNameB5cxx11Ev, .Lfunc_end54-_ZNK8CryptoPP13AlgorithmImplINS_25SimpleKeyingInterfaceImplINS_8TwoBasesINS_11BlockCipherENS_8DES_InfoEEES5_EES6_E13AlgorithmNameB5cxx11Ev
	.cfi_endproc
	.section	.gcc_except_table,"a",@progbits
	.p2align	2
GCC_except_table54:
.Lexception4:
	.byte	255                     
	.byte	3                       
	.asciz	"\234"                  
	.byte	3                       
	.byte	26                      
	.long	.Ltmp49-.Lfunc_begin4   
	.long	.Ltmp50-.Ltmp49         
	.long	.Ltmp51-.Lfunc_begin4   
	.byte	0                       
	.long	.Ltmp50-.Lfunc_begin4   
	.long	.Lfunc_end54-.Ltmp50    
	.long	0                       
	.byte	0                       
	.p2align	2

	.section	.text._ZNK8CryptoPP15BlockCipherImplINS_8DES_InfoENS_11BlockCipherEE9BlockSizeEv,"axG",@progbits,_ZNK8CryptoPP15BlockCipherImplINS_8DES_InfoENS_11BlockCipherEE9BlockSizeEv,comdat
	.weak	_ZNK8CryptoPP15BlockCipherImplINS_8DES_InfoENS_11BlockCipherEE9BlockSizeEv 
	.p2align	4, 0x90
	.type	_ZNK8CryptoPP15BlockCipherImplINS_8DES_InfoENS_11BlockCipherEE9BlockSizeEv,@function
_ZNK8CryptoPP15BlockCipherImplINS_8DES_InfoENS_11BlockCipherEE9BlockSizeEv: 

	push	rbp
	mov	rbp, rsp
	push	r15
	push	r14
	push	r13
	push	r12
	push	rbx
	sub	rsp, 40
	mov	eax, dword ptr [x.107]
	mov	ecx, dword ptr [y.108]
	mov	edx, eax
	add	edx, -1076601836
	sub	edx, 1
	sub	edx, -1076601836
	imul	eax, edx
	and	eax, 1
	cmp	eax, 0
	sete	sil
	and	sil, 1
	mov	byte ptr [rbp - 42], sil
	cmp	ecx, 10
	setl	sil
	and	sil, 1
	mov	byte ptr [rbp - 41], sil
	mov	dword ptr [rbp - 48], -1832278397
	mov	qword ptr [rbp - 56], rdi 
.LBB55_1:                               
	mov	eax, dword ptr [rbp - 48]
	mov	ecx, eax
	sub	ecx, -1992817151
	mov	dword ptr [rbp - 60], eax 
	mov	dword ptr [rbp - 64], ecx 
	je	.LBB55_4
	jmp	.LBB55_8
.LBB55_8:                               
	mov	eax, dword ptr [rbp - 60] 
	sub	eax, -1832278397
	mov	dword ptr [rbp - 68], eax 
	je	.LBB55_3
	jmp	.LBB55_9
.LBB55_9:                               
	mov	eax, dword ptr [rbp - 60] 
	sub	eax, -840007177
	mov	dword ptr [rbp - 72], eax 
	je	.LBB55_6
	jmp	.LBB55_10
.LBB55_10:                              
	mov	eax, dword ptr [rbp - 60] 
	sub	eax, -528118291
	mov	dword ptr [rbp - 76], eax 
	je	.LBB55_5
	jmp	.LBB55_2
.LBB55_2:                               
	jmp	.LBB55_7
.LBB55_3:                               
	mov	eax, 3454960119
	mov	ecx, 2302150145
	mov	dl, byte ptr [rbp - 42]
	mov	sil, byte ptr [rbp - 41]
	mov	dil, dl
	and	dil, sil
	xor	dl, sil
	or	dil, dl
	test	dil, 1
	cmovne	eax, ecx
	mov	dword ptr [rbp - 48], eax
	jmp	.LBB55_7
.LBB55_4:                               
	mov	eax, 3454960119
	mov	ecx, 3766849005
	mov	dl, 1
	xor	esi, esi
	mov	rdi, rsp
	add	rdi, -16
	mov	rsp, rdi
	mov	r8, qword ptr [rbp - 56] 
	mov	qword ptr [rdi], r8
	mov	r9d, dword ptr [x.107]
	mov	r10d, dword ptr [y.108]
	sub	esi, 1
	mov	r11d, r9d
	add	r11d, esi
	imul	r9d, r11d
	and	r9d, 1
	cmp	r9d, 0
	sete	bl
	cmp	r10d, 10
	setl	r14b
	mov	r15b, bl
	xor	r15b, -1
	mov	r12b, r14b
	xor	r12b, -1
	xor	dl, 1
	mov	r13b, r15b
	and	r13b, -1
	and	bl, dl
	mov	sil, r12b
	and	sil, -1
	and	r14b, dl
	or	r13b, bl
	or	sil, r14b
	xor	r13b, sil
	or	r15b, r12b
	xor	r15b, -1
	or	dl, 1
	and	r15b, dl
	or	r13b, r15b
	test	r13b, 1
	cmovne	eax, ecx
	mov	dword ptr [rbp - 48], eax
	jmp	.LBB55_7
.LBB55_5:
	mov	eax, 8
	lea	rsp, [rbp - 40]
	pop	rbx
	pop	r12
	pop	r13
	pop	r14
	pop	r15
	pop	rbp
	ret
.LBB55_6:                               
	mov	rax, rsp
	add	rax, -16
	mov	rsp, rax
	mov	rcx, qword ptr [rbp - 56] 
	mov	qword ptr [rax], rcx
	mov	dword ptr [rbp - 48], -1992817151
.LBB55_7:                               
	jmp	.LBB55_1
.Lfunc_end55:
	.size	_ZNK8CryptoPP15BlockCipherImplINS_8DES_InfoENS_11BlockCipherEE9BlockSizeEv, .Lfunc_end55-_ZNK8CryptoPP15BlockCipherImplINS_8DES_InfoENS_11BlockCipherEE9BlockSizeEv

	.section	.text._ZThn8_N8CryptoPP3DES4BaseD1Ev,"axG",@progbits,_ZThn8_N8CryptoPP3DES4BaseD1Ev,comdat
	.weak	_ZThn8_N8CryptoPP3DES4BaseD1Ev 
	.p2align	4, 0x90
	.type	_ZThn8_N8CryptoPP3DES4BaseD1Ev,@function
_ZThn8_N8CryptoPP3DES4BaseD1Ev:         
	.cfi_startproc

	push	rbp
.Lcfi125:
	.cfi_def_cfa_offset 16
.Lcfi126:
	.cfi_offset rbp, -16
	mov	rbp, rsp
.Lcfi127:
	.cfi_def_cfa_register rbp
	mov	qword ptr [rbp - 8], rdi
	mov	rdi, qword ptr [rbp - 8]
	add	rdi, -8
	pop	rbp
	jmp	_ZN8CryptoPP3DES4BaseD2Ev 
.Lfunc_end56:
	.size	_ZThn8_N8CryptoPP3DES4BaseD1Ev, .Lfunc_end56-_ZThn8_N8CryptoPP3DES4BaseD1Ev
	.cfi_endproc

	.section	.text._ZThn8_N8CryptoPP3DES4BaseD0Ev,"axG",@progbits,_ZThn8_N8CryptoPP3DES4BaseD0Ev,comdat
	.weak	_ZThn8_N8CryptoPP3DES4BaseD0Ev 
	.p2align	4, 0x90
	.type	_ZThn8_N8CryptoPP3DES4BaseD0Ev,@function
_ZThn8_N8CryptoPP3DES4BaseD0Ev:         
	.cfi_startproc

	push	rbp
.Lcfi128:
	.cfi_def_cfa_offset 16
.Lcfi129:
	.cfi_offset rbp, -16
	mov	rbp, rsp
.Lcfi130:
	.cfi_def_cfa_register rbp
	push	r15
	push	r14
	push	rbx
	sub	rsp, 40
.Lcfi131:
	.cfi_offset rbx, -40
.Lcfi132:
	.cfi_offset r14, -32
.Lcfi133:
	.cfi_offset r15, -24
	xor	eax, eax
	mov	ecx, dword ptr [x.111]
	mov	edx, dword ptr [y.112]
	sub	eax, 1
	mov	esi, ecx
	add	esi, eax
	imul	ecx, esi
	and	ecx, 1
	cmp	ecx, 0
	sete	r8b
	and	r8b, 1
	mov	byte ptr [rbp - 26], r8b
	cmp	edx, 10
	setl	r8b
	and	r8b, 1
	mov	byte ptr [rbp - 25], r8b
	mov	dword ptr [rbp - 32], -1235645137
	mov	qword ptr [rbp - 40], rdi 
.LBB57_1:                               
	mov	eax, dword ptr [rbp - 32]
	mov	ecx, eax
	sub	ecx, -1903856345
	mov	dword ptr [rbp - 44], eax 
	mov	dword ptr [rbp - 48], ecx 
	je	.LBB57_4
	jmp	.LBB57_8
.LBB57_8:                               
	mov	eax, dword ptr [rbp - 44] 
	sub	eax, -1235645137
	mov	dword ptr [rbp - 52], eax 
	je	.LBB57_3
	jmp	.LBB57_9
.LBB57_9:                               
	mov	eax, dword ptr [rbp - 44] 
	sub	eax, -659145032
	mov	dword ptr [rbp - 56], eax 
	je	.LBB57_5
	jmp	.LBB57_10
.LBB57_10:                              
	mov	eax, dword ptr [rbp - 44] 
	sub	eax, 50075065
	mov	dword ptr [rbp - 60], eax 
	je	.LBB57_6
	jmp	.LBB57_2
.LBB57_2:                               
	jmp	.LBB57_7
.LBB57_3:                               
	mov	eax, 50075065
	mov	ecx, 2391110951
	mov	dl, byte ptr [rbp - 26]
	mov	sil, byte ptr [rbp - 25]
	mov	dil, dl
	and	dil, sil
	xor	dl, sil
	or	dil, dl
	test	dil, 1
	cmovne	eax, ecx
	mov	dword ptr [rbp - 32], eax
	jmp	.LBB57_7
.LBB57_4:                               
	mov	rax, rsp
	add	rax, -16
	mov	rsp, rax
	mov	rcx, qword ptr [rbp - 40] 
	mov	qword ptr [rax], rcx
	mov	rax, qword ptr [rax]
	add	rax, -8
	mov	rdi, rax
	call	_ZN8CryptoPP3DES4BaseD0Ev
	mov	edx, 50075065
	mov	esi, 3635822264
	xor	r8d, r8d
	mov	r9d, dword ptr [x.111]
	mov	r10d, dword ptr [y.112]
	sub	r8d, 1
	mov	r11d, r9d
	add	r11d, r8d
	imul	r9d, r11d
	and	r9d, 1
	cmp	r9d, 0
	sete	bl
	cmp	r10d, 10
	setl	r14b
	mov	r15b, bl
	and	r15b, r14b
	xor	bl, r14b
	or	r15b, bl
	test	r15b, 1
	cmovne	edx, esi
	mov	dword ptr [rbp - 32], edx
	jmp	.LBB57_7
.LBB57_5:
	lea	rsp, [rbp - 24]
	pop	rbx
	pop	r14
	pop	r15
	pop	rbp
	ret
.LBB57_6:                               
	mov	rax, rsp
	add	rax, -16
	mov	rsp, rax
	mov	rcx, qword ptr [rbp - 40] 
	mov	qword ptr [rax], rcx
	mov	rax, qword ptr [rax]
	add	rax, -8
	mov	rdi, rax
	call	_ZN8CryptoPP3DES4BaseD0Ev
	mov	dword ptr [rbp - 32], -1903856345
.LBB57_7:                               
	jmp	.LBB57_1
.Lfunc_end57:
	.size	_ZThn8_N8CryptoPP3DES4BaseD0Ev, .Lfunc_end57-_ZThn8_N8CryptoPP3DES4BaseD0Ev
	.cfi_endproc

	.section	.text._ZNK8CryptoPP8Clonable5CloneEv,"axG",@progbits,_ZNK8CryptoPP8Clonable5CloneEv,comdat
	.weak	_ZNK8CryptoPP8Clonable5CloneEv 
	.p2align	4, 0x90
	.type	_ZNK8CryptoPP8Clonable5CloneEv,@function
_ZNK8CryptoPP8Clonable5CloneEv:         
.Lfunc_begin5:
	.cfi_startproc
	.cfi_personality 3, __gxx_personality_v0
	.cfi_lsda 3, .Lexception5

	push	rbp
.Lcfi134:
	.cfi_def_cfa_offset 16
.Lcfi135:
	.cfi_offset rbp, -16
	mov	rbp, rsp
.Lcfi136:
	.cfi_def_cfa_register rbp
	sub	rsp, 112
	mov	qword ptr [rbp - 16], rdi
	mov	eax, 48
	mov	edi, eax
	call	__cxa_allocate_exception
	mov	rdi, rax
	mov	byte ptr [rbp - 69], 1
	lea	rcx, [rbp - 56]
	mov	qword ptr [rbp - 80], rdi 
	mov	rdi, rcx
	mov	qword ptr [rbp - 88], rcx 
	mov	qword ptr [rbp - 96], rax 
	call	_ZNSaIcEC1Ev
.Ltmp52:
	mov	edx, .L.str.1
	mov	esi, edx
	lea	rdi, [rbp - 48]
	mov	rdx, qword ptr [rbp - 88] 
	call	_ZNSt7__cxx1112basic_stringIcSt11char_traitsIcESaIcEEC1EPKcRKS3_
.Ltmp53:
	jmp	.LBB58_1
.LBB58_1:
.Ltmp55:
	lea	rsi, [rbp - 48]
	mov	rdi, qword ptr [rbp - 96] 
	call	_ZN8CryptoPP14NotImplementedC2ERKNSt7__cxx1112basic_stringIcSt11char_traitsIcESaIcEEE
.Ltmp56:
	jmp	.LBB58_2
.LBB58_2:
	mov	byte ptr [rbp - 69], 0
.Ltmp57:
	mov	eax, _ZTIN8CryptoPP14NotImplementedE
	mov	esi, eax
	mov	eax, _ZN8CryptoPP14NotImplementedD2Ev
	mov	edx, eax
	mov	rdi, qword ptr [rbp - 80] 
	call	__cxa_throw
.Ltmp58:
	jmp	.LBB58_11
.LBB58_3:
.Ltmp54:
	mov	ecx, edx
	mov	qword ptr [rbp - 64], rax
	mov	dword ptr [rbp - 68], ecx
	jmp	.LBB58_6
.LBB58_4:
.Ltmp59:
	mov	ecx, edx
	mov	qword ptr [rbp - 64], rax
	mov	dword ptr [rbp - 68], ecx
.Ltmp60:
	lea	rdi, [rbp - 48]
	call	_ZNSt7__cxx1112basic_stringIcSt11char_traitsIcESaIcEED1Ev
.Ltmp61:
	jmp	.LBB58_5
.LBB58_5:
	jmp	.LBB58_6
.LBB58_6:
	lea	rdi, [rbp - 56]
	call	_ZNSaIcED1Ev
	test	byte ptr [rbp - 69], 1
	jne	.LBB58_7
	jmp	.LBB58_8
.LBB58_7:
	mov	rdi, qword ptr [rbp - 80] 
	call	__cxa_free_exception
.LBB58_8:
	jmp	.LBB58_9
.LBB58_9:
	mov	rdi, qword ptr [rbp - 64]
	call	_Unwind_Resume
.LBB58_10:
.Ltmp62:
	mov	ecx, edx
	mov	rdi, rax
	mov	dword ptr [rbp - 100], ecx 
	call	__clang_call_terminate
.LBB58_11:
.Lfunc_end58:
	.size	_ZNK8CryptoPP8Clonable5CloneEv, .Lfunc_end58-_ZNK8CryptoPP8Clonable5CloneEv
	.cfi_endproc
	.section	.gcc_except_table,"a",@progbits
	.p2align	2
GCC_except_table58:
.Lexception5:
	.byte	255                     
	.byte	3                       
	.byte	73                      
	.byte	3                       
	.byte	65                      
	.long	.Lfunc_begin5-.Lfunc_begin5 
	.long	.Ltmp52-.Lfunc_begin5   
	.long	0                       
	.byte	0                       
	.long	.Ltmp52-.Lfunc_begin5   
	.long	.Ltmp53-.Ltmp52         
	.long	.Ltmp54-.Lfunc_begin5   
	.byte	0                       
	.long	.Ltmp55-.Lfunc_begin5   
	.long	.Ltmp58-.Ltmp55         
	.long	.Ltmp59-.Lfunc_begin5   
	.byte	0                       
	.long	.Ltmp60-.Lfunc_begin5   
	.long	.Ltmp61-.Ltmp60         
	.long	.Ltmp62-.Lfunc_begin5   
	.byte	1                       
	.long	.Ltmp61-.Lfunc_begin5   
	.long	.Lfunc_end58-.Ltmp61    
	.long	0                       
	.byte	0                       
	.byte	1                       

	.byte	0                       

	.long	0                       
	.p2align	2

	.section	.text._ZThn8_NK8CryptoPP13AlgorithmImplINS_25SimpleKeyingInterfaceImplINS_8TwoBasesINS_11BlockCipherENS_8DES_InfoEEES5_EES6_E13AlgorithmNameB5cxx11Ev,"axG",@progbits,_ZThn8_NK8CryptoPP13AlgorithmImplINS_25SimpleKeyingInterfaceImplINS_8TwoBasesINS_11BlockCipherENS_8DES_InfoEEES5_EES6_E13AlgorithmNameB5cxx11Ev,comdat
	.weak	_ZThn8_NK8CryptoPP13AlgorithmImplINS_25SimpleKeyingInterfaceImplINS_8TwoBasesINS_11BlockCipherENS_8DES_InfoEEES5_EES6_E13AlgorithmNameB5cxx11Ev 
	.p2align	4, 0x90
	.type	_ZThn8_NK8CryptoPP13AlgorithmImplINS_25SimpleKeyingInterfaceImplINS_8TwoBasesINS_11BlockCipherENS_8DES_InfoEEES5_EES6_E13AlgorithmNameB5cxx11Ev,@function
_ZThn8_NK8CryptoPP13AlgorithmImplINS_25SimpleKeyingInterfaceImplINS_8TwoBasesINS_11BlockCipherENS_8DES_InfoEEES5_EES6_E13AlgorithmNameB5cxx11Ev: 
	.cfi_startproc

	push	rbp
.Lcfi137:
	.cfi_def_cfa_offset 16
.Lcfi138:
	.cfi_offset rbp, -16
	mov	rbp, rsp
.Lcfi139:
	.cfi_def_cfa_register rbp
	push	r15
	push	r14
	push	rbx
	sub	rsp, 56
.Lcfi140:
	.cfi_offset rbx, -40
.Lcfi141:
	.cfi_offset r14, -32
.Lcfi142:
	.cfi_offset r15, -24
	mov	rax, rdi
	mov	ecx, dword ptr [x.113]
	mov	edx, dword ptr [y.114]
	mov	r8d, ecx
	sub	r8d, 275278215
	sub	r8d, 1
	add	r8d, 275278215
	imul	ecx, r8d
	and	ecx, 1
	cmp	ecx, 0
	sete	r9b
	and	r9b, 1
	mov	byte ptr [rbp - 26], r9b
	cmp	edx, 10
	setl	r9b
	and	r9b, 1
	mov	byte ptr [rbp - 25], r9b
	mov	dword ptr [rbp - 32], -2001018565
	mov	qword ptr [rbp - 40], rax 
	mov	qword ptr [rbp - 48], rsi 
	mov	qword ptr [rbp - 56], rdi 
.LBB59_1:                               
	mov	eax, dword ptr [rbp - 32]
	mov	ecx, eax
	sub	ecx, -2001018565
	mov	dword ptr [rbp - 60], eax 
	mov	dword ptr [rbp - 64], ecx 
	je	.LBB59_3
	jmp	.LBB59_8
.LBB59_8:                               
	mov	eax, dword ptr [rbp - 60] 
	sub	eax, -1310291945
	mov	dword ptr [rbp - 68], eax 
	je	.LBB59_6
	jmp	.LBB59_9
.LBB59_9:                               
	mov	eax, dword ptr [rbp - 60] 
	sub	eax, -121675450
	mov	dword ptr [rbp - 72], eax 
	je	.LBB59_5
	jmp	.LBB59_10
.LBB59_10:                              
	mov	eax, dword ptr [rbp - 60] 
	sub	eax, 458134575
	mov	dword ptr [rbp - 76], eax 
	je	.LBB59_4
	jmp	.LBB59_2
.LBB59_2:                               
	jmp	.LBB59_7
.LBB59_3:                               
	mov	eax, 2984675351
	mov	ecx, 458134575
	mov	dl, 1
	mov	sil, byte ptr [rbp - 26]
	mov	dil, byte ptr [rbp - 25]
	mov	r8b, sil
	xor	r8b, -1
	mov	r9b, dil
	xor	r9b, -1
	xor	dl, 1
	mov	r10b, r8b
	and	r10b, -1
	and	sil, dl
	mov	r11b, r9b
	and	r11b, -1
	and	dil, dl
	or	r10b, sil
	or	r11b, dil
	xor	r10b, r11b
	or	r8b, r9b
	xor	r8b, -1
	or	dl, 1
	and	r8b, dl
	or	r10b, r8b
	test	r10b, 1
	cmovne	eax, ecx
	mov	dword ptr [rbp - 32], eax
	jmp	.LBB59_7
.LBB59_4:                               
	mov	rax, rsp
	add	rax, -16
	mov	rsp, rax
	mov	rcx, qword ptr [rbp - 48] 
	mov	qword ptr [rax], rcx
	mov	rax, qword ptr [rax]
	add	rax, -8
	mov	rdi, qword ptr [rbp - 56] 
	mov	rsi, rax
	call	_ZNK8CryptoPP13AlgorithmImplINS_25SimpleKeyingInterfaceImplINS_8TwoBasesINS_11BlockCipherENS_8DES_InfoEEES5_EES6_E13AlgorithmNameB5cxx11Ev
	mov	edx, 2984675351
	mov	r8d, 4173291846
	mov	r9d, dword ptr [x.113]
	mov	r10d, dword ptr [y.114]
	mov	r11d, r9d
	add	r11d, 249508240
	sub	r11d, 1
	sub	r11d, 249508240
	imul	r9d, r11d
	and	r9d, 1
	cmp	r9d, 0
	sete	bl
	cmp	r10d, 10
	setl	r14b
	mov	r15b, bl
	and	r15b, r14b
	xor	bl, r14b
	or	r15b, bl
	test	r15b, 1
	cmovne	edx, r8d
	mov	dword ptr [rbp - 32], edx
	jmp	.LBB59_7
.LBB59_5:
	mov	rax, qword ptr [rbp - 40] 
	lea	rsp, [rbp - 24]
	pop	rbx
	pop	r14
	pop	r15
	pop	rbp
	ret
.LBB59_6:                               
	mov	rax, rsp
	add	rax, -16
	mov	rsp, rax
	mov	rcx, qword ptr [rbp - 48] 
	mov	qword ptr [rax], rcx
	mov	rax, qword ptr [rax]
	add	rax, -8
	mov	rdi, qword ptr [rbp - 56] 
	mov	rsi, rax
	call	_ZNK8CryptoPP13AlgorithmImplINS_25SimpleKeyingInterfaceImplINS_8TwoBasesINS_11BlockCipherENS_8DES_InfoEEES5_EES6_E13AlgorithmNameB5cxx11Ev
	mov	dword ptr [rbp - 32], 458134575
.LBB59_7:                               
	jmp	.LBB59_1
.Lfunc_end59:
	.size	_ZThn8_NK8CryptoPP13AlgorithmImplINS_25SimpleKeyingInterfaceImplINS_8TwoBasesINS_11BlockCipherENS_8DES_InfoEEES5_EES6_E13AlgorithmNameB5cxx11Ev, .Lfunc_end59-_ZThn8_NK8CryptoPP13AlgorithmImplINS_25SimpleKeyingInterfaceImplINS_8TwoBasesINS_11BlockCipherENS_8DES_InfoEEES5_EES6_E13AlgorithmNameB5cxx11Ev
	.cfi_endproc

	.section	.text._ZNK8CryptoPP9Algorithm17AlgorithmProviderB5cxx11Ev,"axG",@progbits,_ZNK8CryptoPP9Algorithm17AlgorithmProviderB5cxx11Ev,comdat
	.weak	_ZNK8CryptoPP9Algorithm17AlgorithmProviderB5cxx11Ev 
	.p2align	4, 0x90
	.type	_ZNK8CryptoPP9Algorithm17AlgorithmProviderB5cxx11Ev,@function
_ZNK8CryptoPP9Algorithm17AlgorithmProviderB5cxx11Ev: 
.Lfunc_begin6:
	.cfi_startproc
	.cfi_personality 3, __gxx_personality_v0
	.cfi_lsda 3, .Lexception6

	push	rbp
.Lcfi143:
	.cfi_def_cfa_offset 16
.Lcfi144:
	.cfi_offset rbp, -16
	mov	rbp, rsp
.Lcfi145:
	.cfi_def_cfa_register rbp
	sub	rsp, 64
	mov	rax, rdi
	mov	qword ptr [rbp - 8], rsi
	lea	rsi, [rbp - 16]
	mov	qword ptr [rbp - 40], rdi 
	mov	rdi, rsi
	mov	qword ptr [rbp - 48], rax 
	mov	qword ptr [rbp - 56], rsi 
	call	_ZNSaIcEC1Ev
.Ltmp63:
	mov	ecx, .L.str.2
	mov	esi, ecx
	mov	rdi, qword ptr [rbp - 40] 
	mov	rdx, qword ptr [rbp - 56] 
	call	_ZNSt7__cxx1112basic_stringIcSt11char_traitsIcESaIcEEC1EPKcRKS3_
.Ltmp64:
	jmp	.LBB60_1
.LBB60_1:
	lea	rdi, [rbp - 16]
	call	_ZNSaIcED1Ev
	mov	rax, qword ptr [rbp - 48] 
	add	rsp, 64
	pop	rbp
	ret
.LBB60_2:
.Ltmp65:
	lea	rdi, [rbp - 16]
	mov	ecx, edx
	mov	qword ptr [rbp - 24], rax
	mov	dword ptr [rbp - 28], ecx
	call	_ZNSaIcED1Ev

	mov	rdi, qword ptr [rbp - 24]
	call	_Unwind_Resume
.Lfunc_end60:
	.size	_ZNK8CryptoPP9Algorithm17AlgorithmProviderB5cxx11Ev, .Lfunc_end60-_ZNK8CryptoPP9Algorithm17AlgorithmProviderB5cxx11Ev
	.cfi_endproc
	.section	.gcc_except_table,"a",@progbits
	.p2align	2
GCC_except_table60:
.Lexception6:
	.byte	255                     
	.byte	3                       
	.asciz	"\234"                  
	.byte	3                       
	.byte	26                      
	.long	.Ltmp63-.Lfunc_begin6   
	.long	.Ltmp64-.Ltmp63         
	.long	.Ltmp65-.Lfunc_begin6   
	.byte	0                       
	.long	.Ltmp64-.Lfunc_begin6   
	.long	.Lfunc_end60-.Ltmp64    
	.long	0                       
	.byte	0                       
	.p2align	2

	.section	.text._ZThn8_NK8CryptoPP15BlockCipherImplINS_8DES_InfoENS_11BlockCipherEE9BlockSizeEv,"axG",@progbits,_ZThn8_NK8CryptoPP15BlockCipherImplINS_8DES_InfoENS_11BlockCipherEE9BlockSizeEv,comdat
	.weak	_ZThn8_NK8CryptoPP15BlockCipherImplINS_8DES_InfoENS_11BlockCipherEE9BlockSizeEv 
	.p2align	4, 0x90
	.type	_ZThn8_NK8CryptoPP15BlockCipherImplINS_8DES_InfoENS_11BlockCipherEE9BlockSizeEv,@function
_ZThn8_NK8CryptoPP15BlockCipherImplINS_8DES_InfoENS_11BlockCipherEE9BlockSizeEv: 
	.cfi_startproc

	push	rbp
.Lcfi146:
	.cfi_def_cfa_offset 16
.Lcfi147:
	.cfi_offset rbp, -16
	mov	rbp, rsp
.Lcfi148:
	.cfi_def_cfa_register rbp
	push	r15
	push	r14
	push	r13
	push	r12
	push	rbx
	sub	rsp, 56
.Lcfi149:
	.cfi_offset rbx, -56
.Lcfi150:
	.cfi_offset r12, -48
.Lcfi151:
	.cfi_offset r13, -40
.Lcfi152:
	.cfi_offset r14, -32
.Lcfi153:
	.cfi_offset r15, -24
	mov	eax, dword ptr [x.115]
	mov	ecx, dword ptr [y.116]
	mov	edx, eax
	add	edx, -572359157
	sub	edx, 1
	sub	edx, -572359157
	imul	eax, edx
	and	eax, 1
	cmp	eax, 0
	sete	sil
	and	sil, 1
	mov	byte ptr [rbp - 46], sil
	cmp	ecx, 10
	setl	sil
	and	sil, 1
	mov	byte ptr [rbp - 45], sil
	mov	dword ptr [rbp - 52], 553350913
	mov	qword ptr [rbp - 64], rdi 
.LBB61_1:                               
	mov	eax, dword ptr [rbp - 52]
	mov	ecx, eax
	sub	ecx, 147641911
	mov	dword ptr [rbp - 68], eax 
	mov	dword ptr [rbp - 72], ecx 
	je	.LBB61_6
	jmp	.LBB61_8
.LBB61_8:                               
	mov	eax, dword ptr [rbp - 68] 
	sub	eax, 553350913
	mov	dword ptr [rbp - 76], eax 
	je	.LBB61_3
	jmp	.LBB61_9
.LBB61_9:                               
	mov	eax, dword ptr [rbp - 68] 
	sub	eax, 899408874
	mov	dword ptr [rbp - 80], eax 
	je	.LBB61_4
	jmp	.LBB61_10
.LBB61_10:                              
	mov	eax, dword ptr [rbp - 68] 
	sub	eax, 1921544082
	mov	dword ptr [rbp - 84], eax 
	je	.LBB61_5
	jmp	.LBB61_2
.LBB61_2:                               
	jmp	.LBB61_7
.LBB61_3:                               
	mov	eax, 147641911
	mov	ecx, 899408874
	mov	dl, 1
	mov	sil, byte ptr [rbp - 46]
	mov	dil, byte ptr [rbp - 45]
	mov	r8b, sil
	xor	r8b, -1
	mov	r9b, dil
	xor	r9b, -1
	xor	dl, 0
	mov	r10b, r8b
	and	r10b, 0
	and	sil, dl
	mov	r11b, r9b
	and	r11b, 0
	and	dil, dl
	or	r10b, sil
	or	r11b, dil
	xor	r10b, r11b
	or	r8b, r9b
	xor	r8b, -1
	or	dl, 0
	and	r8b, dl
	or	r10b, r8b
	test	r10b, 1
	cmovne	eax, ecx
	mov	dword ptr [rbp - 52], eax
	jmp	.LBB61_7
.LBB61_4:                               
	mov	rax, rsp
	add	rax, -16
	mov	rsp, rax
	mov	rcx, qword ptr [rbp - 64] 
	mov	qword ptr [rax], rcx
	mov	rax, qword ptr [rax]
	add	rax, -8
	mov	rdi, rax
	call	_ZNK8CryptoPP15BlockCipherImplINS_8DES_InfoENS_11BlockCipherEE9BlockSizeEv
	mov	edx, 147641911
	mov	esi, 1921544082
	mov	r8b, 1
	xor	r9d, r9d
	mov	dword ptr [rbp - 44], eax
	mov	eax, dword ptr [x.115]
	mov	r10d, dword ptr [y.116]
	sub	r9d, 1
	mov	r11d, eax
	add	r11d, r9d
	imul	eax, r11d
	and	eax, 1
	cmp	eax, 0
	sete	bl
	cmp	r10d, 10
	setl	r14b
	mov	r15b, bl
	xor	r15b, -1
	mov	r12b, r14b
	xor	r12b, -1
	xor	r8b, 0
	mov	r13b, r15b
	and	r13b, 0
	and	bl, r8b
	mov	al, r12b
	and	al, 0
	and	r14b, r8b
	or	r13b, bl
	or	al, r14b
	xor	r13b, al
	or	r15b, r12b
	xor	r15b, -1
	or	r8b, 0
	and	r15b, r8b
	or	r13b, r15b
	test	r13b, 1
	cmovne	edx, esi
	mov	dword ptr [rbp - 52], edx
	jmp	.LBB61_7
.LBB61_5:
	mov	eax, dword ptr [rbp - 44]
	lea	rsp, [rbp - 40]
	pop	rbx
	pop	r12
	pop	r13
	pop	r14
	pop	r15
	pop	rbp
	ret
.LBB61_6:                               
	mov	rax, rsp
	add	rax, -16
	mov	rsp, rax
	mov	rcx, qword ptr [rbp - 64] 
	mov	qword ptr [rax], rcx
	mov	rax, qword ptr [rax]
	add	rax, -8
	mov	rdi, rax
	call	_ZNK8CryptoPP15BlockCipherImplINS_8DES_InfoENS_11BlockCipherEE9BlockSizeEv
	mov	dword ptr [rbp - 52], 899408874
	mov	dword ptr [rbp - 88], eax 
.LBB61_7:                               
	jmp	.LBB61_1
.Lfunc_end61:
	.size	_ZThn8_NK8CryptoPP15BlockCipherImplINS_8DES_InfoENS_11BlockCipherEE9BlockSizeEv, .Lfunc_end61-_ZThn8_NK8CryptoPP15BlockCipherImplINS_8DES_InfoENS_11BlockCipherEE9BlockSizeEv
	.cfi_endproc

	.section	.text._ZNK8CryptoPP19BlockTransformation13IsPermutationEv,"axG",@progbits,_ZNK8CryptoPP19BlockTransformation13IsPermutationEv,comdat
	.weak	_ZNK8CryptoPP19BlockTransformation13IsPermutationEv 
	.p2align	4, 0x90
	.type	_ZNK8CryptoPP19BlockTransformation13IsPermutationEv,@function
_ZNK8CryptoPP19BlockTransformation13IsPermutationEv: 

	push	rbp
	mov	rbp, rsp
	push	r15
	push	r14
	push	r13
	push	r12
	push	rbx
	sub	rsp, 40
	mov	eax, dword ptr [x.117]
	mov	ecx, dword ptr [y.118]
	mov	edx, eax
	add	edx, -2006124166
	sub	edx, 1
	sub	edx, -2006124166
	imul	eax, edx
	and	eax, 1
	cmp	eax, 0
	sete	sil
	and	sil, 1
	mov	byte ptr [rbp - 42], sil
	cmp	ecx, 10
	setl	sil
	and	sil, 1
	mov	byte ptr [rbp - 41], sil
	mov	dword ptr [rbp - 48], -790207034
	mov	qword ptr [rbp - 56], rdi 
.LBB62_1:                               
	mov	eax, dword ptr [rbp - 48]
	mov	ecx, eax
	sub	ecx, -1343275160
	mov	dword ptr [rbp - 60], eax 
	mov	dword ptr [rbp - 64], ecx 
	je	.LBB62_6
	jmp	.LBB62_8
.LBB62_8:                               
	mov	eax, dword ptr [rbp - 60] 
	sub	eax, -863914072
	mov	dword ptr [rbp - 68], eax 
	je	.LBB62_5
	jmp	.LBB62_9
.LBB62_9:                               
	mov	eax, dword ptr [rbp - 60] 
	sub	eax, -790207034
	mov	dword ptr [rbp - 72], eax 
	je	.LBB62_3
	jmp	.LBB62_10
.LBB62_10:                              
	mov	eax, dword ptr [rbp - 60] 
	sub	eax, -198791229
	mov	dword ptr [rbp - 76], eax 
	je	.LBB62_4
	jmp	.LBB62_2
.LBB62_2:                               
	jmp	.LBB62_7
.LBB62_3:                               
	mov	eax, 2951692136
	mov	ecx, 4096176067
	mov	dl, byte ptr [rbp - 42]
	mov	sil, byte ptr [rbp - 41]
	mov	dil, dl
	and	dil, sil
	xor	dl, sil
	or	dil, dl
	test	dil, 1
	cmovne	eax, ecx
	mov	dword ptr [rbp - 48], eax
	jmp	.LBB62_7
.LBB62_4:                               
	mov	eax, 2951692136
	mov	ecx, 3431053224
	mov	dl, 1
	mov	rsi, rsp
	add	rsi, -16
	mov	rsp, rsi
	mov	rdi, qword ptr [rbp - 56] 
	mov	qword ptr [rsi], rdi
	mov	r8d, dword ptr [x.117]
	mov	r9d, dword ptr [y.118]
	mov	r10d, r8d
	sub	r10d, 1577174334
	sub	r10d, 1
	add	r10d, 1577174334
	imul	r8d, r10d
	and	r8d, 1
	cmp	r8d, 0
	sete	r11b
	cmp	r9d, 10
	setl	bl
	mov	r14b, r11b
	xor	r14b, -1
	mov	r15b, bl
	xor	r15b, -1
	xor	dl, 1
	mov	r12b, r14b
	and	r12b, -1
	and	r11b, dl
	mov	r13b, r15b
	and	r13b, -1
	and	bl, dl
	or	r12b, r11b
	or	r13b, bl
	xor	r12b, r13b
	or	r14b, r15b
	xor	r14b, -1
	or	dl, 1
	and	r14b, dl
	or	r12b, r14b
	test	r12b, 1
	cmovne	eax, ecx
	mov	dword ptr [rbp - 48], eax
	jmp	.LBB62_7
.LBB62_5:
	mov	al, 1
	and	al, 1
	movzx	eax, al
	lea	rsp, [rbp - 40]
	pop	rbx
	pop	r12
	pop	r13
	pop	r14
	pop	r15
	pop	rbp
	ret
.LBB62_6:                               
	mov	rax, rsp
	add	rax, -16
	mov	rsp, rax
	mov	rcx, qword ptr [rbp - 56] 
	mov	qword ptr [rax], rcx
	mov	dword ptr [rbp - 48], -198791229
.LBB62_7:                               
	jmp	.LBB62_1
.Lfunc_end62:
	.size	_ZNK8CryptoPP19BlockTransformation13IsPermutationEv, .Lfunc_end62-_ZNK8CryptoPP19BlockTransformation13IsPermutationEv

	.section	.text._ZNK8CryptoPP19BlockTransformation29OptimalNumberOfParallelBlocksEv,"axG",@progbits,_ZNK8CryptoPP19BlockTransformation29OptimalNumberOfParallelBlocksEv,comdat
	.weak	_ZNK8CryptoPP19BlockTransformation29OptimalNumberOfParallelBlocksEv 
	.p2align	4, 0x90
	.type	_ZNK8CryptoPP19BlockTransformation29OptimalNumberOfParallelBlocksEv,@function
_ZNK8CryptoPP19BlockTransformation29OptimalNumberOfParallelBlocksEv: 

	push	rbp
	mov	rbp, rsp
	mov	eax, 1
	mov	qword ptr [rbp - 8], rdi
	pop	rbp
	ret
.Lfunc_end63:
	.size	_ZNK8CryptoPP19BlockTransformation29OptimalNumberOfParallelBlocksEv, .Lfunc_end63-_ZNK8CryptoPP19BlockTransformation29OptimalNumberOfParallelBlocksEv

	.section	.text._ZN8CryptoPP8DES_EDE24BaseD2Ev,"axG",@progbits,_ZN8CryptoPP8DES_EDE24BaseD2Ev,comdat
	.weak	_ZN8CryptoPP8DES_EDE24BaseD2Ev 
	.p2align	4, 0x90
	.type	_ZN8CryptoPP8DES_EDE24BaseD2Ev,@function
_ZN8CryptoPP8DES_EDE24BaseD2Ev:         
.Lfunc_begin7:
	.cfi_startproc
	.cfi_personality 3, __gxx_personality_v0
	.cfi_lsda 3, .Lexception7

	push	rbp
.Lcfi154:
	.cfi_def_cfa_offset 16
.Lcfi155:
	.cfi_offset rbp, -16
	mov	rbp, rsp
.Lcfi156:
	.cfi_def_cfa_register rbp
	sub	rsp, 48
	mov	qword ptr [rbp - 8], rdi
	mov	rdi, qword ptr [rbp - 8]
	mov	qword ptr [rdi], _ZTVN8CryptoPP8DES_EDE24BaseE+16
	mov	qword ptr [rdi + 8], _ZTVN8CryptoPP8DES_EDE24BaseE+184
	mov	rax, rdi
	add	rax, 176
.Ltmp66:
	mov	qword ptr [rbp - 32], rdi 
	mov	rdi, rax
	call	_ZN8CryptoPP6RawDESD2Ev
.Ltmp67:
	jmp	.LBB64_1
.LBB64_1:
	mov	rax, qword ptr [rbp - 32] 
	add	rax, 16
.Ltmp71:
	mov	rdi, rax
	call	_ZN8CryptoPP6RawDESD2Ev
.Ltmp72:
	jmp	.LBB64_2
.LBB64_2:
	mov	rax, qword ptr [rbp - 32] 
	mov	rdi, rax
	call	_ZN8CryptoPP15BlockCipherImplINS_13DES_EDE2_InfoENS_11BlockCipherEED2Ev
	add	rsp, 48
	pop	rbp
	ret
.LBB64_3:
.Ltmp68:
	mov	ecx, edx
	mov	qword ptr [rbp - 16], rax
	mov	dword ptr [rbp - 20], ecx
	mov	rax, qword ptr [rbp - 32] 
	add	rax, 16
.Ltmp69:
	mov	rdi, rax
	call	_ZN8CryptoPP6RawDESD2Ev
.Ltmp70:
	jmp	.LBB64_5
.LBB64_4:
.Ltmp73:
	mov	ecx, edx
	mov	qword ptr [rbp - 16], rax
	mov	dword ptr [rbp - 20], ecx
	jmp	.LBB64_6
.LBB64_5:
	jmp	.LBB64_6
.LBB64_6:
.Ltmp74:
	mov	rdi, qword ptr [rbp - 32] 
	call	_ZN8CryptoPP15BlockCipherImplINS_13DES_EDE2_InfoENS_11BlockCipherEED2Ev
.Ltmp75:
	jmp	.LBB64_7
.LBB64_7:
	jmp	.LBB64_8
.LBB64_8:
	mov	rdi, qword ptr [rbp - 16]
	call	_Unwind_Resume
.LBB64_9:
.Ltmp76:
	mov	ecx, edx
	mov	rdi, rax
	mov	dword ptr [rbp - 36], ecx 
	call	__clang_call_terminate
.Lfunc_end64:
	.size	_ZN8CryptoPP8DES_EDE24BaseD2Ev, .Lfunc_end64-_ZN8CryptoPP8DES_EDE24BaseD2Ev
	.cfi_endproc
	.section	.gcc_except_table,"a",@progbits
	.p2align	2
GCC_except_table64:
.Lexception7:
	.byte	255                     
	.byte	3                       
	.byte	73                      
	.byte	3                       
	.byte	65                      
	.long	.Ltmp66-.Lfunc_begin7   
	.long	.Ltmp67-.Ltmp66         
	.long	.Ltmp68-.Lfunc_begin7   
	.byte	0                       
	.long	.Ltmp71-.Lfunc_begin7   
	.long	.Ltmp72-.Ltmp71         
	.long	.Ltmp73-.Lfunc_begin7   
	.byte	0                       
	.long	.Ltmp72-.Lfunc_begin7   
	.long	.Ltmp69-.Ltmp72         
	.long	0                       
	.byte	0                       
	.long	.Ltmp69-.Lfunc_begin7   
	.long	.Ltmp75-.Ltmp69         
	.long	.Ltmp76-.Lfunc_begin7   
	.byte	1                       
	.long	.Ltmp75-.Lfunc_begin7   
	.long	.Lfunc_end64-.Ltmp75    
	.long	0                       
	.byte	0                       
	.byte	1                       

	.byte	0                       

	.long	0                       
	.p2align	2

	.section	.text._ZN8CryptoPP8DES_EDE24BaseD0Ev,"axG",@progbits,_ZN8CryptoPP8DES_EDE24BaseD0Ev,comdat
	.weak	_ZN8CryptoPP8DES_EDE24BaseD0Ev 
	.p2align	4, 0x90
	.type	_ZN8CryptoPP8DES_EDE24BaseD0Ev,@function
_ZN8CryptoPP8DES_EDE24BaseD0Ev:         

	push	rbp
	mov	rbp, rsp
	mov	qword ptr [rbp - 8], rdi
	ud2
	mov	dword ptr [rbp - 12], 556722689
.LBB65_1:                               
	mov	eax, dword ptr [rbp - 12]
	sub	eax, 556722689
	mov	dword ptr [rbp - 16], eax 
	je	.LBB65_3
	jmp	.LBB65_2
.LBB65_2:                               
	jmp	.LBB65_4
.LBB65_3:
	pop	rbp
	ret
.LBB65_4:                               
	jmp	.LBB65_1
.Lfunc_end65:
	.size	_ZN8CryptoPP8DES_EDE24BaseD0Ev, .Lfunc_end65-_ZN8CryptoPP8DES_EDE24BaseD0Ev

	.section	.text._ZNK8CryptoPP25SimpleKeyingInterfaceImplINS_8TwoBasesINS_11BlockCipherENS_13DES_EDE2_InfoEEES4_E12MinKeyLengthEv,"axG",@progbits,_ZNK8CryptoPP25SimpleKeyingInterfaceImplINS_8TwoBasesINS_11BlockCipherENS_13DES_EDE2_InfoEEES4_E12MinKeyLengthEv,comdat
	.weak	_ZNK8CryptoPP25SimpleKeyingInterfaceImplINS_8TwoBasesINS_11BlockCipherENS_13DES_EDE2_InfoEEES4_E12MinKeyLengthEv 
	.p2align	4, 0x90
	.type	_ZNK8CryptoPP25SimpleKeyingInterfaceImplINS_8TwoBasesINS_11BlockCipherENS_13DES_EDE2_InfoEEES4_E12MinKeyLengthEv,@function
_ZNK8CryptoPP25SimpleKeyingInterfaceImplINS_8TwoBasesINS_11BlockCipherENS_13DES_EDE2_InfoEEES4_E12MinKeyLengthEv: 

	push	rbp
	mov	rbp, rsp
	mov	eax, 16

	mov	qword ptr [rbp - 8], rdi
	pop	rbp
	ret
.Lfunc_end66:
	.size	_ZNK8CryptoPP25SimpleKeyingInterfaceImplINS_8TwoBasesINS_11BlockCipherENS_13DES_EDE2_InfoEEES4_E12MinKeyLengthEv, .Lfunc_end66-_ZNK8CryptoPP25SimpleKeyingInterfaceImplINS_8TwoBasesINS_11BlockCipherENS_13DES_EDE2_InfoEEES4_E12MinKeyLengthEv

	.section	.text._ZNK8CryptoPP25SimpleKeyingInterfaceImplINS_8TwoBasesINS_11BlockCipherENS_13DES_EDE2_InfoEEES4_E12MaxKeyLengthEv,"axG",@progbits,_ZNK8CryptoPP25SimpleKeyingInterfaceImplINS_8TwoBasesINS_11BlockCipherENS_13DES_EDE2_InfoEEES4_E12MaxKeyLengthEv,comdat
	.weak	_ZNK8CryptoPP25SimpleKeyingInterfaceImplINS_8TwoBasesINS_11BlockCipherENS_13DES_EDE2_InfoEEES4_E12MaxKeyLengthEv 
	.p2align	4, 0x90
	.type	_ZNK8CryptoPP25SimpleKeyingInterfaceImplINS_8TwoBasesINS_11BlockCipherENS_13DES_EDE2_InfoEEES4_E12MaxKeyLengthEv,@function
_ZNK8CryptoPP25SimpleKeyingInterfaceImplINS_8TwoBasesINS_11BlockCipherENS_13DES_EDE2_InfoEEES4_E12MaxKeyLengthEv: 

	push	rbp
	mov	rbp, rsp
	mov	eax, 16

	mov	qword ptr [rbp - 8], rdi
	pop	rbp
	ret
.Lfunc_end67:
	.size	_ZNK8CryptoPP25SimpleKeyingInterfaceImplINS_8TwoBasesINS_11BlockCipherENS_13DES_EDE2_InfoEEES4_E12MaxKeyLengthEv, .Lfunc_end67-_ZNK8CryptoPP25SimpleKeyingInterfaceImplINS_8TwoBasesINS_11BlockCipherENS_13DES_EDE2_InfoEEES4_E12MaxKeyLengthEv

	.section	.text._ZNK8CryptoPP25SimpleKeyingInterfaceImplINS_8TwoBasesINS_11BlockCipherENS_13DES_EDE2_InfoEEES4_E16DefaultKeyLengthEv,"axG",@progbits,_ZNK8CryptoPP25SimpleKeyingInterfaceImplINS_8TwoBasesINS_11BlockCipherENS_13DES_EDE2_InfoEEES4_E16DefaultKeyLengthEv,comdat
	.weak	_ZNK8CryptoPP25SimpleKeyingInterfaceImplINS_8TwoBasesINS_11BlockCipherENS_13DES_EDE2_InfoEEES4_E16DefaultKeyLengthEv 
	.p2align	4, 0x90
	.type	_ZNK8CryptoPP25SimpleKeyingInterfaceImplINS_8TwoBasesINS_11BlockCipherENS_13DES_EDE2_InfoEEES4_E16DefaultKeyLengthEv,@function
_ZNK8CryptoPP25SimpleKeyingInterfaceImplINS_8TwoBasesINS_11BlockCipherENS_13DES_EDE2_InfoEEES4_E16DefaultKeyLengthEv: 

	push	rbp
	mov	rbp, rsp
	push	r15
	push	r14
	push	r13
	push	r12
	push	rbx
	sub	rsp, 40
	mov	eax, dword ptr [x.127]
	mov	ecx, dword ptr [y.128]
	mov	edx, eax
	add	edx, -944533582
	sub	edx, 1
	sub	edx, -944533582
	imul	eax, edx
	and	eax, 1
	cmp	eax, 0
	sete	sil
	and	sil, 1
	mov	byte ptr [rbp - 42], sil
	cmp	ecx, 10
	setl	sil
	and	sil, 1
	mov	byte ptr [rbp - 41], sil
	mov	dword ptr [rbp - 48], 2145043302
	mov	qword ptr [rbp - 56], rdi 
.LBB68_1:                               
	mov	eax, dword ptr [rbp - 48]
	mov	ecx, eax
	sub	ecx, -1128002430
	mov	dword ptr [rbp - 60], eax 
	mov	dword ptr [rbp - 64], ecx 
	je	.LBB68_6
	jmp	.LBB68_8
.LBB68_8:                               
	mov	eax, dword ptr [rbp - 60] 
	sub	eax, 529581595
	mov	dword ptr [rbp - 68], eax 
	je	.LBB68_4
	jmp	.LBB68_9
.LBB68_9:                               
	mov	eax, dword ptr [rbp - 60] 
	sub	eax, 1671906670
	mov	dword ptr [rbp - 72], eax 
	je	.LBB68_5
	jmp	.LBB68_10
.LBB68_10:                              
	mov	eax, dword ptr [rbp - 60] 
	sub	eax, 2145043302
	mov	dword ptr [rbp - 76], eax 
	je	.LBB68_3
	jmp	.LBB68_2
.LBB68_2:                               
	jmp	.LBB68_7
.LBB68_3:                               
	mov	eax, 3166964866
	mov	ecx, 529581595
	mov	dl, byte ptr [rbp - 42]
	mov	sil, byte ptr [rbp - 41]
	mov	dil, dl
	and	dil, sil
	xor	dl, sil
	or	dil, dl
	test	dil, 1
	cmovne	eax, ecx
	mov	dword ptr [rbp - 48], eax
	jmp	.LBB68_7
.LBB68_4:                               
	mov	eax, 3166964866
	mov	ecx, 1671906670
	mov	dl, 1
	mov	rsi, rsp
	add	rsi, -16
	mov	rsp, rsi
	mov	rdi, qword ptr [rbp - 56] 
	mov	qword ptr [rsi], rdi
	mov	r8d, dword ptr [x.127]
	mov	r9d, dword ptr [y.128]
	mov	r10d, r8d
	add	r10d, -518529245
	sub	r10d, 1
	sub	r10d, -518529245
	imul	r8d, r10d
	and	r8d, 1
	cmp	r8d, 0
	sete	r11b
	cmp	r9d, 10
	setl	bl
	mov	r14b, r11b
	xor	r14b, -1
	mov	r15b, bl
	xor	r15b, -1
	xor	dl, 0
	mov	r12b, r14b
	and	r12b, 0
	and	r11b, dl
	mov	r13b, r15b
	and	r13b, 0
	and	bl, dl
	or	r12b, r11b
	or	r13b, bl
	xor	r12b, r13b
	or	r14b, r15b
	xor	r14b, -1
	or	dl, 0
	and	r14b, dl
	or	r12b, r14b
	test	r12b, 1
	cmovne	eax, ecx
	mov	dword ptr [rbp - 48], eax
	jmp	.LBB68_7
.LBB68_5:
	mov	eax, 16

	lea	rsp, [rbp - 40]
	pop	rbx
	pop	r12
	pop	r13
	pop	r14
	pop	r15
	pop	rbp
	ret
.LBB68_6:                               
	mov	rax, rsp
	add	rax, -16
	mov	rsp, rax
	mov	rcx, qword ptr [rbp - 56] 
	mov	qword ptr [rax], rcx
	mov	dword ptr [rbp - 48], 529581595
.LBB68_7:                               
	jmp	.LBB68_1
.Lfunc_end68:
	.size	_ZNK8CryptoPP25SimpleKeyingInterfaceImplINS_8TwoBasesINS_11BlockCipherENS_13DES_EDE2_InfoEEES4_E16DefaultKeyLengthEv, .Lfunc_end68-_ZNK8CryptoPP25SimpleKeyingInterfaceImplINS_8TwoBasesINS_11BlockCipherENS_13DES_EDE2_InfoEEES4_E16DefaultKeyLengthEv

	.section	.text._ZNK8CryptoPP25SimpleKeyingInterfaceImplINS_8TwoBasesINS_11BlockCipherENS_13DES_EDE2_InfoEEES4_E17GetValidKeyLengthEm,"axG",@progbits,_ZNK8CryptoPP25SimpleKeyingInterfaceImplINS_8TwoBasesINS_11BlockCipherENS_13DES_EDE2_InfoEEES4_E17GetValidKeyLengthEm,comdat
	.weak	_ZNK8CryptoPP25SimpleKeyingInterfaceImplINS_8TwoBasesINS_11BlockCipherENS_13DES_EDE2_InfoEEES4_E17GetValidKeyLengthEm 
	.p2align	4, 0x90
	.type	_ZNK8CryptoPP25SimpleKeyingInterfaceImplINS_8TwoBasesINS_11BlockCipherENS_13DES_EDE2_InfoEEES4_E17GetValidKeyLengthEm,@function
_ZNK8CryptoPP25SimpleKeyingInterfaceImplINS_8TwoBasesINS_11BlockCipherENS_13DES_EDE2_InfoEEES4_E17GetValidKeyLengthEm: 
	.cfi_startproc

	push	rbp
.Lcfi157:
	.cfi_def_cfa_offset 16
.Lcfi158:
	.cfi_offset rbp, -16
	mov	rbp, rsp
.Lcfi159:
	.cfi_def_cfa_register rbp
	sub	rsp, 16
	mov	qword ptr [rbp - 8], rdi
	mov	qword ptr [rbp - 16], rsi
	mov	rdi, qword ptr [rbp - 16]
	call	_ZN8CryptoPP14FixedKeyLengthILj16ELj4ELj0EE23StaticGetValidKeyLengthEm
	add	rsp, 16
	pop	rbp
	ret
.Lfunc_end69:
	.size	_ZNK8CryptoPP25SimpleKeyingInterfaceImplINS_8TwoBasesINS_11BlockCipherENS_13DES_EDE2_InfoEEES4_E17GetValidKeyLengthEm, .Lfunc_end69-_ZNK8CryptoPP25SimpleKeyingInterfaceImplINS_8TwoBasesINS_11BlockCipherENS_13DES_EDE2_InfoEEES4_E17GetValidKeyLengthEm
	.cfi_endproc

	.section	.text._ZNK8CryptoPP25SimpleKeyingInterfaceImplINS_8TwoBasesINS_11BlockCipherENS_13DES_EDE2_InfoEEES4_E13IVRequirementEv,"axG",@progbits,_ZNK8CryptoPP25SimpleKeyingInterfaceImplINS_8TwoBasesINS_11BlockCipherENS_13DES_EDE2_InfoEEES4_E13IVRequirementEv,comdat
	.weak	_ZNK8CryptoPP25SimpleKeyingInterfaceImplINS_8TwoBasesINS_11BlockCipherENS_13DES_EDE2_InfoEEES4_E13IVRequirementEv 
	.p2align	4, 0x90
	.type	_ZNK8CryptoPP25SimpleKeyingInterfaceImplINS_8TwoBasesINS_11BlockCipherENS_13DES_EDE2_InfoEEES4_E13IVRequirementEv,@function
_ZNK8CryptoPP25SimpleKeyingInterfaceImplINS_8TwoBasesINS_11BlockCipherENS_13DES_EDE2_InfoEEES4_E13IVRequirementEv: 

	push	rbp
	mov	rbp, rsp
	mov	eax, 4
	mov	qword ptr [rbp - 8], rdi
	pop	rbp
	ret
.Lfunc_end70:
	.size	_ZNK8CryptoPP25SimpleKeyingInterfaceImplINS_8TwoBasesINS_11BlockCipherENS_13DES_EDE2_InfoEEES4_E13IVRequirementEv, .Lfunc_end70-_ZNK8CryptoPP25SimpleKeyingInterfaceImplINS_8TwoBasesINS_11BlockCipherENS_13DES_EDE2_InfoEEES4_E13IVRequirementEv

	.section	.text._ZNK8CryptoPP25SimpleKeyingInterfaceImplINS_8TwoBasesINS_11BlockCipherENS_13DES_EDE2_InfoEEES4_E6IVSizeEv,"axG",@progbits,_ZNK8CryptoPP25SimpleKeyingInterfaceImplINS_8TwoBasesINS_11BlockCipherENS_13DES_EDE2_InfoEEES4_E6IVSizeEv,comdat
	.weak	_ZNK8CryptoPP25SimpleKeyingInterfaceImplINS_8TwoBasesINS_11BlockCipherENS_13DES_EDE2_InfoEEES4_E6IVSizeEv 
	.p2align	4, 0x90
	.type	_ZNK8CryptoPP25SimpleKeyingInterfaceImplINS_8TwoBasesINS_11BlockCipherENS_13DES_EDE2_InfoEEES4_E6IVSizeEv,@function
_ZNK8CryptoPP25SimpleKeyingInterfaceImplINS_8TwoBasesINS_11BlockCipherENS_13DES_EDE2_InfoEEES4_E6IVSizeEv: 

	push	rbp
	mov	rbp, rsp
	xor	eax, eax
	mov	qword ptr [rbp - 8], rdi
	pop	rbp
	ret
.Lfunc_end71:
	.size	_ZNK8CryptoPP25SimpleKeyingInterfaceImplINS_8TwoBasesINS_11BlockCipherENS_13DES_EDE2_InfoEEES4_E6IVSizeEv, .Lfunc_end71-_ZNK8CryptoPP25SimpleKeyingInterfaceImplINS_8TwoBasesINS_11BlockCipherENS_13DES_EDE2_InfoEEES4_E6IVSizeEv

	.section	.text._ZNK8CryptoPP13AlgorithmImplINS_25SimpleKeyingInterfaceImplINS_8TwoBasesINS_11BlockCipherENS_13DES_EDE2_InfoEEES5_EES6_E13AlgorithmNameB5cxx11Ev,"axG",@progbits,_ZNK8CryptoPP13AlgorithmImplINS_25SimpleKeyingInterfaceImplINS_8TwoBasesINS_11BlockCipherENS_13DES_EDE2_InfoEEES5_EES6_E13AlgorithmNameB5cxx11Ev,comdat
	.weak	_ZNK8CryptoPP13AlgorithmImplINS_25SimpleKeyingInterfaceImplINS_8TwoBasesINS_11BlockCipherENS_13DES_EDE2_InfoEEES5_EES6_E13AlgorithmNameB5cxx11Ev 
	.p2align	4, 0x90
	.type	_ZNK8CryptoPP13AlgorithmImplINS_25SimpleKeyingInterfaceImplINS_8TwoBasesINS_11BlockCipherENS_13DES_EDE2_InfoEEES5_EES6_E13AlgorithmNameB5cxx11Ev,@function
_ZNK8CryptoPP13AlgorithmImplINS_25SimpleKeyingInterfaceImplINS_8TwoBasesINS_11BlockCipherENS_13DES_EDE2_InfoEEES5_EES6_E13AlgorithmNameB5cxx11Ev: 
.Lfunc_begin8:
	.cfi_startproc
	.cfi_personality 3, __gxx_personality_v0
	.cfi_lsda 3, .Lexception8

	push	rbp
.Lcfi160:
	.cfi_def_cfa_offset 16
.Lcfi161:
	.cfi_offset rbp, -16
	mov	rbp, rsp
.Lcfi162:
	.cfi_def_cfa_register rbp
	sub	rsp, 64
	mov	rax, rdi
	mov	qword ptr [rbp - 8], rsi
	mov	qword ptr [rbp - 40], rax 
	mov	qword ptr [rbp - 48], rdi 
	call	_ZN8CryptoPP13DES_EDE2_Info19StaticAlgorithmNameEv
	lea	rsi, [rbp - 16]
	mov	rdi, rsi
	mov	qword ptr [rbp - 56], rax 
	mov	qword ptr [rbp - 64], rsi 
	call	_ZNSaIcEC1Ev
.Ltmp77:
	mov	rdi, qword ptr [rbp - 48] 
	mov	rsi, qword ptr [rbp - 56] 
	mov	rdx, qword ptr [rbp - 64] 
	call	_ZNSt7__cxx1112basic_stringIcSt11char_traitsIcESaIcEEC1EPKcRKS3_
.Ltmp78:
	jmp	.LBB72_1
.LBB72_1:
	lea	rdi, [rbp - 16]
	call	_ZNSaIcED1Ev
	mov	rax, qword ptr [rbp - 40] 
	add	rsp, 64
	pop	rbp
	ret
.LBB72_2:
.Ltmp79:
	lea	rdi, [rbp - 16]
	mov	ecx, edx
	mov	qword ptr [rbp - 24], rax
	mov	dword ptr [rbp - 28], ecx
	call	_ZNSaIcED1Ev

	mov	rdi, qword ptr [rbp - 24]
	call	_Unwind_Resume
.Lfunc_end72:
	.size	_ZNK8CryptoPP13AlgorithmImplINS_25SimpleKeyingInterfaceImplINS_8TwoBasesINS_11BlockCipherENS_13DES_EDE2_InfoEEES5_EES6_E13AlgorithmNameB5cxx11Ev, .Lfunc_end72-_ZNK8CryptoPP13AlgorithmImplINS_25SimpleKeyingInterfaceImplINS_8TwoBasesINS_11BlockCipherENS_13DES_EDE2_InfoEEES5_EES6_E13AlgorithmNameB5cxx11Ev
	.cfi_endproc
	.section	.gcc_except_table,"a",@progbits
	.p2align	2
GCC_except_table72:
.Lexception8:
	.byte	255                     
	.byte	3                       
	.asciz	"\234"                  
	.byte	3                       
	.byte	26                      
	.long	.Ltmp77-.Lfunc_begin8   
	.long	.Ltmp78-.Ltmp77         
	.long	.Ltmp79-.Lfunc_begin8   
	.byte	0                       
	.long	.Ltmp78-.Lfunc_begin8   
	.long	.Lfunc_end72-.Ltmp78    
	.long	0                       
	.byte	0                       
	.p2align	2

	.section	.text._ZNK8CryptoPP15BlockCipherImplINS_13DES_EDE2_InfoENS_11BlockCipherEE9BlockSizeEv,"axG",@progbits,_ZNK8CryptoPP15BlockCipherImplINS_13DES_EDE2_InfoENS_11BlockCipherEE9BlockSizeEv,comdat
	.weak	_ZNK8CryptoPP15BlockCipherImplINS_13DES_EDE2_InfoENS_11BlockCipherEE9BlockSizeEv 
	.p2align	4, 0x90
	.type	_ZNK8CryptoPP15BlockCipherImplINS_13DES_EDE2_InfoENS_11BlockCipherEE9BlockSizeEv,@function
_ZNK8CryptoPP15BlockCipherImplINS_13DES_EDE2_InfoENS_11BlockCipherEE9BlockSizeEv: 

	push	rbp
	mov	rbp, rsp
	push	r15
	push	r14
	push	r13
	push	r12
	push	rbx
	sub	rsp, 40
	xor	eax, eax
	mov	ecx, dword ptr [x.135]
	mov	edx, dword ptr [y.136]
	sub	eax, 1
	mov	esi, ecx
	add	esi, eax
	imul	ecx, esi
	and	ecx, 1
	cmp	ecx, 0
	sete	r8b
	and	r8b, 1
	mov	byte ptr [rbp - 42], r8b
	cmp	edx, 10
	setl	r8b
	and	r8b, 1
	mov	byte ptr [rbp - 41], r8b
	mov	dword ptr [rbp - 48], -1834419376
	mov	qword ptr [rbp - 56], rdi 
.LBB73_1:                               
	mov	eax, dword ptr [rbp - 48]
	mov	ecx, eax
	sub	ecx, -1834419376
	mov	dword ptr [rbp - 60], eax 
	mov	dword ptr [rbp - 64], ecx 
	je	.LBB73_3
	jmp	.LBB73_8
.LBB73_8:                               
	mov	eax, dword ptr [rbp - 60] 
	sub	eax, -448721528
	mov	dword ptr [rbp - 68], eax 
	je	.LBB73_5
	jmp	.LBB73_9
.LBB73_9:                               
	mov	eax, dword ptr [rbp - 60] 
	sub	eax, 148496997
	mov	dword ptr [rbp - 72], eax 
	je	.LBB73_4
	jmp	.LBB73_10
.LBB73_10:                              
	mov	eax, dword ptr [rbp - 60] 
	sub	eax, 1326801828
	mov	dword ptr [rbp - 76], eax 
	je	.LBB73_6
	jmp	.LBB73_2
.LBB73_2:                               
	jmp	.LBB73_7
.LBB73_3:                               
	mov	eax, 1326801828
	mov	ecx, 148496997
	mov	dl, byte ptr [rbp - 42]
	mov	sil, byte ptr [rbp - 41]
	mov	dil, dl
	and	dil, sil
	xor	dl, sil
	or	dil, dl
	test	dil, 1
	cmovne	eax, ecx
	mov	dword ptr [rbp - 48], eax
	jmp	.LBB73_7
.LBB73_4:                               
	mov	eax, 1326801828
	mov	ecx, 3846245768
	mov	dl, 1
	mov	rsi, rsp
	add	rsi, -16
	mov	rsp, rsi
	mov	rdi, qword ptr [rbp - 56] 
	mov	qword ptr [rsi], rdi
	mov	r8d, dword ptr [x.135]
	mov	r9d, dword ptr [y.136]
	mov	r10d, r8d
	add	r10d, 1482499559
	sub	r10d, 1
	sub	r10d, 1482499559
	imul	r8d, r10d
	and	r8d, 1
	cmp	r8d, 0
	sete	r11b
	cmp	r9d, 10
	setl	bl
	mov	r14b, r11b
	xor	r14b, -1
	mov	r15b, bl
	xor	r15b, -1
	xor	dl, 0
	mov	r12b, r14b
	and	r12b, 0
	and	r11b, dl
	mov	r13b, r15b
	and	r13b, 0
	and	bl, dl
	or	r12b, r11b
	or	r13b, bl
	xor	r12b, r13b
	or	r14b, r15b
	xor	r14b, -1
	or	dl, 0
	and	r14b, dl
	or	r12b, r14b
	test	r12b, 1
	cmovne	eax, ecx
	mov	dword ptr [rbp - 48], eax
	jmp	.LBB73_7
.LBB73_5:
	mov	eax, 8
	lea	rsp, [rbp - 40]
	pop	rbx
	pop	r12
	pop	r13
	pop	r14
	pop	r15
	pop	rbp
	ret
.LBB73_6:                               
	mov	rax, rsp
	add	rax, -16
	mov	rsp, rax
	mov	rcx, qword ptr [rbp - 56] 
	mov	qword ptr [rax], rcx
	mov	dword ptr [rbp - 48], 148496997
.LBB73_7:                               
	jmp	.LBB73_1
.Lfunc_end73:
	.size	_ZNK8CryptoPP15BlockCipherImplINS_13DES_EDE2_InfoENS_11BlockCipherEE9BlockSizeEv, .Lfunc_end73-_ZNK8CryptoPP15BlockCipherImplINS_13DES_EDE2_InfoENS_11BlockCipherEE9BlockSizeEv

	.section	.text._ZThn8_N8CryptoPP8DES_EDE24BaseD1Ev,"axG",@progbits,_ZThn8_N8CryptoPP8DES_EDE24BaseD1Ev,comdat
	.weak	_ZThn8_N8CryptoPP8DES_EDE24BaseD1Ev 
	.p2align	4, 0x90
	.type	_ZThn8_N8CryptoPP8DES_EDE24BaseD1Ev,@function
_ZThn8_N8CryptoPP8DES_EDE24BaseD1Ev:    
	.cfi_startproc

	push	rbp
.Lcfi163:
	.cfi_def_cfa_offset 16
.Lcfi164:
	.cfi_offset rbp, -16
	mov	rbp, rsp
.Lcfi165:
	.cfi_def_cfa_register rbp
	push	r15
	push	r14
	push	r13
	push	r12
	push	rbx
	sub	rsp, 40
.Lcfi166:
	.cfi_offset rbx, -56
.Lcfi167:
	.cfi_offset r12, -48
.Lcfi168:
	.cfi_offset r13, -40
.Lcfi169:
	.cfi_offset r14, -32
.Lcfi170:
	.cfi_offset r15, -24
	mov	eax, dword ptr [x.137]
	mov	ecx, dword ptr [y.138]
	mov	edx, eax
	add	edx, -941143763
	sub	edx, 1
	sub	edx, -941143763
	imul	eax, edx
	and	eax, 1
	cmp	eax, 0
	sete	sil
	and	sil, 1
	mov	byte ptr [rbp - 42], sil
	cmp	ecx, 10
	setl	sil
	and	sil, 1
	mov	byte ptr [rbp - 41], sil
	mov	dword ptr [rbp - 48], -32123822
	mov	qword ptr [rbp - 56], rdi 
.LBB74_1:                               
	mov	eax, dword ptr [rbp - 48]
	mov	ecx, eax
	sub	ecx, -32123822
	mov	dword ptr [rbp - 60], eax 
	mov	dword ptr [rbp - 64], ecx 
	je	.LBB74_3
	jmp	.LBB74_8
.LBB74_8:                               
	mov	eax, dword ptr [rbp - 60] 
	sub	eax, 38381230
	mov	dword ptr [rbp - 68], eax 
	je	.LBB74_5
	jmp	.LBB74_9
.LBB74_9:                               
	mov	eax, dword ptr [rbp - 60] 
	sub	eax, 661489466
	mov	dword ptr [rbp - 72], eax 
	je	.LBB74_6
	jmp	.LBB74_10
.LBB74_10:                              
	mov	eax, dword ptr [rbp - 60] 
	sub	eax, 1482560777
	mov	dword ptr [rbp - 76], eax 
	je	.LBB74_4
	jmp	.LBB74_2
.LBB74_2:                               
	jmp	.LBB74_7
.LBB74_3:                               
	mov	eax, 661489466
	mov	ecx, 1482560777
	mov	dl, 1
	mov	sil, byte ptr [rbp - 42]
	mov	dil, byte ptr [rbp - 41]
	mov	r8b, sil
	xor	r8b, -1
	mov	r9b, dil
	xor	r9b, -1
	xor	dl, 0
	mov	r10b, r8b
	and	r10b, 0
	and	sil, dl
	mov	r11b, r9b
	and	r11b, 0
	and	dil, dl
	or	r10b, sil
	or	r11b, dil
	xor	r10b, r11b
	or	r8b, r9b
	xor	r8b, -1
	or	dl, 0
	and	r8b, dl
	or	r10b, r8b
	test	r10b, 1
	cmovne	eax, ecx
	mov	dword ptr [rbp - 48], eax
	jmp	.LBB74_7
.LBB74_4:                               
	mov	rax, rsp
	add	rax, -16
	mov	rsp, rax
	mov	rcx, qword ptr [rbp - 56] 
	mov	qword ptr [rax], rcx
	mov	rax, qword ptr [rax]
	add	rax, -8
	mov	rdi, rax
	call	_ZN8CryptoPP8DES_EDE24BaseD2Ev
	mov	edx, 661489466
	mov	esi, 38381230
	mov	r8b, 1
	mov	r9d, dword ptr [x.137]
	mov	r10d, dword ptr [y.138]
	mov	r11d, r9d
	add	r11d, 456646080
	sub	r11d, 1
	sub	r11d, 456646080
	imul	r9d, r11d
	and	r9d, 1
	cmp	r9d, 0
	sete	bl
	cmp	r10d, 10
	setl	r14b
	mov	r15b, bl
	xor	r15b, -1
	mov	r12b, r14b
	xor	r12b, -1
	xor	r8b, 0
	mov	r13b, r15b
	and	r13b, 0
	and	bl, r8b
	mov	al, r12b
	and	al, 0
	and	r14b, r8b
	or	r13b, bl
	or	al, r14b
	xor	r13b, al
	or	r15b, r12b
	xor	r15b, -1
	or	r8b, 0
	and	r15b, r8b
	or	r13b, r15b
	test	r13b, 1
	cmovne	edx, esi
	mov	dword ptr [rbp - 48], edx
	jmp	.LBB74_7
.LBB74_5:
	lea	rsp, [rbp - 40]
	pop	rbx
	pop	r12
	pop	r13
	pop	r14
	pop	r15
	pop	rbp
	ret
.LBB74_6:                               
	mov	rax, rsp
	add	rax, -16
	mov	rsp, rax
	mov	rcx, qword ptr [rbp - 56] 
	mov	qword ptr [rax], rcx
	mov	rax, qword ptr [rax]
	add	rax, -8
	mov	rdi, rax
	call	_ZN8CryptoPP8DES_EDE24BaseD2Ev
	mov	dword ptr [rbp - 48], 1482560777
.LBB74_7:                               
	jmp	.LBB74_1
.Lfunc_end74:
	.size	_ZThn8_N8CryptoPP8DES_EDE24BaseD1Ev, .Lfunc_end74-_ZThn8_N8CryptoPP8DES_EDE24BaseD1Ev
	.cfi_endproc

	.section	.text._ZThn8_N8CryptoPP8DES_EDE24BaseD0Ev,"axG",@progbits,_ZThn8_N8CryptoPP8DES_EDE24BaseD0Ev,comdat
	.weak	_ZThn8_N8CryptoPP8DES_EDE24BaseD0Ev 
	.p2align	4, 0x90
	.type	_ZThn8_N8CryptoPP8DES_EDE24BaseD0Ev,@function
_ZThn8_N8CryptoPP8DES_EDE24BaseD0Ev:    
	.cfi_startproc

	push	rbp
.Lcfi171:
	.cfi_def_cfa_offset 16
.Lcfi172:
	.cfi_offset rbp, -16
	mov	rbp, rsp
.Lcfi173:
	.cfi_def_cfa_register rbp
	mov	qword ptr [rbp - 8], rdi
	mov	rdi, qword ptr [rbp - 8]
	add	rdi, -8
	pop	rbp
	jmp	_ZN8CryptoPP8DES_EDE24BaseD0Ev 
.Lfunc_end75:
	.size	_ZThn8_N8CryptoPP8DES_EDE24BaseD0Ev, .Lfunc_end75-_ZThn8_N8CryptoPP8DES_EDE24BaseD0Ev
	.cfi_endproc

	.section	.text._ZThn8_NK8CryptoPP13AlgorithmImplINS_25SimpleKeyingInterfaceImplINS_8TwoBasesINS_11BlockCipherENS_13DES_EDE2_InfoEEES5_EES6_E13AlgorithmNameB5cxx11Ev,"axG",@progbits,_ZThn8_NK8CryptoPP13AlgorithmImplINS_25SimpleKeyingInterfaceImplINS_8TwoBasesINS_11BlockCipherENS_13DES_EDE2_InfoEEES5_EES6_E13AlgorithmNameB5cxx11Ev,comdat
	.weak	_ZThn8_NK8CryptoPP13AlgorithmImplINS_25SimpleKeyingInterfaceImplINS_8TwoBasesINS_11BlockCipherENS_13DES_EDE2_InfoEEES5_EES6_E13AlgorithmNameB5cxx11Ev 
	.p2align	4, 0x90
	.type	_ZThn8_NK8CryptoPP13AlgorithmImplINS_25SimpleKeyingInterfaceImplINS_8TwoBasesINS_11BlockCipherENS_13DES_EDE2_InfoEEES5_EES6_E13AlgorithmNameB5cxx11Ev,@function
_ZThn8_NK8CryptoPP13AlgorithmImplINS_25SimpleKeyingInterfaceImplINS_8TwoBasesINS_11BlockCipherENS_13DES_EDE2_InfoEEES5_EES6_E13AlgorithmNameB5cxx11Ev: 
	.cfi_startproc

	push	rbp
.Lcfi174:
	.cfi_def_cfa_offset 16
.Lcfi175:
	.cfi_offset rbp, -16
	mov	rbp, rsp
.Lcfi176:
	.cfi_def_cfa_register rbp
	sub	rsp, 16
	mov	rax, rdi
	mov	qword ptr [rbp - 8], rsi
	mov	rsi, qword ptr [rbp - 8]
	add	rsi, -8
	mov	qword ptr [rbp - 16], rax 
	call	_ZNK8CryptoPP13AlgorithmImplINS_25SimpleKeyingInterfaceImplINS_8TwoBasesINS_11BlockCipherENS_13DES_EDE2_InfoEEES5_EES6_E13AlgorithmNameB5cxx11Ev
	mov	rax, qword ptr [rbp - 16] 
	add	rsp, 16
	pop	rbp
	ret
.Lfunc_end76:
	.size	_ZThn8_NK8CryptoPP13AlgorithmImplINS_25SimpleKeyingInterfaceImplINS_8TwoBasesINS_11BlockCipherENS_13DES_EDE2_InfoEEES5_EES6_E13AlgorithmNameB5cxx11Ev, .Lfunc_end76-_ZThn8_NK8CryptoPP13AlgorithmImplINS_25SimpleKeyingInterfaceImplINS_8TwoBasesINS_11BlockCipherENS_13DES_EDE2_InfoEEES5_EES6_E13AlgorithmNameB5cxx11Ev
	.cfi_endproc

	.section	.text._ZThn8_NK8CryptoPP15BlockCipherImplINS_13DES_EDE2_InfoENS_11BlockCipherEE9BlockSizeEv,"axG",@progbits,_ZThn8_NK8CryptoPP15BlockCipherImplINS_13DES_EDE2_InfoENS_11BlockCipherEE9BlockSizeEv,comdat
	.weak	_ZThn8_NK8CryptoPP15BlockCipherImplINS_13DES_EDE2_InfoENS_11BlockCipherEE9BlockSizeEv 
	.p2align	4, 0x90
	.type	_ZThn8_NK8CryptoPP15BlockCipherImplINS_13DES_EDE2_InfoENS_11BlockCipherEE9BlockSizeEv,@function
_ZThn8_NK8CryptoPP15BlockCipherImplINS_13DES_EDE2_InfoENS_11BlockCipherEE9BlockSizeEv: 
	.cfi_startproc

	push	rbp
.Lcfi177:
	.cfi_def_cfa_offset 16
.Lcfi178:
	.cfi_offset rbp, -16
	mov	rbp, rsp
.Lcfi179:
	.cfi_def_cfa_register rbp
	mov	qword ptr [rbp - 8], rdi
	mov	rdi, qword ptr [rbp - 8]
	add	rdi, -8
	pop	rbp
	jmp	_ZNK8CryptoPP15BlockCipherImplINS_13DES_EDE2_InfoENS_11BlockCipherEE9BlockSizeEv 
.Lfunc_end77:
	.size	_ZThn8_NK8CryptoPP15BlockCipherImplINS_13DES_EDE2_InfoENS_11BlockCipherEE9BlockSizeEv, .Lfunc_end77-_ZThn8_NK8CryptoPP15BlockCipherImplINS_13DES_EDE2_InfoENS_11BlockCipherEE9BlockSizeEv
	.cfi_endproc

	.section	.text._ZN8CryptoPP8DES_EDE34BaseD2Ev,"axG",@progbits,_ZN8CryptoPP8DES_EDE34BaseD2Ev,comdat
	.weak	_ZN8CryptoPP8DES_EDE34BaseD2Ev 
	.p2align	4, 0x90
	.type	_ZN8CryptoPP8DES_EDE34BaseD2Ev,@function
_ZN8CryptoPP8DES_EDE34BaseD2Ev:         
.Lfunc_begin9:
	.cfi_startproc
	.cfi_personality 3, __gxx_personality_v0
	.cfi_lsda 3, .Lexception9

	push	rbp
.Lcfi180:
	.cfi_def_cfa_offset 16
.Lcfi181:
	.cfi_offset rbp, -16
	mov	rbp, rsp
.Lcfi182:
	.cfi_def_cfa_register rbp
	sub	rsp, 48
	mov	qword ptr [rbp - 8], rdi
	mov	rdi, qword ptr [rbp - 8]
	mov	qword ptr [rdi], _ZTVN8CryptoPP8DES_EDE34BaseE+16
	mov	qword ptr [rdi + 8], _ZTVN8CryptoPP8DES_EDE34BaseE+184
	mov	rax, rdi
	add	rax, 336
.Ltmp80:
	mov	qword ptr [rbp - 32], rdi 
	mov	rdi, rax
	call	_ZN8CryptoPP6RawDESD2Ev
.Ltmp81:
	jmp	.LBB78_1
.LBB78_1:
	mov	rax, qword ptr [rbp - 32] 
	add	rax, 176
.Ltmp85:
	mov	rdi, rax
	call	_ZN8CryptoPP6RawDESD2Ev
.Ltmp86:
	jmp	.LBB78_2
.LBB78_2:
	mov	rax, qword ptr [rbp - 32] 
	add	rax, 16
.Ltmp90:
	mov	rdi, rax
	call	_ZN8CryptoPP6RawDESD2Ev
.Ltmp91:
	jmp	.LBB78_3
.LBB78_3:
	mov	rax, qword ptr [rbp - 32] 
	mov	rdi, rax
	call	_ZN8CryptoPP15BlockCipherImplINS_13DES_EDE3_InfoENS_11BlockCipherEED2Ev
	add	rsp, 48
	pop	rbp
	ret
.LBB78_4:
.Ltmp82:
	mov	ecx, edx
	mov	qword ptr [rbp - 16], rax
	mov	dword ptr [rbp - 20], ecx
	mov	rax, qword ptr [rbp - 32] 
	add	rax, 176
.Ltmp83:
	mov	rdi, rax
	call	_ZN8CryptoPP6RawDESD2Ev
.Ltmp84:
	jmp	.LBB78_6
.LBB78_5:
.Ltmp87:
	mov	ecx, edx
	mov	qword ptr [rbp - 16], rax
	mov	dword ptr [rbp - 20], ecx
	jmp	.LBB78_8
.LBB78_6:
	jmp	.LBB78_8
.LBB78_7:
.Ltmp92:
	mov	ecx, edx
	mov	qword ptr [rbp - 16], rax
	mov	dword ptr [rbp - 20], ecx
	jmp	.LBB78_10
.LBB78_8:
	mov	rax, qword ptr [rbp - 32] 
	add	rax, 16
.Ltmp88:
	mov	rdi, rax
	call	_ZN8CryptoPP6RawDESD2Ev
.Ltmp89:
	jmp	.LBB78_9
.LBB78_9:
	jmp	.LBB78_10
.LBB78_10:
.Ltmp93:
	mov	rdi, qword ptr [rbp - 32] 
	call	_ZN8CryptoPP15BlockCipherImplINS_13DES_EDE3_InfoENS_11BlockCipherEED2Ev
.Ltmp94:
	jmp	.LBB78_11
.LBB78_11:
	jmp	.LBB78_12
.LBB78_12:
	mov	rdi, qword ptr [rbp - 16]
	call	_Unwind_Resume
.LBB78_13:
.Ltmp95:
	mov	ecx, edx
	mov	rdi, rax
	mov	dword ptr [rbp - 36], ecx 
	call	__clang_call_terminate
.Lfunc_end78:
	.size	_ZN8CryptoPP8DES_EDE34BaseD2Ev, .Lfunc_end78-_ZN8CryptoPP8DES_EDE34BaseD2Ev
	.cfi_endproc
	.section	.gcc_except_table,"a",@progbits
	.p2align	2
GCC_except_table78:
.Lexception9:
	.byte	255                     
	.byte	3                       
	.asciz	"\326\200\200"          
	.byte	3                       
	.byte	78                      
	.long	.Ltmp80-.Lfunc_begin9   
	.long	.Ltmp81-.Ltmp80         
	.long	.Ltmp82-.Lfunc_begin9   
	.byte	0                       
	.long	.Ltmp85-.Lfunc_begin9   
	.long	.Ltmp86-.Ltmp85         
	.long	.Ltmp87-.Lfunc_begin9   
	.byte	0                       
	.long	.Ltmp90-.Lfunc_begin9   
	.long	.Ltmp91-.Ltmp90         
	.long	.Ltmp92-.Lfunc_begin9   
	.byte	0                       
	.long	.Ltmp91-.Lfunc_begin9   
	.long	.Ltmp83-.Ltmp91         
	.long	0                       
	.byte	0                       
	.long	.Ltmp83-.Lfunc_begin9   
	.long	.Ltmp94-.Ltmp83         
	.long	.Ltmp95-.Lfunc_begin9   
	.byte	1                       
	.long	.Ltmp94-.Lfunc_begin9   
	.long	.Lfunc_end78-.Ltmp94    
	.long	0                       
	.byte	0                       
	.byte	1                       

	.byte	0                       

	.long	0                       
	.p2align	2

	.section	.text._ZN8CryptoPP8DES_EDE34BaseD0Ev,"axG",@progbits,_ZN8CryptoPP8DES_EDE34BaseD0Ev,comdat
	.weak	_ZN8CryptoPP8DES_EDE34BaseD0Ev 
	.p2align	4, 0x90
	.type	_ZN8CryptoPP8DES_EDE34BaseD0Ev,@function
_ZN8CryptoPP8DES_EDE34BaseD0Ev:         

	push	rbp
	mov	rbp, rsp
	push	rbx
	sub	rsp, 56
	mov	eax, dword ptr [x.145]
	mov	ecx, dword ptr [y.146]
	mov	edx, eax
	sub	edx, 1028391888
	sub	edx, 1
	add	edx, 1028391888
	imul	eax, edx
	and	eax, 1
	cmp	eax, 0
	sete	sil
	and	sil, 1
	mov	byte ptr [rbp - 10], sil
	cmp	ecx, 10
	setl	sil
	and	sil, 1
	mov	byte ptr [rbp - 9], sil
	mov	dword ptr [rbp - 16], -1327001772
	mov	qword ptr [rbp - 24], rdi 
.LBB79_1:                               
	mov	eax, dword ptr [rbp - 16]
	mov	ecx, eax
	sub	ecx, -2095453642
	mov	dword ptr [rbp - 28], eax 
	mov	dword ptr [rbp - 32], ecx 
	je	.LBB79_10
	jmp	.LBB79_12
.LBB79_12:                              
	mov	eax, dword ptr [rbp - 28] 
	sub	eax, -1913035691
	mov	dword ptr [rbp - 36], eax 
	je	.LBB79_6
	jmp	.LBB79_13
.LBB79_13:                              
	mov	eax, dword ptr [rbp - 28] 
	sub	eax, -1409374022
	mov	dword ptr [rbp - 40], eax 
	je	.LBB79_5
	jmp	.LBB79_14
.LBB79_14:                              
	mov	eax, dword ptr [rbp - 28] 
	sub	eax, -1327001772
	mov	dword ptr [rbp - 44], eax 
	je	.LBB79_3
	jmp	.LBB79_15
.LBB79_15:                              
	mov	eax, dword ptr [rbp - 28] 
	sub	eax, -754370175
	mov	dword ptr [rbp - 48], eax 
	je	.LBB79_8
	jmp	.LBB79_16
.LBB79_16:                              
	mov	eax, dword ptr [rbp - 28] 
	sub	eax, 264890913
	mov	dword ptr [rbp - 52], eax 
	je	.LBB79_7
	jmp	.LBB79_17
.LBB79_17:                              
	mov	eax, dword ptr [rbp - 28] 
	sub	eax, 688945592
	mov	dword ptr [rbp - 56], eax 
	je	.LBB79_9
	jmp	.LBB79_18
.LBB79_18:                              
	mov	eax, dword ptr [rbp - 28] 
	sub	eax, 1402649367
	mov	dword ptr [rbp - 60], eax 
	je	.LBB79_4
	jmp	.LBB79_2
.LBB79_2:                               
	jmp	.LBB79_11
.LBB79_3:                               
	mov	eax, 688945592
	mov	ecx, 1402649367
	mov	dl, byte ptr [rbp - 10]
	mov	sil, byte ptr [rbp - 9]
	mov	dil, dl
	and	dil, sil
	xor	dl, sil
	or	dil, dl
	test	dil, 1
	cmovne	eax, ecx
	mov	dword ptr [rbp - 16], eax
	jmp	.LBB79_11
.LBB79_4:                               
	mov	eax, 688945592
	mov	ecx, 2885593274
	mov	rdx, rsp
	add	rdx, -16
	mov	rsp, rdx
	mov	rsi, qword ptr [rbp - 24] 
	mov	qword ptr [rdx], rsi
	ud2
	mov	edi, dword ptr [x.145]
	mov	r8d, dword ptr [y.146]
	mov	r9d, edi
	sub	r9d, -364318536
	sub	r9d, 1
	add	r9d, -364318536
	imul	edi, r9d
	and	edi, 1
	cmp	edi, 0
	sete	r10b
	cmp	r8d, 10
	setl	r11b
	mov	bl, r10b
	and	bl, r11b
	xor	r10b, r11b
	or	bl, r10b
	test	bl, 1
	cmovne	eax, ecx
	mov	dword ptr [rbp - 16], eax
	jmp	.LBB79_11
.LBB79_5:
.LBB79_6:                               
	mov	eax, 2199513654
	mov	ecx, 264890913
	mov	edx, dword ptr [x.145]
	mov	esi, dword ptr [y.146]
	mov	edi, edx
	sub	edi, 2045903221
	sub	edi, 1
	add	edi, 2045903221
	imul	edx, edi
	and	edx, 1
	cmp	edx, 0
	sete	r8b
	cmp	esi, 10
	setl	r9b
	mov	r10b, r8b
	and	r10b, r9b
	xor	r8b, r9b
	or	r10b, r8b
	test	r10b, 1
	cmovne	eax, ecx
	mov	dword ptr [rbp - 16], eax
	jmp	.LBB79_11
.LBB79_7:                               
	mov	eax, 2199513654
	mov	ecx, 3540597121
	mov	edx, dword ptr [x.145]
	mov	esi, dword ptr [y.146]
	mov	edi, edx
	add	edi, 1356312459
	sub	edi, 1
	sub	edi, 1356312459
	imul	edx, edi
	and	edx, 1
	cmp	edx, 0
	sete	r8b
	cmp	esi, 10
	setl	r9b
	mov	r10b, r8b
	and	r10b, r9b
	xor	r8b, r9b
	or	r10b, r8b
	test	r10b, 1
	cmovne	eax, ecx
	mov	dword ptr [rbp - 16], eax
	jmp	.LBB79_11
.LBB79_8:
	lea	rsp, [rbp - 8]
	pop	rbx
	pop	rbp
	ret
.LBB79_9:                               
	mov	rax, rsp
	add	rax, -16
	mov	rsp, rax
	mov	rcx, qword ptr [rbp - 24] 
	mov	qword ptr [rax], rcx
	ud2
	mov	dword ptr [rbp - 16], 1402649367
	jmp	.LBB79_11
.LBB79_10:                              
	mov	dword ptr [rbp - 16], 264890913
.LBB79_11:                              
	jmp	.LBB79_1
.Lfunc_end79:
	.size	_ZN8CryptoPP8DES_EDE34BaseD0Ev, .Lfunc_end79-_ZN8CryptoPP8DES_EDE34BaseD0Ev

	.section	.text._ZNK8CryptoPP25SimpleKeyingInterfaceImplINS_8TwoBasesINS_11BlockCipherENS_13DES_EDE3_InfoEEES4_E12MinKeyLengthEv,"axG",@progbits,_ZNK8CryptoPP25SimpleKeyingInterfaceImplINS_8TwoBasesINS_11BlockCipherENS_13DES_EDE3_InfoEEES4_E12MinKeyLengthEv,comdat
	.weak	_ZNK8CryptoPP25SimpleKeyingInterfaceImplINS_8TwoBasesINS_11BlockCipherENS_13DES_EDE3_InfoEEES4_E12MinKeyLengthEv 
	.p2align	4, 0x90
	.type	_ZNK8CryptoPP25SimpleKeyingInterfaceImplINS_8TwoBasesINS_11BlockCipherENS_13DES_EDE3_InfoEEES4_E12MinKeyLengthEv,@function
_ZNK8CryptoPP25SimpleKeyingInterfaceImplINS_8TwoBasesINS_11BlockCipherENS_13DES_EDE3_InfoEEES4_E12MinKeyLengthEv: 

	push	rbp
	mov	rbp, rsp
	mov	eax, 24

	mov	qword ptr [rbp - 8], rdi
	pop	rbp
	ret
.Lfunc_end80:
	.size	_ZNK8CryptoPP25SimpleKeyingInterfaceImplINS_8TwoBasesINS_11BlockCipherENS_13DES_EDE3_InfoEEES4_E12MinKeyLengthEv, .Lfunc_end80-_ZNK8CryptoPP25SimpleKeyingInterfaceImplINS_8TwoBasesINS_11BlockCipherENS_13DES_EDE3_InfoEEES4_E12MinKeyLengthEv

	.section	.text._ZNK8CryptoPP25SimpleKeyingInterfaceImplINS_8TwoBasesINS_11BlockCipherENS_13DES_EDE3_InfoEEES4_E12MaxKeyLengthEv,"axG",@progbits,_ZNK8CryptoPP25SimpleKeyingInterfaceImplINS_8TwoBasesINS_11BlockCipherENS_13DES_EDE3_InfoEEES4_E12MaxKeyLengthEv,comdat
	.weak	_ZNK8CryptoPP25SimpleKeyingInterfaceImplINS_8TwoBasesINS_11BlockCipherENS_13DES_EDE3_InfoEEES4_E12MaxKeyLengthEv 
	.p2align	4, 0x90
	.type	_ZNK8CryptoPP25SimpleKeyingInterfaceImplINS_8TwoBasesINS_11BlockCipherENS_13DES_EDE3_InfoEEES4_E12MaxKeyLengthEv,@function
_ZNK8CryptoPP25SimpleKeyingInterfaceImplINS_8TwoBasesINS_11BlockCipherENS_13DES_EDE3_InfoEEES4_E12MaxKeyLengthEv: 

	push	rbp
	mov	rbp, rsp
	push	rbx
	sub	rsp, 40
	mov	eax, dword ptr [x.149]
	mov	ecx, dword ptr [y.150]
	mov	edx, eax
	add	edx, -1924516178
	sub	edx, 1
	sub	edx, -1924516178
	imul	eax, edx
	and	eax, 1
	cmp	eax, 0
	sete	sil
	and	sil, 1
	mov	byte ptr [rbp - 10], sil
	cmp	ecx, 10
	setl	sil
	and	sil, 1
	mov	byte ptr [rbp - 9], sil
	mov	dword ptr [rbp - 16], 378706030
	mov	qword ptr [rbp - 24], rdi 
.LBB81_1:                               
	mov	eax, dword ptr [rbp - 16]
	mov	ecx, eax
	sub	ecx, -1575755062
	mov	dword ptr [rbp - 28], eax 
	mov	dword ptr [rbp - 32], ecx 
	je	.LBB81_5
	jmp	.LBB81_8
.LBB81_8:                               
	mov	eax, dword ptr [rbp - 28] 
	sub	eax, -686214532
	mov	dword ptr [rbp - 36], eax 
	je	.LBB81_4
	jmp	.LBB81_9
.LBB81_9:                               
	mov	eax, dword ptr [rbp - 28] 
	sub	eax, 378706030
	mov	dword ptr [rbp - 40], eax 
	je	.LBB81_3
	jmp	.LBB81_10
.LBB81_10:                              
	mov	eax, dword ptr [rbp - 28] 
	sub	eax, 1684117053
	mov	dword ptr [rbp - 44], eax 
	je	.LBB81_6
	jmp	.LBB81_2
.LBB81_2:                               
	jmp	.LBB81_7
.LBB81_3:                               
	mov	eax, 1684117053
	mov	ecx, 3608752764
	mov	dl, byte ptr [rbp - 10]
	mov	sil, byte ptr [rbp - 9]
	mov	dil, dl
	and	dil, sil
	xor	dl, sil
	or	dil, dl
	test	dil, 1
	cmovne	eax, ecx
	mov	dword ptr [rbp - 16], eax
	jmp	.LBB81_7
.LBB81_4:                               
	mov	eax, 1684117053
	mov	ecx, 2719212234
	mov	rdx, rsp
	add	rdx, -16
	mov	rsp, rdx
	mov	rsi, qword ptr [rbp - 24] 
	mov	qword ptr [rdx], rsi
	mov	edi, dword ptr [x.149]
	mov	r8d, dword ptr [y.150]
	mov	r9d, edi
	sub	r9d, 831841958
	sub	r9d, 1
	add	r9d, 831841958
	imul	edi, r9d
	and	edi, 1
	cmp	edi, 0
	sete	r10b
	cmp	r8d, 10
	setl	r11b
	mov	bl, r10b
	and	bl, r11b
	xor	r10b, r11b
	or	bl, r10b
	test	bl, 1
	cmovne	eax, ecx
	mov	dword ptr [rbp - 16], eax
	jmp	.LBB81_7
.LBB81_5:
	mov	eax, 24

	lea	rsp, [rbp - 8]
	pop	rbx
	pop	rbp
	ret
.LBB81_6:                               
	mov	rax, rsp
	add	rax, -16
	mov	rsp, rax
	mov	rcx, qword ptr [rbp - 24] 
	mov	qword ptr [rax], rcx
	mov	dword ptr [rbp - 16], -686214532
.LBB81_7:                               
	jmp	.LBB81_1
.Lfunc_end81:
	.size	_ZNK8CryptoPP25SimpleKeyingInterfaceImplINS_8TwoBasesINS_11BlockCipherENS_13DES_EDE3_InfoEEES4_E12MaxKeyLengthEv, .Lfunc_end81-_ZNK8CryptoPP25SimpleKeyingInterfaceImplINS_8TwoBasesINS_11BlockCipherENS_13DES_EDE3_InfoEEES4_E12MaxKeyLengthEv

	.section	.text._ZNK8CryptoPP25SimpleKeyingInterfaceImplINS_8TwoBasesINS_11BlockCipherENS_13DES_EDE3_InfoEEES4_E16DefaultKeyLengthEv,"axG",@progbits,_ZNK8CryptoPP25SimpleKeyingInterfaceImplINS_8TwoBasesINS_11BlockCipherENS_13DES_EDE3_InfoEEES4_E16DefaultKeyLengthEv,comdat
	.weak	_ZNK8CryptoPP25SimpleKeyingInterfaceImplINS_8TwoBasesINS_11BlockCipherENS_13DES_EDE3_InfoEEES4_E16DefaultKeyLengthEv 
	.p2align	4, 0x90
	.type	_ZNK8CryptoPP25SimpleKeyingInterfaceImplINS_8TwoBasesINS_11BlockCipherENS_13DES_EDE3_InfoEEES4_E16DefaultKeyLengthEv,@function
_ZNK8CryptoPP25SimpleKeyingInterfaceImplINS_8TwoBasesINS_11BlockCipherENS_13DES_EDE3_InfoEEES4_E16DefaultKeyLengthEv: 

	push	rbp
	mov	rbp, rsp
	mov	eax, 24

	mov	qword ptr [rbp - 8], rdi
	pop	rbp
	ret
.Lfunc_end82:
	.size	_ZNK8CryptoPP25SimpleKeyingInterfaceImplINS_8TwoBasesINS_11BlockCipherENS_13DES_EDE3_InfoEEES4_E16DefaultKeyLengthEv, .Lfunc_end82-_ZNK8CryptoPP25SimpleKeyingInterfaceImplINS_8TwoBasesINS_11BlockCipherENS_13DES_EDE3_InfoEEES4_E16DefaultKeyLengthEv

	.section	.text._ZNK8CryptoPP25SimpleKeyingInterfaceImplINS_8TwoBasesINS_11BlockCipherENS_13DES_EDE3_InfoEEES4_E17GetValidKeyLengthEm,"axG",@progbits,_ZNK8CryptoPP25SimpleKeyingInterfaceImplINS_8TwoBasesINS_11BlockCipherENS_13DES_EDE3_InfoEEES4_E17GetValidKeyLengthEm,comdat
	.weak	_ZNK8CryptoPP25SimpleKeyingInterfaceImplINS_8TwoBasesINS_11BlockCipherENS_13DES_EDE3_InfoEEES4_E17GetValidKeyLengthEm 
	.p2align	4, 0x90
	.type	_ZNK8CryptoPP25SimpleKeyingInterfaceImplINS_8TwoBasesINS_11BlockCipherENS_13DES_EDE3_InfoEEES4_E17GetValidKeyLengthEm,@function
_ZNK8CryptoPP25SimpleKeyingInterfaceImplINS_8TwoBasesINS_11BlockCipherENS_13DES_EDE3_InfoEEES4_E17GetValidKeyLengthEm: 
	.cfi_startproc

	push	rbp
.Lcfi183:
	.cfi_def_cfa_offset 16
.Lcfi184:
	.cfi_offset rbp, -16
	mov	rbp, rsp
.Lcfi185:
	.cfi_def_cfa_register rbp
	push	r15
	push	r14
	push	r12
	push	rbx
	sub	rsp, 64
.Lcfi186:
	.cfi_offset rbx, -48
.Lcfi187:
	.cfi_offset r12, -40
.Lcfi188:
	.cfi_offset r14, -32
.Lcfi189:
	.cfi_offset r15, -24
	xor	eax, eax
	mov	ecx, dword ptr [x.153]
	mov	edx, dword ptr [y.154]
	sub	eax, 1
	mov	r8d, ecx
	add	r8d, eax
	imul	ecx, r8d
	and	ecx, 1
	cmp	ecx, 0
	sete	r9b
	and	r9b, 1
	mov	byte ptr [rbp - 42], r9b
	cmp	edx, 10
	setl	r9b
	and	r9b, 1
	mov	byte ptr [rbp - 41], r9b
	mov	dword ptr [rbp - 48], -2066016653
	mov	qword ptr [rbp - 56], rdi 
	mov	qword ptr [rbp - 64], rsi 
.LBB83_1:                               
	mov	eax, dword ptr [rbp - 48]
	mov	ecx, eax
	sub	ecx, -2066016653
	mov	dword ptr [rbp - 68], eax 
	mov	dword ptr [rbp - 72], ecx 
	je	.LBB83_3
	jmp	.LBB83_8
.LBB83_8:                               
	mov	eax, dword ptr [rbp - 68] 
	sub	eax, -541212559
	mov	dword ptr [rbp - 76], eax 
	je	.LBB83_6
	jmp	.LBB83_9
.LBB83_9:                               
	mov	eax, dword ptr [rbp - 68] 
	sub	eax, 378312853
	mov	dword ptr [rbp - 80], eax 
	je	.LBB83_4
	jmp	.LBB83_10
.LBB83_10:                              
	mov	eax, dword ptr [rbp - 68] 
	sub	eax, 947856305
	mov	dword ptr [rbp - 84], eax 
	je	.LBB83_5
	jmp	.LBB83_2
.LBB83_2:                               
	jmp	.LBB83_7
.LBB83_3:                               
	mov	eax, 3753754737
	mov	ecx, 378312853
	mov	dl, 1
	mov	sil, byte ptr [rbp - 42]
	mov	dil, byte ptr [rbp - 41]
	mov	r8b, sil
	xor	r8b, -1
	mov	r9b, dil
	xor	r9b, -1
	xor	dl, 1
	mov	r10b, r8b
	and	r10b, -1
	and	sil, dl
	mov	r11b, r9b
	and	r11b, -1
	and	dil, dl
	or	r10b, sil
	or	r11b, dil
	xor	r10b, r11b
	or	r8b, r9b
	xor	r8b, -1
	or	dl, 1
	and	r8b, dl
	or	r10b, r8b
	test	r10b, 1
	cmovne	eax, ecx
	mov	dword ptr [rbp - 48], eax
	jmp	.LBB83_7
.LBB83_4:                               
	mov	rax, rsp
	add	rax, -16
	mov	rsp, rax
	mov	rcx, rsp
	add	rcx, -16
	mov	rsp, rcx
	mov	rdx, qword ptr [rbp - 56] 
	mov	qword ptr [rax], rdx
	mov	rax, qword ptr [rbp - 64] 
	mov	qword ptr [rcx], rax
	mov	rdi, qword ptr [rcx]
	call	_ZN8CryptoPP14FixedKeyLengthILj24ELj4ELj0EE23StaticGetValidKeyLengthEm
	mov	esi, 3753754737
	mov	r8d, 947856305
	xor	r9d, r9d
	mov	qword ptr [rbp - 40], rax
	mov	r10d, dword ptr [x.153]
	mov	r11d, dword ptr [y.154]
	sub	r9d, 1
	mov	ebx, r10d
	add	ebx, r9d
	imul	r10d, ebx
	and	r10d, 1
	cmp	r10d, 0
	sete	r14b
	cmp	r11d, 10
	setl	r15b
	mov	r12b, r14b
	and	r12b, r15b
	xor	r14b, r15b
	or	r12b, r14b
	test	r12b, 1
	cmovne	esi, r8d
	mov	dword ptr [rbp - 48], esi
	jmp	.LBB83_7
.LBB83_5:
	mov	rax, qword ptr [rbp - 40]
	lea	rsp, [rbp - 32]
	pop	rbx
	pop	r12
	pop	r14
	pop	r15
	pop	rbp
	ret
.LBB83_6:                               
	mov	rax, rsp
	add	rax, -16
	mov	rsp, rax
	mov	rcx, rsp
	add	rcx, -16
	mov	rsp, rcx
	mov	rdx, qword ptr [rbp - 56] 
	mov	qword ptr [rax], rdx
	mov	rax, qword ptr [rbp - 64] 
	mov	qword ptr [rcx], rax
	mov	rdi, qword ptr [rcx]
	call	_ZN8CryptoPP14FixedKeyLengthILj24ELj4ELj0EE23StaticGetValidKeyLengthEm
	mov	dword ptr [rbp - 48], 378312853
	mov	qword ptr [rbp - 96], rax 
.LBB83_7:                               
	jmp	.LBB83_1
.Lfunc_end83:
	.size	_ZNK8CryptoPP25SimpleKeyingInterfaceImplINS_8TwoBasesINS_11BlockCipherENS_13DES_EDE3_InfoEEES4_E17GetValidKeyLengthEm, .Lfunc_end83-_ZNK8CryptoPP25SimpleKeyingInterfaceImplINS_8TwoBasesINS_11BlockCipherENS_13DES_EDE3_InfoEEES4_E17GetValidKeyLengthEm
	.cfi_endproc

	.section	.text._ZNK8CryptoPP25SimpleKeyingInterfaceImplINS_8TwoBasesINS_11BlockCipherENS_13DES_EDE3_InfoEEES4_E13IVRequirementEv,"axG",@progbits,_ZNK8CryptoPP25SimpleKeyingInterfaceImplINS_8TwoBasesINS_11BlockCipherENS_13DES_EDE3_InfoEEES4_E13IVRequirementEv,comdat
	.weak	_ZNK8CryptoPP25SimpleKeyingInterfaceImplINS_8TwoBasesINS_11BlockCipherENS_13DES_EDE3_InfoEEES4_E13IVRequirementEv 
	.p2align	4, 0x90
	.type	_ZNK8CryptoPP25SimpleKeyingInterfaceImplINS_8TwoBasesINS_11BlockCipherENS_13DES_EDE3_InfoEEES4_E13IVRequirementEv,@function
_ZNK8CryptoPP25SimpleKeyingInterfaceImplINS_8TwoBasesINS_11BlockCipherENS_13DES_EDE3_InfoEEES4_E13IVRequirementEv: 

	push	rbp
	mov	rbp, rsp
	push	r15
	push	r14
	push	r13
	push	r12
	push	rbx
	sub	rsp, 40
	xor	eax, eax
	mov	ecx, dword ptr [x.155]
	mov	edx, dword ptr [y.156]
	sub	eax, 1
	mov	esi, ecx
	add	esi, eax
	imul	ecx, esi
	and	ecx, 1
	cmp	ecx, 0
	sete	r8b
	and	r8b, 1
	mov	byte ptr [rbp - 42], r8b
	cmp	edx, 10
	setl	r8b
	and	r8b, 1
	mov	byte ptr [rbp - 41], r8b
	mov	dword ptr [rbp - 48], 1790366502
	mov	qword ptr [rbp - 56], rdi 
.LBB84_1:                               
	mov	eax, dword ptr [rbp - 48]
	mov	ecx, eax
	sub	ecx, -117318039
	mov	dword ptr [rbp - 60], eax 
	mov	dword ptr [rbp - 64], ecx 
	je	.LBB84_4
	jmp	.LBB84_8
.LBB84_8:                               
	mov	eax, dword ptr [rbp - 60] 
	sub	eax, 568555468
	mov	dword ptr [rbp - 68], eax 
	je	.LBB84_5
	jmp	.LBB84_9
.LBB84_9:                               
	mov	eax, dword ptr [rbp - 60] 
	sub	eax, 1790366502
	mov	dword ptr [rbp - 72], eax 
	je	.LBB84_3
	jmp	.LBB84_10
.LBB84_10:                              
	mov	eax, dword ptr [rbp - 60] 
	sub	eax, 1844209965
	mov	dword ptr [rbp - 76], eax 
	je	.LBB84_6
	jmp	.LBB84_2
.LBB84_2:                               
	jmp	.LBB84_7
.LBB84_3:                               
	mov	eax, 1844209965
	mov	ecx, 4177649257
	mov	dl, byte ptr [rbp - 42]
	mov	sil, byte ptr [rbp - 41]
	mov	dil, dl
	and	dil, sil
	xor	dl, sil
	or	dil, dl
	test	dil, 1
	cmovne	eax, ecx
	mov	dword ptr [rbp - 48], eax
	jmp	.LBB84_7
.LBB84_4:                               
	mov	eax, 1844209965
	mov	ecx, 568555468
	mov	dl, 1
	xor	esi, esi
	mov	rdi, rsp
	add	rdi, -16
	mov	rsp, rdi
	mov	r8, qword ptr [rbp - 56] 
	mov	qword ptr [rdi], r8
	mov	r9d, dword ptr [x.155]
	mov	r10d, dword ptr [y.156]
	sub	esi, 1
	mov	r11d, r9d
	add	r11d, esi
	imul	r9d, r11d
	and	r9d, 1
	cmp	r9d, 0
	sete	bl
	cmp	r10d, 10
	setl	r14b
	mov	r15b, bl
	xor	r15b, -1
	mov	r12b, r14b
	xor	r12b, -1
	xor	dl, 1
	mov	r13b, r15b
	and	r13b, -1
	and	bl, dl
	mov	sil, r12b
	and	sil, -1
	and	r14b, dl
	or	r13b, bl
	or	sil, r14b
	xor	r13b, sil
	or	r15b, r12b
	xor	r15b, -1
	or	dl, 1
	and	r15b, dl
	or	r13b, r15b
	test	r13b, 1
	cmovne	eax, ecx
	mov	dword ptr [rbp - 48], eax
	jmp	.LBB84_7
.LBB84_5:
	mov	eax, 4
	lea	rsp, [rbp - 40]
	pop	rbx
	pop	r12
	pop	r13
	pop	r14
	pop	r15
	pop	rbp
	ret
.LBB84_6:                               
	mov	rax, rsp
	add	rax, -16
	mov	rsp, rax
	mov	rcx, qword ptr [rbp - 56] 
	mov	qword ptr [rax], rcx
	mov	dword ptr [rbp - 48], -117318039
.LBB84_7:                               
	jmp	.LBB84_1
.Lfunc_end84:
	.size	_ZNK8CryptoPP25SimpleKeyingInterfaceImplINS_8TwoBasesINS_11BlockCipherENS_13DES_EDE3_InfoEEES4_E13IVRequirementEv, .Lfunc_end84-_ZNK8CryptoPP25SimpleKeyingInterfaceImplINS_8TwoBasesINS_11BlockCipherENS_13DES_EDE3_InfoEEES4_E13IVRequirementEv

	.section	.text._ZNK8CryptoPP25SimpleKeyingInterfaceImplINS_8TwoBasesINS_11BlockCipherENS_13DES_EDE3_InfoEEES4_E6IVSizeEv,"axG",@progbits,_ZNK8CryptoPP25SimpleKeyingInterfaceImplINS_8TwoBasesINS_11BlockCipherENS_13DES_EDE3_InfoEEES4_E6IVSizeEv,comdat
	.weak	_ZNK8CryptoPP25SimpleKeyingInterfaceImplINS_8TwoBasesINS_11BlockCipherENS_13DES_EDE3_InfoEEES4_E6IVSizeEv 
	.p2align	4, 0x90
	.type	_ZNK8CryptoPP25SimpleKeyingInterfaceImplINS_8TwoBasesINS_11BlockCipherENS_13DES_EDE3_InfoEEES4_E6IVSizeEv,@function
_ZNK8CryptoPP25SimpleKeyingInterfaceImplINS_8TwoBasesINS_11BlockCipherENS_13DES_EDE3_InfoEEES4_E6IVSizeEv: 

	push	rbp
	mov	rbp, rsp
	xor	eax, eax
	mov	qword ptr [rbp - 8], rdi
	pop	rbp
	ret
.Lfunc_end85:
	.size	_ZNK8CryptoPP25SimpleKeyingInterfaceImplINS_8TwoBasesINS_11BlockCipherENS_13DES_EDE3_InfoEEES4_E6IVSizeEv, .Lfunc_end85-_ZNK8CryptoPP25SimpleKeyingInterfaceImplINS_8TwoBasesINS_11BlockCipherENS_13DES_EDE3_InfoEEES4_E6IVSizeEv

	.section	.text._ZNK8CryptoPP13AlgorithmImplINS_25SimpleKeyingInterfaceImplINS_8TwoBasesINS_11BlockCipherENS_13DES_EDE3_InfoEEES5_EES6_E13AlgorithmNameB5cxx11Ev,"axG",@progbits,_ZNK8CryptoPP13AlgorithmImplINS_25SimpleKeyingInterfaceImplINS_8TwoBasesINS_11BlockCipherENS_13DES_EDE3_InfoEEES5_EES6_E13AlgorithmNameB5cxx11Ev,comdat
	.weak	_ZNK8CryptoPP13AlgorithmImplINS_25SimpleKeyingInterfaceImplINS_8TwoBasesINS_11BlockCipherENS_13DES_EDE3_InfoEEES5_EES6_E13AlgorithmNameB5cxx11Ev 
	.p2align	4, 0x90
	.type	_ZNK8CryptoPP13AlgorithmImplINS_25SimpleKeyingInterfaceImplINS_8TwoBasesINS_11BlockCipherENS_13DES_EDE3_InfoEEES5_EES6_E13AlgorithmNameB5cxx11Ev,@function
_ZNK8CryptoPP13AlgorithmImplINS_25SimpleKeyingInterfaceImplINS_8TwoBasesINS_11BlockCipherENS_13DES_EDE3_InfoEEES5_EES6_E13AlgorithmNameB5cxx11Ev: 
.Lfunc_begin10:
	.cfi_startproc
	.cfi_personality 3, __gxx_personality_v0
	.cfi_lsda 3, .Lexception10

	push	rbp
.Lcfi190:
	.cfi_def_cfa_offset 16
.Lcfi191:
	.cfi_offset rbp, -16
	mov	rbp, rsp
.Lcfi192:
	.cfi_def_cfa_register rbp
	sub	rsp, 64
	mov	rax, rdi
	mov	qword ptr [rbp - 8], rsi
	mov	qword ptr [rbp - 40], rax 
	mov	qword ptr [rbp - 48], rdi 
	call	_ZN8CryptoPP13DES_EDE3_Info19StaticAlgorithmNameEv
	lea	rsi, [rbp - 16]
	mov	rdi, rsi
	mov	qword ptr [rbp - 56], rax 
	mov	qword ptr [rbp - 64], rsi 
	call	_ZNSaIcEC1Ev
.Ltmp96:
	mov	rdi, qword ptr [rbp - 48] 
	mov	rsi, qword ptr [rbp - 56] 
	mov	rdx, qword ptr [rbp - 64] 
	call	_ZNSt7__cxx1112basic_stringIcSt11char_traitsIcESaIcEEC1EPKcRKS3_
.Ltmp97:
	jmp	.LBB86_1
.LBB86_1:
	lea	rdi, [rbp - 16]
	call	_ZNSaIcED1Ev
	mov	rax, qword ptr [rbp - 40] 
	add	rsp, 64
	pop	rbp
	ret
.LBB86_2:
.Ltmp98:
	lea	rdi, [rbp - 16]
	mov	ecx, edx
	mov	qword ptr [rbp - 24], rax
	mov	dword ptr [rbp - 28], ecx
	call	_ZNSaIcED1Ev

	mov	rdi, qword ptr [rbp - 24]
	call	_Unwind_Resume
.Lfunc_end86:
	.size	_ZNK8CryptoPP13AlgorithmImplINS_25SimpleKeyingInterfaceImplINS_8TwoBasesINS_11BlockCipherENS_13DES_EDE3_InfoEEES5_EES6_E13AlgorithmNameB5cxx11Ev, .Lfunc_end86-_ZNK8CryptoPP13AlgorithmImplINS_25SimpleKeyingInterfaceImplINS_8TwoBasesINS_11BlockCipherENS_13DES_EDE3_InfoEEES5_EES6_E13AlgorithmNameB5cxx11Ev
	.cfi_endproc
	.section	.gcc_except_table,"a",@progbits
	.p2align	2
GCC_except_table86:
.Lexception10:
	.byte	255                     
	.byte	3                       
	.asciz	"\234"                  
	.byte	3                       
	.byte	26                      
	.long	.Ltmp96-.Lfunc_begin10  
	.long	.Ltmp97-.Ltmp96         
	.long	.Ltmp98-.Lfunc_begin10  
	.byte	0                       
	.long	.Ltmp97-.Lfunc_begin10  
	.long	.Lfunc_end86-.Ltmp97    
	.long	0                       
	.byte	0                       
	.p2align	2

	.section	.text._ZNK8CryptoPP15BlockCipherImplINS_13DES_EDE3_InfoENS_11BlockCipherEE9BlockSizeEv,"axG",@progbits,_ZNK8CryptoPP15BlockCipherImplINS_13DES_EDE3_InfoENS_11BlockCipherEE9BlockSizeEv,comdat
	.weak	_ZNK8CryptoPP15BlockCipherImplINS_13DES_EDE3_InfoENS_11BlockCipherEE9BlockSizeEv 
	.p2align	4, 0x90
	.type	_ZNK8CryptoPP15BlockCipherImplINS_13DES_EDE3_InfoENS_11BlockCipherEE9BlockSizeEv,@function
_ZNK8CryptoPP15BlockCipherImplINS_13DES_EDE3_InfoENS_11BlockCipherEE9BlockSizeEv: 

	push	rbp
	mov	rbp, rsp
	mov	eax, 8
	mov	qword ptr [rbp - 8], rdi
	pop	rbp
	ret
.Lfunc_end87:
	.size	_ZNK8CryptoPP15BlockCipherImplINS_13DES_EDE3_InfoENS_11BlockCipherEE9BlockSizeEv, .Lfunc_end87-_ZNK8CryptoPP15BlockCipherImplINS_13DES_EDE3_InfoENS_11BlockCipherEE9BlockSizeEv

	.section	.text._ZThn8_N8CryptoPP8DES_EDE34BaseD1Ev,"axG",@progbits,_ZThn8_N8CryptoPP8DES_EDE34BaseD1Ev,comdat
	.weak	_ZThn8_N8CryptoPP8DES_EDE34BaseD1Ev 
	.p2align	4, 0x90
	.type	_ZThn8_N8CryptoPP8DES_EDE34BaseD1Ev,@function
_ZThn8_N8CryptoPP8DES_EDE34BaseD1Ev:    
	.cfi_startproc

	push	rbp
.Lcfi193:
	.cfi_def_cfa_offset 16
.Lcfi194:
	.cfi_offset rbp, -16
	mov	rbp, rsp
.Lcfi195:
	.cfi_def_cfa_register rbp
	mov	qword ptr [rbp - 8], rdi
	mov	rdi, qword ptr [rbp - 8]
	add	rdi, -8
	pop	rbp
	jmp	_ZN8CryptoPP8DES_EDE34BaseD2Ev 
.Lfunc_end88:
	.size	_ZThn8_N8CryptoPP8DES_EDE34BaseD1Ev, .Lfunc_end88-_ZThn8_N8CryptoPP8DES_EDE34BaseD1Ev
	.cfi_endproc

	.section	.text._ZThn8_N8CryptoPP8DES_EDE34BaseD0Ev,"axG",@progbits,_ZThn8_N8CryptoPP8DES_EDE34BaseD0Ev,comdat
	.weak	_ZThn8_N8CryptoPP8DES_EDE34BaseD0Ev 
	.p2align	4, 0x90
	.type	_ZThn8_N8CryptoPP8DES_EDE34BaseD0Ev,@function
_ZThn8_N8CryptoPP8DES_EDE34BaseD0Ev:    
	.cfi_startproc

	push	rbp
.Lcfi196:
	.cfi_def_cfa_offset 16
.Lcfi197:
	.cfi_offset rbp, -16
	mov	rbp, rsp
.Lcfi198:
	.cfi_def_cfa_register rbp
	push	r14
	push	rbx
	sub	rsp, 48
.Lcfi199:
	.cfi_offset rbx, -32
.Lcfi200:
	.cfi_offset r14, -24
	mov	eax, dword ptr [x.163]
	mov	ecx, dword ptr [y.164]
	mov	edx, eax
	sub	edx, 1282697150
	sub	edx, 1
	add	edx, 1282697150
	imul	eax, edx
	and	eax, 1
	cmp	eax, 0
	sete	sil
	and	sil, 1
	mov	byte ptr [rbp - 18], sil
	cmp	ecx, 10
	setl	sil
	and	sil, 1
	mov	byte ptr [rbp - 17], sil
	mov	dword ptr [rbp - 24], 981735604
	mov	qword ptr [rbp - 32], rdi 
.LBB89_1:                               
	mov	eax, dword ptr [rbp - 24]
	mov	ecx, eax
	sub	ecx, -603724639
	mov	dword ptr [rbp - 36], eax 
	mov	dword ptr [rbp - 40], ecx 
	je	.LBB89_6
	jmp	.LBB89_8
.LBB89_8:                               
	mov	eax, dword ptr [rbp - 36] 
	sub	eax, 921915985
	mov	dword ptr [rbp - 44], eax 
	je	.LBB89_4
	jmp	.LBB89_9
.LBB89_9:                               
	mov	eax, dword ptr [rbp - 36] 
	sub	eax, 981735604
	mov	dword ptr [rbp - 48], eax 
	je	.LBB89_3
	jmp	.LBB89_10
.LBB89_10:                              
	mov	eax, dword ptr [rbp - 36] 
	sub	eax, 1134830668
	mov	dword ptr [rbp - 52], eax 
	je	.LBB89_5
	jmp	.LBB89_2
.LBB89_2:                               
	jmp	.LBB89_7
.LBB89_3:                               
	mov	eax, 3691242657
	mov	ecx, 921915985
	mov	dl, byte ptr [rbp - 18]
	mov	sil, byte ptr [rbp - 17]
	mov	dil, dl
	and	dil, sil
	xor	dl, sil
	or	dil, dl
	test	dil, 1
	cmovne	eax, ecx
	mov	dword ptr [rbp - 24], eax
	jmp	.LBB89_7
.LBB89_4:                               
	mov	rax, rsp
	add	rax, -16
	mov	rsp, rax
	mov	rcx, qword ptr [rbp - 32] 
	mov	qword ptr [rax], rcx
	mov	rax, qword ptr [rax]
	add	rax, -8
	mov	rdi, rax
	call	_ZN8CryptoPP8DES_EDE34BaseD0Ev
	mov	edx, 3691242657
	mov	esi, 1134830668
	mov	r8d, dword ptr [x.163]
	mov	r9d, dword ptr [y.164]
	mov	r10d, r8d
	sub	r10d, 1670310248
	sub	r10d, 1
	add	r10d, 1670310248
	imul	r8d, r10d
	and	r8d, 1
	cmp	r8d, 0
	sete	r11b
	cmp	r9d, 10
	setl	bl
	mov	r14b, r11b
	and	r14b, bl
	xor	r11b, bl
	or	r14b, r11b
	test	r14b, 1
	cmovne	edx, esi
	mov	dword ptr [rbp - 24], edx
	jmp	.LBB89_7
.LBB89_5:
	lea	rsp, [rbp - 16]
	pop	rbx
	pop	r14
	pop	rbp
	ret
.LBB89_6:                               
	mov	rax, rsp
	add	rax, -16
	mov	rsp, rax
	mov	rcx, qword ptr [rbp - 32] 
	mov	qword ptr [rax], rcx
	mov	rax, qword ptr [rax]
	add	rax, -8
	mov	rdi, rax
	call	_ZN8CryptoPP8DES_EDE34BaseD0Ev
	mov	dword ptr [rbp - 24], 921915985
.LBB89_7:                               
	jmp	.LBB89_1
.Lfunc_end89:
	.size	_ZThn8_N8CryptoPP8DES_EDE34BaseD0Ev, .Lfunc_end89-_ZThn8_N8CryptoPP8DES_EDE34BaseD0Ev
	.cfi_endproc

	.section	.text._ZThn8_NK8CryptoPP13AlgorithmImplINS_25SimpleKeyingInterfaceImplINS_8TwoBasesINS_11BlockCipherENS_13DES_EDE3_InfoEEES5_EES6_E13AlgorithmNameB5cxx11Ev,"axG",@progbits,_ZThn8_NK8CryptoPP13AlgorithmImplINS_25SimpleKeyingInterfaceImplINS_8TwoBasesINS_11BlockCipherENS_13DES_EDE3_InfoEEES5_EES6_E13AlgorithmNameB5cxx11Ev,comdat
	.weak	_ZThn8_NK8CryptoPP13AlgorithmImplINS_25SimpleKeyingInterfaceImplINS_8TwoBasesINS_11BlockCipherENS_13DES_EDE3_InfoEEES5_EES6_E13AlgorithmNameB5cxx11Ev 
	.p2align	4, 0x90
	.type	_ZThn8_NK8CryptoPP13AlgorithmImplINS_25SimpleKeyingInterfaceImplINS_8TwoBasesINS_11BlockCipherENS_13DES_EDE3_InfoEEES5_EES6_E13AlgorithmNameB5cxx11Ev,@function
_ZThn8_NK8CryptoPP13AlgorithmImplINS_25SimpleKeyingInterfaceImplINS_8TwoBasesINS_11BlockCipherENS_13DES_EDE3_InfoEEES5_EES6_E13AlgorithmNameB5cxx11Ev: 
	.cfi_startproc

	push	rbp
.Lcfi201:
	.cfi_def_cfa_offset 16
.Lcfi202:
	.cfi_offset rbp, -16
	mov	rbp, rsp
.Lcfi203:
	.cfi_def_cfa_register rbp
	sub	rsp, 16
	mov	rax, rdi
	mov	qword ptr [rbp - 8], rsi
	mov	rsi, qword ptr [rbp - 8]
	add	rsi, -8
	mov	qword ptr [rbp - 16], rax 
	call	_ZNK8CryptoPP13AlgorithmImplINS_25SimpleKeyingInterfaceImplINS_8TwoBasesINS_11BlockCipherENS_13DES_EDE3_InfoEEES5_EES6_E13AlgorithmNameB5cxx11Ev
	mov	rax, qword ptr [rbp - 16] 
	add	rsp, 16
	pop	rbp
	ret
.Lfunc_end90:
	.size	_ZThn8_NK8CryptoPP13AlgorithmImplINS_25SimpleKeyingInterfaceImplINS_8TwoBasesINS_11BlockCipherENS_13DES_EDE3_InfoEEES5_EES6_E13AlgorithmNameB5cxx11Ev, .Lfunc_end90-_ZThn8_NK8CryptoPP13AlgorithmImplINS_25SimpleKeyingInterfaceImplINS_8TwoBasesINS_11BlockCipherENS_13DES_EDE3_InfoEEES5_EES6_E13AlgorithmNameB5cxx11Ev
	.cfi_endproc

	.section	.text._ZThn8_NK8CryptoPP15BlockCipherImplINS_13DES_EDE3_InfoENS_11BlockCipherEE9BlockSizeEv,"axG",@progbits,_ZThn8_NK8CryptoPP15BlockCipherImplINS_13DES_EDE3_InfoENS_11BlockCipherEE9BlockSizeEv,comdat
	.weak	_ZThn8_NK8CryptoPP15BlockCipherImplINS_13DES_EDE3_InfoENS_11BlockCipherEE9BlockSizeEv 
	.p2align	4, 0x90
	.type	_ZThn8_NK8CryptoPP15BlockCipherImplINS_13DES_EDE3_InfoENS_11BlockCipherEE9BlockSizeEv,@function
_ZThn8_NK8CryptoPP15BlockCipherImplINS_13DES_EDE3_InfoENS_11BlockCipherEE9BlockSizeEv: 
	.cfi_startproc

	push	rbp
.Lcfi204:
	.cfi_def_cfa_offset 16
.Lcfi205:
	.cfi_offset rbp, -16
	mov	rbp, rsp
.Lcfi206:
	.cfi_def_cfa_register rbp
	mov	qword ptr [rbp - 8], rdi
	mov	rdi, qword ptr [rbp - 8]
	add	rdi, -8
	pop	rbp
	jmp	_ZNK8CryptoPP15BlockCipherImplINS_13DES_EDE3_InfoENS_11BlockCipherEE9BlockSizeEv 
.Lfunc_end91:
	.size	_ZThn8_NK8CryptoPP15BlockCipherImplINS_13DES_EDE3_InfoENS_11BlockCipherEE9BlockSizeEv, .Lfunc_end91-_ZThn8_NK8CryptoPP15BlockCipherImplINS_13DES_EDE3_InfoENS_11BlockCipherEE9BlockSizeEv
	.cfi_endproc

	.section	.text._ZN8CryptoPP8DES_XEX34BaseD2Ev,"axG",@progbits,_ZN8CryptoPP8DES_XEX34BaseD2Ev,comdat
	.weak	_ZN8CryptoPP8DES_XEX34BaseD2Ev 
	.p2align	4, 0x90
	.type	_ZN8CryptoPP8DES_XEX34BaseD2Ev,@function
_ZN8CryptoPP8DES_XEX34BaseD2Ev:         
.Lfunc_begin11:
	.cfi_startproc
	.cfi_personality 3, __gxx_personality_v0
	.cfi_lsda 3, .Lexception11

	push	rbp
.Lcfi207:
	.cfi_def_cfa_offset 16
.Lcfi208:
	.cfi_offset rbp, -16
	mov	rbp, rsp
.Lcfi209:
	.cfi_def_cfa_register rbp
	sub	rsp, 48
	mov	qword ptr [rbp - 8], rdi
	mov	rdi, qword ptr [rbp - 8]
	mov	qword ptr [rdi], _ZTVN8CryptoPP8DES_XEX34BaseE+16
	mov	qword ptr [rdi + 8], _ZTVN8CryptoPP8DES_XEX34BaseE+184
	mov	rax, rdi
	add	rax, 96
.Ltmp99:
	mov	qword ptr [rbp - 32], rdi 
	mov	rdi, rax
	call	_ZN8CryptoPP9value_ptrINS_16BlockCipherFinalILNS_9CipherDirE0ENS_3DES4BaseEEEED2Ev
.Ltmp100:
	jmp	.LBB92_1
.LBB92_1:
	mov	rax, qword ptr [rbp - 32] 
	add	rax, 56
.Ltmp104:
	mov	rdi, rax
	call	_ZN8CryptoPP17FixedSizeSecBlockIhLj8ENS_29FixedSizeAllocatorWithCleanupIhLm8ENS_13NullAllocatorIhEELb0EEEED2Ev
.Ltmp105:
	jmp	.LBB92_2
.LBB92_2:
	mov	rax, qword ptr [rbp - 32] 
	add	rax, 16
.Ltmp109:
	mov	rdi, rax
	call	_ZN8CryptoPP17FixedSizeSecBlockIhLj8ENS_29FixedSizeAllocatorWithCleanupIhLm8ENS_13NullAllocatorIhEELb0EEEED2Ev
.Ltmp110:
	jmp	.LBB92_3
.LBB92_3:
	mov	rax, qword ptr [rbp - 32] 
	mov	rdi, rax
	call	_ZN8CryptoPP15BlockCipherImplINS_13DES_XEX3_InfoENS_11BlockCipherEED2Ev
	add	rsp, 48
	pop	rbp
	ret
.LBB92_4:
.Ltmp101:
	mov	ecx, edx
	mov	qword ptr [rbp - 16], rax
	mov	dword ptr [rbp - 20], ecx
	mov	rax, qword ptr [rbp - 32] 
	add	rax, 56
.Ltmp102:
	mov	rdi, rax
	call	_ZN8CryptoPP17FixedSizeSecBlockIhLj8ENS_29FixedSizeAllocatorWithCleanupIhLm8ENS_13NullAllocatorIhEELb0EEEED2Ev
.Ltmp103:
	jmp	.LBB92_6
.LBB92_5:
.Ltmp106:
	mov	ecx, edx
	mov	qword ptr [rbp - 16], rax
	mov	dword ptr [rbp - 20], ecx
	jmp	.LBB92_8
.LBB92_6:
	jmp	.LBB92_8
.LBB92_7:
.Ltmp111:
	mov	ecx, edx
	mov	qword ptr [rbp - 16], rax
	mov	dword ptr [rbp - 20], ecx
	jmp	.LBB92_10
.LBB92_8:
	mov	rax, qword ptr [rbp - 32] 
	add	rax, 16
.Ltmp107:
	mov	rdi, rax
	call	_ZN8CryptoPP17FixedSizeSecBlockIhLj8ENS_29FixedSizeAllocatorWithCleanupIhLm8ENS_13NullAllocatorIhEELb0EEEED2Ev
.Ltmp108:
	jmp	.LBB92_9
.LBB92_9:
	jmp	.LBB92_10
.LBB92_10:
.Ltmp112:
	mov	rdi, qword ptr [rbp - 32] 
	call	_ZN8CryptoPP15BlockCipherImplINS_13DES_XEX3_InfoENS_11BlockCipherEED2Ev
.Ltmp113:
	jmp	.LBB92_11
.LBB92_11:
	jmp	.LBB92_12
.LBB92_12:
	mov	rdi, qword ptr [rbp - 16]
	call	_Unwind_Resume
.LBB92_13:
.Ltmp114:
	mov	ecx, edx
	mov	rdi, rax
	mov	dword ptr [rbp - 36], ecx 
	call	__clang_call_terminate
.Lfunc_end92:
	.size	_ZN8CryptoPP8DES_XEX34BaseD2Ev, .Lfunc_end92-_ZN8CryptoPP8DES_XEX34BaseD2Ev
	.cfi_endproc
	.section	.gcc_except_table,"a",@progbits
	.p2align	2
GCC_except_table92:
.Lexception11:
	.byte	255                     
	.byte	3                       
	.asciz	"\326\200\200"          
	.byte	3                       
	.byte	78                      
	.long	.Ltmp99-.Lfunc_begin11  
	.long	.Ltmp100-.Ltmp99        
	.long	.Ltmp101-.Lfunc_begin11 
	.byte	0                       
	.long	.Ltmp104-.Lfunc_begin11 
	.long	.Ltmp105-.Ltmp104       
	.long	.Ltmp106-.Lfunc_begin11 
	.byte	0                       
	.long	.Ltmp109-.Lfunc_begin11 
	.long	.Ltmp110-.Ltmp109       
	.long	.Ltmp111-.Lfunc_begin11 
	.byte	0                       
	.long	.Ltmp110-.Lfunc_begin11 
	.long	.Ltmp102-.Ltmp110       
	.long	0                       
	.byte	0                       
	.long	.Ltmp102-.Lfunc_begin11 
	.long	.Ltmp113-.Ltmp102       
	.long	.Ltmp114-.Lfunc_begin11 
	.byte	1                       
	.long	.Ltmp113-.Lfunc_begin11 
	.long	.Lfunc_end92-.Ltmp113   
	.long	0                       
	.byte	0                       
	.byte	1                       

	.byte	0                       

	.long	0                       
	.p2align	2

	.section	.text._ZN8CryptoPP8DES_XEX34BaseD0Ev,"axG",@progbits,_ZN8CryptoPP8DES_XEX34BaseD0Ev,comdat
	.weak	_ZN8CryptoPP8DES_XEX34BaseD0Ev 
	.p2align	4, 0x90
	.type	_ZN8CryptoPP8DES_XEX34BaseD0Ev,@function
_ZN8CryptoPP8DES_XEX34BaseD0Ev:         

	push	rbp
	mov	rbp, rsp
	mov	qword ptr [rbp - 8], rdi
	ud2
	mov	dword ptr [rbp - 12], -1970892962
.LBB93_1:                               
	mov	eax, dword ptr [rbp - 12]
	sub	eax, -1970892962
	mov	dword ptr [rbp - 16], eax 
	je	.LBB93_3
	jmp	.LBB93_2
.LBB93_2:                               
	jmp	.LBB93_4
.LBB93_3:
	pop	rbp
	ret
.LBB93_4:                               
	jmp	.LBB93_1
.Lfunc_end93:
	.size	_ZN8CryptoPP8DES_XEX34BaseD0Ev, .Lfunc_end93-_ZN8CryptoPP8DES_XEX34BaseD0Ev

	.section	.text._ZNK8CryptoPP25SimpleKeyingInterfaceImplINS_8TwoBasesINS_11BlockCipherENS_13DES_XEX3_InfoEEES4_E12MinKeyLengthEv,"axG",@progbits,_ZNK8CryptoPP25SimpleKeyingInterfaceImplINS_8TwoBasesINS_11BlockCipherENS_13DES_XEX3_InfoEEES4_E12MinKeyLengthEv,comdat
	.weak	_ZNK8CryptoPP25SimpleKeyingInterfaceImplINS_8TwoBasesINS_11BlockCipherENS_13DES_XEX3_InfoEEES4_E12MinKeyLengthEv 
	.p2align	4, 0x90
	.type	_ZNK8CryptoPP25SimpleKeyingInterfaceImplINS_8TwoBasesINS_11BlockCipherENS_13DES_XEX3_InfoEEES4_E12MinKeyLengthEv,@function
_ZNK8CryptoPP25SimpleKeyingInterfaceImplINS_8TwoBasesINS_11BlockCipherENS_13DES_XEX3_InfoEEES4_E12MinKeyLengthEv: 

	push	rbp
	mov	rbp, rsp
	push	r15
	push	r14
	push	r13
	push	r12
	push	rbx
	sub	rsp, 40
	mov	eax, dword ptr [x.171]
	mov	ecx, dword ptr [y.172]
	mov	edx, eax
	sub	edx, -787501612
	sub	edx, 1
	add	edx, -787501612
	imul	eax, edx
	and	eax, 1
	cmp	eax, 0
	sete	sil
	and	sil, 1
	mov	byte ptr [rbp - 42], sil
	cmp	ecx, 10
	setl	sil
	and	sil, 1
	mov	byte ptr [rbp - 41], sil
	mov	dword ptr [rbp - 48], -10073252
	mov	qword ptr [rbp - 56], rdi 
.LBB94_1:                               
	mov	eax, dword ptr [rbp - 48]
	mov	ecx, eax
	sub	ecx, -1408405950
	mov	dword ptr [rbp - 60], eax 
	mov	dword ptr [rbp - 64], ecx 
	je	.LBB94_5
	jmp	.LBB94_8
.LBB94_8:                               
	mov	eax, dword ptr [rbp - 60] 
	sub	eax, -747230654
	mov	dword ptr [rbp - 68], eax 
	je	.LBB94_4
	jmp	.LBB94_9
.LBB94_9:                               
	mov	eax, dword ptr [rbp - 60] 
	sub	eax, -133244681
	mov	dword ptr [rbp - 72], eax 
	je	.LBB94_6
	jmp	.LBB94_10
.LBB94_10:                              
	mov	eax, dword ptr [rbp - 60] 
	sub	eax, -10073252
	mov	dword ptr [rbp - 76], eax 
	je	.LBB94_3
	jmp	.LBB94_2
.LBB94_2:                               
	jmp	.LBB94_7
.LBB94_3:                               
	mov	eax, 4161722615
	mov	ecx, 3547736642
	mov	dl, byte ptr [rbp - 42]
	mov	sil, byte ptr [rbp - 41]
	mov	dil, dl
	and	dil, sil
	xor	dl, sil
	or	dil, dl
	test	dil, 1
	cmovne	eax, ecx
	mov	dword ptr [rbp - 48], eax
	jmp	.LBB94_7
.LBB94_4:                               
	mov	eax, 4161722615
	mov	ecx, 2886561346
	mov	dl, 1
	xor	esi, esi
	mov	rdi, rsp
	add	rdi, -16
	mov	rsp, rdi
	mov	r8, qword ptr [rbp - 56] 
	mov	qword ptr [rdi], r8
	mov	r9d, dword ptr [x.171]
	mov	r10d, dword ptr [y.172]
	sub	esi, 1
	mov	r11d, r9d
	add	r11d, esi
	imul	r9d, r11d
	and	r9d, 1
	cmp	r9d, 0
	sete	bl
	cmp	r10d, 10
	setl	r14b
	mov	r15b, bl
	xor	r15b, -1
	mov	r12b, r14b
	xor	r12b, -1
	xor	dl, 0
	mov	r13b, r15b
	and	r13b, 0
	and	bl, dl
	mov	sil, r12b
	and	sil, 0
	and	r14b, dl
	or	r13b, bl
	or	sil, r14b
	xor	r13b, sil
	or	r15b, r12b
	xor	r15b, -1
	or	dl, 0
	and	r15b, dl
	or	r13b, r15b
	test	r13b, 1
	cmovne	eax, ecx
	mov	dword ptr [rbp - 48], eax
	jmp	.LBB94_7
.LBB94_5:
	mov	eax, 24

	lea	rsp, [rbp - 40]
	pop	rbx
	pop	r12
	pop	r13
	pop	r14
	pop	r15
	pop	rbp
	ret
.LBB94_6:                               
	mov	rax, rsp
	add	rax, -16
	mov	rsp, rax
	mov	rcx, qword ptr [rbp - 56] 
	mov	qword ptr [rax], rcx
	mov	dword ptr [rbp - 48], -747230654
.LBB94_7:                               
	jmp	.LBB94_1
.Lfunc_end94:
	.size	_ZNK8CryptoPP25SimpleKeyingInterfaceImplINS_8TwoBasesINS_11BlockCipherENS_13DES_XEX3_InfoEEES4_E12MinKeyLengthEv, .Lfunc_end94-_ZNK8CryptoPP25SimpleKeyingInterfaceImplINS_8TwoBasesINS_11BlockCipherENS_13DES_XEX3_InfoEEES4_E12MinKeyLengthEv

	.section	.text._ZNK8CryptoPP25SimpleKeyingInterfaceImplINS_8TwoBasesINS_11BlockCipherENS_13DES_XEX3_InfoEEES4_E12MaxKeyLengthEv,"axG",@progbits,_ZNK8CryptoPP25SimpleKeyingInterfaceImplINS_8TwoBasesINS_11BlockCipherENS_13DES_XEX3_InfoEEES4_E12MaxKeyLengthEv,comdat
	.weak	_ZNK8CryptoPP25SimpleKeyingInterfaceImplINS_8TwoBasesINS_11BlockCipherENS_13DES_XEX3_InfoEEES4_E12MaxKeyLengthEv 
	.p2align	4, 0x90
	.type	_ZNK8CryptoPP25SimpleKeyingInterfaceImplINS_8TwoBasesINS_11BlockCipherENS_13DES_XEX3_InfoEEES4_E12MaxKeyLengthEv,@function
_ZNK8CryptoPP25SimpleKeyingInterfaceImplINS_8TwoBasesINS_11BlockCipherENS_13DES_XEX3_InfoEEES4_E12MaxKeyLengthEv: 

	push	rbp
	mov	rbp, rsp
	mov	eax, 24

	mov	qword ptr [rbp - 8], rdi
	pop	rbp
	ret
.Lfunc_end95:
	.size	_ZNK8CryptoPP25SimpleKeyingInterfaceImplINS_8TwoBasesINS_11BlockCipherENS_13DES_XEX3_InfoEEES4_E12MaxKeyLengthEv, .Lfunc_end95-_ZNK8CryptoPP25SimpleKeyingInterfaceImplINS_8TwoBasesINS_11BlockCipherENS_13DES_XEX3_InfoEEES4_E12MaxKeyLengthEv

	.section	.text._ZNK8CryptoPP25SimpleKeyingInterfaceImplINS_8TwoBasesINS_11BlockCipherENS_13DES_XEX3_InfoEEES4_E16DefaultKeyLengthEv,"axG",@progbits,_ZNK8CryptoPP25SimpleKeyingInterfaceImplINS_8TwoBasesINS_11BlockCipherENS_13DES_XEX3_InfoEEES4_E16DefaultKeyLengthEv,comdat
	.weak	_ZNK8CryptoPP25SimpleKeyingInterfaceImplINS_8TwoBasesINS_11BlockCipherENS_13DES_XEX3_InfoEEES4_E16DefaultKeyLengthEv 
	.p2align	4, 0x90
	.type	_ZNK8CryptoPP25SimpleKeyingInterfaceImplINS_8TwoBasesINS_11BlockCipherENS_13DES_XEX3_InfoEEES4_E16DefaultKeyLengthEv,@function
_ZNK8CryptoPP25SimpleKeyingInterfaceImplINS_8TwoBasesINS_11BlockCipherENS_13DES_XEX3_InfoEEES4_E16DefaultKeyLengthEv: 

	push	rbp
	mov	rbp, rsp
	mov	eax, 24

	mov	qword ptr [rbp - 8], rdi
	pop	rbp
	ret
.Lfunc_end96:
	.size	_ZNK8CryptoPP25SimpleKeyingInterfaceImplINS_8TwoBasesINS_11BlockCipherENS_13DES_XEX3_InfoEEES4_E16DefaultKeyLengthEv, .Lfunc_end96-_ZNK8CryptoPP25SimpleKeyingInterfaceImplINS_8TwoBasesINS_11BlockCipherENS_13DES_XEX3_InfoEEES4_E16DefaultKeyLengthEv

	.section	.text._ZNK8CryptoPP25SimpleKeyingInterfaceImplINS_8TwoBasesINS_11BlockCipherENS_13DES_XEX3_InfoEEES4_E17GetValidKeyLengthEm,"axG",@progbits,_ZNK8CryptoPP25SimpleKeyingInterfaceImplINS_8TwoBasesINS_11BlockCipherENS_13DES_XEX3_InfoEEES4_E17GetValidKeyLengthEm,comdat
	.weak	_ZNK8CryptoPP25SimpleKeyingInterfaceImplINS_8TwoBasesINS_11BlockCipherENS_13DES_XEX3_InfoEEES4_E17GetValidKeyLengthEm 
	.p2align	4, 0x90
	.type	_ZNK8CryptoPP25SimpleKeyingInterfaceImplINS_8TwoBasesINS_11BlockCipherENS_13DES_XEX3_InfoEEES4_E17GetValidKeyLengthEm,@function
_ZNK8CryptoPP25SimpleKeyingInterfaceImplINS_8TwoBasesINS_11BlockCipherENS_13DES_XEX3_InfoEEES4_E17GetValidKeyLengthEm: 

	push	rbp
	mov	rbp, rsp
	sub	rsp, 16
	mov	qword ptr [rbp - 8], rdi
	mov	qword ptr [rbp - 16], rsi
	mov	rdi, qword ptr [rbp - 16]
	call	_ZN8CryptoPP14FixedKeyLengthILj24ELj4ELj0EE23StaticGetValidKeyLengthEm
	add	rsp, 16
	pop	rbp
	ret
.Lfunc_end97:
	.size	_ZNK8CryptoPP25SimpleKeyingInterfaceImplINS_8TwoBasesINS_11BlockCipherENS_13DES_XEX3_InfoEEES4_E17GetValidKeyLengthEm, .Lfunc_end97-_ZNK8CryptoPP25SimpleKeyingInterfaceImplINS_8TwoBasesINS_11BlockCipherENS_13DES_XEX3_InfoEEES4_E17GetValidKeyLengthEm

	.section	.text._ZNK8CryptoPP25SimpleKeyingInterfaceImplINS_8TwoBasesINS_11BlockCipherENS_13DES_XEX3_InfoEEES4_E13IVRequirementEv,"axG",@progbits,_ZNK8CryptoPP25SimpleKeyingInterfaceImplINS_8TwoBasesINS_11BlockCipherENS_13DES_XEX3_InfoEEES4_E13IVRequirementEv,comdat
	.weak	_ZNK8CryptoPP25SimpleKeyingInterfaceImplINS_8TwoBasesINS_11BlockCipherENS_13DES_XEX3_InfoEEES4_E13IVRequirementEv 
	.p2align	4, 0x90
	.type	_ZNK8CryptoPP25SimpleKeyingInterfaceImplINS_8TwoBasesINS_11BlockCipherENS_13DES_XEX3_InfoEEES4_E13IVRequirementEv,@function
_ZNK8CryptoPP25SimpleKeyingInterfaceImplINS_8TwoBasesINS_11BlockCipherENS_13DES_XEX3_InfoEEES4_E13IVRequirementEv: 

	push	rbp
	mov	rbp, rsp
	mov	eax, 4
	mov	qword ptr [rbp - 8], rdi
	pop	rbp
	ret
.Lfunc_end98:
	.size	_ZNK8CryptoPP25SimpleKeyingInterfaceImplINS_8TwoBasesINS_11BlockCipherENS_13DES_XEX3_InfoEEES4_E13IVRequirementEv, .Lfunc_end98-_ZNK8CryptoPP25SimpleKeyingInterfaceImplINS_8TwoBasesINS_11BlockCipherENS_13DES_XEX3_InfoEEES4_E13IVRequirementEv

	.section	.text._ZNK8CryptoPP25SimpleKeyingInterfaceImplINS_8TwoBasesINS_11BlockCipherENS_13DES_XEX3_InfoEEES4_E6IVSizeEv,"axG",@progbits,_ZNK8CryptoPP25SimpleKeyingInterfaceImplINS_8TwoBasesINS_11BlockCipherENS_13DES_XEX3_InfoEEES4_E6IVSizeEv,comdat
	.weak	_ZNK8CryptoPP25SimpleKeyingInterfaceImplINS_8TwoBasesINS_11BlockCipherENS_13DES_XEX3_InfoEEES4_E6IVSizeEv 
	.p2align	4, 0x90
	.type	_ZNK8CryptoPP25SimpleKeyingInterfaceImplINS_8TwoBasesINS_11BlockCipherENS_13DES_XEX3_InfoEEES4_E6IVSizeEv,@function
_ZNK8CryptoPP25SimpleKeyingInterfaceImplINS_8TwoBasesINS_11BlockCipherENS_13DES_XEX3_InfoEEES4_E6IVSizeEv: 

	push	rbp
	mov	rbp, rsp
	xor	eax, eax
	mov	qword ptr [rbp - 8], rdi
	pop	rbp
	ret
.Lfunc_end99:
	.size	_ZNK8CryptoPP25SimpleKeyingInterfaceImplINS_8TwoBasesINS_11BlockCipherENS_13DES_XEX3_InfoEEES4_E6IVSizeEv, .Lfunc_end99-_ZNK8CryptoPP25SimpleKeyingInterfaceImplINS_8TwoBasesINS_11BlockCipherENS_13DES_XEX3_InfoEEES4_E6IVSizeEv

	.section	.text._ZNK8CryptoPP13AlgorithmImplINS_25SimpleKeyingInterfaceImplINS_8TwoBasesINS_11BlockCipherENS_13DES_XEX3_InfoEEES5_EES6_E13AlgorithmNameB5cxx11Ev,"axG",@progbits,_ZNK8CryptoPP13AlgorithmImplINS_25SimpleKeyingInterfaceImplINS_8TwoBasesINS_11BlockCipherENS_13DES_XEX3_InfoEEES5_EES6_E13AlgorithmNameB5cxx11Ev,comdat
	.weak	_ZNK8CryptoPP13AlgorithmImplINS_25SimpleKeyingInterfaceImplINS_8TwoBasesINS_11BlockCipherENS_13DES_XEX3_InfoEEES5_EES6_E13AlgorithmNameB5cxx11Ev 
	.p2align	4, 0x90
	.type	_ZNK8CryptoPP13AlgorithmImplINS_25SimpleKeyingInterfaceImplINS_8TwoBasesINS_11BlockCipherENS_13DES_XEX3_InfoEEES5_EES6_E13AlgorithmNameB5cxx11Ev,@function
_ZNK8CryptoPP13AlgorithmImplINS_25SimpleKeyingInterfaceImplINS_8TwoBasesINS_11BlockCipherENS_13DES_XEX3_InfoEEES5_EES6_E13AlgorithmNameB5cxx11Ev: 
.Lfunc_begin12:
	.cfi_startproc
	.cfi_personality 3, __gxx_personality_v0
	.cfi_lsda 3, .Lexception12

	push	rbp
.Lcfi210:
	.cfi_def_cfa_offset 16
.Lcfi211:
	.cfi_offset rbp, -16
	mov	rbp, rsp
.Lcfi212:
	.cfi_def_cfa_register rbp
	sub	rsp, 64
	mov	rax, rdi
	mov	qword ptr [rbp - 8], rsi
	mov	qword ptr [rbp - 40], rax 
	mov	qword ptr [rbp - 48], rdi 
	call	_ZN8CryptoPP13DES_XEX3_Info19StaticAlgorithmNameEv
	lea	rsi, [rbp - 16]
	mov	rdi, rsi
	mov	qword ptr [rbp - 56], rax 
	mov	qword ptr [rbp - 64], rsi 
	call	_ZNSaIcEC1Ev
.Ltmp115:
	mov	rdi, qword ptr [rbp - 48] 
	mov	rsi, qword ptr [rbp - 56] 
	mov	rdx, qword ptr [rbp - 64] 
	call	_ZNSt7__cxx1112basic_stringIcSt11char_traitsIcESaIcEEC1EPKcRKS3_
.Ltmp116:
	jmp	.LBB100_1
.LBB100_1:
	lea	rdi, [rbp - 16]
	call	_ZNSaIcED1Ev
	mov	rax, qword ptr [rbp - 40] 
	add	rsp, 64
	pop	rbp
	ret
.LBB100_2:
.Ltmp117:
	lea	rdi, [rbp - 16]
	mov	ecx, edx
	mov	qword ptr [rbp - 24], rax
	mov	dword ptr [rbp - 28], ecx
	call	_ZNSaIcED1Ev

	mov	rdi, qword ptr [rbp - 24]
	call	_Unwind_Resume
.Lfunc_end100:
	.size	_ZNK8CryptoPP13AlgorithmImplINS_25SimpleKeyingInterfaceImplINS_8TwoBasesINS_11BlockCipherENS_13DES_XEX3_InfoEEES5_EES6_E13AlgorithmNameB5cxx11Ev, .Lfunc_end100-_ZNK8CryptoPP13AlgorithmImplINS_25SimpleKeyingInterfaceImplINS_8TwoBasesINS_11BlockCipherENS_13DES_XEX3_InfoEEES5_EES6_E13AlgorithmNameB5cxx11Ev
	.cfi_endproc
	.section	.gcc_except_table,"a",@progbits
	.p2align	2
GCC_except_table100:
.Lexception12:
	.byte	255                     
	.byte	3                       
	.asciz	"\234"                  
	.byte	3                       
	.byte	26                      
	.long	.Ltmp115-.Lfunc_begin12 
	.long	.Ltmp116-.Ltmp115       
	.long	.Ltmp117-.Lfunc_begin12 
	.byte	0                       
	.long	.Ltmp116-.Lfunc_begin12 
	.long	.Lfunc_end100-.Ltmp116  
	.long	0                       
	.byte	0                       
	.p2align	2

	.section	.text._ZNK8CryptoPP15BlockCipherImplINS_13DES_XEX3_InfoENS_11BlockCipherEE9BlockSizeEv,"axG",@progbits,_ZNK8CryptoPP15BlockCipherImplINS_13DES_XEX3_InfoENS_11BlockCipherEE9BlockSizeEv,comdat
	.weak	_ZNK8CryptoPP15BlockCipherImplINS_13DES_XEX3_InfoENS_11BlockCipherEE9BlockSizeEv 
	.p2align	4, 0x90
